; ModuleID = 'AbstractStringValidator.cpp'
source_filename = "AbstractStringValidator.cpp"
target datalayout = "e-m:e-p270:32:32-p271:32:32-p272:64:64-i64:64-f80:128-n8:16:32:64-S128"
target triple = "x86_64-unknown-linux-gnu"

%"class.xercesc_2_5::XProtoType" = type { ptr, ptr }
%"class.xercesc_2_5::AbstractStringValidator" = type { %"class.xercesc_2_5::DatatypeValidator.base", i32, i32, i32, i8, ptr }
%"class.xercesc_2_5::DatatypeValidator.base" = type <{ %"class.xercesc_2_5::XSerializable", ptr, i8, i8, i16, i32, i32, i32, i32, [4 x i8], ptr, ptr, ptr, ptr, ptr, ptr, ptr, i32, i8, i8, i8 }>
%"class.xercesc_2_5::XSerializable" = type { ptr }
%"class.xercesc_2_5::DatatypeValidator" = type <{ %"class.xercesc_2_5::XSerializable", ptr, i8, i8, i16, i32, i32, i32, i32, [4 x i8], ptr, ptr, ptr, ptr, ptr, ptr, ptr, i32, i8, i8, i8, i8 }>
%"class.xercesc_2_5::RefHashTableOfEnumerator" = type { %"class.xercesc_2_5::XMLEnumerator", i8, ptr, i32, ptr, ptr }
%"class.xercesc_2_5::XMLEnumerator" = type { ptr }
%"class.xercesc_2_5::KVStringPair" = type { %"class.xercesc_2_5::XSerializable", ptr, ptr, i64, ptr, i64 }
%"class.xercesc_2_5::RefHashTableOf" = type { ptr, i8, ptr, i32, i32, i32, ptr }
%"struct.xercesc_2_5::RefHashTableBucketElem" = type { ptr, ptr, ptr }
%"class.xercesc_2_5::BaseRefVectorOf" = type { ptr, i8, i32, i32, ptr, ptr }
%"class.xercesc_2_5::ArrayJanitor" = type { ptr, ptr }
%"class.xercesc_2_5::XMLException" = type { ptr, i32, ptr, i32, ptr, ptr }

$__clang_call_terminate = comdat any

$_ZNK11xercesc_2_524RefHashTableOfEnumeratorINS_12KVStringPairEE15hasMoreElementsEv = comdat any

$_ZN11xercesc_2_524RefHashTableOfEnumeratorINS_12KVStringPairEE11nextElementEv = comdat any

$_ZN11xercesc_2_529InvalidDatatypeFacetExceptionC2EPKcjNS_10XMLExcepts5CodesEPKtS6_S6_S6_PNS_13MemoryManagerE = comdat any

$_ZN11xercesc_2_529InvalidDatatypeFacetExceptionC2EPKcjNS_10XMLExcepts5CodesEPNS_13MemoryManagerE = comdat any

$_ZN11xercesc_2_524RefHashTableOfEnumeratorINS_12KVStringPairEED2Ev = comdat any

$_ZN11xercesc_2_529InvalidDatatypeValueExceptionC2EPKcjNS_10XMLExcepts5CodesEPKtS6_S6_S6_PNS_13MemoryManagerE = comdat any

$_ZN11xercesc_2_512ArrayJanitorItED2Ev = comdat any

$_ZNK11xercesc_2_517DatatypeValidator8isAtomicEv = comdat any

$_ZN11xercesc_2_517DatatypeValidator17isSubstitutableByEPKS0_ = comdat any

$_ZN11xercesc_2_529InvalidDatatypeFacetExceptionD0Ev = comdat any

$_ZNK11xercesc_2_529InvalidDatatypeFacetException7getTypeEv = comdat any

$_ZNK11xercesc_2_529InvalidDatatypeFacetException9duplicateEv = comdat any

$_ZN11xercesc_2_529InvalidDatatypeValueExceptionD0Ev = comdat any

$_ZNK11xercesc_2_529InvalidDatatypeValueException7getTypeEv = comdat any

$_ZNK11xercesc_2_529InvalidDatatypeValueException9duplicateEv = comdat any

$_ZN11xercesc_2_524RefHashTableOfEnumeratorINS_12KVStringPairEED0Ev = comdat any

$_ZN11xercesc_2_524RefHashTableOfEnumeratorINS_12KVStringPairEE5ResetEv = comdat any

$_ZN11xercesc_2_522NoSuchElementExceptionC2EPKcjNS_10XMLExcepts5CodesEPNS_13MemoryManagerE = comdat any

$_ZN11xercesc_2_522NoSuchElementExceptionD0Ev = comdat any

$_ZNK11xercesc_2_522NoSuchElementException7getTypeEv = comdat any

$_ZNK11xercesc_2_522NoSuchElementException9duplicateEv = comdat any

$_ZN11xercesc_2_530ArrayIndexOutOfBoundsExceptionC2EPKcjNS_10XMLExcepts5CodesEPNS_13MemoryManagerE = comdat any

$_ZN11xercesc_2_530ArrayIndexOutOfBoundsExceptionD0Ev = comdat any

$_ZNK11xercesc_2_530ArrayIndexOutOfBoundsException7getTypeEv = comdat any

$_ZNK11xercesc_2_530ArrayIndexOutOfBoundsException9duplicateEv = comdat any

$_ZTSN11xercesc_2_521NumberFormatExceptionE = comdat any

$_ZTIN11xercesc_2_521NumberFormatExceptionE = comdat any

$_ZTSN11xercesc_2_529InvalidDatatypeFacetExceptionE = comdat any

$_ZTIN11xercesc_2_529InvalidDatatypeFacetExceptionE = comdat any

$_ZTSN11xercesc_2_516RuntimeExceptionE = comdat any

$_ZTIN11xercesc_2_516RuntimeExceptionE = comdat any

$_ZTSN11xercesc_2_529InvalidDatatypeValueExceptionE = comdat any

$_ZTIN11xercesc_2_529InvalidDatatypeValueExceptionE = comdat any

$_ZTSN11xercesc_2_57XMemoryE = comdat any

$_ZTIN11xercesc_2_57XMemoryE = comdat any

$_ZTVN11xercesc_2_529InvalidDatatypeFacetExceptionE = comdat any

$_ZTVN11xercesc_2_529InvalidDatatypeValueExceptionE = comdat any

$_ZTVN11xercesc_2_524RefHashTableOfEnumeratorINS_12KVStringPairEEE = comdat any

$_ZTSN11xercesc_2_524RefHashTableOfEnumeratorINS_12KVStringPairEEE = comdat any

$_ZTSN11xercesc_2_513XMLEnumeratorINS_12KVStringPairEEE = comdat any

$_ZTIN11xercesc_2_513XMLEnumeratorINS_12KVStringPairEEE = comdat any

$_ZTIN11xercesc_2_524RefHashTableOfEnumeratorINS_12KVStringPairEEE = comdat any

$_ZTSN11xercesc_2_522NoSuchElementExceptionE = comdat any

$_ZTIN11xercesc_2_522NoSuchElementExceptionE = comdat any

$_ZTVN11xercesc_2_522NoSuchElementExceptionE = comdat any

$_ZTSN11xercesc_2_530ArrayIndexOutOfBoundsExceptionE = comdat any

$_ZTIN11xercesc_2_530ArrayIndexOutOfBoundsExceptionE = comdat any

$_ZTVN11xercesc_2_530ArrayIndexOutOfBoundsExceptionE = comdat any

@_ZTVN11xercesc_2_523AbstractStringValidatorE = dso_local unnamed_addr constant { [25 x ptr] } { [25 x ptr] [ptr null, ptr @_ZTIN11xercesc_2_523AbstractStringValidatorE, ptr @_ZN11xercesc_2_523AbstractStringValidatorD2Ev, ptr @_ZN11xercesc_2_523AbstractStringValidatorD0Ev, ptr @_ZNK11xercesc_2_523AbstractStringValidator14isSerializableEv, ptr @_ZN11xercesc_2_523AbstractStringValidator9serializeERNS_16XSerializeEngineE, ptr @_ZNK11xercesc_2_523AbstractStringValidator12getProtoTypeEv, ptr @_ZNK11xercesc_2_517DatatypeValidator8isAtomicEv, ptr @_ZNK11xercesc_2_523AbstractStringValidator13getEnumStringEv, ptr @_ZNK11xercesc_2_517DatatypeValidator26getCanonicalRepresentationEPKtPNS_13MemoryManagerEb, ptr @_ZN11xercesc_2_523AbstractStringValidator8validateEPKtPNS_17ValidationContextEPNS_13MemoryManagerE, ptr @_ZN11xercesc_2_517DatatypeValidator17isSubstitutableByEPKS0_, ptr @_ZN11xercesc_2_523AbstractStringValidator7compareEPKtS2_PNS_13MemoryManagerE, ptr @__cxa_pure_virtual, ptr @_ZN11xercesc_2_523AbstractStringValidator21assignAdditionalFacetEPKtS2_PNS_13MemoryManagerE, ptr @_ZN11xercesc_2_523AbstractStringValidator22inheritAdditionalFacetEv, ptr @_ZNK11xercesc_2_523AbstractStringValidator31checkAdditionalFacetConstraintsEPNS_13MemoryManagerE, ptr @_ZNK11xercesc_2_523AbstractStringValidator20checkAdditionalFacetEPKtPNS_13MemoryManagerE, ptr @_ZNK11xercesc_2_523AbstractStringValidator9getLengthEPKtPNS_13MemoryManagerE, ptr @__cxa_pure_virtual, ptr @_ZN11xercesc_2_523AbstractStringValidator16inspectFacetBaseEPNS_13MemoryManagerE, ptr @_ZN11xercesc_2_523AbstractStringValidator12inheritFacetEv, ptr @_ZN11xercesc_2_523AbstractStringValidator12checkContentEPKtPNS_17ValidationContextEbPNS_13MemoryManagerE, ptr @_ZN11xercesc_2_523AbstractStringValidator20normalizeEnumerationEPNS_13MemoryManagerE, ptr @_ZNK11xercesc_2_523AbstractStringValidator16normalizeContentEPtPNS_13MemoryManagerE] }, align 8, !type !0, !type !1, !type !2, !type !3, !type !4, !type !5, !type !6, !type !7, !type !8, !type !9, !type !10, !type !11, !type !12, !type !13, !type !14, !type !15, !type !16, !type !17, !type !18, !type !19, !type !20, !type !21, !type !22, !type !23, !type !24, !type !25, !type !26, !type !27, !type !28, !type !29, !type !30, !type !31, !type !32, !type !33, !type !34, !type !35, !type !36, !type !37, !type !38, !type !39, !type !40, !type !41, !type !42, !type !43, !type !44, !type !45, !type !46, !type !47, !type !48, !type !49, !type !50, !type !51, !type !52, !type !53, !type !54, !type !55, !type !56, !type !57, !type !58, !type !59, !type !60, !type !61, !type !62, !type !63, !type !64, !type !65
@_ZN11xercesc_2_513SchemaSymbols15fgINT_MAX_VALUEE = external local_unnamed_addr constant i32, align 4
@_ZN11xercesc_2_513SchemaSymbols12fgELT_LENGTHE = external local_unnamed_addr constant [0 x i16], align 2
@_ZTVN10__cxxabiv120__si_class_type_infoE = external global ptr
@_ZTSN11xercesc_2_521NumberFormatExceptionE = linkonce_odr dso_local constant [39 x i8] c"N11xercesc_2_521NumberFormatExceptionE\00", comdat, align 1
@_ZTIN11xercesc_2_512XMLExceptionE = external constant ptr
@_ZTIN11xercesc_2_521NumberFormatExceptionE = linkonce_odr dso_local constant { ptr, ptr, ptr } { ptr getelementptr inbounds (ptr, ptr @_ZTVN10__cxxabiv120__si_class_type_infoE, i64 2), ptr @_ZTSN11xercesc_2_521NumberFormatExceptionE, ptr @_ZTIN11xercesc_2_512XMLExceptionE }, comdat, align 8
@.str = private unnamed_addr constant [28 x i8] c"AbstractStringValidator.cpp\00", align 1
@_ZTSN11xercesc_2_529InvalidDatatypeFacetExceptionE = linkonce_odr dso_local constant [47 x i8] c"N11xercesc_2_529InvalidDatatypeFacetExceptionE\00", comdat, align 1
@_ZTIN11xercesc_2_529InvalidDatatypeFacetExceptionE = linkonce_odr dso_local constant { ptr, ptr, ptr } { ptr getelementptr inbounds (ptr, ptr @_ZTVN10__cxxabiv120__si_class_type_infoE, i64 2), ptr @_ZTSN11xercesc_2_529InvalidDatatypeFacetExceptionE, ptr @_ZTIN11xercesc_2_512XMLExceptionE }, comdat, align 8
@_ZN11xercesc_2_513SchemaSymbols15fgELT_MINLENGTHE = external local_unnamed_addr constant [0 x i16], align 2
@_ZN11xercesc_2_513SchemaSymbols15fgELT_MAXLENGTHE = external local_unnamed_addr constant [0 x i16], align 2
@_ZN11xercesc_2_513SchemaSymbols13fgELT_PATTERNE = external local_unnamed_addr constant [0 x i16], align 2
@_ZN11xercesc_2_513SchemaSymbols11fgATT_FIXEDE = external local_unnamed_addr constant [0 x i16], align 2
@_ZTSN11xercesc_2_516RuntimeExceptionE = linkonce_odr dso_local constant [34 x i8] c"N11xercesc_2_516RuntimeExceptionE\00", comdat, align 1
@_ZTIN11xercesc_2_516RuntimeExceptionE = linkonce_odr dso_local constant { ptr, ptr, ptr } { ptr getelementptr inbounds (ptr, ptr @_ZTVN10__cxxabiv120__si_class_type_infoE, i64 2), ptr @_ZTSN11xercesc_2_516RuntimeExceptionE, ptr @_ZTIN11xercesc_2_512XMLExceptionE }, comdat, align 8
@_ZN11xercesc_2_513SchemaSymbols15fgRegEx_XOptionE = external constant [0 x i16], align 2
@_ZTSN11xercesc_2_529InvalidDatatypeValueExceptionE = linkonce_odr dso_local constant [47 x i8] c"N11xercesc_2_529InvalidDatatypeValueExceptionE\00", comdat, align 1
@_ZTIN11xercesc_2_529InvalidDatatypeValueExceptionE = linkonce_odr dso_local constant { ptr, ptr, ptr } { ptr getelementptr inbounds (ptr, ptr @_ZTVN10__cxxabiv120__si_class_type_infoE, i64 2), ptr @_ZTSN11xercesc_2_529InvalidDatatypeValueExceptionE, ptr @_ZTIN11xercesc_2_512XMLExceptionE }, comdat, align 8
@.str.1 = private unnamed_addr constant [24 x i8] c"AbstractStringValidator\00", align 1
@_ZN11xercesc_2_523AbstractStringValidator28classAbstractStringValidatorE = dso_local global %"class.xercesc_2_5::XProtoType" { ptr @.str.1, ptr @_ZN11xercesc_2_523AbstractStringValidator12createObjectEPNS_13MemoryManagerE }, align 8
@_ZTVN10__cxxabiv117__class_type_infoE = external global ptr
@_ZTVN10__cxxabiv121__vmi_class_type_infoE = external global ptr
@_ZTSN11xercesc_2_57XMemoryE = linkonce_odr dso_local constant [24 x i8] c"N11xercesc_2_57XMemoryE\00", comdat, align 1
@_ZTIN11xercesc_2_57XMemoryE = linkonce_odr dso_local constant { ptr, ptr } { ptr getelementptr inbounds (ptr, ptr @_ZTVN10__cxxabiv117__class_type_infoE, i64 2), ptr @_ZTSN11xercesc_2_57XMemoryE }, comdat, align 8
@_ZTSN11xercesc_2_523AbstractStringValidatorE = dso_local constant [41 x i8] c"N11xercesc_2_523AbstractStringValidatorE\00", align 1
@_ZTIN11xercesc_2_517DatatypeValidatorE = external constant ptr
@_ZTIN11xercesc_2_523AbstractStringValidatorE = dso_local constant { ptr, ptr, ptr } { ptr getelementptr inbounds (ptr, ptr @_ZTVN10__cxxabiv120__si_class_type_infoE, i64 2), ptr @_ZTSN11xercesc_2_523AbstractStringValidatorE, ptr @_ZTIN11xercesc_2_517DatatypeValidatorE }, align 8
@_ZTVN11xercesc_2_529InvalidDatatypeFacetExceptionE = linkonce_odr dso_local unnamed_addr constant { [6 x ptr] } { [6 x ptr] [ptr null, ptr @_ZTIN11xercesc_2_529InvalidDatatypeFacetExceptionE, ptr @_ZN11xercesc_2_512XMLExceptionD2Ev, ptr @_ZN11xercesc_2_529InvalidDatatypeFacetExceptionD0Ev, ptr @_ZNK11xercesc_2_529InvalidDatatypeFacetException7getTypeEv, ptr @_ZNK11xercesc_2_529InvalidDatatypeFacetException9duplicateEv] }, comdat, align 8, !type !66, !type !67, !type !68, !type !69, !type !70, !type !71
@_ZN11xercesc_2_56XMLUni36fgInvalidDatatypeFacetException_NameE = external constant [0 x i16], align 2
@_ZTVN11xercesc_2_529InvalidDatatypeValueExceptionE = linkonce_odr dso_local unnamed_addr constant { [6 x ptr] } { [6 x ptr] [ptr null, ptr @_ZTIN11xercesc_2_529InvalidDatatypeValueExceptionE, ptr @_ZN11xercesc_2_512XMLExceptionD2Ev, ptr @_ZN11xercesc_2_529InvalidDatatypeValueExceptionD0Ev, ptr @_ZNK11xercesc_2_529InvalidDatatypeValueException7getTypeEv, ptr @_ZNK11xercesc_2_529InvalidDatatypeValueException9duplicateEv] }, comdat, align 8, !type !66, !type !67, !type !68, !type !72, !type !73, !type !74
@_ZN11xercesc_2_56XMLUni36fgInvalidDatatypeValueException_NameE = external constant [0 x i16], align 2
@_ZTVN11xercesc_2_524RefHashTableOfEnumeratorINS_12KVStringPairEEE = linkonce_odr dso_local unnamed_addr constant { [7 x ptr] } { [7 x ptr] [ptr null, ptr @_ZTIN11xercesc_2_524RefHashTableOfEnumeratorINS_12KVStringPairEEE, ptr @_ZN11xercesc_2_524RefHashTableOfEnumeratorINS_12KVStringPairEED2Ev, ptr @_ZN11xercesc_2_524RefHashTableOfEnumeratorINS_12KVStringPairEED0Ev, ptr @_ZNK11xercesc_2_524RefHashTableOfEnumeratorINS_12KVStringPairEE15hasMoreElementsEv, ptr @_ZN11xercesc_2_524RefHashTableOfEnumeratorINS_12KVStringPairEE11nextElementEv, ptr @_ZN11xercesc_2_524RefHashTableOfEnumeratorINS_12KVStringPairEE5ResetEv] }, comdat, align 8, !type !75, !type !76, !type !77, !type !78, !type !79, !type !80, !type !81, !type !82
@.str.2 = private unnamed_addr constant [32 x i8] c"./xercesc/util/RefHashTableOf.c\00", align 1
@_ZTSN11xercesc_2_524RefHashTableOfEnumeratorINS_12KVStringPairEEE = linkonce_odr dso_local constant [62 x i8] c"N11xercesc_2_524RefHashTableOfEnumeratorINS_12KVStringPairEEE\00", comdat, align 1
@_ZTSN11xercesc_2_513XMLEnumeratorINS_12KVStringPairEEE = linkonce_odr dso_local constant [51 x i8] c"N11xercesc_2_513XMLEnumeratorINS_12KVStringPairEEE\00", comdat, align 1
@_ZTIN11xercesc_2_513XMLEnumeratorINS_12KVStringPairEEE = linkonce_odr dso_local constant { ptr, ptr } { ptr getelementptr inbounds (ptr, ptr @_ZTVN10__cxxabiv117__class_type_infoE, i64 2), ptr @_ZTSN11xercesc_2_513XMLEnumeratorINS_12KVStringPairEEE }, comdat, align 8
@_ZTIN11xercesc_2_524RefHashTableOfEnumeratorINS_12KVStringPairEEE = linkonce_odr dso_local constant { ptr, ptr, i32, i32, ptr, i64, ptr, i64 } { ptr getelementptr inbounds (ptr, ptr @_ZTVN10__cxxabiv121__vmi_class_type_infoE, i64 2), ptr @_ZTSN11xercesc_2_524RefHashTableOfEnumeratorINS_12KVStringPairEEE, i32 0, i32 2, ptr @_ZTIN11xercesc_2_513XMLEnumeratorINS_12KVStringPairEEE, i64 2, ptr @_ZTIN11xercesc_2_57XMemoryE, i64 2 }, comdat, align 8
@_ZTSN11xercesc_2_522NoSuchElementExceptionE = linkonce_odr dso_local constant [40 x i8] c"N11xercesc_2_522NoSuchElementExceptionE\00", comdat, align 1
@_ZTIN11xercesc_2_522NoSuchElementExceptionE = linkonce_odr dso_local constant { ptr, ptr, ptr } { ptr getelementptr inbounds (ptr, ptr @_ZTVN10__cxxabiv120__si_class_type_infoE, i64 2), ptr @_ZTSN11xercesc_2_522NoSuchElementExceptionE, ptr @_ZTIN11xercesc_2_512XMLExceptionE }, comdat, align 8
@_ZTVN11xercesc_2_522NoSuchElementExceptionE = linkonce_odr dso_local unnamed_addr constant { [6 x ptr] } { [6 x ptr] [ptr null, ptr @_ZTIN11xercesc_2_522NoSuchElementExceptionE, ptr @_ZN11xercesc_2_512XMLExceptionD2Ev, ptr @_ZN11xercesc_2_522NoSuchElementExceptionD0Ev, ptr @_ZNK11xercesc_2_522NoSuchElementException7getTypeEv, ptr @_ZNK11xercesc_2_522NoSuchElementException9duplicateEv] }, comdat, align 8, !type !66, !type !67, !type !68, !type !83, !type !84, !type !85
@_ZN11xercesc_2_56XMLUni29fgNoSuchElementException_NameE = external constant [0 x i16], align 2
@.str.3 = private unnamed_addr constant [33 x i8] c"./xercesc/util/BaseRefVectorOf.c\00", align 1
@_ZTSN11xercesc_2_530ArrayIndexOutOfBoundsExceptionE = linkonce_odr dso_local constant [48 x i8] c"N11xercesc_2_530ArrayIndexOutOfBoundsExceptionE\00", comdat, align 1
@_ZTIN11xercesc_2_530ArrayIndexOutOfBoundsExceptionE = linkonce_odr dso_local constant { ptr, ptr, ptr } { ptr getelementptr inbounds (ptr, ptr @_ZTVN10__cxxabiv120__si_class_type_infoE, i64 2), ptr @_ZTSN11xercesc_2_530ArrayIndexOutOfBoundsExceptionE, ptr @_ZTIN11xercesc_2_512XMLExceptionE }, comdat, align 8
@_ZTVN11xercesc_2_530ArrayIndexOutOfBoundsExceptionE = linkonce_odr dso_local unnamed_addr constant { [6 x ptr] } { [6 x ptr] [ptr null, ptr @_ZTIN11xercesc_2_530ArrayIndexOutOfBoundsExceptionE, ptr @_ZN11xercesc_2_512XMLExceptionD2Ev, ptr @_ZN11xercesc_2_530ArrayIndexOutOfBoundsExceptionD0Ev, ptr @_ZNK11xercesc_2_530ArrayIndexOutOfBoundsException7getTypeEv, ptr @_ZNK11xercesc_2_530ArrayIndexOutOfBoundsException9duplicateEv] }, comdat, align 8, !type !66, !type !67, !type !68, !type !86, !type !87, !type !88
@_ZN11xercesc_2_56XMLUni37fgArrayIndexOutOfBoundsException_NameE = external constant [0 x i16], align 2

@_ZN11xercesc_2_523AbstractStringValidatorD1Ev = dso_local unnamed_addr alias void (ptr), ptr @_ZN11xercesc_2_523AbstractStringValidatorD2Ev

declare i32 @__gxx_personality_v0(...)

; Function Attrs: noinline noreturn nounwind uwtable
define linkonce_odr hidden void @__clang_call_terminate(ptr noundef %0) local_unnamed_addr #0 comdat {
  %2 = tail call ptr @__cxa_begin_catch(ptr %0) #16
  tail call void @_ZSt9terminatev() #17
  unreachable
}

declare ptr @__cxa_begin_catch(ptr) local_unnamed_addr

declare void @_ZSt9terminatev() local_unnamed_addr

declare void @_ZN11xercesc_2_57XMemorydlEPv(ptr noundef) local_unnamed_addr #1

; Function Attrs: cold noreturn nounwind
declare void @llvm.trap() #2

; Function Attrs: uwtable
define dso_local void @_ZN11xercesc_2_523AbstractStringValidatorD2Ev(ptr noundef nonnull align 8 dereferenceable(128) %0) unnamed_addr #3 align 2 personality ptr @__gxx_personality_v0 {
  store ptr getelementptr inbounds ({ [25 x ptr] }, ptr @_ZTVN11xercesc_2_523AbstractStringValidatorE, i64 0, inrange i32 0, i64 2), ptr %0, align 8, !tbaa !96
  %2 = getelementptr inbounds %"class.xercesc_2_5::AbstractStringValidator", ptr %0, i64 0, i32 4
  %3 = load i8, ptr %2, align 4, !tbaa !99, !range !110, !noundef !111
  %4 = icmp eq i8 %3, 0
  br i1 %4, label %5, label %16

5:                                                ; preds = %1
  %6 = getelementptr inbounds %"class.xercesc_2_5::AbstractStringValidator", ptr %0, i64 0, i32 5
  %7 = load ptr, ptr %6, align 8, !tbaa !112
  %8 = icmp eq ptr %7, null
  br i1 %8, label %16, label %9

9:                                                ; preds = %5
  %10 = load ptr, ptr %7, align 8, !tbaa !96
  %11 = getelementptr inbounds ptr, ptr %10, i64 1
  %12 = load ptr, ptr %11, align 8
  invoke void %12(ptr noundef nonnull align 8 dereferenceable(40) %7)
          to label %13 unwind label %14

13:                                               ; preds = %9
  store ptr null, ptr %6, align 8, !tbaa !112
  br label %16

14:                                               ; preds = %9
  %15 = landingpad { ptr, i32 }
          cleanup
  invoke void @_ZN11xercesc_2_517DatatypeValidatorD2Ev(ptr noundef nonnull align 8 dereferenceable(103) %0)
          to label %17 unwind label %18

16:                                               ; preds = %13, %5, %1
  tail call void @_ZN11xercesc_2_517DatatypeValidatorD2Ev(ptr noundef nonnull align 8 dereferenceable(103) %0)
  ret void

17:                                               ; preds = %14
  resume { ptr, i32 } %15

18:                                               ; preds = %14
  %19 = landingpad { ptr, i32 }
          catch ptr null
  %20 = extractvalue { ptr, i32 } %19, 0
  tail call void @__clang_call_terminate(ptr %20) #17
  unreachable
}

declare void @_ZN11xercesc_2_517DatatypeValidatorD2Ev(ptr noundef nonnull align 8 dereferenceable(103)) unnamed_addr #1

; Function Attrs: noreturn nounwind uwtable
define dso_local void @_ZN11xercesc_2_523AbstractStringValidatorD0Ev(ptr nocapture nonnull readnone align 8 %0) unnamed_addr #4 align 2 {
  tail call void @llvm.trap() #17
  unreachable
}

; Function Attrs: uwtable
define dso_local void @_ZN11xercesc_2_523AbstractStringValidatorC2EPNS_17DatatypeValidatorEPNS_14RefHashTableOfINS_12KVStringPairEEEiNS1_13ValidatorTypeEPNS_13MemoryManagerE(ptr noundef nonnull align 8 dereferenceable(128) %0, ptr noundef %1, ptr noundef %2, i32 noundef %3, i32 noundef %4, ptr noundef %5) unnamed_addr #3 align 2 {
  tail call void @_ZN11xercesc_2_517DatatypeValidatorC2EPS0_PNS_14RefHashTableOfINS_12KVStringPairEEEiNS0_13ValidatorTypeEPNS_13MemoryManagerE(ptr noundef nonnull align 8 dereferenceable(103) %0, ptr noundef %1, ptr noundef %2, i32 noundef %3, i32 noundef %4, ptr noundef %5)
  store ptr getelementptr inbounds ({ [25 x ptr] }, ptr @_ZTVN11xercesc_2_523AbstractStringValidatorE, i64 0, inrange i32 0, i64 2), ptr %0, align 8, !tbaa !96
  %7 = getelementptr inbounds %"class.xercesc_2_5::AbstractStringValidator", ptr %0, i64 0, i32 1
  store i32 0, ptr %7, align 8, !tbaa !113
  %8 = getelementptr inbounds %"class.xercesc_2_5::AbstractStringValidator", ptr %0, i64 0, i32 2
  %9 = load i32, ptr @_ZN11xercesc_2_513SchemaSymbols15fgINT_MAX_VALUEE, align 4, !tbaa !114
  store i32 %9, ptr %8, align 4, !tbaa !115
  %10 = getelementptr inbounds %"class.xercesc_2_5::AbstractStringValidator", ptr %0, i64 0, i32 3
  store i32 0, ptr %10, align 8, !tbaa !116
  %11 = getelementptr inbounds %"class.xercesc_2_5::AbstractStringValidator", ptr %0, i64 0, i32 4
  store i8 0, ptr %11, align 4, !tbaa !99
  %12 = getelementptr inbounds %"class.xercesc_2_5::AbstractStringValidator", ptr %0, i64 0, i32 5
  store ptr null, ptr %12, align 8, !tbaa !112
  ret void
}

declare void @_ZN11xercesc_2_517DatatypeValidatorC2EPS0_PNS_14RefHashTableOfINS_12KVStringPairEEEiNS0_13ValidatorTypeEPNS_13MemoryManagerE(ptr noundef nonnull align 8 dereferenceable(103), ptr noundef, ptr noundef, i32 noundef, i32 noundef, ptr noundef) unnamed_addr #1

; Function Attrs: uwtable
define dso_local void @_ZN11xercesc_2_523AbstractStringValidator4initEPNS_16RefArrayVectorOfItEEPNS_13MemoryManagerE(ptr noundef nonnull align 8 dereferenceable(128) %0, ptr noundef %1, ptr noundef %2) local_unnamed_addr #3 align 2 {
  %4 = icmp eq ptr %1, null
  br i1 %4, label %25, label %5

5:                                                ; preds = %3
  %6 = getelementptr inbounds %"class.xercesc_2_5::AbstractStringValidator", ptr %0, i64 0, i32 4
  %7 = load i8, ptr %6, align 4, !tbaa !99, !range !110, !noundef !111
  %8 = icmp eq i8 %7, 0
  br i1 %8, label %9, label %17

9:                                                ; preds = %5
  %10 = getelementptr inbounds %"class.xercesc_2_5::AbstractStringValidator", ptr %0, i64 0, i32 5
  %11 = load ptr, ptr %10, align 8, !tbaa !112
  %12 = icmp eq ptr %11, null
  br i1 %12, label %17, label %13

13:                                               ; preds = %9
  %14 = load ptr, ptr %11, align 8, !tbaa !96
  %15 = getelementptr inbounds ptr, ptr %14, i64 1
  %16 = load ptr, ptr %15, align 8
  tail call void %16(ptr noundef nonnull align 8 dereferenceable(40) %11)
  br label %17

17:                                               ; preds = %5, %9, %13
  %18 = getelementptr inbounds %"class.xercesc_2_5::AbstractStringValidator", ptr %0, i64 0, i32 5
  store ptr %1, ptr %18, align 8, !tbaa !112
  store i8 0, ptr %6, align 4, !tbaa !99
  %19 = getelementptr inbounds %"class.xercesc_2_5::DatatypeValidator", ptr %0, i64 0, i32 6
  %20 = load i32, ptr %19, align 8, !tbaa !117
  %21 = or i32 %20, 16
  store i32 %21, ptr %19, align 8, !tbaa !117
  %22 = load ptr, ptr %0, align 8, !tbaa !96
  %23 = getelementptr inbounds ptr, ptr %22, i64 21
  %24 = load ptr, ptr %23, align 8
  tail call void %24(ptr noundef nonnull align 8 dereferenceable(128) %0, ptr noundef %2)
  br label %25

25:                                               ; preds = %17, %3
  tail call void @_ZN11xercesc_2_523AbstractStringValidator11assignFacetEPNS_13MemoryManagerE(ptr noundef nonnull align 8 dereferenceable(128) %0, ptr noundef %2)
  tail call void @_ZN11xercesc_2_523AbstractStringValidator12inspectFacetEPNS_13MemoryManagerE(ptr noundef nonnull align 8 dereferenceable(128) %0, ptr noundef %2)
  %26 = load ptr, ptr %0, align 8, !tbaa !96
  %27 = getelementptr inbounds ptr, ptr %26, i64 18
  %28 = load ptr, ptr %27, align 8
  tail call void %28(ptr noundef nonnull align 8 dereferenceable(128) %0, ptr noundef %2)
  %29 = load ptr, ptr %0, align 8, !tbaa !96
  %30 = getelementptr inbounds ptr, ptr %29, i64 19
  %31 = load ptr, ptr %30, align 8
  tail call void %31(ptr noundef nonnull align 8 dereferenceable(128) %0)
  ret void
}

; Function Attrs: uwtable
define dso_local void @_ZN11xercesc_2_523AbstractStringValidator11assignFacetEPNS_13MemoryManagerE(ptr noundef nonnull align 8 dereferenceable(128) %0, ptr noundef %1) local_unnamed_addr #3 align 2 personality ptr @__gxx_personality_v0 {
  %3 = alloca %"class.xercesc_2_5::RefHashTableOfEnumerator", align 8
  %4 = alloca %"class.xercesc_2_5::KVStringPair", align 8
  %5 = alloca i32, align 4
  %6 = getelementptr inbounds %"class.xercesc_2_5::DatatypeValidator", ptr %0, i64 0, i32 11
  %7 = load ptr, ptr %6, align 8, !tbaa !118
  %8 = icmp eq ptr %7, null
  br i1 %8, label %356, label %9

9:                                                ; preds = %2
  call void @llvm.lifetime.start.p0(i64 48, ptr nonnull %3) #16
  store ptr getelementptr inbounds ({ [7 x ptr] }, ptr @_ZTVN11xercesc_2_524RefHashTableOfEnumeratorINS_12KVStringPairEEE, i64 0, inrange i32 0, i64 2), ptr %3, align 8, !tbaa !96
  %10 = getelementptr inbounds %"class.xercesc_2_5::RefHashTableOfEnumerator", ptr %3, i64 0, i32 1
  store i8 0, ptr %10, align 8, !tbaa !119
  %11 = getelementptr inbounds %"class.xercesc_2_5::RefHashTableOfEnumerator", ptr %3, i64 0, i32 2
  store ptr null, ptr %11, align 8, !tbaa !122
  %12 = getelementptr inbounds %"class.xercesc_2_5::RefHashTableOfEnumerator", ptr %3, i64 0, i32 3
  %13 = getelementptr inbounds %"class.xercesc_2_5::RefHashTableOfEnumerator", ptr %3, i64 0, i32 4
  store ptr %7, ptr %13, align 8, !tbaa !123
  %14 = getelementptr inbounds %"class.xercesc_2_5::RefHashTableOfEnumerator", ptr %3, i64 0, i32 5
  store ptr %1, ptr %14, align 8, !tbaa !124
  store i32 0, ptr %12, align 8, !tbaa !125
  %15 = getelementptr inbounds %"class.xercesc_2_5::RefHashTableOf", ptr %7, i64 0, i32 3
  %16 = load i32, ptr %15, align 8, !tbaa !126
  %17 = icmp eq i32 %16, 0
  br i1 %17, label %32, label %18

18:                                               ; preds = %9
  %19 = getelementptr inbounds %"class.xercesc_2_5::RefHashTableOf", ptr %7, i64 0, i32 2
  %20 = load ptr, ptr %19, align 8, !tbaa !128
  %21 = zext i32 %16 to i64
  br label %22

22:                                               ; preds = %27, %18
  %23 = phi i64 [ %28, %27 ], [ 0, %18 ]
  %24 = getelementptr inbounds ptr, ptr %20, i64 %23
  %25 = load ptr, ptr %24, align 8, !tbaa !129
  %26 = icmp eq ptr %25, null
  br i1 %26, label %27, label %31

27:                                               ; preds = %22
  %28 = add nuw nsw i64 %23, 1
  %29 = trunc i64 %28 to i32
  store i32 %29, ptr %12, align 8, !tbaa !125
  %30 = icmp eq i64 %28, %21
  br i1 %30, label %32, label %22

31:                                               ; preds = %22
  store ptr %25, ptr %11, align 8, !tbaa !122
  br label %32

32:                                               ; preds = %27, %9, %31
  %33 = phi ptr [ null, %9 ], [ %25, %31 ], [ null, %27 ]
  %34 = getelementptr inbounds %"class.xercesc_2_5::KVStringPair", ptr %4, i64 0, i32 2
  %35 = getelementptr inbounds %"class.xercesc_2_5::KVStringPair", ptr %4, i64 0, i32 4
  %36 = getelementptr inbounds %"class.xercesc_2_5::DatatypeValidator", ptr %0, i64 0, i32 1
  %37 = getelementptr inbounds %"class.xercesc_2_5::DatatypeValidator", ptr %0, i64 0, i32 7
  %38 = getelementptr inbounds %"class.xercesc_2_5::DatatypeValidator", ptr %0, i64 0, i32 12
  %39 = getelementptr inbounds %"class.xercesc_2_5::DatatypeValidator", ptr %0, i64 0, i32 6
  %40 = getelementptr inbounds %"class.xercesc_2_5::AbstractStringValidator", ptr %0, i64 0, i32 2
  %41 = getelementptr inbounds %"class.xercesc_2_5::AbstractStringValidator", ptr %0, i64 0, i32 3
  %42 = getelementptr inbounds %"class.xercesc_2_5::AbstractStringValidator", ptr %0, i64 0, i32 1
  br label %43

43:                                               ; preds = %347, %32
  %44 = phi ptr [ %348, %347 ], [ %33, %32 ]
  %45 = icmp eq ptr %44, null
  br i1 %45, label %46, label %52

46:                                               ; preds = %43
  %47 = load i32, ptr %12, align 8, !tbaa !125
  %48 = load ptr, ptr %13, align 8, !tbaa !123
  %49 = getelementptr inbounds %"class.xercesc_2_5::RefHashTableOf", ptr %48, i64 0, i32 3
  %50 = load i32, ptr %49, align 8, !tbaa !126
  %51 = icmp eq i32 %47, %50
  br i1 %51, label %355, label %52

52:                                               ; preds = %43, %46
  call void @llvm.lifetime.start.p0(i64 48, ptr nonnull %4) #16
  %53 = invoke noundef nonnull align 8 dereferenceable(48) ptr @_ZN11xercesc_2_524RefHashTableOfEnumeratorINS_12KVStringPairEE11nextElementEv(ptr noundef nonnull align 8 dereferenceable(48) %3)
          to label %54 unwind label %81

54:                                               ; preds = %52
  invoke void @_ZN11xercesc_2_512KVStringPairC1ERKS0_(ptr noundef nonnull align 8 dereferenceable(48) %4, ptr noundef nonnull align 8 dereferenceable(48) %53)
          to label %55 unwind label %81

55:                                               ; preds = %54
  %56 = load ptr, ptr %34, align 8, !tbaa !130
  %57 = load ptr, ptr %35, align 8, !tbaa !133
  %58 = icmp eq ptr %56, null
  br i1 %58, label %63, label %59

59:                                               ; preds = %55
  %60 = load i16, ptr %56, align 2, !tbaa !134
  %61 = load i16, ptr @_ZN11xercesc_2_513SchemaSymbols12fgELT_LENGTHE, align 2, !tbaa !134
  %62 = icmp eq i16 %60, %61
  br i1 %62, label %66, label %122

63:                                               ; preds = %55
  %64 = load i16, ptr @_ZN11xercesc_2_513SchemaSymbols12fgELT_LENGTHE, align 2, !tbaa !134
  %65 = icmp eq i16 %64, 0
  br i1 %65, label %77, label %125

66:                                               ; preds = %59, %71
  %67 = phi i16 [ %74, %71 ], [ %60, %59 ]
  %68 = phi ptr [ %73, %71 ], [ @_ZN11xercesc_2_513SchemaSymbols12fgELT_LENGTHE, %59 ]
  %69 = phi ptr [ %72, %71 ], [ %56, %59 ]
  %70 = icmp eq i16 %67, 0
  br i1 %70, label %77, label %71

71:                                               ; preds = %66
  %72 = getelementptr inbounds i16, ptr %69, i64 1
  %73 = getelementptr inbounds i16, ptr %68, i64 1
  %74 = load i16, ptr %72, align 2, !tbaa !134
  %75 = load i16, ptr %73, align 2, !tbaa !134
  %76 = icmp eq i16 %74, %75
  br i1 %76, label %66, label %122

77:                                               ; preds = %66, %63
  %78 = invoke noundef i32 @_ZN11xercesc_2_59XMLString8parseIntEPKtPNS_13MemoryManagerE(ptr noundef %57, ptr noundef %1)
          to label %79 unwind label %89

79:                                               ; preds = %77
  %80 = icmp slt i32 %78, 0
  br i1 %80, label %108, label %119

81:                                               ; preds = %346, %54, %52
  %82 = landingpad { ptr, i32 }
          cleanup
  %83 = extractvalue { ptr, i32 } %82, 0
  %84 = extractvalue { ptr, i32 } %82, 1
  br label %352

85:                                               ; preds = %273, %250, %342
  %86 = landingpad { ptr, i32 }
          cleanup
  %87 = extractvalue { ptr, i32 } %86, 0
  %88 = extractvalue { ptr, i32 } %86, 1
  br label %349

89:                                               ; preds = %77
  %90 = landingpad { ptr, i32 }
          cleanup
          catch ptr @_ZTIN11xercesc_2_521NumberFormatExceptionE
  %91 = extractvalue { ptr, i32 } %90, 0
  %92 = extractvalue { ptr, i32 } %90, 1
  %93 = call i32 @llvm.eh.typeid.for(ptr nonnull @_ZTIN11xercesc_2_521NumberFormatExceptionE) #16
  %94 = icmp eq i32 %92, %93
  br i1 %94, label %95, label %349

95:                                               ; preds = %89
  %96 = call ptr @__cxa_begin_catch(ptr %91) #16
  %97 = call ptr @__cxa_allocate_exception(i64 48) #16
  invoke void @_ZN11xercesc_2_529InvalidDatatypeFacetExceptionC2EPKcjNS_10XMLExcepts5CodesEPKtS6_S6_S6_PNS_13MemoryManagerE(ptr noundef nonnull align 8 dereferenceable(48) %97, ptr noundef nonnull @.str, i32 noundef 274, i32 noundef 154, ptr noundef %57, ptr noundef null, ptr noundef null, ptr noundef null, ptr noundef %1)
          to label %98 unwind label %99

98:                                               ; preds = %95
  invoke void @__cxa_throw(ptr nonnull %97, ptr nonnull @_ZTIN11xercesc_2_529InvalidDatatypeFacetExceptionE, ptr nonnull @_ZN11xercesc_2_512XMLExceptionD2Ev) #18
          to label %363 unwind label %101

99:                                               ; preds = %95
  %100 = landingpad { ptr, i32 }
          cleanup
  call void @__cxa_free_exception(ptr %97) #16
  br label %103

101:                                              ; preds = %98
  %102 = landingpad { ptr, i32 }
          cleanup
  br label %103

103:                                              ; preds = %101, %99
  %104 = phi { ptr, i32 } [ %102, %101 ], [ %100, %99 ]
  invoke void @__cxa_end_catch()
          to label %105 unwind label %360

105:                                              ; preds = %103
  %106 = extractvalue { ptr, i32 } %104, 0
  %107 = extractvalue { ptr, i32 } %104, 1
  br label %349

108:                                              ; preds = %79
  %109 = call ptr @__cxa_allocate_exception(i64 48) #16
  invoke void @_ZN11xercesc_2_529InvalidDatatypeFacetExceptionC2EPKcjNS_10XMLExcepts5CodesEPKtS6_S6_S6_PNS_13MemoryManagerE(ptr noundef nonnull align 8 dereferenceable(48) %109, ptr noundef nonnull @.str, i32 noundef 278, i32 noundef 157, ptr noundef %57, ptr noundef null, ptr noundef null, ptr noundef null, ptr noundef %1)
          to label %110 unwind label %111

110:                                              ; preds = %108
  invoke void @__cxa_throw(ptr nonnull %109, ptr nonnull @_ZTIN11xercesc_2_529InvalidDatatypeFacetExceptionE, ptr nonnull @_ZN11xercesc_2_512XMLExceptionD2Ev) #18
          to label %363 unwind label %115

111:                                              ; preds = %108
  %112 = landingpad { ptr, i32 }
          cleanup
  %113 = extractvalue { ptr, i32 } %112, 0
  %114 = extractvalue { ptr, i32 } %112, 1
  call void @__cxa_free_exception(ptr %109) #16
  br label %349

115:                                              ; preds = %110
  %116 = landingpad { ptr, i32 }
          cleanup
  %117 = extractvalue { ptr, i32 } %116, 0
  %118 = extractvalue { ptr, i32 } %116, 1
  br label %349

119:                                              ; preds = %79
  store i32 %78, ptr %42, align 8, !tbaa !113
  %120 = load i32, ptr %39, align 8, !tbaa !117
  %121 = or i32 %120, 1
  store i32 %121, ptr %39, align 8, !tbaa !117
  br label %346

122:                                              ; preds = %71, %59
  %123 = load i16, ptr @_ZN11xercesc_2_513SchemaSymbols15fgELT_MINLENGTHE, align 2, !tbaa !134
  %124 = icmp eq i16 %60, %123
  br i1 %124, label %128, label %176

125:                                              ; preds = %63
  %126 = load i16, ptr @_ZN11xercesc_2_513SchemaSymbols15fgELT_MINLENGTHE, align 2, !tbaa !134
  %127 = icmp eq i16 %126, 0
  br i1 %127, label %139, label %179

128:                                              ; preds = %122, %133
  %129 = phi i16 [ %136, %133 ], [ %60, %122 ]
  %130 = phi ptr [ %135, %133 ], [ @_ZN11xercesc_2_513SchemaSymbols15fgELT_MINLENGTHE, %122 ]
  %131 = phi ptr [ %134, %133 ], [ %56, %122 ]
  %132 = icmp eq i16 %129, 0
  br i1 %132, label %139, label %133

133:                                              ; preds = %128
  %134 = getelementptr inbounds i16, ptr %131, i64 1
  %135 = getelementptr inbounds i16, ptr %130, i64 1
  %136 = load i16, ptr %134, align 2, !tbaa !134
  %137 = load i16, ptr %135, align 2, !tbaa !134
  %138 = icmp eq i16 %136, %137
  br i1 %138, label %128, label %176

139:                                              ; preds = %128, %125
  %140 = invoke noundef i32 @_ZN11xercesc_2_59XMLString8parseIntEPKtPNS_13MemoryManagerE(ptr noundef %57, ptr noundef %1)
          to label %141 unwind label %143

141:                                              ; preds = %139
  %142 = icmp slt i32 %140, 0
  br i1 %142, label %162, label %173

143:                                              ; preds = %139
  %144 = landingpad { ptr, i32 }
          cleanup
          catch ptr @_ZTIN11xercesc_2_521NumberFormatExceptionE
  %145 = extractvalue { ptr, i32 } %144, 0
  %146 = extractvalue { ptr, i32 } %144, 1
  %147 = call i32 @llvm.eh.typeid.for(ptr nonnull @_ZTIN11xercesc_2_521NumberFormatExceptionE) #16
  %148 = icmp eq i32 %146, %147
  br i1 %148, label %149, label %349

149:                                              ; preds = %143
  %150 = call ptr @__cxa_begin_catch(ptr %145) #16
  %151 = call ptr @__cxa_allocate_exception(i64 48) #16
  invoke void @_ZN11xercesc_2_529InvalidDatatypeFacetExceptionC2EPKcjNS_10XMLExcepts5CodesEPKtS6_S6_S6_PNS_13MemoryManagerE(ptr noundef nonnull align 8 dereferenceable(48) %151, ptr noundef nonnull @.str, i32 noundef 292, i32 noundef 156, ptr noundef %57, ptr noundef null, ptr noundef null, ptr noundef null, ptr noundef %1)
          to label %152 unwind label %153

152:                                              ; preds = %149
  invoke void @__cxa_throw(ptr nonnull %151, ptr nonnull @_ZTIN11xercesc_2_529InvalidDatatypeFacetExceptionE, ptr nonnull @_ZN11xercesc_2_512XMLExceptionD2Ev) #18
          to label %363 unwind label %155

153:                                              ; preds = %149
  %154 = landingpad { ptr, i32 }
          cleanup
  call void @__cxa_free_exception(ptr %151) #16
  br label %157

155:                                              ; preds = %152
  %156 = landingpad { ptr, i32 }
          cleanup
  br label %157

157:                                              ; preds = %155, %153
  %158 = phi { ptr, i32 } [ %156, %155 ], [ %154, %153 ]
  invoke void @__cxa_end_catch()
          to label %159 unwind label %360

159:                                              ; preds = %157
  %160 = extractvalue { ptr, i32 } %158, 0
  %161 = extractvalue { ptr, i32 } %158, 1
  br label %349

162:                                              ; preds = %141
  %163 = call ptr @__cxa_allocate_exception(i64 48) #16
  invoke void @_ZN11xercesc_2_529InvalidDatatypeFacetExceptionC2EPKcjNS_10XMLExcepts5CodesEPKtS6_S6_S6_PNS_13MemoryManagerE(ptr noundef nonnull align 8 dereferenceable(48) %163, ptr noundef nonnull @.str, i32 noundef 296, i32 noundef 159, ptr noundef %57, ptr noundef null, ptr noundef null, ptr noundef null, ptr noundef %1)
          to label %164 unwind label %165

164:                                              ; preds = %162
  invoke void @__cxa_throw(ptr nonnull %163, ptr nonnull @_ZTIN11xercesc_2_529InvalidDatatypeFacetExceptionE, ptr nonnull @_ZN11xercesc_2_512XMLExceptionD2Ev) #18
          to label %363 unwind label %169

165:                                              ; preds = %162
  %166 = landingpad { ptr, i32 }
          cleanup
  %167 = extractvalue { ptr, i32 } %166, 0
  %168 = extractvalue { ptr, i32 } %166, 1
  call void @__cxa_free_exception(ptr %163) #16
  br label %349

169:                                              ; preds = %164
  %170 = landingpad { ptr, i32 }
          cleanup
  %171 = extractvalue { ptr, i32 } %170, 0
  %172 = extractvalue { ptr, i32 } %170, 1
  br label %349

173:                                              ; preds = %141
  store i32 %140, ptr %41, align 8, !tbaa !116
  %174 = load i32, ptr %39, align 8, !tbaa !117
  %175 = or i32 %174, 2
  store i32 %175, ptr %39, align 8, !tbaa !117
  br label %346

176:                                              ; preds = %133, %122
  %177 = load i16, ptr @_ZN11xercesc_2_513SchemaSymbols15fgELT_MAXLENGTHE, align 2, !tbaa !134
  %178 = icmp eq i16 %60, %177
  br i1 %178, label %182, label %230

179:                                              ; preds = %125
  %180 = load i16, ptr @_ZN11xercesc_2_513SchemaSymbols15fgELT_MAXLENGTHE, align 2, !tbaa !134
  %181 = icmp eq i16 %180, 0
  br i1 %181, label %193, label %233

182:                                              ; preds = %176, %187
  %183 = phi i16 [ %190, %187 ], [ %60, %176 ]
  %184 = phi ptr [ %189, %187 ], [ @_ZN11xercesc_2_513SchemaSymbols15fgELT_MAXLENGTHE, %176 ]
  %185 = phi ptr [ %188, %187 ], [ %56, %176 ]
  %186 = icmp eq i16 %183, 0
  br i1 %186, label %193, label %187

187:                                              ; preds = %182
  %188 = getelementptr inbounds i16, ptr %185, i64 1
  %189 = getelementptr inbounds i16, ptr %184, i64 1
  %190 = load i16, ptr %188, align 2, !tbaa !134
  %191 = load i16, ptr %189, align 2, !tbaa !134
  %192 = icmp eq i16 %190, %191
  br i1 %192, label %182, label %230

193:                                              ; preds = %182, %179
  %194 = invoke noundef i32 @_ZN11xercesc_2_59XMLString8parseIntEPKtPNS_13MemoryManagerE(ptr noundef %57, ptr noundef %1)
          to label %195 unwind label %197

195:                                              ; preds = %193
  %196 = icmp slt i32 %194, 0
  br i1 %196, label %216, label %227

197:                                              ; preds = %193
  %198 = landingpad { ptr, i32 }
          cleanup
          catch ptr @_ZTIN11xercesc_2_521NumberFormatExceptionE
  %199 = extractvalue { ptr, i32 } %198, 0
  %200 = extractvalue { ptr, i32 } %198, 1
  %201 = call i32 @llvm.eh.typeid.for(ptr nonnull @_ZTIN11xercesc_2_521NumberFormatExceptionE) #16
  %202 = icmp eq i32 %200, %201
  br i1 %202, label %203, label %349

203:                                              ; preds = %197
  %204 = call ptr @__cxa_begin_catch(ptr %199) #16
  %205 = call ptr @__cxa_allocate_exception(i64 48) #16
  invoke void @_ZN11xercesc_2_529InvalidDatatypeFacetExceptionC2EPKcjNS_10XMLExcepts5CodesEPKtS6_S6_S6_PNS_13MemoryManagerE(ptr noundef nonnull align 8 dereferenceable(48) %205, ptr noundef nonnull @.str, i32 noundef 310, i32 noundef 155, ptr noundef %57, ptr noundef null, ptr noundef null, ptr noundef null, ptr noundef %1)
          to label %206 unwind label %207

206:                                              ; preds = %203
  invoke void @__cxa_throw(ptr nonnull %205, ptr nonnull @_ZTIN11xercesc_2_529InvalidDatatypeFacetExceptionE, ptr nonnull @_ZN11xercesc_2_512XMLExceptionD2Ev) #18
          to label %363 unwind label %209

207:                                              ; preds = %203
  %208 = landingpad { ptr, i32 }
          cleanup
  call void @__cxa_free_exception(ptr %205) #16
  br label %211

209:                                              ; preds = %206
  %210 = landingpad { ptr, i32 }
          cleanup
  br label %211

211:                                              ; preds = %209, %207
  %212 = phi { ptr, i32 } [ %210, %209 ], [ %208, %207 ]
  invoke void @__cxa_end_catch()
          to label %213 unwind label %360

213:                                              ; preds = %211
  %214 = extractvalue { ptr, i32 } %212, 0
  %215 = extractvalue { ptr, i32 } %212, 1
  br label %349

216:                                              ; preds = %195
  %217 = call ptr @__cxa_allocate_exception(i64 48) #16
  invoke void @_ZN11xercesc_2_529InvalidDatatypeFacetExceptionC2EPKcjNS_10XMLExcepts5CodesEPKtS6_S6_S6_PNS_13MemoryManagerE(ptr noundef nonnull align 8 dereferenceable(48) %217, ptr noundef nonnull @.str, i32 noundef 314, i32 noundef 158, ptr noundef %57, ptr noundef null, ptr noundef null, ptr noundef null, ptr noundef %1)
          to label %218 unwind label %219

218:                                              ; preds = %216
  invoke void @__cxa_throw(ptr nonnull %217, ptr nonnull @_ZTIN11xercesc_2_529InvalidDatatypeFacetExceptionE, ptr nonnull @_ZN11xercesc_2_512XMLExceptionD2Ev) #18
          to label %363 unwind label %223

219:                                              ; preds = %216
  %220 = landingpad { ptr, i32 }
          cleanup
  %221 = extractvalue { ptr, i32 } %220, 0
  %222 = extractvalue { ptr, i32 } %220, 1
  call void @__cxa_free_exception(ptr %217) #16
  br label %349

223:                                              ; preds = %218
  %224 = landingpad { ptr, i32 }
          cleanup
  %225 = extractvalue { ptr, i32 } %224, 0
  %226 = extractvalue { ptr, i32 } %224, 1
  br label %349

227:                                              ; preds = %195
  store i32 %194, ptr %40, align 4, !tbaa !115
  %228 = load i32, ptr %39, align 8, !tbaa !117
  %229 = or i32 %228, 4
  store i32 %229, ptr %39, align 8, !tbaa !117
  br label %346

230:                                              ; preds = %187, %176
  %231 = load i16, ptr @_ZN11xercesc_2_513SchemaSymbols13fgELT_PATTERNE, align 2, !tbaa !134
  %232 = icmp eq i16 %60, %231
  br i1 %232, label %236, label %284

233:                                              ; preds = %179
  %234 = load i16, ptr @_ZN11xercesc_2_513SchemaSymbols13fgELT_PATTERNE, align 2, !tbaa !134
  %235 = icmp eq i16 %234, 0
  br i1 %235, label %247, label %287

236:                                              ; preds = %230, %241
  %237 = phi i16 [ %244, %241 ], [ %60, %230 ]
  %238 = phi ptr [ %243, %241 ], [ @_ZN11xercesc_2_513SchemaSymbols13fgELT_PATTERNE, %230 ]
  %239 = phi ptr [ %242, %241 ], [ %56, %230 ]
  %240 = icmp eq i16 %237, 0
  br i1 %240, label %247, label %241

241:                                              ; preds = %236
  %242 = getelementptr inbounds i16, ptr %239, i64 1
  %243 = getelementptr inbounds i16, ptr %238, i64 1
  %244 = load i16, ptr %242, align 2, !tbaa !134
  %245 = load i16, ptr %243, align 2, !tbaa !134
  %246 = icmp eq i16 %244, %245
  br i1 %246, label %236, label %284

247:                                              ; preds = %236, %233
  %248 = load ptr, ptr %38, align 8, !tbaa !135
  %249 = icmp eq ptr %248, null
  br i1 %249, label %255, label %250

250:                                              ; preds = %247
  %251 = load ptr, ptr %36, align 8, !tbaa !136
  %252 = load ptr, ptr %251, align 8, !tbaa !96
  %253 = getelementptr inbounds ptr, ptr %252, i64 3
  %254 = load ptr, ptr %253, align 8
  invoke void %254(ptr noundef nonnull align 8 dereferenceable(8) %251, ptr noundef nonnull %248)
          to label %255 unwind label %85

255:                                              ; preds = %250, %247
  %256 = load ptr, ptr %36, align 8, !tbaa !136
  %257 = icmp eq ptr %57, null
  br i1 %257, label %258, label %259

258:                                              ; preds = %255
  store ptr null, ptr %38, align 8, !tbaa !135
  br label %346

259:                                              ; preds = %255
  %260 = load i16, ptr %57, align 2, !tbaa !134
  %261 = icmp eq i16 %260, 0
  br i1 %261, label %273, label %262

262:                                              ; preds = %259, %262
  %263 = phi ptr [ %264, %262 ], [ %57, %259 ]
  %264 = getelementptr inbounds i16, ptr %263, i64 1
  %265 = load i16, ptr %264, align 2, !tbaa !134
  %266 = icmp eq i16 %265, 0
  br i1 %266, label %267, label %262

267:                                              ; preds = %262
  %268 = ptrtoint ptr %264 to i64
  %269 = ptrtoint ptr %57 to i64
  %270 = sub i64 %268, %269
  %271 = add i64 %270, 2
  %272 = and i64 %271, 8589934590
  br label %273

273:                                              ; preds = %267, %259
  %274 = phi i64 [ %272, %267 ], [ 2, %259 ]
  %275 = load ptr, ptr %256, align 8, !tbaa !96
  %276 = getelementptr inbounds ptr, ptr %275, i64 2
  %277 = load ptr, ptr %276, align 8
  %278 = invoke noundef ptr %277(ptr noundef nonnull align 8 dereferenceable(8) %256, i64 noundef %274)
          to label %279 unwind label %85

279:                                              ; preds = %273
  call void @llvm.memcpy.p0.p0.i64(ptr align 2 %278, ptr nonnull align 2 %57, i64 %274, i1 false)
  store ptr %278, ptr %38, align 8, !tbaa !135
  %280 = icmp eq ptr %278, null
  br i1 %280, label %346, label %281

281:                                              ; preds = %279
  %282 = load i32, ptr %39, align 8, !tbaa !117
  %283 = or i32 %282, 8
  store i32 %283, ptr %39, align 8, !tbaa !117
  br label %346

284:                                              ; preds = %241, %230
  %285 = load i16, ptr @_ZN11xercesc_2_513SchemaSymbols11fgATT_FIXEDE, align 2, !tbaa !134
  %286 = icmp eq i16 %60, %285
  br i1 %286, label %290, label %342

287:                                              ; preds = %233
  %288 = load i16, ptr @_ZN11xercesc_2_513SchemaSymbols11fgATT_FIXEDE, align 2, !tbaa !134
  %289 = icmp eq i16 %288, 0
  br i1 %289, label %301, label %342

290:                                              ; preds = %284, %295
  %291 = phi i16 [ %298, %295 ], [ %60, %284 ]
  %292 = phi ptr [ %297, %295 ], [ @_ZN11xercesc_2_513SchemaSymbols11fgATT_FIXEDE, %284 ]
  %293 = phi ptr [ %296, %295 ], [ %56, %284 ]
  %294 = icmp eq i16 %291, 0
  br i1 %294, label %301, label %295

295:                                              ; preds = %290
  %296 = getelementptr inbounds i16, ptr %293, i64 1
  %297 = getelementptr inbounds i16, ptr %292, i64 1
  %298 = load i16, ptr %296, align 2, !tbaa !134
  %299 = load i16, ptr %297, align 2, !tbaa !134
  %300 = icmp eq i16 %298, %299
  br i1 %300, label %290, label %342

301:                                              ; preds = %290, %287
  call void @llvm.lifetime.start.p0(i64 4, ptr nonnull %5) #16
  %302 = load ptr, ptr %36, align 8, !tbaa !136
  %303 = invoke noundef zeroext i1 @_ZN11xercesc_2_59XMLString9textToBinEPKtRjPNS_13MemoryManagerE(ptr noundef %57, ptr noundef nonnull align 4 dereferenceable(4) %5, ptr noundef %302)
          to label %304 unwind label %305

304:                                              ; preds = %301
  br i1 %303, label %335, label %324

305:                                              ; preds = %301
  %306 = landingpad { ptr, i32 }
          cleanup
          catch ptr @_ZTIN11xercesc_2_516RuntimeExceptionE
  %307 = extractvalue { ptr, i32 } %306, 0
  %308 = extractvalue { ptr, i32 } %306, 1
  %309 = call i32 @llvm.eh.typeid.for(ptr nonnull @_ZTIN11xercesc_2_516RuntimeExceptionE) #16
  %310 = icmp eq i32 %308, %309
  br i1 %310, label %311, label %339

311:                                              ; preds = %305
  %312 = call ptr @__cxa_begin_catch(ptr %307) #16
  %313 = call ptr @__cxa_allocate_exception(i64 48) #16
  invoke void @_ZN11xercesc_2_529InvalidDatatypeFacetExceptionC2EPKcjNS_10XMLExcepts5CodesEPNS_13MemoryManagerE(ptr noundef nonnull align 8 dereferenceable(48) %313, ptr noundef nonnull @.str, i32 noundef 336, i32 noundef 226, ptr noundef %1)
          to label %314 unwind label %315

314:                                              ; preds = %311
  invoke void @__cxa_throw(ptr nonnull %313, ptr nonnull @_ZTIN11xercesc_2_529InvalidDatatypeFacetExceptionE, ptr nonnull @_ZN11xercesc_2_512XMLExceptionD2Ev) #18
          to label %363 unwind label %317

315:                                              ; preds = %311
  %316 = landingpad { ptr, i32 }
          cleanup
  call void @__cxa_free_exception(ptr %313) #16
  br label %319

317:                                              ; preds = %314
  %318 = landingpad { ptr, i32 }
          cleanup
  br label %319

319:                                              ; preds = %317, %315
  %320 = phi { ptr, i32 } [ %318, %317 ], [ %316, %315 ]
  invoke void @__cxa_end_catch()
          to label %321 unwind label %360

321:                                              ; preds = %319
  %322 = extractvalue { ptr, i32 } %320, 0
  %323 = extractvalue { ptr, i32 } %320, 1
  br label %339

324:                                              ; preds = %304
  %325 = call ptr @__cxa_allocate_exception(i64 48) #16
  invoke void @_ZN11xercesc_2_529InvalidDatatypeFacetExceptionC2EPKcjNS_10XMLExcepts5CodesEPNS_13MemoryManagerE(ptr noundef nonnull align 8 dereferenceable(48) %325, ptr noundef nonnull @.str, i32 noundef 341, i32 noundef 226, ptr noundef %1)
          to label %326 unwind label %327

326:                                              ; preds = %324
  invoke void @__cxa_throw(ptr nonnull %325, ptr nonnull @_ZTIN11xercesc_2_529InvalidDatatypeFacetExceptionE, ptr nonnull @_ZN11xercesc_2_512XMLExceptionD2Ev) #18
          to label %363 unwind label %331

327:                                              ; preds = %324
  %328 = landingpad { ptr, i32 }
          cleanup
  %329 = extractvalue { ptr, i32 } %328, 0
  %330 = extractvalue { ptr, i32 } %328, 1
  call void @__cxa_free_exception(ptr %325) #16
  br label %339

331:                                              ; preds = %326
  %332 = landingpad { ptr, i32 }
          cleanup
  %333 = extractvalue { ptr, i32 } %332, 0
  %334 = extractvalue { ptr, i32 } %332, 1
  br label %339

335:                                              ; preds = %304
  %336 = load i32, ptr %5, align 4, !tbaa !114
  %337 = load i32, ptr %37, align 4, !tbaa !137
  %338 = or i32 %337, %336
  store i32 %338, ptr %37, align 4, !tbaa !137
  call void @llvm.lifetime.end.p0(i64 4, ptr nonnull %5) #16
  br label %346

339:                                              ; preds = %331, %327, %321, %305
  %340 = phi i32 [ %334, %331 ], [ %330, %327 ], [ %323, %321 ], [ %308, %305 ]
  %341 = phi ptr [ %333, %331 ], [ %329, %327 ], [ %322, %321 ], [ %307, %305 ]
  call void @llvm.lifetime.end.p0(i64 4, ptr nonnull %5) #16
  br label %349

342:                                              ; preds = %295, %287, %284
  %343 = load ptr, ptr %0, align 8, !tbaa !96
  %344 = getelementptr inbounds ptr, ptr %343, i64 12
  %345 = load ptr, ptr %344, align 8
  invoke void %345(ptr noundef nonnull align 8 dereferenceable(128) %0, ptr noundef %56, ptr noundef %57, ptr noundef %1)
          to label %346 unwind label %85

346:                                              ; preds = %258, %173, %281, %279, %342, %335, %227, %119
  invoke void @_ZN11xercesc_2_512KVStringPairD1Ev(ptr noundef nonnull align 8 dereferenceable(48) %4)
          to label %347 unwind label %81

347:                                              ; preds = %346
  call void @llvm.lifetime.end.p0(i64 48, ptr nonnull %4) #16
  %348 = load ptr, ptr %11, align 8, !tbaa !122
  br label %43

349:                                              ; preds = %197, %213, %219, %223, %143, %159, %165, %169, %89, %105, %111, %115, %339, %85
  %350 = phi i32 [ %88, %85 ], [ %340, %339 ], [ %118, %115 ], [ %114, %111 ], [ %107, %105 ], [ %92, %89 ], [ %172, %169 ], [ %168, %165 ], [ %161, %159 ], [ %146, %143 ], [ %226, %223 ], [ %222, %219 ], [ %215, %213 ], [ %200, %197 ]
  %351 = phi ptr [ %87, %85 ], [ %341, %339 ], [ %117, %115 ], [ %113, %111 ], [ %106, %105 ], [ %91, %89 ], [ %171, %169 ], [ %167, %165 ], [ %160, %159 ], [ %145, %143 ], [ %225, %223 ], [ %221, %219 ], [ %214, %213 ], [ %199, %197 ]
  invoke void @_ZN11xercesc_2_512KVStringPairD1Ev(ptr noundef nonnull align 8 dereferenceable(48) %4)
          to label %352 unwind label %360

352:                                              ; preds = %349, %81
  %353 = phi i32 [ %350, %349 ], [ %84, %81 ]
  %354 = phi ptr [ %351, %349 ], [ %83, %81 ]
  call void @llvm.lifetime.end.p0(i64 48, ptr nonnull %4) #16
  invoke void @_ZN11xercesc_2_524RefHashTableOfEnumeratorINS_12KVStringPairEED2Ev(ptr noundef nonnull align 8 dereferenceable(48) %3)
          to label %357 unwind label %360

355:                                              ; preds = %46
  call void @_ZN11xercesc_2_524RefHashTableOfEnumeratorINS_12KVStringPairEED2Ev(ptr noundef nonnull align 8 dereferenceable(48) %3)
  call void @llvm.lifetime.end.p0(i64 48, ptr nonnull %3) #16
  br label %356

356:                                              ; preds = %2, %355
  ret void

357:                                              ; preds = %352
  call void @llvm.lifetime.end.p0(i64 48, ptr nonnull %3) #16
  %358 = insertvalue { ptr, i32 } poison, ptr %354, 0
  %359 = insertvalue { ptr, i32 } %358, i32 %353, 1
  resume { ptr, i32 } %359

360:                                              ; preds = %352, %349, %319, %211, %157, %103
  %361 = landingpad { ptr, i32 }
          catch ptr null
  %362 = extractvalue { ptr, i32 } %361, 0
  call void @__clang_call_terminate(ptr %362) #17
  unreachable

363:                                              ; preds = %326, %314, %218, %206, %164, %152, %110, %98
  unreachable
}

; Function Attrs: uwtable
define dso_local void @_ZN11xercesc_2_523AbstractStringValidator12inspectFacetEPNS_13MemoryManagerE(ptr nocapture noundef nonnull readonly align 8 dereferenceable(128) %0, ptr noundef %1) local_unnamed_addr #3 align 2 personality ptr @__gxx_personality_v0 {
  %3 = alloca [65 x i16], align 16
  %4 = alloca [65 x i16], align 16
  %5 = getelementptr inbounds %"class.xercesc_2_5::DatatypeValidator", ptr %0, i64 0, i32 6
  %6 = load i32, ptr %5, align 8, !tbaa !117
  %7 = icmp eq i32 %6, 0
  br i1 %7, label %41, label %8

8:                                                ; preds = %2
  %9 = and i32 %6, 1
  %10 = icmp eq i32 %9, 0
  br i1 %10, label %27, label %11

11:                                               ; preds = %8
  %12 = and i32 %6, 4
  %13 = icmp eq i32 %12, 0
  br i1 %13, label %19, label %14

14:                                               ; preds = %11
  %15 = tail call ptr @__cxa_allocate_exception(i64 48) #16
  invoke void @_ZN11xercesc_2_529InvalidDatatypeFacetExceptionC2EPKcjNS_10XMLExcepts5CodesEPNS_13MemoryManagerE(ptr noundef nonnull align 8 dereferenceable(48) %15, ptr noundef nonnull @.str, i32 noundef 377, i32 noundef 160, ptr noundef %1)
          to label %16 unwind label %17

16:                                               ; preds = %14
  tail call void @__cxa_throw(ptr nonnull %15, ptr nonnull @_ZTIN11xercesc_2_529InvalidDatatypeFacetExceptionE, ptr nonnull @_ZN11xercesc_2_512XMLExceptionD2Ev) #18
  unreachable

17:                                               ; preds = %14
  %18 = landingpad { ptr, i32 }
          cleanup
  tail call void @__cxa_free_exception(ptr %15) #16
  br label %42

19:                                               ; preds = %11
  %20 = and i32 %6, 2
  %21 = icmp eq i32 %20, 0
  br i1 %21, label %27, label %22

22:                                               ; preds = %19
  %23 = tail call ptr @__cxa_allocate_exception(i64 48) #16
  invoke void @_ZN11xercesc_2_529InvalidDatatypeFacetExceptionC2EPKcjNS_10XMLExcepts5CodesEPNS_13MemoryManagerE(ptr noundef nonnull align 8 dereferenceable(48) %23, ptr noundef nonnull @.str, i32 noundef 379, i32 noundef 161, ptr noundef %1)
          to label %24 unwind label %25

24:                                               ; preds = %22
  tail call void @__cxa_throw(ptr nonnull %23, ptr nonnull @_ZTIN11xercesc_2_529InvalidDatatypeFacetExceptionE, ptr nonnull @_ZN11xercesc_2_512XMLExceptionD2Ev) #18
  unreachable

25:                                               ; preds = %22
  %26 = landingpad { ptr, i32 }
          cleanup
  tail call void @__cxa_free_exception(ptr %23) #16
  br label %42

27:                                               ; preds = %19, %8
  %28 = and i32 %6, 6
  %29 = icmp eq i32 %28, 0
  br i1 %29, label %41, label %30

30:                                               ; preds = %27
  %31 = getelementptr inbounds %"class.xercesc_2_5::AbstractStringValidator", ptr %0, i64 0, i32 3
  %32 = load i32, ptr %31, align 8, !tbaa !116
  %33 = getelementptr inbounds %"class.xercesc_2_5::AbstractStringValidator", ptr %0, i64 0, i32 2
  %34 = load i32, ptr %33, align 4, !tbaa !115
  %35 = icmp sgt i32 %32, %34
  br i1 %35, label %36, label %41

36:                                               ; preds = %30
  call void @llvm.lifetime.start.p0(i64 130, ptr nonnull %3) #16
  call void @llvm.lifetime.start.p0(i64 130, ptr nonnull %4) #16
  call void @_ZN11xercesc_2_59XMLString9binToTextEiPtjjPNS_13MemoryManagerE(i32 noundef %34, ptr noundef nonnull %3, i32 noundef 64, i32 noundef 10, ptr noundef %1)
  call void @_ZN11xercesc_2_59XMLString9binToTextEiPtjjPNS_13MemoryManagerE(i32 noundef %32, ptr noundef nonnull %4, i32 noundef 64, i32 noundef 10, ptr noundef %1)
  %37 = call ptr @__cxa_allocate_exception(i64 48) #16
  invoke void @_ZN11xercesc_2_529InvalidDatatypeFacetExceptionC2EPKcjNS_10XMLExcepts5CodesEPKtS6_S6_S6_PNS_13MemoryManagerE(ptr noundef nonnull align 8 dereferenceable(48) %37, ptr noundef nonnull @.str, i32 noundef 393, i32 noundef 162, ptr noundef nonnull %3, ptr noundef nonnull %4, ptr noundef null, ptr noundef null, ptr noundef %1)
          to label %38 unwind label %39

38:                                               ; preds = %36
  call void @__cxa_throw(ptr nonnull %37, ptr nonnull @_ZTIN11xercesc_2_529InvalidDatatypeFacetExceptionE, ptr nonnull @_ZN11xercesc_2_512XMLExceptionD2Ev) #18
  unreachable

39:                                               ; preds = %36
  %40 = landingpad { ptr, i32 }
          cleanup
  call void @__cxa_free_exception(ptr %37) #16
  call void @llvm.lifetime.end.p0(i64 130, ptr nonnull %4) #16
  call void @llvm.lifetime.end.p0(i64 130, ptr nonnull %3) #16
  br label %42

41:                                               ; preds = %27, %30, %2
  ret void

42:                                               ; preds = %39, %25, %17
  %43 = phi { ptr, i32 } [ %18, %17 ], [ %26, %25 ], [ %40, %39 ]
  resume { ptr, i32 } %43
}

; Function Attrs: mustprogress nocallback nofree nosync nounwind willreturn memory(argmem: readwrite)
declare void @llvm.lifetime.start.p0(i64 immarg, ptr nocapture) #5

; Function Attrs: nounwind uwtable
define linkonce_odr dso_local noundef zeroext i1 @_ZNK11xercesc_2_524RefHashTableOfEnumeratorINS_12KVStringPairEE15hasMoreElementsEv(ptr noundef nonnull align 8 dereferenceable(48) %0) unnamed_addr #6 comdat align 2 {
  %2 = getelementptr inbounds %"class.xercesc_2_5::RefHashTableOfEnumerator", ptr %0, i64 0, i32 2
  %3 = load ptr, ptr %2, align 8, !tbaa !122
  %4 = icmp eq ptr %3, null
  br i1 %4, label %5, label %13

5:                                                ; preds = %1
  %6 = getelementptr inbounds %"class.xercesc_2_5::RefHashTableOfEnumerator", ptr %0, i64 0, i32 3
  %7 = load i32, ptr %6, align 8, !tbaa !125
  %8 = getelementptr inbounds %"class.xercesc_2_5::RefHashTableOfEnumerator", ptr %0, i64 0, i32 4
  %9 = load ptr, ptr %8, align 8, !tbaa !123
  %10 = getelementptr inbounds %"class.xercesc_2_5::RefHashTableOf", ptr %9, i64 0, i32 3
  %11 = load i32, ptr %10, align 8, !tbaa !126
  %12 = icmp eq i32 %7, %11
  br i1 %12, label %14, label %13

13:                                               ; preds = %5, %1
  br label %14

14:                                               ; preds = %5, %13
  %15 = phi i1 [ true, %13 ], [ false, %5 ]
  ret i1 %15
}

; Function Attrs: uwtable
define linkonce_odr dso_local noundef nonnull align 8 dereferenceable(48) ptr @_ZN11xercesc_2_524RefHashTableOfEnumeratorINS_12KVStringPairEE11nextElementEv(ptr noundef nonnull align 8 dereferenceable(48) %0) unnamed_addr #3 comdat align 2 personality ptr @__gxx_personality_v0 {
  %2 = load ptr, ptr %0, align 8, !tbaa !96
  %3 = getelementptr inbounds ptr, ptr %2, i64 2
  %4 = load ptr, ptr %3, align 8
  %5 = tail call noundef zeroext i1 %4(ptr noundef nonnull align 8 dereferenceable(48) %0)
  br i1 %5, label %13, label %6

6:                                                ; preds = %1
  %7 = tail call ptr @__cxa_allocate_exception(i64 48) #16
  %8 = getelementptr inbounds %"class.xercesc_2_5::RefHashTableOfEnumerator", ptr %0, i64 0, i32 5
  %9 = load ptr, ptr %8, align 8, !tbaa !124
  invoke void @_ZN11xercesc_2_522NoSuchElementExceptionC2EPKcjNS_10XMLExcepts5CodesEPNS_13MemoryManagerE(ptr noundef nonnull align 8 dereferenceable(48) %7, ptr noundef nonnull @.str.2, i32 noundef 674, i32 noundef 30, ptr noundef %9)
          to label %10 unwind label %11

10:                                               ; preds = %6
  tail call void @__cxa_throw(ptr nonnull %7, ptr nonnull @_ZTIN11xercesc_2_522NoSuchElementExceptionE, ptr nonnull @_ZN11xercesc_2_512XMLExceptionD2Ev) #18
  unreachable

11:                                               ; preds = %6
  %12 = landingpad { ptr, i32 }
          cleanup
  tail call void @__cxa_free_exception(ptr %7) #16
  resume { ptr, i32 } %12

13:                                               ; preds = %1
  %14 = getelementptr inbounds %"class.xercesc_2_5::RefHashTableOfEnumerator", ptr %0, i64 0, i32 2
  %15 = load ptr, ptr %14, align 8, !tbaa !122
  %16 = icmp eq ptr %15, null
  br i1 %16, label %21, label %17

17:                                               ; preds = %13
  %18 = getelementptr inbounds %"struct.xercesc_2_5::RefHashTableBucketElem", ptr %15, i64 0, i32 1
  %19 = load ptr, ptr %18, align 8, !tbaa !138
  store ptr %19, ptr %14, align 8, !tbaa !122
  %20 = icmp eq ptr %19, null
  br i1 %20, label %21, label %43

21:                                               ; preds = %17, %13
  %22 = getelementptr inbounds %"class.xercesc_2_5::RefHashTableOfEnumerator", ptr %0, i64 0, i32 3
  %23 = load i32, ptr %22, align 8, !tbaa !125
  %24 = add i32 %23, 1
  store i32 %24, ptr %22, align 8, !tbaa !125
  %25 = getelementptr inbounds %"class.xercesc_2_5::RefHashTableOfEnumerator", ptr %0, i64 0, i32 4
  %26 = load ptr, ptr %25, align 8, !tbaa !123
  %27 = getelementptr inbounds %"class.xercesc_2_5::RefHashTableOf", ptr %26, i64 0, i32 3
  %28 = load i32, ptr %27, align 8, !tbaa !126
  %29 = icmp eq i32 %24, %28
  br i1 %29, label %43, label %30

30:                                               ; preds = %21
  %31 = getelementptr inbounds %"class.xercesc_2_5::RefHashTableOf", ptr %26, i64 0, i32 2
  %32 = load ptr, ptr %31, align 8, !tbaa !128
  br label %33

33:                                               ; preds = %39, %30
  %34 = phi i32 [ %24, %30 ], [ %40, %39 ]
  %35 = zext i32 %34 to i64
  %36 = getelementptr inbounds ptr, ptr %32, i64 %35
  %37 = load ptr, ptr %36, align 8, !tbaa !129
  %38 = icmp eq ptr %37, null
  br i1 %38, label %39, label %42

39:                                               ; preds = %33
  %40 = add i32 %34, 1
  store i32 %40, ptr %22, align 8, !tbaa !125
  %41 = icmp eq i32 %40, %28
  br i1 %41, label %43, label %33

42:                                               ; preds = %33
  store ptr %37, ptr %14, align 8, !tbaa !122
  br label %43

43:                                               ; preds = %39, %17, %21, %42
  %44 = load ptr, ptr %15, align 8, !tbaa !140
  ret ptr %44
}

declare void @_ZN11xercesc_2_512KVStringPairC1ERKS0_(ptr noundef nonnull align 8 dereferenceable(48), ptr noundef nonnull align 8 dereferenceable(48)) unnamed_addr #1

declare noundef i32 @_ZN11xercesc_2_59XMLString8parseIntEPKtPNS_13MemoryManagerE(ptr noundef, ptr noundef) local_unnamed_addr #1

; Function Attrs: nofree nosync nounwind memory(none)
declare i32 @llvm.eh.typeid.for(ptr) #7

declare ptr @__cxa_allocate_exception(i64) local_unnamed_addr

; Function Attrs: uwtable
define linkonce_odr dso_local void @_ZN11xercesc_2_529InvalidDatatypeFacetExceptionC2EPKcjNS_10XMLExcepts5CodesEPKtS6_S6_S6_PNS_13MemoryManagerE(ptr noundef nonnull align 8 dereferenceable(48) %0, ptr noundef %1, i32 noundef %2, i32 noundef %3, ptr noundef %4, ptr noundef %5, ptr noundef %6, ptr noundef %7, ptr noundef %8) unnamed_addr #3 comdat align 2 personality ptr @__gxx_personality_v0 {
  tail call void @_ZN11xercesc_2_512XMLExceptionC2EPKcjPNS_13MemoryManagerE(ptr noundef nonnull align 8 dereferenceable(48) %0, ptr noundef %1, i32 noundef %2, ptr noundef %8)
  store ptr getelementptr inbounds ({ [6 x ptr] }, ptr @_ZTVN11xercesc_2_529InvalidDatatypeFacetExceptionE, i64 0, inrange i32 0, i64 2), ptr %0, align 8, !tbaa !96
  invoke void @_ZN11xercesc_2_512XMLException14loadExceptTextENS_10XMLExcepts5CodesEPKtS4_S4_S4_(ptr noundef nonnull align 8 dereferenceable(48) %0, i32 noundef %3, ptr noundef %4, ptr noundef %5, ptr noundef %6, ptr noundef %7)
          to label %10 unwind label %11

10:                                               ; preds = %9
  ret void

11:                                               ; preds = %9
  %12 = landingpad { ptr, i32 }
          cleanup
  invoke void @_ZN11xercesc_2_512XMLExceptionD2Ev(ptr noundef nonnull align 8 dereferenceable(48) %0)
          to label %13 unwind label %14

13:                                               ; preds = %11
  resume { ptr, i32 } %12

14:                                               ; preds = %11
  %15 = landingpad { ptr, i32 }
          catch ptr null
  %16 = extractvalue { ptr, i32 } %15, 0
  tail call void @__clang_call_terminate(ptr %16) #17
  unreachable
}

declare void @__cxa_free_exception(ptr) local_unnamed_addr

declare void @__cxa_throw(ptr, ptr, ptr) local_unnamed_addr

declare void @__cxa_end_catch() local_unnamed_addr

; Function Attrs: mustprogress nocallback nofree nosync nounwind willreturn memory(argmem: readwrite)
declare void @llvm.lifetime.end.p0(i64 immarg, ptr nocapture) #5

declare noundef zeroext i1 @_ZN11xercesc_2_59XMLString9textToBinEPKtRjPNS_13MemoryManagerE(ptr noundef, ptr noundef nonnull align 4 dereferenceable(4), ptr noundef) local_unnamed_addr #1

; Function Attrs: uwtable
define linkonce_odr dso_local void @_ZN11xercesc_2_529InvalidDatatypeFacetExceptionC2EPKcjNS_10XMLExcepts5CodesEPNS_13MemoryManagerE(ptr noundef nonnull align 8 dereferenceable(48) %0, ptr noundef %1, i32 noundef %2, i32 noundef %3, ptr noundef %4) unnamed_addr #3 comdat align 2 personality ptr @__gxx_personality_v0 {
  tail call void @_ZN11xercesc_2_512XMLExceptionC2EPKcjPNS_13MemoryManagerE(ptr noundef nonnull align 8 dereferenceable(48) %0, ptr noundef %1, i32 noundef %2, ptr noundef %4)
  store ptr getelementptr inbounds ({ [6 x ptr] }, ptr @_ZTVN11xercesc_2_529InvalidDatatypeFacetExceptionE, i64 0, inrange i32 0, i64 2), ptr %0, align 8, !tbaa !96
  invoke void @_ZN11xercesc_2_512XMLException14loadExceptTextENS_10XMLExcepts5CodesE(ptr noundef nonnull align 8 dereferenceable(48) %0, i32 noundef %3)
          to label %6 unwind label %7

6:                                                ; preds = %5
  ret void

7:                                                ; preds = %5
  %8 = landingpad { ptr, i32 }
          cleanup
  invoke void @_ZN11xercesc_2_512XMLExceptionD2Ev(ptr noundef nonnull align 8 dereferenceable(48) %0)
          to label %9 unwind label %10

9:                                                ; preds = %7
  resume { ptr, i32 } %8

10:                                               ; preds = %7
  %11 = landingpad { ptr, i32 }
          catch ptr null
  %12 = extractvalue { ptr, i32 } %11, 0
  tail call void @__clang_call_terminate(ptr %12) #17
  unreachable
}

declare void @_ZN11xercesc_2_512KVStringPairD1Ev(ptr noundef nonnull align 8 dereferenceable(48)) unnamed_addr #1

; Function Attrs: uwtable
define linkonce_odr dso_local void @_ZN11xercesc_2_524RefHashTableOfEnumeratorINS_12KVStringPairEED2Ev(ptr noundef nonnull align 8 dereferenceable(48) %0) unnamed_addr #3 comdat align 2 personality ptr @__gxx_personality_v0 {
  store ptr getelementptr inbounds ({ [7 x ptr] }, ptr @_ZTVN11xercesc_2_524RefHashTableOfEnumeratorINS_12KVStringPairEEE, i64 0, inrange i32 0, i64 2), ptr %0, align 8, !tbaa !96
  %2 = getelementptr inbounds %"class.xercesc_2_5::RefHashTableOfEnumerator", ptr %0, i64 0, i32 1
  %3 = load i8, ptr %2, align 8, !tbaa !119, !range !110, !noundef !111
  %4 = icmp eq i8 %3, 0
  br i1 %4, label %72, label %5

5:                                                ; preds = %1
  %6 = getelementptr inbounds %"class.xercesc_2_5::RefHashTableOfEnumerator", ptr %0, i64 0, i32 4
  %7 = load ptr, ptr %6, align 8, !tbaa !123
  %8 = icmp eq ptr %7, null
  br i1 %8, label %72, label %9

9:                                                ; preds = %5
  %10 = getelementptr inbounds %"class.xercesc_2_5::RefHashTableOf", ptr %7, i64 0, i32 3
  %11 = load i32, ptr %10, align 8, !tbaa !126
  %12 = icmp eq i32 %11, 0
  br i1 %12, label %49, label %13

13:                                               ; preds = %9
  %14 = getelementptr inbounds %"class.xercesc_2_5::RefHashTableOf", ptr %7, i64 0, i32 2
  %15 = getelementptr inbounds %"class.xercesc_2_5::RefHashTableOf", ptr %7, i64 0, i32 1
  br label %16

16:                                               ; preds = %42, %13
  %17 = phi i32 [ %11, %13 ], [ %43, %42 ]
  %18 = phi i64 [ 0, %13 ], [ %46, %42 ]
  %19 = load ptr, ptr %14, align 8, !tbaa !128
  %20 = getelementptr inbounds ptr, ptr %19, i64 %18
  %21 = load ptr, ptr %20, align 8, !tbaa !129
  %22 = icmp eq ptr %21, null
  br i1 %22, label %42, label %23

23:                                               ; preds = %16, %37
  %24 = phi ptr [ %26, %37 ], [ %21, %16 ]
  %25 = getelementptr inbounds %"struct.xercesc_2_5::RefHashTableBucketElem", ptr %24, i64 0, i32 1
  %26 = load ptr, ptr %25, align 8, !tbaa !138
  %27 = load i8, ptr %15, align 8, !tbaa !141, !range !110, !noundef !111
  %28 = icmp eq i8 %27, 0
  br i1 %28, label %36, label %29

29:                                               ; preds = %23
  %30 = load ptr, ptr %24, align 8, !tbaa !140
  %31 = icmp eq ptr %30, null
  br i1 %31, label %36, label %32

32:                                               ; preds = %29
  %33 = load ptr, ptr %30, align 8, !tbaa !96
  %34 = getelementptr inbounds ptr, ptr %33, i64 1
  %35 = load ptr, ptr %34, align 8
  invoke void %35(ptr noundef nonnull align 8 dereferenceable(48) %30)
          to label %36 unwind label %66

36:                                               ; preds = %32, %29, %23
  invoke void @_ZN11xercesc_2_57XMemorydlEPv(ptr noundef nonnull %24)
          to label %37 unwind label %66

37:                                               ; preds = %36
  %38 = icmp eq ptr %26, null
  br i1 %38, label %39, label %23

39:                                               ; preds = %37
  %40 = load ptr, ptr %14, align 8, !tbaa !128
  %41 = load i32, ptr %10, align 8, !tbaa !126
  br label %42

42:                                               ; preds = %39, %16
  %43 = phi i32 [ %41, %39 ], [ %17, %16 ]
  %44 = phi ptr [ %40, %39 ], [ %19, %16 ]
  %45 = getelementptr inbounds ptr, ptr %44, i64 %18
  store ptr null, ptr %45, align 8, !tbaa !129
  %46 = add nuw nsw i64 %18, 1
  %47 = zext i32 %43 to i64
  %48 = icmp ult i64 %46, %47
  br i1 %48, label %16, label %49

49:                                               ; preds = %42, %9
  %50 = getelementptr inbounds %"class.xercesc_2_5::RefHashTableOf", ptr %7, i64 0, i32 5
  store i32 0, ptr %50, align 8, !tbaa !142
  %51 = load ptr, ptr %7, align 8, !tbaa !143
  %52 = getelementptr inbounds %"class.xercesc_2_5::RefHashTableOf", ptr %7, i64 0, i32 2
  %53 = load ptr, ptr %52, align 8, !tbaa !128
  %54 = load ptr, ptr %51, align 8, !tbaa !96
  %55 = getelementptr inbounds ptr, ptr %54, i64 3
  %56 = load ptr, ptr %55, align 8
  invoke void %56(ptr noundef nonnull align 8 dereferenceable(8) %51, ptr noundef %53)
          to label %57 unwind label %68

57:                                               ; preds = %49
  %58 = getelementptr inbounds %"class.xercesc_2_5::RefHashTableOf", ptr %7, i64 0, i32 6
  %59 = load ptr, ptr %58, align 8, !tbaa !144
  %60 = icmp eq ptr %59, null
  br i1 %60, label %65, label %61

61:                                               ; preds = %57
  %62 = load ptr, ptr %59, align 8, !tbaa !96
  %63 = getelementptr inbounds ptr, ptr %62, i64 3
  %64 = load ptr, ptr %63, align 8
  invoke void %64(ptr noundef nonnull align 8 dereferenceable(8) %59)
          to label %65 unwind label %68

65:                                               ; preds = %57, %61
  tail call void @_ZN11xercesc_2_57XMemorydlEPv(ptr noundef nonnull %7)
  br label %72

66:                                               ; preds = %32, %36
  %67 = landingpad { ptr, i32 }
          cleanup
  br label %70

68:                                               ; preds = %49, %61
  %69 = landingpad { ptr, i32 }
          cleanup
  br label %70

70:                                               ; preds = %68, %66
  %71 = phi { ptr, i32 } [ %67, %66 ], [ %69, %68 ]
  invoke void @_ZN11xercesc_2_57XMemorydlEPv(ptr noundef nonnull %7)
          to label %73 unwind label %74

72:                                               ; preds = %65, %5, %1
  ret void

73:                                               ; preds = %70
  resume { ptr, i32 } %71

74:                                               ; preds = %70
  %75 = landingpad { ptr, i32 }
          catch ptr null
  %76 = extractvalue { ptr, i32 } %75, 0
  tail call void @__clang_call_terminate(ptr %76) #17
  unreachable
}

declare void @_ZN11xercesc_2_59XMLString9binToTextEiPtjjPNS_13MemoryManagerE(i32 noundef, ptr noundef, i32 noundef, i32 noundef, ptr noundef) local_unnamed_addr #1

; Function Attrs: uwtable
define dso_local void @_ZN11xercesc_2_523AbstractStringValidator16inspectFacetBaseEPNS_13MemoryManagerE(ptr noundef nonnull align 8 dereferenceable(128) %0, ptr noundef %1) unnamed_addr #3 align 2 personality ptr @__gxx_personality_v0 {
  %3 = alloca [65 x i16], align 16
  %4 = alloca [65 x i16], align 16
  %5 = alloca [65 x i16], align 16
  %6 = alloca [65 x i16], align 16
  %7 = alloca [65 x i16], align 16
  %8 = alloca [65 x i16], align 16
  %9 = alloca [65 x i16], align 16
  %10 = alloca [65 x i16], align 16
  %11 = alloca [65 x i16], align 16
  %12 = alloca [65 x i16], align 16
  %13 = alloca [65 x i16], align 16
  %14 = alloca [65 x i16], align 16
  %15 = alloca [65 x i16], align 16
  %16 = alloca [65 x i16], align 16
  %17 = alloca [65 x i16], align 16
  %18 = alloca [65 x i16], align 16
  %19 = alloca [65 x i16], align 16
  %20 = alloca [65 x i16], align 16
  %21 = alloca [65 x i16], align 16
  %22 = alloca [65 x i16], align 16
  %23 = alloca [65 x i16], align 16
  %24 = alloca [65 x i16], align 16
  %25 = getelementptr inbounds %"class.xercesc_2_5::DatatypeValidator", ptr %0, i64 0, i32 10
  %26 = load ptr, ptr %25, align 8, !tbaa !145
  %27 = getelementptr inbounds %"class.xercesc_2_5::DatatypeValidator", ptr %0, i64 0, i32 6
  %28 = load i32, ptr %27, align 8, !tbaa !117
  %29 = icmp eq i32 %28, 0
  br i1 %29, label %30, label %36

30:                                               ; preds = %2
  %31 = getelementptr inbounds %"class.xercesc_2_5::AbstractStringValidator", ptr %0, i64 0, i32 5
  %32 = load ptr, ptr %31, align 8, !tbaa !112
  %33 = icmp ne ptr %32, null
  %34 = icmp ne ptr %26, null
  %35 = and i1 %34, %33
  br i1 %35, label %38, label %241

36:                                               ; preds = %2
  %37 = icmp eq ptr %26, null
  br i1 %37, label %241, label %38

38:                                               ; preds = %30, %36
  %39 = getelementptr inbounds %"class.xercesc_2_5::DatatypeValidator", ptr %26, i64 0, i32 6
  %40 = load i32, ptr %39, align 8, !tbaa !117
  %41 = getelementptr inbounds %"class.xercesc_2_5::AbstractStringValidator", ptr %0, i64 0, i32 1
  %42 = load i32, ptr %41, align 8, !tbaa !113
  %43 = getelementptr inbounds %"class.xercesc_2_5::AbstractStringValidator", ptr %0, i64 0, i32 3
  %44 = load i32, ptr %43, align 8, !tbaa !116
  %45 = getelementptr inbounds %"class.xercesc_2_5::AbstractStringValidator", ptr %0, i64 0, i32 2
  %46 = load i32, ptr %45, align 4, !tbaa !115
  %47 = getelementptr inbounds %"class.xercesc_2_5::AbstractStringValidator", ptr %26, i64 0, i32 1
  %48 = load i32, ptr %47, align 8, !tbaa !113
  %49 = getelementptr inbounds %"class.xercesc_2_5::AbstractStringValidator", ptr %26, i64 0, i32 3
  %50 = load i32, ptr %49, align 8, !tbaa !116
  %51 = getelementptr inbounds %"class.xercesc_2_5::AbstractStringValidator", ptr %26, i64 0, i32 2
  %52 = load i32, ptr %51, align 4, !tbaa !115
  %53 = getelementptr inbounds %"class.xercesc_2_5::DatatypeValidator", ptr %26, i64 0, i32 7
  %54 = load i32, ptr %53, align 4, !tbaa !137
  %55 = and i32 %28, 1
  %56 = icmp eq i32 %55, 0
  br i1 %56, label %77, label %57

57:                                               ; preds = %38
  %58 = and i32 %40, 4
  %59 = icmp ne i32 %58, 0
  %60 = icmp sgt i32 %42, %52
  %61 = and i1 %59, %60
  br i1 %61, label %62, label %67

62:                                               ; preds = %57
  call void @llvm.lifetime.start.p0(i64 130, ptr nonnull %3) #16
  call void @llvm.lifetime.start.p0(i64 130, ptr nonnull %4) #16
  call void @_ZN11xercesc_2_59XMLString9binToTextEiPtjjPNS_13MemoryManagerE(i32 noundef %42, ptr noundef nonnull %3, i32 noundef 64, i32 noundef 10, ptr noundef %1)
  call void @_ZN11xercesc_2_59XMLString9binToTextEiPtjjPNS_13MemoryManagerE(i32 noundef %52, ptr noundef nonnull %4, i32 noundef 64, i32 noundef 10, ptr noundef %1)
  %63 = call ptr @__cxa_allocate_exception(i64 48) #16
  invoke void @_ZN11xercesc_2_529InvalidDatatypeFacetExceptionC2EPKcjNS_10XMLExcepts5CodesEPKtS6_S6_S6_PNS_13MemoryManagerE(ptr noundef nonnull align 8 dereferenceable(48) %63, ptr noundef nonnull @.str, i32 noundef 452, i32 noundef 171, ptr noundef nonnull %3, ptr noundef nonnull %4, ptr noundef null, ptr noundef null, ptr noundef %1)
          to label %64 unwind label %65

64:                                               ; preds = %62
  call void @__cxa_throw(ptr nonnull %63, ptr nonnull @_ZTIN11xercesc_2_529InvalidDatatypeFacetExceptionE, ptr nonnull @_ZN11xercesc_2_512XMLExceptionD2Ev) #18
  unreachable

65:                                               ; preds = %62
  %66 = landingpad { ptr, i32 }
          cleanup
  call void @__cxa_free_exception(ptr %63) #16
  call void @llvm.lifetime.end.p0(i64 130, ptr nonnull %4) #16
  call void @llvm.lifetime.end.p0(i64 130, ptr nonnull %3) #16
  br label %203

67:                                               ; preds = %57
  %68 = and i32 %40, 2
  %69 = icmp ne i32 %68, 0
  %70 = icmp slt i32 %42, %50
  %71 = and i1 %69, %70
  br i1 %71, label %72, label %77

72:                                               ; preds = %67
  call void @llvm.lifetime.start.p0(i64 130, ptr nonnull %5) #16
  call void @llvm.lifetime.start.p0(i64 130, ptr nonnull %6) #16
  call void @_ZN11xercesc_2_59XMLString9binToTextEiPtjjPNS_13MemoryManagerE(i32 noundef %42, ptr noundef nonnull %5, i32 noundef 64, i32 noundef 10, ptr noundef %1)
  call void @_ZN11xercesc_2_59XMLString9binToTextEiPtjjPNS_13MemoryManagerE(i32 noundef %50, ptr noundef nonnull %6, i32 noundef 64, i32 noundef 10, ptr noundef %1)
  %73 = call ptr @__cxa_allocate_exception(i64 48) #16
  invoke void @_ZN11xercesc_2_529InvalidDatatypeFacetExceptionC2EPKcjNS_10XMLExcepts5CodesEPKtS6_S6_S6_PNS_13MemoryManagerE(ptr noundef nonnull align 8 dereferenceable(48) %73, ptr noundef nonnull @.str, i32 noundef 461, i32 noundef 170, ptr noundef nonnull %5, ptr noundef nonnull %6, ptr noundef null, ptr noundef null, ptr noundef %1)
          to label %74 unwind label %75

74:                                               ; preds = %72
  call void @__cxa_throw(ptr nonnull %73, ptr nonnull @_ZTIN11xercesc_2_529InvalidDatatypeFacetExceptionE, ptr nonnull @_ZN11xercesc_2_512XMLExceptionD2Ev) #18
  unreachable

75:                                               ; preds = %72
  %76 = landingpad { ptr, i32 }
          cleanup
  call void @__cxa_free_exception(ptr %73) #16
  call void @llvm.lifetime.end.p0(i64 130, ptr nonnull %6) #16
  call void @llvm.lifetime.end.p0(i64 130, ptr nonnull %5) #16
  br label %203

77:                                               ; preds = %67, %38
  %78 = and i32 %40, 1
  %79 = icmp eq i32 %78, 0
  br i1 %79, label %80, label %82

80:                                               ; preds = %77
  %81 = and i32 %28, 2
  br label %112

82:                                               ; preds = %77
  %83 = and i32 %28, 4
  %84 = icmp ne i32 %83, 0
  %85 = icmp sgt i32 %48, %46
  %86 = and i1 %84, %85
  br i1 %86, label %87, label %92

87:                                               ; preds = %82
  call void @llvm.lifetime.start.p0(i64 130, ptr nonnull %7) #16
  call void @llvm.lifetime.start.p0(i64 130, ptr nonnull %8) #16
  call void @_ZN11xercesc_2_59XMLString9binToTextEiPtjjPNS_13MemoryManagerE(i32 noundef %46, ptr noundef nonnull %7, i32 noundef 64, i32 noundef 10, ptr noundef %1)
  call void @_ZN11xercesc_2_59XMLString9binToTextEiPtjjPNS_13MemoryManagerE(i32 noundef %48, ptr noundef nonnull %8, i32 noundef 64, i32 noundef 10, ptr noundef %1)
  %88 = call ptr @__cxa_allocate_exception(i64 48) #16
  invoke void @_ZN11xercesc_2_529InvalidDatatypeFacetExceptionC2EPKcjNS_10XMLExcepts5CodesEPKtS6_S6_S6_PNS_13MemoryManagerE(ptr noundef nonnull align 8 dereferenceable(48) %88, ptr noundef nonnull @.str, i32 noundef 475, i32 noundef 173, ptr noundef nonnull %7, ptr noundef nonnull %8, ptr noundef null, ptr noundef null, ptr noundef %1)
          to label %89 unwind label %90

89:                                               ; preds = %87
  call void @__cxa_throw(ptr nonnull %88, ptr nonnull @_ZTIN11xercesc_2_529InvalidDatatypeFacetExceptionE, ptr nonnull @_ZN11xercesc_2_512XMLExceptionD2Ev) #18
  unreachable

90:                                               ; preds = %87
  %91 = landingpad { ptr, i32 }
          cleanup
  call void @__cxa_free_exception(ptr %88) #16
  call void @llvm.lifetime.end.p0(i64 130, ptr nonnull %8) #16
  call void @llvm.lifetime.end.p0(i64 130, ptr nonnull %7) #16
  br label %203

92:                                               ; preds = %82
  %93 = and i32 %28, 2
  %94 = icmp ne i32 %93, 0
  %95 = icmp slt i32 %48, %44
  %96 = and i1 %94, %95
  br i1 %96, label %97, label %102

97:                                               ; preds = %92
  call void @llvm.lifetime.start.p0(i64 130, ptr nonnull %9) #16
  call void @llvm.lifetime.start.p0(i64 130, ptr nonnull %10) #16
  call void @_ZN11xercesc_2_59XMLString9binToTextEiPtjjPNS_13MemoryManagerE(i32 noundef %44, ptr noundef nonnull %9, i32 noundef 64, i32 noundef 10, ptr noundef %1)
  call void @_ZN11xercesc_2_59XMLString9binToTextEiPtjjPNS_13MemoryManagerE(i32 noundef %48, ptr noundef nonnull %10, i32 noundef 64, i32 noundef 10, ptr noundef %1)
  %98 = call ptr @__cxa_allocate_exception(i64 48) #16
  invoke void @_ZN11xercesc_2_529InvalidDatatypeFacetExceptionC2EPKcjNS_10XMLExcepts5CodesEPKtS6_S6_S6_PNS_13MemoryManagerE(ptr noundef nonnull align 8 dereferenceable(48) %98, ptr noundef nonnull @.str, i32 noundef 484, i32 noundef 172, ptr noundef nonnull %9, ptr noundef nonnull %10, ptr noundef null, ptr noundef null, ptr noundef %1)
          to label %99 unwind label %100

99:                                               ; preds = %97
  call void @__cxa_throw(ptr nonnull %98, ptr nonnull @_ZTIN11xercesc_2_529InvalidDatatypeFacetExceptionE, ptr nonnull @_ZN11xercesc_2_512XMLExceptionD2Ev) #18
  unreachable

100:                                              ; preds = %97
  %101 = landingpad { ptr, i32 }
          cleanup
  call void @__cxa_free_exception(ptr %98) #16
  call void @llvm.lifetime.end.p0(i64 130, ptr nonnull %10) #16
  call void @llvm.lifetime.end.p0(i64 130, ptr nonnull %9) #16
  br label %203

102:                                              ; preds = %92
  %103 = and i32 %55, %40
  %104 = icmp eq i32 %103, 0
  %105 = icmp eq i32 %42, %48
  %106 = or i1 %104, %105
  br i1 %106, label %112, label %107

107:                                              ; preds = %102
  call void @llvm.lifetime.start.p0(i64 130, ptr nonnull %11) #16
  call void @llvm.lifetime.start.p0(i64 130, ptr nonnull %12) #16
  call void @_ZN11xercesc_2_59XMLString9binToTextEiPtjjPNS_13MemoryManagerE(i32 noundef %42, ptr noundef nonnull %11, i32 noundef 64, i32 noundef 10, ptr noundef %1)
  call void @_ZN11xercesc_2_59XMLString9binToTextEiPtjjPNS_13MemoryManagerE(i32 noundef %48, ptr noundef nonnull %12, i32 noundef 64, i32 noundef 10, ptr noundef %1)
  %108 = call ptr @__cxa_allocate_exception(i64 48) #16
  invoke void @_ZN11xercesc_2_529InvalidDatatypeFacetExceptionC2EPKcjNS_10XMLExcepts5CodesEPKtS6_S6_S6_PNS_13MemoryManagerE(ptr noundef nonnull align 8 dereferenceable(48) %108, ptr noundef nonnull @.str, i32 noundef 497, i32 noundef 165, ptr noundef nonnull %11, ptr noundef nonnull %12, ptr noundef null, ptr noundef null, ptr noundef %1)
          to label %109 unwind label %110

109:                                              ; preds = %107
  call void @__cxa_throw(ptr nonnull %108, ptr nonnull @_ZTIN11xercesc_2_529InvalidDatatypeFacetExceptionE, ptr nonnull @_ZN11xercesc_2_512XMLExceptionD2Ev) #18
  unreachable

110:                                              ; preds = %107
  %111 = landingpad { ptr, i32 }
          cleanup
  call void @__cxa_free_exception(ptr %108) #16
  call void @llvm.lifetime.end.p0(i64 130, ptr nonnull %12) #16
  call void @llvm.lifetime.end.p0(i64 130, ptr nonnull %11) #16
  br label %203

112:                                              ; preds = %80, %102
  %113 = phi i32 [ %81, %80 ], [ %93, %102 ]
  %114 = icmp eq i32 %113, 0
  %115 = and i32 %40, 4
  %116 = icmp eq i32 %115, 0
  %117 = icmp sle i32 %44, %52
  %118 = or i1 %114, %117
  %119 = or i1 %116, %118
  br i1 %119, label %125, label %120

120:                                              ; preds = %112
  call void @llvm.lifetime.start.p0(i64 130, ptr nonnull %13) #16
  call void @llvm.lifetime.start.p0(i64 130, ptr nonnull %14) #16
  call void @_ZN11xercesc_2_59XMLString9binToTextEiPtjjPNS_13MemoryManagerE(i32 noundef %44, ptr noundef nonnull %13, i32 noundef 64, i32 noundef 10, ptr noundef %1)
  call void @_ZN11xercesc_2_59XMLString9binToTextEiPtjjPNS_13MemoryManagerE(i32 noundef %52, ptr noundef nonnull %14, i32 noundef 64, i32 noundef 10, ptr noundef %1)
  %121 = call ptr @__cxa_allocate_exception(i64 48) #16
  invoke void @_ZN11xercesc_2_529InvalidDatatypeFacetExceptionC2EPKcjNS_10XMLExcepts5CodesEPKtS6_S6_S6_PNS_13MemoryManagerE(ptr noundef nonnull align 8 dereferenceable(48) %121, ptr noundef nonnull @.str, i32 noundef 516, i32 noundef 167, ptr noundef nonnull %13, ptr noundef nonnull %14, ptr noundef null, ptr noundef null, ptr noundef %1)
          to label %122 unwind label %123

122:                                              ; preds = %120
  call void @__cxa_throw(ptr nonnull %121, ptr nonnull @_ZTIN11xercesc_2_529InvalidDatatypeFacetExceptionE, ptr nonnull @_ZN11xercesc_2_512XMLExceptionD2Ev) #18
  unreachable

123:                                              ; preds = %120
  %124 = landingpad { ptr, i32 }
          cleanup
  call void @__cxa_free_exception(ptr %121) #16
  call void @llvm.lifetime.end.p0(i64 130, ptr nonnull %14) #16
  call void @llvm.lifetime.end.p0(i64 130, ptr nonnull %13) #16
  br label %203

125:                                              ; preds = %112
  %126 = and i32 %40, 2
  %127 = icmp eq i32 %126, 0
  %128 = and i32 %113, %40
  %129 = icmp eq i32 %128, 0
  br i1 %129, label %147, label %130

130:                                              ; preds = %125
  %131 = and i32 %54, 2
  %132 = icmp eq i32 %131, 0
  br i1 %132, label %140, label %133

133:                                              ; preds = %130
  %134 = icmp eq i32 %44, %50
  br i1 %134, label %147, label %135

135:                                              ; preds = %133
  call void @llvm.lifetime.start.p0(i64 130, ptr nonnull %15) #16
  call void @llvm.lifetime.start.p0(i64 130, ptr nonnull %16) #16
  call void @_ZN11xercesc_2_59XMLString9binToTextEiPtjjPNS_13MemoryManagerE(i32 noundef %44, ptr noundef nonnull %15, i32 noundef 64, i32 noundef 10, ptr noundef %1)
  call void @_ZN11xercesc_2_59XMLString9binToTextEiPtjjPNS_13MemoryManagerE(i32 noundef %50, ptr noundef nonnull %16, i32 noundef 64, i32 noundef 10, ptr noundef %1)
  %136 = call ptr @__cxa_allocate_exception(i64 48) #16
  invoke void @_ZN11xercesc_2_529InvalidDatatypeFacetExceptionC2EPKcjNS_10XMLExcepts5CodesEPKtS6_S6_S6_PNS_13MemoryManagerE(ptr noundef nonnull align 8 dereferenceable(48) %136, ptr noundef nonnull @.str, i32 noundef 531, i32 noundef 223, ptr noundef nonnull %15, ptr noundef nonnull %16, ptr noundef null, ptr noundef null, ptr noundef %1)
          to label %137 unwind label %138

137:                                              ; preds = %135
  call void @__cxa_throw(ptr nonnull %136, ptr nonnull @_ZTIN11xercesc_2_529InvalidDatatypeFacetExceptionE, ptr nonnull @_ZN11xercesc_2_512XMLExceptionD2Ev) #18
  unreachable

138:                                              ; preds = %135
  %139 = landingpad { ptr, i32 }
          cleanup
  call void @__cxa_free_exception(ptr %136) #16
  call void @llvm.lifetime.end.p0(i64 130, ptr nonnull %16) #16
  call void @llvm.lifetime.end.p0(i64 130, ptr nonnull %15) #16
  br label %203

140:                                              ; preds = %130
  %141 = icmp slt i32 %44, %50
  br i1 %141, label %142, label %147

142:                                              ; preds = %140
  call void @llvm.lifetime.start.p0(i64 130, ptr nonnull %17) #16
  call void @llvm.lifetime.start.p0(i64 130, ptr nonnull %18) #16
  call void @_ZN11xercesc_2_59XMLString9binToTextEiPtjjPNS_13MemoryManagerE(i32 noundef %44, ptr noundef nonnull %17, i32 noundef 64, i32 noundef 10, ptr noundef %1)
  call void @_ZN11xercesc_2_59XMLString9binToTextEiPtjjPNS_13MemoryManagerE(i32 noundef %50, ptr noundef nonnull %18, i32 noundef 64, i32 noundef 10, ptr noundef %1)
  %143 = call ptr @__cxa_allocate_exception(i64 48) #16
  invoke void @_ZN11xercesc_2_529InvalidDatatypeFacetExceptionC2EPKcjNS_10XMLExcepts5CodesEPKtS6_S6_S6_PNS_13MemoryManagerE(ptr noundef nonnull align 8 dereferenceable(48) %143, ptr noundef nonnull @.str, i32 noundef 542, i32 noundef 166, ptr noundef nonnull %17, ptr noundef nonnull %18, ptr noundef null, ptr noundef null, ptr noundef %1)
          to label %144 unwind label %145

144:                                              ; preds = %142
  call void @__cxa_throw(ptr nonnull %143, ptr nonnull @_ZTIN11xercesc_2_529InvalidDatatypeFacetExceptionE, ptr nonnull @_ZN11xercesc_2_512XMLExceptionD2Ev) #18
  unreachable

145:                                              ; preds = %142
  %146 = landingpad { ptr, i32 }
          cleanup
  call void @__cxa_free_exception(ptr %143) #16
  call void @llvm.lifetime.end.p0(i64 130, ptr nonnull %18) #16
  call void @llvm.lifetime.end.p0(i64 130, ptr nonnull %17) #16
  br label %203

147:                                              ; preds = %133, %140, %125
  %148 = and i32 %28, 4
  %149 = icmp eq i32 %148, 0
  %150 = icmp sle i32 %50, %46
  %151 = or i1 %127, %150
  %152 = or i1 %149, %151
  br i1 %152, label %158, label %153

153:                                              ; preds = %147
  call void @llvm.lifetime.start.p0(i64 130, ptr nonnull %19) #16
  call void @llvm.lifetime.start.p0(i64 130, ptr nonnull %20) #16
  call void @_ZN11xercesc_2_59XMLString9binToTextEiPtjjPNS_13MemoryManagerE(i32 noundef %46, ptr noundef nonnull %19, i32 noundef 64, i32 noundef 10, ptr noundef %1)
  call void @_ZN11xercesc_2_59XMLString9binToTextEiPtjjPNS_13MemoryManagerE(i32 noundef %50, ptr noundef nonnull %20, i32 noundef 64, i32 noundef 10, ptr noundef %1)
  %154 = call ptr @__cxa_allocate_exception(i64 48) #16
  invoke void @_ZN11xercesc_2_529InvalidDatatypeFacetExceptionC2EPKcjNS_10XMLExcepts5CodesEPKtS6_S6_S6_PNS_13MemoryManagerE(ptr noundef nonnull align 8 dereferenceable(48) %154, ptr noundef nonnull @.str, i32 noundef 556, i32 noundef 169, ptr noundef nonnull %19, ptr noundef nonnull %20, ptr noundef null, ptr noundef null, ptr noundef %1)
          to label %155 unwind label %156

155:                                              ; preds = %153
  call void @__cxa_throw(ptr nonnull %154, ptr nonnull @_ZTIN11xercesc_2_529InvalidDatatypeFacetExceptionE, ptr nonnull @_ZN11xercesc_2_512XMLExceptionD2Ev) #18
  unreachable

156:                                              ; preds = %153
  %157 = landingpad { ptr, i32 }
          cleanup
  call void @__cxa_free_exception(ptr %154) #16
  call void @llvm.lifetime.end.p0(i64 130, ptr nonnull %20) #16
  call void @llvm.lifetime.end.p0(i64 130, ptr nonnull %19) #16
  br label %203

158:                                              ; preds = %147
  %159 = and i32 %148, %40
  %160 = icmp eq i32 %159, 0
  br i1 %160, label %178, label %161

161:                                              ; preds = %158
  %162 = and i32 %54, 4
  %163 = icmp eq i32 %162, 0
  br i1 %163, label %171, label %164

164:                                              ; preds = %161
  %165 = icmp eq i32 %46, %52
  br i1 %165, label %178, label %166

166:                                              ; preds = %164
  call void @llvm.lifetime.start.p0(i64 130, ptr nonnull %21) #16
  call void @llvm.lifetime.start.p0(i64 130, ptr nonnull %22) #16
  call void @_ZN11xercesc_2_59XMLString9binToTextEiPtjjPNS_13MemoryManagerE(i32 noundef %46, ptr noundef nonnull %21, i32 noundef 64, i32 noundef 10, ptr noundef %1)
  call void @_ZN11xercesc_2_59XMLString9binToTextEiPtjjPNS_13MemoryManagerE(i32 noundef %52, ptr noundef nonnull %22, i32 noundef 64, i32 noundef 10, ptr noundef %1)
  %167 = call ptr @__cxa_allocate_exception(i64 48) #16
  invoke void @_ZN11xercesc_2_529InvalidDatatypeFacetExceptionC2EPKcjNS_10XMLExcepts5CodesEPKtS6_S6_S6_PNS_13MemoryManagerE(ptr noundef nonnull align 8 dereferenceable(48) %167, ptr noundef nonnull @.str, i32 noundef 571, i32 noundef 222, ptr noundef nonnull %21, ptr noundef nonnull %22, ptr noundef null, ptr noundef null, ptr noundef %1)
          to label %168 unwind label %169

168:                                              ; preds = %166
  call void @__cxa_throw(ptr nonnull %167, ptr nonnull @_ZTIN11xercesc_2_529InvalidDatatypeFacetExceptionE, ptr nonnull @_ZN11xercesc_2_512XMLExceptionD2Ev) #18
  unreachable

169:                                              ; preds = %166
  %170 = landingpad { ptr, i32 }
          cleanup
  call void @__cxa_free_exception(ptr %167) #16
  call void @llvm.lifetime.end.p0(i64 130, ptr nonnull %22) #16
  call void @llvm.lifetime.end.p0(i64 130, ptr nonnull %21) #16
  br label %203

171:                                              ; preds = %161
  %172 = icmp sgt i32 %46, %52
  br i1 %172, label %173, label %178

173:                                              ; preds = %171
  call void @llvm.lifetime.start.p0(i64 130, ptr nonnull %23) #16
  call void @llvm.lifetime.start.p0(i64 130, ptr nonnull %24) #16
  call void @_ZN11xercesc_2_59XMLString9binToTextEiPtjjPNS_13MemoryManagerE(i32 noundef %46, ptr noundef nonnull %23, i32 noundef 64, i32 noundef 10, ptr noundef %1)
  call void @_ZN11xercesc_2_59XMLString9binToTextEiPtjjPNS_13MemoryManagerE(i32 noundef %52, ptr noundef nonnull %24, i32 noundef 64, i32 noundef 10, ptr noundef %1)
  %174 = call ptr @__cxa_allocate_exception(i64 48) #16
  invoke void @_ZN11xercesc_2_529InvalidDatatypeFacetExceptionC2EPKcjNS_10XMLExcepts5CodesEPKtS6_S6_S6_PNS_13MemoryManagerE(ptr noundef nonnull align 8 dereferenceable(48) %174, ptr noundef nonnull @.str, i32 noundef 581, i32 noundef 168, ptr noundef nonnull %23, ptr noundef nonnull %24, ptr noundef null, ptr noundef null, ptr noundef %1)
          to label %175 unwind label %176

175:                                              ; preds = %173
  call void @__cxa_throw(ptr nonnull %174, ptr nonnull @_ZTIN11xercesc_2_529InvalidDatatypeFacetExceptionE, ptr nonnull @_ZN11xercesc_2_512XMLExceptionD2Ev) #18
  unreachable

176:                                              ; preds = %173
  %177 = landingpad { ptr, i32 }
          cleanup
  call void @__cxa_free_exception(ptr %174) #16
  call void @llvm.lifetime.end.p0(i64 130, ptr nonnull %24) #16
  call void @llvm.lifetime.end.p0(i64 130, ptr nonnull %23) #16
  br label %203

178:                                              ; preds = %164, %171, %158
  %179 = and i32 %28, 16
  %180 = icmp eq i32 %179, 0
  br i1 %180, label %237, label %181

181:                                              ; preds = %178
  %182 = getelementptr inbounds %"class.xercesc_2_5::AbstractStringValidator", ptr %0, i64 0, i32 5
  %183 = load ptr, ptr %182, align 8, !tbaa !112
  %184 = icmp eq ptr %183, null
  br i1 %184, label %237, label %185

185:                                              ; preds = %181
  %186 = getelementptr inbounds %"class.xercesc_2_5::BaseRefVectorOf", ptr %183, i64 0, i32 2
  %187 = load i32, ptr %186, align 4, !tbaa !146
  %188 = icmp sgt i32 %187, 0
  br i1 %188, label %189, label %237

189:                                              ; preds = %185
  %190 = zext i32 %187 to i64
  br label %191

191:                                              ; preds = %189, %227
  %192 = phi i64 [ 0, %189 ], [ %235, %227 ]
  %193 = load ptr, ptr %182, align 8, !tbaa !112
  %194 = getelementptr inbounds %"class.xercesc_2_5::BaseRefVectorOf", ptr %193, i64 0, i32 2
  %195 = load i32, ptr %194, align 4, !tbaa !146
  %196 = zext i32 %195 to i64
  %197 = icmp ult i64 %192, %196
  br i1 %197, label %207, label %198

198:                                              ; preds = %191
  %199 = tail call ptr @__cxa_allocate_exception(i64 48) #16
  %200 = getelementptr inbounds %"class.xercesc_2_5::BaseRefVectorOf", ptr %193, i64 0, i32 5
  %201 = load ptr, ptr %200, align 8, !tbaa !148
  invoke void @_ZN11xercesc_2_530ArrayIndexOutOfBoundsExceptionC2EPKcjNS_10XMLExcepts5CodesEPNS_13MemoryManagerE(ptr noundef nonnull align 8 dereferenceable(48) %199, ptr noundef nonnull @.str.3, i32 noundef 289, i32 noundef 109, ptr noundef %201)
          to label %202 unwind label %205

202:                                              ; preds = %198
  tail call void @__cxa_throw(ptr nonnull %199, ptr nonnull @_ZTIN11xercesc_2_530ArrayIndexOutOfBoundsExceptionE, ptr nonnull @_ZN11xercesc_2_512XMLExceptionD2Ev) #18
  unreachable

203:                                              ; preds = %65, %75, %90, %100, %110, %123, %138, %145, %156, %169, %176, %225, %205
  %204 = phi { ptr, i32 } [ %206, %205 ], [ %226, %225 ], [ %66, %65 ], [ %76, %75 ], [ %91, %90 ], [ %101, %100 ], [ %111, %110 ], [ %124, %123 ], [ %139, %138 ], [ %157, %156 ], [ %170, %169 ], [ %177, %176 ], [ %146, %145 ]
  resume { ptr, i32 } %204

205:                                              ; preds = %198
  %206 = landingpad { ptr, i32 }
          cleanup
  tail call void @__cxa_free_exception(ptr %199) #16
  br label %203

207:                                              ; preds = %191
  %208 = getelementptr inbounds %"class.xercesc_2_5::BaseRefVectorOf", ptr %193, i64 0, i32 4
  %209 = load ptr, ptr %208, align 8, !tbaa !149
  %210 = getelementptr inbounds ptr, ptr %209, i64 %192
  %211 = load ptr, ptr %210, align 8, !tbaa !129
  %212 = load ptr, ptr %26, align 8, !tbaa !96
  %213 = getelementptr inbounds ptr, ptr %212, i64 20
  %214 = load ptr, ptr %213, align 8
  tail call void %214(ptr noundef nonnull align 8 dereferenceable(128) %26, ptr noundef %211, ptr noundef null, i1 noundef zeroext false, ptr noundef %1)
  %215 = load ptr, ptr %182, align 8, !tbaa !112
  %216 = getelementptr inbounds %"class.xercesc_2_5::BaseRefVectorOf", ptr %215, i64 0, i32 2
  %217 = load i32, ptr %216, align 4, !tbaa !146
  %218 = zext i32 %217 to i64
  %219 = icmp ult i64 %192, %218
  br i1 %219, label %227, label %220

220:                                              ; preds = %207
  %221 = tail call ptr @__cxa_allocate_exception(i64 48) #16
  %222 = getelementptr inbounds %"class.xercesc_2_5::BaseRefVectorOf", ptr %215, i64 0, i32 5
  %223 = load ptr, ptr %222, align 8, !tbaa !148
  invoke void @_ZN11xercesc_2_530ArrayIndexOutOfBoundsExceptionC2EPKcjNS_10XMLExcepts5CodesEPNS_13MemoryManagerE(ptr noundef nonnull align 8 dereferenceable(48) %221, ptr noundef nonnull @.str.3, i32 noundef 289, i32 noundef 109, ptr noundef %223)
          to label %224 unwind label %225

224:                                              ; preds = %220
  tail call void @__cxa_throw(ptr nonnull %221, ptr nonnull @_ZTIN11xercesc_2_530ArrayIndexOutOfBoundsExceptionE, ptr nonnull @_ZN11xercesc_2_512XMLExceptionD2Ev) #18
  unreachable

225:                                              ; preds = %220
  %226 = landingpad { ptr, i32 }
          cleanup
  tail call void @__cxa_free_exception(ptr %221) #16
  br label %203

227:                                              ; preds = %207
  %228 = getelementptr inbounds %"class.xercesc_2_5::BaseRefVectorOf", ptr %215, i64 0, i32 4
  %229 = load ptr, ptr %228, align 8, !tbaa !149
  %230 = getelementptr inbounds ptr, ptr %229, i64 %192
  %231 = load ptr, ptr %230, align 8, !tbaa !129
  %232 = load ptr, ptr %0, align 8, !tbaa !96
  %233 = getelementptr inbounds ptr, ptr %232, i64 20
  %234 = load ptr, ptr %233, align 8
  tail call void %234(ptr noundef nonnull align 8 dereferenceable(128) %0, ptr noundef %231, ptr noundef null, i1 noundef zeroext false, ptr noundef %1)
  %235 = add nuw nsw i64 %192, 1
  %236 = icmp eq i64 %235, %190
  br i1 %236, label %237, label %191

237:                                              ; preds = %227, %185, %181, %178
  %238 = load ptr, ptr %0, align 8, !tbaa !96
  %239 = getelementptr inbounds ptr, ptr %238, i64 14
  %240 = load ptr, ptr %239, align 8
  tail call void %240(ptr noundef nonnull align 8 dereferenceable(128) %0, ptr noundef %1)
  br label %241

241:                                              ; preds = %30, %36, %237
  ret void
}

; Function Attrs: uwtable
define dso_local void @_ZN11xercesc_2_523AbstractStringValidator12inheritFacetEv(ptr noundef nonnull align 8 dereferenceable(128) %0) unnamed_addr #3 align 2 {
  %2 = getelementptr inbounds %"class.xercesc_2_5::DatatypeValidator", ptr %0, i64 0, i32 10
  %3 = load ptr, ptr %2, align 8, !tbaa !145
  %4 = icmp eq ptr %3, null
  br i1 %4, label %81, label %5

5:                                                ; preds = %1
  %6 = getelementptr inbounds %"class.xercesc_2_5::DatatypeValidator", ptr %0, i64 0, i32 6
  %7 = load i32, ptr %6, align 8, !tbaa !117
  %8 = getelementptr inbounds %"class.xercesc_2_5::DatatypeValidator", ptr %3, i64 0, i32 6
  %9 = load i32, ptr %8, align 8, !tbaa !117
  %10 = and i32 %9, 1
  %11 = icmp ne i32 %10, 0
  %12 = and i32 %7, 1
  %13 = icmp eq i32 %12, 0
  %14 = and i1 %13, %11
  br i1 %14, label %15, label %20

15:                                               ; preds = %5
  %16 = getelementptr inbounds %"class.xercesc_2_5::AbstractStringValidator", ptr %3, i64 0, i32 1
  %17 = load i32, ptr %16, align 8, !tbaa !113
  %18 = getelementptr inbounds %"class.xercesc_2_5::AbstractStringValidator", ptr %0, i64 0, i32 1
  store i32 %17, ptr %18, align 8, !tbaa !113
  %19 = or i32 %7, 1
  store i32 %19, ptr %6, align 8, !tbaa !117
  br label %20

20:                                               ; preds = %15, %5
  %21 = phi i32 [ %19, %15 ], [ %7, %5 ]
  %22 = and i32 %9, 2
  %23 = icmp ne i32 %22, 0
  %24 = and i32 %7, 2
  %25 = icmp eq i32 %24, 0
  %26 = and i1 %25, %23
  br i1 %26, label %27, label %32

27:                                               ; preds = %20
  %28 = getelementptr inbounds %"class.xercesc_2_5::AbstractStringValidator", ptr %3, i64 0, i32 3
  %29 = load i32, ptr %28, align 8, !tbaa !116
  %30 = getelementptr inbounds %"class.xercesc_2_5::AbstractStringValidator", ptr %0, i64 0, i32 3
  store i32 %29, ptr %30, align 8, !tbaa !116
  %31 = or i32 %21, 2
  store i32 %31, ptr %6, align 8, !tbaa !117
  br label %32

32:                                               ; preds = %27, %20
  %33 = phi i32 [ %31, %27 ], [ %21, %20 ]
  %34 = and i32 %9, 4
  %35 = icmp ne i32 %34, 0
  %36 = and i32 %7, 4
  %37 = icmp eq i32 %36, 0
  %38 = and i1 %37, %35
  br i1 %38, label %39, label %44

39:                                               ; preds = %32
  %40 = getelementptr inbounds %"class.xercesc_2_5::AbstractStringValidator", ptr %3, i64 0, i32 2
  %41 = load i32, ptr %40, align 4, !tbaa !115
  %42 = getelementptr inbounds %"class.xercesc_2_5::AbstractStringValidator", ptr %0, i64 0, i32 2
  store i32 %41, ptr %42, align 4, !tbaa !115
  %43 = or i32 %33, 4
  store i32 %43, ptr %6, align 8, !tbaa !117
  br label %44

44:                                               ; preds = %39, %32
  %45 = phi i32 [ %43, %39 ], [ %33, %32 ]
  %46 = and i32 %9, 16
  %47 = icmp ne i32 %46, 0
  %48 = and i32 %7, 16
  %49 = icmp eq i32 %48, 0
  %50 = and i1 %49, %47
  br i1 %50, label %51, label %72

51:                                               ; preds = %44
  %52 = getelementptr inbounds %"class.xercesc_2_5::AbstractStringValidator", ptr %3, i64 0, i32 5
  %53 = load ptr, ptr %52, align 8, !tbaa !112
  %54 = icmp eq ptr %53, null
  br i1 %54, label %72, label %55

55:                                               ; preds = %51
  %56 = getelementptr inbounds %"class.xercesc_2_5::AbstractStringValidator", ptr %0, i64 0, i32 4
  %57 = load i8, ptr %56, align 4, !tbaa !99, !range !110, !noundef !111
  %58 = icmp eq i8 %57, 0
  br i1 %58, label %59, label %68

59:                                               ; preds = %55
  %60 = getelementptr inbounds %"class.xercesc_2_5::AbstractStringValidator", ptr %0, i64 0, i32 5
  %61 = load ptr, ptr %60, align 8, !tbaa !112
  %62 = icmp eq ptr %61, null
  br i1 %62, label %68, label %63

63:                                               ; preds = %59
  %64 = load ptr, ptr %61, align 8, !tbaa !96
  %65 = getelementptr inbounds ptr, ptr %64, i64 1
  %66 = load ptr, ptr %65, align 8
  tail call void %66(ptr noundef nonnull align 8 dereferenceable(40) %61)
  %67 = load i32, ptr %6, align 8, !tbaa !117
  br label %68

68:                                               ; preds = %63, %59, %55
  %69 = phi i32 [ %67, %63 ], [ %45, %59 ], [ %45, %55 ]
  %70 = getelementptr inbounds %"class.xercesc_2_5::AbstractStringValidator", ptr %0, i64 0, i32 5
  store ptr %53, ptr %70, align 8, !tbaa !112
  store i8 1, ptr %56, align 4, !tbaa !99
  %71 = or i32 %69, 16
  store i32 %71, ptr %6, align 8, !tbaa !117
  br label %72

72:                                               ; preds = %68, %51, %44
  %73 = getelementptr inbounds %"class.xercesc_2_5::DatatypeValidator", ptr %0, i64 0, i32 7
  %74 = load i32, ptr %73, align 4, !tbaa !137
  %75 = getelementptr inbounds %"class.xercesc_2_5::DatatypeValidator", ptr %3, i64 0, i32 7
  %76 = load i32, ptr %75, align 4, !tbaa !137
  %77 = or i32 %76, %74
  store i32 %77, ptr %73, align 4, !tbaa !137
  %78 = load ptr, ptr %0, align 8, !tbaa !96
  %79 = getelementptr inbounds ptr, ptr %78, i64 13
  %80 = load ptr, ptr %79, align 8
  tail call void %80(ptr noundef nonnull align 8 dereferenceable(128) %0)
  br label %81

81:                                               ; preds = %1, %72
  ret void
}

; Function Attrs: uwtable
define dso_local noundef i32 @_ZN11xercesc_2_523AbstractStringValidator7compareEPKtS2_PNS_13MemoryManagerE(ptr nocapture nonnull readnone align 8 %0, ptr noundef %1, ptr noundef %2, ptr nocapture readnone %3) unnamed_addr #3 align 2 {
  %5 = tail call noundef i32 @_ZN11xercesc_2_59XMLString13compareStringEPKtS2_(ptr noundef %1, ptr noundef %2)
  ret i32 %5
}

declare noundef i32 @_ZN11xercesc_2_59XMLString13compareStringEPKtS2_(ptr noundef, ptr noundef) local_unnamed_addr #1

; Function Attrs: uwtable
define dso_local void @_ZN11xercesc_2_523AbstractStringValidator8validateEPKtPNS_17ValidationContextEPNS_13MemoryManagerE(ptr noundef nonnull align 8 dereferenceable(128) %0, ptr noundef %1, ptr noundef %2, ptr noundef %3) unnamed_addr #3 align 2 {
  %5 = load ptr, ptr %0, align 8, !tbaa !96
  %6 = getelementptr inbounds ptr, ptr %5, i64 20
  %7 = load ptr, ptr %6, align 8
  tail call void %7(ptr noundef nonnull align 8 dereferenceable(128) %0, ptr noundef %1, ptr noundef %2, i1 noundef zeroext false, ptr noundef %3)
  ret void
}

; Function Attrs: uwtable
define dso_local void @_ZN11xercesc_2_523AbstractStringValidator12checkContentEPKtPNS_17ValidationContextEbPNS_13MemoryManagerE(ptr noundef nonnull align 8 dereferenceable(128) %0, ptr noundef %1, ptr noundef %2, i1 noundef zeroext %3, ptr noundef %4) unnamed_addr #3 align 2 personality ptr @__gxx_personality_v0 {
  %6 = alloca [65 x i16], align 16
  %7 = alloca [65 x i16], align 16
  %8 = alloca [65 x i16], align 16
  %9 = alloca [65 x i16], align 16
  %10 = alloca [65 x i16], align 16
  %11 = alloca [65 x i16], align 16
  %12 = alloca %"class.xercesc_2_5::ArrayJanitor", align 8
  %13 = getelementptr inbounds %"class.xercesc_2_5::DatatypeValidator", ptr %0, i64 0, i32 10
  %14 = load ptr, ptr %13, align 8, !tbaa !145
  %15 = icmp eq ptr %14, null
  br i1 %15, label %20, label %16

16:                                               ; preds = %5
  %17 = load ptr, ptr %14, align 8, !tbaa !96
  %18 = getelementptr inbounds ptr, ptr %17, i64 20
  %19 = load ptr, ptr %18, align 8
  tail call void %19(ptr noundef nonnull align 8 dereferenceable(128) %14, ptr noundef %1, ptr noundef %2, i1 noundef zeroext true, ptr noundef %4)
  br label %20

20:                                               ; preds = %16, %5
  %21 = getelementptr inbounds %"class.xercesc_2_5::DatatypeValidator", ptr %0, i64 0, i32 6
  %22 = load i32, ptr %21, align 8, !tbaa !117
  %23 = and i32 %22, 8
  %24 = icmp eq i32 %23, 0
  br i1 %24, label %71, label %25

25:                                               ; preds = %20
  %26 = getelementptr inbounds %"class.xercesc_2_5::DatatypeValidator", ptr %0, i64 0, i32 13
  %27 = load ptr, ptr %26, align 8, !tbaa !150
  %28 = icmp eq ptr %27, null
  br i1 %28, label %29, label %61

29:                                               ; preds = %25
  %30 = getelementptr inbounds %"class.xercesc_2_5::DatatypeValidator", ptr %0, i64 0, i32 1
  %31 = load ptr, ptr %30, align 8, !tbaa !136
  %32 = invoke noundef ptr @_ZN11xercesc_2_57XMemorynwEmPNS_13MemoryManagerE(i64 noundef 112, ptr noundef %31)
          to label %33 unwind label %38

33:                                               ; preds = %29
  %34 = getelementptr inbounds %"class.xercesc_2_5::DatatypeValidator", ptr %0, i64 0, i32 12
  %35 = load ptr, ptr %34, align 8, !tbaa !135
  %36 = load ptr, ptr %30, align 8, !tbaa !136
  invoke void @_ZN11xercesc_2_517RegularExpressionC1EPKtS2_PNS_13MemoryManagerE(ptr noundef nonnull align 8 dereferenceable(112) %32, ptr noundef %35, ptr noundef nonnull @_ZN11xercesc_2_513SchemaSymbols15fgRegEx_XOptionE, ptr noundef %36)
          to label %37 unwind label %40

37:                                               ; preds = %33
  store ptr %32, ptr %26, align 8, !tbaa !150
  br label %61

38:                                               ; preds = %29
  %39 = landingpad { ptr, i32 }
          cleanup
          catch ptr @_ZTIN11xercesc_2_512XMLExceptionE
  br label %42

40:                                               ; preds = %33
  %41 = landingpad { ptr, i32 }
          cleanup
          catch ptr @_ZTIN11xercesc_2_512XMLExceptionE
  invoke void @_ZN11xercesc_2_57XMemorydlEPvPNS_13MemoryManagerE(ptr noundef %32, ptr noundef %31)
          to label %42 unwind label %238

42:                                               ; preds = %40, %38
  %43 = phi { ptr, i32 } [ %41, %40 ], [ %39, %38 ]
  %44 = extractvalue { ptr, i32 } %43, 1
  %45 = tail call i32 @llvm.eh.typeid.for(ptr nonnull @_ZTIN11xercesc_2_512XMLExceptionE) #16
  %46 = icmp eq i32 %44, %45
  br i1 %46, label %47, label %236

47:                                               ; preds = %42
  %48 = extractvalue { ptr, i32 } %43, 0
  %49 = tail call ptr @__cxa_begin_catch(ptr %48) #16
  %50 = tail call ptr @__cxa_allocate_exception(i64 48) #16
  %51 = getelementptr inbounds %"class.xercesc_2_5::XMLException", ptr %49, i64 0, i32 4
  %52 = load ptr, ptr %51, align 8, !tbaa !151
  %53 = load ptr, ptr %30, align 8, !tbaa !136
  invoke void @_ZN11xercesc_2_529InvalidDatatypeValueExceptionC2EPKcjNS_10XMLExcepts5CodesEPKtS6_S6_S6_PNS_13MemoryManagerE(ptr noundef nonnull align 8 dereferenceable(48) %50, ptr noundef nonnull @.str, i32 noundef 713, i32 noundef 292, ptr noundef %52, ptr noundef null, ptr noundef null, ptr noundef null, ptr noundef %53)
          to label %54 unwind label %55

54:                                               ; preds = %47
  invoke void @__cxa_throw(ptr nonnull %50, ptr nonnull @_ZTIN11xercesc_2_529InvalidDatatypeValueExceptionE, ptr nonnull @_ZN11xercesc_2_512XMLExceptionD2Ev) #18
          to label %241 unwind label %57

55:                                               ; preds = %47
  %56 = landingpad { ptr, i32 }
          cleanup
  tail call void @__cxa_free_exception(ptr %50) #16
  br label %59

57:                                               ; preds = %54
  %58 = landingpad { ptr, i32 }
          cleanup
  br label %59

59:                                               ; preds = %57, %55
  %60 = phi { ptr, i32 } [ %58, %57 ], [ %56, %55 ]
  invoke void @__cxa_end_catch()
          to label %236 unwind label %238

61:                                               ; preds = %37, %25
  %62 = phi ptr [ %32, %37 ], [ %27, %25 ]
  %63 = tail call noundef zeroext i1 @_ZN11xercesc_2_517RegularExpression7matchesEPKtPNS_13MemoryManagerE(ptr noundef nonnull align 8 dereferenceable(112) %62, ptr noundef %1, ptr noundef %4)
  br i1 %63, label %71, label %64

64:                                               ; preds = %61
  %65 = tail call ptr @__cxa_allocate_exception(i64 48) #16
  %66 = getelementptr inbounds %"class.xercesc_2_5::DatatypeValidator", ptr %0, i64 0, i32 12
  %67 = load ptr, ptr %66, align 8, !tbaa !135
  invoke void @_ZN11xercesc_2_529InvalidDatatypeValueExceptionC2EPKcjNS_10XMLExcepts5CodesEPKtS6_S6_S6_PNS_13MemoryManagerE(ptr noundef nonnull align 8 dereferenceable(48) %65, ptr noundef nonnull @.str, i32 noundef 723, i32 noundef 231, ptr noundef %1, ptr noundef %67, ptr noundef null, ptr noundef null, ptr noundef %4)
          to label %68 unwind label %69

68:                                               ; preds = %64
  tail call void @__cxa_throw(ptr nonnull %65, ptr nonnull @_ZTIN11xercesc_2_529InvalidDatatypeValueExceptionE, ptr nonnull @_ZN11xercesc_2_512XMLExceptionD2Ev) #18
  unreachable

69:                                               ; preds = %64
  %70 = landingpad { ptr, i32 }
          cleanup
  tail call void @__cxa_free_exception(ptr %65) #16
  br label %236

71:                                               ; preds = %61, %20
  br i1 %3, label %235, label %72

72:                                               ; preds = %71
  %73 = load ptr, ptr %0, align 8, !tbaa !96
  %74 = getelementptr inbounds ptr, ptr %73, i64 17
  %75 = load ptr, ptr %74, align 8
  tail call void %75(ptr noundef nonnull align 8 dereferenceable(128) %0, ptr noundef %1, ptr noundef %4)
  %76 = load ptr, ptr %0, align 8, !tbaa !96
  %77 = getelementptr inbounds ptr, ptr %76, i64 16
  %78 = load ptr, ptr %77, align 8
  %79 = tail call noundef i32 %78(ptr noundef nonnull align 8 dereferenceable(128) %0, ptr noundef %1, ptr noundef %4)
  %80 = and i32 %22, 4
  %81 = icmp eq i32 %80, 0
  br i1 %81, label %92, label %82

82:                                               ; preds = %72
  %83 = getelementptr inbounds %"class.xercesc_2_5::AbstractStringValidator", ptr %0, i64 0, i32 2
  %84 = load i32, ptr %83, align 4, !tbaa !115
  %85 = icmp ugt i32 %79, %84
  br i1 %85, label %86, label %92

86:                                               ; preds = %82
  call void @llvm.lifetime.start.p0(i64 130, ptr nonnull %6) #16
  call void @llvm.lifetime.start.p0(i64 130, ptr nonnull %7) #16
  call void @_ZN11xercesc_2_59XMLString9binToTextEjPtjjPNS_13MemoryManagerE(i32 noundef %79, ptr noundef nonnull %6, i32 noundef 64, i32 noundef 10, ptr noundef %4)
  %87 = load i32, ptr %83, align 4, !tbaa !115
  call void @_ZN11xercesc_2_59XMLString9binToTextEjPtjjPNS_13MemoryManagerE(i32 noundef %87, ptr noundef nonnull %7, i32 noundef 64, i32 noundef 10, ptr noundef %4)
  %88 = call ptr @__cxa_allocate_exception(i64 48) #16
  invoke void @_ZN11xercesc_2_529InvalidDatatypeValueExceptionC2EPKcjNS_10XMLExcepts5CodesEPKtS6_S6_S6_PNS_13MemoryManagerE(ptr noundef nonnull align 8 dereferenceable(48) %88, ptr noundef nonnull @.str, i32 noundef 742, i32 noundef 234, ptr noundef %1, ptr noundef nonnull %6, ptr noundef nonnull %7, ptr noundef null, ptr noundef %4)
          to label %89 unwind label %90

89:                                               ; preds = %86
  call void @__cxa_throw(ptr nonnull %88, ptr nonnull @_ZTIN11xercesc_2_529InvalidDatatypeValueExceptionE, ptr nonnull @_ZN11xercesc_2_512XMLExceptionD2Ev) #18
  unreachable

90:                                               ; preds = %86
  %91 = landingpad { ptr, i32 }
          cleanup
  call void @__cxa_free_exception(ptr %88) #16
  call void @llvm.lifetime.end.p0(i64 130, ptr nonnull %7) #16
  call void @llvm.lifetime.end.p0(i64 130, ptr nonnull %6) #16
  br label %236

92:                                               ; preds = %82, %72
  %93 = and i32 %22, 2
  %94 = icmp eq i32 %93, 0
  br i1 %94, label %105, label %95

95:                                               ; preds = %92
  %96 = getelementptr inbounds %"class.xercesc_2_5::AbstractStringValidator", ptr %0, i64 0, i32 3
  %97 = load i32, ptr %96, align 8, !tbaa !116
  %98 = icmp ult i32 %79, %97
  br i1 %98, label %99, label %105

99:                                               ; preds = %95
  call void @llvm.lifetime.start.p0(i64 130, ptr nonnull %8) #16
  call void @llvm.lifetime.start.p0(i64 130, ptr nonnull %9) #16
  call void @_ZN11xercesc_2_59XMLString9binToTextEjPtjjPNS_13MemoryManagerE(i32 noundef %79, ptr noundef nonnull %8, i32 noundef 64, i32 noundef 10, ptr noundef %4)
  %100 = load i32, ptr %96, align 8, !tbaa !116
  call void @_ZN11xercesc_2_59XMLString9binToTextEjPtjjPNS_13MemoryManagerE(i32 noundef %100, ptr noundef nonnull %9, i32 noundef 64, i32 noundef 10, ptr noundef %4)
  %101 = call ptr @__cxa_allocate_exception(i64 48) #16
  invoke void @_ZN11xercesc_2_529InvalidDatatypeValueExceptionC2EPKcjNS_10XMLExcepts5CodesEPKtS6_S6_S6_PNS_13MemoryManagerE(ptr noundef nonnull align 8 dereferenceable(48) %101, ptr noundef nonnull @.str, i32 noundef 752, i32 noundef 235, ptr noundef %1, ptr noundef nonnull %8, ptr noundef nonnull %9, ptr noundef null, ptr noundef %4)
          to label %102 unwind label %103

102:                                              ; preds = %99
  call void @__cxa_throw(ptr nonnull %101, ptr nonnull @_ZTIN11xercesc_2_529InvalidDatatypeValueExceptionE, ptr nonnull @_ZN11xercesc_2_512XMLExceptionD2Ev) #18
  unreachable

103:                                              ; preds = %99
  %104 = landingpad { ptr, i32 }
          cleanup
  call void @__cxa_free_exception(ptr %101) #16
  call void @llvm.lifetime.end.p0(i64 130, ptr nonnull %9) #16
  call void @llvm.lifetime.end.p0(i64 130, ptr nonnull %8) #16
  br label %236

105:                                              ; preds = %95, %92
  %106 = and i32 %22, 1
  %107 = icmp eq i32 %106, 0
  br i1 %107, label %118, label %108

108:                                              ; preds = %105
  %109 = getelementptr inbounds %"class.xercesc_2_5::AbstractStringValidator", ptr %0, i64 0, i32 1
  %110 = load i32, ptr %109, align 8, !tbaa !113
  %111 = icmp eq i32 %79, %110
  br i1 %111, label %118, label %112

112:                                              ; preds = %108
  call void @llvm.lifetime.start.p0(i64 130, ptr nonnull %10) #16
  call void @llvm.lifetime.start.p0(i64 130, ptr nonnull %11) #16
  call void @_ZN11xercesc_2_59XMLString9binToTextEjPtjjPNS_13MemoryManagerE(i32 noundef %79, ptr noundef nonnull %10, i32 noundef 64, i32 noundef 10, ptr noundef %4)
  %113 = load i32, ptr %109, align 8, !tbaa !113
  call void @_ZN11xercesc_2_59XMLString9binToTextEjPtjjPNS_13MemoryManagerE(i32 noundef %113, ptr noundef nonnull %11, i32 noundef 64, i32 noundef 10, ptr noundef %4)
  %114 = call ptr @__cxa_allocate_exception(i64 48) #16
  invoke void @_ZN11xercesc_2_529InvalidDatatypeValueExceptionC2EPKcjNS_10XMLExcepts5CodesEPKtS6_S6_S6_PNS_13MemoryManagerE(ptr noundef nonnull align 8 dereferenceable(48) %114, ptr noundef nonnull @.str, i32 noundef 762, i32 noundef 236, ptr noundef %1, ptr noundef nonnull %10, ptr noundef nonnull %11, ptr noundef null, ptr noundef %4)
          to label %115 unwind label %116

115:                                              ; preds = %112
  call void @__cxa_throw(ptr nonnull %114, ptr nonnull @_ZTIN11xercesc_2_529InvalidDatatypeValueExceptionE, ptr nonnull @_ZN11xercesc_2_512XMLExceptionD2Ev) #18
  unreachable

116:                                              ; preds = %112
  %117 = landingpad { ptr, i32 }
          cleanup
  call void @__cxa_free_exception(ptr %114) #16
  call void @llvm.lifetime.end.p0(i64 130, ptr nonnull %11) #16
  call void @llvm.lifetime.end.p0(i64 130, ptr nonnull %10) #16
  br label %236

118:                                              ; preds = %108, %105
  %119 = and i32 %22, 16
  %120 = icmp eq i32 %119, 0
  br i1 %120, label %231, label %121

121:                                              ; preds = %118
  %122 = getelementptr inbounds %"class.xercesc_2_5::AbstractStringValidator", ptr %0, i64 0, i32 5
  %123 = load ptr, ptr %122, align 8, !tbaa !112
  %124 = icmp eq ptr %123, null
  br i1 %124, label %231, label %125

125:                                              ; preds = %121
  %126 = icmp eq ptr %1, null
  br i1 %126, label %147, label %127

127:                                              ; preds = %125
  %128 = load i16, ptr %1, align 2, !tbaa !134
  %129 = icmp eq i16 %128, 0
  br i1 %129, label %141, label %130

130:                                              ; preds = %127, %130
  %131 = phi ptr [ %132, %130 ], [ %1, %127 ]
  %132 = getelementptr inbounds i16, ptr %131, i64 1
  %133 = load i16, ptr %132, align 2, !tbaa !134
  %134 = icmp eq i16 %133, 0
  br i1 %134, label %135, label %130

135:                                              ; preds = %130
  %136 = ptrtoint ptr %132 to i64
  %137 = ptrtoint ptr %1 to i64
  %138 = sub i64 %136, %137
  %139 = add i64 %138, 2
  %140 = and i64 %139, 8589934590
  br label %141

141:                                              ; preds = %135, %127
  %142 = phi i64 [ %140, %135 ], [ 2, %127 ]
  %143 = load ptr, ptr %4, align 8, !tbaa !96
  %144 = getelementptr inbounds ptr, ptr %143, i64 2
  %145 = load ptr, ptr %144, align 8
  %146 = tail call noundef ptr %145(ptr noundef nonnull align 8 dereferenceable(8) %4, i64 noundef %142)
  tail call void @llvm.memcpy.p0.p0.i64(ptr align 2 %146, ptr nonnull align 2 %1, i64 %142, i1 false)
  br label %147

147:                                              ; preds = %125, %141
  %148 = phi ptr [ %146, %141 ], [ null, %125 ]
  call void @llvm.lifetime.start.p0(i64 16, ptr nonnull %12) #16
  store ptr %148, ptr %12, align 8, !tbaa !154
  %149 = getelementptr inbounds %"class.xercesc_2_5::ArrayJanitor", ptr %12, i64 0, i32 1
  store ptr %4, ptr %149, align 8, !tbaa !156
  %150 = load ptr, ptr %0, align 8, !tbaa !96
  %151 = getelementptr inbounds ptr, ptr %150, i64 22
  %152 = load ptr, ptr %151, align 8
  invoke void %152(ptr noundef nonnull align 8 dereferenceable(128) %0, ptr noundef %148, ptr noundef %4)
          to label %153 unwind label %199

153:                                              ; preds = %147
  %154 = load ptr, ptr %122, align 8, !tbaa !112
  %155 = getelementptr inbounds %"class.xercesc_2_5::BaseRefVectorOf", ptr %154, i64 0, i32 2
  %156 = load i32, ptr %155, align 4, !tbaa !146
  %157 = icmp sgt i32 %156, 0
  br i1 %157, label %158, label %210

158:                                              ; preds = %153
  %159 = getelementptr inbounds %"class.xercesc_2_5::BaseRefVectorOf", ptr %154, i64 0, i32 4
  %160 = icmp eq ptr %148, null
  %161 = zext i32 %156 to i64
  %162 = load ptr, ptr %159, align 8, !tbaa !149
  br i1 %160, label %166, label %163

163:                                              ; preds = %158
  %164 = load i16, ptr %148, align 2, !tbaa !134
  %165 = icmp eq i16 %164, 0
  br label %177

166:                                              ; preds = %158, %174
  %167 = phi i64 [ %175, %174 ], [ 0, %158 ]
  %168 = getelementptr inbounds ptr, ptr %162, i64 %167
  %169 = load ptr, ptr %168, align 8, !tbaa !129
  %170 = icmp eq ptr %169, null
  br i1 %170, label %208, label %171

171:                                              ; preds = %166
  %172 = load i16, ptr %169, align 2, !tbaa !134
  %173 = icmp eq i16 %172, 0
  br i1 %173, label %208, label %174

174:                                              ; preds = %171
  %175 = add nuw nsw i64 %167, 1
  %176 = icmp eq i64 %175, %161
  br i1 %176, label %213, label %166

177:                                              ; preds = %163, %203
  %178 = phi i64 [ %204, %203 ], [ 0, %163 ]
  %179 = getelementptr inbounds ptr, ptr %162, i64 %178
  %180 = load ptr, ptr %179, align 8, !tbaa !129
  %181 = icmp eq ptr %180, null
  br i1 %181, label %185, label %182

182:                                              ; preds = %177
  %183 = load i16, ptr %180, align 2, !tbaa !134
  %184 = icmp eq i16 %164, %183
  br i1 %184, label %188, label %203

185:                                              ; preds = %177
  br i1 %165, label %186, label %203

186:                                              ; preds = %185
  %187 = trunc i64 %178 to i32
  br label %210

188:                                              ; preds = %182, %193
  %189 = phi i16 [ %196, %193 ], [ %164, %182 ]
  %190 = phi ptr [ %195, %193 ], [ %180, %182 ]
  %191 = phi ptr [ %194, %193 ], [ %148, %182 ]
  %192 = icmp eq i16 %189, 0
  br i1 %192, label %206, label %193

193:                                              ; preds = %188
  %194 = getelementptr inbounds i16, ptr %191, i64 1
  %195 = getelementptr inbounds i16, ptr %190, i64 1
  %196 = load i16, ptr %194, align 2, !tbaa !134
  %197 = load i16, ptr %195, align 2, !tbaa !134
  %198 = icmp eq i16 %196, %197
  br i1 %198, label %188, label %203

199:                                              ; preds = %147
  %200 = landingpad { ptr, i32 }
          cleanup
  br label %228

201:                                              ; preds = %215
  %202 = landingpad { ptr, i32 }
          cleanup
  br label %228

203:                                              ; preds = %193, %185, %182
  %204 = add nuw nsw i64 %178, 1
  %205 = icmp eq i64 %204, %161
  br i1 %205, label %213, label %177

206:                                              ; preds = %188
  %207 = trunc i64 %178 to i32
  br label %210

208:                                              ; preds = %166, %171
  %209 = trunc i64 %167 to i32
  br label %210

210:                                              ; preds = %208, %186, %206, %153
  %211 = phi i32 [ 0, %153 ], [ %207, %206 ], [ %187, %186 ], [ %209, %208 ]
  %212 = icmp eq i32 %211, %156
  br i1 %212, label %213, label %218

213:                                              ; preds = %203, %174, %210
  %214 = tail call ptr @__cxa_allocate_exception(i64 48) #16
  invoke void @_ZN11xercesc_2_529InvalidDatatypeValueExceptionC2EPKcjNS_10XMLExcepts5CodesEPKtS6_S6_S6_PNS_13MemoryManagerE(ptr noundef nonnull align 8 dereferenceable(48) %214, ptr noundef nonnull @.str, i32 noundef 781, i32 noundef 237, ptr noundef %1, ptr noundef null, ptr noundef null, ptr noundef null, ptr noundef %4)
          to label %215 unwind label %216

215:                                              ; preds = %213
  invoke void @__cxa_throw(ptr nonnull %214, ptr nonnull @_ZTIN11xercesc_2_529InvalidDatatypeValueExceptionE, ptr nonnull @_ZN11xercesc_2_512XMLExceptionD2Ev) #18
          to label %241 unwind label %201

216:                                              ; preds = %213
  %217 = landingpad { ptr, i32 }
          cleanup
  tail call void @__cxa_free_exception(ptr %214) #16
  br label %228

218:                                              ; preds = %210
  %219 = icmp eq ptr %148, null
  br i1 %219, label %227, label %220

220:                                              ; preds = %218
  %221 = icmp eq ptr %4, null
  br i1 %221, label %226, label %222

222:                                              ; preds = %220
  %223 = load ptr, ptr %4, align 8, !tbaa !96
  %224 = getelementptr inbounds ptr, ptr %223, i64 3
  %225 = load ptr, ptr %224, align 8
  tail call void %225(ptr noundef nonnull align 8 dereferenceable(8) %4, ptr noundef nonnull %148)
  br label %227

226:                                              ; preds = %220
  tail call void @_ZdaPv(ptr noundef nonnull %148) #19
  br label %227

227:                                              ; preds = %218, %222, %226
  call void @llvm.lifetime.end.p0(i64 16, ptr nonnull %12) #16
  br label %231

228:                                              ; preds = %201, %216, %199
  %229 = phi { ptr, i32 } [ %200, %199 ], [ %217, %216 ], [ %202, %201 ]
  invoke void @_ZN11xercesc_2_512ArrayJanitorItED2Ev(ptr noundef nonnull align 8 dereferenceable(16) %12)
          to label %230 unwind label %238

230:                                              ; preds = %228
  call void @llvm.lifetime.end.p0(i64 16, ptr nonnull %12) #16
  br label %236

231:                                              ; preds = %227, %121, %118
  %232 = load ptr, ptr %0, align 8, !tbaa !96
  %233 = getelementptr inbounds ptr, ptr %232, i64 15
  %234 = load ptr, ptr %233, align 8
  tail call void %234(ptr noundef nonnull align 8 dereferenceable(128) %0, ptr noundef %1, ptr noundef %4)
  br label %235

235:                                              ; preds = %71, %231
  ret void

236:                                              ; preds = %90, %103, %116, %230, %59, %69, %42
  %237 = phi { ptr, i32 } [ %70, %69 ], [ %43, %42 ], [ %60, %59 ], [ %91, %90 ], [ %104, %103 ], [ %117, %116 ], [ %229, %230 ]
  resume { ptr, i32 } %237

238:                                              ; preds = %228, %59, %40
  %239 = landingpad { ptr, i32 }
          catch ptr null
  %240 = extractvalue { ptr, i32 } %239, 0
  call void @__clang_call_terminate(ptr %240) #17
  unreachable

241:                                              ; preds = %215, %54
  unreachable
}

declare noundef ptr @_ZN11xercesc_2_57XMemorynwEmPNS_13MemoryManagerE(i64 noundef, ptr noundef) local_unnamed_addr #1

declare void @_ZN11xercesc_2_517RegularExpressionC1EPKtS2_PNS_13MemoryManagerE(ptr noundef nonnull align 8 dereferenceable(112), ptr noundef, ptr noundef, ptr noundef) unnamed_addr #1

declare void @_ZN11xercesc_2_57XMemorydlEPvPNS_13MemoryManagerE(ptr noundef, ptr noundef) local_unnamed_addr #1

; Function Attrs: uwtable
define linkonce_odr dso_local void @_ZN11xercesc_2_529InvalidDatatypeValueExceptionC2EPKcjNS_10XMLExcepts5CodesEPKtS6_S6_S6_PNS_13MemoryManagerE(ptr noundef nonnull align 8 dereferenceable(48) %0, ptr noundef %1, i32 noundef %2, i32 noundef %3, ptr noundef %4, ptr noundef %5, ptr noundef %6, ptr noundef %7, ptr noundef %8) unnamed_addr #3 comdat align 2 personality ptr @__gxx_personality_v0 {
  tail call void @_ZN11xercesc_2_512XMLExceptionC2EPKcjPNS_13MemoryManagerE(ptr noundef nonnull align 8 dereferenceable(48) %0, ptr noundef %1, i32 noundef %2, ptr noundef %8)
  store ptr getelementptr inbounds ({ [6 x ptr] }, ptr @_ZTVN11xercesc_2_529InvalidDatatypeValueExceptionE, i64 0, inrange i32 0, i64 2), ptr %0, align 8, !tbaa !96
  invoke void @_ZN11xercesc_2_512XMLException14loadExceptTextENS_10XMLExcepts5CodesEPKtS4_S4_S4_(ptr noundef nonnull align 8 dereferenceable(48) %0, i32 noundef %3, ptr noundef %4, ptr noundef %5, ptr noundef %6, ptr noundef %7)
          to label %10 unwind label %11

10:                                               ; preds = %9
  ret void

11:                                               ; preds = %9
  %12 = landingpad { ptr, i32 }
          cleanup
  invoke void @_ZN11xercesc_2_512XMLExceptionD2Ev(ptr noundef nonnull align 8 dereferenceable(48) %0)
          to label %13 unwind label %14

13:                                               ; preds = %11
  resume { ptr, i32 } %12

14:                                               ; preds = %11
  %15 = landingpad { ptr, i32 }
          catch ptr null
  %16 = extractvalue { ptr, i32 } %15, 0
  tail call void @__clang_call_terminate(ptr %16) #17
  unreachable
}

declare noundef zeroext i1 @_ZN11xercesc_2_517RegularExpression7matchesEPKtPNS_13MemoryManagerE(ptr noundef nonnull align 8 dereferenceable(112), ptr noundef, ptr noundef) local_unnamed_addr #1

declare void @_ZN11xercesc_2_59XMLString9binToTextEjPtjjPNS_13MemoryManagerE(i32 noundef, ptr noundef, i32 noundef, i32 noundef, ptr noundef) local_unnamed_addr #1

; Function Attrs: uwtable
define linkonce_odr dso_local void @_ZN11xercesc_2_512ArrayJanitorItED2Ev(ptr noundef nonnull align 8 dereferenceable(16) %0) unnamed_addr #3 comdat align 2 {
  %2 = load ptr, ptr %0, align 8, !tbaa !154
  %3 = icmp eq ptr %2, null
  br i1 %3, label %13, label %4

4:                                                ; preds = %1
  %5 = getelementptr inbounds %"class.xercesc_2_5::ArrayJanitor", ptr %0, i64 0, i32 1
  %6 = load ptr, ptr %5, align 8, !tbaa !156
  %7 = icmp eq ptr %6, null
  br i1 %7, label %12, label %8

8:                                                ; preds = %4
  %9 = load ptr, ptr %6, align 8, !tbaa !96
  %10 = getelementptr inbounds ptr, ptr %9, i64 3
  %11 = load ptr, ptr %10, align 8
  tail call void %11(ptr noundef nonnull align 8 dereferenceable(8) %6, ptr noundef nonnull %2)
  br label %13

12:                                               ; preds = %4
  tail call void @_ZdaPv(ptr noundef nonnull %2) #19
  br label %13

13:                                               ; preds = %1, %8, %12
  tail call void @llvm.memset.p0.i64(ptr noundef nonnull align 8 dereferenceable(16) %0, i8 0, i64 16, i1 false)
  ret void
}

; Function Attrs: mustprogress nofree norecurse nosync nounwind willreturn memory(argmem: read) uwtable
define dso_local noundef ptr @_ZNK11xercesc_2_523AbstractStringValidator13getEnumStringEv(ptr nocapture noundef nonnull readonly align 8 dereferenceable(128) %0) unnamed_addr #8 align 2 {
  %2 = getelementptr inbounds %"class.xercesc_2_5::AbstractStringValidator", ptr %0, i64 0, i32 5
  %3 = load ptr, ptr %2, align 8, !tbaa !112
  ret ptr %3
}

; Function Attrs: mustprogress nofree norecurse nosync nounwind willreturn memory(none) uwtable
define dso_local void @_ZN11xercesc_2_523AbstractStringValidator20normalizeEnumerationEPNS_13MemoryManagerE(ptr nocapture nonnull align 8 %0, ptr nocapture %1) unnamed_addr #9 align 2 {
  ret void
}

; Function Attrs: mustprogress nofree norecurse nosync nounwind willreturn memory(none) uwtable
define dso_local void @_ZNK11xercesc_2_523AbstractStringValidator16normalizeContentEPtPNS_13MemoryManagerE(ptr nocapture nonnull align 8 %0, ptr nocapture %1, ptr nocapture %2) unnamed_addr #9 align 2 {
  ret void
}

; Function Attrs: mustprogress nofree norecurse nosync nounwind willreturn memory(none) uwtable
define dso_local void @_ZNK11xercesc_2_523AbstractStringValidator31checkAdditionalFacetConstraintsEPNS_13MemoryManagerE(ptr nocapture nonnull align 8 %0, ptr nocapture %1) unnamed_addr #9 align 2 {
  ret void
}

; Function Attrs: mustprogress nofree norecurse nosync nounwind willreturn memory(none) uwtable
define dso_local void @_ZNK11xercesc_2_523AbstractStringValidator20checkAdditionalFacetEPKtPNS_13MemoryManagerE(ptr nocapture nonnull align 8 %0, ptr nocapture %1, ptr nocapture %2) unnamed_addr #9 align 2 {
  ret void
}

; Function Attrs: mustprogress nofree norecurse nosync nounwind willreturn memory(none) uwtable
define dso_local void @_ZN11xercesc_2_523AbstractStringValidator22inheritAdditionalFacetEv(ptr nocapture nonnull align 8 %0) unnamed_addr #9 align 2 {
  ret void
}

; Function Attrs: noreturn uwtable
define dso_local void @_ZN11xercesc_2_523AbstractStringValidator21assignAdditionalFacetEPKtS2_PNS_13MemoryManagerE(ptr nocapture nonnull readnone align 8 %0, ptr noundef %1, ptr nocapture readnone %2, ptr noundef %3) unnamed_addr #10 align 2 personality ptr @__gxx_personality_v0 {
  %5 = tail call ptr @__cxa_allocate_exception(i64 48) #16
  invoke void @_ZN11xercesc_2_529InvalidDatatypeFacetExceptionC2EPKcjNS_10XMLExcepts5CodesEPKtS6_S6_S6_PNS_13MemoryManagerE(ptr noundef nonnull align 8 dereferenceable(48) %5, ptr noundef nonnull @.str, i32 noundef 829, i32 noundef 164, ptr noundef %1, ptr noundef null, ptr noundef null, ptr noundef null, ptr noundef %3)
          to label %6 unwind label %7

6:                                                ; preds = %4
  tail call void @__cxa_throw(ptr nonnull %5, ptr nonnull @_ZTIN11xercesc_2_529InvalidDatatypeFacetExceptionE, ptr nonnull @_ZN11xercesc_2_512XMLExceptionD2Ev) #18
  unreachable

7:                                                ; preds = %4
  %8 = landingpad { ptr, i32 }
          cleanup
  tail call void @__cxa_free_exception(ptr %5) #16
  resume { ptr, i32 } %8
}

; Function Attrs: nofree norecurse nosync nounwind memory(read, inaccessiblemem: none) uwtable
define dso_local noundef i32 @_ZNK11xercesc_2_523AbstractStringValidator9getLengthEPKtPNS_13MemoryManagerE(ptr nocapture nonnull readnone align 8 %0, ptr noundef %1, ptr nocapture readnone %2) unnamed_addr #11 align 2 {
  %4 = icmp eq ptr %1, null
  br i1 %4, label %19, label %5

5:                                                ; preds = %3
  %6 = load i16, ptr %1, align 2, !tbaa !134
  %7 = icmp eq i16 %6, 0
  br i1 %7, label %19, label %8

8:                                                ; preds = %5, %8
  %9 = phi ptr [ %10, %8 ], [ %1, %5 ]
  %10 = getelementptr inbounds i16, ptr %9, i64 1
  %11 = load i16, ptr %10, align 2, !tbaa !134
  %12 = icmp eq i16 %11, 0
  br i1 %12, label %13, label %8

13:                                               ; preds = %8
  %14 = ptrtoint ptr %10 to i64
  %15 = ptrtoint ptr %1 to i64
  %16 = sub i64 %14, %15
  %17 = lshr exact i64 %16, 1
  %18 = trunc i64 %17 to i32
  br label %19

19:                                               ; preds = %3, %5, %13
  %20 = phi i32 [ %18, %13 ], [ 0, %5 ], [ 0, %3 ]
  ret i32 %20
}

; Function Attrs: mustprogress nofree norecurse nosync nounwind willreturn memory(none) uwtable
define dso_local noalias noundef ptr @_ZN11xercesc_2_523AbstractStringValidator12createObjectEPNS_13MemoryManagerE(ptr nocapture readnone %0) #9 align 2 {
  ret ptr null
}

; Function Attrs: mustprogress nofree norecurse nosync nounwind willreturn memory(none) uwtable
define dso_local noundef zeroext i1 @_ZNK11xercesc_2_523AbstractStringValidator14isSerializableEv(ptr nocapture nonnull readnone align 8 %0) unnamed_addr #9 align 2 {
  ret i1 true
}

; Function Attrs: mustprogress nofree norecurse nosync nounwind willreturn memory(none) uwtable
define dso_local noundef nonnull ptr @_ZNK11xercesc_2_523AbstractStringValidator12getProtoTypeEv(ptr nocapture nonnull readnone align 8 %0) unnamed_addr #9 align 2 {
  ret ptr @_ZN11xercesc_2_523AbstractStringValidator28classAbstractStringValidatorE
}

; Function Attrs: uwtable
define dso_local void @_ZN11xercesc_2_523AbstractStringValidator9serializeERNS_16XSerializeEngineE(ptr noundef nonnull align 8 dereferenceable(128) %0, ptr noundef nonnull align 8 dereferenceable(92) %1) unnamed_addr #3 align 2 {
  tail call void @_ZN11xercesc_2_517DatatypeValidator9serializeERNS_16XSerializeEngineE(ptr noundef nonnull align 8 dereferenceable(103) %0, ptr noundef nonnull align 8 dereferenceable(92) %1)
  %3 = load i16, ptr %1, align 8, !tbaa !157
  %4 = icmp eq i16 %3, 0
  %5 = getelementptr inbounds %"class.xercesc_2_5::AbstractStringValidator", ptr %0, i64 0, i32 1
  br i1 %4, label %6, label %21

6:                                                ; preds = %2
  %7 = load i32, ptr %5, align 8, !tbaa !113
  %8 = tail call noundef nonnull align 8 dereferenceable(92) ptr @_ZN11xercesc_2_516XSerializeEnginelsEj(ptr noundef nonnull align 8 dereferenceable(92) %1, i32 noundef %7)
  %9 = getelementptr inbounds %"class.xercesc_2_5::AbstractStringValidator", ptr %0, i64 0, i32 2
  %10 = load i32, ptr %9, align 4, !tbaa !115
  %11 = tail call noundef nonnull align 8 dereferenceable(92) ptr @_ZN11xercesc_2_516XSerializeEnginelsEj(ptr noundef nonnull align 8 dereferenceable(92) %1, i32 noundef %10)
  %12 = getelementptr inbounds %"class.xercesc_2_5::AbstractStringValidator", ptr %0, i64 0, i32 3
  %13 = load i32, ptr %12, align 8, !tbaa !116
  %14 = tail call noundef nonnull align 8 dereferenceable(92) ptr @_ZN11xercesc_2_516XSerializeEnginelsEj(ptr noundef nonnull align 8 dereferenceable(92) %1, i32 noundef %13)
  %15 = getelementptr inbounds %"class.xercesc_2_5::AbstractStringValidator", ptr %0, i64 0, i32 4
  %16 = load i8, ptr %15, align 4, !tbaa !99, !range !110, !noundef !111
  %17 = icmp ne i8 %16, 0
  %18 = tail call noundef nonnull align 8 dereferenceable(92) ptr @_ZN11xercesc_2_516XSerializeEnginelsEb(ptr noundef nonnull align 8 dereferenceable(92) %1, i1 noundef zeroext %17)
  %19 = getelementptr inbounds %"class.xercesc_2_5::AbstractStringValidator", ptr %0, i64 0, i32 5
  %20 = load ptr, ptr %19, align 8, !tbaa !112
  tail call void @_ZN11xercesc_2_519XTemplateSerializer11storeObjectEPNS_16RefArrayVectorOfItEERNS_16XSerializeEngineE(ptr noundef %20, ptr noundef nonnull align 8 dereferenceable(92) %1)
  br label %30

21:                                               ; preds = %2
  %22 = tail call noundef nonnull align 8 dereferenceable(92) ptr @_ZN11xercesc_2_516XSerializeEnginersERj(ptr noundef nonnull align 8 dereferenceable(92) %1, ptr noundef nonnull align 4 dereferenceable(4) %5)
  %23 = getelementptr inbounds %"class.xercesc_2_5::AbstractStringValidator", ptr %0, i64 0, i32 2
  %24 = tail call noundef nonnull align 8 dereferenceable(92) ptr @_ZN11xercesc_2_516XSerializeEnginersERj(ptr noundef nonnull align 8 dereferenceable(92) %1, ptr noundef nonnull align 4 dereferenceable(4) %23)
  %25 = getelementptr inbounds %"class.xercesc_2_5::AbstractStringValidator", ptr %0, i64 0, i32 3
  %26 = tail call noundef nonnull align 8 dereferenceable(92) ptr @_ZN11xercesc_2_516XSerializeEnginersERj(ptr noundef nonnull align 8 dereferenceable(92) %1, ptr noundef nonnull align 4 dereferenceable(4) %25)
  %27 = getelementptr inbounds %"class.xercesc_2_5::AbstractStringValidator", ptr %0, i64 0, i32 4
  %28 = tail call noundef nonnull align 8 dereferenceable(92) ptr @_ZN11xercesc_2_516XSerializeEnginersERb(ptr noundef nonnull align 8 dereferenceable(92) %1, ptr noundef nonnull align 1 dereferenceable(1) %27)
  %29 = getelementptr inbounds %"class.xercesc_2_5::AbstractStringValidator", ptr %0, i64 0, i32 5
  tail call void @_ZN11xercesc_2_519XTemplateSerializer10loadObjectEPPNS_16RefArrayVectorOfItEEibRNS_16XSerializeEngineE(ptr noundef nonnull %29, i32 noundef 8, i1 noundef zeroext true, ptr noundef nonnull align 8 dereferenceable(92) %1)
  br label %30

30:                                               ; preds = %21, %6
  ret void
}

declare void @_ZN11xercesc_2_517DatatypeValidator9serializeERNS_16XSerializeEngineE(ptr noundef nonnull align 8 dereferenceable(103), ptr noundef nonnull align 8 dereferenceable(92)) unnamed_addr #1

declare noundef nonnull align 8 dereferenceable(92) ptr @_ZN11xercesc_2_516XSerializeEnginelsEj(ptr noundef nonnull align 8 dereferenceable(92), i32 noundef) local_unnamed_addr #1

declare noundef nonnull align 8 dereferenceable(92) ptr @_ZN11xercesc_2_516XSerializeEnginelsEb(ptr noundef nonnull align 8 dereferenceable(92), i1 noundef zeroext) local_unnamed_addr #1

declare void @_ZN11xercesc_2_519XTemplateSerializer11storeObjectEPNS_16RefArrayVectorOfItEERNS_16XSerializeEngineE(ptr noundef, ptr noundef nonnull align 8 dereferenceable(92)) local_unnamed_addr #1

declare noundef nonnull align 8 dereferenceable(92) ptr @_ZN11xercesc_2_516XSerializeEnginersERj(ptr noundef nonnull align 8 dereferenceable(92), ptr noundef nonnull align 4 dereferenceable(4)) local_unnamed_addr #1

declare noundef nonnull align 8 dereferenceable(92) ptr @_ZN11xercesc_2_516XSerializeEnginersERb(ptr noundef nonnull align 8 dereferenceable(92), ptr noundef nonnull align 1 dereferenceable(1)) local_unnamed_addr #1

declare void @_ZN11xercesc_2_519XTemplateSerializer10loadObjectEPPNS_16RefArrayVectorOfItEEibRNS_16XSerializeEngineE(ptr noundef, i32 noundef, i1 noundef zeroext, ptr noundef nonnull align 8 dereferenceable(92)) local_unnamed_addr #1

declare void @__cxa_pure_virtual() unnamed_addr

; Function Attrs: inlinehint nounwind uwtable
define linkonce_odr dso_local noundef zeroext i1 @_ZNK11xercesc_2_517DatatypeValidator8isAtomicEv(ptr noundef nonnull align 8 dereferenceable(103) %0) unnamed_addr #12 comdat align 2 {
  ret i1 true
}

declare noundef ptr @_ZNK11xercesc_2_517DatatypeValidator26getCanonicalRepresentationEPKtPNS_13MemoryManagerEb(ptr noundef nonnull align 8 dereferenceable(103), ptr noundef, ptr noundef, i1 noundef zeroext) unnamed_addr #1

; Function Attrs: inlinehint nounwind uwtable
define linkonce_odr dso_local noundef zeroext i1 @_ZN11xercesc_2_517DatatypeValidator17isSubstitutableByEPKS0_(ptr noundef nonnull align 8 dereferenceable(103) %0, ptr noundef %1) unnamed_addr #12 comdat align 2 {
  %3 = icmp ne ptr %1, null
  %4 = icmp ne ptr %1, %0
  %5 = and i1 %4, %3
  br i1 %5, label %6, label %13

6:                                                ; preds = %2, %6
  %7 = phi ptr [ %9, %6 ], [ %1, %2 ]
  %8 = getelementptr inbounds %"class.xercesc_2_5::DatatypeValidator", ptr %7, i64 0, i32 10
  %9 = load ptr, ptr %8, align 8, !tbaa !145
  %10 = icmp ne ptr %9, null
  %11 = icmp ne ptr %9, %0
  %12 = and i1 %11, %10
  br i1 %12, label %6, label %13

13:                                               ; preds = %6, %2
  %14 = phi i1 [ %3, %2 ], [ %10, %6 ]
  ret i1 %14
}

declare void @_ZN11xercesc_2_512XMLExceptionC2EPKcjPNS_13MemoryManagerE(ptr noundef nonnull align 8 dereferenceable(48), ptr noundef, i32 noundef, ptr noundef) unnamed_addr #1

declare void @_ZN11xercesc_2_512XMLException14loadExceptTextENS_10XMLExcepts5CodesEPKtS4_S4_S4_(ptr noundef nonnull align 8 dereferenceable(48), i32 noundef, ptr noundef, ptr noundef, ptr noundef, ptr noundef) local_unnamed_addr #1

; Function Attrs: uwtable
define linkonce_odr dso_local void @_ZN11xercesc_2_529InvalidDatatypeFacetExceptionD0Ev(ptr noundef nonnull align 8 dereferenceable(48) %0) unnamed_addr #3 comdat align 2 personality ptr @__gxx_personality_v0 {
  invoke void @_ZN11xercesc_2_512XMLExceptionD2Ev(ptr noundef nonnull align 8 dereferenceable(48) %0)
          to label %2 unwind label %3

2:                                                ; preds = %1
  tail call void @_ZN11xercesc_2_57XMemorydlEPv(ptr noundef nonnull %0)
  ret void

3:                                                ; preds = %1
  %4 = landingpad { ptr, i32 }
          cleanup
  invoke void @_ZN11xercesc_2_57XMemorydlEPv(ptr noundef nonnull %0)
          to label %5 unwind label %6

5:                                                ; preds = %3
  resume { ptr, i32 } %4

6:                                                ; preds = %3
  %7 = landingpad { ptr, i32 }
          catch ptr null
  %8 = extractvalue { ptr, i32 } %7, 0
  tail call void @__clang_call_terminate(ptr %8) #17
  unreachable
}

; Function Attrs: nounwind uwtable
define linkonce_odr dso_local noundef ptr @_ZNK11xercesc_2_529InvalidDatatypeFacetException7getTypeEv(ptr noundef nonnull align 8 dereferenceable(48) %0) unnamed_addr #6 comdat align 2 {
  ret ptr @_ZN11xercesc_2_56XMLUni36fgInvalidDatatypeFacetException_NameE
}

; Function Attrs: uwtable
define linkonce_odr dso_local noundef ptr @_ZNK11xercesc_2_529InvalidDatatypeFacetException9duplicateEv(ptr noundef nonnull align 8 dereferenceable(48) %0) unnamed_addr #3 comdat align 2 personality ptr @__gxx_personality_v0 {
  %2 = getelementptr inbounds %"class.xercesc_2_5::XMLException", ptr %0, i64 0, i32 5
  %3 = load ptr, ptr %2, align 8, !tbaa !159
  %4 = tail call noundef ptr @_ZN11xercesc_2_57XMemorynwEmPNS_13MemoryManagerE(i64 noundef 48, ptr noundef %3)
  invoke void @_ZN11xercesc_2_512XMLExceptionC2ERKS0_(ptr noundef nonnull align 8 dereferenceable(48) %4, ptr noundef nonnull align 8 dereferenceable(48) %0)
          to label %5 unwind label %6

5:                                                ; preds = %1
  store ptr getelementptr inbounds ({ [6 x ptr] }, ptr @_ZTVN11xercesc_2_529InvalidDatatypeFacetExceptionE, i64 0, inrange i32 0, i64 2), ptr %4, align 8, !tbaa !96
  ret ptr %4

6:                                                ; preds = %1
  %7 = landingpad { ptr, i32 }
          cleanup
  invoke void @_ZN11xercesc_2_57XMemorydlEPvPNS_13MemoryManagerE(ptr noundef %4, ptr noundef %3)
          to label %8 unwind label %9

8:                                                ; preds = %6
  resume { ptr, i32 } %7

9:                                                ; preds = %6
  %10 = landingpad { ptr, i32 }
          catch ptr null
  %11 = extractvalue { ptr, i32 } %10, 0
  tail call void @__clang_call_terminate(ptr %11) #17
  unreachable
}

declare void @_ZN11xercesc_2_512XMLExceptionC2ERKS0_(ptr noundef nonnull align 8 dereferenceable(48), ptr noundef nonnull align 8 dereferenceable(48)) unnamed_addr #1

declare void @_ZN11xercesc_2_512XMLException14loadExceptTextENS_10XMLExcepts5CodesE(ptr noundef nonnull align 8 dereferenceable(48), i32 noundef) local_unnamed_addr #1

; Function Attrs: uwtable
define linkonce_odr dso_local void @_ZN11xercesc_2_529InvalidDatatypeValueExceptionD0Ev(ptr noundef nonnull align 8 dereferenceable(48) %0) unnamed_addr #3 comdat align 2 personality ptr @__gxx_personality_v0 {
  invoke void @_ZN11xercesc_2_512XMLExceptionD2Ev(ptr noundef nonnull align 8 dereferenceable(48) %0)
          to label %2 unwind label %3

2:                                                ; preds = %1
  tail call void @_ZN11xercesc_2_57XMemorydlEPv(ptr noundef nonnull %0)
  ret void

3:                                                ; preds = %1
  %4 = landingpad { ptr, i32 }
          cleanup
  invoke void @_ZN11xercesc_2_57XMemorydlEPv(ptr noundef nonnull %0)
          to label %5 unwind label %6

5:                                                ; preds = %3
  resume { ptr, i32 } %4

6:                                                ; preds = %3
  %7 = landingpad { ptr, i32 }
          catch ptr null
  %8 = extractvalue { ptr, i32 } %7, 0
  tail call void @__clang_call_terminate(ptr %8) #17
  unreachable
}

; Function Attrs: nounwind uwtable
define linkonce_odr dso_local noundef ptr @_ZNK11xercesc_2_529InvalidDatatypeValueException7getTypeEv(ptr noundef nonnull align 8 dereferenceable(48) %0) unnamed_addr #6 comdat align 2 {
  ret ptr @_ZN11xercesc_2_56XMLUni36fgInvalidDatatypeValueException_NameE
}

; Function Attrs: uwtable
define linkonce_odr dso_local noundef ptr @_ZNK11xercesc_2_529InvalidDatatypeValueException9duplicateEv(ptr noundef nonnull align 8 dereferenceable(48) %0) unnamed_addr #3 comdat align 2 personality ptr @__gxx_personality_v0 {
  %2 = getelementptr inbounds %"class.xercesc_2_5::XMLException", ptr %0, i64 0, i32 5
  %3 = load ptr, ptr %2, align 8, !tbaa !159
  %4 = tail call noundef ptr @_ZN11xercesc_2_57XMemorynwEmPNS_13MemoryManagerE(i64 noundef 48, ptr noundef %3)
  invoke void @_ZN11xercesc_2_512XMLExceptionC2ERKS0_(ptr noundef nonnull align 8 dereferenceable(48) %4, ptr noundef nonnull align 8 dereferenceable(48) %0)
          to label %5 unwind label %6

5:                                                ; preds = %1
  store ptr getelementptr inbounds ({ [6 x ptr] }, ptr @_ZTVN11xercesc_2_529InvalidDatatypeValueExceptionE, i64 0, inrange i32 0, i64 2), ptr %4, align 8, !tbaa !96
  ret ptr %4

6:                                                ; preds = %1
  %7 = landingpad { ptr, i32 }
          cleanup
  invoke void @_ZN11xercesc_2_57XMemorydlEPvPNS_13MemoryManagerE(ptr noundef %4, ptr noundef %3)
          to label %8 unwind label %9

8:                                                ; preds = %6
  resume { ptr, i32 } %7

9:                                                ; preds = %6
  %10 = landingpad { ptr, i32 }
          catch ptr null
  %11 = extractvalue { ptr, i32 } %10, 0
  tail call void @__clang_call_terminate(ptr %11) #17
  unreachable
}

; Function Attrs: mustprogress nocallback nofree nounwind willreturn memory(argmem: readwrite)
declare void @llvm.memcpy.p0.p0.i64(ptr noalias nocapture writeonly, ptr noalias nocapture readonly, i64, i1 immarg) #13

; Function Attrs: uwtable
define linkonce_odr dso_local void @_ZN11xercesc_2_524RefHashTableOfEnumeratorINS_12KVStringPairEED0Ev(ptr noundef nonnull align 8 dereferenceable(48) %0) unnamed_addr #3 comdat align 2 personality ptr @__gxx_personality_v0 {
  invoke void @_ZN11xercesc_2_524RefHashTableOfEnumeratorINS_12KVStringPairEED2Ev(ptr noundef nonnull align 8 dereferenceable(48) %0)
          to label %2 unwind label %3

2:                                                ; preds = %1
  tail call void @_ZN11xercesc_2_57XMemorydlEPv(ptr noundef nonnull %0)
  ret void

3:                                                ; preds = %1
  %4 = landingpad { ptr, i32 }
          cleanup
  invoke void @_ZN11xercesc_2_57XMemorydlEPv(ptr noundef nonnull %0)
          to label %5 unwind label %6

5:                                                ; preds = %3
  resume { ptr, i32 } %4

6:                                                ; preds = %3
  %7 = landingpad { ptr, i32 }
          catch ptr null
  %8 = extractvalue { ptr, i32 } %7, 0
  tail call void @__clang_call_terminate(ptr %8) #17
  unreachable
}

; Function Attrs: nounwind uwtable
define linkonce_odr dso_local void @_ZN11xercesc_2_524RefHashTableOfEnumeratorINS_12KVStringPairEE5ResetEv(ptr noundef nonnull align 8 dereferenceable(48) %0) unnamed_addr #6 comdat align 2 {
  %2 = getelementptr inbounds %"class.xercesc_2_5::RefHashTableOfEnumerator", ptr %0, i64 0, i32 3
  %3 = getelementptr inbounds %"class.xercesc_2_5::RefHashTableOfEnumerator", ptr %0, i64 0, i32 2
  store ptr null, ptr %3, align 8, !tbaa !122
  store i32 0, ptr %2, align 8, !tbaa !125
  %4 = getelementptr inbounds %"class.xercesc_2_5::RefHashTableOfEnumerator", ptr %0, i64 0, i32 4
  %5 = load ptr, ptr %4, align 8, !tbaa !123
  %6 = getelementptr inbounds %"class.xercesc_2_5::RefHashTableOf", ptr %5, i64 0, i32 3
  %7 = load i32, ptr %6, align 8, !tbaa !126
  %8 = icmp eq i32 %7, 0
  br i1 %8, label %22, label %9

9:                                                ; preds = %1
  %10 = getelementptr inbounds %"class.xercesc_2_5::RefHashTableOf", ptr %5, i64 0, i32 2
  %11 = load ptr, ptr %10, align 8, !tbaa !128
  br label %12

12:                                               ; preds = %18, %9
  %13 = phi i32 [ 0, %9 ], [ %19, %18 ]
  %14 = zext i32 %13 to i64
  %15 = getelementptr inbounds ptr, ptr %11, i64 %14
  %16 = load ptr, ptr %15, align 8, !tbaa !129
  %17 = icmp eq ptr %16, null
  br i1 %17, label %18, label %21

18:                                               ; preds = %12
  %19 = add nuw i32 %13, 1
  store i32 %19, ptr %2, align 8, !tbaa !125
  %20 = icmp eq i32 %19, %7
  br i1 %20, label %22, label %12

21:                                               ; preds = %12
  store ptr %16, ptr %3, align 8, !tbaa !122
  br label %22

22:                                               ; preds = %18, %1, %21
  ret void
}

; Function Attrs: uwtable
define linkonce_odr dso_local void @_ZN11xercesc_2_522NoSuchElementExceptionC2EPKcjNS_10XMLExcepts5CodesEPNS_13MemoryManagerE(ptr noundef nonnull align 8 dereferenceable(48) %0, ptr noundef %1, i32 noundef %2, i32 noundef %3, ptr noundef %4) unnamed_addr #3 comdat align 2 personality ptr @__gxx_personality_v0 {
  tail call void @_ZN11xercesc_2_512XMLExceptionC2EPKcjPNS_13MemoryManagerE(ptr noundef nonnull align 8 dereferenceable(48) %0, ptr noundef %1, i32 noundef %2, ptr noundef %4)
  store ptr getelementptr inbounds ({ [6 x ptr] }, ptr @_ZTVN11xercesc_2_522NoSuchElementExceptionE, i64 0, inrange i32 0, i64 2), ptr %0, align 8, !tbaa !96
  invoke void @_ZN11xercesc_2_512XMLException14loadExceptTextENS_10XMLExcepts5CodesE(ptr noundef nonnull align 8 dereferenceable(48) %0, i32 noundef %3)
          to label %6 unwind label %7

6:                                                ; preds = %5
  ret void

7:                                                ; preds = %5
  %8 = landingpad { ptr, i32 }
          cleanup
  invoke void @_ZN11xercesc_2_512XMLExceptionD2Ev(ptr noundef nonnull align 8 dereferenceable(48) %0)
          to label %9 unwind label %10

9:                                                ; preds = %7
  resume { ptr, i32 } %8

10:                                               ; preds = %7
  %11 = landingpad { ptr, i32 }
          catch ptr null
  %12 = extractvalue { ptr, i32 } %11, 0
  tail call void @__clang_call_terminate(ptr %12) #17
  unreachable
}

; Function Attrs: uwtable
define linkonce_odr dso_local void @_ZN11xercesc_2_522NoSuchElementExceptionD0Ev(ptr noundef nonnull align 8 dereferenceable(48) %0) unnamed_addr #3 comdat align 2 personality ptr @__gxx_personality_v0 {
  invoke void @_ZN11xercesc_2_512XMLExceptionD2Ev(ptr noundef nonnull align 8 dereferenceable(48) %0)
          to label %2 unwind label %3

2:                                                ; preds = %1
  tail call void @_ZN11xercesc_2_57XMemorydlEPv(ptr noundef nonnull %0)
  ret void

3:                                                ; preds = %1
  %4 = landingpad { ptr, i32 }
          cleanup
  invoke void @_ZN11xercesc_2_57XMemorydlEPv(ptr noundef nonnull %0)
          to label %5 unwind label %6

5:                                                ; preds = %3
  resume { ptr, i32 } %4

6:                                                ; preds = %3
  %7 = landingpad { ptr, i32 }
          catch ptr null
  %8 = extractvalue { ptr, i32 } %7, 0
  tail call void @__clang_call_terminate(ptr %8) #17
  unreachable
}

; Function Attrs: nounwind uwtable
define linkonce_odr dso_local noundef ptr @_ZNK11xercesc_2_522NoSuchElementException7getTypeEv(ptr noundef nonnull align 8 dereferenceable(48) %0) unnamed_addr #6 comdat align 2 {
  ret ptr @_ZN11xercesc_2_56XMLUni29fgNoSuchElementException_NameE
}

; Function Attrs: uwtable
define linkonce_odr dso_local noundef ptr @_ZNK11xercesc_2_522NoSuchElementException9duplicateEv(ptr noundef nonnull align 8 dereferenceable(48) %0) unnamed_addr #3 comdat align 2 personality ptr @__gxx_personality_v0 {
  %2 = getelementptr inbounds %"class.xercesc_2_5::XMLException", ptr %0, i64 0, i32 5
  %3 = load ptr, ptr %2, align 8, !tbaa !159
  %4 = tail call noundef ptr @_ZN11xercesc_2_57XMemorynwEmPNS_13MemoryManagerE(i64 noundef 48, ptr noundef %3)
  invoke void @_ZN11xercesc_2_512XMLExceptionC2ERKS0_(ptr noundef nonnull align 8 dereferenceable(48) %4, ptr noundef nonnull align 8 dereferenceable(48) %0)
          to label %5 unwind label %6

5:                                                ; preds = %1
  store ptr getelementptr inbounds ({ [6 x ptr] }, ptr @_ZTVN11xercesc_2_522NoSuchElementExceptionE, i64 0, inrange i32 0, i64 2), ptr %4, align 8, !tbaa !96
  ret ptr %4

6:                                                ; preds = %1
  %7 = landingpad { ptr, i32 }
          cleanup
  invoke void @_ZN11xercesc_2_57XMemorydlEPvPNS_13MemoryManagerE(ptr noundef %4, ptr noundef %3)
          to label %8 unwind label %9

8:                                                ; preds = %6
  resume { ptr, i32 } %7

9:                                                ; preds = %6
  %10 = landingpad { ptr, i32 }
          catch ptr null
  %11 = extractvalue { ptr, i32 } %10, 0
  tail call void @__clang_call_terminate(ptr %11) #17
  unreachable
}

; Function Attrs: uwtable
define linkonce_odr dso_local void @_ZN11xercesc_2_530ArrayIndexOutOfBoundsExceptionC2EPKcjNS_10XMLExcepts5CodesEPNS_13MemoryManagerE(ptr noundef nonnull align 8 dereferenceable(48) %0, ptr noundef %1, i32 noundef %2, i32 noundef %3, ptr noundef %4) unnamed_addr #3 comdat align 2 personality ptr @__gxx_personality_v0 {
  tail call void @_ZN11xercesc_2_512XMLExceptionC2EPKcjPNS_13MemoryManagerE(ptr noundef nonnull align 8 dereferenceable(48) %0, ptr noundef %1, i32 noundef %2, ptr noundef %4)
  store ptr getelementptr inbounds ({ [6 x ptr] }, ptr @_ZTVN11xercesc_2_530ArrayIndexOutOfBoundsExceptionE, i64 0, inrange i32 0, i64 2), ptr %0, align 8, !tbaa !96
  invoke void @_ZN11xercesc_2_512XMLException14loadExceptTextENS_10XMLExcepts5CodesE(ptr noundef nonnull align 8 dereferenceable(48) %0, i32 noundef %3)
          to label %6 unwind label %7

6:                                                ; preds = %5
  ret void

7:                                                ; preds = %5
  %8 = landingpad { ptr, i32 }
          cleanup
  invoke void @_ZN11xercesc_2_512XMLExceptionD2Ev(ptr noundef nonnull align 8 dereferenceable(48) %0)
          to label %9 unwind label %10

9:                                                ; preds = %7
  resume { ptr, i32 } %8

10:                                               ; preds = %7
  %11 = landingpad { ptr, i32 }
          catch ptr null
  %12 = extractvalue { ptr, i32 } %11, 0
  tail call void @__clang_call_terminate(ptr %12) #17
  unreachable
}

declare void @_ZN11xercesc_2_512XMLExceptionD2Ev(ptr noundef nonnull align 8 dereferenceable(48)) unnamed_addr #1

; Function Attrs: uwtable
define linkonce_odr dso_local void @_ZN11xercesc_2_530ArrayIndexOutOfBoundsExceptionD0Ev(ptr noundef nonnull align 8 dereferenceable(48) %0) unnamed_addr #3 comdat align 2 personality ptr @__gxx_personality_v0 {
  invoke void @_ZN11xercesc_2_512XMLExceptionD2Ev(ptr noundef nonnull align 8 dereferenceable(48) %0)
          to label %2 unwind label %3

2:                                                ; preds = %1
  tail call void @_ZN11xercesc_2_57XMemorydlEPv(ptr noundef nonnull %0)
  ret void

3:                                                ; preds = %1
  %4 = landingpad { ptr, i32 }
          cleanup
  invoke void @_ZN11xercesc_2_57XMemorydlEPv(ptr noundef nonnull %0)
          to label %5 unwind label %6

5:                                                ; preds = %3
  resume { ptr, i32 } %4

6:                                                ; preds = %3
  %7 = landingpad { ptr, i32 }
          catch ptr null
  %8 = extractvalue { ptr, i32 } %7, 0
  tail call void @__clang_call_terminate(ptr %8) #17
  unreachable
}

; Function Attrs: nounwind uwtable
define linkonce_odr dso_local noundef ptr @_ZNK11xercesc_2_530ArrayIndexOutOfBoundsException7getTypeEv(ptr noundef nonnull align 8 dereferenceable(48) %0) unnamed_addr #6 comdat align 2 {
  ret ptr @_ZN11xercesc_2_56XMLUni37fgArrayIndexOutOfBoundsException_NameE
}

; Function Attrs: uwtable
define linkonce_odr dso_local noundef ptr @_ZNK11xercesc_2_530ArrayIndexOutOfBoundsException9duplicateEv(ptr noundef nonnull align 8 dereferenceable(48) %0) unnamed_addr #3 comdat align 2 personality ptr @__gxx_personality_v0 {
  %2 = getelementptr inbounds %"class.xercesc_2_5::XMLException", ptr %0, i64 0, i32 5
  %3 = load ptr, ptr %2, align 8, !tbaa !159
  %4 = tail call noundef ptr @_ZN11xercesc_2_57XMemorynwEmPNS_13MemoryManagerE(i64 noundef 48, ptr noundef %3)
  invoke void @_ZN11xercesc_2_512XMLExceptionC2ERKS0_(ptr noundef nonnull align 8 dereferenceable(48) %4, ptr noundef nonnull align 8 dereferenceable(48) %0)
          to label %5 unwind label %6

5:                                                ; preds = %1
  store ptr getelementptr inbounds ({ [6 x ptr] }, ptr @_ZTVN11xercesc_2_530ArrayIndexOutOfBoundsExceptionE, i64 0, inrange i32 0, i64 2), ptr %4, align 8, !tbaa !96
  ret ptr %4

6:                                                ; preds = %1
  %7 = landingpad { ptr, i32 }
          cleanup
  invoke void @_ZN11xercesc_2_57XMemorydlEPvPNS_13MemoryManagerE(ptr noundef %4, ptr noundef %3)
          to label %8 unwind label %9

8:                                                ; preds = %6
  resume { ptr, i32 } %7

9:                                                ; preds = %6
  %10 = landingpad { ptr, i32 }
          catch ptr null
  %11 = extractvalue { ptr, i32 } %10, 0
  tail call void @__clang_call_terminate(ptr %11) #17
  unreachable
}

; Function Attrs: nobuiltin nounwind
declare void @_ZdaPv(ptr noundef) local_unnamed_addr #14

; Function Attrs: nocallback nofree nounwind willreturn memory(argmem: write)
declare void @llvm.memset.p0.i64(ptr nocapture writeonly, i8, i64, i1 immarg) #15

attributes #0 = { noinline noreturn nounwind uwtable "approx-func-fp-math"="true" "denormal-fp-math"="preserve-sign,preserve-sign" "no-infs-fp-math"="true" "no-nans-fp-math"="true" "no-signed-zeros-fp-math"="true" "no-trapping-math"="true" "stack-protector-buffer-size"="8" "target-cpu"="znver2" "target-features"="+adx,+aes,+avx,+avx2,+bmi,+bmi2,+clflushopt,+clwb,+clzero,+crc32,+cx16,+cx8,+f16c,+fma,+fsgsbase,+fxsr,+lzcnt,+mmx,+movbe,+mwaitx,+pclmul,+popcnt,+prfchw,+rdpid,+rdpru,+rdrnd,+rdseed,+sahf,+sha,+sse,+sse2,+sse3,+sse4.1,+sse4.2,+sse4a,+ssse3,+wbnoinvd,+x87,+xsave,+xsavec,+xsaveopt,+xsaves" }
attributes #1 = { "approx-func-fp-math"="true" "denormal-fp-math"="preserve-sign,preserve-sign" "no-infs-fp-math"="true" "no-nans-fp-math"="true" "no-signed-zeros-fp-math"="true" "no-trapping-math"="true" "stack-protector-buffer-size"="8" "target-cpu"="znver2" "target-features"="+adx,+aes,+avx,+avx2,+bmi,+bmi2,+clflushopt,+clwb,+clzero,+crc32,+cx16,+cx8,+f16c,+fma,+fsgsbase,+fxsr,+lzcnt,+mmx,+movbe,+mwaitx,+pclmul,+popcnt,+prfchw,+rdpid,+rdpru,+rdrnd,+rdseed,+sahf,+sha,+sse,+sse2,+sse3,+sse4.1,+sse4.2,+sse4a,+ssse3,+wbnoinvd,+x87,+xsave,+xsavec,+xsaveopt,+xsaves" }
attributes #2 = { cold noreturn nounwind }
attributes #3 = { uwtable "approx-func-fp-math"="true" "denormal-fp-math"="preserve-sign,preserve-sign" "min-legal-vector-width"="0" "no-infs-fp-math"="true" "no-nans-fp-math"="true" "no-signed-zeros-fp-math"="true" "no-trapping-math"="true" "stack-protector-buffer-size"="8" "target-cpu"="znver2" "target-features"="+adx,+aes,+avx,+avx2,+bmi,+bmi2,+clflushopt,+clwb,+clzero,+crc32,+cx16,+cx8,+f16c,+fma,+fsgsbase,+fxsr,+lzcnt,+mmx,+movbe,+mwaitx,+pclmul,+popcnt,+prfchw,+rdpid,+rdpru,+rdrnd,+rdseed,+sahf,+sha,+sse,+sse2,+sse3,+sse4.1,+sse4.2,+sse4a,+ssse3,+wbnoinvd,+x87,+xsave,+xsavec,+xsaveopt,+xsaves" }
attributes #4 = { noreturn nounwind uwtable "approx-func-fp-math"="true" "denormal-fp-math"="preserve-sign,preserve-sign" "min-legal-vector-width"="0" "no-infs-fp-math"="true" "no-nans-fp-math"="true" "no-signed-zeros-fp-math"="true" "no-trapping-math"="true" "stack-protector-buffer-size"="8" "target-cpu"="znver2" "target-features"="+adx,+aes,+avx,+avx2,+bmi,+bmi2,+clflushopt,+clwb,+clzero,+crc32,+cx16,+cx8,+f16c,+fma,+fsgsbase,+fxsr,+lzcnt,+mmx,+movbe,+mwaitx,+pclmul,+popcnt,+prfchw,+rdpid,+rdpru,+rdrnd,+rdseed,+sahf,+sha,+sse,+sse2,+sse3,+sse4.1,+sse4.2,+sse4a,+ssse3,+wbnoinvd,+x87,+xsave,+xsavec,+xsaveopt,+xsaves" }
attributes #5 = { mustprogress nocallback nofree nosync nounwind willreturn memory(argmem: readwrite) }
attributes #6 = { nounwind uwtable "approx-func-fp-math"="true" "denormal-fp-math"="preserve-sign,preserve-sign" "min-legal-vector-width"="0" "no-infs-fp-math"="true" "no-nans-fp-math"="true" "no-signed-zeros-fp-math"="true" "no-trapping-math"="true" "stack-protector-buffer-size"="8" "target-cpu"="znver2" "target-features"="+adx,+aes,+avx,+avx2,+bmi,+bmi2,+clflushopt,+clwb,+clzero,+crc32,+cx16,+cx8,+f16c,+fma,+fsgsbase,+fxsr,+lzcnt,+mmx,+movbe,+mwaitx,+pclmul,+popcnt,+prfchw,+rdpid,+rdpru,+rdrnd,+rdseed,+sahf,+sha,+sse,+sse2,+sse3,+sse4.1,+sse4.2,+sse4a,+ssse3,+wbnoinvd,+x87,+xsave,+xsavec,+xsaveopt,+xsaves" }
attributes #7 = { nofree nosync nounwind memory(none) }
attributes #8 = { mustprogress nofree norecurse nosync nounwind willreturn memory(argmem: read) uwtable "approx-func-fp-math"="true" "denormal-fp-math"="preserve-sign,preserve-sign" "min-legal-vector-width"="0" "no-infs-fp-math"="true" "no-nans-fp-math"="true" "no-signed-zeros-fp-math"="true" "no-trapping-math"="true" "stack-protector-buffer-size"="8" "target-cpu"="znver2" "target-features"="+adx,+aes,+avx,+avx2,+bmi,+bmi2,+clflushopt,+clwb,+clzero,+crc32,+cx16,+cx8,+f16c,+fma,+fsgsbase,+fxsr,+lzcnt,+mmx,+movbe,+mwaitx,+pclmul,+popcnt,+prfchw,+rdpid,+rdpru,+rdrnd,+rdseed,+sahf,+sha,+sse,+sse2,+sse3,+sse4.1,+sse4.2,+sse4a,+ssse3,+wbnoinvd,+x87,+xsave,+xsavec,+xsaveopt,+xsaves" }
attributes #9 = { mustprogress nofree norecurse nosync nounwind willreturn memory(none) uwtable "approx-func-fp-math"="true" "denormal-fp-math"="preserve-sign,preserve-sign" "min-legal-vector-width"="0" "no-infs-fp-math"="true" "no-nans-fp-math"="true" "no-signed-zeros-fp-math"="true" "no-trapping-math"="true" "stack-protector-buffer-size"="8" "target-cpu"="znver2" "target-features"="+adx,+aes,+avx,+avx2,+bmi,+bmi2,+clflushopt,+clwb,+clzero,+crc32,+cx16,+cx8,+f16c,+fma,+fsgsbase,+fxsr,+lzcnt,+mmx,+movbe,+mwaitx,+pclmul,+popcnt,+prfchw,+rdpid,+rdpru,+rdrnd,+rdseed,+sahf,+sha,+sse,+sse2,+sse3,+sse4.1,+sse4.2,+sse4a,+ssse3,+wbnoinvd,+x87,+xsave,+xsavec,+xsaveopt,+xsaves" }
attributes #10 = { noreturn uwtable "approx-func-fp-math"="true" "denormal-fp-math"="preserve-sign,preserve-sign" "min-legal-vector-width"="0" "no-infs-fp-math"="true" "no-nans-fp-math"="true" "no-signed-zeros-fp-math"="true" "no-trapping-math"="true" "stack-protector-buffer-size"="8" "target-cpu"="znver2" "target-features"="+adx,+aes,+avx,+avx2,+bmi,+bmi2,+clflushopt,+clwb,+clzero,+crc32,+cx16,+cx8,+f16c,+fma,+fsgsbase,+fxsr,+lzcnt,+mmx,+movbe,+mwaitx,+pclmul,+popcnt,+prfchw,+rdpid,+rdpru,+rdrnd,+rdseed,+sahf,+sha,+sse,+sse2,+sse3,+sse4.1,+sse4.2,+sse4a,+ssse3,+wbnoinvd,+x87,+xsave,+xsavec,+xsaveopt,+xsaves" }
attributes #11 = { nofree norecurse nosync nounwind memory(read, inaccessiblemem: none) uwtable "approx-func-fp-math"="true" "denormal-fp-math"="preserve-sign,preserve-sign" "min-legal-vector-width"="0" "no-infs-fp-math"="true" "no-nans-fp-math"="true" "no-signed-zeros-fp-math"="true" "no-trapping-math"="true" "stack-protector-buffer-size"="8" "target-cpu"="znver2" "target-features"="+adx,+aes,+avx,+avx2,+bmi,+bmi2,+clflushopt,+clwb,+clzero,+crc32,+cx16,+cx8,+f16c,+fma,+fsgsbase,+fxsr,+lzcnt,+mmx,+movbe,+mwaitx,+pclmul,+popcnt,+prfchw,+rdpid,+rdpru,+rdrnd,+rdseed,+sahf,+sha,+sse,+sse2,+sse3,+sse4.1,+sse4.2,+sse4a,+ssse3,+wbnoinvd,+x87,+xsave,+xsavec,+xsaveopt,+xsaves" }
attributes #12 = { inlinehint nounwind uwtable "approx-func-fp-math"="true" "denormal-fp-math"="preserve-sign,preserve-sign" "min-legal-vector-width"="0" "no-infs-fp-math"="true" "no-nans-fp-math"="true" "no-signed-zeros-fp-math"="true" "no-trapping-math"="true" "stack-protector-buffer-size"="8" "target-cpu"="znver2" "target-features"="+adx,+aes,+avx,+avx2,+bmi,+bmi2,+clflushopt,+clwb,+clzero,+crc32,+cx16,+cx8,+f16c,+fma,+fsgsbase,+fxsr,+lzcnt,+mmx,+movbe,+mwaitx,+pclmul,+popcnt,+prfchw,+rdpid,+rdpru,+rdrnd,+rdseed,+sahf,+sha,+sse,+sse2,+sse3,+sse4.1,+sse4.2,+sse4a,+ssse3,+wbnoinvd,+x87,+xsave,+xsavec,+xsaveopt,+xsaves" }
attributes #13 = { mustprogress nocallback nofree nounwind willreturn memory(argmem: readwrite) }
attributes #14 = { nobuiltin nounwind "approx-func-fp-math"="true" "denormal-fp-math"="preserve-sign,preserve-sign" "no-infs-fp-math"="true" "no-nans-fp-math"="true" "no-signed-zeros-fp-math"="true" "no-trapping-math"="true" "stack-protector-buffer-size"="8" "target-cpu"="znver2" "target-features"="+adx,+aes,+avx,+avx2,+bmi,+bmi2,+clflushopt,+clwb,+clzero,+crc32,+cx16,+cx8,+f16c,+fma,+fsgsbase,+fxsr,+lzcnt,+mmx,+movbe,+mwaitx,+pclmul,+popcnt,+prfchw,+rdpid,+rdpru,+rdrnd,+rdseed,+sahf,+sha,+sse,+sse2,+sse3,+sse4.1,+sse4.2,+sse4a,+ssse3,+wbnoinvd,+x87,+xsave,+xsavec,+xsaveopt,+xsaves" }
attributes #15 = { nocallback nofree nounwind willreturn memory(argmem: write) }
attributes #16 = { nounwind }
attributes #17 = { noreturn nounwind }
attributes #18 = { noreturn }
attributes #19 = { builtin nounwind }

!llvm.module.flags = !{!89, !90, !91, !92, !93, !94}
!llvm.ident = !{!95}

!0 = !{i64 16, !"_ZTSN11xercesc_2_513XSerializableE"}
!1 = !{i64 32, !"_ZTSMN11xercesc_2_513XSerializableEKFbvE.virtual"}
!2 = !{i64 40, !"_ZTSMN11xercesc_2_513XSerializableEFvRNS_16XSerializeEngineEE.virtual"}
!3 = !{i64 48, !"_ZTSMN11xercesc_2_513XSerializableEKFPNS_10XProtoTypeEvE.virtual"}
!4 = !{i64 56, !"_ZTSMN11xercesc_2_513XSerializableEKFbvE.virtual"}
!5 = !{i64 64, !"_ZTSMN11xercesc_2_513XSerializableEKFPKNS_16RefArrayVectorOfItEEvE.virtual"}
!6 = !{i64 72, !"_ZTSMN11xercesc_2_513XSerializableEKFPKtS2_PNS_13MemoryManagerEbE.virtual"}
!7 = !{i64 80, !"_ZTSMN11xercesc_2_513XSerializableEFvPKtPNS_17ValidationContextEPNS_13MemoryManagerEE.virtual"}
!8 = !{i64 88, !"_ZTSMN11xercesc_2_513XSerializableEFbPKNS_17DatatypeValidatorEE.virtual"}
!9 = !{i64 96, !"_ZTSMN11xercesc_2_513XSerializableEFiPKtS2_PNS_13MemoryManagerEE.virtual"}
!10 = !{i64 104, !"_ZTSMN11xercesc_2_513XSerializableEFPNS_17DatatypeValidatorEPNS_14RefHashTableOfINS_12KVStringPairEEEPNS_16RefArrayVectorOfItEEiPNS_13MemoryManagerEE.virtual"}
!11 = !{i64 112, !"_ZTSMN11xercesc_2_513XSerializableEFvPKtS2_PNS_13MemoryManagerEE.virtual"}
!12 = !{i64 120, !"_ZTSMN11xercesc_2_513XSerializableEFvvE.virtual"}
!13 = !{i64 128, !"_ZTSMN11xercesc_2_513XSerializableEKFvPNS_13MemoryManagerEE.virtual"}
!14 = !{i64 136, !"_ZTSMN11xercesc_2_513XSerializableEKFvPKtPNS_13MemoryManagerEE.virtual"}
!15 = !{i64 144, !"_ZTSMN11xercesc_2_513XSerializableEKFiPKtPNS_13MemoryManagerEE.virtual"}
!16 = !{i64 152, !"_ZTSMN11xercesc_2_513XSerializableEFvPKtPNS_13MemoryManagerEE.virtual"}
!17 = !{i64 160, !"_ZTSMN11xercesc_2_513XSerializableEFvPNS_13MemoryManagerEE.virtual"}
!18 = !{i64 168, !"_ZTSMN11xercesc_2_513XSerializableEFvvE.virtual"}
!19 = !{i64 176, !"_ZTSMN11xercesc_2_513XSerializableEFvPKtPNS_17ValidationContextEbPNS_13MemoryManagerEE.virtual"}
!20 = !{i64 184, !"_ZTSMN11xercesc_2_513XSerializableEFvPNS_13MemoryManagerEE.virtual"}
!21 = !{i64 192, !"_ZTSMN11xercesc_2_513XSerializableEKFvPtPNS_13MemoryManagerEE.virtual"}
!22 = !{i64 16, !"_ZTSN11xercesc_2_517DatatypeValidatorE"}
!23 = !{i64 32, !"_ZTSMN11xercesc_2_517DatatypeValidatorEKFbvE.virtual"}
!24 = !{i64 40, !"_ZTSMN11xercesc_2_517DatatypeValidatorEFvRNS_16XSerializeEngineEE.virtual"}
!25 = !{i64 48, !"_ZTSMN11xercesc_2_517DatatypeValidatorEKFPNS_10XProtoTypeEvE.virtual"}
!26 = !{i64 56, !"_ZTSMN11xercesc_2_517DatatypeValidatorEKFbvE.virtual"}
!27 = !{i64 64, !"_ZTSMN11xercesc_2_517DatatypeValidatorEKFPKNS_16RefArrayVectorOfItEEvE.virtual"}
!28 = !{i64 72, !"_ZTSMN11xercesc_2_517DatatypeValidatorEKFPKtS2_PNS_13MemoryManagerEbE.virtual"}
!29 = !{i64 80, !"_ZTSMN11xercesc_2_517DatatypeValidatorEFvPKtPNS_17ValidationContextEPNS_13MemoryManagerEE.virtual"}
!30 = !{i64 88, !"_ZTSMN11xercesc_2_517DatatypeValidatorEFbPKS0_E.virtual"}
!31 = !{i64 96, !"_ZTSMN11xercesc_2_517DatatypeValidatorEFiPKtS2_PNS_13MemoryManagerEE.virtual"}
!32 = !{i64 104, !"_ZTSMN11xercesc_2_517DatatypeValidatorEFPS0_PNS_14RefHashTableOfINS_12KVStringPairEEEPNS_16RefArrayVectorOfItEEiPNS_13MemoryManagerEE.virtual"}
!33 = !{i64 112, !"_ZTSMN11xercesc_2_517DatatypeValidatorEFvPKtS2_PNS_13MemoryManagerEE.virtual"}
!34 = !{i64 120, !"_ZTSMN11xercesc_2_517DatatypeValidatorEFvvE.virtual"}
!35 = !{i64 128, !"_ZTSMN11xercesc_2_517DatatypeValidatorEKFvPNS_13MemoryManagerEE.virtual"}
!36 = !{i64 136, !"_ZTSMN11xercesc_2_517DatatypeValidatorEKFvPKtPNS_13MemoryManagerEE.virtual"}
!37 = !{i64 144, !"_ZTSMN11xercesc_2_517DatatypeValidatorEKFiPKtPNS_13MemoryManagerEE.virtual"}
!38 = !{i64 152, !"_ZTSMN11xercesc_2_517DatatypeValidatorEFvPKtPNS_13MemoryManagerEE.virtual"}
!39 = !{i64 160, !"_ZTSMN11xercesc_2_517DatatypeValidatorEFvPNS_13MemoryManagerEE.virtual"}
!40 = !{i64 168, !"_ZTSMN11xercesc_2_517DatatypeValidatorEFvvE.virtual"}
!41 = !{i64 176, !"_ZTSMN11xercesc_2_517DatatypeValidatorEFvPKtPNS_17ValidationContextEbPNS_13MemoryManagerEE.virtual"}
!42 = !{i64 184, !"_ZTSMN11xercesc_2_517DatatypeValidatorEFvPNS_13MemoryManagerEE.virtual"}
!43 = !{i64 192, !"_ZTSMN11xercesc_2_517DatatypeValidatorEKFvPtPNS_13MemoryManagerEE.virtual"}
!44 = !{i64 16, !"_ZTSN11xercesc_2_523AbstractStringValidatorE"}
!45 = !{i64 32, !"_ZTSMN11xercesc_2_523AbstractStringValidatorEKFbvE.virtual"}
!46 = !{i64 40, !"_ZTSMN11xercesc_2_523AbstractStringValidatorEFvRNS_16XSerializeEngineEE.virtual"}
!47 = !{i64 48, !"_ZTSMN11xercesc_2_523AbstractStringValidatorEKFPNS_10XProtoTypeEvE.virtual"}
!48 = !{i64 56, !"_ZTSMN11xercesc_2_523AbstractStringValidatorEKFbvE.virtual"}
!49 = !{i64 64, !"_ZTSMN11xercesc_2_523AbstractStringValidatorEKFPKNS_16RefArrayVectorOfItEEvE.virtual"}
!50 = !{i64 72, !"_ZTSMN11xercesc_2_523AbstractStringValidatorEKFPKtS2_PNS_13MemoryManagerEbE.virtual"}
!51 = !{i64 80, !"_ZTSMN11xercesc_2_523AbstractStringValidatorEFvPKtPNS_17ValidationContextEPNS_13MemoryManagerEE.virtual"}
!52 = !{i64 88, !"_ZTSMN11xercesc_2_523AbstractStringValidatorEFbPKNS_17DatatypeValidatorEE.virtual"}
!53 = !{i64 96, !"_ZTSMN11xercesc_2_523AbstractStringValidatorEFiPKtS2_PNS_13MemoryManagerEE.virtual"}
!54 = !{i64 104, !"_ZTSMN11xercesc_2_523AbstractStringValidatorEFPNS_17DatatypeValidatorEPNS_14RefHashTableOfINS_12KVStringPairEEEPNS_16RefArrayVectorOfItEEiPNS_13MemoryManagerEE.virtual"}
!55 = !{i64 112, !"_ZTSMN11xercesc_2_523AbstractStringValidatorEFvPKtS2_PNS_13MemoryManagerEE.virtual"}
!56 = !{i64 120, !"_ZTSMN11xercesc_2_523AbstractStringValidatorEFvvE.virtual"}
!57 = !{i64 128, !"_ZTSMN11xercesc_2_523AbstractStringValidatorEKFvPNS_13MemoryManagerEE.virtual"}
!58 = !{i64 136, !"_ZTSMN11xercesc_2_523AbstractStringValidatorEKFvPKtPNS_13MemoryManagerEE.virtual"}
!59 = !{i64 144, !"_ZTSMN11xercesc_2_523AbstractStringValidatorEKFiPKtPNS_13MemoryManagerEE.virtual"}
!60 = !{i64 152, !"_ZTSMN11xercesc_2_523AbstractStringValidatorEFvPKtPNS_13MemoryManagerEE.virtual"}
!61 = !{i64 160, !"_ZTSMN11xercesc_2_523AbstractStringValidatorEFvPNS_13MemoryManagerEE.virtual"}
!62 = !{i64 168, !"_ZTSMN11xercesc_2_523AbstractStringValidatorEFvvE.virtual"}
!63 = !{i64 176, !"_ZTSMN11xercesc_2_523AbstractStringValidatorEFvPKtPNS_17ValidationContextEbPNS_13MemoryManagerEE.virtual"}
!64 = !{i64 184, !"_ZTSMN11xercesc_2_523AbstractStringValidatorEFvPNS_13MemoryManagerEE.virtual"}
!65 = !{i64 192, !"_ZTSMN11xercesc_2_523AbstractStringValidatorEKFvPtPNS_13MemoryManagerEE.virtual"}
!66 = !{i64 16, !"_ZTSN11xercesc_2_512XMLExceptionE"}
!67 = !{i64 32, !"_ZTSMN11xercesc_2_512XMLExceptionEKFPKtvE.virtual"}
!68 = !{i64 40, !"_ZTSMN11xercesc_2_512XMLExceptionEKFPS0_vE.virtual"}
!69 = !{i64 16, !"_ZTSN11xercesc_2_529InvalidDatatypeFacetExceptionE"}
!70 = !{i64 32, !"_ZTSMN11xercesc_2_529InvalidDatatypeFacetExceptionEKFPKtvE.virtual"}
!71 = !{i64 40, !"_ZTSMN11xercesc_2_529InvalidDatatypeFacetExceptionEKFPNS_12XMLExceptionEvE.virtual"}
!72 = !{i64 16, !"_ZTSN11xercesc_2_529InvalidDatatypeValueExceptionE"}
!73 = !{i64 32, !"_ZTSMN11xercesc_2_529InvalidDatatypeValueExceptionEKFPKtvE.virtual"}
!74 = !{i64 40, !"_ZTSMN11xercesc_2_529InvalidDatatypeValueExceptionEKFPNS_12XMLExceptionEvE.virtual"}
!75 = !{i64 16, !"_ZTSN11xercesc_2_513XMLEnumeratorINS_12KVStringPairEEE"}
!76 = !{i64 32, !"_ZTSMN11xercesc_2_513XMLEnumeratorINS_12KVStringPairEEEKFbvE.virtual"}
!77 = !{i64 40, !"_ZTSMN11xercesc_2_513XMLEnumeratorINS_12KVStringPairEEEFRS1_vE.virtual"}
!78 = !{i64 48, !"_ZTSMN11xercesc_2_513XMLEnumeratorINS_12KVStringPairEEEFvvE.virtual"}
!79 = !{i64 16, !"_ZTSN11xercesc_2_524RefHashTableOfEnumeratorINS_12KVStringPairEEE"}
!80 = !{i64 32, !"_ZTSMN11xercesc_2_524RefHashTableOfEnumeratorINS_12KVStringPairEEEKFbvE.virtual"}
!81 = !{i64 40, !"_ZTSMN11xercesc_2_524RefHashTableOfEnumeratorINS_12KVStringPairEEEFRS1_vE.virtual"}
!82 = !{i64 48, !"_ZTSMN11xercesc_2_524RefHashTableOfEnumeratorINS_12KVStringPairEEEFvvE.virtual"}
!83 = !{i64 16, !"_ZTSN11xercesc_2_522NoSuchElementExceptionE"}
!84 = !{i64 32, !"_ZTSMN11xercesc_2_522NoSuchElementExceptionEKFPKtvE.virtual"}
!85 = !{i64 40, !"_ZTSMN11xercesc_2_522NoSuchElementExceptionEKFPNS_12XMLExceptionEvE.virtual"}
!86 = !{i64 16, !"_ZTSN11xercesc_2_530ArrayIndexOutOfBoundsExceptionE"}
!87 = !{i64 32, !"_ZTSMN11xercesc_2_530ArrayIndexOutOfBoundsExceptionEKFPKtvE.virtual"}
!88 = !{i64 40, !"_ZTSMN11xercesc_2_530ArrayIndexOutOfBoundsExceptionEKFPNS_12XMLExceptionEvE.virtual"}
!89 = !{i32 1, !"wchar_size", i32 4}
!90 = !{i32 8, !"PIC Level", i32 2}
!91 = !{i32 7, !"PIE Level", i32 2}
!92 = !{i32 7, !"uwtable", i32 2}
!93 = !{i32 1, !"ThinLTO", i32 0}
!94 = !{i32 1, !"EnableSplitLTOUnit", i32 1}
!95 = !{!"clang version 17.0.0 (git@github.com:llvm/llvm-project.git cff7a7747db02d1214b20e98677e5ddcb402ffe0)"}
!96 = !{!97, !97, i64 0}
!97 = !{!"vtable pointer", !98, i64 0}
!98 = !{!"Simple C++ TBAA"}
!99 = !{!100, !105, i64 116}
!100 = !{!"_ZTSN11xercesc_2_523AbstractStringValidatorE", !101, i64 0, !107, i64 104, !107, i64 108, !107, i64 112, !105, i64 116, !103, i64 120}
!101 = !{!"_ZTSN11xercesc_2_517DatatypeValidatorE", !102, i64 0, !103, i64 8, !105, i64 16, !106, i64 18, !107, i64 20, !107, i64 24, !107, i64 28, !108, i64 32, !103, i64 40, !103, i64 48, !103, i64 56, !103, i64 64, !103, i64 72, !103, i64 80, !103, i64 88, !109, i64 96, !105, i64 100, !105, i64 101, !105, i64 102}
!102 = !{!"_ZTSN11xercesc_2_513XSerializableE"}
!103 = !{!"any pointer", !104, i64 0}
!104 = !{!"omnipotent char", !98, i64 0}
!105 = !{!"bool", !104, i64 0}
!106 = !{!"short", !104, i64 0}
!107 = !{!"int", !104, i64 0}
!108 = !{!"_ZTSN11xercesc_2_517DatatypeValidator13ValidatorTypeE", !104, i64 0}
!109 = !{!"_ZTSN11xercesc_2_522XSSimpleTypeDefinition8ORDERINGE", !104, i64 0}
!110 = !{i8 0, i8 2}
!111 = !{}
!112 = !{!100, !103, i64 120}
!113 = !{!100, !107, i64 104}
!114 = !{!107, !107, i64 0}
!115 = !{!100, !107, i64 108}
!116 = !{!100, !107, i64 112}
!117 = !{!101, !107, i64 24}
!118 = !{!101, !103, i64 48}
!119 = !{!120, !105, i64 8}
!120 = !{!"_ZTSN11xercesc_2_524RefHashTableOfEnumeratorINS_12KVStringPairEEE", !121, i64 0, !105, i64 8, !103, i64 16, !107, i64 24, !103, i64 32, !103, i64 40}
!121 = !{!"_ZTSN11xercesc_2_513XMLEnumeratorINS_12KVStringPairEEE"}
!122 = !{!120, !103, i64 16}
!123 = !{!120, !103, i64 32}
!124 = !{!120, !103, i64 40}
!125 = !{!120, !107, i64 24}
!126 = !{!127, !107, i64 24}
!127 = !{!"_ZTSN11xercesc_2_514RefHashTableOfINS_12KVStringPairEEE", !103, i64 0, !105, i64 8, !103, i64 16, !107, i64 24, !107, i64 28, !107, i64 32, !103, i64 40}
!128 = !{!127, !103, i64 16}
!129 = !{!103, !103, i64 0}
!130 = !{!131, !103, i64 16}
!131 = !{!"_ZTSN11xercesc_2_512KVStringPairE", !102, i64 0, !103, i64 8, !103, i64 16, !132, i64 24, !103, i64 32, !132, i64 40}
!132 = !{!"long", !104, i64 0}
!133 = !{!131, !103, i64 32}
!134 = !{!106, !106, i64 0}
!135 = !{!101, !103, i64 56}
!136 = !{!101, !103, i64 8}
!137 = !{!101, !107, i64 28}
!138 = !{!139, !103, i64 8}
!139 = !{!"_ZTSN11xercesc_2_522RefHashTableBucketElemINS_12KVStringPairEEE", !103, i64 0, !103, i64 8, !103, i64 16}
!140 = !{!139, !103, i64 0}
!141 = !{!127, !105, i64 8}
!142 = !{!127, !107, i64 32}
!143 = !{!127, !103, i64 0}
!144 = !{!127, !103, i64 40}
!145 = !{!101, !103, i64 40}
!146 = !{!147, !107, i64 12}
!147 = !{!"_ZTSN11xercesc_2_515BaseRefVectorOfItEE", !105, i64 8, !107, i64 12, !107, i64 16, !103, i64 24, !103, i64 32}
!148 = !{!147, !103, i64 32}
!149 = !{!147, !103, i64 24}
!150 = !{!101, !103, i64 64}
!151 = !{!152, !103, i64 32}
!152 = !{!"_ZTSN11xercesc_2_512XMLExceptionE", !153, i64 8, !103, i64 16, !107, i64 24, !103, i64 32, !103, i64 40}
!153 = !{!"_ZTSN11xercesc_2_510XMLExcepts5CodesE", !104, i64 0}
!154 = !{!155, !103, i64 0}
!155 = !{!"_ZTSN11xercesc_2_512ArrayJanitorItEE", !103, i64 0, !103, i64 8}
!156 = !{!155, !103, i64 8}
!157 = !{!158, !106, i64 0}
!158 = !{!"_ZTSN11xercesc_2_516XSerializeEngineE", !106, i64 0, !103, i64 8, !103, i64 16, !103, i64 24, !132, i64 32, !103, i64 40, !103, i64 48, !103, i64 56, !103, i64 64, !103, i64 72, !103, i64 80, !107, i64 88}
!159 = !{!152, !103, i64 40}

^0 = module: (path: "", hash: (0, 0, 0, 0, 0))
^1 = gv: (name: "_ZTIN11xercesc_2_529InvalidDatatypeValueExceptionE", summaries: (variable: (module: ^0, flags: (linkage: linkonce_odr, visibility: default, notEligibleToImport: 1, live: 0, dsoLocal: 1, canAutoHide: 0), varFlags: (readonly: 0, writeonly: 0, constant: 1), refs: (^46, ^52, ^87)))) ; guid = 89770015710946713
^2 = gv: (name: "_ZN11xercesc_2_512XMLExceptionC2ERKS0_") ; guid = 98603571062824928
^3 = gv: (name: "_ZN11xercesc_2_59XMLString9binToTextEjPtjjPNS_13MemoryManagerE") ; guid = 183210493803851473
^4 = gv: (name: "_ZN11xercesc_2_513SchemaSymbols12fgELT_LENGTHE") ; guid = 266090190692898394
^5 = gv: (name: "_ZN11xercesc_2_513SchemaSymbols15fgRegEx_XOptionE") ; guid = 266252724494189080
^6 = gv: (name: "_ZN11xercesc_2_523AbstractStringValidator22inheritAdditionalFacetEv", summaries: (function: (module: ^0, flags: (linkage: external, visibility: default, notEligibleToImport: 1, live: 0, dsoLocal: 1, canAutoHide: 0), insts: 1, funcFlags: (readNone: 1, readOnly: 0, noRecurse: 1, returnDoesNotAlias: 0, noInline: 0, alwaysInline: 0, noUnwind: 1, mayThrow: 0, hasUnknownCall: 0, mustBeUnreachable: 0)))) ; guid = 327483934030012712
^7 = gv: (name: "_ZN11xercesc_2_512XMLException14loadExceptTextENS_10XMLExcepts5CodesEPKtS4_S4_S4_") ; guid = 352703211323895372
^8 = gv: (name: "_ZN11xercesc_2_530ArrayIndexOutOfBoundsExceptionC2EPKcjNS_10XMLExcepts5CodesEPNS_13MemoryManagerE", summaries: (function: (module: ^0, flags: (linkage: linkonce_odr, visibility: default, notEligibleToImport: 1, live: 0, dsoLocal: 1, canAutoHide: 1), insts: 11, funcFlags: (readNone: 0, readOnly: 0, noRecurse: 0, returnDoesNotAlias: 0, noInline: 0, alwaysInline: 0, noUnwind: 0, mayThrow: 1, hasUnknownCall: 0, mustBeUnreachable: 0), calls: ((callee: ^55, relbf: 256), (callee: ^42, relbf: 256), (callee: ^111), (callee: ^11)), refs: (^14, ^21)))) ; guid = 502048630076453195
^9 = gv: (name: "_ZN11xercesc_2_56XMLUni37fgArrayIndexOutOfBoundsException_NameE") ; guid = 919292261978283887
^10 = gv: (name: "_ZN11xercesc_2_524RefHashTableOfEnumeratorINS_12KVStringPairEE5ResetEv", summaries: (function: (module: ^0, flags: (linkage: linkonce_odr, visibility: default, notEligibleToImport: 1, live: 0, dsoLocal: 1, canAutoHide: 1), insts: 26, funcFlags: (readNone: 0, readOnly: 0, noRecurse: 0, returnDoesNotAlias: 0, noInline: 0, alwaysInline: 0, noUnwind: 1, mayThrow: 0, hasUnknownCall: 0, mustBeUnreachable: 0)))) ; guid = 938671545168145844
^11 = gv: (name: "__clang_call_terminate", summaries: (function: (module: ^0, flags: (linkage: linkonce_odr, visibility: hidden, notEligibleToImport: 1, live: 0, dsoLocal: 1, canAutoHide: 1), insts: 3, funcFlags: (readNone: 0, readOnly: 0, noRecurse: 0, returnDoesNotAlias: 0, noInline: 1, alwaysInline: 0, noUnwind: 1, mayThrow: 0, hasUnknownCall: 0, mustBeUnreachable: 1), calls: ((callee: ^32, relbf: 256), (callee: ^107, relbf: 256))))) ; guid = 1080103601501470593
^12 = gv: (name: "_ZTSN11xercesc_2_530ArrayIndexOutOfBoundsExceptionE", summaries: (variable: (module: ^0, flags: (linkage: linkonce_odr, visibility: default, notEligibleToImport: 1, live: 0, dsoLocal: 1, canAutoHide: 0), varFlags: (readonly: 0, writeonly: 0, constant: 1)))) ; guid = 1131654625769783350
^13 = gv: (name: "_ZNK11xercesc_2_522NoSuchElementException7getTypeEv", summaries: (function: (module: ^0, flags: (linkage: linkonce_odr, visibility: default, notEligibleToImport: 1, live: 0, dsoLocal: 1, canAutoHide: 1), insts: 1, funcFlags: (readNone: 0, readOnly: 0, noRecurse: 0, returnDoesNotAlias: 0, noInline: 0, alwaysInline: 0, noUnwind: 1, mayThrow: 0, hasUnknownCall: 0, mustBeUnreachable: 0), refs: (^53)))) ; guid = 1136919276911150946
^14 = gv: (name: "__gxx_personality_v0") ; guid = 1233668236132380018
^15 = gv: (name: "_ZTIN11xercesc_2_530ArrayIndexOutOfBoundsExceptionE", summaries: (variable: (module: ^0, flags: (linkage: linkonce_odr, visibility: default, notEligibleToImport: 1, live: 0, dsoLocal: 1, canAutoHide: 0), varFlags: (readonly: 0, writeonly: 0, constant: 1), refs: (^12, ^52, ^87)))) ; guid = 1260204726492418509
^16 = gv: (name: "_ZN11xercesc_2_57XMemorydlEPvPNS_13MemoryManagerE") ; guid = 1349285536003067557
^17 = gv: (name: "_ZN11xercesc_2_59XMLString9binToTextEiPtjjPNS_13MemoryManagerE") ; guid = 1581445020436804241
^18 = gv: (name: "_ZN11xercesc_2_59XMLString9textToBinEPKtRjPNS_13MemoryManagerE") ; guid = 1724312339060386373
^19 = gv: (name: "_ZN11xercesc_2_523AbstractStringValidatorD1Ev", summaries: (alias: (module: ^0, flags: (linkage: external, visibility: default, notEligibleToImport: 1, live: 0, dsoLocal: 1, canAutoHide: 0), aliasee: ^77))) ; guid = 1758117440090569838
^20 = gv: (name: "_ZN11xercesc_2_517DatatypeValidatorD2Ev") ; guid = 1905707372786951690
^21 = gv: (name: "_ZTVN11xercesc_2_530ArrayIndexOutOfBoundsExceptionE", summaries: (variable: (module: ^0, flags: (linkage: linkonce_odr, visibility: default, notEligibleToImport: 1, live: 0, dsoLocal: 1, canAutoHide: 1), varFlags: (readonly: 0, writeonly: 0, constant: 1), refs: (^15, ^111, ^92, ^113, ^22)))) ; guid = 1993491397298882958
^22 = gv: (name: "_ZNK11xercesc_2_530ArrayIndexOutOfBoundsException9duplicateEv", summaries: (function: (module: ^0, flags: (linkage: linkonce_odr, visibility: default, notEligibleToImport: 1, live: 0, dsoLocal: 1, canAutoHide: 1), insts: 13, funcFlags: (readNone: 0, readOnly: 0, noRecurse: 0, returnDoesNotAlias: 0, noInline: 0, alwaysInline: 0, noUnwind: 0, mayThrow: 1, hasUnknownCall: 0, mustBeUnreachable: 0), calls: ((callee: ^104, relbf: 256), (callee: ^2, relbf: 256), (callee: ^16), (callee: ^11)), refs: (^14, ^21)))) ; guid = 2149409076873251828
^23 = gv: (name: "_ZN11xercesc_2_524RefHashTableOfEnumeratorINS_12KVStringPairEE11nextElementEv", summaries: (function: (module: ^0, flags: (linkage: linkonce_odr, visibility: default, notEligibleToImport: 1, live: 0, dsoLocal: 1, canAutoHide: 1), insts: 50, funcFlags: (readNone: 0, readOnly: 0, noRecurse: 0, returnDoesNotAlias: 0, noInline: 0, alwaysInline: 0, noUnwind: 0, mayThrow: 1, hasUnknownCall: 1, mustBeUnreachable: 0), calls: ((callee: ^117), (callee: ^48), (callee: ^96), (callee: ^45)), refs: (^14, ^129, ^75, ^111)))) ; guid = 2151602790531969383
^24 = gv: (name: "_ZNK11xercesc_2_523AbstractStringValidator12getProtoTypeEv", summaries: (function: (module: ^0, flags: (linkage: external, visibility: default, notEligibleToImport: 1, live: 0, dsoLocal: 1, canAutoHide: 0), insts: 1, funcFlags: (readNone: 1, readOnly: 0, noRecurse: 1, returnDoesNotAlias: 0, noInline: 0, alwaysInline: 0, noUnwind: 1, mayThrow: 0, hasUnknownCall: 0, mustBeUnreachable: 0), refs: (^105)))) ; guid = 2273429586489100580
^25 = gv: (name: ".str.1", summaries: (variable: (module: ^0, flags: (linkage: private, visibility: default, notEligibleToImport: 1, live: 0, dsoLocal: 1, canAutoHide: 0), varFlags: (readonly: 1, writeonly: 0, constant: 1)))) ; guid = 2312234816988921782
^26 = gv: (name: "_ZN11xercesc_2_523AbstractStringValidator4initEPNS_16RefArrayVectorOfItEEPNS_13MemoryManagerE", summaries: (function: (module: ^0, flags: (linkage: external, visibility: default, notEligibleToImport: 1, live: 0, dsoLocal: 1, canAutoHide: 0), insts: 38, funcFlags: (readNone: 0, readOnly: 0, noRecurse: 0, returnDoesNotAlias: 0, noInline: 0, alwaysInline: 0, noUnwind: 0, mayThrow: 0, hasUnknownCall: 1, mustBeUnreachable: 0), calls: ((callee: ^73, relbf: 256), (callee: ^131, relbf: 256))))) ; guid = 2316209695269352881
^27 = gv: (name: "_ZTIN11xercesc_2_513XMLEnumeratorINS_12KVStringPairEEE", summaries: (variable: (module: ^0, flags: (linkage: linkonce_odr, visibility: default, notEligibleToImport: 1, live: 0, dsoLocal: 1, canAutoHide: 0), varFlags: (readonly: 0, writeonly: 0, constant: 1), refs: (^62, ^121)))) ; guid = 2479402781486140395
^28 = gv: (name: "_ZN11xercesc_2_519XTemplateSerializer10loadObjectEPPNS_16RefArrayVectorOfItEEibRNS_16XSerializeEngineE") ; guid = 2573129726315915450
^29 = gv: (name: "_ZNK11xercesc_2_523AbstractStringValidator16normalizeContentEPtPNS_13MemoryManagerE", summaries: (function: (module: ^0, flags: (linkage: external, visibility: default, notEligibleToImport: 1, live: 0, dsoLocal: 1, canAutoHide: 0), insts: 1, funcFlags: (readNone: 1, readOnly: 0, noRecurse: 1, returnDoesNotAlias: 0, noInline: 0, alwaysInline: 0, noUnwind: 1, mayThrow: 0, hasUnknownCall: 0, mustBeUnreachable: 0)))) ; guid = 2573435388545782239
^30 = gv: (name: "_ZN11xercesc_2_523AbstractStringValidator9serializeERNS_16XSerializeEngineE", summaries: (function: (module: ^0, flags: (linkage: external, visibility: default, notEligibleToImport: 1, live: 0, dsoLocal: 1, canAutoHide: 0), insts: 32, calls: ((callee: ^51, relbf: 256), (callee: ^56, relbf: 291), (callee: ^33, relbf: 97), (callee: ^91, relbf: 97), (callee: ^106, relbf: 474), (callee: ^130, relbf: 158), (callee: ^28, relbf: 158))))) ; guid = 2685249672090882346
^31 = gv: (name: "_ZNK11xercesc_2_529InvalidDatatypeValueException9duplicateEv", summaries: (function: (module: ^0, flags: (linkage: linkonce_odr, visibility: default, notEligibleToImport: 1, live: 0, dsoLocal: 1, canAutoHide: 1), insts: 13, funcFlags: (readNone: 0, readOnly: 0, noRecurse: 0, returnDoesNotAlias: 0, noInline: 0, alwaysInline: 0, noUnwind: 0, mayThrow: 1, hasUnknownCall: 0, mustBeUnreachable: 0), calls: ((callee: ^104, relbf: 256), (callee: ^2, relbf: 256), (callee: ^16), (callee: ^11)), refs: (^14, ^133)))) ; guid = 2800817376016060484
^32 = gv: (name: "__cxa_begin_catch") ; guid = 2822380080272388849
^33 = gv: (name: "_ZN11xercesc_2_516XSerializeEnginelsEb") ; guid = 2829381604329190632
^34 = gv: (name: "_ZN11xercesc_2_523AbstractStringValidator8validateEPKtPNS_17ValidationContextEPNS_13MemoryManagerE", summaries: (function: (module: ^0, flags: (linkage: external, visibility: default, notEligibleToImport: 1, live: 0, dsoLocal: 1, canAutoHide: 0), insts: 5, funcFlags: (readNone: 0, readOnly: 0, noRecurse: 0, returnDoesNotAlias: 0, noInline: 0, alwaysInline: 0, noUnwind: 0, mayThrow: 0, hasUnknownCall: 1, mustBeUnreachable: 0)))) ; guid = 3099354145538976486
^35 = gv: (name: "_ZTIN11xercesc_2_517DatatypeValidatorE") ; guid = 3146130263995428215
^36 = gv: (name: "_ZTIN11xercesc_2_523AbstractStringValidatorE", summaries: (variable: (module: ^0, flags: (linkage: external, visibility: default, notEligibleToImport: 1, live: 0, dsoLocal: 1, canAutoHide: 0), varFlags: (readonly: 1, writeonly: 0, constant: 1), refs: (^72, ^35, ^87)))) ; guid = 3180230908232289673
^37 = gv: (name: "_ZTIN11xercesc_2_521NumberFormatExceptionE", summaries: (variable: (module: ^0, flags: (linkage: linkonce_odr, visibility: default, notEligibleToImport: 1, live: 0, dsoLocal: 1, canAutoHide: 0), varFlags: (readonly: 0, writeonly: 0, constant: 1), refs: (^41, ^52, ^87)))) ; guid = 3774827912185176449
^38 = gv: (name: "_ZNK11xercesc_2_524RefHashTableOfEnumeratorINS_12KVStringPairEE15hasMoreElementsEv", summaries: (function: (module: ^0, flags: (linkage: linkonce_odr, visibility: default, notEligibleToImport: 1, live: 0, dsoLocal: 1, canAutoHide: 1), insts: 15, funcFlags: (readNone: 0, readOnly: 0, noRecurse: 0, returnDoesNotAlias: 0, noInline: 0, alwaysInline: 0, noUnwind: 1, mayThrow: 0, hasUnknownCall: 0, mustBeUnreachable: 0)))) ; guid = 3837895208649454736
^39 = gv: (name: "_ZN11xercesc_2_517RegularExpressionC1EPKtS2_PNS_13MemoryManagerE") ; guid = 4055702540278641129
^40 = gv: (name: "_ZN11xercesc_2_513SchemaSymbols13fgELT_PATTERNE") ; guid = 4186240650736680791
^41 = gv: (name: "_ZTSN11xercesc_2_521NumberFormatExceptionE", summaries: (variable: (module: ^0, flags: (linkage: linkonce_odr, visibility: default, notEligibleToImport: 1, live: 0, dsoLocal: 1, canAutoHide: 0), varFlags: (readonly: 0, writeonly: 0, constant: 1)))) ; guid = 4231102467387317234
^42 = gv: (name: "_ZN11xercesc_2_512XMLException14loadExceptTextENS_10XMLExcepts5CodesE") ; guid = 4231523629319913624
^43 = gv: (name: "_ZN11xercesc_2_512KVStringPairC1ERKS0_") ; guid = 4353761439077340488
^44 = gv: (name: "_ZN11xercesc_2_523AbstractStringValidatorD0Ev", summaries: (function: (module: ^0, flags: (linkage: external, visibility: default, notEligibleToImport: 1, live: 0, dsoLocal: 1, canAutoHide: 0), insts: 2, funcFlags: (readNone: 0, readOnly: 0, noRecurse: 0, returnDoesNotAlias: 0, noInline: 0, alwaysInline: 0, noUnwind: 1, mayThrow: 0, hasUnknownCall: 0, mustBeUnreachable: 1)))) ; guid = 5074213010272028185
^45 = gv: (name: "__cxa_free_exception") ; guid = 5135209714110671627
^46 = gv: (name: "_ZTSN11xercesc_2_529InvalidDatatypeValueExceptionE", summaries: (variable: (module: ^0, flags: (linkage: linkonce_odr, visibility: default, notEligibleToImport: 1, live: 0, dsoLocal: 1, canAutoHide: 0), varFlags: (readonly: 0, writeonly: 0, constant: 1)))) ; guid = 5192116552208635279
^47 = gv: (name: "_ZN11xercesc_2_513SchemaSymbols11fgATT_FIXEDE") ; guid = 5522756514321396800
^48 = gv: (name: "_ZN11xercesc_2_522NoSuchElementExceptionC2EPKcjNS_10XMLExcepts5CodesEPNS_13MemoryManagerE", summaries: (function: (module: ^0, flags: (linkage: linkonce_odr, visibility: default, notEligibleToImport: 1, live: 0, dsoLocal: 1, canAutoHide: 1), insts: 11, funcFlags: (readNone: 0, readOnly: 0, noRecurse: 0, returnDoesNotAlias: 0, noInline: 0, alwaysInline: 0, noUnwind: 0, mayThrow: 1, hasUnknownCall: 0, mustBeUnreachable: 0), calls: ((callee: ^55, relbf: 256), (callee: ^42, relbf: 256), (callee: ^111), (callee: ^11)), refs: (^14, ^79)))) ; guid = 5861014466382594775
^49 = gv: (name: "_ZN11xercesc_2_523AbstractStringValidator12inheritFacetEv", summaries: (function: (module: ^0, flags: (linkage: external, visibility: default, notEligibleToImport: 1, live: 0, dsoLocal: 1, canAutoHide: 0), insts: 93, funcFlags: (readNone: 0, readOnly: 0, noRecurse: 0, returnDoesNotAlias: 0, noInline: 0, alwaysInline: 0, noUnwind: 0, mayThrow: 0, hasUnknownCall: 1, mustBeUnreachable: 0)))) ; guid = 5897702156161917632
^50 = gv: (name: "_ZNK11xercesc_2_517DatatypeValidator8isAtomicEv", summaries: (function: (module: ^0, flags: (linkage: linkonce_odr, visibility: default, notEligibleToImport: 1, live: 0, dsoLocal: 1, canAutoHide: 1), insts: 1, funcFlags: (readNone: 0, readOnly: 0, noRecurse: 0, returnDoesNotAlias: 0, noInline: 0, alwaysInline: 0, noUnwind: 1, mayThrow: 0, hasUnknownCall: 0, mustBeUnreachable: 0)))) ; guid = 5968664870408666119
^51 = gv: (name: "_ZN11xercesc_2_517DatatypeValidator9serializeERNS_16XSerializeEngineE") ; guid = 6033853908609747429
^52 = gv: (name: "_ZTIN11xercesc_2_512XMLExceptionE") ; guid = 6483640326444490102
^53 = gv: (name: "_ZN11xercesc_2_56XMLUni29fgNoSuchElementException_NameE") ; guid = 6629716063588082592
^54 = gv: (name: "_ZNK11xercesc_2_529InvalidDatatypeFacetException7getTypeEv", summaries: (function: (module: ^0, flags: (linkage: linkonce_odr, visibility: default, notEligibleToImport: 1, live: 0, dsoLocal: 1, canAutoHide: 1), insts: 1, funcFlags: (readNone: 0, readOnly: 0, noRecurse: 0, returnDoesNotAlias: 0, noInline: 0, alwaysInline: 0, noUnwind: 1, mayThrow: 0, hasUnknownCall: 0, mustBeUnreachable: 0), refs: (^84)))) ; guid = 6633374823367790459
^55 = gv: (name: "_ZN11xercesc_2_512XMLExceptionC2EPKcjPNS_13MemoryManagerE") ; guid = 6742570653201122821
^56 = gv: (name: "_ZN11xercesc_2_516XSerializeEnginelsEj") ; guid = 6789577586019798634
^57 = gv: (name: "_ZN11xercesc_2_513SchemaSymbols15fgELT_MINLENGTHE") ; guid = 7186379584929296221
^58 = gv: (name: "_ZN11xercesc_2_522NoSuchElementExceptionD0Ev", summaries: (function: (module: ^0, flags: (linkage: linkonce_odr, visibility: default, notEligibleToImport: 1, live: 0, dsoLocal: 1, canAutoHide: 1), insts: 10, funcFlags: (readNone: 0, readOnly: 0, noRecurse: 0, returnDoesNotAlias: 0, noInline: 0, alwaysInline: 0, noUnwind: 0, mayThrow: 1, hasUnknownCall: 0, mustBeUnreachable: 0), calls: ((callee: ^111, relbf: 256), (callee: ^68, relbf: 255), (callee: ^11)), refs: (^14)))) ; guid = 7433698594753832927
^59 = gv: (name: "_ZTSN11xercesc_2_524RefHashTableOfEnumeratorINS_12KVStringPairEEE", summaries: (variable: (module: ^0, flags: (linkage: linkonce_odr, visibility: default, notEligibleToImport: 1, live: 0, dsoLocal: 1, canAutoHide: 0), varFlags: (readonly: 0, writeonly: 0, constant: 1)))) ; guid = 7450400697849333019
^60 = gv: (name: "_ZTVN11xercesc_2_523AbstractStringValidatorE", summaries: (variable: (module: ^0, flags: (linkage: external, visibility: default, notEligibleToImport: 1, live: 0, dsoLocal: 1, canAutoHide: 0), varFlags: (readonly: 1, writeonly: 0, constant: 1), refs: (^36, ^77, ^44, ^64, ^30, ^24, ^50, ^123, ^93, ^34, ^61, ^119, ^116, ^99, ^6, ^132, ^124, ^83, ^126, ^49, ^94, ^78, ^29)))) ; guid = 7801471889580727803
^61 = gv: (name: "_ZN11xercesc_2_517DatatypeValidator17isSubstitutableByEPKS0_", summaries: (function: (module: ^0, flags: (linkage: linkonce_odr, visibility: default, notEligibleToImport: 1, live: 0, dsoLocal: 1, canAutoHide: 1), insts: 13, funcFlags: (readNone: 0, readOnly: 0, noRecurse: 0, returnDoesNotAlias: 0, noInline: 0, alwaysInline: 0, noUnwind: 1, mayThrow: 0, hasUnknownCall: 0, mustBeUnreachable: 0)))) ; guid = 7856816543421772098
^62 = gv: (name: "_ZTSN11xercesc_2_513XMLEnumeratorINS_12KVStringPairEEE", summaries: (variable: (module: ^0, flags: (linkage: linkonce_odr, visibility: default, notEligibleToImport: 1, live: 0, dsoLocal: 1, canAutoHide: 0), varFlags: (readonly: 0, writeonly: 0, constant: 1)))) ; guid = 7919739480898323434
^63 = gv: (name: "_ZTSN11xercesc_2_57XMemoryE", summaries: (variable: (module: ^0, flags: (linkage: linkonce_odr, visibility: default, notEligibleToImport: 1, live: 0, dsoLocal: 1, canAutoHide: 0), varFlags: (readonly: 0, writeonly: 0, constant: 1)))) ; guid = 7982617353868034218
^64 = gv: (name: "_ZNK11xercesc_2_523AbstractStringValidator14isSerializableEv", summaries: (function: (module: ^0, flags: (linkage: external, visibility: default, notEligibleToImport: 1, live: 0, dsoLocal: 1, canAutoHide: 0), insts: 1, funcFlags: (readNone: 1, readOnly: 0, noRecurse: 1, returnDoesNotAlias: 0, noInline: 0, alwaysInline: 0, noUnwind: 1, mayThrow: 0, hasUnknownCall: 0, mustBeUnreachable: 0)))) ; guid = 7989461830789928300
^65 = gv: (name: "_ZN11xercesc_2_56XMLUni36fgInvalidDatatypeValueException_NameE") ; guid = 8110582065912343131
^66 = gv: (name: "_ZN11xercesc_2_517DatatypeValidatorC2EPS0_PNS_14RefHashTableOfINS_12KVStringPairEEEiNS0_13ValidatorTypeEPNS_13MemoryManagerE") ; guid = 8220013778892108720
^67 = gv: (name: "_ZdaPv") ; guid = 8244930240056412646
^68 = gv: (name: "_ZN11xercesc_2_57XMemorydlEPv") ; guid = 8281599223172122050
^69 = gv: (name: "_ZN11xercesc_2_529InvalidDatatypeFacetExceptionD0Ev", summaries: (function: (module: ^0, flags: (linkage: linkonce_odr, visibility: default, notEligibleToImport: 1, live: 0, dsoLocal: 1, canAutoHide: 1), insts: 10, funcFlags: (readNone: 0, readOnly: 0, noRecurse: 0, returnDoesNotAlias: 0, noInline: 0, alwaysInline: 0, noUnwind: 0, mayThrow: 1, hasUnknownCall: 0, mustBeUnreachable: 0), calls: ((callee: ^111, relbf: 256), (callee: ^68, relbf: 255), (callee: ^11)), refs: (^14)))) ; guid = 8349170630745169667
^70 = gv: (name: ".str.3", summaries: (variable: (module: ^0, flags: (linkage: private, visibility: default, notEligibleToImport: 1, live: 0, dsoLocal: 1, canAutoHide: 0), varFlags: (readonly: 1, writeonly: 0, constant: 1)))) ; guid = 8624455840566419795
^71 = gv: (name: "_ZN11xercesc_2_512KVStringPairD1Ev") ; guid = 8730077440997352434
^72 = gv: (name: "_ZTSN11xercesc_2_523AbstractStringValidatorE", summaries: (variable: (module: ^0, flags: (linkage: external, visibility: default, notEligibleToImport: 1, live: 0, dsoLocal: 1, canAutoHide: 0), varFlags: (readonly: 1, writeonly: 0, constant: 1)))) ; guid = 8971228798628600920
^73 = gv: (name: "_ZN11xercesc_2_523AbstractStringValidator11assignFacetEPNS_13MemoryManagerE", summaries: (function: (module: ^0, flags: (linkage: external, visibility: default, notEligibleToImport: 1, live: 0, dsoLocal: 1, canAutoHide: 0), insts: 394, funcFlags: (readNone: 0, readOnly: 0, noRecurse: 0, returnDoesNotAlias: 0, noInline: 0, alwaysInline: 0, noUnwind: 0, mayThrow: 1, hasUnknownCall: 1, mustBeUnreachable: 0), calls: ((callee: ^23, relbf: 13488), (callee: ^43, relbf: 13488), (callee: ^103, relbf: 8751), (callee: ^32), (callee: ^117), (callee: ^102), (callee: ^96), (callee: ^45), (callee: ^80), (callee: ^18, relbf: 952), (callee: ^127), (callee: ^71, relbf: 13488), (callee: ^90, relbf: 159), (callee: ^11)), refs: (^14, ^88, ^4, ^37, ^89, ^108, ^111, ^57, ^101, ^40, ^47, ^114)))) ; guid = 9175650766795561854
^74 = gv: (name: "_ZN11xercesc_2_529InvalidDatatypeValueExceptionD0Ev", summaries: (function: (module: ^0, flags: (linkage: linkonce_odr, visibility: default, notEligibleToImport: 1, live: 0, dsoLocal: 1, canAutoHide: 1), insts: 10, funcFlags: (readNone: 0, readOnly: 0, noRecurse: 0, returnDoesNotAlias: 0, noInline: 0, alwaysInline: 0, noUnwind: 0, mayThrow: 1, hasUnknownCall: 0, mustBeUnreachable: 0), calls: ((callee: ^111, relbf: 256), (callee: ^68, relbf: 255), (callee: ^11)), refs: (^14)))) ; guid = 9581419498567774688
^75 = gv: (name: "_ZTIN11xercesc_2_522NoSuchElementExceptionE", summaries: (variable: (module: ^0, flags: (linkage: linkonce_odr, visibility: default, notEligibleToImport: 1, live: 0, dsoLocal: 1, canAutoHide: 0), varFlags: (readonly: 0, writeonly: 0, constant: 1), refs: (^125, ^52, ^87)))) ; guid = 9585518238160739774
^76 = gv: (name: "_ZN11xercesc_2_529InvalidDatatypeValueExceptionC2EPKcjNS_10XMLExcepts5CodesEPKtS6_S6_S6_PNS_13MemoryManagerE", summaries: (function: (module: ^0, flags: (linkage: linkonce_odr, visibility: default, notEligibleToImport: 1, live: 0, dsoLocal: 1, canAutoHide: 1), insts: 11, funcFlags: (readNone: 0, readOnly: 0, noRecurse: 0, returnDoesNotAlias: 0, noInline: 0, alwaysInline: 0, noUnwind: 0, mayThrow: 1, hasUnknownCall: 0, mustBeUnreachable: 0), calls: ((callee: ^55, relbf: 256), (callee: ^7, relbf: 256), (callee: ^111), (callee: ^11)), refs: (^14, ^133)))) ; guid = 9881578311557549118
^77 = gv: (name: "_ZN11xercesc_2_523AbstractStringValidatorD2Ev", summaries: (function: (module: ^0, flags: (linkage: external, visibility: default, notEligibleToImport: 1, live: 0, dsoLocal: 1, canAutoHide: 0), insts: 24, funcFlags: (readNone: 0, readOnly: 0, noRecurse: 0, returnDoesNotAlias: 0, noInline: 0, alwaysInline: 0, noUnwind: 0, mayThrow: 1, hasUnknownCall: 1, mustBeUnreachable: 0), calls: ((callee: ^20, relbf: 255), (callee: ^11)), refs: (^14, ^60)))) ; guid = 9914647067937041055
^78 = gv: (name: "_ZN11xercesc_2_523AbstractStringValidator20normalizeEnumerationEPNS_13MemoryManagerE", summaries: (function: (module: ^0, flags: (linkage: external, visibility: default, notEligibleToImport: 1, live: 0, dsoLocal: 1, canAutoHide: 0), insts: 1, funcFlags: (readNone: 1, readOnly: 0, noRecurse: 1, returnDoesNotAlias: 0, noInline: 0, alwaysInline: 0, noUnwind: 1, mayThrow: 0, hasUnknownCall: 0, mustBeUnreachable: 0)))) ; guid = 10071792454390495452
^79 = gv: (name: "_ZTVN11xercesc_2_522NoSuchElementExceptionE", summaries: (variable: (module: ^0, flags: (linkage: linkonce_odr, visibility: default, notEligibleToImport: 1, live: 0, dsoLocal: 1, canAutoHide: 1), varFlags: (readonly: 0, writeonly: 0, constant: 1), refs: (^75, ^111, ^58, ^13, ^128)))) ; guid = 10139051179178680505
^80 = gv: (name: "__cxa_end_catch") ; guid = 10158920175350430535
^81 = gv: (name: "_ZTSN11xercesc_2_516RuntimeExceptionE", summaries: (variable: (module: ^0, flags: (linkage: linkonce_odr, visibility: default, notEligibleToImport: 1, live: 0, dsoLocal: 1, canAutoHide: 0), varFlags: (readonly: 0, writeonly: 0, constant: 1)))) ; guid = 10457942515832706886
^82 = gv: (name: "_ZTIN11xercesc_2_57XMemoryE", summaries: (variable: (module: ^0, flags: (linkage: linkonce_odr, visibility: default, notEligibleToImport: 1, live: 0, dsoLocal: 1, canAutoHide: 0), varFlags: (readonly: 0, writeonly: 0, constant: 1), refs: (^63, ^121)))) ; guid = 10636330148386645220
^83 = gv: (name: "_ZNK11xercesc_2_523AbstractStringValidator9getLengthEPKtPNS_13MemoryManagerE", summaries: (function: (module: ^0, flags: (linkage: external, visibility: default, notEligibleToImport: 1, live: 0, dsoLocal: 1, canAutoHide: 0), insts: 18, funcFlags: (readNone: 0, readOnly: 1, noRecurse: 1, returnDoesNotAlias: 0, noInline: 0, alwaysInline: 0, noUnwind: 1, mayThrow: 0, hasUnknownCall: 0, mustBeUnreachable: 0)))) ; guid = 10659174180142309970
^84 = gv: (name: "_ZN11xercesc_2_56XMLUni36fgInvalidDatatypeFacetException_NameE") ; guid = 10680024603746257447
^85 = gv: (name: "_ZN11xercesc_2_524RefHashTableOfEnumeratorINS_12KVStringPairEED0Ev", summaries: (function: (module: ^0, flags: (linkage: linkonce_odr, visibility: default, notEligibleToImport: 1, live: 0, dsoLocal: 1, canAutoHide: 1), insts: 10, funcFlags: (readNone: 0, readOnly: 0, noRecurse: 0, returnDoesNotAlias: 0, noInline: 0, alwaysInline: 0, noUnwind: 0, mayThrow: 1, hasUnknownCall: 0, mustBeUnreachable: 0), calls: ((callee: ^90, relbf: 256), (callee: ^68, relbf: 255), (callee: ^11)), refs: (^14)))) ; guid = 10789801177277811961
^86 = gv: (name: "_ZN11xercesc_2_523AbstractStringValidator12createObjectEPNS_13MemoryManagerE", summaries: (function: (module: ^0, flags: (linkage: external, visibility: default, notEligibleToImport: 1, live: 0, dsoLocal: 1, canAutoHide: 0), insts: 1, funcFlags: (readNone: 1, readOnly: 0, noRecurse: 1, returnDoesNotAlias: 1, noInline: 0, alwaysInline: 0, noUnwind: 1, mayThrow: 0, hasUnknownCall: 0, mustBeUnreachable: 0)))) ; guid = 10789853956031998824
^87 = gv: (name: "_ZTVN10__cxxabiv120__si_class_type_infoE") ; guid = 10873349890511596996
^88 = gv: (name: "_ZTVN11xercesc_2_524RefHashTableOfEnumeratorINS_12KVStringPairEEE", summaries: (variable: (module: ^0, flags: (linkage: linkonce_odr, visibility: default, notEligibleToImport: 1, live: 0, dsoLocal: 1, canAutoHide: 1), varFlags: (readonly: 0, writeonly: 0, constant: 1), refs: (^109, ^90, ^85, ^38, ^23, ^10)))) ; guid = 10933805384945481498
^89 = gv: (name: ".str", summaries: (variable: (module: ^0, flags: (linkage: private, visibility: default, notEligibleToImport: 1, live: 0, dsoLocal: 1, canAutoHide: 0), varFlags: (readonly: 1, writeonly: 0, constant: 1)))) ; guid = 10997500895143273155
^90 = gv: (name: "_ZN11xercesc_2_524RefHashTableOfEnumeratorINS_12KVStringPairEED2Ev", summaries: (function: (module: ^0, flags: (linkage: linkonce_odr, visibility: default, notEligibleToImport: 1, live: 0, dsoLocal: 1, canAutoHide: 1), insts: 81, funcFlags: (readNone: 0, readOnly: 0, noRecurse: 0, returnDoesNotAlias: 0, noInline: 0, alwaysInline: 0, noUnwind: 0, mayThrow: 1, hasUnknownCall: 1, mustBeUnreachable: 0), calls: ((callee: ^68, relbf: 40064), (callee: ^11)), refs: (^14, ^88)))) ; guid = 11061522491305852095
^91 = gv: (name: "_ZN11xercesc_2_519XTemplateSerializer11storeObjectEPNS_16RefArrayVectorOfItEERNS_16XSerializeEngineE") ; guid = 11296548593341214855
^92 = gv: (name: "_ZN11xercesc_2_530ArrayIndexOutOfBoundsExceptionD0Ev", summaries: (function: (module: ^0, flags: (linkage: linkonce_odr, visibility: default, notEligibleToImport: 1, live: 0, dsoLocal: 1, canAutoHide: 1), insts: 10, funcFlags: (readNone: 0, readOnly: 0, noRecurse: 0, returnDoesNotAlias: 0, noInline: 0, alwaysInline: 0, noUnwind: 0, mayThrow: 1, hasUnknownCall: 0, mustBeUnreachable: 0), calls: ((callee: ^111, relbf: 256), (callee: ^68, relbf: 255), (callee: ^11)), refs: (^14)))) ; guid = 11465349774039697343
^93 = gv: (name: "_ZNK11xercesc_2_517DatatypeValidator26getCanonicalRepresentationEPKtPNS_13MemoryManagerEb") ; guid = 11531298933576112464
^94 = gv: (name: "_ZN11xercesc_2_523AbstractStringValidator12checkContentEPKtPNS_17ValidationContextEbPNS_13MemoryManagerE", summaries: (function: (module: ^0, flags: (linkage: external, visibility: default, notEligibleToImport: 1, live: 0, dsoLocal: 1, canAutoHide: 0), insts: 277, funcFlags: (readNone: 0, readOnly: 0, noRecurse: 0, returnDoesNotAlias: 0, noInline: 0, alwaysInline: 0, noUnwind: 0, mayThrow: 1, hasUnknownCall: 1, mustBeUnreachable: 0), calls: ((callee: ^104, relbf: 47), (callee: ^39, relbf: 47), (callee: ^16), (callee: ^32), (callee: ^117), (callee: ^76), (callee: ^96), (callee: ^45), (callee: ^80), (callee: ^100, relbf: 127), (callee: ^3), (callee: ^67, relbf: 9), (callee: ^122), (callee: ^11)), refs: (^14, ^5, ^52, ^89, ^1, ^111)))) ; guid = 11716110671187999748
^95 = gv: (name: "_ZNK11xercesc_2_529InvalidDatatypeValueException7getTypeEv", summaries: (function: (module: ^0, flags: (linkage: linkonce_odr, visibility: default, notEligibleToImport: 1, live: 0, dsoLocal: 1, canAutoHide: 1), insts: 1, funcFlags: (readNone: 0, readOnly: 0, noRecurse: 0, returnDoesNotAlias: 0, noInline: 0, alwaysInline: 0, noUnwind: 1, mayThrow: 0, hasUnknownCall: 0, mustBeUnreachable: 0), refs: (^65)))) ; guid = 11730531287650795250
^96 = gv: (name: "__cxa_throw") ; guid = 11744965366672030630
^97 = gv: (name: "_ZTVN11xercesc_2_529InvalidDatatypeFacetExceptionE", summaries: (variable: (module: ^0, flags: (linkage: linkonce_odr, visibility: default, notEligibleToImport: 1, live: 0, dsoLocal: 1, canAutoHide: 1), varFlags: (readonly: 0, writeonly: 0, constant: 1), refs: (^108, ^111, ^69, ^54, ^120)))) ; guid = 11822618473282506439
^98 = gv: (name: "_ZN11xercesc_2_59XMLString13compareStringEPKtS2_") ; guid = 11868538173829885347
^99 = gv: (name: "_ZN11xercesc_2_523AbstractStringValidator21assignAdditionalFacetEPKtS2_PNS_13MemoryManagerE", summaries: (function: (module: ^0, flags: (linkage: external, visibility: default, notEligibleToImport: 1, live: 0, dsoLocal: 1, canAutoHide: 0), insts: 7, funcFlags: (readNone: 0, readOnly: 0, noRecurse: 0, returnDoesNotAlias: 0, noInline: 0, alwaysInline: 0, noUnwind: 0, mayThrow: 1, hasUnknownCall: 0, mustBeUnreachable: 0), calls: ((callee: ^117, relbf: 256), (callee: ^102, relbf: 256), (callee: ^96, relbf: 128), (callee: ^45, relbf: 128)), refs: (^14, ^89, ^108, ^111)))) ; guid = 12084745170218162653
^100 = gv: (name: "_ZN11xercesc_2_517RegularExpression7matchesEPKtPNS_13MemoryManagerE") ; guid = 12363218405789770689
^101 = gv: (name: "_ZN11xercesc_2_513SchemaSymbols15fgELT_MAXLENGTHE") ; guid = 12439892071032501424
^102 = gv: (name: "_ZN11xercesc_2_529InvalidDatatypeFacetExceptionC2EPKcjNS_10XMLExcepts5CodesEPKtS6_S6_S6_PNS_13MemoryManagerE", summaries: (function: (module: ^0, flags: (linkage: linkonce_odr, visibility: default, notEligibleToImport: 1, live: 0, dsoLocal: 1, canAutoHide: 1), insts: 11, funcFlags: (readNone: 0, readOnly: 0, noRecurse: 0, returnDoesNotAlias: 0, noInline: 0, alwaysInline: 0, noUnwind: 0, mayThrow: 1, hasUnknownCall: 0, mustBeUnreachable: 0), calls: ((callee: ^55, relbf: 256), (callee: ^7, relbf: 256), (callee: ^111), (callee: ^11)), refs: (^14, ^97)))) ; guid = 13110480162393781621
^103 = gv: (name: "_ZN11xercesc_2_59XMLString8parseIntEPKtPNS_13MemoryManagerE") ; guid = 13246323493427226703
^104 = gv: (name: "_ZN11xercesc_2_57XMemorynwEmPNS_13MemoryManagerE") ; guid = 13296699221020971970
^105 = gv: (name: "_ZN11xercesc_2_523AbstractStringValidator28classAbstractStringValidatorE", summaries: (variable: (module: ^0, flags: (linkage: external, visibility: default, notEligibleToImport: 1, live: 0, dsoLocal: 1, canAutoHide: 0), varFlags: (readonly: 1, writeonly: 1, constant: 0), refs: (^25, ^86)))) ; guid = 13323206331452645066
^106 = gv: (name: "_ZN11xercesc_2_516XSerializeEnginersERj") ; guid = 13691578622568251947
^107 = gv: (name: "_ZSt9terminatev") ; guid = 13807749166652787960
^108 = gv: (name: "_ZTIN11xercesc_2_529InvalidDatatypeFacetExceptionE", summaries: (variable: (module: ^0, flags: (linkage: linkonce_odr, visibility: default, notEligibleToImport: 1, live: 0, dsoLocal: 1, canAutoHide: 0), varFlags: (readonly: 0, writeonly: 0, constant: 1), refs: (^118, ^52, ^87)))) ; guid = 13929989201963374614
^109 = gv: (name: "_ZTIN11xercesc_2_524RefHashTableOfEnumeratorINS_12KVStringPairEEE", summaries: (variable: (module: ^0, flags: (linkage: linkonce_odr, visibility: default, notEligibleToImport: 1, live: 0, dsoLocal: 1, canAutoHide: 0), varFlags: (readonly: 0, writeonly: 0, constant: 1), refs: (^59, ^27, ^82, ^115)))) ; guid = 14177549184645137988
^110 = gv: (name: "_ZN11xercesc_2_523AbstractStringValidatorC2EPNS_17DatatypeValidatorEPNS_14RefHashTableOfINS_12KVStringPairEEEiNS1_13ValidatorTypeEPNS_13MemoryManagerE", summaries: (function: (module: ^0, flags: (linkage: external, visibility: default, notEligibleToImport: 1, live: 0, dsoLocal: 1, canAutoHide: 0), insts: 14, calls: ((callee: ^66, relbf: 256)), refs: (^60, ^112)))) ; guid = 14205142821196787831
^111 = gv: (name: "_ZN11xercesc_2_512XMLExceptionD2Ev") ; guid = 14507267491752101034
^112 = gv: (name: "_ZN11xercesc_2_513SchemaSymbols15fgINT_MAX_VALUEE") ; guid = 14581338375091098282
^113 = gv: (name: "_ZNK11xercesc_2_530ArrayIndexOutOfBoundsException7getTypeEv", summaries: (function: (module: ^0, flags: (linkage: linkonce_odr, visibility: default, notEligibleToImport: 1, live: 0, dsoLocal: 1, canAutoHide: 1), insts: 1, funcFlags: (readNone: 0, readOnly: 0, noRecurse: 0, returnDoesNotAlias: 0, noInline: 0, alwaysInline: 0, noUnwind: 1, mayThrow: 0, hasUnknownCall: 0, mustBeUnreachable: 0), refs: (^9)))) ; guid = 15072029879596685789
^114 = gv: (name: "_ZTIN11xercesc_2_516RuntimeExceptionE", summaries: (variable: (module: ^0, flags: (linkage: linkonce_odr, visibility: default, notEligibleToImport: 1, live: 0, dsoLocal: 1, canAutoHide: 0), varFlags: (readonly: 0, writeonly: 0, constant: 1), refs: (^81, ^52, ^87)))) ; guid = 15088431603687776015
^115 = gv: (name: "_ZTVN10__cxxabiv121__vmi_class_type_infoE") ; guid = 15154540976975978366
^116 = gv: (name: "__cxa_pure_virtual") ; guid = 15445200097692986839
^117 = gv: (name: "__cxa_allocate_exception") ; guid = 15475840464582149017
^118 = gv: (name: "_ZTSN11xercesc_2_529InvalidDatatypeFacetExceptionE", summaries: (variable: (module: ^0, flags: (linkage: linkonce_odr, visibility: default, notEligibleToImport: 1, live: 0, dsoLocal: 1, canAutoHide: 0), varFlags: (readonly: 0, writeonly: 0, constant: 1)))) ; guid = 15748061121699007589
^119 = gv: (name: "_ZN11xercesc_2_523AbstractStringValidator7compareEPKtS2_PNS_13MemoryManagerE", summaries: (function: (module: ^0, flags: (linkage: external, visibility: default, notEligibleToImport: 1, live: 0, dsoLocal: 1, canAutoHide: 0), insts: 2, calls: ((callee: ^98, relbf: 256))))) ; guid = 15900787188377945850
^120 = gv: (name: "_ZNK11xercesc_2_529InvalidDatatypeFacetException9duplicateEv", summaries: (function: (module: ^0, flags: (linkage: linkonce_odr, visibility: default, notEligibleToImport: 1, live: 0, dsoLocal: 1, canAutoHide: 1), insts: 13, funcFlags: (readNone: 0, readOnly: 0, noRecurse: 0, returnDoesNotAlias: 0, noInline: 0, alwaysInline: 0, noUnwind: 0, mayThrow: 1, hasUnknownCall: 0, mustBeUnreachable: 0), calls: ((callee: ^104, relbf: 256), (callee: ^2, relbf: 256), (callee: ^16), (callee: ^11)), refs: (^14, ^97)))) ; guid = 16099920160733627974
^121 = gv: (name: "_ZTVN10__cxxabiv117__class_type_infoE") ; guid = 16105443863886496782
^122 = gv: (name: "_ZN11xercesc_2_512ArrayJanitorItED2Ev", summaries: (function: (module: ^0, flags: (linkage: linkonce_odr, visibility: default, notEligibleToImport: 1, live: 0, dsoLocal: 1, canAutoHide: 1), insts: 16, funcFlags: (readNone: 0, readOnly: 0, noRecurse: 0, returnDoesNotAlias: 0, noInline: 0, alwaysInline: 0, noUnwind: 0, mayThrow: 0, hasUnknownCall: 1, mustBeUnreachable: 0), calls: ((callee: ^67, relbf: 60))))) ; guid = 16168984724933153475
^123 = gv: (name: "_ZNK11xercesc_2_523AbstractStringValidator13getEnumStringEv", summaries: (function: (module: ^0, flags: (linkage: external, visibility: default, notEligibleToImport: 1, live: 0, dsoLocal: 1, canAutoHide: 0), insts: 3, funcFlags: (readNone: 0, readOnly: 1, noRecurse: 1, returnDoesNotAlias: 0, noInline: 0, alwaysInline: 0, noUnwind: 1, mayThrow: 0, hasUnknownCall: 0, mustBeUnreachable: 0)))) ; guid = 16177447475788745621
^124 = gv: (name: "_ZNK11xercesc_2_523AbstractStringValidator20checkAdditionalFacetEPKtPNS_13MemoryManagerE", summaries: (function: (module: ^0, flags: (linkage: external, visibility: default, notEligibleToImport: 1, live: 0, dsoLocal: 1, canAutoHide: 0), insts: 1, funcFlags: (readNone: 1, readOnly: 0, noRecurse: 1, returnDoesNotAlias: 0, noInline: 0, alwaysInline: 0, noUnwind: 1, mayThrow: 0, hasUnknownCall: 0, mustBeUnreachable: 0)))) ; guid = 16300010159161923109
^125 = gv: (name: "_ZTSN11xercesc_2_522NoSuchElementExceptionE", summaries: (variable: (module: ^0, flags: (linkage: linkonce_odr, visibility: default, notEligibleToImport: 1, live: 0, dsoLocal: 1, canAutoHide: 0), varFlags: (readonly: 0, writeonly: 0, constant: 1)))) ; guid = 16558210163346376615
^126 = gv: (name: "_ZN11xercesc_2_523AbstractStringValidator16inspectFacetBaseEPNS_13MemoryManagerE", summaries: (function: (module: ^0, flags: (linkage: external, visibility: default, notEligibleToImport: 1, live: 0, dsoLocal: 1, canAutoHide: 0), insts: 335, funcFlags: (readNone: 0, readOnly: 0, noRecurse: 0, returnDoesNotAlias: 0, noInline: 0, alwaysInline: 0, noUnwind: 0, mayThrow: 1, hasUnknownCall: 1, mustBeUnreachable: 0), calls: ((callee: ^17), (callee: ^117), (callee: ^102), (callee: ^96), (callee: ^45), (callee: ^8)), refs: (^14, ^89, ^108, ^111, ^70, ^15)))) ; guid = 17060146332791968717
^127 = gv: (name: "_ZN11xercesc_2_529InvalidDatatypeFacetExceptionC2EPKcjNS_10XMLExcepts5CodesEPNS_13MemoryManagerE", summaries: (function: (module: ^0, flags: (linkage: linkonce_odr, visibility: default, notEligibleToImport: 1, live: 0, dsoLocal: 1, canAutoHide: 1), insts: 11, funcFlags: (readNone: 0, readOnly: 0, noRecurse: 0, returnDoesNotAlias: 0, noInline: 0, alwaysInline: 0, noUnwind: 0, mayThrow: 1, hasUnknownCall: 0, mustBeUnreachable: 0), calls: ((callee: ^55, relbf: 256), (callee: ^42, relbf: 256), (callee: ^111), (callee: ^11)), refs: (^14, ^97)))) ; guid = 17080865128447325686
^128 = gv: (name: "_ZNK11xercesc_2_522NoSuchElementException9duplicateEv", summaries: (function: (module: ^0, flags: (linkage: linkonce_odr, visibility: default, notEligibleToImport: 1, live: 0, dsoLocal: 1, canAutoHide: 1), insts: 13, funcFlags: (readNone: 0, readOnly: 0, noRecurse: 0, returnDoesNotAlias: 0, noInline: 0, alwaysInline: 0, noUnwind: 0, mayThrow: 1, hasUnknownCall: 0, mustBeUnreachable: 0), calls: ((callee: ^104, relbf: 256), (callee: ^2, relbf: 256), (callee: ^16), (callee: ^11)), refs: (^14, ^79)))) ; guid = 17520427245649569235
^129 = gv: (name: ".str.2", summaries: (variable: (module: ^0, flags: (linkage: private, visibility: default, notEligibleToImport: 1, live: 0, dsoLocal: 1, canAutoHide: 0), varFlags: (readonly: 1, writeonly: 0, constant: 1)))) ; guid = 17818034528964796997
^130 = gv: (name: "_ZN11xercesc_2_516XSerializeEnginersERb") ; guid = 17988256066151796487
^131 = gv: (name: "_ZN11xercesc_2_523AbstractStringValidator12inspectFacetEPNS_13MemoryManagerE", summaries: (function: (module: ^0, flags: (linkage: external, visibility: default, notEligibleToImport: 1, live: 0, dsoLocal: 1, canAutoHide: 0), insts: 54, funcFlags: (readNone: 0, readOnly: 0, noRecurse: 0, returnDoesNotAlias: 0, noInline: 0, alwaysInline: 0, noUnwind: 0, mayThrow: 1, hasUnknownCall: 0, mustBeUnreachable: 0), calls: ((callee: ^117), (callee: ^127), (callee: ^96), (callee: ^45), (callee: ^17), (callee: ^102)), refs: (^14, ^89, ^108, ^111)))) ; guid = 18008409386476245118
^132 = gv: (name: "_ZNK11xercesc_2_523AbstractStringValidator31checkAdditionalFacetConstraintsEPNS_13MemoryManagerE", summaries: (function: (module: ^0, flags: (linkage: external, visibility: default, notEligibleToImport: 1, live: 0, dsoLocal: 1, canAutoHide: 0), insts: 1, funcFlags: (readNone: 1, readOnly: 0, noRecurse: 1, returnDoesNotAlias: 0, noInline: 0, alwaysInline: 0, noUnwind: 1, mayThrow: 0, hasUnknownCall: 0, mustBeUnreachable: 0)))) ; guid = 18096631038042620598
^133 = gv: (name: "_ZTVN11xercesc_2_529InvalidDatatypeValueExceptionE", summaries: (variable: (module: ^0, flags: (linkage: linkonce_odr, visibility: default, notEligibleToImport: 1, live: 0, dsoLocal: 1, canAutoHide: 1), varFlags: (readonly: 0, writeonly: 0, constant: 1), refs: (^1, ^111, ^74, ^95, ^31)))) ; guid = 18258396018139796241
^134 = flags: 8
^135 = blockcount: 0
