; ModuleID = 'DOMConfigurationImpl.cpp'
source_filename = "DOMConfigurationImpl.cpp"
target datalayout = "e-m:e-p270:32:32-p271:32:32-p272:64:64-i64:64-f80:128-n8:16:32:64-S128"
target triple = "x86_64-unknown-linux-gnu"

%"class.xercesc_2_5::DOMConfigurationImpl" = type { %"class.xercesc_2_5::DOMConfiguration", i16, ptr, ptr, ptr, ptr }
%"class.xercesc_2_5::DOMConfiguration" = type { ptr }
%"class.xercesc_2_5::ArrayJanitor" = type { ptr, ptr }
%"class.xercesc_2_5::DOMException" = type { ptr, i32, ptr }

$__clang_call_terminate = comdat any

$_ZN11xercesc_2_59XMLString6equalsEPKtS2_ = comdat any

$_ZN11xercesc_2_512ArrayJanitorItED2Ev = comdat any

$_ZTSN11xercesc_2_516DOMConfigurationE = comdat any

$_ZTIN11xercesc_2_516DOMConfigurationE = comdat any

@_ZN11xercesc_2_520DOMConfigurationImpl6fFalseE = dso_local constant i8 0, align 1
@_ZN11xercesc_2_520DOMConfigurationImpl5fTrueE = dso_local constant i8 1, align 1
@_ZN11xercesc_2_520DOMConfigurationImpl16fgCANONICAL_FORME = dso_local local_unnamed_addr constant [15 x i16] [i16 99, i16 97, i16 110, i16 111, i16 110, i16 105, i16 99, i16 97, i16 108, i16 45, i16 102, i16 111, i16 114, i16 109, i16 0], align 16
@_ZN11xercesc_2_520DOMConfigurationImpl16fgCDATA_SECTIONSE = dso_local local_unnamed_addr constant [15 x i16] [i16 99, i16 100, i16 97, i16 116, i16 97, i16 45, i16 115, i16 101, i16 99, i16 116, i16 105, i16 111, i16 110, i16 115, i16 0], align 16
@_ZN11xercesc_2_520DOMConfigurationImpl10fgCOMMENTSE = dso_local local_unnamed_addr constant [9 x i16] [i16 99, i16 111, i16 109, i16 109, i16 101, i16 110, i16 116, i16 115, i16 0], align 16
@_ZN11xercesc_2_520DOMConfigurationImpl24fgDATATYPE_NORMALIZATIONE = dso_local local_unnamed_addr constant [23 x i16] [i16 100, i16 97, i16 116, i16 97, i16 116, i16 121, i16 112, i16 101, i16 45, i16 110, i16 111, i16 114, i16 109, i16 97, i16 108, i16 105, i16 122, i16 97, i16 116, i16 105, i16 111, i16 110, i16 0], align 16
@_ZN11xercesc_2_520DOMConfigurationImpl25fgDISCARD_DEFAULT_CONTENTE = dso_local local_unnamed_addr constant [24 x i16] [i16 100, i16 105, i16 115, i16 99, i16 97, i16 114, i16 100, i16 45, i16 100, i16 101, i16 102, i16 97, i16 117, i16 108, i16 116, i16 45, i16 99, i16 111, i16 110, i16 116, i16 101, i16 110, i16 116, i16 0], align 16
@_ZN11xercesc_2_520DOMConfigurationImpl10fgENTITIESE = dso_local local_unnamed_addr constant [9 x i16] [i16 101, i16 110, i16 116, i16 105, i16 116, i16 105, i16 101, i16 115, i16 0], align 16
@_ZN11xercesc_2_520DOMConfigurationImpl9fgINFOSETE = dso_local constant [8 x i16] [i16 105, i16 110, i16 102, i16 111, i16 115, i16 101, i16 116, i16 0], align 16
@_ZN11xercesc_2_520DOMConfigurationImpl12fgNAMESPACESE = dso_local constant [11 x i16] [i16 110, i16 97, i16 109, i16 101, i16 115, i16 112, i16 97, i16 99, i16 101, i16 115, i16 0], align 16
@_ZN11xercesc_2_520DOMConfigurationImpl24fgNAMESPACE_DECLARATIONSE = dso_local constant [23 x i16] [i16 110, i16 97, i16 109, i16 101, i16 115, i16 112, i16 97, i16 99, i16 101, i16 45, i16 100, i16 101, i16 99, i16 108, i16 97, i16 114, i16 97, i16 116, i16 105, i16 111, i16 110, i16 115, i16 0], align 16
@_ZN11xercesc_2_520DOMConfigurationImpl22fgNORMALIZE_CHARACTERSE = dso_local constant [21 x i16] [i16 110, i16 111, i16 114, i16 109, i16 97, i16 108, i16 105, i16 122, i16 101, i16 45, i16 99, i16 104, i16 97, i16 114, i16 97, i16 99, i16 116, i16 101, i16 114, i16 115, i16 0], align 16
@_ZN11xercesc_2_520DOMConfigurationImpl22fgSPLIT_CDATA_SECTIONSE = dso_local constant [21 x i16] [i16 115, i16 112, i16 108, i16 105, i16 116, i16 45, i16 99, i16 100, i16 97, i16 116, i16 97, i16 45, i16 115, i16 101, i16 99, i16 116, i16 105, i16 111, i16 110, i16 115, i16 0], align 16
@_ZN11xercesc_2_520DOMConfigurationImpl10fgVALIDATEE = dso_local constant [9 x i16] [i16 118, i16 97, i16 108, i16 105, i16 100, i16 97, i16 116, i16 101, i16 0], align 16
@_ZN11xercesc_2_520DOMConfigurationImpl20fgVALIDATE_IF_SCHEMAE = dso_local constant [19 x i16] [i16 118, i16 97, i16 108, i16 105, i16 100, i16 97, i16 116, i16 101, i16 45, i16 105, i16 102, i16 45, i16 115, i16 99, i16 104, i16 101, i16 109, i16 97, i16 0], align 16
@_ZN11xercesc_2_520DOMConfigurationImpl31fgWHITESPACE_IN_ELEMENT_CONTENTE = dso_local constant [30 x i16] [i16 119, i16 104, i16 105, i16 116, i16 101, i16 115, i16 112, i16 97, i16 99, i16 101, i16 45, i16 105, i16 110, i16 45, i16 101, i16 108, i16 101, i16 109, i16 101, i16 110, i16 116, i16 45, i16 99, i16 111, i16 110, i16 116, i16 101, i16 110, i16 116, i16 0], align 16
@_ZN11xercesc_2_520DOMConfigurationImpl15fgERROR_HANDLERE = dso_local local_unnamed_addr constant [14 x i16] [i16 101, i16 114, i16 114, i16 111, i16 114, i16 45, i16 104, i16 97, i16 110, i16 100, i16 108, i16 101, i16 114, i16 0], align 16
@_ZN11xercesc_2_520DOMConfigurationImpl13fgSCHEMA_TYPEE = dso_local local_unnamed_addr constant [12 x i16] [i16 115, i16 99, i16 104, i16 101, i16 109, i16 97, i16 45, i16 116, i16 121, i16 112, i16 101, i16 0], align 16
@_ZN11xercesc_2_520DOMConfigurationImpl17fgSCHEMA_LOCATIONE = dso_local local_unnamed_addr constant [16 x i16] [i16 115, i16 99, i16 104, i16 101, i16 109, i16 97, i16 45, i16 108, i16 111, i16 99, i16 97, i16 116, i16 105, i16 111, i16 110, i16 0], align 16
@_ZN11xercesc_2_520DOMConfigurationImpl15fDEFAULT_VALUESE = dso_local local_unnamed_addr constant i16 9622, align 2
@_ZTVN11xercesc_2_520DOMConfigurationImplE = dso_local unnamed_addr constant { [7 x ptr] } { [7 x ptr] [ptr null, ptr @_ZTIN11xercesc_2_520DOMConfigurationImplE, ptr @_ZN11xercesc_2_520DOMConfigurationImpl12setParameterEPKtPKv, ptr @_ZNK11xercesc_2_520DOMConfigurationImpl12getParameterEPKt, ptr @_ZNK11xercesc_2_520DOMConfigurationImpl15canSetParameterEPKtPKv, ptr @_ZN11xercesc_2_520DOMConfigurationImplD2Ev, ptr @_ZN11xercesc_2_520DOMConfigurationImplD0Ev] }, align 8, !type !0, !type !1, !type !2, !type !3, !type !4, !type !5, !type !6, !type !7
@_ZTIN11xercesc_2_512DOMExceptionE = external constant ptr
@_ZTVN10__cxxabiv117__class_type_infoE = external global ptr
@_ZTVN10__cxxabiv120__si_class_type_infoE = external global ptr
@_ZTSN11xercesc_2_520DOMConfigurationImplE = dso_local constant [38 x i8] c"N11xercesc_2_520DOMConfigurationImplE\00", align 1
@_ZTSN11xercesc_2_516DOMConfigurationE = linkonce_odr dso_local constant [34 x i8] c"N11xercesc_2_516DOMConfigurationE\00", comdat, align 1
@_ZTIN11xercesc_2_516DOMConfigurationE = linkonce_odr dso_local constant { ptr, ptr } { ptr getelementptr inbounds (ptr, ptr @_ZTVN10__cxxabiv117__class_type_infoE, i64 2), ptr @_ZTSN11xercesc_2_516DOMConfigurationE }, comdat, align 8
@_ZTIN11xercesc_2_520DOMConfigurationImplE = dso_local constant { ptr, ptr, ptr } { ptr getelementptr inbounds (ptr, ptr @_ZTVN10__cxxabiv120__si_class_type_infoE, i64 2), ptr @_ZTSN11xercesc_2_520DOMConfigurationImplE, ptr @_ZTIN11xercesc_2_516DOMConfigurationE }, align 8

@_ZN11xercesc_2_520DOMConfigurationImplC1EPNS_13MemoryManagerE = dso_local unnamed_addr alias void (ptr, ptr), ptr @_ZN11xercesc_2_520DOMConfigurationImplC2EPNS_13MemoryManagerE
@_ZN11xercesc_2_520DOMConfigurationImplD1Ev = dso_local unnamed_addr alias void (ptr), ptr @_ZN11xercesc_2_520DOMConfigurationImplD2Ev

declare i32 @__gxx_personality_v0(...)

; Function Attrs: nobuiltin nounwind
declare void @_ZdlPv(ptr noundef) local_unnamed_addr #0

; Function Attrs: mustprogress nofree nosync nounwind willreturn memory(argmem: write) uwtable
define dso_local void @_ZN11xercesc_2_520DOMConfigurationImplC2EPNS_13MemoryManagerE(ptr nocapture noundef nonnull writeonly align 8 dereferenceable(48) %0, ptr noundef %1) unnamed_addr #1 align 2 {
  store ptr getelementptr inbounds ({ [7 x ptr] }, ptr @_ZTVN11xercesc_2_520DOMConfigurationImplE, i64 0, inrange i32 0, i64 2), ptr %0, align 8, !tbaa !15
  %3 = getelementptr inbounds %"class.xercesc_2_5::DOMConfigurationImpl", ptr %0, i64 0, i32 1
  store i16 9622, ptr %3, align 8, !tbaa !18
  %4 = getelementptr inbounds %"class.xercesc_2_5::DOMConfigurationImpl", ptr %0, i64 0, i32 2
  %5 = getelementptr inbounds %"class.xercesc_2_5::DOMConfigurationImpl", ptr %0, i64 0, i32 5
  tail call void @llvm.memset.p0.i64(ptr noundef nonnull align 8 dereferenceable(24) %4, i8 0, i64 24, i1 false)
  store ptr %1, ptr %5, align 8, !tbaa !24
  ret void
}

; Function Attrs: mustprogress nofree norecurse nosync nounwind willreturn memory(none) uwtable
define dso_local void @_ZN11xercesc_2_520DOMConfigurationImplD2Ev(ptr nocapture nonnull readnone align 8 %0) unnamed_addr #2 align 2 {
  ret void
}

; Function Attrs: nounwind uwtable
define dso_local void @_ZN11xercesc_2_520DOMConfigurationImplD0Ev(ptr noundef nonnull align 8 dereferenceable(48) %0) unnamed_addr #3 align 2 personality ptr @__gxx_personality_v0 {
  tail call void @_ZdlPv(ptr noundef nonnull %0) #14
  ret void
}

; Function Attrs: uwtable
define dso_local void @_ZN11xercesc_2_520DOMConfigurationImpl12setParameterEPKtPKv(ptr noundef nonnull align 8 dereferenceable(48) %0, ptr noundef %1, ptr noundef %2) unnamed_addr #4 align 2 personality ptr @__gxx_personality_v0 {
  %4 = alloca %"class.xercesc_2_5::ArrayJanitor", align 8
  %5 = alloca %"class.xercesc_2_5::DOMException", align 8
  %6 = getelementptr inbounds %"class.xercesc_2_5::DOMConfigurationImpl", ptr %0, i64 0, i32 5
  %7 = load ptr, ptr %6, align 8, !tbaa !24
  %8 = icmp eq ptr %1, null
  br i1 %8, label %30, label %9

9:                                                ; preds = %3
  %10 = load i16, ptr %1, align 2, !tbaa !25
  %11 = icmp eq i16 %10, 0
  br i1 %11, label %23, label %12

12:                                               ; preds = %9, %12
  %13 = phi ptr [ %14, %12 ], [ %1, %9 ]
  %14 = getelementptr inbounds i16, ptr %13, i64 1
  %15 = load i16, ptr %14, align 2, !tbaa !25
  %16 = icmp eq i16 %15, 0
  br i1 %16, label %17, label %12

17:                                               ; preds = %12
  %18 = ptrtoint ptr %14 to i64
  %19 = ptrtoint ptr %1 to i64
  %20 = sub i64 %18, %19
  %21 = add i64 %20, 2
  %22 = and i64 %21, 8589934590
  br label %23

23:                                               ; preds = %17, %9
  %24 = phi i64 [ %22, %17 ], [ 2, %9 ]
  %25 = load ptr, ptr %7, align 8, !tbaa !15
  %26 = getelementptr inbounds ptr, ptr %25, i64 2
  %27 = load ptr, ptr %26, align 8
  %28 = tail call noundef ptr %27(ptr noundef nonnull align 8 dereferenceable(8) %7, i64 noundef %24)
  tail call void @llvm.memcpy.p0.p0.i64(ptr align 2 %28, ptr nonnull align 2 %1, i64 %24, i1 false)
  %29 = load ptr, ptr %6, align 8, !tbaa !24
  br label %30

30:                                               ; preds = %3, %23
  %31 = phi ptr [ %29, %23 ], [ %7, %3 ]
  %32 = phi ptr [ %28, %23 ], [ null, %3 ]
  call void @llvm.lifetime.start.p0(i64 16, ptr nonnull %4) #15
  store ptr %32, ptr %4, align 8, !tbaa !26
  %33 = getelementptr inbounds %"class.xercesc_2_5::ArrayJanitor", ptr %4, i64 0, i32 1
  store ptr %31, ptr %33, align 8, !tbaa !28
  invoke void @_ZN11xercesc_2_59XMLString9lowerCaseEPt(ptr noundef %32)
          to label %34 unwind label %43

34:                                               ; preds = %30
  %35 = load ptr, ptr %0, align 8, !tbaa !15
  %36 = getelementptr inbounds ptr, ptr %35, i64 2
  %37 = load ptr, ptr %36, align 8
  %38 = invoke noundef zeroext i1 %37(ptr noundef nonnull align 8 dereferenceable(48) %0, ptr noundef %32, ptr noundef %2)
          to label %39 unwind label %43

39:                                               ; preds = %34
  br i1 %38, label %47, label %40

40:                                               ; preds = %39
  %41 = tail call ptr @__cxa_allocate_exception(i64 24) #15
  invoke void @_ZN11xercesc_2_512DOMExceptionC1EsPKt(ptr noundef nonnull align 8 dereferenceable(24) %41, i16 noundef signext 9, ptr noundef null)
          to label %42 unwind label %45

42:                                               ; preds = %40
  invoke void @__cxa_throw(ptr nonnull %41, ptr nonnull @_ZTIN11xercesc_2_512DOMExceptionE, ptr nonnull @_ZN11xercesc_2_512DOMExceptionD1Ev) #16
          to label %147 unwind label %43

43:                                               ; preds = %42, %34, %30
  %44 = landingpad { ptr, i32 }
          cleanup
  br label %141

45:                                               ; preds = %40
  %46 = landingpad { ptr, i32 }
          cleanup
  tail call void @__cxa_free_exception(ptr %41) #15
  br label %141

47:                                               ; preds = %39
  %48 = invoke noundef i32 @_ZNK11xercesc_2_520DOMConfigurationImpl14getFeatureFlagEPKt(ptr noundef nonnull align 8 dereferenceable(48) %0, ptr noundef %32)
          to label %60 unwind label %49, !range !29

49:                                               ; preds = %47
  %50 = landingpad { ptr, i32 }
          cleanup
          catch ptr @_ZTIN11xercesc_2_512DOMExceptionE
  %51 = extractvalue { ptr, i32 } %50, 0
  %52 = extractvalue { ptr, i32 } %50, 1
  %53 = tail call i32 @llvm.eh.typeid.for(ptr nonnull @_ZTIN11xercesc_2_512DOMExceptionE) #15
  %54 = icmp eq i32 %52, %53
  br i1 %54, label %55, label %141

55:                                               ; preds = %49
  call void @llvm.lifetime.start.p0(i64 24, ptr nonnull %5) #15
  %56 = tail call ptr @__cxa_get_exception_ptr(ptr %51) #15
  invoke void @_ZN11xercesc_2_512DOMExceptionC1ERKS0_(ptr noundef nonnull align 8 dereferenceable(24) %5, ptr noundef nonnull align 8 dereferenceable(24) %56)
          to label %57 unwind label %144

57:                                               ; preds = %55
  %58 = call ptr @__cxa_begin_catch(ptr %51) #15
  invoke void @_ZN11xercesc_2_512DOMExceptionD1Ev(ptr noundef nonnull align 8 dereferenceable(24) %5)
          to label %59 unwind label %68

59:                                               ; preds = %57
  invoke void @__cxa_end_catch()
          to label %77 unwind label %70

60:                                               ; preds = %47
  %61 = trunc i32 %48 to i16
  %62 = load i8, ptr %2, align 1, !tbaa !30, !range !32, !noundef !33
  %63 = icmp eq i8 %62, 0
  %64 = getelementptr inbounds %"class.xercesc_2_5::DOMConfigurationImpl", ptr %0, i64 0, i32 1
  %65 = load i16, ptr %64, align 8, !tbaa !18
  br i1 %63, label %74, label %66

66:                                               ; preds = %60
  %67 = or i16 %65, %61
  store i16 %67, ptr %64, align 8, !tbaa !18
  br label %131

68:                                               ; preds = %57
  %69 = landingpad { ptr, i32 }
          cleanup
  invoke void @__cxa_end_catch()
          to label %72 unwind label %144

70:                                               ; preds = %59
  %71 = landingpad { ptr, i32 }
          cleanup
  br label %72

72:                                               ; preds = %68, %70
  %73 = phi { ptr, i32 } [ %71, %70 ], [ %69, %68 ]
  call void @llvm.lifetime.end.p0(i64 24, ptr nonnull %5) #15
  br label %141

74:                                               ; preds = %60
  %75 = xor i16 %61, -1
  %76 = and i16 %65, %75
  store i16 %76, ptr %64, align 8, !tbaa !18
  br label %131

77:                                               ; preds = %59
  call void @llvm.lifetime.end.p0(i64 24, ptr nonnull %5) #15
  %78 = icmp eq ptr %32, null
  br i1 %78, label %126, label %79

79:                                               ; preds = %77
  %80 = load i16, ptr %32, align 2, !tbaa !25
  %81 = icmp eq i16 %80, 101
  br i1 %81, label %82, label %97

82:                                               ; preds = %79, %87
  %83 = phi i16 [ %90, %87 ], [ 101, %79 ]
  %84 = phi ptr [ %89, %87 ], [ @_ZN11xercesc_2_520DOMConfigurationImpl15fgERROR_HANDLERE, %79 ]
  %85 = phi ptr [ %88, %87 ], [ %32, %79 ]
  %86 = icmp eq i16 %83, 0
  br i1 %86, label %93, label %87

87:                                               ; preds = %82
  %88 = getelementptr inbounds i16, ptr %85, i64 1
  %89 = getelementptr inbounds i16, ptr %84, i64 1
  %90 = load i16, ptr %88, align 2, !tbaa !25
  %91 = load i16, ptr %89, align 2, !tbaa !25
  %92 = icmp eq i16 %90, %91
  br i1 %92, label %82, label %97

93:                                               ; preds = %82
  %94 = getelementptr inbounds %"class.xercesc_2_5::DOMConfigurationImpl", ptr %0, i64 0, i32 2
  store ptr %2, ptr %94, align 8, !tbaa !34
  br label %131

95:                                               ; preds = %128
  %96 = landingpad { ptr, i32 }
          cleanup
  br label %141

97:                                               ; preds = %87, %79
  %98 = icmp eq i16 %80, 115
  br i1 %98, label %99, label %126

99:                                               ; preds = %97, %104
  %100 = phi i16 [ %107, %104 ], [ 115, %97 ]
  %101 = phi ptr [ %106, %104 ], [ @_ZN11xercesc_2_520DOMConfigurationImpl13fgSCHEMA_TYPEE, %97 ]
  %102 = phi ptr [ %105, %104 ], [ %32, %97 ]
  %103 = icmp eq i16 %100, 0
  br i1 %103, label %110, label %104

104:                                              ; preds = %99
  %105 = getelementptr inbounds i16, ptr %102, i64 1
  %106 = getelementptr inbounds i16, ptr %101, i64 1
  %107 = load i16, ptr %105, align 2, !tbaa !25
  %108 = load i16, ptr %106, align 2, !tbaa !25
  %109 = icmp eq i16 %107, %108
  br i1 %109, label %99, label %112

110:                                              ; preds = %99
  %111 = getelementptr inbounds %"class.xercesc_2_5::DOMConfigurationImpl", ptr %0, i64 0, i32 3
  store ptr %2, ptr %111, align 8, !tbaa !35
  br label %131

112:                                              ; preds = %104
  br i1 %98, label %113, label %126

113:                                              ; preds = %112, %118
  %114 = phi i16 [ %121, %118 ], [ 115, %112 ]
  %115 = phi ptr [ %120, %118 ], [ @_ZN11xercesc_2_520DOMConfigurationImpl17fgSCHEMA_LOCATIONE, %112 ]
  %116 = phi ptr [ %119, %118 ], [ %32, %112 ]
  %117 = icmp eq i16 %114, 0
  br i1 %117, label %124, label %118

118:                                              ; preds = %113
  %119 = getelementptr inbounds i16, ptr %116, i64 1
  %120 = getelementptr inbounds i16, ptr %115, i64 1
  %121 = load i16, ptr %119, align 2, !tbaa !25
  %122 = load i16, ptr %120, align 2, !tbaa !25
  %123 = icmp eq i16 %121, %122
  br i1 %123, label %113, label %126

124:                                              ; preds = %113
  %125 = getelementptr inbounds %"class.xercesc_2_5::DOMConfigurationImpl", ptr %0, i64 0, i32 4
  store ptr %2, ptr %125, align 8, !tbaa !36
  br label %131

126:                                              ; preds = %118, %97, %77, %112
  %127 = call ptr @__cxa_allocate_exception(i64 24) #15
  invoke void @_ZN11xercesc_2_512DOMExceptionC1EsPKt(ptr noundef nonnull align 8 dereferenceable(24) %127, i16 noundef signext 8, ptr noundef null)
          to label %128 unwind label %129

128:                                              ; preds = %126
  invoke void @__cxa_throw(ptr nonnull %127, ptr nonnull @_ZTIN11xercesc_2_512DOMExceptionE, ptr nonnull @_ZN11xercesc_2_512DOMExceptionD1Ev) #16
          to label %147 unwind label %95

129:                                              ; preds = %126
  %130 = landingpad { ptr, i32 }
          cleanup
  call void @__cxa_free_exception(ptr %127) #15
  br label %141

131:                                              ; preds = %93, %124, %110, %66, %74
  %132 = icmp eq ptr %32, null
  br i1 %132, label %140, label %133

133:                                              ; preds = %131
  %134 = icmp eq ptr %31, null
  br i1 %134, label %139, label %135

135:                                              ; preds = %133
  %136 = load ptr, ptr %31, align 8, !tbaa !15
  %137 = getelementptr inbounds ptr, ptr %136, i64 3
  %138 = load ptr, ptr %137, align 8
  call void %138(ptr noundef nonnull align 8 dereferenceable(8) %31, ptr noundef nonnull %32)
  br label %140

139:                                              ; preds = %133
  call void @_ZdaPv(ptr noundef nonnull %32) #14
  br label %140

140:                                              ; preds = %131, %135, %139
  call void @llvm.lifetime.end.p0(i64 16, ptr nonnull %4) #15
  ret void

141:                                              ; preds = %49, %72, %95, %129, %45, %43
  %142 = phi { ptr, i32 } [ %50, %49 ], [ %73, %72 ], [ %96, %95 ], [ %130, %129 ], [ %46, %45 ], [ %44, %43 ]
  invoke void @_ZN11xercesc_2_512ArrayJanitorItED2Ev(ptr noundef nonnull align 8 dereferenceable(16) %4)
          to label %143 unwind label %144

143:                                              ; preds = %141
  call void @llvm.lifetime.end.p0(i64 16, ptr nonnull %4) #15
  resume { ptr, i32 } %142

144:                                              ; preds = %141, %68, %55
  %145 = landingpad { ptr, i32 }
          catch ptr null
  %146 = extractvalue { ptr, i32 } %145, 0
  call void @__clang_call_terminate(ptr %146) #17
  unreachable

147:                                              ; preds = %128, %42
  unreachable
}

; Function Attrs: mustprogress nocallback nofree nosync nounwind willreturn memory(argmem: readwrite)
declare void @llvm.lifetime.start.p0(i64 immarg, ptr nocapture) #5

declare void @_ZN11xercesc_2_59XMLString9lowerCaseEPt(ptr noundef) local_unnamed_addr #6

declare ptr @__cxa_allocate_exception(i64) local_unnamed_addr

declare void @_ZN11xercesc_2_512DOMExceptionC1EsPKt(ptr noundef nonnull align 8 dereferenceable(24), i16 noundef signext, ptr noundef) unnamed_addr #6

declare void @__cxa_free_exception(ptr) local_unnamed_addr

declare void @_ZN11xercesc_2_512DOMExceptionD1Ev(ptr noundef nonnull align 8 dereferenceable(24)) unnamed_addr #6

declare void @__cxa_throw(ptr, ptr, ptr) local_unnamed_addr

; Function Attrs: uwtable
define dso_local noundef i32 @_ZNK11xercesc_2_520DOMConfigurationImpl14getFeatureFlagEPKt(ptr nocapture noundef nonnull readonly align 8 dereferenceable(48) %0, ptr noundef %1) local_unnamed_addr #4 align 2 personality ptr @__gxx_personality_v0 {
  %3 = alloca %"class.xercesc_2_5::ArrayJanitor", align 8
  %4 = getelementptr inbounds %"class.xercesc_2_5::DOMConfigurationImpl", ptr %0, i64 0, i32 5
  %5 = load ptr, ptr %4, align 8, !tbaa !24
  %6 = icmp eq ptr %1, null
  br i1 %6, label %28, label %7

7:                                                ; preds = %2
  %8 = load i16, ptr %1, align 2, !tbaa !25
  %9 = icmp eq i16 %8, 0
  br i1 %9, label %21, label %10

10:                                               ; preds = %7, %10
  %11 = phi ptr [ %12, %10 ], [ %1, %7 ]
  %12 = getelementptr inbounds i16, ptr %11, i64 1
  %13 = load i16, ptr %12, align 2, !tbaa !25
  %14 = icmp eq i16 %13, 0
  br i1 %14, label %15, label %10

15:                                               ; preds = %10
  %16 = ptrtoint ptr %12 to i64
  %17 = ptrtoint ptr %1 to i64
  %18 = sub i64 %16, %17
  %19 = add i64 %18, 2
  %20 = and i64 %19, 8589934590
  br label %21

21:                                               ; preds = %15, %7
  %22 = phi i64 [ %20, %15 ], [ 2, %7 ]
  %23 = load ptr, ptr %5, align 8, !tbaa !15
  %24 = getelementptr inbounds ptr, ptr %23, i64 2
  %25 = load ptr, ptr %24, align 8
  %26 = tail call noundef ptr %25(ptr noundef nonnull align 8 dereferenceable(8) %5, i64 noundef %22)
  tail call void @llvm.memcpy.p0.p0.i64(ptr align 2 %26, ptr nonnull align 2 %1, i64 %22, i1 false)
  %27 = load ptr, ptr %4, align 8, !tbaa !24
  br label %28

28:                                               ; preds = %2, %21
  %29 = phi ptr [ %27, %21 ], [ %5, %2 ]
  %30 = phi ptr [ %26, %21 ], [ null, %2 ]
  call void @llvm.lifetime.start.p0(i64 16, ptr nonnull %3) #15
  store ptr %30, ptr %3, align 8, !tbaa !26
  %31 = getelementptr inbounds %"class.xercesc_2_5::ArrayJanitor", ptr %3, i64 0, i32 1
  store ptr %29, ptr %31, align 8, !tbaa !28
  invoke void @_ZN11xercesc_2_59XMLString9lowerCaseEPt(ptr noundef %30)
          to label %32 unwind label %48

32:                                               ; preds = %28
  %33 = icmp eq ptr %30, null
  br i1 %33, label %110, label %34

34:                                               ; preds = %32
  %35 = load i16, ptr %30, align 2, !tbaa !25
  %36 = icmp eq i16 %35, 99
  br i1 %36, label %37, label %72

37:                                               ; preds = %34, %42
  %38 = phi i16 [ %45, %42 ], [ 99, %34 ]
  %39 = phi ptr [ %44, %42 ], [ @_ZN11xercesc_2_520DOMConfigurationImpl16fgCANONICAL_FORME, %34 ]
  %40 = phi ptr [ %43, %42 ], [ %30, %34 ]
  %41 = icmp eq i16 %38, 0
  br i1 %41, label %131, label %42

42:                                               ; preds = %37
  %43 = getelementptr inbounds i16, ptr %40, i64 1
  %44 = getelementptr inbounds i16, ptr %39, i64 1
  %45 = load i16, ptr %43, align 2, !tbaa !25
  %46 = load i16, ptr %44, align 2, !tbaa !25
  %47 = icmp eq i16 %45, %46
  br i1 %47, label %37, label %50

48:                                               ; preds = %128, %28
  %49 = landingpad { ptr, i32 }
          cleanup
  br label %141

50:                                               ; preds = %42, %55
  %51 = phi i16 [ %58, %55 ], [ 99, %42 ]
  %52 = phi ptr [ %57, %55 ], [ @_ZN11xercesc_2_520DOMConfigurationImpl16fgCDATA_SECTIONSE, %42 ]
  %53 = phi ptr [ %56, %55 ], [ %30, %42 ]
  %54 = icmp eq i16 %51, 0
  br i1 %54, label %131, label %55

55:                                               ; preds = %50
  %56 = getelementptr inbounds i16, ptr %53, i64 1
  %57 = getelementptr inbounds i16, ptr %52, i64 1
  %58 = load i16, ptr %56, align 2, !tbaa !25
  %59 = load i16, ptr %57, align 2, !tbaa !25
  %60 = icmp eq i16 %58, %59
  br i1 %60, label %50, label %61

61:                                               ; preds = %55, %66
  %62 = phi i16 [ %69, %66 ], [ 99, %55 ]
  %63 = phi ptr [ %68, %66 ], [ @_ZN11xercesc_2_520DOMConfigurationImpl10fgCOMMENTSE, %55 ]
  %64 = phi ptr [ %67, %66 ], [ %30, %55 ]
  %65 = icmp eq i16 %62, 0
  br i1 %65, label %131, label %66

66:                                               ; preds = %61
  %67 = getelementptr inbounds i16, ptr %64, i64 1
  %68 = getelementptr inbounds i16, ptr %63, i64 1
  %69 = load i16, ptr %67, align 2, !tbaa !25
  %70 = load i16, ptr %68, align 2, !tbaa !25
  %71 = icmp eq i16 %69, %70
  br i1 %71, label %61, label %72

72:                                               ; preds = %66, %34
  %73 = icmp eq i16 %35, 100
  br i1 %73, label %74, label %97

74:                                               ; preds = %72, %79
  %75 = phi i16 [ %82, %79 ], [ 100, %72 ]
  %76 = phi ptr [ %81, %79 ], [ @_ZN11xercesc_2_520DOMConfigurationImpl24fgDATATYPE_NORMALIZATIONE, %72 ]
  %77 = phi ptr [ %80, %79 ], [ %30, %72 ]
  %78 = icmp eq i16 %75, 0
  br i1 %78, label %131, label %79

79:                                               ; preds = %74
  %80 = getelementptr inbounds i16, ptr %77, i64 1
  %81 = getelementptr inbounds i16, ptr %76, i64 1
  %82 = load i16, ptr %80, align 2, !tbaa !25
  %83 = load i16, ptr %81, align 2, !tbaa !25
  %84 = icmp eq i16 %82, %83
  br i1 %84, label %74, label %85

85:                                               ; preds = %79
  br i1 %73, label %86, label %97

86:                                               ; preds = %85, %91
  %87 = phi i16 [ %94, %91 ], [ 100, %85 ]
  %88 = phi ptr [ %93, %91 ], [ @_ZN11xercesc_2_520DOMConfigurationImpl25fgDISCARD_DEFAULT_CONTENTE, %85 ]
  %89 = phi ptr [ %92, %91 ], [ %30, %85 ]
  %90 = icmp eq i16 %87, 0
  br i1 %90, label %131, label %91

91:                                               ; preds = %86
  %92 = getelementptr inbounds i16, ptr %89, i64 1
  %93 = getelementptr inbounds i16, ptr %88, i64 1
  %94 = load i16, ptr %92, align 2, !tbaa !25
  %95 = load i16, ptr %93, align 2, !tbaa !25
  %96 = icmp eq i16 %94, %95
  br i1 %96, label %86, label %97

97:                                               ; preds = %91, %72, %85
  %98 = icmp eq i16 %35, 101
  br i1 %98, label %99, label %110

99:                                               ; preds = %97, %104
  %100 = phi i16 [ %107, %104 ], [ 101, %97 ]
  %101 = phi ptr [ %106, %104 ], [ @_ZN11xercesc_2_520DOMConfigurationImpl10fgENTITIESE, %97 ]
  %102 = phi ptr [ %105, %104 ], [ %30, %97 ]
  %103 = icmp eq i16 %100, 0
  br i1 %103, label %131, label %104

104:                                              ; preds = %99
  %105 = getelementptr inbounds i16, ptr %102, i64 1
  %106 = getelementptr inbounds i16, ptr %101, i64 1
  %107 = load i16, ptr %105, align 2, !tbaa !25
  %108 = load i16, ptr %106, align 2, !tbaa !25
  %109 = icmp eq i16 %107, %108
  br i1 %109, label %99, label %110

110:                                              ; preds = %104, %32, %97
  %111 = tail call noundef zeroext i1 @_ZN11xercesc_2_59XMLString6equalsEPKtS2_(ptr noundef %30, ptr noundef nonnull @_ZN11xercesc_2_520DOMConfigurationImpl9fgINFOSETE)
  br i1 %111, label %131, label %112

112:                                              ; preds = %110
  %113 = tail call noundef zeroext i1 @_ZN11xercesc_2_59XMLString6equalsEPKtS2_(ptr noundef %30, ptr noundef nonnull @_ZN11xercesc_2_520DOMConfigurationImpl12fgNAMESPACESE)
  br i1 %113, label %131, label %114

114:                                              ; preds = %112
  %115 = tail call noundef zeroext i1 @_ZN11xercesc_2_59XMLString6equalsEPKtS2_(ptr noundef %30, ptr noundef nonnull @_ZN11xercesc_2_520DOMConfigurationImpl24fgNAMESPACE_DECLARATIONSE)
  br i1 %115, label %131, label %116

116:                                              ; preds = %114
  %117 = tail call noundef zeroext i1 @_ZN11xercesc_2_59XMLString6equalsEPKtS2_(ptr noundef %30, ptr noundef nonnull @_ZN11xercesc_2_520DOMConfigurationImpl22fgNORMALIZE_CHARACTERSE)
  br i1 %117, label %131, label %118

118:                                              ; preds = %116
  %119 = tail call noundef zeroext i1 @_ZN11xercesc_2_59XMLString6equalsEPKtS2_(ptr noundef %30, ptr noundef nonnull @_ZN11xercesc_2_520DOMConfigurationImpl22fgSPLIT_CDATA_SECTIONSE)
  br i1 %119, label %131, label %120

120:                                              ; preds = %118
  %121 = tail call noundef zeroext i1 @_ZN11xercesc_2_59XMLString6equalsEPKtS2_(ptr noundef %30, ptr noundef nonnull @_ZN11xercesc_2_520DOMConfigurationImpl10fgVALIDATEE)
  br i1 %121, label %131, label %122

122:                                              ; preds = %120
  %123 = tail call noundef zeroext i1 @_ZN11xercesc_2_59XMLString6equalsEPKtS2_(ptr noundef %30, ptr noundef nonnull @_ZN11xercesc_2_520DOMConfigurationImpl20fgVALIDATE_IF_SCHEMAE)
  br i1 %123, label %131, label %124

124:                                              ; preds = %122
  %125 = tail call noundef zeroext i1 @_ZN11xercesc_2_59XMLString6equalsEPKtS2_(ptr noundef %30, ptr noundef nonnull @_ZN11xercesc_2_520DOMConfigurationImpl31fgWHITESPACE_IN_ELEMENT_CONTENTE)
  br i1 %125, label %131, label %126

126:                                              ; preds = %124
  %127 = tail call ptr @__cxa_allocate_exception(i64 24) #15
  invoke void @_ZN11xercesc_2_512DOMExceptionC1EsPKt(ptr noundef nonnull align 8 dereferenceable(24) %127, i16 noundef signext 8, ptr noundef null)
          to label %128 unwind label %129

128:                                              ; preds = %126
  invoke void @__cxa_throw(ptr nonnull %127, ptr nonnull @_ZTIN11xercesc_2_512DOMExceptionE, ptr nonnull @_ZN11xercesc_2_512DOMExceptionD1Ev) #16
          to label %147 unwind label %48

129:                                              ; preds = %126
  %130 = landingpad { ptr, i32 }
          cleanup
  tail call void @__cxa_free_exception(ptr %127) #15
  br label %141

131:                                              ; preds = %37, %50, %61, %74, %86, %99, %124, %122, %120, %118, %116, %114, %112, %110
  %132 = phi i32 [ 64, %110 ], [ 128, %112 ], [ 256, %114 ], [ 512, %116 ], [ 1024, %118 ], [ 2048, %120 ], [ 4096, %122 ], [ 8192, %124 ], [ 32, %99 ], [ 16, %86 ], [ 8, %74 ], [ 4, %61 ], [ 2, %50 ], [ 1, %37 ]
  br i1 %33, label %140, label %133

133:                                              ; preds = %131
  %134 = icmp eq ptr %29, null
  br i1 %134, label %139, label %135

135:                                              ; preds = %133
  %136 = load ptr, ptr %29, align 8, !tbaa !15
  %137 = getelementptr inbounds ptr, ptr %136, i64 3
  %138 = load ptr, ptr %137, align 8
  tail call void %138(ptr noundef nonnull align 8 dereferenceable(8) %29, ptr noundef nonnull %30)
  br label %140

139:                                              ; preds = %133
  tail call void @_ZdaPv(ptr noundef nonnull %30) #14
  br label %140

140:                                              ; preds = %131, %135, %139
  call void @llvm.lifetime.end.p0(i64 16, ptr nonnull %3) #15
  ret i32 %132

141:                                              ; preds = %129, %48
  %142 = phi { ptr, i32 } [ %49, %48 ], [ %130, %129 ]
  invoke void @_ZN11xercesc_2_512ArrayJanitorItED2Ev(ptr noundef nonnull align 8 dereferenceable(16) %3)
          to label %143 unwind label %144

143:                                              ; preds = %141
  call void @llvm.lifetime.end.p0(i64 16, ptr nonnull %3) #15
  resume { ptr, i32 } %142

144:                                              ; preds = %141
  %145 = landingpad { ptr, i32 }
          catch ptr null
  %146 = extractvalue { ptr, i32 } %145, 0
  call void @__clang_call_terminate(ptr %146) #17
  unreachable

147:                                              ; preds = %128
  unreachable
}

; Function Attrs: nofree nosync nounwind memory(none)
declare i32 @llvm.eh.typeid.for(ptr) #7

declare ptr @__cxa_get_exception_ptr(ptr) local_unnamed_addr

declare void @_ZN11xercesc_2_512DOMExceptionC1ERKS0_(ptr noundef nonnull align 8 dereferenceable(24), ptr noundef nonnull align 8 dereferenceable(24)) unnamed_addr #6

; Function Attrs: noinline noreturn nounwind uwtable
define linkonce_odr hidden void @__clang_call_terminate(ptr noundef %0) local_unnamed_addr #8 comdat {
  %2 = tail call ptr @__cxa_begin_catch(ptr %0) #15
  tail call void @_ZSt9terminatev() #17
  unreachable
}

declare ptr @__cxa_begin_catch(ptr) local_unnamed_addr

declare void @_ZSt9terminatev() local_unnamed_addr

declare void @__cxa_end_catch() local_unnamed_addr

; Function Attrs: mustprogress nocallback nofree nosync nounwind willreturn memory(argmem: readwrite)
declare void @llvm.lifetime.end.p0(i64 immarg, ptr nocapture) #5

; Function Attrs: inlinehint nounwind uwtable
define linkonce_odr dso_local noundef zeroext i1 @_ZN11xercesc_2_59XMLString6equalsEPKtS2_(ptr noundef %0, ptr noundef %1) local_unnamed_addr #9 comdat align 2 {
  %3 = icmp eq ptr %0, null
  %4 = icmp eq ptr %1, null
  %5 = or i1 %3, %4
  br i1 %5, label %10, label %6

6:                                                ; preds = %2
  %7 = load i16, ptr %0, align 2, !tbaa !25
  %8 = load i16, ptr %1, align 2, !tbaa !25
  %9 = icmp eq i16 %7, %8
  br i1 %9, label %19, label %30

10:                                               ; preds = %2
  br i1 %3, label %14, label %11

11:                                               ; preds = %10
  %12 = load i16, ptr %0, align 2, !tbaa !25
  %13 = icmp eq i16 %12, 0
  br i1 %13, label %14, label %30

14:                                               ; preds = %11, %10
  br i1 %4, label %18, label %15

15:                                               ; preds = %14
  %16 = load i16, ptr %1, align 2, !tbaa !25
  %17 = icmp eq i16 %16, 0
  br i1 %17, label %18, label %30

18:                                               ; preds = %15, %14
  br label %30

19:                                               ; preds = %6, %24
  %20 = phi i16 [ %27, %24 ], [ %7, %6 ]
  %21 = phi ptr [ %26, %24 ], [ %1, %6 ]
  %22 = phi ptr [ %25, %24 ], [ %0, %6 ]
  %23 = icmp eq i16 %20, 0
  br i1 %23, label %30, label %24

24:                                               ; preds = %19
  %25 = getelementptr inbounds i16, ptr %22, i64 1
  %26 = getelementptr inbounds i16, ptr %21, i64 1
  %27 = load i16, ptr %25, align 2, !tbaa !25
  %28 = load i16, ptr %26, align 2, !tbaa !25
  %29 = icmp eq i16 %27, %28
  br i1 %29, label %19, label %30

30:                                               ; preds = %19, %24, %6, %11, %15, %18
  %31 = phi i1 [ true, %18 ], [ false, %15 ], [ false, %11 ], [ false, %6 ], [ %23, %24 ], [ %23, %19 ]
  ret i1 %31
}

; Function Attrs: uwtable
define linkonce_odr dso_local void @_ZN11xercesc_2_512ArrayJanitorItED2Ev(ptr noundef nonnull align 8 dereferenceable(16) %0) unnamed_addr #4 comdat align 2 {
  %2 = load ptr, ptr %0, align 8, !tbaa !26
  %3 = icmp eq ptr %2, null
  br i1 %3, label %13, label %4

4:                                                ; preds = %1
  %5 = getelementptr inbounds %"class.xercesc_2_5::ArrayJanitor", ptr %0, i64 0, i32 1
  %6 = load ptr, ptr %5, align 8, !tbaa !28
  %7 = icmp eq ptr %6, null
  br i1 %7, label %12, label %8

8:                                                ; preds = %4
  %9 = load ptr, ptr %6, align 8, !tbaa !15
  %10 = getelementptr inbounds ptr, ptr %9, i64 3
  %11 = load ptr, ptr %10, align 8
  tail call void %11(ptr noundef nonnull align 8 dereferenceable(8) %6, ptr noundef nonnull %2)
  br label %13

12:                                               ; preds = %4
  tail call void @_ZdaPv(ptr noundef nonnull %2) #14
  br label %13

13:                                               ; preds = %1, %8, %12
  tail call void @llvm.memset.p0.i64(ptr noundef nonnull align 8 dereferenceable(16) %0, i8 0, i64 16, i1 false)
  ret void
}

; Function Attrs: uwtable
define dso_local noundef ptr @_ZNK11xercesc_2_520DOMConfigurationImpl12getParameterEPKt(ptr nocapture noundef nonnull readonly align 8 dereferenceable(48) %0, ptr noundef %1) unnamed_addr #4 align 2 personality ptr @__gxx_personality_v0 {
  %3 = alloca %"class.xercesc_2_5::ArrayJanitor", align 8
  %4 = alloca %"class.xercesc_2_5::DOMException", align 8
  %5 = getelementptr inbounds %"class.xercesc_2_5::DOMConfigurationImpl", ptr %0, i64 0, i32 5
  %6 = load ptr, ptr %5, align 8, !tbaa !24
  %7 = icmp eq ptr %1, null
  br i1 %7, label %29, label %8

8:                                                ; preds = %2
  %9 = load i16, ptr %1, align 2, !tbaa !25
  %10 = icmp eq i16 %9, 0
  br i1 %10, label %22, label %11

11:                                               ; preds = %8, %11
  %12 = phi ptr [ %13, %11 ], [ %1, %8 ]
  %13 = getelementptr inbounds i16, ptr %12, i64 1
  %14 = load i16, ptr %13, align 2, !tbaa !25
  %15 = icmp eq i16 %14, 0
  br i1 %15, label %16, label %11

16:                                               ; preds = %11
  %17 = ptrtoint ptr %13 to i64
  %18 = ptrtoint ptr %1 to i64
  %19 = sub i64 %17, %18
  %20 = add i64 %19, 2
  %21 = and i64 %20, 8589934590
  br label %22

22:                                               ; preds = %16, %8
  %23 = phi i64 [ %21, %16 ], [ 2, %8 ]
  %24 = load ptr, ptr %6, align 8, !tbaa !15
  %25 = getelementptr inbounds ptr, ptr %24, i64 2
  %26 = load ptr, ptr %25, align 8
  %27 = tail call noundef ptr %26(ptr noundef nonnull align 8 dereferenceable(8) %6, i64 noundef %23)
  tail call void @llvm.memcpy.p0.p0.i64(ptr align 2 %27, ptr nonnull align 2 %1, i64 %23, i1 false)
  %28 = load ptr, ptr %5, align 8, !tbaa !24
  br label %29

29:                                               ; preds = %2, %22
  %30 = phi ptr [ %28, %22 ], [ %6, %2 ]
  %31 = phi ptr [ %27, %22 ], [ null, %2 ]
  call void @llvm.lifetime.start.p0(i64 16, ptr nonnull %3) #15
  store ptr %31, ptr %3, align 8, !tbaa !26
  %32 = getelementptr inbounds %"class.xercesc_2_5::ArrayJanitor", ptr %3, i64 0, i32 1
  store ptr %30, ptr %32, align 8, !tbaa !28
  invoke void @_ZN11xercesc_2_59XMLString9lowerCaseEPt(ptr noundef %31)
          to label %33 unwind label %35

33:                                               ; preds = %29
  %34 = invoke noundef i32 @_ZNK11xercesc_2_520DOMConfigurationImpl14getFeatureFlagEPKt(ptr noundef nonnull align 8 dereferenceable(48) %0, ptr noundef %31)
          to label %48 unwind label %37, !range !29

35:                                               ; preds = %29
  %36 = landingpad { ptr, i32 }
          cleanup
  br label %129

37:                                               ; preds = %33
  %38 = landingpad { ptr, i32 }
          cleanup
          catch ptr @_ZTIN11xercesc_2_512DOMExceptionE
  %39 = extractvalue { ptr, i32 } %38, 0
  %40 = extractvalue { ptr, i32 } %38, 1
  %41 = tail call i32 @llvm.eh.typeid.for(ptr nonnull @_ZTIN11xercesc_2_512DOMExceptionE) #15
  %42 = icmp eq i32 %40, %41
  br i1 %42, label %43, label %129

43:                                               ; preds = %37
  call void @llvm.lifetime.start.p0(i64 24, ptr nonnull %4) #15
  %44 = tail call ptr @__cxa_get_exception_ptr(ptr %39) #15
  invoke void @_ZN11xercesc_2_512DOMExceptionC1ERKS0_(ptr noundef nonnull align 8 dereferenceable(24) %4, ptr noundef nonnull align 8 dereferenceable(24) %44)
          to label %45 unwind label %132

45:                                               ; preds = %43
  %46 = call ptr @__cxa_begin_catch(ptr %39) #15
  invoke void @_ZN11xercesc_2_512DOMExceptionD1Ev(ptr noundef nonnull align 8 dereferenceable(24) %4)
          to label %47 unwind label %55

47:                                               ; preds = %45
  invoke void @__cxa_end_catch()
          to label %61 unwind label %57

48:                                               ; preds = %33
  %49 = getelementptr inbounds %"class.xercesc_2_5::DOMConfigurationImpl", ptr %0, i64 0, i32 1
  %50 = load i16, ptr %49, align 8, !tbaa !18
  %51 = zext i16 %50 to i32
  %52 = and i32 %34, %51
  %53 = icmp eq i32 %52, 0
  %54 = select i1 %53, ptr @_ZN11xercesc_2_520DOMConfigurationImpl6fFalseE, ptr @_ZN11xercesc_2_520DOMConfigurationImpl5fTrueE
  br label %118

55:                                               ; preds = %45
  %56 = landingpad { ptr, i32 }
          cleanup
  invoke void @__cxa_end_catch()
          to label %59 unwind label %132

57:                                               ; preds = %47
  %58 = landingpad { ptr, i32 }
          cleanup
  br label %59

59:                                               ; preds = %55, %57
  %60 = phi { ptr, i32 } [ %58, %57 ], [ %56, %55 ]
  call void @llvm.lifetime.end.p0(i64 24, ptr nonnull %4) #15
  br label %129

61:                                               ; preds = %47
  call void @llvm.lifetime.end.p0(i64 24, ptr nonnull %4) #15
  %62 = icmp eq ptr %31, null
  br i1 %62, label %113, label %63

63:                                               ; preds = %61
  %64 = load i16, ptr %31, align 2, !tbaa !25
  %65 = icmp eq i16 %64, 101
  br i1 %65, label %66, label %82

66:                                               ; preds = %63, %71
  %67 = phi i16 [ %74, %71 ], [ 101, %63 ]
  %68 = phi ptr [ %73, %71 ], [ @_ZN11xercesc_2_520DOMConfigurationImpl15fgERROR_HANDLERE, %63 ]
  %69 = phi ptr [ %72, %71 ], [ %31, %63 ]
  %70 = icmp eq i16 %67, 0
  br i1 %70, label %77, label %71

71:                                               ; preds = %66
  %72 = getelementptr inbounds i16, ptr %69, i64 1
  %73 = getelementptr inbounds i16, ptr %68, i64 1
  %74 = load i16, ptr %72, align 2, !tbaa !25
  %75 = load i16, ptr %73, align 2, !tbaa !25
  %76 = icmp eq i16 %74, %75
  br i1 %76, label %66, label %82

77:                                               ; preds = %66
  %78 = getelementptr inbounds %"class.xercesc_2_5::DOMConfigurationImpl", ptr %0, i64 0, i32 2
  %79 = load ptr, ptr %78, align 8, !tbaa !34
  br label %118

80:                                               ; preds = %115
  %81 = landingpad { ptr, i32 }
          cleanup
  br label %129

82:                                               ; preds = %71, %63
  %83 = icmp eq i16 %64, 115
  br i1 %83, label %84, label %113

84:                                               ; preds = %82, %89
  %85 = phi i16 [ %92, %89 ], [ 115, %82 ]
  %86 = phi ptr [ %91, %89 ], [ @_ZN11xercesc_2_520DOMConfigurationImpl13fgSCHEMA_TYPEE, %82 ]
  %87 = phi ptr [ %90, %89 ], [ %31, %82 ]
  %88 = icmp eq i16 %85, 0
  br i1 %88, label %95, label %89

89:                                               ; preds = %84
  %90 = getelementptr inbounds i16, ptr %87, i64 1
  %91 = getelementptr inbounds i16, ptr %86, i64 1
  %92 = load i16, ptr %90, align 2, !tbaa !25
  %93 = load i16, ptr %91, align 2, !tbaa !25
  %94 = icmp eq i16 %92, %93
  br i1 %94, label %84, label %98

95:                                               ; preds = %84
  %96 = getelementptr inbounds %"class.xercesc_2_5::DOMConfigurationImpl", ptr %0, i64 0, i32 3
  %97 = load ptr, ptr %96, align 8, !tbaa !35
  br label %118

98:                                               ; preds = %89
  br i1 %83, label %99, label %113

99:                                               ; preds = %98, %104
  %100 = phi i16 [ %107, %104 ], [ 115, %98 ]
  %101 = phi ptr [ %106, %104 ], [ @_ZN11xercesc_2_520DOMConfigurationImpl17fgSCHEMA_LOCATIONE, %98 ]
  %102 = phi ptr [ %105, %104 ], [ %31, %98 ]
  %103 = icmp eq i16 %100, 0
  br i1 %103, label %110, label %104

104:                                              ; preds = %99
  %105 = getelementptr inbounds i16, ptr %102, i64 1
  %106 = getelementptr inbounds i16, ptr %101, i64 1
  %107 = load i16, ptr %105, align 2, !tbaa !25
  %108 = load i16, ptr %106, align 2, !tbaa !25
  %109 = icmp eq i16 %107, %108
  br i1 %109, label %99, label %113

110:                                              ; preds = %99
  %111 = getelementptr inbounds %"class.xercesc_2_5::DOMConfigurationImpl", ptr %0, i64 0, i32 4
  %112 = load ptr, ptr %111, align 8, !tbaa !36
  br label %118

113:                                              ; preds = %104, %82, %61, %98
  %114 = call ptr @__cxa_allocate_exception(i64 24) #15
  invoke void @_ZN11xercesc_2_512DOMExceptionC1EsPKt(ptr noundef nonnull align 8 dereferenceable(24) %114, i16 noundef signext 8, ptr noundef null)
          to label %115 unwind label %116

115:                                              ; preds = %113
  invoke void @__cxa_throw(ptr nonnull %114, ptr nonnull @_ZTIN11xercesc_2_512DOMExceptionE, ptr nonnull @_ZN11xercesc_2_512DOMExceptionD1Ev) #16
          to label %135 unwind label %80

116:                                              ; preds = %113
  %117 = landingpad { ptr, i32 }
          cleanup
  call void @__cxa_free_exception(ptr %114) #15
  br label %129

118:                                              ; preds = %48, %110, %95, %77
  %119 = phi ptr [ %79, %77 ], [ %97, %95 ], [ %112, %110 ], [ %54, %48 ]
  %120 = icmp eq ptr %31, null
  br i1 %120, label %128, label %121

121:                                              ; preds = %118
  %122 = icmp eq ptr %30, null
  br i1 %122, label %127, label %123

123:                                              ; preds = %121
  %124 = load ptr, ptr %30, align 8, !tbaa !15
  %125 = getelementptr inbounds ptr, ptr %124, i64 3
  %126 = load ptr, ptr %125, align 8
  call void %126(ptr noundef nonnull align 8 dereferenceable(8) %30, ptr noundef nonnull %31)
  br label %128

127:                                              ; preds = %121
  call void @_ZdaPv(ptr noundef nonnull %31) #14
  br label %128

128:                                              ; preds = %118, %123, %127
  call void @llvm.lifetime.end.p0(i64 16, ptr nonnull %3) #15
  ret ptr %119

129:                                              ; preds = %37, %59, %80, %116, %35
  %130 = phi { ptr, i32 } [ %38, %37 ], [ %60, %59 ], [ %81, %80 ], [ %117, %116 ], [ %36, %35 ]
  invoke void @_ZN11xercesc_2_512ArrayJanitorItED2Ev(ptr noundef nonnull align 8 dereferenceable(16) %3)
          to label %131 unwind label %132

131:                                              ; preds = %129
  call void @llvm.lifetime.end.p0(i64 16, ptr nonnull %3) #15
  resume { ptr, i32 } %130

132:                                              ; preds = %129, %55, %43
  %133 = landingpad { ptr, i32 }
          catch ptr null
  %134 = extractvalue { ptr, i32 } %133, 0
  call void @__clang_call_terminate(ptr %134) #17
  unreachable

135:                                              ; preds = %115
  unreachable
}

; Function Attrs: uwtable
define dso_local noundef zeroext i1 @_ZNK11xercesc_2_520DOMConfigurationImpl15canSetParameterEPKtPKv(ptr nocapture noundef nonnull readonly align 8 dereferenceable(48) %0, ptr noundef %1, ptr noundef readonly %2) unnamed_addr #4 align 2 personality ptr @__gxx_personality_v0 {
  %4 = alloca %"class.xercesc_2_5::ArrayJanitor", align 8
  %5 = alloca %"class.xercesc_2_5::DOMException", align 8
  %6 = icmp eq ptr %2, null
  br i1 %6, label %134, label %7

7:                                                ; preds = %3
  %8 = getelementptr inbounds %"class.xercesc_2_5::DOMConfigurationImpl", ptr %0, i64 0, i32 5
  %9 = load ptr, ptr %8, align 8, !tbaa !24
  %10 = icmp eq ptr %1, null
  br i1 %10, label %32, label %11

11:                                               ; preds = %7
  %12 = load i16, ptr %1, align 2, !tbaa !25
  %13 = icmp eq i16 %12, 0
  br i1 %13, label %25, label %14

14:                                               ; preds = %11, %14
  %15 = phi ptr [ %16, %14 ], [ %1, %11 ]
  %16 = getelementptr inbounds i16, ptr %15, i64 1
  %17 = load i16, ptr %16, align 2, !tbaa !25
  %18 = icmp eq i16 %17, 0
  br i1 %18, label %19, label %14

19:                                               ; preds = %14
  %20 = ptrtoint ptr %16 to i64
  %21 = ptrtoint ptr %1 to i64
  %22 = sub i64 %20, %21
  %23 = add i64 %22, 2
  %24 = and i64 %23, 8589934590
  br label %25

25:                                               ; preds = %19, %11
  %26 = phi i64 [ %24, %19 ], [ 2, %11 ]
  %27 = load ptr, ptr %9, align 8, !tbaa !15
  %28 = getelementptr inbounds ptr, ptr %27, i64 2
  %29 = load ptr, ptr %28, align 8
  %30 = tail call noundef ptr %29(ptr noundef nonnull align 8 dereferenceable(8) %9, i64 noundef %26)
  tail call void @llvm.memcpy.p0.p0.i64(ptr align 2 %30, ptr nonnull align 2 %1, i64 %26, i1 false)
  %31 = load ptr, ptr %8, align 8, !tbaa !24
  br label %32

32:                                               ; preds = %7, %25
  %33 = phi ptr [ %31, %25 ], [ %9, %7 ]
  %34 = phi ptr [ %30, %25 ], [ null, %7 ]
  call void @llvm.lifetime.start.p0(i64 16, ptr nonnull %4) #15
  store ptr %34, ptr %4, align 8, !tbaa !26
  %35 = getelementptr inbounds %"class.xercesc_2_5::ArrayJanitor", ptr %4, i64 0, i32 1
  store ptr %33, ptr %35, align 8, !tbaa !28
  invoke void @_ZN11xercesc_2_59XMLString9lowerCaseEPt(ptr noundef %34)
          to label %36 unwind label %38

36:                                               ; preds = %32
  %37 = invoke noundef i32 @_ZNK11xercesc_2_520DOMConfigurationImpl14getFeatureFlagEPKt(ptr noundef nonnull align 8 dereferenceable(48) %0, ptr noundef %34)
          to label %51 unwind label %40, !range !29

38:                                               ; preds = %32
  %39 = landingpad { ptr, i32 }
          cleanup
  br label %131

40:                                               ; preds = %36
  %41 = landingpad { ptr, i32 }
          cleanup
          catch ptr @_ZTIN11xercesc_2_512DOMExceptionE
  %42 = extractvalue { ptr, i32 } %41, 0
  %43 = extractvalue { ptr, i32 } %41, 1
  %44 = tail call i32 @llvm.eh.typeid.for(ptr nonnull @_ZTIN11xercesc_2_512DOMExceptionE) #15
  %45 = icmp eq i32 %43, %44
  br i1 %45, label %46, label %131

46:                                               ; preds = %40
  call void @llvm.lifetime.start.p0(i64 24, ptr nonnull %5) #15
  %47 = tail call ptr @__cxa_get_exception_ptr(ptr %42) #15
  invoke void @_ZN11xercesc_2_512DOMExceptionC1ERKS0_(ptr noundef nonnull align 8 dereferenceable(24) %5, ptr noundef nonnull align 8 dereferenceable(24) %47)
          to label %48 unwind label %136

48:                                               ; preds = %46
  %49 = call ptr @__cxa_begin_catch(ptr %42) #15
  invoke void @_ZN11xercesc_2_512DOMExceptionD1Ev(ptr noundef nonnull align 8 dereferenceable(24) %5)
          to label %50 unwind label %54

50:                                               ; preds = %48
  invoke void @__cxa_end_catch()
          to label %78 unwind label %56

51:                                               ; preds = %36
  %52 = load i8, ptr %2, align 1, !tbaa !30, !range !32, !noundef !33
  %53 = icmp ne i8 %52, 0
  switch i32 %37, label %77 [
    i32 1, label %60
    i32 2, label %119
    i32 4, label %119
    i32 8, label %62
    i32 16, label %64
    i32 32, label %119
    i32 64, label %66
    i32 128, label %119
    i32 256, label %68
    i32 512, label %69
    i32 1024, label %71
    i32 2048, label %72
    i32 4096, label %74
    i32 8192, label %76
  ]

54:                                               ; preds = %48
  %55 = landingpad { ptr, i32 }
          cleanup
  invoke void @__cxa_end_catch()
          to label %58 unwind label %136

56:                                               ; preds = %50
  %57 = landingpad { ptr, i32 }
          cleanup
  br label %58

58:                                               ; preds = %54, %56
  %59 = phi { ptr, i32 } [ %57, %56 ], [ %55, %54 ]
  call void @llvm.lifetime.end.p0(i64 24, ptr nonnull %5) #15
  br label %131

60:                                               ; preds = %51
  %61 = xor i1 %53, true
  br label %119

62:                                               ; preds = %51
  %63 = xor i1 %53, true
  br label %119

64:                                               ; preds = %51
  %65 = xor i1 %53, true
  br label %119

66:                                               ; preds = %51
  %67 = xor i1 %53, true
  br label %119

68:                                               ; preds = %51
  br label %119

69:                                               ; preds = %51
  %70 = xor i1 %53, true
  br label %119

71:                                               ; preds = %51
  br label %119

72:                                               ; preds = %51
  %73 = xor i1 %53, true
  br label %119

74:                                               ; preds = %51
  %75 = xor i1 %53, true
  br label %119

76:                                               ; preds = %51
  br label %119

77:                                               ; preds = %51
  br label %119

78:                                               ; preds = %50
  call void @llvm.lifetime.end.p0(i64 24, ptr nonnull %5) #15
  %79 = icmp eq ptr %34, null
  br i1 %79, label %129, label %80

80:                                               ; preds = %78
  %81 = load i16, ptr %34, align 2, !tbaa !25
  %82 = icmp eq i16 %81, 101
  br i1 %82, label %83, label %94

83:                                               ; preds = %80, %88
  %84 = phi i16 [ %91, %88 ], [ 101, %80 ]
  %85 = phi ptr [ %90, %88 ], [ @_ZN11xercesc_2_520DOMConfigurationImpl15fgERROR_HANDLERE, %80 ]
  %86 = phi ptr [ %89, %88 ], [ %34, %80 ]
  %87 = icmp eq i16 %84, 0
  br i1 %87, label %119, label %88

88:                                               ; preds = %83
  %89 = getelementptr inbounds i16, ptr %86, i64 1
  %90 = getelementptr inbounds i16, ptr %85, i64 1
  %91 = load i16, ptr %89, align 2, !tbaa !25
  %92 = load i16, ptr %90, align 2, !tbaa !25
  %93 = icmp eq i16 %91, %92
  br i1 %93, label %83, label %94

94:                                               ; preds = %88, %80
  %95 = icmp eq i16 %81, 115
  br i1 %95, label %96, label %119

96:                                               ; preds = %94, %101
  %97 = phi i16 [ %104, %101 ], [ 115, %94 ]
  %98 = phi ptr [ %103, %101 ], [ @_ZN11xercesc_2_520DOMConfigurationImpl13fgSCHEMA_TYPEE, %94 ]
  %99 = phi ptr [ %102, %101 ], [ %34, %94 ]
  %100 = icmp eq i16 %97, 0
  br i1 %100, label %119, label %101

101:                                              ; preds = %96
  %102 = getelementptr inbounds i16, ptr %99, i64 1
  %103 = getelementptr inbounds i16, ptr %98, i64 1
  %104 = load i16, ptr %102, align 2, !tbaa !25
  %105 = load i16, ptr %103, align 2, !tbaa !25
  %106 = icmp eq i16 %104, %105
  br i1 %106, label %96, label %107

107:                                              ; preds = %101
  br i1 %95, label %108, label %119

108:                                              ; preds = %107, %113
  %109 = phi i16 [ %116, %113 ], [ 115, %107 ]
  %110 = phi ptr [ %115, %113 ], [ @_ZN11xercesc_2_520DOMConfigurationImpl17fgSCHEMA_LOCATIONE, %107 ]
  %111 = phi ptr [ %114, %113 ], [ %34, %107 ]
  %112 = icmp eq i16 %109, 0
  br i1 %112, label %119, label %113

113:                                              ; preds = %108
  %114 = getelementptr inbounds i16, ptr %111, i64 1
  %115 = getelementptr inbounds i16, ptr %110, i64 1
  %116 = load i16, ptr %114, align 2, !tbaa !25
  %117 = load i16, ptr %115, align 2, !tbaa !25
  %118 = icmp eq i16 %116, %117
  br i1 %118, label %108, label %119

119:                                              ; preds = %83, %96, %113, %108, %94, %107, %76, %74, %72, %71, %69, %68, %51, %66, %51, %64, %62, %51, %51, %60, %77
  %120 = phi i1 [ false, %77 ], [ %61, %60 ], [ true, %51 ], [ true, %51 ], [ %63, %62 ], [ %65, %64 ], [ true, %51 ], [ %67, %66 ], [ true, %51 ], [ %53, %68 ], [ %70, %69 ], [ false, %71 ], [ %73, %72 ], [ %75, %74 ], [ %53, %76 ], [ false, %107 ], [ false, %94 ], [ false, %108 ], [ false, %113 ], [ false, %96 ], [ true, %83 ]
  %121 = icmp eq ptr %34, null
  br i1 %121, label %129, label %122

122:                                              ; preds = %119
  %123 = icmp eq ptr %33, null
  br i1 %123, label %128, label %124

124:                                              ; preds = %122
  %125 = load ptr, ptr %33, align 8, !tbaa !15
  %126 = getelementptr inbounds ptr, ptr %125, i64 3
  %127 = load ptr, ptr %126, align 8
  call void %127(ptr noundef nonnull align 8 dereferenceable(8) %33, ptr noundef nonnull %34)
  br label %129

128:                                              ; preds = %122
  call void @_ZdaPv(ptr noundef nonnull %34) #14
  br label %129

129:                                              ; preds = %78, %119, %124, %128
  %130 = phi i1 [ %120, %119 ], [ %120, %124 ], [ %120, %128 ], [ false, %78 ]
  call void @llvm.lifetime.end.p0(i64 16, ptr nonnull %4) #15
  br label %134

131:                                              ; preds = %40, %58, %38
  %132 = phi { ptr, i32 } [ %41, %40 ], [ %59, %58 ], [ %39, %38 ]
  invoke void @_ZN11xercesc_2_512ArrayJanitorItED2Ev(ptr noundef nonnull align 8 dereferenceable(16) %4)
          to label %133 unwind label %136

133:                                              ; preds = %131
  call void @llvm.lifetime.end.p0(i64 16, ptr nonnull %4) #15
  resume { ptr, i32 } %132

134:                                              ; preds = %3, %129
  %135 = phi i1 [ %130, %129 ], [ true, %3 ]
  ret i1 %135

136:                                              ; preds = %131, %54, %46
  %137 = landingpad { ptr, i32 }
          catch ptr null
  %138 = extractvalue { ptr, i32 } %137, 0
  call void @__clang_call_terminate(ptr %138) #17
  unreachable
}

; Function Attrs: mustprogress nofree norecurse nosync nounwind willreturn memory(argmem: read) uwtable
define dso_local noundef ptr @_ZNK11xercesc_2_520DOMConfigurationImpl15getErrorHandlerEv(ptr nocapture noundef nonnull readonly align 8 dereferenceable(48) %0) local_unnamed_addr #10 align 2 {
  %2 = getelementptr inbounds %"class.xercesc_2_5::DOMConfigurationImpl", ptr %0, i64 0, i32 2
  %3 = load ptr, ptr %2, align 8, !tbaa !34
  ret ptr %3
}

; Function Attrs: mustprogress nofree norecurse nosync nounwind willreturn memory(argmem: read) uwtable
define dso_local noundef ptr @_ZNK11xercesc_2_520DOMConfigurationImpl13getSchemaTypeEv(ptr nocapture noundef nonnull readonly align 8 dereferenceable(48) %0) local_unnamed_addr #10 align 2 {
  %2 = getelementptr inbounds %"class.xercesc_2_5::DOMConfigurationImpl", ptr %0, i64 0, i32 3
  %3 = load ptr, ptr %2, align 8, !tbaa !35
  ret ptr %3
}

; Function Attrs: mustprogress nofree norecurse nosync nounwind willreturn memory(argmem: read) uwtable
define dso_local noundef ptr @_ZNK11xercesc_2_520DOMConfigurationImpl17getSchemaLocationEv(ptr nocapture noundef nonnull readonly align 8 dereferenceable(48) %0) local_unnamed_addr #10 align 2 {
  %2 = getelementptr inbounds %"class.xercesc_2_5::DOMConfigurationImpl", ptr %0, i64 0, i32 4
  %3 = load ptr, ptr %2, align 8, !tbaa !36
  ret ptr %3
}

; Function Attrs: mustprogress nofree norecurse nosync nounwind willreturn memory(argmem: write) uwtable
define dso_local void @_ZN11xercesc_2_520DOMConfigurationImpl15setErrorHandlerEPNS_15DOMErrorHandlerE(ptr nocapture noundef nonnull writeonly align 8 dereferenceable(48) %0, ptr noundef %1) local_unnamed_addr #11 align 2 {
  %3 = getelementptr inbounds %"class.xercesc_2_5::DOMConfigurationImpl", ptr %0, i64 0, i32 2
  store ptr %1, ptr %3, align 8, !tbaa !34
  ret void
}

; Function Attrs: mustprogress nofree norecurse nosync nounwind willreturn memory(argmem: write) uwtable
define dso_local void @_ZN11xercesc_2_520DOMConfigurationImpl13setSchemaTypeEPKt(ptr nocapture noundef nonnull writeonly align 8 dereferenceable(48) %0, ptr noundef %1) local_unnamed_addr #11 align 2 {
  %3 = getelementptr inbounds %"class.xercesc_2_5::DOMConfigurationImpl", ptr %0, i64 0, i32 3
  store ptr %1, ptr %3, align 8, !tbaa !35
  ret void
}

; Function Attrs: mustprogress nofree norecurse nosync nounwind willreturn memory(argmem: write) uwtable
define dso_local void @_ZN11xercesc_2_520DOMConfigurationImpl17setSchemaLocationEPKt(ptr nocapture noundef nonnull writeonly align 8 dereferenceable(48) %0, ptr noundef %1) local_unnamed_addr #11 align 2 {
  %3 = getelementptr inbounds %"class.xercesc_2_5::DOMConfigurationImpl", ptr %0, i64 0, i32 4
  store ptr %1, ptr %3, align 8, !tbaa !36
  ret void
}

; Function Attrs: mustprogress nocallback nofree nounwind willreturn memory(argmem: readwrite)
declare void @llvm.memcpy.p0.p0.i64(ptr noalias nocapture writeonly, ptr noalias nocapture readonly, i64, i1 immarg) #12

; Function Attrs: nobuiltin nounwind
declare void @_ZdaPv(ptr noundef) local_unnamed_addr #0

; Function Attrs: nocallback nofree nounwind willreturn memory(argmem: write)
declare void @llvm.memset.p0.i64(ptr nocapture writeonly, i8, i64, i1 immarg) #13

attributes #0 = { nobuiltin nounwind "approx-func-fp-math"="true" "denormal-fp-math"="preserve-sign,preserve-sign" "no-infs-fp-math"="true" "no-nans-fp-math"="true" "no-signed-zeros-fp-math"="true" "no-trapping-math"="true" "stack-protector-buffer-size"="8" "target-cpu"="znver2" "target-features"="+adx,+aes,+avx,+avx2,+bmi,+bmi2,+clflushopt,+clwb,+clzero,+crc32,+cx16,+cx8,+f16c,+fma,+fsgsbase,+fxsr,+lzcnt,+mmx,+movbe,+mwaitx,+pclmul,+popcnt,+prfchw,+rdpid,+rdpru,+rdrnd,+rdseed,+sahf,+sha,+sse,+sse2,+sse3,+sse4.1,+sse4.2,+sse4a,+ssse3,+wbnoinvd,+x87,+xsave,+xsavec,+xsaveopt,+xsaves" }
attributes #1 = { mustprogress nofree nosync nounwind willreturn memory(argmem: write) uwtable "approx-func-fp-math"="true" "denormal-fp-math"="preserve-sign,preserve-sign" "min-legal-vector-width"="0" "no-infs-fp-math"="true" "no-nans-fp-math"="true" "no-signed-zeros-fp-math"="true" "no-trapping-math"="true" "stack-protector-buffer-size"="8" "target-cpu"="znver2" "target-features"="+adx,+aes,+avx,+avx2,+bmi,+bmi2,+clflushopt,+clwb,+clzero,+crc32,+cx16,+cx8,+f16c,+fma,+fsgsbase,+fxsr,+lzcnt,+mmx,+movbe,+mwaitx,+pclmul,+popcnt,+prfchw,+rdpid,+rdpru,+rdrnd,+rdseed,+sahf,+sha,+sse,+sse2,+sse3,+sse4.1,+sse4.2,+sse4a,+ssse3,+wbnoinvd,+x87,+xsave,+xsavec,+xsaveopt,+xsaves" }
attributes #2 = { mustprogress nofree norecurse nosync nounwind willreturn memory(none) uwtable "approx-func-fp-math"="true" "denormal-fp-math"="preserve-sign,preserve-sign" "min-legal-vector-width"="0" "no-infs-fp-math"="true" "no-nans-fp-math"="true" "no-signed-zeros-fp-math"="true" "no-trapping-math"="true" "stack-protector-buffer-size"="8" "target-cpu"="znver2" "target-features"="+adx,+aes,+avx,+avx2,+bmi,+bmi2,+clflushopt,+clwb,+clzero,+crc32,+cx16,+cx8,+f16c,+fma,+fsgsbase,+fxsr,+lzcnt,+mmx,+movbe,+mwaitx,+pclmul,+popcnt,+prfchw,+rdpid,+rdpru,+rdrnd,+rdseed,+sahf,+sha,+sse,+sse2,+sse3,+sse4.1,+sse4.2,+sse4a,+ssse3,+wbnoinvd,+x87,+xsave,+xsavec,+xsaveopt,+xsaves" }
attributes #3 = { nounwind uwtable "approx-func-fp-math"="true" "denormal-fp-math"="preserve-sign,preserve-sign" "min-legal-vector-width"="0" "no-infs-fp-math"="true" "no-nans-fp-math"="true" "no-signed-zeros-fp-math"="true" "no-trapping-math"="true" "stack-protector-buffer-size"="8" "target-cpu"="znver2" "target-features"="+adx,+aes,+avx,+avx2,+bmi,+bmi2,+clflushopt,+clwb,+clzero,+crc32,+cx16,+cx8,+f16c,+fma,+fsgsbase,+fxsr,+lzcnt,+mmx,+movbe,+mwaitx,+pclmul,+popcnt,+prfchw,+rdpid,+rdpru,+rdrnd,+rdseed,+sahf,+sha,+sse,+sse2,+sse3,+sse4.1,+sse4.2,+sse4a,+ssse3,+wbnoinvd,+x87,+xsave,+xsavec,+xsaveopt,+xsaves" }
attributes #4 = { uwtable "approx-func-fp-math"="true" "denormal-fp-math"="preserve-sign,preserve-sign" "min-legal-vector-width"="0" "no-infs-fp-math"="true" "no-nans-fp-math"="true" "no-signed-zeros-fp-math"="true" "no-trapping-math"="true" "stack-protector-buffer-size"="8" "target-cpu"="znver2" "target-features"="+adx,+aes,+avx,+avx2,+bmi,+bmi2,+clflushopt,+clwb,+clzero,+crc32,+cx16,+cx8,+f16c,+fma,+fsgsbase,+fxsr,+lzcnt,+mmx,+movbe,+mwaitx,+pclmul,+popcnt,+prfchw,+rdpid,+rdpru,+rdrnd,+rdseed,+sahf,+sha,+sse,+sse2,+sse3,+sse4.1,+sse4.2,+sse4a,+ssse3,+wbnoinvd,+x87,+xsave,+xsavec,+xsaveopt,+xsaves" }
attributes #5 = { mustprogress nocallback nofree nosync nounwind willreturn memory(argmem: readwrite) }
attributes #6 = { "approx-func-fp-math"="true" "denormal-fp-math"="preserve-sign,preserve-sign" "no-infs-fp-math"="true" "no-nans-fp-math"="true" "no-signed-zeros-fp-math"="true" "no-trapping-math"="true" "stack-protector-buffer-size"="8" "target-cpu"="znver2" "target-features"="+adx,+aes,+avx,+avx2,+bmi,+bmi2,+clflushopt,+clwb,+clzero,+crc32,+cx16,+cx8,+f16c,+fma,+fsgsbase,+fxsr,+lzcnt,+mmx,+movbe,+mwaitx,+pclmul,+popcnt,+prfchw,+rdpid,+rdpru,+rdrnd,+rdseed,+sahf,+sha,+sse,+sse2,+sse3,+sse4.1,+sse4.2,+sse4a,+ssse3,+wbnoinvd,+x87,+xsave,+xsavec,+xsaveopt,+xsaves" }
attributes #7 = { nofree nosync nounwind memory(none) }
attributes #8 = { noinline noreturn nounwind uwtable "approx-func-fp-math"="true" "denormal-fp-math"="preserve-sign,preserve-sign" "no-infs-fp-math"="true" "no-nans-fp-math"="true" "no-signed-zeros-fp-math"="true" "no-trapping-math"="true" "stack-protector-buffer-size"="8" "target-cpu"="znver2" "target-features"="+adx,+aes,+avx,+avx2,+bmi,+bmi2,+clflushopt,+clwb,+clzero,+crc32,+cx16,+cx8,+f16c,+fma,+fsgsbase,+fxsr,+lzcnt,+mmx,+movbe,+mwaitx,+pclmul,+popcnt,+prfchw,+rdpid,+rdpru,+rdrnd,+rdseed,+sahf,+sha,+sse,+sse2,+sse3,+sse4.1,+sse4.2,+sse4a,+ssse3,+wbnoinvd,+x87,+xsave,+xsavec,+xsaveopt,+xsaves" }
attributes #9 = { inlinehint nounwind uwtable "approx-func-fp-math"="true" "denormal-fp-math"="preserve-sign,preserve-sign" "min-legal-vector-width"="0" "no-infs-fp-math"="true" "no-nans-fp-math"="true" "no-signed-zeros-fp-math"="true" "no-trapping-math"="true" "stack-protector-buffer-size"="8" "target-cpu"="znver2" "target-features"="+adx,+aes,+avx,+avx2,+bmi,+bmi2,+clflushopt,+clwb,+clzero,+crc32,+cx16,+cx8,+f16c,+fma,+fsgsbase,+fxsr,+lzcnt,+mmx,+movbe,+mwaitx,+pclmul,+popcnt,+prfchw,+rdpid,+rdpru,+rdrnd,+rdseed,+sahf,+sha,+sse,+sse2,+sse3,+sse4.1,+sse4.2,+sse4a,+ssse3,+wbnoinvd,+x87,+xsave,+xsavec,+xsaveopt,+xsaves" }
attributes #10 = { mustprogress nofree norecurse nosync nounwind willreturn memory(argmem: read) uwtable "approx-func-fp-math"="true" "denormal-fp-math"="preserve-sign,preserve-sign" "min-legal-vector-width"="0" "no-infs-fp-math"="true" "no-nans-fp-math"="true" "no-signed-zeros-fp-math"="true" "no-trapping-math"="true" "stack-protector-buffer-size"="8" "target-cpu"="znver2" "target-features"="+adx,+aes,+avx,+avx2,+bmi,+bmi2,+clflushopt,+clwb,+clzero,+crc32,+cx16,+cx8,+f16c,+fma,+fsgsbase,+fxsr,+lzcnt,+mmx,+movbe,+mwaitx,+pclmul,+popcnt,+prfchw,+rdpid,+rdpru,+rdrnd,+rdseed,+sahf,+sha,+sse,+sse2,+sse3,+sse4.1,+sse4.2,+sse4a,+ssse3,+wbnoinvd,+x87,+xsave,+xsavec,+xsaveopt,+xsaves" }
attributes #11 = { mustprogress nofree norecurse nosync nounwind willreturn memory(argmem: write) uwtable "approx-func-fp-math"="true" "denormal-fp-math"="preserve-sign,preserve-sign" "min-legal-vector-width"="0" "no-infs-fp-math"="true" "no-nans-fp-math"="true" "no-signed-zeros-fp-math"="true" "no-trapping-math"="true" "stack-protector-buffer-size"="8" "target-cpu"="znver2" "target-features"="+adx,+aes,+avx,+avx2,+bmi,+bmi2,+clflushopt,+clwb,+clzero,+crc32,+cx16,+cx8,+f16c,+fma,+fsgsbase,+fxsr,+lzcnt,+mmx,+movbe,+mwaitx,+pclmul,+popcnt,+prfchw,+rdpid,+rdpru,+rdrnd,+rdseed,+sahf,+sha,+sse,+sse2,+sse3,+sse4.1,+sse4.2,+sse4a,+ssse3,+wbnoinvd,+x87,+xsave,+xsavec,+xsaveopt,+xsaves" }
attributes #12 = { mustprogress nocallback nofree nounwind willreturn memory(argmem: readwrite) }
attributes #13 = { nocallback nofree nounwind willreturn memory(argmem: write) }
attributes #14 = { builtin nounwind }
attributes #15 = { nounwind }
attributes #16 = { noreturn }
attributes #17 = { noreturn nounwind }

!llvm.module.flags = !{!8, !9, !10, !11, !12, !13}
!llvm.ident = !{!14}

!0 = !{i64 16, !"_ZTSN11xercesc_2_516DOMConfigurationE"}
!1 = !{i64 16, !"_ZTSMN11xercesc_2_516DOMConfigurationEFvPKtPKvE.virtual"}
!2 = !{i64 24, !"_ZTSMN11xercesc_2_516DOMConfigurationEKFPKvPKtE.virtual"}
!3 = !{i64 32, !"_ZTSMN11xercesc_2_516DOMConfigurationEKFbPKtPKvE.virtual"}
!4 = !{i64 16, !"_ZTSN11xercesc_2_520DOMConfigurationImplE"}
!5 = !{i64 16, !"_ZTSMN11xercesc_2_520DOMConfigurationImplEFvPKtPKvE.virtual"}
!6 = !{i64 24, !"_ZTSMN11xercesc_2_520DOMConfigurationImplEKFPKvPKtE.virtual"}
!7 = !{i64 32, !"_ZTSMN11xercesc_2_520DOMConfigurationImplEKFbPKtPKvE.virtual"}
!8 = !{i32 1, !"wchar_size", i32 4}
!9 = !{i32 8, !"PIC Level", i32 2}
!10 = !{i32 7, !"PIE Level", i32 2}
!11 = !{i32 7, !"uwtable", i32 2}
!12 = !{i32 1, !"ThinLTO", i32 0}
!13 = !{i32 1, !"EnableSplitLTOUnit", i32 1}
!14 = !{!"clang version 17.0.0 (git@github.com:llvm/llvm-project.git cff7a7747db02d1214b20e98677e5ddcb402ffe0)"}
!15 = !{!16, !16, i64 0}
!16 = !{!"vtable pointer", !17, i64 0}
!17 = !{!"Simple C++ TBAA"}
!18 = !{!19, !21, i64 8}
!19 = !{!"_ZTSN11xercesc_2_520DOMConfigurationImplE", !20, i64 0, !21, i64 8, !23, i64 16, !23, i64 24, !23, i64 32, !23, i64 40}
!20 = !{!"_ZTSN11xercesc_2_516DOMConfigurationE"}
!21 = !{!"short", !22, i64 0}
!22 = !{!"omnipotent char", !17, i64 0}
!23 = !{!"any pointer", !22, i64 0}
!24 = !{!19, !23, i64 40}
!25 = !{!21, !21, i64 0}
!26 = !{!27, !23, i64 0}
!27 = !{!"_ZTSN11xercesc_2_512ArrayJanitorItEE", !23, i64 0, !23, i64 8}
!28 = !{!27, !23, i64 8}
!29 = !{i32 1, i32 8193}
!30 = !{!31, !31, i64 0}
!31 = !{!"bool", !22, i64 0}
!32 = !{i8 0, i8 2}
!33 = !{}
!34 = !{!19, !23, i64 16}
!35 = !{!19, !23, i64 24}
!36 = !{!19, !23, i64 32}

^0 = module: (path: "", hash: (0, 0, 0, 0, 0))
^1 = gv: (name: "_ZN11xercesc_2_520DOMConfigurationImpl6fFalseE", summaries: (variable: (module: ^0, flags: (linkage: external, visibility: default, notEligibleToImport: 1, live: 0, dsoLocal: 1, canAutoHide: 0), varFlags: (readonly: 1, writeonly: 0, constant: 1)))) ; guid = 107636716885700
^2 = gv: (name: "_ZN11xercesc_2_520DOMConfigurationImpl12setParameterEPKtPKv", summaries: (function: (module: ^0, flags: (linkage: external, visibility: default, notEligibleToImport: 1, live: 0, dsoLocal: 1, canAutoHide: 0), insts: 162, funcFlags: (readNone: 0, readOnly: 0, noRecurse: 0, returnDoesNotAlias: 0, noInline: 0, alwaysInline: 0, noUnwind: 0, mayThrow: 1, hasUnknownCall: 1, mustBeUnreachable: 0), calls: ((callee: ^10, relbf: 256), (callee: ^53), (callee: ^35), (callee: ^43), (callee: ^21), (callee: ^9, relbf: 255), (callee: ^60), (callee: ^22), (callee: ^16), (callee: ^11), (callee: ^36), (callee: ^29, relbf: 59), (callee: ^56), (callee: ^6)), refs: (^7, ^28, ^11, ^48, ^8, ^37)))) ; guid = 198832950346749108
^3 = gv: (name: "_ZN11xercesc_2_520DOMConfigurationImpl10fgVALIDATEE", summaries: (variable: (module: ^0, flags: (linkage: external, visibility: default, notEligibleToImport: 1, live: 0, dsoLocal: 1, canAutoHide: 0), varFlags: (readonly: 1, writeonly: 0, constant: 1)))) ; guid = 338176644390789371
^4 = gv: (name: "_ZN11xercesc_2_520DOMConfigurationImpl15fDEFAULT_VALUESE", summaries: (variable: (module: ^0, flags: (linkage: external, visibility: default, notEligibleToImport: 1, live: 0, dsoLocal: 1, canAutoHide: 0), varFlags: (readonly: 1, writeonly: 0, constant: 1)))) ; guid = 506405835230141681
^5 = gv: (name: "_ZdlPv") ; guid = 950067649961216671
^6 = gv: (name: "__clang_call_terminate", summaries: (function: (module: ^0, flags: (linkage: linkonce_odr, visibility: hidden, notEligibleToImport: 1, live: 0, dsoLocal: 1, canAutoHide: 1), insts: 3, funcFlags: (readNone: 0, readOnly: 0, noRecurse: 0, returnDoesNotAlias: 0, noInline: 1, alwaysInline: 0, noUnwind: 1, mayThrow: 0, hasUnknownCall: 0, mustBeUnreachable: 1), calls: ((callee: ^16, relbf: 256), (callee: ^49, relbf: 256))))) ; guid = 1080103601501470593
^7 = gv: (name: "__gxx_personality_v0") ; guid = 1233668236132380018
^8 = gv: (name: "_ZN11xercesc_2_520DOMConfigurationImpl13fgSCHEMA_TYPEE", summaries: (variable: (module: ^0, flags: (linkage: external, visibility: default, notEligibleToImport: 1, live: 0, dsoLocal: 1, canAutoHide: 0), varFlags: (readonly: 1, writeonly: 0, constant: 1)))) ; guid = 1288005623526027400
^9 = gv: (name: "_ZNK11xercesc_2_520DOMConfigurationImpl14getFeatureFlagEPKt", summaries: (function: (module: ^0, flags: (linkage: external, visibility: default, notEligibleToImport: 1, live: 0, dsoLocal: 1, canAutoHide: 0), insts: 156, funcFlags: (readNone: 0, readOnly: 0, noRecurse: 0, returnDoesNotAlias: 0, noInline: 0, alwaysInline: 0, noUnwind: 0, mayThrow: 1, hasUnknownCall: 1, mustBeUnreachable: 0), calls: ((callee: ^10, relbf: 256), (callee: ^15, relbf: 278), (callee: ^53), (callee: ^35), (callee: ^43), (callee: ^21), (callee: ^29, relbf: 59), (callee: ^56), (callee: ^6)), refs: (^7, ^24, ^32, ^14, ^59, ^40, ^44, ^17, ^20, ^47, ^34, ^30, ^3, ^26, ^54, ^28, ^11)))) ; guid = 1313097334166562097
^10 = gv: (name: "_ZN11xercesc_2_59XMLString9lowerCaseEPt") ; guid = 1434207866657261690
^11 = gv: (name: "_ZN11xercesc_2_512DOMExceptionD1Ev") ; guid = 1543106262963072447
^12 = gv: (name: "_ZTVN11xercesc_2_520DOMConfigurationImplE", summaries: (variable: (module: ^0, flags: (linkage: external, visibility: default, notEligibleToImport: 1, live: 0, dsoLocal: 1, canAutoHide: 0), varFlags: (readonly: 1, writeonly: 0, constant: 1), refs: (^33, ^2, ^52, ^50, ^42, ^13)))) ; guid = 1661331516804806845
^13 = gv: (name: "_ZN11xercesc_2_520DOMConfigurationImplD0Ev", summaries: (function: (module: ^0, flags: (linkage: external, visibility: default, notEligibleToImport: 1, live: 0, dsoLocal: 1, canAutoHide: 0), insts: 2, funcFlags: (readNone: 0, readOnly: 0, noRecurse: 0, returnDoesNotAlias: 0, noInline: 0, alwaysInline: 0, noUnwind: 1, mayThrow: 0, hasUnknownCall: 0, mustBeUnreachable: 0), calls: ((callee: ^5, relbf: 256)), refs: (^7)))) ; guid = 1818512866868842025
^14 = gv: (name: "_ZN11xercesc_2_520DOMConfigurationImpl10fgCOMMENTSE", summaries: (variable: (module: ^0, flags: (linkage: external, visibility: default, notEligibleToImport: 1, live: 0, dsoLocal: 1, canAutoHide: 0), varFlags: (readonly: 1, writeonly: 0, constant: 1)))) ; guid = 1992036413022610623
^15 = gv: (name: "_ZN11xercesc_2_59XMLString6equalsEPKtS2_", summaries: (function: (module: ^0, flags: (linkage: linkonce_odr, visibility: default, notEligibleToImport: 1, live: 0, dsoLocal: 1, canAutoHide: 1), insts: 30, funcFlags: (readNone: 0, readOnly: 0, noRecurse: 0, returnDoesNotAlias: 0, noInline: 0, alwaysInline: 0, noUnwind: 1, mayThrow: 0, hasUnknownCall: 0, mustBeUnreachable: 0)))) ; guid = 2490451196746372854
^16 = gv: (name: "__cxa_begin_catch") ; guid = 2822380080272388849
^17 = gv: (name: "_ZN11xercesc_2_520DOMConfigurationImpl9fgINFOSETE", summaries: (variable: (module: ^0, flags: (linkage: external, visibility: default, notEligibleToImport: 1, live: 0, dsoLocal: 1, canAutoHide: 0), varFlags: (readonly: 1, writeonly: 0, constant: 1)))) ; guid = 2949515704372781524
^18 = gv: (name: "_ZN11xercesc_2_520DOMConfigurationImpl15setErrorHandlerEPNS_15DOMErrorHandlerE", summaries: (function: (module: ^0, flags: (linkage: external, visibility: default, notEligibleToImport: 1, live: 0, dsoLocal: 1, canAutoHide: 0), insts: 3, funcFlags: (readNone: 0, readOnly: 0, noRecurse: 1, returnDoesNotAlias: 0, noInline: 0, alwaysInline: 0, noUnwind: 1, mayThrow: 0, hasUnknownCall: 0, mustBeUnreachable: 0)))) ; guid = 3699730227491333050
^19 = gv: (name: "_ZN11xercesc_2_520DOMConfigurationImpl13setSchemaTypeEPKt", summaries: (function: (module: ^0, flags: (linkage: external, visibility: default, notEligibleToImport: 1, live: 0, dsoLocal: 1, canAutoHide: 0), insts: 3, funcFlags: (readNone: 0, readOnly: 0, noRecurse: 1, returnDoesNotAlias: 0, noInline: 0, alwaysInline: 0, noUnwind: 1, mayThrow: 0, hasUnknownCall: 0, mustBeUnreachable: 0)))) ; guid = 3851470034025065666
^20 = gv: (name: "_ZN11xercesc_2_520DOMConfigurationImpl12fgNAMESPACESE", summaries: (variable: (module: ^0, flags: (linkage: external, visibility: default, notEligibleToImport: 1, live: 0, dsoLocal: 1, canAutoHide: 0), varFlags: (readonly: 1, writeonly: 0, constant: 1)))) ; guid = 4664594183592365104
^21 = gv: (name: "__cxa_free_exception") ; guid = 5135209714110671627
^22 = gv: (name: "_ZN11xercesc_2_512DOMExceptionC1ERKS0_") ; guid = 5273512321236940217
^23 = gv: (name: "_ZTIN11xercesc_2_516DOMConfigurationE", summaries: (variable: (module: ^0, flags: (linkage: linkonce_odr, visibility: default, notEligibleToImport: 1, live: 0, dsoLocal: 1, canAutoHide: 0), varFlags: (readonly: 0, writeonly: 0, constant: 1), refs: (^25, ^55)))) ; guid = 6050672154933625919
^24 = gv: (name: "_ZN11xercesc_2_520DOMConfigurationImpl16fgCANONICAL_FORME", summaries: (variable: (module: ^0, flags: (linkage: external, visibility: default, notEligibleToImport: 1, live: 0, dsoLocal: 1, canAutoHide: 0), varFlags: (readonly: 1, writeonly: 0, constant: 1)))) ; guid = 6483696760605139629
^25 = gv: (name: "_ZTSN11xercesc_2_516DOMConfigurationE", summaries: (variable: (module: ^0, flags: (linkage: linkonce_odr, visibility: default, notEligibleToImport: 1, live: 0, dsoLocal: 1, canAutoHide: 0), varFlags: (readonly: 0, writeonly: 0, constant: 1)))) ; guid = 6902439220847907487
^26 = gv: (name: "_ZN11xercesc_2_520DOMConfigurationImpl20fgVALIDATE_IF_SCHEMAE", summaries: (variable: (module: ^0, flags: (linkage: external, visibility: default, notEligibleToImport: 1, live: 0, dsoLocal: 1, canAutoHide: 0), varFlags: (readonly: 1, writeonly: 0, constant: 1)))) ; guid = 7430766536810940955
^27 = gv: (name: "_ZNK11xercesc_2_520DOMConfigurationImpl17getSchemaLocationEv", summaries: (function: (module: ^0, flags: (linkage: external, visibility: default, notEligibleToImport: 1, live: 0, dsoLocal: 1, canAutoHide: 0), insts: 3, funcFlags: (readNone: 0, readOnly: 1, noRecurse: 1, returnDoesNotAlias: 0, noInline: 0, alwaysInline: 0, noUnwind: 1, mayThrow: 0, hasUnknownCall: 0, mustBeUnreachable: 0)))) ; guid = 7455111785233138029
^28 = gv: (name: "_ZTIN11xercesc_2_512DOMExceptionE") ; guid = 7605878518712200659
^29 = gv: (name: "_ZdaPv") ; guid = 8244930240056412646
^30 = gv: (name: "_ZN11xercesc_2_520DOMConfigurationImpl22fgSPLIT_CDATA_SECTIONSE", summaries: (variable: (module: ^0, flags: (linkage: external, visibility: default, notEligibleToImport: 1, live: 0, dsoLocal: 1, canAutoHide: 0), varFlags: (readonly: 1, writeonly: 0, constant: 1)))) ; guid = 8279747914399803345
^31 = gv: (name: "_ZN11xercesc_2_520DOMConfigurationImplC2EPNS_13MemoryManagerE", summaries: (function: (module: ^0, flags: (linkage: external, visibility: default, notEligibleToImport: 1, live: 0, dsoLocal: 1, canAutoHide: 0), insts: 8, funcFlags: (readNone: 0, readOnly: 0, noRecurse: 0, returnDoesNotAlias: 0, noInline: 0, alwaysInline: 0, noUnwind: 1, mayThrow: 0, hasUnknownCall: 0, mustBeUnreachable: 0), refs: (^12)))) ; guid = 8396946490940647039
^32 = gv: (name: "_ZN11xercesc_2_520DOMConfigurationImpl16fgCDATA_SECTIONSE", summaries: (variable: (module: ^0, flags: (linkage: external, visibility: default, notEligibleToImport: 1, live: 0, dsoLocal: 1, canAutoHide: 0), varFlags: (readonly: 1, writeonly: 0, constant: 1)))) ; guid = 8626661328975547524
^33 = gv: (name: "_ZTIN11xercesc_2_520DOMConfigurationImplE", summaries: (variable: (module: ^0, flags: (linkage: external, visibility: default, notEligibleToImport: 1, live: 0, dsoLocal: 1, canAutoHide: 0), varFlags: (readonly: 1, writeonly: 0, constant: 1), refs: (^51, ^23, ^41)))) ; guid = 8842203229559706455
^34 = gv: (name: "_ZN11xercesc_2_520DOMConfigurationImpl22fgNORMALIZE_CHARACTERSE", summaries: (variable: (module: ^0, flags: (linkage: external, visibility: default, notEligibleToImport: 1, live: 0, dsoLocal: 1, canAutoHide: 0), varFlags: (readonly: 1, writeonly: 0, constant: 1)))) ; guid = 9170849686384448005
^35 = gv: (name: "_ZN11xercesc_2_512DOMExceptionC1EsPKt") ; guid = 9528075154166381681
^36 = gv: (name: "__cxa_end_catch") ; guid = 10158920175350430535
^37 = gv: (name: "_ZN11xercesc_2_520DOMConfigurationImpl17fgSCHEMA_LOCATIONE", summaries: (variable: (module: ^0, flags: (linkage: external, visibility: default, notEligibleToImport: 1, live: 0, dsoLocal: 1, canAutoHide: 0), varFlags: (readonly: 1, writeonly: 0, constant: 1)))) ; guid = 10342375721747336081
^38 = gv: (name: "_ZN11xercesc_2_520DOMConfigurationImplD1Ev", summaries: (alias: (module: ^0, flags: (linkage: external, visibility: default, notEligibleToImport: 1, live: 0, dsoLocal: 1, canAutoHide: 0), aliasee: ^42))) ; guid = 10392826418983347770
^39 = gv: (name: "_ZN11xercesc_2_520DOMConfigurationImpl5fTrueE", summaries: (variable: (module: ^0, flags: (linkage: external, visibility: default, notEligibleToImport: 1, live: 0, dsoLocal: 1, canAutoHide: 0), varFlags: (readonly: 1, writeonly: 0, constant: 1)))) ; guid = 10589127987146611577
^40 = gv: (name: "_ZN11xercesc_2_520DOMConfigurationImpl25fgDISCARD_DEFAULT_CONTENTE", summaries: (variable: (module: ^0, flags: (linkage: external, visibility: default, notEligibleToImport: 1, live: 0, dsoLocal: 1, canAutoHide: 0), varFlags: (readonly: 1, writeonly: 0, constant: 1)))) ; guid = 10672330855602085879
^41 = gv: (name: "_ZTVN10__cxxabiv120__si_class_type_infoE") ; guid = 10873349890511596996
^42 = gv: (name: "_ZN11xercesc_2_520DOMConfigurationImplD2Ev", summaries: (function: (module: ^0, flags: (linkage: external, visibility: default, notEligibleToImport: 1, live: 0, dsoLocal: 1, canAutoHide: 0), insts: 1, funcFlags: (readNone: 1, readOnly: 0, noRecurse: 1, returnDoesNotAlias: 0, noInline: 0, alwaysInline: 0, noUnwind: 1, mayThrow: 0, hasUnknownCall: 0, mustBeUnreachable: 0)))) ; guid = 11121785036167486088
^43 = gv: (name: "__cxa_throw") ; guid = 11744965366672030630
^44 = gv: (name: "_ZN11xercesc_2_520DOMConfigurationImpl10fgENTITIESE", summaries: (variable: (module: ^0, flags: (linkage: external, visibility: default, notEligibleToImport: 1, live: 0, dsoLocal: 1, canAutoHide: 0), varFlags: (readonly: 1, writeonly: 0, constant: 1)))) ; guid = 12073055573221081329
^45 = gv: (name: "_ZNK11xercesc_2_520DOMConfigurationImpl15getErrorHandlerEv", summaries: (function: (module: ^0, flags: (linkage: external, visibility: default, notEligibleToImport: 1, live: 0, dsoLocal: 1, canAutoHide: 0), insts: 3, funcFlags: (readNone: 0, readOnly: 1, noRecurse: 1, returnDoesNotAlias: 0, noInline: 0, alwaysInline: 0, noUnwind: 1, mayThrow: 0, hasUnknownCall: 0, mustBeUnreachable: 0)))) ; guid = 12388848249860386343
^46 = gv: (name: "_ZN11xercesc_2_520DOMConfigurationImplC1EPNS_13MemoryManagerE", summaries: (alias: (module: ^0, flags: (linkage: external, visibility: default, notEligibleToImport: 1, live: 0, dsoLocal: 1, canAutoHide: 0), aliasee: ^31))) ; guid = 12577977450003444007
^47 = gv: (name: "_ZN11xercesc_2_520DOMConfigurationImpl24fgNAMESPACE_DECLARATIONSE", summaries: (variable: (module: ^0, flags: (linkage: external, visibility: default, notEligibleToImport: 1, live: 0, dsoLocal: 1, canAutoHide: 0), varFlags: (readonly: 1, writeonly: 0, constant: 1)))) ; guid = 13474367513979648167
^48 = gv: (name: "_ZN11xercesc_2_520DOMConfigurationImpl15fgERROR_HANDLERE", summaries: (variable: (module: ^0, flags: (linkage: external, visibility: default, notEligibleToImport: 1, live: 0, dsoLocal: 1, canAutoHide: 0), varFlags: (readonly: 1, writeonly: 0, constant: 1)))) ; guid = 13697801858890678520
^49 = gv: (name: "_ZSt9terminatev") ; guid = 13807749166652787960
^50 = gv: (name: "_ZNK11xercesc_2_520DOMConfigurationImpl15canSetParameterEPKtPKv", summaries: (function: (module: ^0, flags: (linkage: external, visibility: default, notEligibleToImport: 1, live: 0, dsoLocal: 1, canAutoHide: 0), insts: 147, funcFlags: (readNone: 0, readOnly: 0, noRecurse: 0, returnDoesNotAlias: 0, noInline: 0, alwaysInline: 0, noUnwind: 0, mayThrow: 1, hasUnknownCall: 1, mustBeUnreachable: 0), calls: ((callee: ^10, relbf: 160), (callee: ^9, relbf: 159), (callee: ^60), (callee: ^22), (callee: ^16), (callee: ^11), (callee: ^36), (callee: ^29, relbf: 37), (callee: ^56), (callee: ^6)), refs: (^7, ^28, ^48, ^8, ^37)))) ; guid = 13933779735904969110
^51 = gv: (name: "_ZTSN11xercesc_2_520DOMConfigurationImplE", summaries: (variable: (module: ^0, flags: (linkage: external, visibility: default, notEligibleToImport: 1, live: 0, dsoLocal: 1, canAutoHide: 0), varFlags: (readonly: 1, writeonly: 0, constant: 1)))) ; guid = 14467347080114703630
^52 = gv: (name: "_ZNK11xercesc_2_520DOMConfigurationImpl12getParameterEPKt", summaries: (function: (module: ^0, flags: (linkage: external, visibility: default, notEligibleToImport: 1, live: 0, dsoLocal: 1, canAutoHide: 0), insts: 146, funcFlags: (readNone: 0, readOnly: 0, noRecurse: 0, returnDoesNotAlias: 0, noInline: 0, alwaysInline: 0, noUnwind: 0, mayThrow: 1, hasUnknownCall: 1, mustBeUnreachable: 0), calls: ((callee: ^10, relbf: 256), (callee: ^9, relbf: 255), (callee: ^60), (callee: ^22), (callee: ^16), (callee: ^11), (callee: ^36), (callee: ^53), (callee: ^35), (callee: ^43), (callee: ^21), (callee: ^29, relbf: 59), (callee: ^56), (callee: ^6)), refs: (^7, ^28, ^1, ^39, ^48, ^8, ^37, ^11)))) ; guid = 14704621485244035908
^53 = gv: (name: "__cxa_allocate_exception") ; guid = 15475840464582149017
^54 = gv: (name: "_ZN11xercesc_2_520DOMConfigurationImpl31fgWHITESPACE_IN_ELEMENT_CONTENTE", summaries: (variable: (module: ^0, flags: (linkage: external, visibility: default, notEligibleToImport: 1, live: 0, dsoLocal: 1, canAutoHide: 0), varFlags: (readonly: 1, writeonly: 0, constant: 1)))) ; guid = 15685342296708085404
^55 = gv: (name: "_ZTVN10__cxxabiv117__class_type_infoE") ; guid = 16105443863886496782
^56 = gv: (name: "_ZN11xercesc_2_512ArrayJanitorItED2Ev", summaries: (function: (module: ^0, flags: (linkage: linkonce_odr, visibility: default, notEligibleToImport: 1, live: 0, dsoLocal: 1, canAutoHide: 1), insts: 16, funcFlags: (readNone: 0, readOnly: 0, noRecurse: 0, returnDoesNotAlias: 0, noInline: 0, alwaysInline: 0, noUnwind: 0, mayThrow: 0, hasUnknownCall: 1, mustBeUnreachable: 0), calls: ((callee: ^29, relbf: 60))))) ; guid = 16168984724933153475
^57 = gv: (name: "_ZN11xercesc_2_520DOMConfigurationImpl17setSchemaLocationEPKt", summaries: (function: (module: ^0, flags: (linkage: external, visibility: default, notEligibleToImport: 1, live: 0, dsoLocal: 1, canAutoHide: 0), insts: 3, funcFlags: (readNone: 0, readOnly: 0, noRecurse: 1, returnDoesNotAlias: 0, noInline: 0, alwaysInline: 0, noUnwind: 1, mayThrow: 0, hasUnknownCall: 0, mustBeUnreachable: 0)))) ; guid = 17047186489586250767
^58 = gv: (name: "_ZNK11xercesc_2_520DOMConfigurationImpl13getSchemaTypeEv", summaries: (function: (module: ^0, flags: (linkage: external, visibility: default, notEligibleToImport: 1, live: 0, dsoLocal: 1, canAutoHide: 0), insts: 3, funcFlags: (readNone: 0, readOnly: 1, noRecurse: 1, returnDoesNotAlias: 0, noInline: 0, alwaysInline: 0, noUnwind: 1, mayThrow: 0, hasUnknownCall: 0, mustBeUnreachable: 0)))) ; guid = 17690623988301244027
^59 = gv: (name: "_ZN11xercesc_2_520DOMConfigurationImpl24fgDATATYPE_NORMALIZATIONE", summaries: (variable: (module: ^0, flags: (linkage: external, visibility: default, notEligibleToImport: 1, live: 0, dsoLocal: 1, canAutoHide: 0), varFlags: (readonly: 1, writeonly: 0, constant: 1)))) ; guid = 17754402526600735859
^60 = gv: (name: "__cxa_get_exception_ptr") ; guid = 17848572211445941033
^61 = flags: 8
^62 = blockcount: 0
