; ModuleID = 'FormatterListener.cpp'
source_filename = "FormatterListener.cpp"
target datalayout = "e-m:e-p270:32:32-p271:32:32-p272:64:64-i64:64-f80:128-n8:16:32:64-S128"
target triple = "x86_64-unknown-linux-gnu"

%"class.xalanc_1_8::XalanDOMString" = type <{ %"class.std::vector", i32, [4 x i8] }>
%"class.std::vector" = type { %"struct.std::_Vector_base" }
%"struct.std::_Vector_base" = type { %"struct.std::_Vector_base<unsigned short, std::allocator<unsigned short> >::_Vector_impl" }
%"struct.std::_Vector_base<unsigned short, std::allocator<unsigned short> >::_Vector_impl" = type { %"struct.std::_Vector_base<unsigned short, std::allocator<unsigned short> >::_Vector_impl_data" }
%"struct.std::_Vector_base<unsigned short, std::allocator<unsigned short> >::_Vector_impl_data" = type { ptr, ptr, ptr }
%"class.xalanc_1_8::FormatterListener" = type <{ %"class.xercesc_2_5::DocumentHandler", ptr, i32, [4 x i8] }>
%"class.xercesc_2_5::DocumentHandler" = type { ptr }

$_ZN10xalanc_1_814XalanDOMStringD2Ev = comdat any

$_ZTSN11xercesc_2_515DocumentHandlerE = comdat any

$_ZTIN11xercesc_2_515DocumentHandlerE = comdat any

@_ZTVN10xalanc_1_817FormatterListenerE = dso_local unnamed_addr constant { [23 x ptr] } { [23 x ptr] [ptr null, ptr @_ZTIN10xalanc_1_817FormatterListenerE, ptr @_ZN10xalanc_1_817FormatterListenerD2Ev, ptr @_ZN10xalanc_1_817FormatterListenerD0Ev, ptr @__cxa_pure_virtual, ptr @__cxa_pure_virtual, ptr @__cxa_pure_virtual, ptr @__cxa_pure_virtual, ptr @__cxa_pure_virtual, ptr @__cxa_pure_virtual, ptr @__cxa_pure_virtual, ptr @__cxa_pure_virtual, ptr @__cxa_pure_virtual, ptr @__cxa_pure_virtual, ptr @__cxa_pure_virtual, ptr @__cxa_pure_virtual, ptr @__cxa_pure_virtual, ptr @_ZNK10xalanc_1_817FormatterListener9getWriterEv, ptr @_ZNK10xalanc_1_817FormatterListener16getDoctypeSystemEv, ptr @_ZNK10xalanc_1_817FormatterListener16getDoctypePublicEv, ptr @_ZNK10xalanc_1_817FormatterListener11getEncodingEv, ptr @_ZNK10xalanc_1_817FormatterListener12getMediaTypeEv, ptr @_ZNK10xalanc_1_817FormatterListener9getIndentEv] }, align 8, !type !0, !type !1, !type !2, !type !3, !type !4, !type !5, !type !6, !type !7, !type !8, !type !9, !type !10, !type !11, !type !12, !type !13, !type !14, !type !15, !type !16, !type !17, !type !18, !type !19, !type !20, !type !21, !type !22, !type !23, !type !24, !type !25, !type !26, !type !27, !type !28, !type !29, !type !30, !type !31, !type !32, !type !33, !type !34, !type !35, !type !36, !type !37, !type !38, !type !39
@_ZN10xalanc_1_817FormatterListener13s_emptyStringE = dso_local global %"class.xalanc_1_8::XalanDOMString" zeroinitializer, align 8
@__dso_handle = external hidden global i8
@_ZN10xalanc_1_817FormatterListener10s_piTargetE = dso_local local_unnamed_addr constant [6 x i16] [i16 88, i16 97, i16 108, i16 97, i16 110, i16 0], align 2
@_ZN10xalanc_1_817FormatterListener8s_piDataE = dso_local local_unnamed_addr constant [4 x i16] [i16 114, i16 97, i16 119, i16 0], align 2
@_ZN10xalanc_1_817FormatterListener16s_piTargetLengthE = dso_local local_unnamed_addr constant i32 5, align 4
@_ZN10xalanc_1_817FormatterListener14s_piDataLengthE = dso_local local_unnamed_addr constant i32 3, align 4
@_ZTVN10__cxxabiv120__si_class_type_infoE = external global ptr
@_ZTSN10xalanc_1_817FormatterListenerE = dso_local constant [34 x i8] c"N10xalanc_1_817FormatterListenerE\00", align 1
@_ZTVN10__cxxabiv117__class_type_infoE = external global ptr
@_ZTSN11xercesc_2_515DocumentHandlerE = linkonce_odr dso_local constant [33 x i8] c"N11xercesc_2_515DocumentHandlerE\00", comdat, align 1
@_ZTIN11xercesc_2_515DocumentHandlerE = linkonce_odr dso_local constant { ptr, ptr } { ptr getelementptr inbounds (ptr, ptr @_ZTVN10__cxxabiv117__class_type_infoE, i64 2), ptr @_ZTSN11xercesc_2_515DocumentHandlerE }, comdat, align 8
@_ZTIN10xalanc_1_817FormatterListenerE = dso_local constant { ptr, ptr, ptr } { ptr getelementptr inbounds (ptr, ptr @_ZTVN10__cxxabiv120__si_class_type_infoE, i64 2), ptr @_ZTSN10xalanc_1_817FormatterListenerE, ptr @_ZTIN11xercesc_2_515DocumentHandlerE }, align 8
@llvm.global_ctors = appending global [1 x { i32, ptr, ptr }] [{ i32, ptr, ptr } { i32 65535, ptr @_GLOBAL__sub_I_FormatterListener.cpp, ptr null }]

@_ZN10xalanc_1_817FormatterListenerD1Ev = dso_local unnamed_addr alias void (ptr), ptr @_ZN10xalanc_1_817FormatterListenerD2Ev

; Function Attrs: mustprogress nofree norecurse nosync nounwind willreturn memory(argmem: write) uwtable
define dso_local void @_ZN10xalanc_1_817FormatterListenerC2ENS0_7eFormatE(ptr nocapture noundef nonnull writeonly align 8 dereferenceable(20) %0, i32 noundef %1) unnamed_addr #0 align 2 {
  store ptr getelementptr inbounds ({ [23 x ptr] }, ptr @_ZTVN10xalanc_1_817FormatterListenerE, i64 0, inrange i32 0, i64 2), ptr %0, align 8, !tbaa !47
  %3 = getelementptr inbounds %"class.xalanc_1_8::FormatterListener", ptr %0, i64 0, i32 1
  store ptr null, ptr %3, align 8, !tbaa !50
  %4 = getelementptr inbounds %"class.xalanc_1_8::FormatterListener", ptr %0, i64 0, i32 2
  store i32 %1, ptr %4, align 8, !tbaa !56
  ret void
}

; Function Attrs: mustprogress nofree norecurse nosync nounwind willreturn memory(none) uwtable
define dso_local void @_ZN10xalanc_1_817FormatterListenerD2Ev(ptr nocapture nonnull readnone align 8 %0) unnamed_addr #1 align 2 {
  ret void
}

; Function Attrs: noreturn nounwind uwtable
define dso_local void @_ZN10xalanc_1_817FormatterListenerD0Ev(ptr nocapture nonnull readnone align 8 %0) unnamed_addr #2 align 2 {
  tail call void @llvm.trap() #8
  unreachable
}

; Function Attrs: cold noreturn nounwind
declare void @llvm.trap() #3

; Function Attrs: mustprogress nofree norecurse nosync nounwind willreturn memory(none) uwtable
define dso_local noalias noundef ptr @_ZNK10xalanc_1_817FormatterListener9getWriterEv(ptr nocapture nonnull readnone align 8 %0) unnamed_addr #1 align 2 {
  ret ptr null
}

declare void @_ZN10xalanc_1_814XalanDOMStringC1Ev(ptr noundef nonnull align 8 dereferenceable(28)) unnamed_addr #4

; Function Attrs: uwtable
define linkonce_odr dso_local void @_ZN10xalanc_1_814XalanDOMStringD2Ev(ptr noundef nonnull align 8 dereferenceable(28) %0) unnamed_addr #5 comdat align 2 personality ptr @__gxx_personality_v0 {
  %2 = load ptr, ptr %0, align 8, !tbaa !57
  %3 = icmp eq ptr %2, null
  br i1 %3, label %5, label %4

4:                                                ; preds = %1
  tail call void @_ZdlPv(ptr noundef nonnull %2) #9
  br label %5

5:                                                ; preds = %1, %4
  ret void
}

; Function Attrs: nofree nounwind
declare i32 @__cxa_atexit(ptr, ptr, ptr) local_unnamed_addr #6

; Function Attrs: mustprogress nofree norecurse nosync nounwind willreturn memory(none) uwtable
define dso_local noundef nonnull align 8 dereferenceable(28) ptr @_ZNK10xalanc_1_817FormatterListener16getDoctypeSystemEv(ptr nocapture nonnull readnone align 8 %0) unnamed_addr #1 align 2 {
  ret ptr @_ZN10xalanc_1_817FormatterListener13s_emptyStringE
}

; Function Attrs: mustprogress nofree norecurse nosync nounwind willreturn memory(none) uwtable
define dso_local noundef nonnull align 8 dereferenceable(28) ptr @_ZNK10xalanc_1_817FormatterListener16getDoctypePublicEv(ptr nocapture nonnull readnone align 8 %0) unnamed_addr #1 align 2 {
  ret ptr @_ZN10xalanc_1_817FormatterListener13s_emptyStringE
}

; Function Attrs: mustprogress nofree norecurse nosync nounwind willreturn memory(none) uwtable
define dso_local noundef nonnull align 8 dereferenceable(28) ptr @_ZNK10xalanc_1_817FormatterListener11getEncodingEv(ptr nocapture nonnull readnone align 8 %0) unnamed_addr #1 align 2 {
  ret ptr @_ZN10xalanc_1_817FormatterListener13s_emptyStringE
}

; Function Attrs: mustprogress nofree norecurse nosync nounwind willreturn memory(none) uwtable
define dso_local noundef nonnull align 8 dereferenceable(28) ptr @_ZNK10xalanc_1_817FormatterListener12getMediaTypeEv(ptr nocapture nonnull readnone align 8 %0) unnamed_addr #1 align 2 {
  ret ptr @_ZN10xalanc_1_817FormatterListener13s_emptyStringE
}

; Function Attrs: mustprogress nofree norecurse nosync nounwind willreturn memory(none) uwtable
define dso_local noundef i32 @_ZNK10xalanc_1_817FormatterListener9getIndentEv(ptr nocapture nonnull readnone align 8 %0) unnamed_addr #1 align 2 {
  ret i32 0
}

declare void @__cxa_pure_virtual() unnamed_addr

declare i32 @__gxx_personality_v0(...)

; Function Attrs: nobuiltin nounwind
declare void @_ZdlPv(ptr noundef) local_unnamed_addr #7

; Function Attrs: uwtable
define internal void @_GLOBAL__sub_I_FormatterListener.cpp() #5 section ".text.startup" {
  tail call void @_ZN10xalanc_1_814XalanDOMStringC1Ev(ptr noundef nonnull align 8 dereferenceable(28) @_ZN10xalanc_1_817FormatterListener13s_emptyStringE)
  %1 = tail call i32 @__cxa_atexit(ptr nonnull @_ZN10xalanc_1_814XalanDOMStringD2Ev, ptr nonnull @_ZN10xalanc_1_817FormatterListener13s_emptyStringE, ptr nonnull @__dso_handle) #9
  ret void
}

attributes #0 = { mustprogress nofree norecurse nosync nounwind willreturn memory(argmem: write) uwtable "approx-func-fp-math"="true" "denormal-fp-math"="preserve-sign,preserve-sign" "min-legal-vector-width"="0" "no-infs-fp-math"="true" "no-nans-fp-math"="true" "no-signed-zeros-fp-math"="true" "no-trapping-math"="true" "stack-protector-buffer-size"="8" "target-cpu"="znver2" "target-features"="+adx,+aes,+avx,+avx2,+bmi,+bmi2,+clflushopt,+clwb,+clzero,+crc32,+cx16,+cx8,+f16c,+fma,+fsgsbase,+fxsr,+lzcnt,+mmx,+movbe,+mwaitx,+pclmul,+popcnt,+prfchw,+rdpid,+rdpru,+rdrnd,+rdseed,+sahf,+sha,+sse,+sse2,+sse3,+sse4.1,+sse4.2,+sse4a,+ssse3,+wbnoinvd,+x87,+xsave,+xsavec,+xsaveopt,+xsaves" }
attributes #1 = { mustprogress nofree norecurse nosync nounwind willreturn memory(none) uwtable "approx-func-fp-math"="true" "denormal-fp-math"="preserve-sign,preserve-sign" "min-legal-vector-width"="0" "no-infs-fp-math"="true" "no-nans-fp-math"="true" "no-signed-zeros-fp-math"="true" "no-trapping-math"="true" "stack-protector-buffer-size"="8" "target-cpu"="znver2" "target-features"="+adx,+aes,+avx,+avx2,+bmi,+bmi2,+clflushopt,+clwb,+clzero,+crc32,+cx16,+cx8,+f16c,+fma,+fsgsbase,+fxsr,+lzcnt,+mmx,+movbe,+mwaitx,+pclmul,+popcnt,+prfchw,+rdpid,+rdpru,+rdrnd,+rdseed,+sahf,+sha,+sse,+sse2,+sse3,+sse4.1,+sse4.2,+sse4a,+ssse3,+wbnoinvd,+x87,+xsave,+xsavec,+xsaveopt,+xsaves" }
attributes #2 = { noreturn nounwind uwtable "approx-func-fp-math"="true" "denormal-fp-math"="preserve-sign,preserve-sign" "min-legal-vector-width"="0" "no-infs-fp-math"="true" "no-nans-fp-math"="true" "no-signed-zeros-fp-math"="true" "no-trapping-math"="true" "stack-protector-buffer-size"="8" "target-cpu"="znver2" "target-features"="+adx,+aes,+avx,+avx2,+bmi,+bmi2,+clflushopt,+clwb,+clzero,+crc32,+cx16,+cx8,+f16c,+fma,+fsgsbase,+fxsr,+lzcnt,+mmx,+movbe,+mwaitx,+pclmul,+popcnt,+prfchw,+rdpid,+rdpru,+rdrnd,+rdseed,+sahf,+sha,+sse,+sse2,+sse3,+sse4.1,+sse4.2,+sse4a,+ssse3,+wbnoinvd,+x87,+xsave,+xsavec,+xsaveopt,+xsaves" }
attributes #3 = { cold noreturn nounwind }
attributes #4 = { "approx-func-fp-math"="true" "denormal-fp-math"="preserve-sign,preserve-sign" "no-infs-fp-math"="true" "no-nans-fp-math"="true" "no-signed-zeros-fp-math"="true" "no-trapping-math"="true" "stack-protector-buffer-size"="8" "target-cpu"="znver2" "target-features"="+adx,+aes,+avx,+avx2,+bmi,+bmi2,+clflushopt,+clwb,+clzero,+crc32,+cx16,+cx8,+f16c,+fma,+fsgsbase,+fxsr,+lzcnt,+mmx,+movbe,+mwaitx,+pclmul,+popcnt,+prfchw,+rdpid,+rdpru,+rdrnd,+rdseed,+sahf,+sha,+sse,+sse2,+sse3,+sse4.1,+sse4.2,+sse4a,+ssse3,+wbnoinvd,+x87,+xsave,+xsavec,+xsaveopt,+xsaves" }
attributes #5 = { uwtable "approx-func-fp-math"="true" "denormal-fp-math"="preserve-sign,preserve-sign" "min-legal-vector-width"="0" "no-infs-fp-math"="true" "no-nans-fp-math"="true" "no-signed-zeros-fp-math"="true" "no-trapping-math"="true" "stack-protector-buffer-size"="8" "target-cpu"="znver2" "target-features"="+adx,+aes,+avx,+avx2,+bmi,+bmi2,+clflushopt,+clwb,+clzero,+crc32,+cx16,+cx8,+f16c,+fma,+fsgsbase,+fxsr,+lzcnt,+mmx,+movbe,+mwaitx,+pclmul,+popcnt,+prfchw,+rdpid,+rdpru,+rdrnd,+rdseed,+sahf,+sha,+sse,+sse2,+sse3,+sse4.1,+sse4.2,+sse4a,+ssse3,+wbnoinvd,+x87,+xsave,+xsavec,+xsaveopt,+xsaves" }
attributes #6 = { nofree nounwind }
attributes #7 = { nobuiltin nounwind "approx-func-fp-math"="true" "denormal-fp-math"="preserve-sign,preserve-sign" "no-infs-fp-math"="true" "no-nans-fp-math"="true" "no-signed-zeros-fp-math"="true" "no-trapping-math"="true" "stack-protector-buffer-size"="8" "target-cpu"="znver2" "target-features"="+adx,+aes,+avx,+avx2,+bmi,+bmi2,+clflushopt,+clwb,+clzero,+crc32,+cx16,+cx8,+f16c,+fma,+fsgsbase,+fxsr,+lzcnt,+mmx,+movbe,+mwaitx,+pclmul,+popcnt,+prfchw,+rdpid,+rdpru,+rdrnd,+rdseed,+sahf,+sha,+sse,+sse2,+sse3,+sse4.1,+sse4.2,+sse4a,+ssse3,+wbnoinvd,+x87,+xsave,+xsavec,+xsaveopt,+xsaves" }
attributes #8 = { noreturn nounwind }
attributes #9 = { nounwind }

!llvm.module.flags = !{!40, !41, !42, !43, !44, !45}
!llvm.ident = !{!46}

!0 = !{i64 16, !"_ZTSN10xalanc_1_817FormatterListenerE"}
!1 = !{i64 32, !"_ZTSMN10xalanc_1_817FormatterListenerEFvPKtjE.virtual"}
!2 = !{i64 40, !"_ZTSMN10xalanc_1_817FormatterListenerEFvvE.virtual"}
!3 = !{i64 48, !"_ZTSMN10xalanc_1_817FormatterListenerEFvPKtE.virtual"}
!4 = !{i64 56, !"_ZTSMN10xalanc_1_817FormatterListenerEFvPKtjE.virtual"}
!5 = !{i64 64, !"_ZTSMN10xalanc_1_817FormatterListenerEFvPKtS2_E.virtual"}
!6 = !{i64 72, !"_ZTSMN10xalanc_1_817FormatterListenerEFvvE.virtual"}
!7 = !{i64 80, !"_ZTSMN10xalanc_1_817FormatterListenerEFvPKN11xercesc_2_57LocatorEE.virtual"}
!8 = !{i64 88, !"_ZTSMN10xalanc_1_817FormatterListenerEFvvE.virtual"}
!9 = !{i64 96, !"_ZTSMN10xalanc_1_817FormatterListenerEFvPKtRN11xercesc_2_513AttributeListEE.virtual"}
!10 = !{i64 104, !"_ZTSMN10xalanc_1_817FormatterListenerEFvPKtjE.virtual"}
!11 = !{i64 112, !"_ZTSMN10xalanc_1_817FormatterListenerEFvPKtE.virtual"}
!12 = !{i64 120, !"_ZTSMN10xalanc_1_817FormatterListenerEFvPKtjE.virtual"}
!13 = !{i64 128, !"_ZTSMN10xalanc_1_817FormatterListenerEFvPKtE.virtual"}
!14 = !{i64 136, !"_ZTSMN10xalanc_1_817FormatterListenerEKFPNS_6WriterEvE.virtual"}
!15 = !{i64 144, !"_ZTSMN10xalanc_1_817FormatterListenerEKFRKNS_14XalanDOMStringEvE.virtual"}
!16 = !{i64 152, !"_ZTSMN10xalanc_1_817FormatterListenerEKFRKNS_14XalanDOMStringEvE.virtual"}
!17 = !{i64 160, !"_ZTSMN10xalanc_1_817FormatterListenerEKFRKNS_14XalanDOMStringEvE.virtual"}
!18 = !{i64 168, !"_ZTSMN10xalanc_1_817FormatterListenerEKFRKNS_14XalanDOMStringEvE.virtual"}
!19 = !{i64 176, !"_ZTSMN10xalanc_1_817FormatterListenerEKFivE.virtual"}
!20 = !{i64 16, !"_ZTSN11xercesc_2_515DocumentHandlerE"}
!21 = !{i64 32, !"_ZTSMN11xercesc_2_515DocumentHandlerEFvPKtjE.virtual"}
!22 = !{i64 40, !"_ZTSMN11xercesc_2_515DocumentHandlerEFvvE.virtual"}
!23 = !{i64 48, !"_ZTSMN11xercesc_2_515DocumentHandlerEFvPKtE.virtual"}
!24 = !{i64 56, !"_ZTSMN11xercesc_2_515DocumentHandlerEFvPKtjE.virtual"}
!25 = !{i64 64, !"_ZTSMN11xercesc_2_515DocumentHandlerEFvPKtS2_E.virtual"}
!26 = !{i64 72, !"_ZTSMN11xercesc_2_515DocumentHandlerEFvvE.virtual"}
!27 = !{i64 80, !"_ZTSMN11xercesc_2_515DocumentHandlerEFvPKNS_7LocatorEE.virtual"}
!28 = !{i64 88, !"_ZTSMN11xercesc_2_515DocumentHandlerEFvvE.virtual"}
!29 = !{i64 96, !"_ZTSMN11xercesc_2_515DocumentHandlerEFvPKtRNS_13AttributeListEE.virtual"}
!30 = !{i64 104, !"_ZTSMN11xercesc_2_515DocumentHandlerEFvPKtjE.virtual"}
!31 = !{i64 112, !"_ZTSMN11xercesc_2_515DocumentHandlerEFvPKtE.virtual"}
!32 = !{i64 120, !"_ZTSMN11xercesc_2_515DocumentHandlerEFvPKtjE.virtual"}
!33 = !{i64 128, !"_ZTSMN11xercesc_2_515DocumentHandlerEFvPKtE.virtual"}
!34 = !{i64 136, !"_ZTSMN11xercesc_2_515DocumentHandlerEKFPN10xalanc_1_86WriterEvE.virtual"}
!35 = !{i64 144, !"_ZTSMN11xercesc_2_515DocumentHandlerEKFRKN10xalanc_1_814XalanDOMStringEvE.virtual"}
!36 = !{i64 152, !"_ZTSMN11xercesc_2_515DocumentHandlerEKFRKN10xalanc_1_814XalanDOMStringEvE.virtual"}
!37 = !{i64 160, !"_ZTSMN11xercesc_2_515DocumentHandlerEKFRKN10xalanc_1_814XalanDOMStringEvE.virtual"}
!38 = !{i64 168, !"_ZTSMN11xercesc_2_515DocumentHandlerEKFRKN10xalanc_1_814XalanDOMStringEvE.virtual"}
!39 = !{i64 176, !"_ZTSMN11xercesc_2_515DocumentHandlerEKFivE.virtual"}
!40 = !{i32 1, !"wchar_size", i32 4}
!41 = !{i32 8, !"PIC Level", i32 2}
!42 = !{i32 7, !"PIE Level", i32 2}
!43 = !{i32 7, !"uwtable", i32 2}
!44 = !{i32 1, !"ThinLTO", i32 0}
!45 = !{i32 1, !"EnableSplitLTOUnit", i32 1}
!46 = !{!"clang version 17.0.0 (git@github.com:llvm/llvm-project.git cff7a7747db02d1214b20e98677e5ddcb402ffe0)"}
!47 = !{!48, !48, i64 0}
!48 = !{!"vtable pointer", !49, i64 0}
!49 = !{!"Simple C++ TBAA"}
!50 = !{!51, !53, i64 8}
!51 = !{!"_ZTSN10xalanc_1_817FormatterListenerE", !52, i64 0, !53, i64 8, !55, i64 16}
!52 = !{!"_ZTSN11xercesc_2_515DocumentHandlerE"}
!53 = !{!"any pointer", !54, i64 0}
!54 = !{!"omnipotent char", !49, i64 0}
!55 = !{!"_ZTSN10xalanc_1_817FormatterListener7eFormatE", !54, i64 0}
!56 = !{!51, !55, i64 16}
!57 = !{!58, !53, i64 0}
!58 = !{!"_ZTSNSt12_Vector_baseItSaItEE17_Vector_impl_dataE", !53, i64 0, !53, i64 8, !53, i64 16}

^0 = module: (path: "", hash: (0, 0, 0, 0, 0))
^1 = gv: (name: "_ZdlPv") ; guid = 950067649961216671
^2 = gv: (name: "__gxx_personality_v0") ; guid = 1233668236132380018
^3 = gv: (name: "_ZN10xalanc_1_814XalanDOMStringC1Ev") ; guid = 1299472227070622251
^4 = gv: (name: "__cxa_atexit") ; guid = 1728571239102037110
^5 = gv: (name: "_ZTIN10xalanc_1_817FormatterListenerE", summaries: (variable: (module: ^0, flags: (linkage: external, visibility: default, notEligibleToImport: 1, live: 0, dsoLocal: 1, canAutoHide: 0), varFlags: (readonly: 1, writeonly: 0, constant: 1), refs: (^25, ^30, ^17)))) ; guid = 1866733032327462891
^6 = gv: (name: "_ZN10xalanc_1_817FormatterListener14s_piDataLengthE", summaries: (variable: (module: ^0, flags: (linkage: external, visibility: default, notEligibleToImport: 1, live: 0, dsoLocal: 1, canAutoHide: 0), varFlags: (readonly: 1, writeonly: 0, constant: 1)))) ; guid = 2162039280941317026
^7 = gv: (name: "llvm.global_ctors", summaries: (variable: (module: ^0, flags: (linkage: appending, visibility: default, notEligibleToImport: 1, live: 1, dsoLocal: 0, canAutoHide: 0), varFlags: (readonly: 0, writeonly: 0, constant: 0), refs: (^18)))) ; guid = 2412314959268824392
^8 = gv: (name: "_ZNK10xalanc_1_817FormatterListener12getMediaTypeEv", summaries: (function: (module: ^0, flags: (linkage: external, visibility: default, notEligibleToImport: 1, live: 0, dsoLocal: 1, canAutoHide: 0), insts: 1, funcFlags: (readNone: 1, readOnly: 0, noRecurse: 1, returnDoesNotAlias: 0, noInline: 0, alwaysInline: 0, noUnwind: 1, mayThrow: 0, hasUnknownCall: 0, mustBeUnreachable: 0), refs: (^10)))) ; guid = 2471626166671137007
^9 = gv: (name: "_ZN10xalanc_1_814XalanDOMStringD2Ev", summaries: (function: (module: ^0, flags: (linkage: linkonce_odr, visibility: default, notEligibleToImport: 1, live: 0, dsoLocal: 1, canAutoHide: 1), insts: 6, calls: ((callee: ^1, relbf: 170)), refs: (^2)))) ; guid = 2495583155446762257
^10 = gv: (name: "_ZN10xalanc_1_817FormatterListener13s_emptyStringE", summaries: (variable: (module: ^0, flags: (linkage: external, visibility: default, notEligibleToImport: 1, live: 0, dsoLocal: 1, canAutoHide: 0), varFlags: (readonly: 1, writeonly: 1, constant: 0)))) ; guid = 2875826017548188501
^11 = gv: (name: "_ZN10xalanc_1_817FormatterListener10s_piTargetE", summaries: (variable: (module: ^0, flags: (linkage: external, visibility: default, notEligibleToImport: 1, live: 0, dsoLocal: 1, canAutoHide: 0), varFlags: (readonly: 1, writeonly: 0, constant: 1)))) ; guid = 4233206036908679602
^12 = gv: (name: "_ZN10xalanc_1_817FormatterListenerD1Ev", summaries: (alias: (module: ^0, flags: (linkage: external, visibility: default, notEligibleToImport: 1, live: 0, dsoLocal: 1, canAutoHide: 0), aliasee: ^14))) ; guid = 5012045393848446144
^13 = gv: (name: "_ZN10xalanc_1_817FormatterListener16s_piTargetLengthE", summaries: (variable: (module: ^0, flags: (linkage: external, visibility: default, notEligibleToImport: 1, live: 0, dsoLocal: 1, canAutoHide: 0), varFlags: (readonly: 1, writeonly: 0, constant: 1)))) ; guid = 5701993440920278614
^14 = gv: (name: "_ZN10xalanc_1_817FormatterListenerD2Ev", summaries: (function: (module: ^0, flags: (linkage: external, visibility: default, notEligibleToImport: 1, live: 0, dsoLocal: 1, canAutoHide: 0), insts: 1, funcFlags: (readNone: 1, readOnly: 0, noRecurse: 1, returnDoesNotAlias: 0, noInline: 0, alwaysInline: 0, noUnwind: 1, mayThrow: 0, hasUnknownCall: 0, mustBeUnreachable: 0)))) ; guid = 7826260812105144471
^15 = gv: (name: "_ZNK10xalanc_1_817FormatterListener16getDoctypePublicEv", summaries: (function: (module: ^0, flags: (linkage: external, visibility: default, notEligibleToImport: 1, live: 0, dsoLocal: 1, canAutoHide: 0), insts: 1, funcFlags: (readNone: 1, readOnly: 0, noRecurse: 1, returnDoesNotAlias: 0, noInline: 0, alwaysInline: 0, noUnwind: 1, mayThrow: 0, hasUnknownCall: 0, mustBeUnreachable: 0), refs: (^10)))) ; guid = 10000669832890906072
^16 = gv: (name: "_ZNK10xalanc_1_817FormatterListener9getIndentEv", summaries: (function: (module: ^0, flags: (linkage: external, visibility: default, notEligibleToImport: 1, live: 0, dsoLocal: 1, canAutoHide: 0), insts: 1, funcFlags: (readNone: 1, readOnly: 0, noRecurse: 1, returnDoesNotAlias: 0, noInline: 0, alwaysInline: 0, noUnwind: 1, mayThrow: 0, hasUnknownCall: 0, mustBeUnreachable: 0)))) ; guid = 10716305277399982210
^17 = gv: (name: "_ZTVN10__cxxabiv120__si_class_type_infoE") ; guid = 10873349890511596996
^18 = gv: (name: "_GLOBAL__sub_I_FormatterListener.cpp", summaries: (function: (module: ^0, flags: (linkage: internal, visibility: default, notEligibleToImport: 1, live: 0, dsoLocal: 1, canAutoHide: 0), insts: 3, calls: ((callee: ^3, relbf: 256), (callee: ^4, relbf: 256)), refs: (^10, ^9, ^31)))) ; guid = 11083769211963528830
^19 = gv: (name: "_ZN10xalanc_1_817FormatterListenerC2ENS0_7eFormatE", summaries: (function: (module: ^0, flags: (linkage: external, visibility: default, notEligibleToImport: 1, live: 0, dsoLocal: 1, canAutoHide: 0), insts: 6, funcFlags: (readNone: 0, readOnly: 0, noRecurse: 1, returnDoesNotAlias: 0, noInline: 0, alwaysInline: 0, noUnwind: 1, mayThrow: 0, hasUnknownCall: 0, mustBeUnreachable: 0), refs: (^21)))) ; guid = 11389320659868675250
^20 = gv: (name: "_ZNK10xalanc_1_817FormatterListener9getWriterEv", summaries: (function: (module: ^0, flags: (linkage: external, visibility: default, notEligibleToImport: 1, live: 0, dsoLocal: 1, canAutoHide: 0), insts: 1, funcFlags: (readNone: 1, readOnly: 0, noRecurse: 1, returnDoesNotAlias: 1, noInline: 0, alwaysInline: 0, noUnwind: 1, mayThrow: 0, hasUnknownCall: 0, mustBeUnreachable: 0)))) ; guid = 11467671107194920231
^21 = gv: (name: "_ZTVN10xalanc_1_817FormatterListenerE", summaries: (variable: (module: ^0, flags: (linkage: external, visibility: default, notEligibleToImport: 1, live: 0, dsoLocal: 1, canAutoHide: 0), varFlags: (readonly: 1, writeonly: 0, constant: 1), refs: (^5, ^14, ^27, ^26, ^20, ^23, ^15, ^24, ^8, ^16)))) ; guid = 11995283298751380972
^22 = gv: (name: "_ZTSN11xercesc_2_515DocumentHandlerE", summaries: (variable: (module: ^0, flags: (linkage: linkonce_odr, visibility: default, notEligibleToImport: 1, live: 0, dsoLocal: 1, canAutoHide: 0), varFlags: (readonly: 0, writeonly: 0, constant: 1)))) ; guid = 12156999104326201098
^23 = gv: (name: "_ZNK10xalanc_1_817FormatterListener16getDoctypeSystemEv", summaries: (function: (module: ^0, flags: (linkage: external, visibility: default, notEligibleToImport: 1, live: 0, dsoLocal: 1, canAutoHide: 0), insts: 1, funcFlags: (readNone: 1, readOnly: 0, noRecurse: 1, returnDoesNotAlias: 0, noInline: 0, alwaysInline: 0, noUnwind: 1, mayThrow: 0, hasUnknownCall: 0, mustBeUnreachable: 0), refs: (^10)))) ; guid = 13651232767141678607
^24 = gv: (name: "_ZNK10xalanc_1_817FormatterListener11getEncodingEv", summaries: (function: (module: ^0, flags: (linkage: external, visibility: default, notEligibleToImport: 1, live: 0, dsoLocal: 1, canAutoHide: 0), insts: 1, funcFlags: (readNone: 1, readOnly: 0, noRecurse: 1, returnDoesNotAlias: 0, noInline: 0, alwaysInline: 0, noUnwind: 1, mayThrow: 0, hasUnknownCall: 0, mustBeUnreachable: 0), refs: (^10)))) ; guid = 13695187102994793864
^25 = gv: (name: "_ZTSN10xalanc_1_817FormatterListenerE", summaries: (variable: (module: ^0, flags: (linkage: external, visibility: default, notEligibleToImport: 1, live: 0, dsoLocal: 1, canAutoHide: 0), varFlags: (readonly: 1, writeonly: 0, constant: 1)))) ; guid = 15404241950033979470
^26 = gv: (name: "__cxa_pure_virtual") ; guid = 15445200097692986839
^27 = gv: (name: "_ZN10xalanc_1_817FormatterListenerD0Ev", summaries: (function: (module: ^0, flags: (linkage: external, visibility: default, notEligibleToImport: 1, live: 0, dsoLocal: 1, canAutoHide: 0), insts: 2, funcFlags: (readNone: 0, readOnly: 0, noRecurse: 0, returnDoesNotAlias: 0, noInline: 0, alwaysInline: 0, noUnwind: 1, mayThrow: 0, hasUnknownCall: 0, mustBeUnreachable: 1)))) ; guid = 15541424879503716657
^28 = gv: (name: "_ZTVN10__cxxabiv117__class_type_infoE") ; guid = 16105443863886496782
^29 = gv: (name: "_ZN10xalanc_1_817FormatterListener8s_piDataE", summaries: (variable: (module: ^0, flags: (linkage: external, visibility: default, notEligibleToImport: 1, live: 0, dsoLocal: 1, canAutoHide: 0), varFlags: (readonly: 1, writeonly: 0, constant: 1)))) ; guid = 16526214114309829671
^30 = gv: (name: "_ZTIN11xercesc_2_515DocumentHandlerE", summaries: (variable: (module: ^0, flags: (linkage: linkonce_odr, visibility: default, notEligibleToImport: 1, live: 0, dsoLocal: 1, canAutoHide: 0), varFlags: (readonly: 0, writeonly: 0, constant: 1), refs: (^22, ^28)))) ; guid = 17667550975926731319
^31 = gv: (name: "__dso_handle") ; guid = 18232673344708187679
^32 = flags: 8
^33 = blockcount: 0
