; ModuleID = 'IGXMLScanner.cpp'
source_filename = "IGXMLScanner.cpp"
target datalayout = "e-m:e-p270:32:32-p271:32:32-p272:64:64-i64:64-f80:128-n8:16:32:64-S128"
target triple = "x86_64-unknown-linux-gnu"

%"class.xercesc_2_5::IGXMLScanner" = type { %"class.xercesc_2_5::XMLScanner", i8, i32, i32, ptr, %"class.xercesc_2_5::XMLBuffer", ptr, ptr, ptr, ptr, ptr, ptr, ptr, ptr, ptr, ptr, i32, ptr, ptr, ptr, ptr, ptr, ptr, ptr, %"struct.xercesc_2_5::PSVIElemContext" }
%"class.xercesc_2_5::XMLScanner" = type { ptr, i8, i8, i8, i8, i8, i8, i8, i8, i8, i8, i8, i8, i8, i8, i8, i8, i32, i32, i32, i32, i32, i32, i32, i32, ptr, i32, i32, i32, i32, i32, ptr, ptr, ptr, ptr, ptr, ptr, ptr, ptr, i8, %"class.xercesc_2_5::ReaderMgr", ptr, i32, ptr, ptr, ptr, ptr, ptr, ptr, ptr, ptr, ptr, i32, ptr, %"class.xercesc_2_5::XMLBufferMgr", %"class.xercesc_2_5::XMLBuffer", %"class.xercesc_2_5::XMLBuffer", %"class.xercesc_2_5::XMLBuffer", %"class.xercesc_2_5::XMLBuffer", %"class.xercesc_2_5::XMLBuffer", %"class.xercesc_2_5::XMLBuffer", %"class.xercesc_2_5::ElemStack" }
%"class.xercesc_2_5::ReaderMgr" = type { %"class.xercesc_2_5::Locator", ptr, ptr, ptr, ptr, i32, ptr, i8, i32, i8, ptr }
%"class.xercesc_2_5::Locator" = type { ptr }
%"class.xercesc_2_5::XMLBufferMgr" = type { i32, ptr, ptr }
%"class.xercesc_2_5::ElemStack" = type { i32, i32, %"class.xercesc_2_5::XMLStringPool", ptr, i32, i32, i32, i32, i32, i32, i32, ptr, ptr }
%"class.xercesc_2_5::XMLStringPool" = type { %"class.xercesc_2_5::XSerializable", ptr, ptr, ptr, i32, i32 }
%"class.xercesc_2_5::XSerializable" = type { ptr }
%"class.xercesc_2_5::XMLBuffer" = type { i8, i32, i32, ptr, ptr }
%"struct.xercesc_2_5::PSVIElemContext" = type { i8, i8, i32, i32, i32, ptr, ptr, ptr }
%"class.xercesc_2_5::BaseRefVectorOf" = type { ptr, i8, i32, i32, ptr, ptr }
%"class.xercesc_2_5::ValueStoreCache" = type { ptr, ptr, ptr, ptr, ptr, ptr }
%"class.xercesc_2_5::ValueVectorOf" = type { i8, i32, i32, ptr, ptr }
%"class.xercesc_2_5::NameIdPool" = type <{ ptr, ptr, ptr, i32, i32, i32, [4 x i8] }>
%"class.xercesc_2_5::RefHashTableOf" = type { ptr, i8, ptr, i32, i32, i32, ptr }
%"class.xercesc_2_5::RefHash2KeysTableOf" = type { ptr, i8, ptr, i32, ptr }
%"struct.xercesc_2_5::NameIdPoolBucketElem" = type { ptr, ptr }
%"class.xercesc_2_5::RefHash3KeysIdPool" = type { ptr, i8, ptr, i32, ptr, ptr, i32, i32 }
%"struct.xercesc_2_5::RefHash3KeysTableBucketElem" = type { ptr, ptr, ptr, i32, i32 }
%"struct.xercesc_2_5::RefHashTableBucketElem" = type { ptr, ptr, ptr }
%"struct.xercesc_2_5::RefHash2KeysTableBucketElem.17" = type <{ ptr, ptr, ptr, i32, [4 x i8] }>
%"class.xercesc_2_5::PSVIAttributeList" = type <{ ptr, ptr, ptr, ptr, i32, [4 x i8] }>
%"class.xercesc_2_5::ValueStackOf" = type { [8 x i8], %"class.xercesc_2_5::ValueVectorOf.0" }
%"class.xercesc_2_5::ValueVectorOf.0" = type { i8, i32, i32, ptr, ptr }
%"class.xercesc_2_5::DTDGrammar" = type { %"class.xercesc_2_5::Grammar", ptr, ptr, ptr, ptr, ptr, i32, i8, ptr }
%"class.xercesc_2_5::Grammar" = type { %"class.xercesc_2_5::XSerializable" }
%"class.xercesc_2_5::XMLException" = type { ptr, i32, ptr, i32, ptr, ptr }
%"class.xercesc_2_5::XMLElementDecl" = type <{ %"class.xercesc_2_5::XSerializable", ptr, ptr, i32, i32, i8, [7 x i8] }>
%"class.xercesc_2_5::XMLReader" = type { i32, [16384 x i16], i32, [16384 x i8], i64, i64, i32, ptr, i8, i8, ptr, i32, [49152 x i8], i32, i32, i32, i8, i32, i32, i8, i8, ptr, ptr, i8, i8, ptr, i32, ptr, i8, i32, ptr }
%"struct.xercesc_2_5::ElemStack::StackElem" = type <{ ptr, i32, i32, i32, [4 x i8], ptr, ptr, i32, i32, i8, [3 x i8], i32, ptr, i32, [4 x i8] }>
%"class.xercesc_2_5::QName" = type { %"class.xercesc_2_5::XSerializable", ptr, ptr, i32, ptr, i32, ptr, i32, i32 }
%"class.xercesc_2_5::SchemaValidator" = type <{ %"class.xercesc_2_5::XMLValidator", ptr, ptr, ptr, ptr, i8, [7 x i8], ptr, ptr, %"class.xercesc_2_5::XMLBuffer", i8, i8, [6 x i8], %"class.xercesc_2_5::XSDErrorReporter", ptr, ptr, i8, i8, [6 x i8] }>
%"class.xercesc_2_5::XMLValidator" = type { ptr, ptr, ptr, ptr, ptr }
%"class.xercesc_2_5::XSDErrorReporter" = type { ptr, i8, ptr }
%"class.xercesc_2_5::ValueStackOf.8" = type { [8 x i8], %"class.xercesc_2_5::ValueVectorOf.9" }
%"class.xercesc_2_5::ValueVectorOf.9" = type { i8, i32, i32, ptr, ptr }
%"class.xercesc_2_5::DatatypeValidator" = type <{ %"class.xercesc_2_5::XSerializable", ptr, i8, i8, i16, i32, i32, i32, i32, [4 x i8], ptr, ptr, ptr, ptr, ptr, ptr, ptr, i32, i8, i8, i8, i8 }>
%"class.xercesc_2_5::SchemaElementDecl" = type <{ %"class.xercesc_2_5::XMLElementDecl.base", [3 x i8], i32, i32, [4 x i8], ptr, i32, i32, i32, i32, ptr, ptr, ptr, ptr, ptr, ptr, ptr, ptr, i32, i32, i8, i8, i8, [5 x i8] }>
%"class.xercesc_2_5::XMLElementDecl.base" = type <{ %"class.xercesc_2_5::XSerializable", ptr, ptr, i32, i32, i8 }>
%"class.xercesc_2_5::BaseRefVectorOf.11" = type { ptr, i8, i32, i32, ptr, ptr }
%"class.xercesc_2_5::XPathMatcherStack" = type { i32, ptr, ptr }
%"class.xercesc_2_5::ValueStackOf.14" = type { [8 x i8], %"class.xercesc_2_5::ValueVectorOf.15" }
%"class.xercesc_2_5::ValueVectorOf.15" = type { i8, i32, i32, ptr, ptr }
%"class.xercesc_2_5::BaseRefVectorOf.13" = type { ptr, i8, i32, i32, ptr, ptr }
%"class.xercesc_2_5::XPathMatcher" = type { ptr, i32, ptr, ptr, ptr, ptr, ptr, ptr, ptr }
%"class.xercesc_2_5::ComplexTypeInfo" = type { %"class.xercesc_2_5::XSerializable", i8, i8, i8, i8, i8, i32, i32, i32, i32, i32, i32, ptr, ptr, ptr, ptr, ptr, ptr, ptr, ptr, ptr, ptr, ptr, ptr, ptr, ptr, ptr, i32, i32, ptr, ptr }
%"class.xercesc_2_5::UnionDatatypeValidator" = type { %"class.xercesc_2_5::DatatypeValidator.base", i8, i8, ptr, ptr, ptr }
%"class.xercesc_2_5::DatatypeValidator.base" = type <{ %"class.xercesc_2_5::XSerializable", ptr, i8, i8, i16, i32, i32, i32, i32, [4 x i8], ptr, ptr, ptr, ptr, ptr, ptr, ptr, i32, i8, i8, i8 }>
%"class.xercesc_2_5::XMLAttDef" = type { %"class.xercesc_2_5::XSerializable", i32, i32, i32, i8, i8, i32, ptr, ptr, ptr }
%"class.xercesc_2_5::BaseRefVectorOf.3" = type { ptr, i8, i32, i32, ptr, ptr }
%"class.xercesc_2_5::XMLAttr" = type <{ i8, [3 x i8], i32, i32, [4 x i8], ptr, ptr, ptr, ptr, i8, [7 x i8] }>
%"class.xercesc_2_5::DTDScanner" = type { ptr, ptr, ptr, ptr, ptr, ptr, ptr, i8, i32, ptr, ptr, ptr, ptr, ptr, i32, i32 }
%"class.xercesc_2_5::ArrayJanitor" = type { ptr, ptr }
%"class.xercesc_2_5::GrammarResolver" = type { i8, i8, i8, ptr, ptr, ptr, ptr, ptr, ptr, ptr, ptr, ptr }
%"class.xercesc_2_5::DTDEntityDecl" = type <{ %"class.xercesc_2_5::XMLEntityDecl", i8, i8, i8, [5 x i8] }>
%"class.xercesc_2_5::XMLEntityDecl" = type { %"class.xercesc_2_5::XSerializable", i32, i32, ptr, ptr, ptr, ptr, ptr, ptr, ptr }
%"class.xercesc_2_5::IdentityConstraint" = type <{ %"class.xercesc_2_5::XSerializable", ptr, ptr, ptr, ptr, ptr, i32, [4 x i8] }>
%"class.xercesc_2_5::RefHash2KeysTableOf.16" = type { ptr, i8, ptr, i32, ptr }
%"struct.xercesc_2_5::RefHash2KeysTableBucketElem" = type <{ ptr, ptr, ptr, i32, [4 x i8] }>

$__clang_call_terminate = comdat any

$_ZN11xercesc_2_513DTDEntityDeclD0Ev = comdat any

$_ZN11xercesc_2_516RuntimeExceptionC2EPKcjNS_10XMLExcepts5CodesEPNS_13MemoryManagerE = comdat any

$_ZN11xercesc_2_518RefHash3KeysIdPoolINS_17SchemaElementDeclEEC2EjbjPNS_13MemoryManagerE = comdat any

$_ZN11xercesc_2_522UnexpectedEOFExceptionC2EPKcjNS_10XMLExcepts5CodesEPNS_13MemoryManagerE = comdat any

$_ZNK11xercesc_2_515ComplexTypeInfo16getTypeLocalNameEv = comdat any

$_ZN11xercesc_2_510NameIdPoolINS_14DTDElementDeclEE3putEPS1_ = comdat any

$_ZN11xercesc_2_516RuntimeExceptionC2EPKcjNS_10XMLExcepts5CodesEPKtS6_S6_S6_PNS_13MemoryManagerE = comdat any

$_ZN11xercesc_2_513XMLEntityDecl11setSystemIdEPKt = comdat any

$_ZN11xercesc_2_512ArrayJanitorItED2Ev = comdat any

$_ZN11xercesc_2_514RefHashTableOfIjE3putEPvPj = comdat any

$_ZN11xercesc_2_518RefHash3KeysIdPoolINS_17SchemaElementDeclEE3putEPviiPS1_ = comdat any

$_ZNK11xercesc_2_513DTDEntityDecl22getDeclaredInIntSubsetEv = comdat any

$_ZNK11xercesc_2_513DTDEntityDecl14getIsParameterEv = comdat any

$_ZNK11xercesc_2_513DTDEntityDecl16getIsSpecialCharEv = comdat any

$_ZNK11xercesc_2_512IGXMLScanner7getNameEv = comdat any

$_ZN11xercesc_2_516RuntimeExceptionD0Ev = comdat any

$_ZNK11xercesc_2_516RuntimeException7getTypeEv = comdat any

$_ZNK11xercesc_2_516RuntimeException9duplicateEv = comdat any

$_ZN11xercesc_2_522UnexpectedEOFExceptionD0Ev = comdat any

$_ZNK11xercesc_2_522UnexpectedEOFException7getTypeEv = comdat any

$_ZNK11xercesc_2_522UnexpectedEOFException9duplicateEv = comdat any

$_ZN11xercesc_2_519EmptyStackExceptionC2EPKcjNS_10XMLExcepts5CodesEPNS_13MemoryManagerE = comdat any

$_ZN11xercesc_2_519EmptyStackExceptionD0Ev = comdat any

$_ZNK11xercesc_2_519EmptyStackException7getTypeEv = comdat any

$_ZNK11xercesc_2_519EmptyStackException9duplicateEv = comdat any

$_ZN11xercesc_2_530ArrayIndexOutOfBoundsExceptionC2EPKcjNS_10XMLExcepts5CodesEPNS_13MemoryManagerE = comdat any

$_ZN11xercesc_2_530ArrayIndexOutOfBoundsExceptionD0Ev = comdat any

$_ZNK11xercesc_2_530ArrayIndexOutOfBoundsException7getTypeEv = comdat any

$_ZNK11xercesc_2_530ArrayIndexOutOfBoundsException9duplicateEv = comdat any

$_ZN11xercesc_2_519RefHash2KeysTableOfINS_10ValueStoreEE14findBucketElemEPKviRj = comdat any

$_ZN11xercesc_2_510NameIdPoolINS_14DTDElementDeclEE14findBucketElemEPKtRj = comdat any

$_ZN11xercesc_2_524IllegalArgumentExceptionC2EPKcjNS_10XMLExcepts5CodesEPNS_13MemoryManagerE = comdat any

$_ZN11xercesc_2_524IllegalArgumentExceptionD0Ev = comdat any

$_ZNK11xercesc_2_524IllegalArgumentException7getTypeEv = comdat any

$_ZNK11xercesc_2_524IllegalArgumentException9duplicateEv = comdat any

$_ZN11xercesc_2_524IllegalArgumentExceptionC2EPKcjNS_10XMLExcepts5CodesEPKtS6_S6_S6_PNS_13MemoryManagerE = comdat any

$_ZN11xercesc_2_518RefHash3KeysIdPoolINS_17SchemaElementDeclEE14findBucketElemEPKviiRj = comdat any

$_ZN11xercesc_2_511RefVectorOfINS_12KVStringPairEED2Ev = comdat any

$_ZN11xercesc_2_511RefVectorOfINS_12KVStringPairEED0Ev = comdat any

$_ZN11xercesc_2_515BaseRefVectorOfINS_12KVStringPairEE12setElementAtEPS1_j = comdat any

$_ZN11xercesc_2_515BaseRefVectorOfINS_12KVStringPairEE17removeAllElementsEv = comdat any

$_ZN11xercesc_2_515BaseRefVectorOfINS_12KVStringPairEE15removeElementAtEj = comdat any

$_ZN11xercesc_2_515BaseRefVectorOfINS_12KVStringPairEE17removeLastElementEv = comdat any

$_ZN11xercesc_2_515BaseRefVectorOfINS_12KVStringPairEE7cleanupEv = comdat any

$_ZN11xercesc_2_515BaseRefVectorOfINS_12KVStringPairEED2Ev = comdat any

$_ZN11xercesc_2_515BaseRefVectorOfINS_12KVStringPairEED0Ev = comdat any

$_ZN11xercesc_2_514RefHashTableOfIjE14findBucketElemEPKvRj = comdat any

$_ZN11xercesc_2_514RefHashTableOfIjE6rehashEv = comdat any

$_ZTSN11xercesc_2_520OutOfMemoryExceptionE = comdat any

$_ZTSN11xercesc_2_57XMemoryE = comdat any

$_ZTIN11xercesc_2_57XMemoryE = comdat any

$_ZTIN11xercesc_2_520OutOfMemoryExceptionE = comdat any

$_ZTSN11xercesc_2_57XMLErrs5CodesE = comdat any

$_ZTIN11xercesc_2_57XMLErrs5CodesE = comdat any

$_ZTSN11xercesc_2_58XMLValid5CodesE = comdat any

$_ZTIN11xercesc_2_58XMLValid5CodesE = comdat any

$_ZTSN11xercesc_2_516RuntimeExceptionE = comdat any

$_ZTIN11xercesc_2_516RuntimeExceptionE = comdat any

$_ZTSN11xercesc_2_520EndOfEntityExceptionE = comdat any

$_ZTIN11xercesc_2_520EndOfEntityExceptionE = comdat any

$_ZTSN11xercesc_2_522UnexpectedEOFExceptionE = comdat any

$_ZTIN11xercesc_2_522UnexpectedEOFExceptionE = comdat any

$_ZTVN11xercesc_2_513DTDEntityDeclE = comdat any

$_ZTSN11xercesc_2_513DTDEntityDeclE = comdat any

$_ZTIN11xercesc_2_513DTDEntityDeclE = comdat any

$_ZTVN11xercesc_2_516RuntimeExceptionE = comdat any

$_ZTVN11xercesc_2_522UnexpectedEOFExceptionE = comdat any

$_ZTSN11xercesc_2_519EmptyStackExceptionE = comdat any

$_ZTIN11xercesc_2_519EmptyStackExceptionE = comdat any

$_ZTVN11xercesc_2_519EmptyStackExceptionE = comdat any

$_ZTSN11xercesc_2_530ArrayIndexOutOfBoundsExceptionE = comdat any

$_ZTIN11xercesc_2_530ArrayIndexOutOfBoundsExceptionE = comdat any

$_ZTVN11xercesc_2_530ArrayIndexOutOfBoundsExceptionE = comdat any

$_ZTSN11xercesc_2_524IllegalArgumentExceptionE = comdat any

$_ZTIN11xercesc_2_524IllegalArgumentExceptionE = comdat any

$_ZTVN11xercesc_2_524IllegalArgumentExceptionE = comdat any

$_ZTVN11xercesc_2_511RefVectorOfINS_12KVStringPairEEE = comdat any

$_ZTSN11xercesc_2_511RefVectorOfINS_12KVStringPairEEE = comdat any

$_ZTSN11xercesc_2_515BaseRefVectorOfINS_12KVStringPairEEE = comdat any

$_ZTIN11xercesc_2_515BaseRefVectorOfINS_12KVStringPairEEE = comdat any

$_ZTIN11xercesc_2_511RefVectorOfINS_12KVStringPairEEE = comdat any

$_ZTVN11xercesc_2_515BaseRefVectorOfINS_12KVStringPairEEE = comdat any

@_ZTVN11xercesc_2_512IGXMLScannerE = dso_local unnamed_addr constant { [17 x ptr] } { [17 x ptr] [ptr null, ptr @_ZTIN11xercesc_2_512IGXMLScannerE, ptr @_ZN11xercesc_2_512IGXMLScannerD2Ev, ptr @_ZN11xercesc_2_512IGXMLScannerD0Ev, ptr @_ZNK11xercesc_2_512IGXMLScanner7getNameEv, ptr @_ZN11xercesc_2_512IGXMLScanner17getEntityDeclPoolEv, ptr @_ZNK11xercesc_2_512IGXMLScanner17getEntityDeclPoolEv, ptr @_ZN11xercesc_2_512IGXMLScanner12resolveQNameEPKtRNS_9XMLBufferEsRi, ptr @_ZN11xercesc_2_512IGXMLScanner12scanDocumentERKNS_11InputSourceE, ptr @_ZN11xercesc_2_512IGXMLScanner8scanNextERNS_13XMLPScanTokenE, ptr @_ZN11xercesc_2_512IGXMLScanner11loadGrammarERKNS_11InputSourceEsb, ptr @_ZN11xercesc_2_512IGXMLScanner13scanCDSectionEv, ptr @_ZN11xercesc_2_512IGXMLScanner12scanCharDataERNS_9XMLBufferE, ptr @_ZN11xercesc_2_512IGXMLScanner13scanEntityRefEbRtS1_Rb, ptr @_ZN11xercesc_2_512IGXMLScanner15scanDocTypeDeclEv, ptr @_ZN11xercesc_2_512IGXMLScanner9scanResetERKNS_11InputSourceE, ptr @_ZN11xercesc_2_512IGXMLScanner12sendCharDataERNS_9XMLBufferE] }, align 8, !type !0, !type !1, !type !2, !type !3, !type !4, !type !5, !type !6, !type !7, !type !8, !type !9, !type !10, !type !11, !type !12, !type !13, !type !14, !type !15, !type !16, !type !17, !type !18, !type !19, !type !20, !type !21, !type !22, !type !23, !type !24, !type !25, !type !26, !type !27
@_ZTVN10__cxxabiv120__si_class_type_infoE = external global ptr
@_ZTSN11xercesc_2_520OutOfMemoryExceptionE = linkonce_odr dso_local constant [38 x i8] c"N11xercesc_2_520OutOfMemoryExceptionE\00", comdat, align 1
@_ZTVN10__cxxabiv117__class_type_infoE = external global ptr
@_ZTSN11xercesc_2_57XMemoryE = linkonce_odr dso_local constant [24 x i8] c"N11xercesc_2_57XMemoryE\00", comdat, align 1
@_ZTIN11xercesc_2_57XMemoryE = linkonce_odr dso_local constant { ptr, ptr } { ptr getelementptr inbounds (ptr, ptr @_ZTVN10__cxxabiv117__class_type_infoE, i64 2), ptr @_ZTSN11xercesc_2_57XMemoryE }, comdat, align 8
@_ZTIN11xercesc_2_520OutOfMemoryExceptionE = linkonce_odr dso_local constant { ptr, ptr, ptr } { ptr getelementptr inbounds (ptr, ptr @_ZTVN10__cxxabiv120__si_class_type_infoE, i64 2), ptr @_ZTSN11xercesc_2_520OutOfMemoryExceptionE, ptr @_ZTIN11xercesc_2_57XMemoryE }, comdat, align 8
@_ZTVN10__cxxabiv116__enum_type_infoE = external global ptr
@_ZTSN11xercesc_2_57XMLErrs5CodesE = linkonce_odr dso_local constant [30 x i8] c"N11xercesc_2_57XMLErrs5CodesE\00", comdat, align 1
@_ZTIN11xercesc_2_57XMLErrs5CodesE = linkonce_odr dso_local constant { ptr, ptr } { ptr getelementptr inbounds (ptr, ptr @_ZTVN10__cxxabiv116__enum_type_infoE, i64 2), ptr @_ZTSN11xercesc_2_57XMLErrs5CodesE }, comdat, align 8
@_ZTSN11xercesc_2_58XMLValid5CodesE = linkonce_odr dso_local constant [31 x i8] c"N11xercesc_2_58XMLValid5CodesE\00", comdat, align 1
@_ZTIN11xercesc_2_58XMLValid5CodesE = linkonce_odr dso_local constant { ptr, ptr } { ptr getelementptr inbounds (ptr, ptr @_ZTVN10__cxxabiv116__enum_type_infoE, i64 2), ptr @_ZTSN11xercesc_2_58XMLValid5CodesE }, comdat, align 8
@_ZTIN11xercesc_2_512XMLExceptionE = external constant ptr
@.str = private unnamed_addr constant [17 x i8] c"IGXMLScanner.cpp\00", align 1
@_ZTSN11xercesc_2_516RuntimeExceptionE = linkonce_odr dso_local constant [34 x i8] c"N11xercesc_2_516RuntimeExceptionE\00", comdat, align 1
@_ZTIN11xercesc_2_516RuntimeExceptionE = linkonce_odr dso_local constant { ptr, ptr, ptr } { ptr getelementptr inbounds (ptr, ptr @_ZTVN10__cxxabiv120__si_class_type_infoE, i64 2), ptr @_ZTSN11xercesc_2_516RuntimeExceptionE, ptr @_ZTIN11xercesc_2_512XMLExceptionE }, comdat, align 8
@_ZTSN11xercesc_2_520EndOfEntityExceptionE = linkonce_odr dso_local constant [38 x i8] c"N11xercesc_2_520EndOfEntityExceptionE\00", comdat, align 1
@_ZTIN11xercesc_2_520EndOfEntityExceptionE = linkonce_odr dso_local constant { ptr, ptr } { ptr getelementptr inbounds (ptr, ptr @_ZTVN10__cxxabiv117__class_type_infoE, i64 2), ptr @_ZTSN11xercesc_2_520EndOfEntityExceptionE }, comdat, align 8
@_ZZN11xercesc_2_512IGXMLScanner11rawAttrScanEPKtRNS_11RefVectorOfINS_12KVStringPairEEERbE7tmpList = internal constant [6 x i16] [i16 39, i16 34, i16 62, i16 60, i16 47, i16 0], align 2
@_ZZN11xercesc_2_512IGXMLScanner11rawAttrScanEPKtRNS_11RefVectorOfINS_12KVStringPairEEERbE7tmpList_0 = internal constant [4 x i16] [i16 62, i16 60, i16 47, i16 0], align 2
@_ZTSN11xercesc_2_522UnexpectedEOFExceptionE = linkonce_odr dso_local constant [40 x i8] c"N11xercesc_2_522UnexpectedEOFExceptionE\00", comdat, align 1
@_ZTIN11xercesc_2_522UnexpectedEOFExceptionE = linkonce_odr dso_local constant { ptr, ptr, ptr } { ptr getelementptr inbounds (ptr, ptr @_ZTVN10__cxxabiv120__si_class_type_infoE, i64 2), ptr @_ZTSN11xercesc_2_522UnexpectedEOFExceptionE, ptr @_ZTIN11xercesc_2_512XMLExceptionE }, comdat, align 8
@_ZN11xercesc_2_56XMLUni15fgZeroLenStringE = external constant [0 x i16], align 2
@_ZN11xercesc_2_513SchemaSymbols16fgATTVAL_ANYTYPEE = external constant [0 x i16], align 2
@_ZN11xercesc_2_513SchemaSymbols21fgURI_SCHEMAFORSCHEMAE = external constant [0 x i16], align 2
@_ZN11xercesc_2_513SchemaSymbols18fgDT_ANYSIMPLETYPEE = external constant [0 x i16], align 2
@_ZN11xercesc_2_56XMLUni17fgDTDEntityStringE = external constant [0 x i16], align 2
@_ZZN11xercesc_2_512IGXMLScanner12scanStartTagERbE7tmpList = internal constant [6 x i16] [i16 39, i16 34, i16 62, i16 60, i16 47, i16 0], align 2
@_ZZN11xercesc_2_512IGXMLScanner12scanStartTagERbE7tmpList_0 = internal constant [4 x i16] [i16 62, i16 60, i16 47, i16 0], align 2
@_ZN11xercesc_2_56XMLUni18fgXMLNSColonStringE = external constant [0 x i16], align 2
@_ZN11xercesc_2_56XMLUni13fgXMLNSStringE = external local_unnamed_addr constant [0 x i16], align 2
@_ZN11xercesc_2_56XMLUni11fgXMLStringE = external local_unnamed_addr constant [0 x i16], align 2
@_ZTVN11xercesc_2_513DTDEntityDeclE = linkonce_odr dso_local unnamed_addr constant { [10 x ptr] } { [10 x ptr] [ptr null, ptr @_ZTIN11xercesc_2_513DTDEntityDeclE, ptr @_ZN11xercesc_2_513XMLEntityDeclD2Ev, ptr @_ZN11xercesc_2_513DTDEntityDeclD0Ev, ptr @_ZNK11xercesc_2_513DTDEntityDecl14isSerializableEv, ptr @_ZN11xercesc_2_513DTDEntityDecl9serializeERNS_16XSerializeEngineE, ptr @_ZNK11xercesc_2_513DTDEntityDecl12getProtoTypeEv, ptr @_ZNK11xercesc_2_513DTDEntityDecl22getDeclaredInIntSubsetEv, ptr @_ZNK11xercesc_2_513DTDEntityDecl14getIsParameterEv, ptr @_ZNK11xercesc_2_513DTDEntityDecl16getIsSpecialCharEv] }, comdat, align 8, !type !28, !type !29, !type !30, !type !31, !type !32, !type !33, !type !34, !type !35, !type !36, !type !37, !type !38, !type !39, !type !40, !type !41, !type !42, !type !43, !type !44, !type !45, !type !46, !type !47, !type !48
@_ZTSN11xercesc_2_513DTDEntityDeclE = linkonce_odr dso_local constant [31 x i8] c"N11xercesc_2_513DTDEntityDeclE\00", comdat, align 1
@_ZTIN11xercesc_2_513XMLEntityDeclE = external constant ptr
@_ZTIN11xercesc_2_513DTDEntityDeclE = linkonce_odr dso_local constant { ptr, ptr, ptr } { ptr getelementptr inbounds (ptr, ptr @_ZTVN10__cxxabiv120__si_class_type_infoE, i64 2), ptr @_ZTSN11xercesc_2_513DTDEntityDeclE, ptr @_ZTIN11xercesc_2_513XMLEntityDeclE }, comdat, align 8
@_ZTSN11xercesc_2_512IGXMLScannerE = dso_local constant [30 x i8] c"N11xercesc_2_512IGXMLScannerE\00", align 1
@_ZTIN11xercesc_2_510XMLScannerE = external constant ptr
@_ZTIN11xercesc_2_512IGXMLScannerE = dso_local constant { ptr, ptr, ptr } { ptr getelementptr inbounds (ptr, ptr @_ZTVN10__cxxabiv120__si_class_type_infoE, i64 2), ptr @_ZTSN11xercesc_2_512IGXMLScannerE, ptr @_ZTIN11xercesc_2_510XMLScannerE }, align 8
@_ZTVN11xercesc_2_516RuntimeExceptionE = linkonce_odr dso_local unnamed_addr constant { [6 x ptr] } { [6 x ptr] [ptr null, ptr @_ZTIN11xercesc_2_516RuntimeExceptionE, ptr @_ZN11xercesc_2_512XMLExceptionD2Ev, ptr @_ZN11xercesc_2_516RuntimeExceptionD0Ev, ptr @_ZNK11xercesc_2_516RuntimeException7getTypeEv, ptr @_ZNK11xercesc_2_516RuntimeException9duplicateEv] }, comdat, align 8, !type !49, !type !50, !type !51, !type !52, !type !53, !type !54
@_ZN11xercesc_2_56XMLUni23fgRuntimeException_NameE = external constant [0 x i16], align 2
@_ZTVN11xercesc_2_522UnexpectedEOFExceptionE = linkonce_odr dso_local unnamed_addr constant { [6 x ptr] } { [6 x ptr] [ptr null, ptr @_ZTIN11xercesc_2_522UnexpectedEOFExceptionE, ptr @_ZN11xercesc_2_512XMLExceptionD2Ev, ptr @_ZN11xercesc_2_522UnexpectedEOFExceptionD0Ev, ptr @_ZNK11xercesc_2_522UnexpectedEOFException7getTypeEv, ptr @_ZNK11xercesc_2_522UnexpectedEOFException9duplicateEv] }, comdat, align 8, !type !49, !type !50, !type !51, !type !55, !type !56, !type !57
@_ZN11xercesc_2_56XMLUni29fgUnexpectedEOFException_NameE = external constant [0 x i16], align 2
@.str.1 = private unnamed_addr constant [30 x i8] c"./xercesc/util/ValueStackOf.c\00", align 1
@_ZTSN11xercesc_2_519EmptyStackExceptionE = linkonce_odr dso_local constant [37 x i8] c"N11xercesc_2_519EmptyStackExceptionE\00", comdat, align 1
@_ZTIN11xercesc_2_519EmptyStackExceptionE = linkonce_odr dso_local constant { ptr, ptr, ptr } { ptr getelementptr inbounds (ptr, ptr @_ZTVN10__cxxabiv120__si_class_type_infoE, i64 2), ptr @_ZTSN11xercesc_2_519EmptyStackExceptionE, ptr @_ZTIN11xercesc_2_512XMLExceptionE }, comdat, align 8
@_ZTVN11xercesc_2_519EmptyStackExceptionE = linkonce_odr dso_local unnamed_addr constant { [6 x ptr] } { [6 x ptr] [ptr null, ptr @_ZTIN11xercesc_2_519EmptyStackExceptionE, ptr @_ZN11xercesc_2_512XMLExceptionD2Ev, ptr @_ZN11xercesc_2_519EmptyStackExceptionD0Ev, ptr @_ZNK11xercesc_2_519EmptyStackException7getTypeEv, ptr @_ZNK11xercesc_2_519EmptyStackException9duplicateEv] }, comdat, align 8, !type !49, !type !50, !type !51, !type !58, !type !59, !type !60
@_ZN11xercesc_2_56XMLUni26fgEmptyStackException_NameE = external constant [0 x i16], align 2
@_ZTSN11xercesc_2_530ArrayIndexOutOfBoundsExceptionE = linkonce_odr dso_local constant [48 x i8] c"N11xercesc_2_530ArrayIndexOutOfBoundsExceptionE\00", comdat, align 1
@_ZTIN11xercesc_2_530ArrayIndexOutOfBoundsExceptionE = linkonce_odr dso_local constant { ptr, ptr, ptr } { ptr getelementptr inbounds (ptr, ptr @_ZTVN10__cxxabiv120__si_class_type_infoE, i64 2), ptr @_ZTSN11xercesc_2_530ArrayIndexOutOfBoundsExceptionE, ptr @_ZTIN11xercesc_2_512XMLExceptionE }, comdat, align 8
@_ZTVN11xercesc_2_530ArrayIndexOutOfBoundsExceptionE = linkonce_odr dso_local unnamed_addr constant { [6 x ptr] } { [6 x ptr] [ptr null, ptr @_ZTIN11xercesc_2_530ArrayIndexOutOfBoundsExceptionE, ptr @_ZN11xercesc_2_512XMLExceptionD2Ev, ptr @_ZN11xercesc_2_530ArrayIndexOutOfBoundsExceptionD0Ev, ptr @_ZNK11xercesc_2_530ArrayIndexOutOfBoundsException7getTypeEv, ptr @_ZNK11xercesc_2_530ArrayIndexOutOfBoundsException9duplicateEv] }, comdat, align 8, !type !49, !type !50, !type !51, !type !61, !type !62, !type !63
@_ZN11xercesc_2_56XMLUni37fgArrayIndexOutOfBoundsException_NameE = external constant [0 x i16], align 2
@.str.3 = private unnamed_addr constant [33 x i8] c"./xercesc/util/BaseRefVectorOf.c\00", align 1
@.str.4 = private unnamed_addr constant [37 x i8] c"./xercesc/util/RefHash2KeysTableOf.c\00", align 1
@_ZN11xercesc_2_56XMLUni14fgIGXMLScannerE = external constant [0 x i16], align 2
@.str.5 = private unnamed_addr constant [28 x i8] c"./xercesc/util/NameIdPool.c\00", align 1
@_ZTSN11xercesc_2_524IllegalArgumentExceptionE = linkonce_odr dso_local constant [42 x i8] c"N11xercesc_2_524IllegalArgumentExceptionE\00", comdat, align 1
@_ZTIN11xercesc_2_524IllegalArgumentExceptionE = linkonce_odr dso_local constant { ptr, ptr, ptr } { ptr getelementptr inbounds (ptr, ptr @_ZTVN10__cxxabiv120__si_class_type_infoE, i64 2), ptr @_ZTSN11xercesc_2_524IllegalArgumentExceptionE, ptr @_ZTIN11xercesc_2_512XMLExceptionE }, comdat, align 8
@_ZTVN11xercesc_2_524IllegalArgumentExceptionE = linkonce_odr dso_local unnamed_addr constant { [6 x ptr] } { [6 x ptr] [ptr null, ptr @_ZTIN11xercesc_2_524IllegalArgumentExceptionE, ptr @_ZN11xercesc_2_512XMLExceptionD2Ev, ptr @_ZN11xercesc_2_524IllegalArgumentExceptionD0Ev, ptr @_ZNK11xercesc_2_524IllegalArgumentException7getTypeEv, ptr @_ZNK11xercesc_2_524IllegalArgumentException9duplicateEv] }, comdat, align 8, !type !49, !type !50, !type !51, !type !64, !type !65, !type !66
@_ZN11xercesc_2_56XMLUni31fgIllegalArgumentException_NameE = external constant [0 x i16], align 2
@.str.6 = private unnamed_addr constant [36 x i8] c"./xercesc/util/RefHash3KeysIdPool.c\00", align 1
@_ZTVN11xercesc_2_511RefVectorOfINS_12KVStringPairEEE = linkonce_odr dso_local unnamed_addr constant { [9 x ptr] } { [9 x ptr] [ptr null, ptr @_ZTIN11xercesc_2_511RefVectorOfINS_12KVStringPairEEE, ptr @_ZN11xercesc_2_511RefVectorOfINS_12KVStringPairEED2Ev, ptr @_ZN11xercesc_2_511RefVectorOfINS_12KVStringPairEED0Ev, ptr @_ZN11xercesc_2_515BaseRefVectorOfINS_12KVStringPairEE12setElementAtEPS1_j, ptr @_ZN11xercesc_2_515BaseRefVectorOfINS_12KVStringPairEE17removeAllElementsEv, ptr @_ZN11xercesc_2_515BaseRefVectorOfINS_12KVStringPairEE15removeElementAtEj, ptr @_ZN11xercesc_2_515BaseRefVectorOfINS_12KVStringPairEE17removeLastElementEv, ptr @_ZN11xercesc_2_515BaseRefVectorOfINS_12KVStringPairEE7cleanupEv] }, comdat, align 8, !type !67, !type !68, !type !69, !type !70, !type !71, !type !72, !type !73, !type !74, !type !75, !type !76, !type !77, !type !78
@_ZTSN11xercesc_2_511RefVectorOfINS_12KVStringPairEEE = linkonce_odr dso_local constant [49 x i8] c"N11xercesc_2_511RefVectorOfINS_12KVStringPairEEE\00", comdat, align 1
@_ZTSN11xercesc_2_515BaseRefVectorOfINS_12KVStringPairEEE = linkonce_odr dso_local constant [53 x i8] c"N11xercesc_2_515BaseRefVectorOfINS_12KVStringPairEEE\00", comdat, align 1
@_ZTIN11xercesc_2_515BaseRefVectorOfINS_12KVStringPairEEE = linkonce_odr dso_local constant { ptr, ptr, ptr } { ptr getelementptr inbounds (ptr, ptr @_ZTVN10__cxxabiv120__si_class_type_infoE, i64 2), ptr @_ZTSN11xercesc_2_515BaseRefVectorOfINS_12KVStringPairEEE, ptr @_ZTIN11xercesc_2_57XMemoryE }, comdat, align 8
@_ZTIN11xercesc_2_511RefVectorOfINS_12KVStringPairEEE = linkonce_odr dso_local constant { ptr, ptr, ptr } { ptr getelementptr inbounds (ptr, ptr @_ZTVN10__cxxabiv120__si_class_type_infoE, i64 2), ptr @_ZTSN11xercesc_2_511RefVectorOfINS_12KVStringPairEEE, ptr @_ZTIN11xercesc_2_515BaseRefVectorOfINS_12KVStringPairEEE }, comdat, align 8
@_ZTVN11xercesc_2_515BaseRefVectorOfINS_12KVStringPairEEE = linkonce_odr dso_local unnamed_addr constant { [9 x ptr] } { [9 x ptr] [ptr null, ptr @_ZTIN11xercesc_2_515BaseRefVectorOfINS_12KVStringPairEEE, ptr @_ZN11xercesc_2_515BaseRefVectorOfINS_12KVStringPairEED2Ev, ptr @_ZN11xercesc_2_515BaseRefVectorOfINS_12KVStringPairEED0Ev, ptr @_ZN11xercesc_2_515BaseRefVectorOfINS_12KVStringPairEE12setElementAtEPS1_j, ptr @_ZN11xercesc_2_515BaseRefVectorOfINS_12KVStringPairEE17removeAllElementsEv, ptr @_ZN11xercesc_2_515BaseRefVectorOfINS_12KVStringPairEE15removeElementAtEj, ptr @_ZN11xercesc_2_515BaseRefVectorOfINS_12KVStringPairEE17removeLastElementEv, ptr @_ZN11xercesc_2_515BaseRefVectorOfINS_12KVStringPairEE7cleanupEv] }, comdat, align 8, !type !73, !type !74, !type !75, !type !76, !type !77, !type !78
@.str.7 = private unnamed_addr constant [32 x i8] c"./xercesc/util/RefHashTableOf.c\00", align 1

@_ZN11xercesc_2_512IGXMLScannerC1EPNS_12XMLValidatorEPNS_15GrammarResolverEPNS_13MemoryManagerE = dso_local unnamed_addr alias void (ptr, ptr, ptr, ptr), ptr @_ZN11xercesc_2_512IGXMLScannerC2EPNS_12XMLValidatorEPNS_15GrammarResolverEPNS_13MemoryManagerE
@_ZN11xercesc_2_512IGXMLScannerC1EPNS_18XMLDocumentHandlerEPNS_14DocTypeHandlerEPNS_16XMLEntityHandlerEPNS_16XMLErrorReporterEPNS_12XMLValidatorEPNS_15GrammarResolverEPNS_13MemoryManagerE = dso_local unnamed_addr alias void (ptr, ptr, ptr, ptr, ptr, ptr, ptr, ptr), ptr @_ZN11xercesc_2_512IGXMLScannerC2EPNS_18XMLDocumentHandlerEPNS_14DocTypeHandlerEPNS_16XMLEntityHandlerEPNS_16XMLErrorReporterEPNS_12XMLValidatorEPNS_15GrammarResolverEPNS_13MemoryManagerE
@_ZN11xercesc_2_512IGXMLScannerD1Ev = dso_local unnamed_addr alias void (ptr), ptr @_ZN11xercesc_2_512IGXMLScannerD2Ev

declare i32 @__gxx_personality_v0(...)

; Function Attrs: nobuiltin nounwind
declare void @_ZdlPv(ptr noundef) local_unnamed_addr #0

; Function Attrs: noinline noreturn nounwind uwtable
define linkonce_odr hidden void @__clang_call_terminate(ptr noundef %0) local_unnamed_addr #1 comdat {
  %2 = tail call ptr @__cxa_begin_catch(ptr %0) #14
  tail call void @_ZSt9terminatev() #15
  unreachable
}

declare ptr @__cxa_begin_catch(ptr) local_unnamed_addr

declare void @_ZSt9terminatev() local_unnamed_addr

declare void @_ZN11xercesc_2_57XMemorydlEPv(ptr noundef) local_unnamed_addr #2

; Function Attrs: inlinehint uwtable
define linkonce_odr dso_local void @_ZN11xercesc_2_513DTDEntityDeclD0Ev(ptr noundef nonnull align 8 dereferenceable(75) %0) unnamed_addr #3 comdat align 2 personality ptr @__gxx_personality_v0 {
  invoke void @_ZN11xercesc_2_513XMLEntityDeclD2Ev(ptr noundef nonnull align 8 dereferenceable(75) %0)
          to label %2 unwind label %3

2:                                                ; preds = %1
  tail call void @_ZN11xercesc_2_57XMemorydlEPv(ptr noundef nonnull %0)
  ret void

3:                                                ; preds = %1
  %4 = landingpad { ptr, i32 }
          cleanup
  invoke void @_ZN11xercesc_2_57XMemorydlEPv(ptr noundef nonnull %0)
          to label %5 unwind label %6

5:                                                ; preds = %3
  resume { ptr, i32 } %4

6:                                                ; preds = %3
  %7 = landingpad { ptr, i32 }
          catch ptr null
  %8 = extractvalue { ptr, i32 } %7, 0
  tail call void @__clang_call_terminate(ptr %8) #15
  unreachable
}

declare void @_ZN11xercesc_2_513XMLEntityDeclD2Ev(ptr noundef nonnull align 8 dereferenceable(72)) unnamed_addr #2

; Function Attrs: uwtable
define dso_local void @_ZN11xercesc_2_512IGXMLScannerC2EPNS_12XMLValidatorEPNS_15GrammarResolverEPNS_13MemoryManagerE(ptr noundef nonnull align 8 dereferenceable(904) %0, ptr noundef %1, ptr noundef %2, ptr noundef %3) unnamed_addr #4 align 2 personality ptr @__gxx_personality_v0 {
  tail call void @_ZN11xercesc_2_510XMLScannerC2EPNS_12XMLValidatorEPNS_15GrammarResolverEPNS_13MemoryManagerE(ptr noundef nonnull align 8 dereferenceable(664) %0, ptr noundef %1, ptr noundef %2, ptr noundef %3)
  store ptr getelementptr inbounds ({ [17 x ptr] }, ptr @_ZTVN11xercesc_2_512IGXMLScannerE, i64 0, inrange i32 0, i64 2), ptr %0, align 8, !tbaa !86
  %5 = getelementptr inbounds %"class.xercesc_2_5::IGXMLScanner", ptr %0, i64 0, i32 1
  store i8 0, ptr %5, align 8, !tbaa !89
  %6 = getelementptr inbounds %"class.xercesc_2_5::IGXMLScanner", ptr %0, i64 0, i32 2
  store i32 2, ptr %6, align 4, !tbaa !107
  %7 = getelementptr inbounds %"class.xercesc_2_5::IGXMLScanner", ptr %0, i64 0, i32 3
  store i32 16, ptr %7, align 8, !tbaa !108
  %8 = getelementptr inbounds %"class.xercesc_2_5::IGXMLScanner", ptr %0, i64 0, i32 4
  store ptr null, ptr %8, align 8, !tbaa !109
  %9 = getelementptr inbounds %"class.xercesc_2_5::IGXMLScanner", ptr %0, i64 0, i32 5
  store i8 0, ptr %9, align 8, !tbaa !110
  %10 = getelementptr inbounds %"class.xercesc_2_5::IGXMLScanner", ptr %0, i64 0, i32 5, i32 1
  store i32 0, ptr %10, align 4, !tbaa !111
  %11 = getelementptr inbounds %"class.xercesc_2_5::IGXMLScanner", ptr %0, i64 0, i32 5, i32 2
  store i32 1023, ptr %11, align 8, !tbaa !112
  %12 = getelementptr inbounds %"class.xercesc_2_5::IGXMLScanner", ptr %0, i64 0, i32 5, i32 3
  store ptr %3, ptr %12, align 8, !tbaa !113
  %13 = getelementptr inbounds %"class.xercesc_2_5::IGXMLScanner", ptr %0, i64 0, i32 5, i32 4
  store ptr null, ptr %13, align 8, !tbaa !114
  %14 = load ptr, ptr %3, align 8, !tbaa !86
  %15 = getelementptr inbounds ptr, ptr %14, i64 2
  %16 = load ptr, ptr %15, align 8
  %17 = invoke noundef ptr %16(ptr noundef nonnull align 8 dereferenceable(8) %3, i64 noundef 2048)
          to label %18 unwind label %27

18:                                               ; preds = %4
  store ptr %17, ptr %13, align 8, !tbaa !114
  store i16 0, ptr %17, align 2, !tbaa !115
  %19 = getelementptr inbounds %"class.xercesc_2_5::IGXMLScanner", ptr %0, i64 0, i32 6
  %20 = getelementptr inbounds %"class.xercesc_2_5::IGXMLScanner", ptr %0, i64 0, i32 7
  %21 = getelementptr inbounds %"class.xercesc_2_5::IGXMLScanner", ptr %0, i64 0, i32 17
  tail call void @llvm.memset.p0.i64(ptr noundef nonnull align 8 dereferenceable(84) %19, i8 0, i64 84, i1 false)
  tail call void @llvm.memset.p0.i64(ptr noundef nonnull align 8 dereferenceable(56) %21, i8 0, i64 56, i1 false)
  invoke void @_ZN11xercesc_2_512IGXMLScanner10commonInitEv(ptr noundef nonnull align 8 dereferenceable(904) %0)
          to label %22 unwind label %29

22:                                               ; preds = %18
  %23 = icmp eq ptr %1, null
  br i1 %23, label %24, label %43

24:                                               ; preds = %22
  %25 = load ptr, ptr %20, align 8, !tbaa !117
  %26 = getelementptr inbounds %"class.xercesc_2_5::XMLScanner", ptr %0, i64 0, i32 41
  store ptr %25, ptr %26, align 8, !tbaa !118
  br label %43

27:                                               ; preds = %4
  %28 = landingpad { ptr, i32 }
          cleanup
  br label %51

29:                                               ; preds = %18
  %30 = landingpad { ptr, i32 }
          catch ptr @_ZTIN11xercesc_2_520OutOfMemoryExceptionE
          catch ptr null
  %31 = extractvalue { ptr, i32 } %30, 0
  %32 = extractvalue { ptr, i32 } %30, 1
  %33 = tail call i32 @llvm.eh.typeid.for(ptr nonnull @_ZTIN11xercesc_2_520OutOfMemoryExceptionE) #14
  %34 = icmp eq i32 %32, %33
  %35 = tail call ptr @__cxa_begin_catch(ptr %31) #14
  br i1 %34, label %36, label %37

36:                                               ; preds = %29
  invoke void @__cxa_rethrow() #16
          to label %57 unwind label %41

37:                                               ; preds = %29
  invoke void @_ZN11xercesc_2_512IGXMLScanner7cleanUpEv(ptr noundef nonnull align 8 dereferenceable(904) %0)
          to label %38 unwind label %39

38:                                               ; preds = %37
  invoke void @__cxa_rethrow() #16
          to label %57 unwind label %39

39:                                               ; preds = %38, %37
  %40 = landingpad { ptr, i32 }
          cleanup
  invoke void @__cxa_end_catch()
          to label %44 unwind label %54

41:                                               ; preds = %36
  %42 = landingpad { ptr, i32 }
          cleanup
  invoke void @__cxa_end_catch()
          to label %44 unwind label %54

43:                                               ; preds = %22, %24
  ret void

44:                                               ; preds = %41, %39
  %45 = phi { ptr, i32 } [ %40, %39 ], [ %42, %41 ]
  %46 = load ptr, ptr %12, align 8, !tbaa !113
  %47 = load ptr, ptr %13, align 8, !tbaa !114
  %48 = load ptr, ptr %46, align 8, !tbaa !86
  %49 = getelementptr inbounds ptr, ptr %48, i64 3
  %50 = load ptr, ptr %49, align 8
  invoke void %50(ptr noundef nonnull align 8 dereferenceable(8) %46, ptr noundef %47)
          to label %51 unwind label %54

51:                                               ; preds = %44, %27
  %52 = phi { ptr, i32 } [ %28, %27 ], [ %45, %44 ]
  invoke void @_ZN11xercesc_2_510XMLScannerD2Ev(ptr noundef nonnull align 8 dereferenceable(664) %0)
          to label %53 unwind label %54

53:                                               ; preds = %51
  resume { ptr, i32 } %52

54:                                               ; preds = %44, %51, %41, %39
  %55 = landingpad { ptr, i32 }
          catch ptr null
  %56 = extractvalue { ptr, i32 } %55, 0
  tail call void @__clang_call_terminate(ptr %56) #15
  unreachable

57:                                               ; preds = %36, %38
  unreachable
}

declare void @_ZN11xercesc_2_510XMLScannerC2EPNS_12XMLValidatorEPNS_15GrammarResolverEPNS_13MemoryManagerE(ptr noundef nonnull align 8 dereferenceable(664), ptr noundef, ptr noundef, ptr noundef) unnamed_addr #2

; Function Attrs: uwtable
define dso_local void @_ZN11xercesc_2_512IGXMLScanner10commonInitEv(ptr noundef nonnull align 8 dereferenceable(904) %0) local_unnamed_addr #4 align 2 personality ptr @__gxx_personality_v0 {
  %2 = getelementptr inbounds %"class.xercesc_2_5::XMLScanner", ptr %0, i64 0, i32 53
  %3 = load ptr, ptr %2, align 8, !tbaa !119
  %4 = getelementptr inbounds %"class.xercesc_2_5::IGXMLScanner", ptr %0, i64 0, i32 3
  %5 = load i32, ptr %4, align 8, !tbaa !108
  %6 = zext i32 %5 to i64
  %7 = shl nuw nsw i64 %6, 2
  %8 = load ptr, ptr %3, align 8, !tbaa !86
  %9 = getelementptr inbounds ptr, ptr %8, i64 2
  %10 = load ptr, ptr %9, align 8
  %11 = tail call noundef ptr %10(ptr noundef nonnull align 8 dereferenceable(8) %3, i64 noundef %7)
  %12 = getelementptr inbounds %"class.xercesc_2_5::IGXMLScanner", ptr %0, i64 0, i32 4
  store ptr %11, ptr %12, align 8, !tbaa !109
  %13 = load ptr, ptr %2, align 8, !tbaa !119
  %14 = tail call noundef ptr @_ZN11xercesc_2_57XMemorynwEmPNS_13MemoryManagerE(i64 noundef 40, ptr noundef %13)
  %15 = load ptr, ptr %2, align 8, !tbaa !119
  store ptr getelementptr inbounds ({ [9 x ptr] }, ptr @_ZTVN11xercesc_2_515BaseRefVectorOfINS_12KVStringPairEEE, i64 0, inrange i32 0, i64 2), ptr %14, align 8, !tbaa !86
  %16 = getelementptr inbounds %"class.xercesc_2_5::BaseRefVectorOf", ptr %14, i64 0, i32 1
  store i8 1, ptr %16, align 8, !tbaa !120
  %17 = getelementptr inbounds %"class.xercesc_2_5::BaseRefVectorOf", ptr %14, i64 0, i32 2
  store i32 0, ptr %17, align 4, !tbaa !122
  %18 = getelementptr inbounds %"class.xercesc_2_5::BaseRefVectorOf", ptr %14, i64 0, i32 3
  store i32 32, ptr %18, align 8, !tbaa !123
  %19 = getelementptr inbounds %"class.xercesc_2_5::BaseRefVectorOf", ptr %14, i64 0, i32 4
  store ptr null, ptr %19, align 8, !tbaa !124
  %20 = getelementptr inbounds %"class.xercesc_2_5::BaseRefVectorOf", ptr %14, i64 0, i32 5
  store ptr %15, ptr %20, align 8, !tbaa !125
  %21 = load ptr, ptr %15, align 8, !tbaa !86
  %22 = getelementptr inbounds ptr, ptr %21, i64 2
  %23 = load ptr, ptr %22, align 8
  %24 = invoke noundef ptr %23(ptr noundef nonnull align 8 dereferenceable(8) %15, i64 noundef 256)
          to label %25 unwind label %269

25:                                               ; preds = %1
  store ptr %24, ptr %19, align 8, !tbaa !124
  store ptr null, ptr %24, align 8, !tbaa !126
  %26 = load ptr, ptr %19, align 8, !tbaa !124
  %27 = getelementptr inbounds ptr, ptr %26, i64 1
  store ptr null, ptr %27, align 8, !tbaa !126
  %28 = load ptr, ptr %19, align 8, !tbaa !124
  %29 = getelementptr inbounds ptr, ptr %28, i64 2
  store ptr null, ptr %29, align 8, !tbaa !126
  %30 = load ptr, ptr %19, align 8, !tbaa !124
  %31 = getelementptr inbounds ptr, ptr %30, i64 3
  store ptr null, ptr %31, align 8, !tbaa !126
  %32 = load ptr, ptr %19, align 8, !tbaa !124
  %33 = getelementptr inbounds ptr, ptr %32, i64 4
  store ptr null, ptr %33, align 8, !tbaa !126
  %34 = load ptr, ptr %19, align 8, !tbaa !124
  %35 = getelementptr inbounds ptr, ptr %34, i64 5
  store ptr null, ptr %35, align 8, !tbaa !126
  %36 = load ptr, ptr %19, align 8, !tbaa !124
  %37 = getelementptr inbounds ptr, ptr %36, i64 6
  store ptr null, ptr %37, align 8, !tbaa !126
  %38 = load ptr, ptr %19, align 8, !tbaa !124
  %39 = getelementptr inbounds ptr, ptr %38, i64 7
  store ptr null, ptr %39, align 8, !tbaa !126
  %40 = load ptr, ptr %19, align 8, !tbaa !124
  %41 = getelementptr inbounds ptr, ptr %40, i64 8
  store ptr null, ptr %41, align 8, !tbaa !126
  %42 = load ptr, ptr %19, align 8, !tbaa !124
  %43 = getelementptr inbounds ptr, ptr %42, i64 9
  store ptr null, ptr %43, align 8, !tbaa !126
  %44 = load ptr, ptr %19, align 8, !tbaa !124
  %45 = getelementptr inbounds ptr, ptr %44, i64 10
  store ptr null, ptr %45, align 8, !tbaa !126
  %46 = load ptr, ptr %19, align 8, !tbaa !124
  %47 = getelementptr inbounds ptr, ptr %46, i64 11
  store ptr null, ptr %47, align 8, !tbaa !126
  %48 = load ptr, ptr %19, align 8, !tbaa !124
  %49 = getelementptr inbounds ptr, ptr %48, i64 12
  store ptr null, ptr %49, align 8, !tbaa !126
  %50 = load ptr, ptr %19, align 8, !tbaa !124
  %51 = getelementptr inbounds ptr, ptr %50, i64 13
  store ptr null, ptr %51, align 8, !tbaa !126
  %52 = load ptr, ptr %19, align 8, !tbaa !124
  %53 = getelementptr inbounds ptr, ptr %52, i64 14
  store ptr null, ptr %53, align 8, !tbaa !126
  %54 = load ptr, ptr %19, align 8, !tbaa !124
  %55 = getelementptr inbounds ptr, ptr %54, i64 15
  store ptr null, ptr %55, align 8, !tbaa !126
  %56 = load ptr, ptr %19, align 8, !tbaa !124
  %57 = getelementptr inbounds ptr, ptr %56, i64 16
  store ptr null, ptr %57, align 8, !tbaa !126
  %58 = load ptr, ptr %19, align 8, !tbaa !124
  %59 = getelementptr inbounds ptr, ptr %58, i64 17
  store ptr null, ptr %59, align 8, !tbaa !126
  %60 = load ptr, ptr %19, align 8, !tbaa !124
  %61 = getelementptr inbounds ptr, ptr %60, i64 18
  store ptr null, ptr %61, align 8, !tbaa !126
  %62 = load ptr, ptr %19, align 8, !tbaa !124
  %63 = getelementptr inbounds ptr, ptr %62, i64 19
  store ptr null, ptr %63, align 8, !tbaa !126
  %64 = load ptr, ptr %19, align 8, !tbaa !124
  %65 = getelementptr inbounds ptr, ptr %64, i64 20
  store ptr null, ptr %65, align 8, !tbaa !126
  %66 = load ptr, ptr %19, align 8, !tbaa !124
  %67 = getelementptr inbounds ptr, ptr %66, i64 21
  store ptr null, ptr %67, align 8, !tbaa !126
  %68 = load ptr, ptr %19, align 8, !tbaa !124
  %69 = getelementptr inbounds ptr, ptr %68, i64 22
  store ptr null, ptr %69, align 8, !tbaa !126
  %70 = load ptr, ptr %19, align 8, !tbaa !124
  %71 = getelementptr inbounds ptr, ptr %70, i64 23
  store ptr null, ptr %71, align 8, !tbaa !126
  %72 = load ptr, ptr %19, align 8, !tbaa !124
  %73 = getelementptr inbounds ptr, ptr %72, i64 24
  store ptr null, ptr %73, align 8, !tbaa !126
  %74 = load ptr, ptr %19, align 8, !tbaa !124
  %75 = getelementptr inbounds ptr, ptr %74, i64 25
  store ptr null, ptr %75, align 8, !tbaa !126
  %76 = load ptr, ptr %19, align 8, !tbaa !124
  %77 = getelementptr inbounds ptr, ptr %76, i64 26
  store ptr null, ptr %77, align 8, !tbaa !126
  %78 = load ptr, ptr %19, align 8, !tbaa !124
  %79 = getelementptr inbounds ptr, ptr %78, i64 27
  store ptr null, ptr %79, align 8, !tbaa !126
  %80 = load ptr, ptr %19, align 8, !tbaa !124
  %81 = getelementptr inbounds ptr, ptr %80, i64 28
  store ptr null, ptr %81, align 8, !tbaa !126
  %82 = load ptr, ptr %19, align 8, !tbaa !124
  %83 = getelementptr inbounds ptr, ptr %82, i64 29
  store ptr null, ptr %83, align 8, !tbaa !126
  %84 = load ptr, ptr %19, align 8, !tbaa !124
  %85 = getelementptr inbounds ptr, ptr %84, i64 30
  store ptr null, ptr %85, align 8, !tbaa !126
  %86 = load ptr, ptr %19, align 8, !tbaa !124
  %87 = getelementptr inbounds ptr, ptr %86, i64 31
  store ptr null, ptr %87, align 8, !tbaa !126
  store ptr getelementptr inbounds ({ [9 x ptr] }, ptr @_ZTVN11xercesc_2_511RefVectorOfINS_12KVStringPairEEE, i64 0, inrange i32 0, i64 2), ptr %14, align 8, !tbaa !86
  %88 = getelementptr inbounds %"class.xercesc_2_5::IGXMLScanner", ptr %0, i64 0, i32 6
  store ptr %14, ptr %88, align 8, !tbaa !127
  %89 = load ptr, ptr %2, align 8, !tbaa !119
  %90 = tail call noundef ptr @_ZN11xercesc_2_57XMemorynwEmPNS_13MemoryManagerE(i64 noundef 48, ptr noundef %89)
  invoke void @_ZN11xercesc_2_512DTDValidatorC1EPNS_16XMLErrorReporterE(ptr noundef nonnull align 8 dereferenceable(48) %90, ptr noundef null)
          to label %91 unwind label %271

91:                                               ; preds = %25
  %92 = getelementptr inbounds %"class.xercesc_2_5::IGXMLScanner", ptr %0, i64 0, i32 7
  store ptr %90, ptr %92, align 8, !tbaa !117
  tail call void @_ZN11xercesc_2_510XMLScanner13initValidatorEPNS_12XMLValidatorE(ptr noundef nonnull align 8 dereferenceable(664) %0, ptr noundef nonnull %90)
  %93 = load ptr, ptr %2, align 8, !tbaa !119
  %94 = tail call noundef ptr @_ZN11xercesc_2_57XMemorynwEmPNS_13MemoryManagerE(i64 noundef 184, ptr noundef %93)
  %95 = load ptr, ptr %2, align 8, !tbaa !119
  invoke void @_ZN11xercesc_2_515SchemaValidatorC1EPNS_16XMLErrorReporterEPNS_13MemoryManagerE(ptr noundef nonnull align 8 dereferenceable(178) %94, ptr noundef null, ptr noundef %95)
          to label %96 unwind label %273

96:                                               ; preds = %91
  %97 = getelementptr inbounds %"class.xercesc_2_5::IGXMLScanner", ptr %0, i64 0, i32 8
  store ptr %94, ptr %97, align 8, !tbaa !128
  tail call void @_ZN11xercesc_2_510XMLScanner13initValidatorEPNS_12XMLValidatorE(ptr noundef nonnull align 8 dereferenceable(664) %0, ptr noundef nonnull %94)
  %98 = load ptr, ptr %2, align 8, !tbaa !119
  %99 = tail call noundef ptr @_ZN11xercesc_2_57XMemorynwEmPNS_13MemoryManagerE(i64 noundef 24, ptr noundef %98)
  %100 = load ptr, ptr %2, align 8, !tbaa !119
  invoke void @_ZN11xercesc_2_517XPathMatcherStackC1EPNS_13MemoryManagerE(ptr noundef nonnull align 8 dereferenceable(24) %99, ptr noundef %100)
          to label %101 unwind label %275

101:                                              ; preds = %96
  %102 = getelementptr inbounds %"class.xercesc_2_5::IGXMLScanner", ptr %0, i64 0, i32 10
  store ptr %99, ptr %102, align 8, !tbaa !129
  %103 = load ptr, ptr %2, align 8, !tbaa !119
  %104 = tail call noundef ptr @_ZN11xercesc_2_57XMemorynwEmPNS_13MemoryManagerE(i64 noundef 48, ptr noundef %103)
  %105 = load ptr, ptr %2, align 8, !tbaa !119
  invoke void @_ZN11xercesc_2_515ValueStoreCacheC1EPNS_13MemoryManagerE(ptr noundef nonnull align 8 dereferenceable(48) %104, ptr noundef %105)
          to label %106 unwind label %277

106:                                              ; preds = %101
  %107 = getelementptr inbounds %"class.xercesc_2_5::IGXMLScanner", ptr %0, i64 0, i32 11
  store ptr %104, ptr %107, align 8, !tbaa !130
  %108 = load ptr, ptr %2, align 8, !tbaa !119
  %109 = tail call noundef ptr @_ZN11xercesc_2_57XMemorynwEmPNS_13MemoryManagerE(i64 noundef 32, ptr noundef %108)
  %110 = load ptr, ptr %107, align 8, !tbaa !130
  %111 = load ptr, ptr %102, align 8, !tbaa !129
  %112 = load ptr, ptr %2, align 8, !tbaa !119
  invoke void @_ZN11xercesc_2_514FieldActivatorC1EPNS_15ValueStoreCacheEPNS_17XPathMatcherStackEPNS_13MemoryManagerE(ptr noundef nonnull align 8 dereferenceable(32) %109, ptr noundef %110, ptr noundef %111, ptr noundef %112)
          to label %113 unwind label %279

113:                                              ; preds = %106
  %114 = getelementptr inbounds %"class.xercesc_2_5::IGXMLScanner", ptr %0, i64 0, i32 12
  store ptr %109, ptr %114, align 8, !tbaa !131
  %115 = load ptr, ptr %107, align 8, !tbaa !130
  %116 = getelementptr inbounds %"class.xercesc_2_5::ValueStoreCache", ptr %115, i64 0, i32 4
  store ptr %0, ptr %116, align 8, !tbaa !132
  %117 = load ptr, ptr %2, align 8, !tbaa !119
  %118 = tail call noundef ptr @_ZN11xercesc_2_57XMemorynwEmPNS_13MemoryManagerE(i64 noundef 32, ptr noundef %117)
  %119 = load ptr, ptr %2, align 8, !tbaa !119
  store i8 0, ptr %118, align 8, !tbaa !134
  %120 = getelementptr inbounds %"class.xercesc_2_5::ValueVectorOf", ptr %118, i64 0, i32 1
  store i32 0, ptr %120, align 4, !tbaa !136
  %121 = getelementptr inbounds %"class.xercesc_2_5::ValueVectorOf", ptr %118, i64 0, i32 2
  store i32 8, ptr %121, align 8, !tbaa !137
  %122 = getelementptr inbounds %"class.xercesc_2_5::ValueVectorOf", ptr %118, i64 0, i32 3
  store ptr null, ptr %122, align 8, !tbaa !138
  %123 = getelementptr inbounds %"class.xercesc_2_5::ValueVectorOf", ptr %118, i64 0, i32 4
  store ptr %119, ptr %123, align 8, !tbaa !139
  %124 = load ptr, ptr %119, align 8, !tbaa !86
  %125 = getelementptr inbounds ptr, ptr %124, i64 2
  %126 = load ptr, ptr %125, align 8
  %127 = invoke noundef ptr %126(ptr noundef nonnull align 8 dereferenceable(8) %119, i64 noundef 64)
          to label %128 unwind label %281

128:                                              ; preds = %113
  store ptr %127, ptr %122, align 8, !tbaa !138
  %129 = load i32, ptr %121, align 8, !tbaa !137
  %130 = zext i32 %129 to i64
  %131 = shl nuw nsw i64 %130, 3
  tail call void @llvm.memset.p0.i64(ptr align 8 %127, i8 0, i64 %131, i1 false)
  %132 = getelementptr inbounds %"class.xercesc_2_5::IGXMLScanner", ptr %0, i64 0, i32 13
  store ptr %118, ptr %132, align 8, !tbaa !140
  %133 = load ptr, ptr %2, align 8, !tbaa !119
  %134 = tail call noundef ptr @_ZN11xercesc_2_57XMemorynwEmPNS_13MemoryManagerE(i64 noundef 40, ptr noundef %133)
  %135 = load ptr, ptr %2, align 8, !tbaa !119
  store ptr %135, ptr %134, align 8, !tbaa !141
  %136 = getelementptr inbounds %"class.xercesc_2_5::NameIdPool", ptr %134, i64 0, i32 1
  %137 = getelementptr inbounds %"class.xercesc_2_5::NameIdPool", ptr %134, i64 0, i32 3
  tail call void @llvm.memset.p0.i64(ptr noundef nonnull align 8 dereferenceable(16) %136, i8 0, i64 16, i1 false)
  store i32 128, ptr %137, align 8, !tbaa !143
  %138 = getelementptr inbounds %"class.xercesc_2_5::NameIdPool", ptr %134, i64 0, i32 4
  store i32 0, ptr %138, align 4, !tbaa !144
  %139 = getelementptr inbounds %"class.xercesc_2_5::NameIdPool", ptr %134, i64 0, i32 5
  store i32 29, ptr %139, align 8, !tbaa !145
  %140 = load ptr, ptr %135, align 8, !tbaa !86
  %141 = getelementptr inbounds ptr, ptr %140, i64 2
  %142 = load ptr, ptr %141, align 8
  %143 = invoke noundef ptr %142(ptr noundef nonnull align 8 dereferenceable(8) %135, i64 noundef 232)
          to label %144 unwind label %283

144:                                              ; preds = %128
  store ptr %143, ptr %136, align 8, !tbaa !146
  %145 = load i32, ptr %139, align 8, !tbaa !145
  %146 = icmp eq i32 %145, 0
  br i1 %146, label %149, label %147

147:                                              ; preds = %144
  %148 = zext i32 %145 to i64
  br label %152

149:                                              ; preds = %152, %144
  %150 = load i32, ptr %137, align 8, !tbaa !143
  %151 = icmp eq i32 %150, 0
  br i1 %151, label %158, label %159

152:                                              ; preds = %152, %147
  %153 = phi i64 [ 0, %147 ], [ %156, %152 ]
  %154 = load ptr, ptr %136, align 8, !tbaa !146
  %155 = getelementptr inbounds ptr, ptr %154, i64 %153
  store ptr null, ptr %155, align 8, !tbaa !126
  %156 = add nuw nsw i64 %153, 1
  %157 = icmp eq i64 %156, %148
  br i1 %157, label %149, label %152

158:                                              ; preds = %149
  store i32 256, ptr %137, align 8, !tbaa !143
  br label %159

159:                                              ; preds = %158, %149
  %160 = phi i32 [ 256, %158 ], [ %150, %149 ]
  %161 = load ptr, ptr %134, align 8, !tbaa !141
  %162 = zext i32 %160 to i64
  %163 = shl nuw nsw i64 %162, 3
  %164 = load ptr, ptr %161, align 8, !tbaa !86
  %165 = getelementptr inbounds ptr, ptr %164, i64 2
  %166 = load ptr, ptr %165, align 8
  %167 = invoke noundef ptr %166(ptr noundef nonnull align 8 dereferenceable(8) %161, i64 noundef %163)
          to label %168 unwind label %283

168:                                              ; preds = %159
  %169 = getelementptr inbounds %"class.xercesc_2_5::NameIdPool", ptr %134, i64 0, i32 2
  store ptr %167, ptr %169, align 8, !tbaa !147
  store ptr null, ptr %167, align 8, !tbaa !126
  %170 = getelementptr inbounds %"class.xercesc_2_5::IGXMLScanner", ptr %0, i64 0, i32 14
  store ptr %134, ptr %170, align 8, !tbaa !148
  %171 = load ptr, ptr %2, align 8, !tbaa !119
  %172 = tail call noundef ptr @_ZN11xercesc_2_57XMemorynwEmPNS_13MemoryManagerE(i64 noundef 56, ptr noundef %171)
  %173 = load ptr, ptr %2, align 8, !tbaa !119
  invoke void @_ZN11xercesc_2_518RefHash3KeysIdPoolINS_17SchemaElementDeclEEC2EjbjPNS_13MemoryManagerE(ptr noundef nonnull align 8 dereferenceable(56) %172, i32 noundef 29, i1 noundef zeroext true, i32 noundef 128, ptr noundef %173)
          to label %174 unwind label %285

174:                                              ; preds = %168
  %175 = getelementptr inbounds %"class.xercesc_2_5::IGXMLScanner", ptr %0, i64 0, i32 15
  store ptr %172, ptr %175, align 8, !tbaa !149
  %176 = load ptr, ptr %2, align 8, !tbaa !119
  %177 = tail call noundef ptr @_ZN11xercesc_2_57XMemorynwEmPNS_13MemoryManagerE(i64 noundef 48, ptr noundef %176)
  %178 = load ptr, ptr %2, align 8, !tbaa !119
  %179 = invoke noundef ptr @_ZN11xercesc_2_57XMemorynwEmPNS_13MemoryManagerE(i64 noundef 8, ptr noundef %178)
          to label %180 unwind label %287

180:                                              ; preds = %174
  invoke void @_ZN11xercesc_2_57HashPtrC1Ev(ptr noundef nonnull align 8 dereferenceable(8) %179)
          to label %181 unwind label %289

181:                                              ; preds = %180
  %182 = load ptr, ptr %2, align 8, !tbaa !119
  store ptr %182, ptr %177, align 8, !tbaa !150
  %183 = getelementptr inbounds %"class.xercesc_2_5::RefHashTableOf", ptr %177, i64 0, i32 1
  store i8 0, ptr %183, align 8, !tbaa !152
  %184 = getelementptr inbounds %"class.xercesc_2_5::RefHashTableOf", ptr %177, i64 0, i32 2
  store ptr null, ptr %184, align 8, !tbaa !153
  %185 = getelementptr inbounds %"class.xercesc_2_5::RefHashTableOf", ptr %177, i64 0, i32 3
  store i32 131, ptr %185, align 8, !tbaa !154
  %186 = getelementptr inbounds %"class.xercesc_2_5::RefHashTableOf", ptr %177, i64 0, i32 4
  store i32 131, ptr %186, align 4, !tbaa !155
  %187 = getelementptr inbounds %"class.xercesc_2_5::RefHashTableOf", ptr %177, i64 0, i32 5
  store i32 0, ptr %187, align 8, !tbaa !156
  %188 = getelementptr inbounds %"class.xercesc_2_5::RefHashTableOf", ptr %177, i64 0, i32 6
  store ptr null, ptr %188, align 8, !tbaa !157
  %189 = load ptr, ptr %182, align 8, !tbaa !86
  %190 = getelementptr inbounds ptr, ptr %189, i64 2
  %191 = load ptr, ptr %190, align 8
  %192 = invoke noundef ptr %191(ptr noundef nonnull align 8 dereferenceable(8) %182, i64 noundef 1048)
          to label %193 unwind label %287

193:                                              ; preds = %181
  store ptr %192, ptr %184, align 8, !tbaa !153
  %194 = load i32, ptr %185, align 8, !tbaa !154
  %195 = icmp eq i32 %194, 0
  br i1 %195, label %204, label %196

196:                                              ; preds = %193
  %197 = zext i32 %194 to i64
  br label %198

198:                                              ; preds = %198, %196
  %199 = phi i64 [ 0, %196 ], [ %202, %198 ]
  %200 = load ptr, ptr %184, align 8, !tbaa !153
  %201 = getelementptr inbounds ptr, ptr %200, i64 %199
  store ptr null, ptr %201, align 8, !tbaa !126
  %202 = add nuw nsw i64 %199, 1
  %203 = icmp eq i64 %202, %197
  br i1 %203, label %204, label %198

204:                                              ; preds = %198, %193
  store ptr %179, ptr %188, align 8, !tbaa !157
  %205 = getelementptr inbounds %"class.xercesc_2_5::IGXMLScanner", ptr %0, i64 0, i32 17
  store ptr %177, ptr %205, align 8, !tbaa !158
  %206 = load ptr, ptr %2, align 8, !tbaa !119
  %207 = tail call noundef ptr @_ZN11xercesc_2_57XMemorynwEmPNS_13MemoryManagerE(i64 noundef 48, ptr noundef %206)
  %208 = load ptr, ptr %2, align 8, !tbaa !119
  %209 = invoke noundef ptr @_ZN11xercesc_2_57XMemorynwEmPNS_13MemoryManagerE(i64 noundef 8, ptr noundef %208)
          to label %210 unwind label %293

210:                                              ; preds = %204
  invoke void @_ZN11xercesc_2_59HashXMLChC1Ev(ptr noundef nonnull align 8 dereferenceable(8) %209)
          to label %211 unwind label %295

211:                                              ; preds = %210
  %212 = load ptr, ptr %2, align 8, !tbaa !119
  store ptr %212, ptr %207, align 8, !tbaa !150
  %213 = getelementptr inbounds %"class.xercesc_2_5::RefHashTableOf", ptr %207, i64 0, i32 1
  store i8 0, ptr %213, align 8, !tbaa !152
  %214 = getelementptr inbounds %"class.xercesc_2_5::RefHashTableOf", ptr %207, i64 0, i32 2
  store ptr null, ptr %214, align 8, !tbaa !153
  %215 = getelementptr inbounds %"class.xercesc_2_5::RefHashTableOf", ptr %207, i64 0, i32 3
  store i32 7, ptr %215, align 8, !tbaa !154
  %216 = getelementptr inbounds %"class.xercesc_2_5::RefHashTableOf", ptr %207, i64 0, i32 4
  store i32 7, ptr %216, align 4, !tbaa !155
  %217 = getelementptr inbounds %"class.xercesc_2_5::RefHashTableOf", ptr %207, i64 0, i32 5
  store i32 0, ptr %217, align 8, !tbaa !156
  %218 = getelementptr inbounds %"class.xercesc_2_5::RefHashTableOf", ptr %207, i64 0, i32 6
  store ptr null, ptr %218, align 8, !tbaa !157
  %219 = load ptr, ptr %212, align 8, !tbaa !86
  %220 = getelementptr inbounds ptr, ptr %219, i64 2
  %221 = load ptr, ptr %220, align 8
  %222 = invoke noundef ptr %221(ptr noundef nonnull align 8 dereferenceable(8) %212, i64 noundef 56)
          to label %223 unwind label %293

223:                                              ; preds = %211
  store ptr %222, ptr %214, align 8, !tbaa !153
  %224 = load i32, ptr %215, align 8, !tbaa !154
  %225 = icmp eq i32 %224, 0
  br i1 %225, label %234, label %226

226:                                              ; preds = %223
  %227 = zext i32 %224 to i64
  br label %228

228:                                              ; preds = %228, %226
  %229 = phi i64 [ 0, %226 ], [ %232, %228 ]
  %230 = load ptr, ptr %214, align 8, !tbaa !153
  %231 = getelementptr inbounds ptr, ptr %230, i64 %229
  store ptr null, ptr %231, align 8, !tbaa !126
  %232 = add nuw nsw i64 %229, 1
  %233 = icmp eq i64 %232, %227
  br i1 %233, label %234, label %228

234:                                              ; preds = %228, %223
  store ptr %209, ptr %218, align 8, !tbaa !157
  %235 = getelementptr inbounds %"class.xercesc_2_5::IGXMLScanner", ptr %0, i64 0, i32 18
  store ptr %207, ptr %235, align 8, !tbaa !159
  %236 = load ptr, ptr %2, align 8, !tbaa !119
  %237 = tail call noundef ptr @_ZN11xercesc_2_57XMemorynwEmPNS_13MemoryManagerE(i64 noundef 40, ptr noundef %236)
  %238 = load ptr, ptr %2, align 8, !tbaa !119
  %239 = invoke noundef ptr @_ZN11xercesc_2_57XMemorynwEmPNS_13MemoryManagerE(i64 noundef 8, ptr noundef %238)
          to label %240 unwind label %299

240:                                              ; preds = %234
  invoke void @_ZN11xercesc_2_59HashXMLChC1Ev(ptr noundef nonnull align 8 dereferenceable(8) %239)
          to label %241 unwind label %301

241:                                              ; preds = %240
  %242 = load ptr, ptr %2, align 8, !tbaa !119
  store ptr %242, ptr %237, align 8, !tbaa !160
  %243 = getelementptr inbounds %"class.xercesc_2_5::RefHash2KeysTableOf", ptr %237, i64 0, i32 1
  store i8 0, ptr %243, align 8, !tbaa !162
  %244 = getelementptr inbounds %"class.xercesc_2_5::RefHash2KeysTableOf", ptr %237, i64 0, i32 2
  store ptr null, ptr %244, align 8, !tbaa !163
  %245 = getelementptr inbounds %"class.xercesc_2_5::RefHash2KeysTableOf", ptr %237, i64 0, i32 3
  store i32 7, ptr %245, align 8, !tbaa !164
  %246 = getelementptr inbounds %"class.xercesc_2_5::RefHash2KeysTableOf", ptr %237, i64 0, i32 4
  store ptr null, ptr %246, align 8, !tbaa !165
  %247 = load ptr, ptr %242, align 8, !tbaa !86
  %248 = getelementptr inbounds ptr, ptr %247, i64 2
  %249 = load ptr, ptr %248, align 8
  %250 = invoke noundef ptr %249(ptr noundef nonnull align 8 dereferenceable(8) %242, i64 noundef 56)
          to label %251 unwind label %299

251:                                              ; preds = %241
  store ptr %250, ptr %244, align 8, !tbaa !163
  %252 = load i32, ptr %245, align 8, !tbaa !164
  %253 = icmp eq i32 %252, 0
  br i1 %253, label %262, label %254

254:                                              ; preds = %251
  %255 = zext i32 %252 to i64
  br label %256

256:                                              ; preds = %256, %254
  %257 = phi i64 [ 0, %254 ], [ %260, %256 ]
  %258 = load ptr, ptr %244, align 8, !tbaa !163
  %259 = getelementptr inbounds ptr, ptr %258, i64 %257
  store ptr null, ptr %259, align 8, !tbaa !126
  %260 = add nuw nsw i64 %257, 1
  %261 = icmp eq i64 %260, %255
  br i1 %261, label %262, label %256

262:                                              ; preds = %256, %251
  store ptr %239, ptr %246, align 8, !tbaa !165
  %263 = getelementptr inbounds %"class.xercesc_2_5::IGXMLScanner", ptr %0, i64 0, i32 19
  store ptr %237, ptr %263, align 8, !tbaa !166
  %264 = load ptr, ptr %2, align 8, !tbaa !119
  %265 = tail call noundef ptr @_ZN11xercesc_2_57XMemorynwEmPNS_13MemoryManagerE(i64 noundef 40, ptr noundef %264)
  %266 = load ptr, ptr %2, align 8, !tbaa !119
  invoke void @_ZN11xercesc_2_517PSVIAttributeListC1EPNS_13MemoryManagerE(ptr noundef nonnull align 8 dereferenceable(36) %265, ptr noundef %266)
          to label %267 unwind label %305

267:                                              ; preds = %262
  %268 = getelementptr inbounds %"class.xercesc_2_5::IGXMLScanner", ptr %0, i64 0, i32 20
  store ptr %265, ptr %268, align 8, !tbaa !167
  ret void

269:                                              ; preds = %1
  %270 = landingpad { ptr, i32 }
          cleanup
  invoke void @_ZN11xercesc_2_57XMemorydlEPvPNS_13MemoryManagerE(ptr noundef nonnull %14, ptr noundef %13)
          to label %307 unwind label %309

271:                                              ; preds = %25
  %272 = landingpad { ptr, i32 }
          cleanup
  invoke void @_ZN11xercesc_2_57XMemorydlEPvPNS_13MemoryManagerE(ptr noundef %90, ptr noundef %89)
          to label %307 unwind label %309

273:                                              ; preds = %91
  %274 = landingpad { ptr, i32 }
          cleanup
  invoke void @_ZN11xercesc_2_57XMemorydlEPvPNS_13MemoryManagerE(ptr noundef %94, ptr noundef %93)
          to label %307 unwind label %309

275:                                              ; preds = %96
  %276 = landingpad { ptr, i32 }
          cleanup
  invoke void @_ZN11xercesc_2_57XMemorydlEPvPNS_13MemoryManagerE(ptr noundef %99, ptr noundef %98)
          to label %307 unwind label %309

277:                                              ; preds = %101
  %278 = landingpad { ptr, i32 }
          cleanup
  invoke void @_ZN11xercesc_2_57XMemorydlEPvPNS_13MemoryManagerE(ptr noundef %104, ptr noundef %103)
          to label %307 unwind label %309

279:                                              ; preds = %106
  %280 = landingpad { ptr, i32 }
          cleanup
  invoke void @_ZN11xercesc_2_57XMemorydlEPvPNS_13MemoryManagerE(ptr noundef %109, ptr noundef %108)
          to label %307 unwind label %309

281:                                              ; preds = %113
  %282 = landingpad { ptr, i32 }
          cleanup
  invoke void @_ZN11xercesc_2_57XMemorydlEPvPNS_13MemoryManagerE(ptr noundef nonnull %118, ptr noundef %117)
          to label %307 unwind label %309

283:                                              ; preds = %159, %128
  %284 = landingpad { ptr, i32 }
          cleanup
  invoke void @_ZN11xercesc_2_57XMemorydlEPvPNS_13MemoryManagerE(ptr noundef nonnull %134, ptr noundef %133)
          to label %307 unwind label %309

285:                                              ; preds = %168
  %286 = landingpad { ptr, i32 }
          cleanup
  invoke void @_ZN11xercesc_2_57XMemorydlEPvPNS_13MemoryManagerE(ptr noundef %172, ptr noundef %171)
          to label %307 unwind label %309

287:                                              ; preds = %181, %174
  %288 = landingpad { ptr, i32 }
          cleanup
  br label %291

289:                                              ; preds = %180
  %290 = landingpad { ptr, i32 }
          cleanup
  invoke void @_ZN11xercesc_2_57XMemorydlEPvPNS_13MemoryManagerE(ptr noundef %179, ptr noundef %178)
          to label %291 unwind label %309

291:                                              ; preds = %289, %287
  %292 = phi { ptr, i32 } [ %288, %287 ], [ %290, %289 ]
  invoke void @_ZN11xercesc_2_57XMemorydlEPvPNS_13MemoryManagerE(ptr noundef %177, ptr noundef %176)
          to label %307 unwind label %309

293:                                              ; preds = %211, %204
  %294 = landingpad { ptr, i32 }
          cleanup
  br label %297

295:                                              ; preds = %210
  %296 = landingpad { ptr, i32 }
          cleanup
  invoke void @_ZN11xercesc_2_57XMemorydlEPvPNS_13MemoryManagerE(ptr noundef %209, ptr noundef %208)
          to label %297 unwind label %309

297:                                              ; preds = %295, %293
  %298 = phi { ptr, i32 } [ %294, %293 ], [ %296, %295 ]
  invoke void @_ZN11xercesc_2_57XMemorydlEPvPNS_13MemoryManagerE(ptr noundef %207, ptr noundef %206)
          to label %307 unwind label %309

299:                                              ; preds = %241, %234
  %300 = landingpad { ptr, i32 }
          cleanup
  br label %303

301:                                              ; preds = %240
  %302 = landingpad { ptr, i32 }
          cleanup
  invoke void @_ZN11xercesc_2_57XMemorydlEPvPNS_13MemoryManagerE(ptr noundef %239, ptr noundef %238)
          to label %303 unwind label %309

303:                                              ; preds = %301, %299
  %304 = phi { ptr, i32 } [ %300, %299 ], [ %302, %301 ]
  invoke void @_ZN11xercesc_2_57XMemorydlEPvPNS_13MemoryManagerE(ptr noundef %237, ptr noundef %236)
          to label %307 unwind label %309

305:                                              ; preds = %262
  %306 = landingpad { ptr, i32 }
          cleanup
  invoke void @_ZN11xercesc_2_57XMemorydlEPvPNS_13MemoryManagerE(ptr noundef %265, ptr noundef %264)
          to label %307 unwind label %309

307:                                              ; preds = %305, %303, %297, %291, %285, %283, %281, %279, %277, %275, %273, %271, %269
  %308 = phi { ptr, i32 } [ %306, %305 ], [ %304, %303 ], [ %298, %297 ], [ %292, %291 ], [ %286, %285 ], [ %284, %283 ], [ %282, %281 ], [ %280, %279 ], [ %278, %277 ], [ %276, %275 ], [ %274, %273 ], [ %272, %271 ], [ %270, %269 ]
  resume { ptr, i32 } %308

309:                                              ; preds = %305, %303, %301, %297, %295, %291, %289, %285, %283, %281, %279, %277, %275, %273, %271, %269
  %310 = landingpad { ptr, i32 }
          catch ptr null
  %311 = extractvalue { ptr, i32 } %310, 0
  tail call void @__clang_call_terminate(ptr %311) #15
  unreachable
}

; Function Attrs: nofree nosync nounwind memory(none)
declare i32 @llvm.eh.typeid.for(ptr) #5

; Function Attrs: uwtable
define dso_local void @_ZN11xercesc_2_512IGXMLScanner7cleanUpEv(ptr nocapture noundef nonnull readonly align 8 dereferenceable(904) %0) local_unnamed_addr #4 align 2 personality ptr @__gxx_personality_v0 {
  %2 = getelementptr inbounds %"class.xercesc_2_5::XMLScanner", ptr %0, i64 0, i32 53
  %3 = load ptr, ptr %2, align 8, !tbaa !119
  %4 = getelementptr inbounds %"class.xercesc_2_5::IGXMLScanner", ptr %0, i64 0, i32 4
  %5 = load ptr, ptr %4, align 8, !tbaa !109
  %6 = load ptr, ptr %3, align 8, !tbaa !86
  %7 = getelementptr inbounds ptr, ptr %6, i64 3
  %8 = load ptr, ptr %7, align 8
  tail call void %8(ptr noundef nonnull align 8 dereferenceable(8) %3, ptr noundef %5)
  %9 = getelementptr inbounds %"class.xercesc_2_5::IGXMLScanner", ptr %0, i64 0, i32 6
  %10 = load ptr, ptr %9, align 8, !tbaa !127
  %11 = icmp eq ptr %10, null
  br i1 %11, label %16, label %12

12:                                               ; preds = %1
  %13 = load ptr, ptr %10, align 8, !tbaa !86
  %14 = getelementptr inbounds ptr, ptr %13, i64 1
  %15 = load ptr, ptr %14, align 8
  tail call void %15(ptr noundef nonnull align 8 dereferenceable(40) %10)
  br label %16

16:                                               ; preds = %12, %1
  %17 = getelementptr inbounds %"class.xercesc_2_5::IGXMLScanner", ptr %0, i64 0, i32 7
  %18 = load ptr, ptr %17, align 8, !tbaa !117
  %19 = icmp eq ptr %18, null
  br i1 %19, label %24, label %20

20:                                               ; preds = %16
  %21 = load ptr, ptr %18, align 8, !tbaa !86
  %22 = getelementptr inbounds ptr, ptr %21, i64 1
  %23 = load ptr, ptr %22, align 8
  tail call void %23(ptr noundef nonnull align 8 dereferenceable(48) %18)
  br label %24

24:                                               ; preds = %20, %16
  %25 = getelementptr inbounds %"class.xercesc_2_5::IGXMLScanner", ptr %0, i64 0, i32 8
  %26 = load ptr, ptr %25, align 8, !tbaa !128
  %27 = icmp eq ptr %26, null
  br i1 %27, label %32, label %28

28:                                               ; preds = %24
  %29 = load ptr, ptr %26, align 8, !tbaa !86
  %30 = getelementptr inbounds ptr, ptr %29, i64 1
  %31 = load ptr, ptr %30, align 8
  tail call void %31(ptr noundef nonnull align 8 dereferenceable(178) %26)
  br label %32

32:                                               ; preds = %28, %24
  %33 = getelementptr inbounds %"class.xercesc_2_5::IGXMLScanner", ptr %0, i64 0, i32 12
  %34 = load ptr, ptr %33, align 8, !tbaa !131
  %35 = icmp eq ptr %34, null
  br i1 %35, label %38, label %36

36:                                               ; preds = %32
  invoke void @_ZN11xercesc_2_514FieldActivatorD1Ev(ptr noundef nonnull align 8 dereferenceable(32) %34)
          to label %37 unwind label %411

37:                                               ; preds = %36
  tail call void @_ZN11xercesc_2_57XMemorydlEPv(ptr noundef nonnull %34)
  br label %38

38:                                               ; preds = %37, %32
  %39 = getelementptr inbounds %"class.xercesc_2_5::IGXMLScanner", ptr %0, i64 0, i32 10
  %40 = load ptr, ptr %39, align 8, !tbaa !129
  %41 = icmp eq ptr %40, null
  br i1 %41, label %44, label %42

42:                                               ; preds = %38
  invoke void @_ZN11xercesc_2_517XPathMatcherStackD1Ev(ptr noundef nonnull align 8 dereferenceable(24) %40)
          to label %43 unwind label %413

43:                                               ; preds = %42
  tail call void @_ZN11xercesc_2_57XMemorydlEPv(ptr noundef nonnull %40)
  br label %44

44:                                               ; preds = %43, %38
  %45 = getelementptr inbounds %"class.xercesc_2_5::IGXMLScanner", ptr %0, i64 0, i32 11
  %46 = load ptr, ptr %45, align 8, !tbaa !130
  %47 = icmp eq ptr %46, null
  br i1 %47, label %50, label %48

48:                                               ; preds = %44
  invoke void @_ZN11xercesc_2_515ValueStoreCacheD1Ev(ptr noundef nonnull align 8 dereferenceable(48) %46)
          to label %49 unwind label %415

49:                                               ; preds = %48
  tail call void @_ZN11xercesc_2_57XMemorydlEPv(ptr noundef nonnull %46)
  br label %50

50:                                               ; preds = %49, %44
  %51 = getelementptr inbounds %"class.xercesc_2_5::IGXMLScanner", ptr %0, i64 0, i32 13
  %52 = load ptr, ptr %51, align 8, !tbaa !140
  %53 = icmp eq ptr %52, null
  br i1 %53, label %63, label %54

54:                                               ; preds = %50
  %55 = getelementptr inbounds %"class.xercesc_2_5::ValueVectorOf", ptr %52, i64 0, i32 4
  %56 = load ptr, ptr %55, align 8, !tbaa !139
  %57 = getelementptr inbounds %"class.xercesc_2_5::ValueVectorOf", ptr %52, i64 0, i32 3
  %58 = load ptr, ptr %57, align 8, !tbaa !138
  %59 = load ptr, ptr %56, align 8, !tbaa !86
  %60 = getelementptr inbounds ptr, ptr %59, i64 3
  %61 = load ptr, ptr %60, align 8
  invoke void %61(ptr noundef nonnull align 8 dereferenceable(8) %56, ptr noundef %58)
          to label %62 unwind label %417

62:                                               ; preds = %54
  tail call void @_ZN11xercesc_2_57XMemorydlEPv(ptr noundef nonnull %52)
  br label %63

63:                                               ; preds = %62, %50
  %64 = getelementptr inbounds %"class.xercesc_2_5::IGXMLScanner", ptr %0, i64 0, i32 14
  %65 = load ptr, ptr %64, align 8, !tbaa !148
  %66 = icmp eq ptr %65, null
  br i1 %66, label %119, label %67

67:                                               ; preds = %63
  %68 = load ptr, ptr %65, align 8, !tbaa !141
  %69 = getelementptr inbounds %"class.xercesc_2_5::NameIdPool", ptr %65, i64 0, i32 2
  %70 = load ptr, ptr %69, align 8, !tbaa !147
  %71 = load ptr, ptr %68, align 8, !tbaa !86
  %72 = getelementptr inbounds ptr, ptr %71, i64 3
  %73 = load ptr, ptr %72, align 8
  invoke void %73(ptr noundef nonnull align 8 dereferenceable(8) %68, ptr noundef %70)
          to label %74 unwind label %421

74:                                               ; preds = %67
  %75 = getelementptr inbounds %"class.xercesc_2_5::NameIdPool", ptr %65, i64 0, i32 5
  %76 = load i32, ptr %75, align 8, !tbaa !145
  %77 = icmp eq i32 %76, 0
  br i1 %77, label %110, label %78

78:                                               ; preds = %74
  %79 = getelementptr inbounds %"class.xercesc_2_5::NameIdPool", ptr %65, i64 0, i32 1
  br label %80

80:                                               ; preds = %103, %78
  %81 = phi i32 [ %76, %78 ], [ %104, %103 ]
  %82 = phi i64 [ 0, %78 ], [ %107, %103 ]
  %83 = load ptr, ptr %79, align 8, !tbaa !146
  %84 = getelementptr inbounds ptr, ptr %83, i64 %82
  %85 = load ptr, ptr %84, align 8, !tbaa !126
  %86 = icmp eq ptr %85, null
  br i1 %86, label %103, label %87

87:                                               ; preds = %80, %98
  %88 = phi ptr [ %90, %98 ], [ %85, %80 ]
  %89 = getelementptr inbounds %"struct.xercesc_2_5::NameIdPoolBucketElem", ptr %88, i64 0, i32 1
  %90 = load ptr, ptr %89, align 8, !tbaa !168
  %91 = load ptr, ptr %88, align 8, !tbaa !170
  %92 = icmp eq ptr %91, null
  br i1 %92, label %97, label %93

93:                                               ; preds = %87
  %94 = load ptr, ptr %91, align 8, !tbaa !86
  %95 = getelementptr inbounds ptr, ptr %94, i64 1
  %96 = load ptr, ptr %95, align 8
  invoke void %96(ptr noundef nonnull align 8 dereferenceable(88) %91)
          to label %97 unwind label %419

97:                                               ; preds = %93, %87
  invoke void @_ZN11xercesc_2_57XMemorydlEPv(ptr noundef nonnull %88)
          to label %98 unwind label %419

98:                                               ; preds = %97
  %99 = icmp eq ptr %90, null
  br i1 %99, label %100, label %87

100:                                              ; preds = %98
  %101 = load ptr, ptr %79, align 8, !tbaa !146
  %102 = load i32, ptr %75, align 8, !tbaa !145
  br label %103

103:                                              ; preds = %100, %80
  %104 = phi i32 [ %102, %100 ], [ %81, %80 ]
  %105 = phi ptr [ %101, %100 ], [ %83, %80 ]
  %106 = getelementptr inbounds ptr, ptr %105, i64 %82
  store ptr null, ptr %106, align 8, !tbaa !126
  %107 = add nuw nsw i64 %82, 1
  %108 = zext i32 %104 to i64
  %109 = icmp ult i64 %107, %108
  br i1 %109, label %80, label %110

110:                                              ; preds = %103, %74
  %111 = getelementptr inbounds %"class.xercesc_2_5::NameIdPool", ptr %65, i64 0, i32 4
  store i32 0, ptr %111, align 4, !tbaa !144
  %112 = load ptr, ptr %65, align 8, !tbaa !141
  %113 = getelementptr inbounds %"class.xercesc_2_5::NameIdPool", ptr %65, i64 0, i32 1
  %114 = load ptr, ptr %113, align 8, !tbaa !146
  %115 = load ptr, ptr %112, align 8, !tbaa !86
  %116 = getelementptr inbounds ptr, ptr %115, i64 3
  %117 = load ptr, ptr %116, align 8
  invoke void %117(ptr noundef nonnull align 8 dereferenceable(8) %112, ptr noundef %114)
          to label %118 unwind label %421

118:                                              ; preds = %110
  tail call void @_ZN11xercesc_2_57XMemorydlEPv(ptr noundef nonnull %65)
  br label %119

119:                                              ; preds = %118, %63
  %120 = getelementptr inbounds %"class.xercesc_2_5::IGXMLScanner", ptr %0, i64 0, i32 15
  %121 = load ptr, ptr %120, align 8, !tbaa !149
  %122 = icmp eq ptr %121, null
  br i1 %122, label %187, label %123

123:                                              ; preds = %119
  %124 = getelementptr inbounds %"class.xercesc_2_5::RefHash3KeysIdPool", ptr %121, i64 0, i32 3
  %125 = load i32, ptr %124, align 8, !tbaa !171
  %126 = icmp eq i32 %125, 0
  br i1 %126, label %163, label %127

127:                                              ; preds = %123
  %128 = getelementptr inbounds %"class.xercesc_2_5::RefHash3KeysIdPool", ptr %121, i64 0, i32 2
  %129 = getelementptr inbounds %"class.xercesc_2_5::RefHash3KeysIdPool", ptr %121, i64 0, i32 1
  br label %130

130:                                              ; preds = %156, %127
  %131 = phi i32 [ %125, %127 ], [ %157, %156 ]
  %132 = phi i64 [ 0, %127 ], [ %160, %156 ]
  %133 = load ptr, ptr %128, align 8, !tbaa !173
  %134 = getelementptr inbounds ptr, ptr %133, i64 %132
  %135 = load ptr, ptr %134, align 8, !tbaa !126
  %136 = icmp eq ptr %135, null
  br i1 %136, label %156, label %137

137:                                              ; preds = %130, %151
  %138 = phi ptr [ %140, %151 ], [ %135, %130 ]
  %139 = getelementptr inbounds %"struct.xercesc_2_5::RefHash3KeysTableBucketElem", ptr %138, i64 0, i32 1
  %140 = load ptr, ptr %139, align 8, !tbaa !174
  %141 = load i8, ptr %129, align 8, !tbaa !176, !range !177, !noundef !178
  %142 = icmp eq i8 %141, 0
  br i1 %142, label %150, label %143

143:                                              ; preds = %137
  %144 = load ptr, ptr %138, align 8, !tbaa !179
  %145 = icmp eq ptr %144, null
  br i1 %145, label %150, label %146

146:                                              ; preds = %143
  %147 = load ptr, ptr %144, align 8, !tbaa !86
  %148 = getelementptr inbounds ptr, ptr %147, i64 1
  %149 = load ptr, ptr %148, align 8
  invoke void %149(ptr noundef nonnull align 8 dereferenceable(147) %144)
          to label %150 unwind label %425

150:                                              ; preds = %146, %143, %137
  invoke void @_ZN11xercesc_2_57XMemorydlEPv(ptr noundef nonnull %138)
          to label %151 unwind label %425

151:                                              ; preds = %150
  %152 = icmp eq ptr %140, null
  br i1 %152, label %153, label %137

153:                                              ; preds = %151
  %154 = load ptr, ptr %128, align 8, !tbaa !173
  %155 = load i32, ptr %124, align 8, !tbaa !171
  br label %156

156:                                              ; preds = %153, %130
  %157 = phi i32 [ %155, %153 ], [ %131, %130 ]
  %158 = phi ptr [ %154, %153 ], [ %133, %130 ]
  %159 = getelementptr inbounds ptr, ptr %158, i64 %132
  store ptr null, ptr %159, align 8, !tbaa !126
  %160 = add nuw nsw i64 %132, 1
  %161 = zext i32 %157 to i64
  %162 = icmp ult i64 %160, %161
  br i1 %162, label %130, label %163

163:                                              ; preds = %156, %123
  %164 = getelementptr inbounds %"class.xercesc_2_5::RefHash3KeysIdPool", ptr %121, i64 0, i32 7
  store i32 0, ptr %164, align 4, !tbaa !180
  %165 = load ptr, ptr %121, align 8, !tbaa !181
  %166 = getelementptr inbounds %"class.xercesc_2_5::RefHash3KeysIdPool", ptr %121, i64 0, i32 5
  %167 = load ptr, ptr %166, align 8, !tbaa !182
  %168 = load ptr, ptr %165, align 8, !tbaa !86
  %169 = getelementptr inbounds ptr, ptr %168, i64 3
  %170 = load ptr, ptr %169, align 8
  invoke void %170(ptr noundef nonnull align 8 dereferenceable(8) %165, ptr noundef %167)
          to label %171 unwind label %427

171:                                              ; preds = %163
  %172 = load ptr, ptr %121, align 8, !tbaa !181
  %173 = getelementptr inbounds %"class.xercesc_2_5::RefHash3KeysIdPool", ptr %121, i64 0, i32 2
  %174 = load ptr, ptr %173, align 8, !tbaa !173
  %175 = load ptr, ptr %172, align 8, !tbaa !86
  %176 = getelementptr inbounds ptr, ptr %175, i64 3
  %177 = load ptr, ptr %176, align 8
  invoke void %177(ptr noundef nonnull align 8 dereferenceable(8) %172, ptr noundef %174)
          to label %178 unwind label %427

178:                                              ; preds = %171
  %179 = getelementptr inbounds %"class.xercesc_2_5::RefHash3KeysIdPool", ptr %121, i64 0, i32 4
  %180 = load ptr, ptr %179, align 8, !tbaa !183
  %181 = icmp eq ptr %180, null
  br i1 %181, label %186, label %182

182:                                              ; preds = %178
  %183 = load ptr, ptr %180, align 8, !tbaa !86
  %184 = getelementptr inbounds ptr, ptr %183, i64 3
  %185 = load ptr, ptr %184, align 8
  invoke void %185(ptr noundef nonnull align 8 dereferenceable(8) %180)
          to label %186 unwind label %427

186:                                              ; preds = %178, %182
  tail call void @_ZN11xercesc_2_57XMemorydlEPv(ptr noundef nonnull %121)
  br label %187

187:                                              ; preds = %186, %119
  %188 = getelementptr inbounds %"class.xercesc_2_5::IGXMLScanner", ptr %0, i64 0, i32 17
  %189 = load ptr, ptr %188, align 8, !tbaa !158
  %190 = icmp eq ptr %189, null
  br i1 %190, label %245, label %191

191:                                              ; preds = %187
  %192 = getelementptr inbounds %"class.xercesc_2_5::RefHashTableOf", ptr %189, i64 0, i32 3
  %193 = load i32, ptr %192, align 8, !tbaa !154
  %194 = icmp eq i32 %193, 0
  br i1 %194, label %228, label %195

195:                                              ; preds = %191
  %196 = getelementptr inbounds %"class.xercesc_2_5::RefHashTableOf", ptr %189, i64 0, i32 2
  %197 = getelementptr inbounds %"class.xercesc_2_5::RefHashTableOf", ptr %189, i64 0, i32 1
  br label %198

198:                                              ; preds = %221, %195
  %199 = phi i32 [ %193, %195 ], [ %222, %221 ]
  %200 = phi i64 [ 0, %195 ], [ %225, %221 ]
  %201 = load ptr, ptr %196, align 8, !tbaa !153
  %202 = getelementptr inbounds ptr, ptr %201, i64 %200
  %203 = load ptr, ptr %202, align 8, !tbaa !126
  %204 = icmp eq ptr %203, null
  br i1 %204, label %221, label %205

205:                                              ; preds = %198, %216
  %206 = phi ptr [ %208, %216 ], [ %203, %198 ]
  %207 = getelementptr inbounds %"struct.xercesc_2_5::RefHashTableBucketElem", ptr %206, i64 0, i32 1
  %208 = load ptr, ptr %207, align 8, !tbaa !184
  %209 = load i8, ptr %197, align 8, !tbaa !152, !range !177, !noundef !178
  %210 = icmp eq i8 %209, 0
  br i1 %210, label %215, label %211

211:                                              ; preds = %205
  %212 = load ptr, ptr %206, align 8, !tbaa !186
  %213 = icmp eq ptr %212, null
  br i1 %213, label %215, label %214

214:                                              ; preds = %211
  tail call void @_ZdlPv(ptr noundef nonnull %212) #17
  br label %215

215:                                              ; preds = %214, %211, %205
  invoke void @_ZN11xercesc_2_57XMemorydlEPv(ptr noundef nonnull %206)
          to label %216 unwind label %431

216:                                              ; preds = %215
  %217 = icmp eq ptr %208, null
  br i1 %217, label %218, label %205

218:                                              ; preds = %216
  %219 = load ptr, ptr %196, align 8, !tbaa !153
  %220 = load i32, ptr %192, align 8, !tbaa !154
  br label %221

221:                                              ; preds = %218, %198
  %222 = phi i32 [ %220, %218 ], [ %199, %198 ]
  %223 = phi ptr [ %219, %218 ], [ %201, %198 ]
  %224 = getelementptr inbounds ptr, ptr %223, i64 %200
  store ptr null, ptr %224, align 8, !tbaa !126
  %225 = add nuw nsw i64 %200, 1
  %226 = zext i32 %222 to i64
  %227 = icmp ult i64 %225, %226
  br i1 %227, label %198, label %228

228:                                              ; preds = %221, %191
  %229 = getelementptr inbounds %"class.xercesc_2_5::RefHashTableOf", ptr %189, i64 0, i32 5
  store i32 0, ptr %229, align 8, !tbaa !156
  %230 = load ptr, ptr %189, align 8, !tbaa !150
  %231 = getelementptr inbounds %"class.xercesc_2_5::RefHashTableOf", ptr %189, i64 0, i32 2
  %232 = load ptr, ptr %231, align 8, !tbaa !153
  %233 = load ptr, ptr %230, align 8, !tbaa !86
  %234 = getelementptr inbounds ptr, ptr %233, i64 3
  %235 = load ptr, ptr %234, align 8
  invoke void %235(ptr noundef nonnull align 8 dereferenceable(8) %230, ptr noundef %232)
          to label %236 unwind label %433

236:                                              ; preds = %228
  %237 = getelementptr inbounds %"class.xercesc_2_5::RefHashTableOf", ptr %189, i64 0, i32 6
  %238 = load ptr, ptr %237, align 8, !tbaa !157
  %239 = icmp eq ptr %238, null
  br i1 %239, label %244, label %240

240:                                              ; preds = %236
  %241 = load ptr, ptr %238, align 8, !tbaa !86
  %242 = getelementptr inbounds ptr, ptr %241, i64 3
  %243 = load ptr, ptr %242, align 8
  invoke void %243(ptr noundef nonnull align 8 dereferenceable(8) %238)
          to label %244 unwind label %433

244:                                              ; preds = %236, %240
  tail call void @_ZN11xercesc_2_57XMemorydlEPv(ptr noundef nonnull %189)
  br label %245

245:                                              ; preds = %244, %187
  %246 = getelementptr inbounds %"class.xercesc_2_5::IGXMLScanner", ptr %0, i64 0, i32 18
  %247 = load ptr, ptr %246, align 8, !tbaa !159
  %248 = icmp eq ptr %247, null
  br i1 %248, label %303, label %249

249:                                              ; preds = %245
  %250 = getelementptr inbounds %"class.xercesc_2_5::RefHashTableOf", ptr %247, i64 0, i32 3
  %251 = load i32, ptr %250, align 8, !tbaa !154
  %252 = icmp eq i32 %251, 0
  br i1 %252, label %286, label %253

253:                                              ; preds = %249
  %254 = getelementptr inbounds %"class.xercesc_2_5::RefHashTableOf", ptr %247, i64 0, i32 2
  %255 = getelementptr inbounds %"class.xercesc_2_5::RefHashTableOf", ptr %247, i64 0, i32 1
  br label %256

256:                                              ; preds = %279, %253
  %257 = phi i32 [ %251, %253 ], [ %280, %279 ]
  %258 = phi i64 [ 0, %253 ], [ %283, %279 ]
  %259 = load ptr, ptr %254, align 8, !tbaa !153
  %260 = getelementptr inbounds ptr, ptr %259, i64 %258
  %261 = load ptr, ptr %260, align 8, !tbaa !126
  %262 = icmp eq ptr %261, null
  br i1 %262, label %279, label %263

263:                                              ; preds = %256, %274
  %264 = phi ptr [ %266, %274 ], [ %261, %256 ]
  %265 = getelementptr inbounds %"struct.xercesc_2_5::RefHashTableBucketElem", ptr %264, i64 0, i32 1
  %266 = load ptr, ptr %265, align 8, !tbaa !184
  %267 = load i8, ptr %255, align 8, !tbaa !152, !range !177, !noundef !178
  %268 = icmp eq i8 %267, 0
  br i1 %268, label %273, label %269

269:                                              ; preds = %263
  %270 = load ptr, ptr %264, align 8, !tbaa !186
  %271 = icmp eq ptr %270, null
  br i1 %271, label %273, label %272

272:                                              ; preds = %269
  tail call void @_ZdlPv(ptr noundef nonnull %270) #17
  br label %273

273:                                              ; preds = %272, %269, %263
  invoke void @_ZN11xercesc_2_57XMemorydlEPv(ptr noundef nonnull %264)
          to label %274 unwind label %437

274:                                              ; preds = %273
  %275 = icmp eq ptr %266, null
  br i1 %275, label %276, label %263

276:                                              ; preds = %274
  %277 = load ptr, ptr %254, align 8, !tbaa !153
  %278 = load i32, ptr %250, align 8, !tbaa !154
  br label %279

279:                                              ; preds = %276, %256
  %280 = phi i32 [ %278, %276 ], [ %257, %256 ]
  %281 = phi ptr [ %277, %276 ], [ %259, %256 ]
  %282 = getelementptr inbounds ptr, ptr %281, i64 %258
  store ptr null, ptr %282, align 8, !tbaa !126
  %283 = add nuw nsw i64 %258, 1
  %284 = zext i32 %280 to i64
  %285 = icmp ult i64 %283, %284
  br i1 %285, label %256, label %286

286:                                              ; preds = %279, %249
  %287 = getelementptr inbounds %"class.xercesc_2_5::RefHashTableOf", ptr %247, i64 0, i32 5
  store i32 0, ptr %287, align 8, !tbaa !156
  %288 = load ptr, ptr %247, align 8, !tbaa !150
  %289 = getelementptr inbounds %"class.xercesc_2_5::RefHashTableOf", ptr %247, i64 0, i32 2
  %290 = load ptr, ptr %289, align 8, !tbaa !153
  %291 = load ptr, ptr %288, align 8, !tbaa !86
  %292 = getelementptr inbounds ptr, ptr %291, i64 3
  %293 = load ptr, ptr %292, align 8
  invoke void %293(ptr noundef nonnull align 8 dereferenceable(8) %288, ptr noundef %290)
          to label %294 unwind label %439

294:                                              ; preds = %286
  %295 = getelementptr inbounds %"class.xercesc_2_5::RefHashTableOf", ptr %247, i64 0, i32 6
  %296 = load ptr, ptr %295, align 8, !tbaa !157
  %297 = icmp eq ptr %296, null
  br i1 %297, label %302, label %298

298:                                              ; preds = %294
  %299 = load ptr, ptr %296, align 8, !tbaa !86
  %300 = getelementptr inbounds ptr, ptr %299, i64 3
  %301 = load ptr, ptr %300, align 8
  invoke void %301(ptr noundef nonnull align 8 dereferenceable(8) %296)
          to label %302 unwind label %439

302:                                              ; preds = %294, %298
  tail call void @_ZN11xercesc_2_57XMemorydlEPv(ptr noundef nonnull %247)
  br label %303

303:                                              ; preds = %302, %245
  %304 = getelementptr inbounds %"class.xercesc_2_5::IGXMLScanner", ptr %0, i64 0, i32 19
  %305 = load ptr, ptr %304, align 8, !tbaa !166
  %306 = icmp eq ptr %305, null
  br i1 %306, label %360, label %307

307:                                              ; preds = %303
  %308 = getelementptr inbounds %"class.xercesc_2_5::RefHash2KeysTableOf", ptr %305, i64 0, i32 3
  %309 = load i32, ptr %308, align 8, !tbaa !164
  %310 = icmp eq i32 %309, 0
  br i1 %310, label %344, label %311

311:                                              ; preds = %307
  %312 = getelementptr inbounds %"class.xercesc_2_5::RefHash2KeysTableOf", ptr %305, i64 0, i32 2
  %313 = getelementptr inbounds %"class.xercesc_2_5::RefHash2KeysTableOf", ptr %305, i64 0, i32 1
  br label %314

314:                                              ; preds = %337, %311
  %315 = phi i32 [ %309, %311 ], [ %338, %337 ]
  %316 = phi i64 [ 0, %311 ], [ %341, %337 ]
  %317 = load ptr, ptr %312, align 8, !tbaa !163
  %318 = getelementptr inbounds ptr, ptr %317, i64 %316
  %319 = load ptr, ptr %318, align 8, !tbaa !126
  %320 = icmp eq ptr %319, null
  br i1 %320, label %337, label %321

321:                                              ; preds = %314, %332
  %322 = phi ptr [ %324, %332 ], [ %319, %314 ]
  %323 = getelementptr inbounds %"struct.xercesc_2_5::RefHash2KeysTableBucketElem.17", ptr %322, i64 0, i32 1
  %324 = load ptr, ptr %323, align 8, !tbaa !187
  %325 = load i8, ptr %313, align 8, !tbaa !162, !range !177, !noundef !178
  %326 = icmp eq i8 %325, 0
  br i1 %326, label %331, label %327

327:                                              ; preds = %321
  %328 = load ptr, ptr %322, align 8, !tbaa !189
  %329 = icmp eq ptr %328, null
  br i1 %329, label %331, label %330

330:                                              ; preds = %327
  tail call void @_ZdlPv(ptr noundef nonnull %328) #17
  br label %331

331:                                              ; preds = %330, %327, %321
  invoke void @_ZN11xercesc_2_57XMemorydlEPv(ptr noundef nonnull %322)
          to label %332 unwind label %443

332:                                              ; preds = %331
  %333 = icmp eq ptr %324, null
  br i1 %333, label %334, label %321

334:                                              ; preds = %332
  %335 = load ptr, ptr %312, align 8, !tbaa !163
  %336 = load i32, ptr %308, align 8, !tbaa !164
  br label %337

337:                                              ; preds = %334, %314
  %338 = phi i32 [ %336, %334 ], [ %315, %314 ]
  %339 = phi ptr [ %335, %334 ], [ %317, %314 ]
  %340 = getelementptr inbounds ptr, ptr %339, i64 %316
  store ptr null, ptr %340, align 8, !tbaa !126
  %341 = add nuw nsw i64 %316, 1
  %342 = zext i32 %338 to i64
  %343 = icmp ult i64 %341, %342
  br i1 %343, label %314, label %344

344:                                              ; preds = %337, %307
  %345 = load ptr, ptr %305, align 8, !tbaa !160
  %346 = getelementptr inbounds %"class.xercesc_2_5::RefHash2KeysTableOf", ptr %305, i64 0, i32 2
  %347 = load ptr, ptr %346, align 8, !tbaa !163
  %348 = load ptr, ptr %345, align 8, !tbaa !86
  %349 = getelementptr inbounds ptr, ptr %348, i64 3
  %350 = load ptr, ptr %349, align 8
  invoke void %350(ptr noundef nonnull align 8 dereferenceable(8) %345, ptr noundef %347)
          to label %351 unwind label %445

351:                                              ; preds = %344
  %352 = getelementptr inbounds %"class.xercesc_2_5::RefHash2KeysTableOf", ptr %305, i64 0, i32 4
  %353 = load ptr, ptr %352, align 8, !tbaa !165
  %354 = icmp eq ptr %353, null
  br i1 %354, label %359, label %355

355:                                              ; preds = %351
  %356 = load ptr, ptr %353, align 8, !tbaa !86
  %357 = getelementptr inbounds ptr, ptr %356, i64 3
  %358 = load ptr, ptr %357, align 8
  invoke void %358(ptr noundef nonnull align 8 dereferenceable(8) %353)
          to label %359 unwind label %445

359:                                              ; preds = %351, %355
  tail call void @_ZN11xercesc_2_57XMemorydlEPv(ptr noundef nonnull %305)
  br label %360

360:                                              ; preds = %359, %303
  %361 = getelementptr inbounds %"class.xercesc_2_5::IGXMLScanner", ptr %0, i64 0, i32 20
  %362 = load ptr, ptr %361, align 8, !tbaa !167
  %363 = icmp eq ptr %362, null
  br i1 %363, label %389, label %364

364:                                              ; preds = %360
  %365 = getelementptr inbounds %"class.xercesc_2_5::PSVIAttributeList", ptr %362, i64 0, i32 1
  %366 = load ptr, ptr %365, align 8, !tbaa !190
  %367 = icmp eq ptr %366, null
  br i1 %367, label %372, label %368

368:                                              ; preds = %364
  %369 = load ptr, ptr %366, align 8, !tbaa !86
  %370 = getelementptr inbounds ptr, ptr %369, i64 1
  %371 = load ptr, ptr %370, align 8
  invoke void %371(ptr noundef nonnull align 8 dereferenceable(40) %366)
          to label %372 unwind label %449

372:                                              ; preds = %368, %364
  %373 = getelementptr inbounds %"class.xercesc_2_5::PSVIAttributeList", ptr %362, i64 0, i32 2
  %374 = load ptr, ptr %373, align 8, !tbaa !192
  %375 = icmp eq ptr %374, null
  br i1 %375, label %380, label %376

376:                                              ; preds = %372
  %377 = load ptr, ptr %374, align 8, !tbaa !86
  %378 = getelementptr inbounds ptr, ptr %377, i64 1
  %379 = load ptr, ptr %378, align 8
  invoke void %379(ptr noundef nonnull align 8 dereferenceable(40) %374)
          to label %380 unwind label %449

380:                                              ; preds = %376, %372
  %381 = getelementptr inbounds %"class.xercesc_2_5::PSVIAttributeList", ptr %362, i64 0, i32 3
  %382 = load ptr, ptr %381, align 8, !tbaa !193
  %383 = icmp eq ptr %382, null
  br i1 %383, label %388, label %384

384:                                              ; preds = %380
  %385 = load ptr, ptr %382, align 8, !tbaa !86
  %386 = getelementptr inbounds ptr, ptr %385, i64 1
  %387 = load ptr, ptr %386, align 8
  invoke void %387(ptr noundef nonnull align 8 dereferenceable(40) %382)
          to label %388 unwind label %449

388:                                              ; preds = %380, %384
  tail call void @_ZN11xercesc_2_57XMemorydlEPv(ptr noundef nonnull %362)
  br label %389

389:                                              ; preds = %388, %360
  %390 = getelementptr inbounds %"class.xercesc_2_5::IGXMLScanner", ptr %0, i64 0, i32 22
  %391 = load ptr, ptr %390, align 8, !tbaa !194
  %392 = icmp eq ptr %391, null
  br i1 %392, label %397, label %393

393:                                              ; preds = %389
  %394 = load ptr, ptr %391, align 8, !tbaa !86
  %395 = getelementptr inbounds ptr, ptr %394, i64 1
  %396 = load ptr, ptr %395, align 8
  tail call void %396(ptr noundef nonnull align 8 dereferenceable(104) %391)
  br label %397

397:                                              ; preds = %393, %389
  %398 = getelementptr inbounds %"class.xercesc_2_5::IGXMLScanner", ptr %0, i64 0, i32 23
  %399 = load ptr, ptr %398, align 8, !tbaa !195
  %400 = icmp eq ptr %399, null
  br i1 %400, label %410, label %401

401:                                              ; preds = %397
  %402 = getelementptr inbounds %"class.xercesc_2_5::ValueStackOf", ptr %399, i64 0, i32 1, i32 4
  %403 = load ptr, ptr %402, align 8, !tbaa !196
  %404 = getelementptr inbounds %"class.xercesc_2_5::ValueStackOf", ptr %399, i64 0, i32 1, i32 3
  %405 = load ptr, ptr %404, align 8, !tbaa !198
  %406 = load ptr, ptr %403, align 8, !tbaa !86
  %407 = getelementptr inbounds ptr, ptr %406, i64 3
  %408 = load ptr, ptr %407, align 8
  invoke void %408(ptr noundef nonnull align 8 dereferenceable(8) %403, ptr noundef %405)
          to label %409 unwind label %451

409:                                              ; preds = %401
  tail call void @_ZN11xercesc_2_57XMemorydlEPv(ptr noundef nonnull %399)
  br label %410

410:                                              ; preds = %409, %397
  ret void

411:                                              ; preds = %36
  %412 = landingpad { ptr, i32 }
          cleanup
  invoke void @_ZN11xercesc_2_57XMemorydlEPv(ptr noundef nonnull %34)
          to label %453 unwind label %455

413:                                              ; preds = %42
  %414 = landingpad { ptr, i32 }
          cleanup
  invoke void @_ZN11xercesc_2_57XMemorydlEPv(ptr noundef nonnull %40)
          to label %453 unwind label %455

415:                                              ; preds = %48
  %416 = landingpad { ptr, i32 }
          cleanup
  invoke void @_ZN11xercesc_2_57XMemorydlEPv(ptr noundef nonnull %46)
          to label %453 unwind label %455

417:                                              ; preds = %54
  %418 = landingpad { ptr, i32 }
          cleanup
  invoke void @_ZN11xercesc_2_57XMemorydlEPv(ptr noundef nonnull %52)
          to label %453 unwind label %455

419:                                              ; preds = %93, %97
  %420 = landingpad { ptr, i32 }
          cleanup
  br label %423

421:                                              ; preds = %67, %110
  %422 = landingpad { ptr, i32 }
          cleanup
  br label %423

423:                                              ; preds = %421, %419
  %424 = phi { ptr, i32 } [ %420, %419 ], [ %422, %421 ]
  invoke void @_ZN11xercesc_2_57XMemorydlEPv(ptr noundef nonnull %65)
          to label %453 unwind label %455

425:                                              ; preds = %146, %150
  %426 = landingpad { ptr, i32 }
          cleanup
  br label %429

427:                                              ; preds = %163, %171, %182
  %428 = landingpad { ptr, i32 }
          cleanup
  br label %429

429:                                              ; preds = %427, %425
  %430 = phi { ptr, i32 } [ %426, %425 ], [ %428, %427 ]
  invoke void @_ZN11xercesc_2_57XMemorydlEPv(ptr noundef nonnull %121)
          to label %453 unwind label %455

431:                                              ; preds = %215
  %432 = landingpad { ptr, i32 }
          cleanup
  br label %435

433:                                              ; preds = %228, %240
  %434 = landingpad { ptr, i32 }
          cleanup
  br label %435

435:                                              ; preds = %433, %431
  %436 = phi { ptr, i32 } [ %432, %431 ], [ %434, %433 ]
  invoke void @_ZN11xercesc_2_57XMemorydlEPv(ptr noundef nonnull %189)
          to label %453 unwind label %455

437:                                              ; preds = %273
  %438 = landingpad { ptr, i32 }
          cleanup
  br label %441

439:                                              ; preds = %286, %298
  %440 = landingpad { ptr, i32 }
          cleanup
  br label %441

441:                                              ; preds = %439, %437
  %442 = phi { ptr, i32 } [ %438, %437 ], [ %440, %439 ]
  invoke void @_ZN11xercesc_2_57XMemorydlEPv(ptr noundef nonnull %247)
          to label %453 unwind label %455

443:                                              ; preds = %331
  %444 = landingpad { ptr, i32 }
          cleanup
  br label %447

445:                                              ; preds = %344, %355
  %446 = landingpad { ptr, i32 }
          cleanup
  br label %447

447:                                              ; preds = %445, %443
  %448 = phi { ptr, i32 } [ %444, %443 ], [ %446, %445 ]
  invoke void @_ZN11xercesc_2_57XMemorydlEPv(ptr noundef nonnull %305)
          to label %453 unwind label %455

449:                                              ; preds = %384, %376, %368
  %450 = landingpad { ptr, i32 }
          cleanup
  invoke void @_ZN11xercesc_2_57XMemorydlEPv(ptr noundef nonnull %362)
          to label %453 unwind label %455

451:                                              ; preds = %401
  %452 = landingpad { ptr, i32 }
          cleanup
  invoke void @_ZN11xercesc_2_57XMemorydlEPv(ptr noundef nonnull %399)
          to label %453 unwind label %455

453:                                              ; preds = %451, %449, %447, %441, %435, %429, %423, %417, %415, %413, %411
  %454 = phi { ptr, i32 } [ %452, %451 ], [ %450, %449 ], [ %448, %447 ], [ %442, %441 ], [ %436, %435 ], [ %430, %429 ], [ %424, %423 ], [ %418, %417 ], [ %416, %415 ], [ %414, %413 ], [ %412, %411 ]
  resume { ptr, i32 } %454

455:                                              ; preds = %451, %449, %447, %441, %435, %429, %423, %417, %415, %413, %411
  %456 = landingpad { ptr, i32 }
          catch ptr null
  %457 = extractvalue { ptr, i32 } %456, 0
  tail call void @__clang_call_terminate(ptr %457) #15
  unreachable
}

declare void @__cxa_rethrow() local_unnamed_addr

declare void @__cxa_end_catch() local_unnamed_addr

; Function Attrs: mustprogress nocallback nofree nosync nounwind willreturn memory(argmem: readwrite)
declare void @llvm.lifetime.start.p0(i64 immarg, ptr nocapture) #6

; Function Attrs: mustprogress nocallback nofree nosync nounwind willreturn memory(argmem: readwrite)
declare void @llvm.lifetime.end.p0(i64 immarg, ptr nocapture) #6

declare void @_ZN11xercesc_2_510XMLScannerD2Ev(ptr noundef nonnull align 8 dereferenceable(664)) unnamed_addr #2

; Function Attrs: uwtable
define dso_local void @_ZN11xercesc_2_512IGXMLScannerC2EPNS_18XMLDocumentHandlerEPNS_14DocTypeHandlerEPNS_16XMLEntityHandlerEPNS_16XMLErrorReporterEPNS_12XMLValidatorEPNS_15GrammarResolverEPNS_13MemoryManagerE(ptr noundef nonnull align 8 dereferenceable(904) %0, ptr noundef %1, ptr noundef %2, ptr noundef %3, ptr noundef %4, ptr noundef %5, ptr noundef %6, ptr noundef %7) unnamed_addr #4 align 2 personality ptr @__gxx_personality_v0 {
  tail call void @_ZN11xercesc_2_510XMLScannerC2EPNS_18XMLDocumentHandlerEPNS_14DocTypeHandlerEPNS_16XMLEntityHandlerEPNS_16XMLErrorReporterEPNS_12XMLValidatorEPNS_15GrammarResolverEPNS_13MemoryManagerE(ptr noundef nonnull align 8 dereferenceable(664) %0, ptr noundef %1, ptr noundef %2, ptr noundef %3, ptr noundef %4, ptr noundef %5, ptr noundef %6, ptr noundef %7)
  store ptr getelementptr inbounds ({ [17 x ptr] }, ptr @_ZTVN11xercesc_2_512IGXMLScannerE, i64 0, inrange i32 0, i64 2), ptr %0, align 8, !tbaa !86
  %9 = getelementptr inbounds %"class.xercesc_2_5::IGXMLScanner", ptr %0, i64 0, i32 1
  store i8 0, ptr %9, align 8, !tbaa !89
  %10 = getelementptr inbounds %"class.xercesc_2_5::IGXMLScanner", ptr %0, i64 0, i32 2
  store i32 2, ptr %10, align 4, !tbaa !107
  %11 = getelementptr inbounds %"class.xercesc_2_5::IGXMLScanner", ptr %0, i64 0, i32 3
  store i32 16, ptr %11, align 8, !tbaa !108
  %12 = getelementptr inbounds %"class.xercesc_2_5::IGXMLScanner", ptr %0, i64 0, i32 4
  store ptr null, ptr %12, align 8, !tbaa !109
  %13 = getelementptr inbounds %"class.xercesc_2_5::IGXMLScanner", ptr %0, i64 0, i32 5
  store i8 0, ptr %13, align 8, !tbaa !110
  %14 = getelementptr inbounds %"class.xercesc_2_5::IGXMLScanner", ptr %0, i64 0, i32 5, i32 1
  store i32 0, ptr %14, align 4, !tbaa !111
  %15 = getelementptr inbounds %"class.xercesc_2_5::IGXMLScanner", ptr %0, i64 0, i32 5, i32 2
  store i32 1023, ptr %15, align 8, !tbaa !112
  %16 = getelementptr inbounds %"class.xercesc_2_5::IGXMLScanner", ptr %0, i64 0, i32 5, i32 3
  store ptr %7, ptr %16, align 8, !tbaa !113
  %17 = getelementptr inbounds %"class.xercesc_2_5::IGXMLScanner", ptr %0, i64 0, i32 5, i32 4
  store ptr null, ptr %17, align 8, !tbaa !114
  %18 = load ptr, ptr %7, align 8, !tbaa !86
  %19 = getelementptr inbounds ptr, ptr %18, i64 2
  %20 = load ptr, ptr %19, align 8
  %21 = invoke noundef ptr %20(ptr noundef nonnull align 8 dereferenceable(8) %7, i64 noundef 2048)
          to label %22 unwind label %31

22:                                               ; preds = %8
  store ptr %21, ptr %17, align 8, !tbaa !114
  store i16 0, ptr %21, align 2, !tbaa !115
  %23 = getelementptr inbounds %"class.xercesc_2_5::IGXMLScanner", ptr %0, i64 0, i32 6
  %24 = getelementptr inbounds %"class.xercesc_2_5::IGXMLScanner", ptr %0, i64 0, i32 7
  %25 = getelementptr inbounds %"class.xercesc_2_5::IGXMLScanner", ptr %0, i64 0, i32 17
  tail call void @llvm.memset.p0.i64(ptr noundef nonnull align 8 dereferenceable(84) %23, i8 0, i64 84, i1 false)
  tail call void @llvm.memset.p0.i64(ptr noundef nonnull align 8 dereferenceable(56) %25, i8 0, i64 56, i1 false)
  invoke void @_ZN11xercesc_2_512IGXMLScanner10commonInitEv(ptr noundef nonnull align 8 dereferenceable(904) %0)
          to label %26 unwind label %33

26:                                               ; preds = %22
  %27 = icmp eq ptr %5, null
  br i1 %27, label %28, label %47

28:                                               ; preds = %26
  %29 = load ptr, ptr %24, align 8, !tbaa !117
  %30 = getelementptr inbounds %"class.xercesc_2_5::XMLScanner", ptr %0, i64 0, i32 41
  store ptr %29, ptr %30, align 8, !tbaa !118
  br label %47

31:                                               ; preds = %8
  %32 = landingpad { ptr, i32 }
          cleanup
  br label %55

33:                                               ; preds = %22
  %34 = landingpad { ptr, i32 }
          catch ptr @_ZTIN11xercesc_2_520OutOfMemoryExceptionE
          catch ptr null
  %35 = extractvalue { ptr, i32 } %34, 0
  %36 = extractvalue { ptr, i32 } %34, 1
  %37 = tail call i32 @llvm.eh.typeid.for(ptr nonnull @_ZTIN11xercesc_2_520OutOfMemoryExceptionE) #14
  %38 = icmp eq i32 %36, %37
  %39 = tail call ptr @__cxa_begin_catch(ptr %35) #14
  br i1 %38, label %40, label %41

40:                                               ; preds = %33
  invoke void @__cxa_rethrow() #16
          to label %61 unwind label %45

41:                                               ; preds = %33
  invoke void @_ZN11xercesc_2_512IGXMLScanner7cleanUpEv(ptr noundef nonnull align 8 dereferenceable(904) %0)
          to label %42 unwind label %43

42:                                               ; preds = %41
  invoke void @__cxa_rethrow() #16
          to label %61 unwind label %43

43:                                               ; preds = %42, %41
  %44 = landingpad { ptr, i32 }
          cleanup
  invoke void @__cxa_end_catch()
          to label %48 unwind label %58

45:                                               ; preds = %40
  %46 = landingpad { ptr, i32 }
          cleanup
  invoke void @__cxa_end_catch()
          to label %48 unwind label %58

47:                                               ; preds = %26, %28
  ret void

48:                                               ; preds = %45, %43
  %49 = phi { ptr, i32 } [ %44, %43 ], [ %46, %45 ]
  %50 = load ptr, ptr %16, align 8, !tbaa !113
  %51 = load ptr, ptr %17, align 8, !tbaa !114
  %52 = load ptr, ptr %50, align 8, !tbaa !86
  %53 = getelementptr inbounds ptr, ptr %52, i64 3
  %54 = load ptr, ptr %53, align 8
  invoke void %54(ptr noundef nonnull align 8 dereferenceable(8) %50, ptr noundef %51)
          to label %55 unwind label %58

55:                                               ; preds = %48, %31
  %56 = phi { ptr, i32 } [ %32, %31 ], [ %49, %48 ]
  invoke void @_ZN11xercesc_2_510XMLScannerD2Ev(ptr noundef nonnull align 8 dereferenceable(664) %0)
          to label %57 unwind label %58

57:                                               ; preds = %55
  resume { ptr, i32 } %56

58:                                               ; preds = %48, %55, %45, %43
  %59 = landingpad { ptr, i32 }
          catch ptr null
  %60 = extractvalue { ptr, i32 } %59, 0
  tail call void @__clang_call_terminate(ptr %60) #15
  unreachable

61:                                               ; preds = %40, %42
  unreachable
}

declare void @_ZN11xercesc_2_510XMLScannerC2EPNS_18XMLDocumentHandlerEPNS_14DocTypeHandlerEPNS_16XMLEntityHandlerEPNS_16XMLErrorReporterEPNS_12XMLValidatorEPNS_15GrammarResolverEPNS_13MemoryManagerE(ptr noundef nonnull align 8 dereferenceable(664), ptr noundef, ptr noundef, ptr noundef, ptr noundef, ptr noundef, ptr noundef, ptr noundef) unnamed_addr #2

; Function Attrs: uwtable
define dso_local void @_ZN11xercesc_2_512IGXMLScannerD2Ev(ptr noundef nonnull align 8 dereferenceable(904) %0) unnamed_addr #4 align 2 personality ptr @__gxx_personality_v0 {
  store ptr getelementptr inbounds ({ [17 x ptr] }, ptr @_ZTVN11xercesc_2_512IGXMLScannerE, i64 0, inrange i32 0, i64 2), ptr %0, align 8, !tbaa !86
  invoke void @_ZN11xercesc_2_512IGXMLScanner7cleanUpEv(ptr noundef nonnull align 8 dereferenceable(904) %0)
          to label %2 unwind label %11

2:                                                ; preds = %1
  %3 = getelementptr inbounds %"class.xercesc_2_5::IGXMLScanner", ptr %0, i64 0, i32 5, i32 3
  %4 = load ptr, ptr %3, align 8, !tbaa !113
  %5 = getelementptr inbounds %"class.xercesc_2_5::IGXMLScanner", ptr %0, i64 0, i32 5, i32 4
  %6 = load ptr, ptr %5, align 8, !tbaa !114
  %7 = load ptr, ptr %4, align 8, !tbaa !86
  %8 = getelementptr inbounds ptr, ptr %7, i64 3
  %9 = load ptr, ptr %8, align 8
  invoke void %9(ptr noundef nonnull align 8 dereferenceable(8) %4, ptr noundef %6)
          to label %10 unwind label %20

10:                                               ; preds = %2
  tail call void @_ZN11xercesc_2_510XMLScannerD2Ev(ptr noundef nonnull align 8 dereferenceable(664) %0)
  ret void

11:                                               ; preds = %1
  %12 = landingpad { ptr, i32 }
          cleanup
  %13 = getelementptr inbounds %"class.xercesc_2_5::IGXMLScanner", ptr %0, i64 0, i32 5, i32 3
  %14 = load ptr, ptr %13, align 8, !tbaa !113
  %15 = getelementptr inbounds %"class.xercesc_2_5::IGXMLScanner", ptr %0, i64 0, i32 5, i32 4
  %16 = load ptr, ptr %15, align 8, !tbaa !114
  %17 = load ptr, ptr %14, align 8, !tbaa !86
  %18 = getelementptr inbounds ptr, ptr %17, i64 3
  %19 = load ptr, ptr %18, align 8
  invoke void %19(ptr noundef nonnull align 8 dereferenceable(8) %14, ptr noundef %16)
          to label %22 unwind label %25

20:                                               ; preds = %2
  %21 = landingpad { ptr, i32 }
          cleanup
  br label %22

22:                                               ; preds = %11, %20
  %23 = phi { ptr, i32 } [ %21, %20 ], [ %12, %11 ]
  invoke void @_ZN11xercesc_2_510XMLScannerD2Ev(ptr noundef nonnull align 8 dereferenceable(664) %0)
          to label %24 unwind label %25

24:                                               ; preds = %22
  resume { ptr, i32 } %23

25:                                               ; preds = %11, %22
  %26 = landingpad { ptr, i32 }
          catch ptr null
  %27 = extractvalue { ptr, i32 } %26, 0
  tail call void @__clang_call_terminate(ptr %27) #15
  unreachable
}

; Function Attrs: uwtable
define dso_local void @_ZN11xercesc_2_512IGXMLScannerD0Ev(ptr noundef nonnull align 8 dereferenceable(904) %0) unnamed_addr #4 align 2 personality ptr @__gxx_personality_v0 {
  store ptr getelementptr inbounds ({ [17 x ptr] }, ptr @_ZTVN11xercesc_2_512IGXMLScannerE, i64 0, inrange i32 0, i64 2), ptr %0, align 8, !tbaa !86
  invoke void @_ZN11xercesc_2_512IGXMLScanner7cleanUpEv(ptr noundef nonnull align 8 dereferenceable(904) %0)
          to label %2 unwind label %11

2:                                                ; preds = %1
  %3 = getelementptr inbounds %"class.xercesc_2_5::IGXMLScanner", ptr %0, i64 0, i32 5, i32 3
  %4 = load ptr, ptr %3, align 8, !tbaa !113
  %5 = getelementptr inbounds %"class.xercesc_2_5::IGXMLScanner", ptr %0, i64 0, i32 5, i32 4
  %6 = load ptr, ptr %5, align 8, !tbaa !114
  %7 = load ptr, ptr %4, align 8, !tbaa !86
  %8 = getelementptr inbounds ptr, ptr %7, i64 3
  %9 = load ptr, ptr %8, align 8
  invoke void %9(ptr noundef nonnull align 8 dereferenceable(8) %4, ptr noundef %6)
          to label %10 unwind label %20

10:                                               ; preds = %2
  invoke void @_ZN11xercesc_2_510XMLScannerD2Ev(ptr noundef nonnull align 8 dereferenceable(664) %0)
          to label %27 unwind label %28

11:                                               ; preds = %1
  %12 = landingpad { ptr, i32 }
          cleanup
  %13 = getelementptr inbounds %"class.xercesc_2_5::IGXMLScanner", ptr %0, i64 0, i32 5, i32 3
  %14 = load ptr, ptr %13, align 8, !tbaa !113
  %15 = getelementptr inbounds %"class.xercesc_2_5::IGXMLScanner", ptr %0, i64 0, i32 5, i32 4
  %16 = load ptr, ptr %15, align 8, !tbaa !114
  %17 = load ptr, ptr %14, align 8, !tbaa !86
  %18 = getelementptr inbounds ptr, ptr %17, i64 3
  %19 = load ptr, ptr %18, align 8
  invoke void %19(ptr noundef nonnull align 8 dereferenceable(8) %14, ptr noundef %16)
          to label %22 unwind label %24

20:                                               ; preds = %2
  %21 = landingpad { ptr, i32 }
          cleanup
  br label %22

22:                                               ; preds = %20, %11
  %23 = phi { ptr, i32 } [ %21, %20 ], [ %12, %11 ]
  invoke void @_ZN11xercesc_2_510XMLScannerD2Ev(ptr noundef nonnull align 8 dereferenceable(664) %0)
          to label %30 unwind label %24

24:                                               ; preds = %22, %11
  %25 = landingpad { ptr, i32 }
          catch ptr null
  %26 = extractvalue { ptr, i32 } %25, 0
  tail call void @__clang_call_terminate(ptr %26) #15
  unreachable

27:                                               ; preds = %10
  tail call void @_ZN11xercesc_2_57XMemorydlEPv(ptr noundef nonnull %0)
  ret void

28:                                               ; preds = %10
  %29 = landingpad { ptr, i32 }
          cleanup
  br label %30

30:                                               ; preds = %22, %28
  %31 = phi { ptr, i32 } [ %29, %28 ], [ %23, %22 ]
  invoke void @_ZN11xercesc_2_57XMemorydlEPv(ptr noundef nonnull %0)
          to label %32 unwind label %33

32:                                               ; preds = %30
  resume { ptr, i32 } %31

33:                                               ; preds = %30
  %34 = landingpad { ptr, i32 }
          catch ptr null
  %35 = extractvalue { ptr, i32 } %34, 0
  tail call void @__clang_call_terminate(ptr %35) #15
  unreachable
}

; Function Attrs: mustprogress nofree norecurse nosync nounwind willreturn memory(read, inaccessiblemem: none) uwtable
define dso_local noundef ptr @_ZN11xercesc_2_512IGXMLScanner17getEntityDeclPoolEv(ptr nocapture noundef nonnull readonly align 8 dereferenceable(904) %0) unnamed_addr #7 align 2 {
  %2 = getelementptr inbounds %"class.xercesc_2_5::IGXMLScanner", ptr %0, i64 0, i32 9
  %3 = load ptr, ptr %2, align 8, !tbaa !199
  %4 = icmp eq ptr %3, null
  br i1 %4, label %8, label %5

5:                                                ; preds = %1
  %6 = getelementptr inbounds %"class.xercesc_2_5::DTDGrammar", ptr %3, i64 0, i32 4
  %7 = load ptr, ptr %6, align 8, !tbaa !200
  br label %8

8:                                                ; preds = %1, %5
  %9 = phi ptr [ %7, %5 ], [ null, %1 ]
  ret ptr %9
}

; Function Attrs: mustprogress nofree norecurse nosync nounwind willreturn memory(read, inaccessiblemem: none) uwtable
define dso_local noundef ptr @_ZNK11xercesc_2_512IGXMLScanner17getEntityDeclPoolEv(ptr nocapture noundef nonnull readonly align 8 dereferenceable(904) %0) unnamed_addr #7 align 2 {
  %2 = getelementptr inbounds %"class.xercesc_2_5::IGXMLScanner", ptr %0, i64 0, i32 9
  %3 = load ptr, ptr %2, align 8, !tbaa !199
  %4 = icmp eq ptr %3, null
  br i1 %4, label %8, label %5

5:                                                ; preds = %1
  %6 = getelementptr inbounds %"class.xercesc_2_5::DTDGrammar", ptr %3, i64 0, i32 4
  %7 = load ptr, ptr %6, align 8, !tbaa !200
  br label %8

8:                                                ; preds = %1, %5
  %9 = phi ptr [ %7, %5 ], [ null, %1 ]
  ret ptr %9
}

; Function Attrs: uwtable
define dso_local void @_ZN11xercesc_2_512IGXMLScanner12scanDocumentERKNS_11InputSourceE(ptr noundef nonnull align 8 dereferenceable(904) %0, ptr noundef nonnull align 8 dereferenceable(41) %1) unnamed_addr #4 align 2 personality ptr @__gxx_personality_v0 {
  %3 = getelementptr inbounds %"class.xercesc_2_5::XMLScanner", ptr %0, i64 0, i32 30
  %4 = load i32, ptr %3, align 8, !tbaa !203
  %5 = add i32 %4, 1
  store i32 %5, ptr %3, align 8, !tbaa !203
  %6 = load ptr, ptr %0, align 8, !tbaa !86
  %7 = getelementptr inbounds ptr, ptr %6, i64 13
  %8 = load ptr, ptr %7, align 8
  invoke void %8(ptr noundef nonnull align 8 dereferenceable(904) %0, ptr noundef nonnull align 8 dereferenceable(41) %1)
          to label %9 unwind label %17

9:                                                ; preds = %2
  %10 = getelementptr inbounds %"class.xercesc_2_5::XMLScanner", ptr %0, i64 0, i32 32
  %11 = load ptr, ptr %10, align 8, !tbaa !204
  %12 = icmp eq ptr %11, null
  br i1 %12, label %64, label %13

13:                                               ; preds = %9
  %14 = load ptr, ptr %11, align 8, !tbaa !86
  %15 = getelementptr inbounds ptr, ptr %14, i64 10
  %16 = load ptr, ptr %15, align 8
  invoke void %16(ptr noundef nonnull align 8 dereferenceable(8) %11)
          to label %64 unwind label %17

17:                                               ; preds = %88, %84, %80, %77, %76, %70, %69, %65, %64, %13, %2
  %18 = landingpad { ptr, i32 }
          catch ptr @_ZTIN11xercesc_2_57XMLErrs5CodesE
          catch ptr @_ZTIN11xercesc_2_58XMLValid5CodesE
          catch ptr @_ZTIN11xercesc_2_512XMLExceptionE
          catch ptr @_ZTIN11xercesc_2_520OutOfMemoryExceptionE
          catch ptr null
  %19 = extractvalue { ptr, i32 } %18, 0
  %20 = extractvalue { ptr, i32 } %18, 1
  %21 = tail call i32 @llvm.eh.typeid.for(ptr nonnull @_ZTIN11xercesc_2_57XMLErrs5CodesE) #14
  %22 = icmp eq i32 %20, %21
  br i1 %22, label %23, label %28

23:                                               ; preds = %17
  %24 = tail call ptr @__cxa_begin_catch(ptr %19) #14
  %25 = getelementptr inbounds %"class.xercesc_2_5::XMLScanner", ptr %0, i64 0, i32 40
  invoke void @_ZN11xercesc_2_59ReaderMgr5resetEv(ptr noundef nonnull align 8 dereferenceable(80) %25)
          to label %26 unwind label %126

26:                                               ; preds = %23
  tail call void @__cxa_end_catch() #14
  br label %27

27:                                               ; preds = %88, %26, %34, %119
  ret void

28:                                               ; preds = %17
  %29 = tail call i32 @llvm.eh.typeid.for(ptr nonnull @_ZTIN11xercesc_2_58XMLValid5CodesE) #14
  %30 = icmp eq i32 %20, %29
  br i1 %30, label %31, label %35

31:                                               ; preds = %28
  %32 = tail call ptr @__cxa_begin_catch(ptr %19) #14
  %33 = getelementptr inbounds %"class.xercesc_2_5::XMLScanner", ptr %0, i64 0, i32 40
  invoke void @_ZN11xercesc_2_59ReaderMgr5resetEv(ptr noundef nonnull align 8 dereferenceable(80) %33)
          to label %34 unwind label %124

34:                                               ; preds = %31
  tail call void @__cxa_end_catch() #14
  br label %27

35:                                               ; preds = %28
  %36 = tail call i32 @llvm.eh.typeid.for(ptr nonnull @_ZTIN11xercesc_2_512XMLExceptionE) #14
  %37 = icmp eq i32 %20, %36
  br i1 %37, label %38, label %56

38:                                               ; preds = %35
  %39 = tail call ptr @__cxa_begin_catch(ptr %19) #14
  %40 = getelementptr inbounds %"class.xercesc_2_5::XMLScanner", ptr %0, i64 0, i32 6
  store i8 1, ptr %40, align 1, !tbaa !205
  %41 = getelementptr inbounds %"class.xercesc_2_5::XMLException", ptr %39, i64 0, i32 1
  %42 = load i32, ptr %41, align 8, !tbaa !206
  %43 = add i32 %42, -1
  %44 = icmp ult i32 %43, 4
  br i1 %44, label %51, label %45

45:                                               ; preds = %38
  %46 = add i32 %42, -395
  %47 = icmp ult i32 %46, 2
  %48 = load ptr, ptr %39, align 8, !tbaa !86
  %49 = getelementptr inbounds ptr, ptr %48, i64 2
  %50 = load ptr, ptr %49, align 8
  br i1 %47, label %106, label %104

51:                                               ; preds = %38
  %52 = load ptr, ptr %39, align 8, !tbaa !86
  %53 = getelementptr inbounds ptr, ptr %52, i64 2
  %54 = load ptr, ptr %53, align 8
  %55 = invoke noundef ptr %54(ptr noundef nonnull align 8 dereferenceable(48) %39)
          to label %108 unwind label %93

56:                                               ; preds = %35
  %57 = tail call i32 @llvm.eh.typeid.for(ptr nonnull @_ZTIN11xercesc_2_520OutOfMemoryExceptionE) #14
  %58 = icmp eq i32 %20, %57
  %59 = tail call ptr @__cxa_begin_catch(ptr %19) #14
  br i1 %58, label %60, label %61

60:                                               ; preds = %56
  invoke void @__cxa_rethrow() #16
          to label %135 unwind label %91

61:                                               ; preds = %56
  %62 = getelementptr inbounds %"class.xercesc_2_5::XMLScanner", ptr %0, i64 0, i32 40
  invoke void @_ZN11xercesc_2_59ReaderMgr5resetEv(ptr noundef nonnull align 8 dereferenceable(80) %62)
          to label %63 unwind label %89

63:                                               ; preds = %61
  invoke void @__cxa_rethrow() #16
          to label %135 unwind label %89

64:                                               ; preds = %13, %9
  invoke void @_ZN11xercesc_2_510XMLScanner10scanPrologEv(ptr noundef nonnull align 8 dereferenceable(664) %0)
          to label %65 unwind label %17

65:                                               ; preds = %64
  %66 = getelementptr inbounds %"class.xercesc_2_5::XMLScanner", ptr %0, i64 0, i32 40
  %67 = invoke noundef zeroext i1 @_ZNK11xercesc_2_59ReaderMgr5atEOFEv(ptr noundef nonnull align 8 dereferenceable(80) %66)
          to label %68 unwind label %17

68:                                               ; preds = %65
  br i1 %67, label %69, label %70

69:                                               ; preds = %68
  invoke void @_ZN11xercesc_2_510XMLScanner9emitErrorENS_7XMLErrs5CodesE(ptr noundef nonnull align 8 dereferenceable(664) %0, i32 noundef 279)
          to label %81 unwind label %17

70:                                               ; preds = %68
  %71 = invoke noundef zeroext i1 @_ZN11xercesc_2_512IGXMLScanner11scanContentEv(ptr noundef nonnull align 8 dereferenceable(904) %0)
          to label %72 unwind label %17

72:                                               ; preds = %70
  %73 = getelementptr inbounds %"class.xercesc_2_5::XMLScanner", ptr %0, i64 0, i32 9
  %74 = load i8, ptr %73, align 8, !tbaa !209, !range !177, !noundef !178
  %75 = icmp eq i8 %74, 0
  br i1 %75, label %77, label %76

76:                                               ; preds = %72
  invoke void @_ZN11xercesc_2_510XMLScanner11checkIDRefsEv(ptr noundef nonnull align 8 dereferenceable(664) %0)
          to label %77 unwind label %17

77:                                               ; preds = %76, %72
  %78 = invoke noundef zeroext i1 @_ZNK11xercesc_2_59ReaderMgr5atEOFEv(ptr noundef nonnull align 8 dereferenceable(80) %66)
          to label %79 unwind label %17

79:                                               ; preds = %77
  br i1 %78, label %81, label %80

80:                                               ; preds = %79
  invoke void @_ZN11xercesc_2_510XMLScanner17scanMiscellaneousEv(ptr noundef nonnull align 8 dereferenceable(664) %0)
          to label %81 unwind label %17

81:                                               ; preds = %80, %79, %69
  %82 = load ptr, ptr %10, align 8, !tbaa !204
  %83 = icmp eq ptr %82, null
  br i1 %83, label %88, label %84

84:                                               ; preds = %81
  %85 = load ptr, ptr %82, align 8, !tbaa !86
  %86 = getelementptr inbounds ptr, ptr %85, i64 5
  %87 = load ptr, ptr %86, align 8
  invoke void %87(ptr noundef nonnull align 8 dereferenceable(8) %82)
          to label %88 unwind label %17

88:                                               ; preds = %84, %81
  invoke void @_ZN11xercesc_2_59ReaderMgr5resetEv(ptr noundef nonnull align 8 dereferenceable(80) %66)
          to label %27 unwind label %17

89:                                               ; preds = %63, %61
  %90 = landingpad { ptr, i32 }
          cleanup
  invoke void @__cxa_end_catch()
          to label %130 unwind label %132

91:                                               ; preds = %60
  %92 = landingpad { ptr, i32 }
          cleanup
  invoke void @__cxa_end_catch()
          to label %130 unwind label %132

93:                                               ; preds = %108, %106, %104, %51
  %94 = landingpad { ptr, i32 }
          catch ptr @_ZTIN11xercesc_2_520OutOfMemoryExceptionE
          catch ptr null
  %95 = extractvalue { ptr, i32 } %94, 0
  %96 = extractvalue { ptr, i32 } %94, 1
  %97 = tail call i32 @llvm.eh.typeid.for(ptr nonnull @_ZTIN11xercesc_2_520OutOfMemoryExceptionE) #14
  %98 = icmp eq i32 %96, %97
  %99 = tail call ptr @__cxa_begin_catch(ptr %95) #14
  br i1 %98, label %100, label %101

100:                                              ; preds = %93
  invoke void @__cxa_rethrow() #16
          to label %135 unwind label %115

101:                                              ; preds = %93
  %102 = getelementptr inbounds %"class.xercesc_2_5::XMLScanner", ptr %0, i64 0, i32 40
  invoke void @_ZN11xercesc_2_59ReaderMgr5resetEv(ptr noundef nonnull align 8 dereferenceable(80) %102)
          to label %103 unwind label %113

103:                                              ; preds = %101
  invoke void @__cxa_rethrow() #16
          to label %135 unwind label %113

104:                                              ; preds = %45
  %105 = invoke noundef ptr %50(ptr noundef nonnull align 8 dereferenceable(48) %39)
          to label %108 unwind label %93

106:                                              ; preds = %45
  %107 = invoke noundef ptr %50(ptr noundef nonnull align 8 dereferenceable(48) %39)
          to label %108 unwind label %93

108:                                              ; preds = %106, %104, %51
  %109 = phi i32 [ 7, %51 ], [ 292, %104 ], [ 157, %106 ]
  %110 = phi ptr [ %55, %51 ], [ %105, %104 ], [ %107, %106 ]
  %111 = getelementptr inbounds %"class.xercesc_2_5::XMLException", ptr %39, i64 0, i32 4
  %112 = load ptr, ptr %111, align 8, !tbaa !210
  invoke void @_ZN11xercesc_2_510XMLScanner9emitErrorENS_7XMLErrs5CodesEPKtS4_S4_S4_(ptr noundef nonnull align 8 dereferenceable(664) %0, i32 noundef %109, ptr noundef %110, ptr noundef %112, ptr noundef null, ptr noundef null)
          to label %117 unwind label %93

113:                                              ; preds = %103, %101
  %114 = landingpad { ptr, i32 }
          cleanup
  invoke void @__cxa_end_catch()
          to label %122 unwind label %132

115:                                              ; preds = %100
  %116 = landingpad { ptr, i32 }
          cleanup
  invoke void @__cxa_end_catch()
          to label %122 unwind label %132

117:                                              ; preds = %108
  %118 = getelementptr inbounds %"class.xercesc_2_5::XMLScanner", ptr %0, i64 0, i32 40
  invoke void @_ZN11xercesc_2_59ReaderMgr5resetEv(ptr noundef nonnull align 8 dereferenceable(80) %118)
          to label %119 unwind label %120

119:                                              ; preds = %117
  tail call void @__cxa_end_catch()
  br label %27

120:                                              ; preds = %117
  %121 = landingpad { ptr, i32 }
          cleanup
  br label %122

122:                                              ; preds = %115, %113, %120
  %123 = phi { ptr, i32 } [ %121, %120 ], [ %114, %113 ], [ %116, %115 ]
  invoke void @__cxa_end_catch()
          to label %130 unwind label %132

124:                                              ; preds = %31
  %125 = landingpad { ptr, i32 }
          cleanup
  br label %128

126:                                              ; preds = %23
  %127 = landingpad { ptr, i32 }
          cleanup
  br label %128

128:                                              ; preds = %124, %126
  %129 = phi { ptr, i32 } [ %125, %124 ], [ %127, %126 ]
  tail call void @__cxa_end_catch() #14
  br label %130

130:                                              ; preds = %128, %122, %91, %89
  %131 = phi { ptr, i32 } [ %90, %89 ], [ %92, %91 ], [ %123, %122 ], [ %129, %128 ]
  resume { ptr, i32 } %131

132:                                              ; preds = %122, %115, %113, %91, %89
  %133 = landingpad { ptr, i32 }
          catch ptr null
  %134 = extractvalue { ptr, i32 } %133, 0
  tail call void @__clang_call_terminate(ptr %134) #15
  unreachable

135:                                              ; preds = %100, %103, %60, %63
  unreachable
}

declare void @_ZN11xercesc_2_510XMLScanner10scanPrologEv(ptr noundef nonnull align 8 dereferenceable(664)) local_unnamed_addr #2

declare noundef zeroext i1 @_ZNK11xercesc_2_59ReaderMgr5atEOFEv(ptr noundef nonnull align 8 dereferenceable(80)) local_unnamed_addr #2

declare void @_ZN11xercesc_2_510XMLScanner9emitErrorENS_7XMLErrs5CodesE(ptr noundef nonnull align 8 dereferenceable(664), i32 noundef) local_unnamed_addr #2

; Function Attrs: uwtable
define dso_local noundef zeroext i1 @_ZN11xercesc_2_512IGXMLScanner11scanContentEv(ptr noundef nonnull align 8 dereferenceable(904) %0) local_unnamed_addr #4 align 2 personality ptr @__gxx_personality_v0 {
  %2 = alloca i8, align 1
  %3 = alloca i32, align 4
  call void @llvm.lifetime.start.p0(i64 1, ptr nonnull %2) #14
  store i8 1, ptr %2, align 1, !tbaa !211
  %4 = getelementptr inbounds %"class.xercesc_2_5::XMLScanner", ptr %0, i64 0, i32 3
  %5 = getelementptr inbounds %"class.xercesc_2_5::XMLScanner", ptr %0, i64 0, i32 61, i32 5
  %6 = getelementptr inbounds %"class.xercesc_2_5::XMLScanner", ptr %0, i64 0, i32 61
  %7 = getelementptr inbounds %"class.xercesc_2_5::XMLScanner", ptr %0, i64 0, i32 57
  %8 = getelementptr inbounds %"class.xercesc_2_5::XMLScanner", ptr %0, i64 0, i32 40
  %9 = getelementptr inbounds %"class.xercesc_2_5::XMLScanner", ptr %0, i64 0, i32 40, i32 2
  %10 = getelementptr inbounds %"class.xercesc_2_5::XMLScanner", ptr %0, i64 0, i32 32
  br label %11

11:                                               ; preds = %68, %1
  call void @llvm.lifetime.start.p0(i64 4, ptr nonnull %3) #14
  %12 = invoke noundef i32 @_ZN11xercesc_2_510XMLScanner14senseNextTokenERj(ptr noundef nonnull align 8 dereferenceable(664) %0, ptr noundef nonnull align 4 dereferenceable(4) %3)
          to label %13 unwind label %20

13:                                               ; preds = %11
  switch i32 %12, label %55 [
    i32 1, label %14
    i32 4, label %23
    i32 0, label %37
    i32 2, label %45
    i32 3, label %46
    i32 5, label %47
    i32 6, label %48
  ]

14:                                               ; preds = %13
  %15 = load ptr, ptr %0, align 8, !tbaa !86
  %16 = getelementptr inbounds ptr, ptr %15, i64 10
  %17 = load ptr, ptr %16, align 8
  invoke void %17(ptr noundef nonnull align 8 dereferenceable(904) %0, ptr noundef nonnull align 8 dereferenceable(32) %7)
          to label %65 unwind label %20

18:                                               ; preds = %55
  %19 = landingpad { ptr, i32 }
          cleanup
          catch ptr @_ZTIN11xercesc_2_520EndOfEntityExceptionE
  br label %69

20:                                               ; preds = %11, %14, %40, %41, %45, %46, %47, %51, %53, %64
  %21 = phi i1 [ false, %11 ], [ true, %40 ], [ true, %41 ], [ true, %45 ], [ true, %46 ], [ true, %47 ], [ true, %53 ], [ true, %51 ], [ true, %64 ], [ false, %14 ]
  %22 = landingpad { ptr, i32 }
          cleanup
          catch ptr @_ZTIN11xercesc_2_520EndOfEntityExceptionE
  br label %69

23:                                               ; preds = %13
  %24 = load i32, ptr %5, align 4, !tbaa !212
  %25 = icmp eq i32 %24, 0
  br i1 %25, label %36, label %26

26:                                               ; preds = %23
  %27 = invoke noundef ptr @_ZN11xercesc_2_59ElemStack6popTopEv(ptr noundef nonnull align 8 dereferenceable(104) %6)
          to label %28 unwind label %34

28:                                               ; preds = %26
  %29 = load ptr, ptr %27, align 8, !tbaa !213
  %30 = getelementptr inbounds %"class.xercesc_2_5::XMLElementDecl", ptr %29, i64 0, i32 2
  %31 = load ptr, ptr %30, align 8, !tbaa !215
  %32 = invoke noundef ptr @_ZN11xercesc_2_55QName10getRawNameEv(ptr noundef nonnull align 8 dereferenceable(64) %31)
          to label %33 unwind label %34

33:                                               ; preds = %28
  invoke void @_ZN11xercesc_2_510XMLScanner9emitErrorENS_7XMLErrs5CodesEPKtS4_S4_S4_(ptr noundef nonnull align 8 dereferenceable(664) %0, i32 noundef 274, ptr noundef %32, ptr noundef null, ptr noundef null, ptr noundef null)
          to label %36 unwind label %34

34:                                               ; preds = %28, %33, %26
  %35 = landingpad { ptr, i32 }
          cleanup
          catch ptr @_ZTIN11xercesc_2_520EndOfEntityExceptionE
  br label %69

36:                                               ; preds = %23, %33
  call void @llvm.lifetime.end.p0(i64 4, ptr nonnull %3) #14
  br label %92

37:                                               ; preds = %13
  %38 = load i32, ptr %5, align 4, !tbaa !212
  %39 = icmp eq i32 %38, 0
  br i1 %39, label %40, label %41

40:                                               ; preds = %37
  invoke void @_ZN11xercesc_2_510XMLScanner9emitErrorENS_7XMLErrs5CodesE(ptr noundef nonnull align 8 dereferenceable(664) %0, i32 noundef 280)
          to label %41 unwind label %20

41:                                               ; preds = %40, %37
  %42 = load ptr, ptr %0, align 8, !tbaa !86
  %43 = getelementptr inbounds ptr, ptr %42, i64 9
  %44 = load ptr, ptr %43, align 8
  invoke void %44(ptr noundef nonnull align 8 dereferenceable(904) %0)
          to label %58 unwind label %20

45:                                               ; preds = %13
  invoke void @_ZN11xercesc_2_510XMLScanner11scanCommentEv(ptr noundef nonnull align 8 dereferenceable(664) %0)
          to label %58 unwind label %20

46:                                               ; preds = %13
  invoke void @_ZN11xercesc_2_512IGXMLScanner10scanEndTagERb(ptr noundef nonnull align 8 dereferenceable(904) %0, ptr noundef nonnull align 1 dereferenceable(1) %2)
          to label %58 unwind label %20

47:                                               ; preds = %13
  invoke void @_ZN11xercesc_2_510XMLScanner6scanPIEv(ptr noundef nonnull align 8 dereferenceable(664) %0)
          to label %58 unwind label %20

48:                                               ; preds = %13
  %49 = load i8, ptr %4, align 2, !tbaa !218, !range !177, !noundef !178
  %50 = icmp eq i8 %49, 0
  br i1 %50, label %53, label %51

51:                                               ; preds = %48
  %52 = invoke noundef zeroext i1 @_ZN11xercesc_2_512IGXMLScanner14scanStartTagNSERb(ptr noundef nonnull align 8 dereferenceable(904) %0, ptr noundef nonnull align 1 dereferenceable(1) %2)
          to label %58 unwind label %20

53:                                               ; preds = %48
  %54 = invoke noundef zeroext i1 @_ZN11xercesc_2_512IGXMLScanner12scanStartTagERb(ptr noundef nonnull align 8 dereferenceable(904) %0, ptr noundef nonnull align 1 dereferenceable(1) %2)
          to label %58 unwind label %20

55:                                               ; preds = %13, %57
  %56 = invoke noundef zeroext i16 @_ZN11xercesc_2_59ReaderMgr11getNextCharEv(ptr noundef nonnull align 8 dereferenceable(80) %8)
          to label %57 unwind label %18

57:                                               ; preds = %55
  switch i16 %56, label %55 [
    i16 60, label %58
    i16 0, label %58
  ]

58:                                               ; preds = %57, %57, %41, %45, %46, %47, %53, %51
  %59 = load i32, ptr %3, align 4, !tbaa !219
  %60 = load ptr, ptr %9, align 8, !tbaa !220
  %61 = getelementptr inbounds %"class.xercesc_2_5::XMLReader", ptr %60, i64 0, i32 14
  %62 = load i32, ptr %61, align 8, !tbaa !221
  %63 = icmp eq i32 %59, %62
  br i1 %63, label %65, label %64

64:                                               ; preds = %58
  invoke void @_ZN11xercesc_2_510XMLScanner9emitErrorENS_7XMLErrs5CodesE(ptr noundef nonnull align 8 dereferenceable(664) %0, i32 noundef 231)
          to label %65 unwind label %20

65:                                               ; preds = %58, %64, %14
  %66 = load i8, ptr %2, align 1, !tbaa !211
  call void @llvm.lifetime.end.p0(i64 4, ptr nonnull %3) #14
  %67 = icmp eq i8 %66, 0
  br i1 %67, label %92, label %68

68:                                               ; preds = %65, %89
  br label %11, !llvm.loop !228

69:                                               ; preds = %18, %20, %34
  %70 = phi { ptr, i32 } [ %35, %34 ], [ %19, %18 ], [ %22, %20 ]
  %71 = phi i1 [ false, %34 ], [ true, %18 ], [ %21, %20 ]
  %72 = extractvalue { ptr, i32 } %70, 1
  call void @llvm.lifetime.end.p0(i64 4, ptr nonnull %3) #14
  %73 = call i32 @llvm.eh.typeid.for(ptr nonnull @_ZTIN11xercesc_2_520EndOfEntityExceptionE) #14
  %74 = icmp eq i32 %72, %73
  br i1 %74, label %75, label %93

75:                                               ; preds = %69
  %76 = extractvalue { ptr, i32 } %70, 0
  %77 = call ptr @__cxa_begin_catch(ptr %76) #14
  br i1 %71, label %78, label %81

78:                                               ; preds = %75
  invoke void @_ZN11xercesc_2_510XMLScanner9emitErrorENS_7XMLErrs5CodesE(ptr noundef nonnull align 8 dereferenceable(664) %0, i32 noundef 231)
          to label %81 unwind label %79

79:                                               ; preds = %84, %78
  %80 = landingpad { ptr, i32 }
          cleanup
  invoke void @__cxa_end_catch()
          to label %93 unwind label %95

81:                                               ; preds = %78, %75
  %82 = load ptr, ptr %10, align 8, !tbaa !204
  %83 = icmp eq ptr %82, null
  br i1 %83, label %89, label %84

84:                                               ; preds = %81
  %85 = load ptr, ptr %77, align 8, !tbaa !230
  %86 = load ptr, ptr %82, align 8, !tbaa !86
  %87 = getelementptr inbounds ptr, ptr %86, i64 7
  %88 = load ptr, ptr %87, align 8
  invoke void %88(ptr noundef nonnull align 8 dereferenceable(8) %82, ptr noundef nonnull align 8 dereferenceable(72) %85)
          to label %89 unwind label %79

89:                                               ; preds = %81, %84
  call void @__cxa_end_catch()
  %90 = load i8, ptr %2, align 1, !tbaa !211
  %91 = icmp eq i8 %90, 0
  br i1 %91, label %92, label %68

92:                                               ; preds = %89, %65, %36
  call void @llvm.lifetime.end.p0(i64 1, ptr nonnull %2) #14
  ret i1 true

93:                                               ; preds = %69, %79
  %94 = phi { ptr, i32 } [ %80, %79 ], [ %70, %69 ]
  call void @llvm.lifetime.end.p0(i64 1, ptr nonnull %2) #14
  resume { ptr, i32 } %94

95:                                               ; preds = %79
  %96 = landingpad { ptr, i32 }
          catch ptr null
  %97 = extractvalue { ptr, i32 } %96, 0
  call void @__clang_call_terminate(ptr %97) #15
  unreachable
}

declare void @_ZN11xercesc_2_510XMLScanner11checkIDRefsEv(ptr noundef nonnull align 8 dereferenceable(664)) local_unnamed_addr #2

declare void @_ZN11xercesc_2_510XMLScanner17scanMiscellaneousEv(ptr noundef nonnull align 8 dereferenceable(664)) local_unnamed_addr #2

declare void @_ZN11xercesc_2_59ReaderMgr5resetEv(ptr noundef nonnull align 8 dereferenceable(80)) local_unnamed_addr #2

declare void @_ZN11xercesc_2_510XMLScanner9emitErrorENS_7XMLErrs5CodesEPKtS4_S4_S4_(ptr noundef nonnull align 8 dereferenceable(664), i32 noundef, ptr noundef, ptr noundef, ptr noundef, ptr noundef) local_unnamed_addr #2

; Function Attrs: uwtable
define dso_local noundef zeroext i1 @_ZN11xercesc_2_512IGXMLScanner8scanNextERNS_13XMLPScanTokenE(ptr noundef nonnull align 8 dereferenceable(904) %0, ptr noundef nonnull align 4 dereferenceable(8) %1) unnamed_addr #4 align 2 personality ptr @__gxx_personality_v0 {
  %3 = alloca i32, align 4
  %4 = alloca i8, align 1
  %5 = tail call noundef zeroext i1 @_ZN11xercesc_2_510XMLScanner12isLegalTokenERKNS_13XMLPScanTokenE(ptr noundef nonnull align 8 dereferenceable(664) %0, ptr noundef nonnull align 4 dereferenceable(8) %1)
  br i1 %5, label %13, label %6

6:                                                ; preds = %2
  %7 = tail call ptr @__cxa_allocate_exception(i64 48) #14
  %8 = getelementptr inbounds %"class.xercesc_2_5::XMLScanner", ptr %0, i64 0, i32 53
  %9 = load ptr, ptr %8, align 8, !tbaa !119
  invoke void @_ZN11xercesc_2_516RuntimeExceptionC2EPKcjNS_10XMLExcepts5CodesEPNS_13MemoryManagerE(ptr noundef nonnull align 8 dereferenceable(48) %7, ptr noundef nonnull @.str, i32 noundef 355, i32 noundef 76, ptr noundef %9)
          to label %10 unwind label %11

10:                                               ; preds = %6
  tail call void @__cxa_throw(ptr nonnull %7, ptr nonnull @_ZTIN11xercesc_2_516RuntimeExceptionE, ptr nonnull @_ZN11xercesc_2_512XMLExceptionD2Ev) #16
  unreachable

11:                                               ; preds = %6
  %12 = landingpad { ptr, i32 }
          cleanup
  tail call void @__cxa_free_exception(ptr %7) #14
  br label %219

13:                                               ; preds = %2
  call void @llvm.lifetime.start.p0(i64 4, ptr nonnull %3) #14
  %14 = getelementptr inbounds %"class.xercesc_2_5::XMLScanner", ptr %0, i64 0, i32 32
  br label %15

15:                                               ; preds = %35, %13
  %16 = invoke noundef i32 @_ZN11xercesc_2_510XMLScanner14senseNextTokenERj(ptr noundef nonnull align 8 dereferenceable(664) %0, ptr noundef nonnull align 4 dereferenceable(4) %3)
          to label %17 unwind label %18

17:                                               ; preds = %15
  switch i32 %16, label %68 [
    i32 1, label %42
    i32 4, label %51
  ]

18:                                               ; preds = %15
  %19 = landingpad { ptr, i32 }
          catch ptr @_ZTIN11xercesc_2_520EndOfEntityExceptionE
          catch ptr @_ZTIN11xercesc_2_57XMLErrs5CodesE
          catch ptr @_ZTIN11xercesc_2_58XMLValid5CodesE
          catch ptr @_ZTIN11xercesc_2_512XMLExceptionE
          catch ptr @_ZTIN11xercesc_2_520OutOfMemoryExceptionE
          catch ptr null
  %20 = extractvalue { ptr, i32 } %19, 0
  %21 = extractvalue { ptr, i32 } %19, 1
  %22 = call i32 @llvm.eh.typeid.for(ptr nonnull @_ZTIN11xercesc_2_520EndOfEntityExceptionE) #14
  %23 = icmp eq i32 %21, %22
  br i1 %23, label %24, label %82

24:                                               ; preds = %18
  %25 = call ptr @__cxa_begin_catch(ptr %20) #14
  %26 = load ptr, ptr %14, align 8, !tbaa !204
  %27 = icmp eq ptr %26, null
  br i1 %27, label %35, label %28

28:                                               ; preds = %24
  %29 = load ptr, ptr %25, align 8, !tbaa !230
  %30 = load ptr, ptr %26, align 8, !tbaa !86
  %31 = getelementptr inbounds ptr, ptr %30, i64 7
  %32 = load ptr, ptr %31, align 8
  invoke void %32(ptr noundef nonnull align 8 dereferenceable(8) %26, ptr noundef nonnull align 8 dereferenceable(72) %29)
          to label %35 unwind label %33

33:                                               ; preds = %28
  %34 = landingpad { ptr, i32 }
          catch ptr @_ZTIN11xercesc_2_57XMLErrs5CodesE
          catch ptr @_ZTIN11xercesc_2_58XMLValid5CodesE
          catch ptr @_ZTIN11xercesc_2_512XMLExceptionE
          catch ptr @_ZTIN11xercesc_2_520OutOfMemoryExceptionE
          catch ptr null
  invoke void @__cxa_end_catch()
          to label %38 unwind label %221

35:                                               ; preds = %28, %24
  invoke void @__cxa_end_catch()
          to label %15 unwind label %36

36:                                               ; preds = %35
  %37 = landingpad { ptr, i32 }
          catch ptr @_ZTIN11xercesc_2_57XMLErrs5CodesE
          catch ptr @_ZTIN11xercesc_2_58XMLValid5CodesE
          catch ptr @_ZTIN11xercesc_2_512XMLExceptionE
          catch ptr @_ZTIN11xercesc_2_520OutOfMemoryExceptionE
          catch ptr null
  br label %38

38:                                               ; preds = %33, %36
  %39 = phi { ptr, i32 } [ %37, %36 ], [ %34, %33 ]
  %40 = extractvalue { ptr, i32 } %39, 0
  %41 = extractvalue { ptr, i32 } %39, 1
  br label %82

42:                                               ; preds = %17
  %43 = getelementptr inbounds %"class.xercesc_2_5::XMLScanner", ptr %0, i64 0, i32 57
  %44 = load ptr, ptr %0, align 8, !tbaa !86
  %45 = getelementptr inbounds ptr, ptr %44, i64 10
  %46 = load ptr, ptr %45, align 8
  invoke void %46(ptr noundef nonnull align 8 dereferenceable(904) %0, ptr noundef nonnull align 8 dereferenceable(32) %43)
          to label %213 unwind label %47

47:                                               ; preds = %42
  %48 = landingpad { ptr, i32 }
          catch ptr @_ZTIN11xercesc_2_57XMLErrs5CodesE
          catch ptr @_ZTIN11xercesc_2_58XMLValid5CodesE
          catch ptr @_ZTIN11xercesc_2_512XMLExceptionE
          catch ptr @_ZTIN11xercesc_2_520OutOfMemoryExceptionE
          catch ptr null
  %49 = extractvalue { ptr, i32 } %48, 0
  %50 = extractvalue { ptr, i32 } %48, 1
  br label %82

51:                                               ; preds = %17
  %52 = getelementptr inbounds %"class.xercesc_2_5::XMLScanner", ptr %0, i64 0, i32 61, i32 5
  %53 = load i32, ptr %52, align 4, !tbaa !212
  %54 = icmp eq i32 %53, 0
  br i1 %54, label %211, label %55

55:                                               ; preds = %51
  %56 = getelementptr inbounds %"class.xercesc_2_5::XMLScanner", ptr %0, i64 0, i32 61
  %57 = invoke noundef ptr @_ZN11xercesc_2_59ElemStack6popTopEv(ptr noundef nonnull align 8 dereferenceable(104) %56)
          to label %58 unwind label %64

58:                                               ; preds = %55
  %59 = load ptr, ptr %57, align 8, !tbaa !213
  %60 = getelementptr inbounds %"class.xercesc_2_5::XMLElementDecl", ptr %59, i64 0, i32 2
  %61 = load ptr, ptr %60, align 8, !tbaa !215
  %62 = invoke noundef ptr @_ZN11xercesc_2_55QName10getRawNameEv(ptr noundef nonnull align 8 dereferenceable(64) %61)
          to label %63 unwind label %64

63:                                               ; preds = %58
  invoke void @_ZN11xercesc_2_510XMLScanner9emitErrorENS_7XMLErrs5CodesEPKtS4_S4_S4_(ptr noundef nonnull align 8 dereferenceable(664) %0, i32 noundef 274, ptr noundef %62, ptr noundef null, ptr noundef null, ptr noundef null)
          to label %211 unwind label %64

64:                                               ; preds = %58, %63, %55
  %65 = landingpad { ptr, i32 }
          catch ptr @_ZTIN11xercesc_2_57XMLErrs5CodesE
          catch ptr @_ZTIN11xercesc_2_58XMLValid5CodesE
          catch ptr @_ZTIN11xercesc_2_512XMLExceptionE
          catch ptr @_ZTIN11xercesc_2_520OutOfMemoryExceptionE
          catch ptr null
  %66 = extractvalue { ptr, i32 } %65, 0
  %67 = extractvalue { ptr, i32 } %65, 1
  br label %82

68:                                               ; preds = %17
  call void @llvm.lifetime.start.p0(i64 1, ptr nonnull %4) #14
  store i8 1, ptr %4, align 1, !tbaa !211
  switch i32 %16, label %142 [
    i32 0, label %69
    i32 2, label %131
    i32 3, label %132
    i32 5, label %133
    i32 6, label %134
  ]

69:                                               ; preds = %68
  %70 = getelementptr inbounds %"class.xercesc_2_5::XMLScanner", ptr %0, i64 0, i32 61, i32 5
  %71 = load i32, ptr %70, align 4, !tbaa !212
  %72 = icmp eq i32 %71, 0
  br i1 %72, label %73, label %127

73:                                               ; preds = %69
  invoke void @_ZN11xercesc_2_510XMLScanner9emitErrorENS_7XMLErrs5CodesE(ptr noundef nonnull align 8 dereferenceable(664) %0, i32 noundef 280)
          to label %127 unwind label %76

74:                                               ; preds = %144
  %75 = landingpad { ptr, i32 }
          catch ptr @_ZTIN11xercesc_2_57XMLErrs5CodesE
          catch ptr @_ZTIN11xercesc_2_58XMLValid5CodesE
          catch ptr @_ZTIN11xercesc_2_512XMLExceptionE
          catch ptr @_ZTIN11xercesc_2_520OutOfMemoryExceptionE
          catch ptr null
  br label %78

76:                                               ; preds = %73, %127, %131, %132, %133, %138, %140, %154, %162, %163, %167
  %77 = landingpad { ptr, i32 }
          catch ptr @_ZTIN11xercesc_2_57XMLErrs5CodesE
          catch ptr @_ZTIN11xercesc_2_58XMLValid5CodesE
          catch ptr @_ZTIN11xercesc_2_512XMLExceptionE
          catch ptr @_ZTIN11xercesc_2_520OutOfMemoryExceptionE
          catch ptr null
  br label %78

78:                                               ; preds = %76, %74
  %79 = phi { ptr, i32 } [ %75, %74 ], [ %77, %76 ]
  %80 = extractvalue { ptr, i32 } %79, 0
  %81 = extractvalue { ptr, i32 } %79, 1
  call void @llvm.lifetime.end.p0(i64 1, ptr nonnull %4) #14
  br label %82

82:                                               ; preds = %18, %78, %64, %47, %38
  %83 = phi i32 [ %50, %47 ], [ %67, %64 ], [ %81, %78 ], [ %41, %38 ], [ %21, %18 ]
  %84 = phi ptr [ %49, %47 ], [ %66, %64 ], [ %80, %78 ], [ %40, %38 ], [ %20, %18 ]
  %85 = call i32 @llvm.eh.typeid.for(ptr nonnull @_ZTIN11xercesc_2_57XMLErrs5CodesE) #14
  %86 = icmp eq i32 %83, %85
  br i1 %86, label %87, label %91

87:                                               ; preds = %82
  %88 = call ptr @__cxa_begin_catch(ptr %84) #14
  %89 = getelementptr inbounds %"class.xercesc_2_5::XMLScanner", ptr %0, i64 0, i32 40
  invoke void @_ZN11xercesc_2_59ReaderMgr5resetEv(ptr noundef nonnull align 8 dereferenceable(80) %89)
          to label %90 unwind label %209

90:                                               ; preds = %87
  call void @__cxa_end_catch() #14
  br label %213

91:                                               ; preds = %82
  %92 = call i32 @llvm.eh.typeid.for(ptr nonnull @_ZTIN11xercesc_2_58XMLValid5CodesE) #14
  %93 = icmp eq i32 %83, %92
  br i1 %93, label %94, label %98

94:                                               ; preds = %91
  %95 = call ptr @__cxa_begin_catch(ptr %84) #14
  %96 = getelementptr inbounds %"class.xercesc_2_5::XMLScanner", ptr %0, i64 0, i32 40
  invoke void @_ZN11xercesc_2_59ReaderMgr5resetEv(ptr noundef nonnull align 8 dereferenceable(80) %96)
          to label %97 unwind label %207

97:                                               ; preds = %94
  call void @__cxa_end_catch() #14
  br label %213

98:                                               ; preds = %91
  %99 = call i32 @llvm.eh.typeid.for(ptr nonnull @_ZTIN11xercesc_2_512XMLExceptionE) #14
  %100 = icmp eq i32 %83, %99
  br i1 %100, label %101, label %119

101:                                              ; preds = %98
  %102 = call ptr @__cxa_begin_catch(ptr %84) #14
  %103 = getelementptr inbounds %"class.xercesc_2_5::XMLScanner", ptr %0, i64 0, i32 6
  store i8 1, ptr %103, align 1, !tbaa !205
  %104 = getelementptr inbounds %"class.xercesc_2_5::XMLException", ptr %102, i64 0, i32 1
  %105 = load i32, ptr %104, align 8, !tbaa !206
  %106 = add i32 %105, -1
  %107 = icmp ult i32 %106, 4
  br i1 %107, label %114, label %108

108:                                              ; preds = %101
  %109 = add i32 %105, -395
  %110 = icmp ult i32 %109, 2
  %111 = load ptr, ptr %102, align 8, !tbaa !86
  %112 = getelementptr inbounds ptr, ptr %111, i64 2
  %113 = load ptr, ptr %112, align 8
  br i1 %110, label %189, label %187

114:                                              ; preds = %101
  %115 = load ptr, ptr %102, align 8, !tbaa !86
  %116 = getelementptr inbounds ptr, ptr %115, i64 2
  %117 = load ptr, ptr %116, align 8
  %118 = invoke noundef ptr %117(ptr noundef nonnull align 8 dereferenceable(48) %102)
          to label %191 unwind label %176

119:                                              ; preds = %98
  %120 = call i32 @llvm.eh.typeid.for(ptr nonnull @_ZTIN11xercesc_2_520OutOfMemoryExceptionE) #14
  %121 = icmp eq i32 %83, %120
  %122 = call ptr @__cxa_begin_catch(ptr %84) #14
  br i1 %121, label %123, label %124

123:                                              ; preds = %119
  invoke void @__cxa_rethrow() #16
          to label %224 unwind label %174

124:                                              ; preds = %119
  %125 = getelementptr inbounds %"class.xercesc_2_5::XMLScanner", ptr %0, i64 0, i32 40
  invoke void @_ZN11xercesc_2_59ReaderMgr5resetEv(ptr noundef nonnull align 8 dereferenceable(80) %125)
          to label %126 unwind label %172

126:                                              ; preds = %124
  invoke void @__cxa_rethrow() #16
          to label %224 unwind label %172

127:                                              ; preds = %73, %69
  %128 = load ptr, ptr %0, align 8, !tbaa !86
  %129 = getelementptr inbounds ptr, ptr %128, i64 9
  %130 = load ptr, ptr %129, align 8
  invoke void %130(ptr noundef nonnull align 8 dereferenceable(904) %0)
          to label %147 unwind label %76

131:                                              ; preds = %68
  invoke void @_ZN11xercesc_2_510XMLScanner11scanCommentEv(ptr noundef nonnull align 8 dereferenceable(664) %0)
          to label %147 unwind label %76

132:                                              ; preds = %68
  invoke void @_ZN11xercesc_2_512IGXMLScanner10scanEndTagERb(ptr noundef nonnull align 8 dereferenceable(904) %0, ptr noundef nonnull align 1 dereferenceable(1) %4)
          to label %147 unwind label %76

133:                                              ; preds = %68
  invoke void @_ZN11xercesc_2_510XMLScanner6scanPIEv(ptr noundef nonnull align 8 dereferenceable(664) %0)
          to label %147 unwind label %76

134:                                              ; preds = %68
  %135 = getelementptr inbounds %"class.xercesc_2_5::XMLScanner", ptr %0, i64 0, i32 3
  %136 = load i8, ptr %135, align 2, !tbaa !218, !range !177, !noundef !178
  %137 = icmp eq i8 %136, 0
  br i1 %137, label %140, label %138

138:                                              ; preds = %134
  %139 = invoke noundef zeroext i1 @_ZN11xercesc_2_512IGXMLScanner14scanStartTagNSERb(ptr noundef nonnull align 8 dereferenceable(904) %0, ptr noundef nonnull align 1 dereferenceable(1) %4)
          to label %147 unwind label %76

140:                                              ; preds = %134
  %141 = invoke noundef zeroext i1 @_ZN11xercesc_2_512IGXMLScanner12scanStartTagERb(ptr noundef nonnull align 8 dereferenceable(904) %0, ptr noundef nonnull align 1 dereferenceable(1) %4)
          to label %147 unwind label %76

142:                                              ; preds = %68
  %143 = getelementptr inbounds %"class.xercesc_2_5::XMLScanner", ptr %0, i64 0, i32 40
  br label %144

144:                                              ; preds = %146, %142
  %145 = invoke noundef zeroext i16 @_ZN11xercesc_2_59ReaderMgr11getNextCharEv(ptr noundef nonnull align 8 dereferenceable(80) %143)
          to label %146 unwind label %74

146:                                              ; preds = %144
  switch i16 %145, label %144 [
    i16 60, label %147
    i16 0, label %147
  ]

147:                                              ; preds = %146, %146, %127, %131, %132, %133, %140, %138
  %148 = load i32, ptr %3, align 4, !tbaa !219
  %149 = getelementptr inbounds %"class.xercesc_2_5::XMLScanner", ptr %0, i64 0, i32 40, i32 2
  %150 = load ptr, ptr %149, align 8, !tbaa !220
  %151 = getelementptr inbounds %"class.xercesc_2_5::XMLReader", ptr %150, i64 0, i32 14
  %152 = load i32, ptr %151, align 8, !tbaa !221
  %153 = icmp eq i32 %148, %152
  br i1 %153, label %155, label %154

154:                                              ; preds = %147
  invoke void @_ZN11xercesc_2_510XMLScanner9emitErrorENS_7XMLErrs5CodesE(ptr noundef nonnull align 8 dereferenceable(664) %0, i32 noundef 231)
          to label %155 unwind label %76

155:                                              ; preds = %154, %147
  %156 = load i8, ptr %4, align 1, !tbaa !211, !range !177, !noundef !178
  %157 = icmp eq i8 %156, 0
  br i1 %157, label %158, label %171

158:                                              ; preds = %155
  %159 = getelementptr inbounds %"class.xercesc_2_5::XMLScanner", ptr %0, i64 0, i32 9
  %160 = load i8, ptr %159, align 8, !tbaa !209, !range !177, !noundef !178
  %161 = icmp eq i8 %160, 0
  br i1 %161, label %163, label %162

162:                                              ; preds = %158
  invoke void @_ZN11xercesc_2_510XMLScanner11checkIDRefsEv(ptr noundef nonnull align 8 dereferenceable(664) %0)
          to label %163 unwind label %76

163:                                              ; preds = %162, %158
  invoke void @_ZN11xercesc_2_510XMLScanner17scanMiscellaneousEv(ptr noundef nonnull align 8 dereferenceable(664) %0)
          to label %164 unwind label %76

164:                                              ; preds = %163
  %165 = load ptr, ptr %14, align 8, !tbaa !204
  %166 = icmp eq ptr %165, null
  br i1 %166, label %171, label %167

167:                                              ; preds = %164
  %168 = load ptr, ptr %165, align 8, !tbaa !86
  %169 = getelementptr inbounds ptr, ptr %168, i64 5
  %170 = load ptr, ptr %169, align 8
  invoke void %170(ptr noundef nonnull align 8 dereferenceable(8) %165)
          to label %171 unwind label %76

171:                                              ; preds = %164, %167, %155
  call void @llvm.lifetime.end.p0(i64 1, ptr nonnull %4) #14
  br label %213

172:                                              ; preds = %126, %124
  %173 = landingpad { ptr, i32 }
          cleanup
  invoke void @__cxa_end_catch()
          to label %217 unwind label %221

174:                                              ; preds = %123
  %175 = landingpad { ptr, i32 }
          cleanup
  invoke void @__cxa_end_catch()
          to label %217 unwind label %221

176:                                              ; preds = %191, %189, %187, %114
  %177 = landingpad { ptr, i32 }
          catch ptr @_ZTIN11xercesc_2_520OutOfMemoryExceptionE
          catch ptr null
  %178 = extractvalue { ptr, i32 } %177, 0
  %179 = extractvalue { ptr, i32 } %177, 1
  %180 = call i32 @llvm.eh.typeid.for(ptr nonnull @_ZTIN11xercesc_2_520OutOfMemoryExceptionE) #14
  %181 = icmp eq i32 %179, %180
  %182 = call ptr @__cxa_begin_catch(ptr %178) #14
  br i1 %181, label %183, label %184

183:                                              ; preds = %176
  invoke void @__cxa_rethrow() #16
          to label %224 unwind label %198

184:                                              ; preds = %176
  %185 = getelementptr inbounds %"class.xercesc_2_5::XMLScanner", ptr %0, i64 0, i32 40
  invoke void @_ZN11xercesc_2_59ReaderMgr5resetEv(ptr noundef nonnull align 8 dereferenceable(80) %185)
          to label %186 unwind label %196

186:                                              ; preds = %184
  invoke void @__cxa_rethrow() #16
          to label %224 unwind label %196

187:                                              ; preds = %108
  %188 = invoke noundef ptr %113(ptr noundef nonnull align 8 dereferenceable(48) %102)
          to label %191 unwind label %176

189:                                              ; preds = %108
  %190 = invoke noundef ptr %113(ptr noundef nonnull align 8 dereferenceable(48) %102)
          to label %191 unwind label %176

191:                                              ; preds = %189, %187, %114
  %192 = phi i32 [ 7, %114 ], [ 292, %187 ], [ 157, %189 ]
  %193 = phi ptr [ %118, %114 ], [ %188, %187 ], [ %190, %189 ]
  %194 = getelementptr inbounds %"class.xercesc_2_5::XMLException", ptr %102, i64 0, i32 4
  %195 = load ptr, ptr %194, align 8, !tbaa !210
  invoke void @_ZN11xercesc_2_510XMLScanner9emitErrorENS_7XMLErrs5CodesEPKtS4_S4_S4_(ptr noundef nonnull align 8 dereferenceable(664) %0, i32 noundef %192, ptr noundef %193, ptr noundef %195, ptr noundef null, ptr noundef null)
          to label %200 unwind label %176

196:                                              ; preds = %186, %184
  %197 = landingpad { ptr, i32 }
          cleanup
  invoke void @__cxa_end_catch()
          to label %205 unwind label %221

198:                                              ; preds = %183
  %199 = landingpad { ptr, i32 }
          cleanup
  invoke void @__cxa_end_catch()
          to label %205 unwind label %221

200:                                              ; preds = %191
  %201 = getelementptr inbounds %"class.xercesc_2_5::XMLScanner", ptr %0, i64 0, i32 40
  invoke void @_ZN11xercesc_2_59ReaderMgr5resetEv(ptr noundef nonnull align 8 dereferenceable(80) %201)
          to label %202 unwind label %203

202:                                              ; preds = %200
  call void @__cxa_end_catch()
  br label %213

203:                                              ; preds = %200
  %204 = landingpad { ptr, i32 }
          cleanup
  br label %205

205:                                              ; preds = %198, %196, %203
  %206 = phi { ptr, i32 } [ %204, %203 ], [ %197, %196 ], [ %199, %198 ]
  invoke void @__cxa_end_catch()
          to label %217 unwind label %221

207:                                              ; preds = %94
  %208 = landingpad { ptr, i32 }
          cleanup
  br label %215

209:                                              ; preds = %87
  %210 = landingpad { ptr, i32 }
          cleanup
  br label %215

211:                                              ; preds = %63, %51
  %212 = getelementptr inbounds %"class.xercesc_2_5::XMLScanner", ptr %0, i64 0, i32 40
  call void @_ZN11xercesc_2_59ReaderMgr5resetEv(ptr noundef nonnull align 8 dereferenceable(80) %212)
  br label %213

213:                                              ; preds = %171, %42, %211, %90, %97, %202
  %214 = phi i1 [ false, %90 ], [ false, %97 ], [ false, %202 ], [ false, %211 ], [ true, %42 ], [ true, %171 ]
  call void @llvm.lifetime.end.p0(i64 4, ptr nonnull %3) #14
  ret i1 %214

215:                                              ; preds = %207, %209
  %216 = phi { ptr, i32 } [ %208, %207 ], [ %210, %209 ]
  call void @__cxa_end_catch() #14
  br label %217

217:                                              ; preds = %215, %205, %174, %172
  %218 = phi { ptr, i32 } [ %173, %172 ], [ %175, %174 ], [ %206, %205 ], [ %216, %215 ]
  call void @llvm.lifetime.end.p0(i64 4, ptr nonnull %3) #14
  br label %219

219:                                              ; preds = %217, %11
  %220 = phi { ptr, i32 } [ %218, %217 ], [ %12, %11 ]
  resume { ptr, i32 } %220

221:                                              ; preds = %205, %198, %196, %174, %172, %33
  %222 = landingpad { ptr, i32 }
          catch ptr null
  %223 = extractvalue { ptr, i32 } %222, 0
  call void @__clang_call_terminate(ptr %223) #15
  unreachable

224:                                              ; preds = %183, %186, %123, %126
  unreachable
}

declare noundef zeroext i1 @_ZN11xercesc_2_510XMLScanner12isLegalTokenERKNS_13XMLPScanTokenE(ptr noundef nonnull align 8 dereferenceable(664), ptr noundef nonnull align 4 dereferenceable(8)) local_unnamed_addr #2

declare ptr @__cxa_allocate_exception(i64) local_unnamed_addr

; Function Attrs: uwtable
define linkonce_odr dso_local void @_ZN11xercesc_2_516RuntimeExceptionC2EPKcjNS_10XMLExcepts5CodesEPNS_13MemoryManagerE(ptr noundef nonnull align 8 dereferenceable(48) %0, ptr noundef %1, i32 noundef %2, i32 noundef %3, ptr noundef %4) unnamed_addr #4 comdat align 2 personality ptr @__gxx_personality_v0 {
  tail call void @_ZN11xercesc_2_512XMLExceptionC2EPKcjPNS_13MemoryManagerE(ptr noundef nonnull align 8 dereferenceable(48) %0, ptr noundef %1, i32 noundef %2, ptr noundef %4)
  store ptr getelementptr inbounds ({ [6 x ptr] }, ptr @_ZTVN11xercesc_2_516RuntimeExceptionE, i64 0, inrange i32 0, i64 2), ptr %0, align 8, !tbaa !86
  invoke void @_ZN11xercesc_2_512XMLException14loadExceptTextENS_10XMLExcepts5CodesE(ptr noundef nonnull align 8 dereferenceable(48) %0, i32 noundef %3)
          to label %6 unwind label %7

6:                                                ; preds = %5
  ret void

7:                                                ; preds = %5
  %8 = landingpad { ptr, i32 }
          cleanup
  invoke void @_ZN11xercesc_2_512XMLExceptionD2Ev(ptr noundef nonnull align 8 dereferenceable(48) %0)
          to label %9 unwind label %10

9:                                                ; preds = %7
  resume { ptr, i32 } %8

10:                                               ; preds = %7
  %11 = landingpad { ptr, i32 }
          catch ptr null
  %12 = extractvalue { ptr, i32 } %11, 0
  tail call void @__clang_call_terminate(ptr %12) #15
  unreachable
}

declare void @__cxa_free_exception(ptr) local_unnamed_addr

declare void @__cxa_throw(ptr, ptr, ptr) local_unnamed_addr

declare noundef i32 @_ZN11xercesc_2_510XMLScanner14senseNextTokenERj(ptr noundef nonnull align 8 dereferenceable(664), ptr noundef nonnull align 4 dereferenceable(4)) local_unnamed_addr #2

declare noundef ptr @_ZN11xercesc_2_59ElemStack6popTopEv(ptr noundef nonnull align 8 dereferenceable(104)) local_unnamed_addr #2

declare void @_ZN11xercesc_2_510XMLScanner11scanCommentEv(ptr noundef nonnull align 8 dereferenceable(664)) local_unnamed_addr #2

; Function Attrs: uwtable
define dso_local void @_ZN11xercesc_2_512IGXMLScanner10scanEndTagERb(ptr noundef nonnull align 8 dereferenceable(904) %0, ptr nocapture noundef nonnull writeonly align 1 dereferenceable(1) %1) local_unnamed_addr #4 align 2 personality ptr @__gxx_personality_v0 {
  %3 = alloca i32, align 4
  %4 = alloca i32, align 4
  store i8 1, ptr %1, align 1, !tbaa !211
  %5 = getelementptr inbounds %"class.xercesc_2_5::XMLScanner", ptr %0, i64 0, i32 61
  %6 = getelementptr inbounds %"class.xercesc_2_5::XMLScanner", ptr %0, i64 0, i32 61, i32 5
  %7 = load i32, ptr %6, align 4, !tbaa !212
  %8 = icmp eq i32 %7, 0
  br i1 %8, label %9, label %20

9:                                                ; preds = %2
  tail call void @_ZN11xercesc_2_510XMLScanner9emitErrorENS_7XMLErrs5CodesE(ptr noundef nonnull align 8 dereferenceable(664) %0, i32 noundef 245)
  %10 = getelementptr inbounds %"class.xercesc_2_5::XMLScanner", ptr %0, i64 0, i32 40
  br label %11

11:                                               ; preds = %11, %9
  %12 = tail call noundef zeroext i16 @_ZN11xercesc_2_59ReaderMgr11getNextCharEv(ptr noundef nonnull align 8 dereferenceable(80) %10)
  switch i16 %12, label %11 [
    i16 62, label %13
    i16 0, label %13
  ]

13:                                               ; preds = %11, %11
  %14 = tail call ptr @__cxa_allocate_exception(i64 48) #14
  %15 = getelementptr inbounds %"class.xercesc_2_5::XMLScanner", ptr %0, i64 0, i32 53
  %16 = load ptr, ptr %15, align 8, !tbaa !119
  invoke void @_ZN11xercesc_2_516RuntimeExceptionC2EPKcjNS_10XMLExcepts5CodesEPNS_13MemoryManagerE(ptr noundef nonnull align 8 dereferenceable(48) %14, ptr noundef nonnull @.str, i32 noundef 988, i32 noundef 75, ptr noundef %16)
          to label %17 unwind label %18

17:                                               ; preds = %13
  tail call void @__cxa_throw(ptr nonnull %14, ptr nonnull @_ZTIN11xercesc_2_516RuntimeExceptionE, ptr nonnull @_ZN11xercesc_2_512XMLExceptionD2Ev) #16
  unreachable

18:                                               ; preds = %13
  %19 = landingpad { ptr, i32 }
          cleanup
  tail call void @__cxa_free_exception(ptr %14) #14
  br label %80

20:                                               ; preds = %2
  %21 = getelementptr inbounds %"class.xercesc_2_5::XMLScanner", ptr %0, i64 0, i32 40
  %22 = getelementptr inbounds %"class.xercesc_2_5::XMLScanner", ptr %0, i64 0, i32 58
  %23 = getelementptr inbounds %"class.xercesc_2_5::XMLScanner", ptr %0, i64 0, i32 58, i32 1
  store i32 0, ptr %23, align 4, !tbaa !111
  %24 = getelementptr inbounds %"class.xercesc_2_5::XMLScanner", ptr %0, i64 0, i32 58, i32 4
  %25 = load ptr, ptr %24, align 8, !tbaa !114
  store i16 0, ptr %25, align 2, !tbaa !115
  %26 = getelementptr inbounds %"class.xercesc_2_5::XMLScanner", ptr %0, i64 0, i32 40, i32 2
  %27 = load ptr, ptr %26, align 8, !tbaa !220
  %28 = tail call noundef zeroext i1 @_ZN11xercesc_2_59XMLReader7getNameERNS_9XMLBufferEb(ptr noundef nonnull align 8 dereferenceable(98456) %27, ptr noundef nonnull align 8 dereferenceable(32) %22, i1 noundef zeroext false)
  br i1 %28, label %32, label %29

29:                                               ; preds = %20
  tail call void @_ZN11xercesc_2_510XMLScanner9emitErrorENS_7XMLErrs5CodesE(ptr noundef nonnull align 8 dereferenceable(664) %0, i32 noundef 183)
  br label %30

30:                                               ; preds = %30, %29
  %31 = tail call noundef zeroext i16 @_ZN11xercesc_2_59ReaderMgr11getNextCharEv(ptr noundef nonnull align 8 dereferenceable(80) %21)
  switch i16 %31, label %30 [
    i16 62, label %861
    i16 0, label %861
  ]

32:                                               ; preds = %20
  %33 = getelementptr inbounds %"class.xercesc_2_5::XMLScanner", ptr %0, i64 0, i32 20
  %34 = load i32, ptr %33, align 4, !tbaa !232
  call void @llvm.lifetime.start.p0(i64 4, ptr nonnull %4) #14
  store i32 -1, ptr %4, align 4, !tbaa !219
  %35 = getelementptr inbounds %"class.xercesc_2_5::XMLScanner", ptr %0, i64 0, i32 3
  %36 = load i8, ptr %35, align 2, !tbaa !218, !range !177, !noundef !178
  %37 = icmp eq i8 %36, 0
  br i1 %37, label %48, label %38

38:                                               ; preds = %32
  %39 = load ptr, ptr %24, align 8, !tbaa !114
  %40 = load i32, ptr %23, align 4, !tbaa !111
  %41 = zext i32 %40 to i64
  %42 = getelementptr inbounds i16, ptr %39, i64 %41
  store i16 0, ptr %42, align 2, !tbaa !115
  %43 = getelementptr inbounds %"class.xercesc_2_5::XMLScanner", ptr %0, i64 0, i32 59
  %44 = load ptr, ptr %0, align 8, !tbaa !86
  %45 = getelementptr inbounds ptr, ptr %44, i64 5
  %46 = load ptr, ptr %45, align 8
  %47 = call noundef i32 %46(ptr noundef nonnull align 8 dereferenceable(904) %0, ptr noundef %39, ptr noundef nonnull align 8 dereferenceable(32) %43, i16 noundef signext 1, ptr noundef nonnull align 4 dereferenceable(4) %4)
  br label %48

48:                                               ; preds = %38, %32
  %49 = phi i32 [ %47, %38 ], [ %34, %32 ]
  %50 = getelementptr inbounds %"class.xercesc_2_5::XMLScanner", ptr %0, i64 0, i32 61, i32 3
  %51 = load ptr, ptr %50, align 8, !tbaa !233
  %52 = load i32, ptr %6, align 4, !tbaa !212
  %53 = add i32 %52, -1
  %54 = zext i32 %53 to i64
  %55 = getelementptr inbounds ptr, ptr %51, i64 %54
  %56 = load ptr, ptr %55, align 8, !tbaa !126
  %57 = getelementptr inbounds %"struct.xercesc_2_5::ElemStack::StackElem", ptr %56, i64 0, i32 13
  %58 = load i32, ptr %57, align 8, !tbaa !234
  %59 = call noundef ptr @_ZN11xercesc_2_59ElemStack6popTopEv(ptr noundef nonnull align 8 dereferenceable(104) %5)
  %60 = load i32, ptr %6, align 4, !tbaa !212
  %61 = icmp eq i32 %60, 0
  %62 = load ptr, ptr %59, align 8, !tbaa !213
  %63 = load i8, ptr %35, align 2, !tbaa !218, !range !177, !noundef !178
  %64 = icmp ne i8 %63, 0
  %65 = getelementptr inbounds %"class.xercesc_2_5::IGXMLScanner", ptr %0, i64 0, i32 2
  %66 = load i32, ptr %65, align 4
  %67 = icmp eq i32 %66, 1
  %68 = select i1 %64, i1 %67, i1 false
  br i1 %68, label %69, label %125

69:                                               ; preds = %48
  %70 = getelementptr inbounds %"class.xercesc_2_5::IGXMLScanner", ptr %0, i64 0, i32 23
  %71 = load ptr, ptr %70, align 8, !tbaa !195
  %72 = getelementptr inbounds %"class.xercesc_2_5::ValueStackOf", ptr %71, i64 0, i32 1, i32 1
  %73 = load i32, ptr %72, align 4, !tbaa !235
  %74 = icmp eq i32 %73, 0
  br i1 %74, label %75, label %84

75:                                               ; preds = %69
  %76 = call ptr @__cxa_allocate_exception(i64 48) #14
  %77 = getelementptr inbounds %"class.xercesc_2_5::ValueStackOf", ptr %71, i64 0, i32 1, i32 4
  %78 = load ptr, ptr %77, align 8, !tbaa !196
  invoke void @_ZN11xercesc_2_519EmptyStackExceptionC2EPKcjNS_10XMLExcepts5CodesEPNS_13MemoryManagerE(ptr noundef nonnull align 8 dereferenceable(48) %76, ptr noundef nonnull @.str.1, i32 noundef 139, i32 noundef 78, ptr noundef %78)
          to label %79 unwind label %82

79:                                               ; preds = %75
  call void @__cxa_throw(ptr nonnull %76, ptr nonnull @_ZTIN11xercesc_2_519EmptyStackExceptionE, ptr nonnull @_ZN11xercesc_2_512XMLExceptionD2Ev) #16
  unreachable

80:                                               ; preds = %18, %862, %720, %470, %428, %383, %82
  %81 = phi { ptr, i32 } [ %83, %82 ], [ %384, %383 ], [ %429, %428 ], [ %471, %470 ], [ %721, %720 ], [ %19, %18 ], [ %864, %862 ]
  resume { ptr, i32 } %81

82:                                               ; preds = %75
  %83 = landingpad { ptr, i32 }
          cleanup
  call void @__cxa_free_exception(ptr %76) #14
  br label %80

84:                                               ; preds = %69
  %85 = add nsw i32 %73, -1
  %86 = getelementptr inbounds %"class.xercesc_2_5::ValueStackOf", ptr %71, i64 0, i32 1, i32 3
  %87 = load ptr, ptr %86, align 8, !tbaa !198
  %88 = zext i32 %85 to i64
  %89 = getelementptr inbounds i8, ptr %87, i64 %88
  %90 = load i8, ptr %89, align 1, !tbaa !211, !range !177, !noundef !178
  store i32 %85, ptr %72, align 4, !tbaa !235
  %91 = getelementptr inbounds %"class.xercesc_2_5::IGXMLScanner", ptr %0, i64 0, i32 24, i32 1
  store i8 %90, ptr %91, align 1, !tbaa !236
  %92 = load ptr, ptr %24, align 8, !tbaa !114
  %93 = load i32, ptr %23, align 4, !tbaa !111
  %94 = zext i32 %93 to i64
  %95 = getelementptr inbounds i16, ptr %92, i64 %94
  store i16 0, ptr %95, align 2, !tbaa !115
  %96 = icmp eq i32 %58, %49
  %97 = getelementptr inbounds %"class.xercesc_2_5::XMLElementDecl", ptr %62, i64 0, i32 2
  %98 = load ptr, ptr %97, align 8, !tbaa !215
  br i1 %96, label %99, label %162

99:                                               ; preds = %84
  %100 = getelementptr inbounds %"class.xercesc_2_5::QName", ptr %98, i64 0, i32 4
  %101 = load ptr, ptr %100, align 8, !tbaa !237
  %102 = load i32, ptr %4, align 4, !tbaa !219
  %103 = add nsw i32 %102, 1
  %104 = sext i32 %103 to i64
  %105 = getelementptr inbounds i16, ptr %92, i64 %104
  %106 = icmp eq ptr %101, null
  br i1 %106, label %111, label %107

107:                                              ; preds = %99
  %108 = load i16, ptr %101, align 2, !tbaa !115
  %109 = load i16, ptr %105, align 2, !tbaa !115
  %110 = icmp eq i16 %108, %109
  br i1 %110, label %114, label %162

111:                                              ; preds = %99
  %112 = load i16, ptr %105, align 2, !tbaa !115
  %113 = icmp eq i16 %112, 0
  br i1 %113, label %165, label %162

114:                                              ; preds = %107, %119
  %115 = phi i16 [ %122, %119 ], [ %108, %107 ]
  %116 = phi ptr [ %121, %119 ], [ %105, %107 ]
  %117 = phi ptr [ %120, %119 ], [ %101, %107 ]
  %118 = icmp eq i16 %115, 0
  br i1 %118, label %165, label %119

119:                                              ; preds = %114
  %120 = getelementptr inbounds i16, ptr %117, i64 1
  %121 = getelementptr inbounds i16, ptr %116, i64 1
  %122 = load i16, ptr %120, align 2, !tbaa !115
  %123 = load i16, ptr %121, align 2, !tbaa !115
  %124 = icmp eq i16 %122, %123
  br i1 %124, label %114, label %162

125:                                              ; preds = %48
  %126 = getelementptr inbounds %"class.xercesc_2_5::XMLElementDecl", ptr %62, i64 0, i32 2
  %127 = load ptr, ptr %126, align 8, !tbaa !215
  %128 = call noundef ptr @_ZN11xercesc_2_55QName10getRawNameEv(ptr noundef nonnull align 8 dereferenceable(64) %127)
  %129 = load ptr, ptr %24, align 8, !tbaa !114
  %130 = load i32, ptr %23, align 4, !tbaa !111
  %131 = zext i32 %130 to i64
  %132 = getelementptr inbounds i16, ptr %129, i64 %131
  store i16 0, ptr %132, align 2, !tbaa !115
  %133 = icmp eq ptr %128, null
  %134 = icmp eq ptr %129, null
  %135 = or i1 %133, %134
  br i1 %135, label %140, label %136

136:                                              ; preds = %125
  %137 = load i16, ptr %128, align 2, !tbaa !115
  %138 = load i16, ptr %129, align 2, !tbaa !115
  %139 = icmp eq i16 %137, %138
  br i1 %139, label %147, label %158

140:                                              ; preds = %125
  br i1 %133, label %144, label %141

141:                                              ; preds = %140
  %142 = load i16, ptr %128, align 2, !tbaa !115
  %143 = icmp eq i16 %142, 0
  br i1 %143, label %144, label %158

144:                                              ; preds = %140, %141
  %145 = load i16, ptr %129, align 2, !tbaa !115
  %146 = icmp eq i16 %145, 0
  br i1 %146, label %165, label %158

147:                                              ; preds = %136, %152
  %148 = phi i16 [ %155, %152 ], [ %137, %136 ]
  %149 = phi ptr [ %154, %152 ], [ %129, %136 ]
  %150 = phi ptr [ %153, %152 ], [ %128, %136 ]
  %151 = icmp eq i16 %148, 0
  br i1 %151, label %165, label %152

152:                                              ; preds = %147
  %153 = getelementptr inbounds i16, ptr %150, i64 1
  %154 = getelementptr inbounds i16, ptr %149, i64 1
  %155 = load i16, ptr %153, align 2, !tbaa !115
  %156 = load i16, ptr %154, align 2, !tbaa !115
  %157 = icmp eq i16 %155, %156
  br i1 %157, label %147, label %158

158:                                              ; preds = %152, %144, %141, %136
  %159 = load ptr, ptr %59, align 8, !tbaa !213
  %160 = getelementptr inbounds %"class.xercesc_2_5::XMLElementDecl", ptr %159, i64 0, i32 2
  %161 = load ptr, ptr %160, align 8, !tbaa !215
  br label %162

162:                                              ; preds = %119, %111, %107, %84, %158
  %163 = phi ptr [ %161, %158 ], [ %98, %107 ], [ %98, %111 ], [ %98, %84 ], [ %98, %119 ]
  %164 = call noundef ptr @_ZN11xercesc_2_55QName10getRawNameEv(ptr noundef nonnull align 8 dereferenceable(64) %163)
  call void @_ZN11xercesc_2_510XMLScanner9emitErrorENS_7XMLErrs5CodesEPKtS4_S4_S4_(ptr noundef nonnull align 8 dereferenceable(664) %0, i32 noundef 202, ptr noundef %164, ptr noundef null, ptr noundef null, ptr noundef null)
  br label %165

165:                                              ; preds = %147, %114, %162, %144, %111
  %166 = getelementptr inbounds %"struct.xercesc_2_5::ElemStack::StackElem", ptr %59, i64 0, i32 1
  %167 = load i32, ptr %166, align 8, !tbaa !239
  %168 = load ptr, ptr %26, align 8, !tbaa !220
  %169 = getelementptr inbounds %"class.xercesc_2_5::XMLReader", ptr %168, i64 0, i32 14
  %170 = load i32, ptr %169, align 8, !tbaa !221
  %171 = icmp eq i32 %167, %170
  br i1 %171, label %173, label %172

172:                                              ; preds = %165
  call void @_ZN11xercesc_2_510XMLScanner9emitErrorENS_7XMLErrs5CodesE(ptr noundef nonnull align 8 dereferenceable(664) %0, i32 noundef 278)
  br label %173

173:                                              ; preds = %172, %165
  %174 = call noundef zeroext i1 @_ZN11xercesc_2_59ReaderMgr14skipPastSpacesEv(ptr noundef nonnull align 8 dereferenceable(80) %21)
  %175 = call noundef zeroext i1 @_ZN11xercesc_2_59ReaderMgr11skippedCharEt(ptr noundef nonnull align 8 dereferenceable(80) %21, i16 noundef zeroext 62)
  br i1 %175, label %181, label %176

176:                                              ; preds = %173
  %177 = load ptr, ptr %59, align 8, !tbaa !213
  %178 = getelementptr inbounds %"class.xercesc_2_5::XMLElementDecl", ptr %177, i64 0, i32 2
  %179 = load ptr, ptr %178, align 8, !tbaa !215
  %180 = call noundef ptr @_ZN11xercesc_2_55QName10getRawNameEv(ptr noundef nonnull align 8 dereferenceable(64) %179)
  call void @_ZN11xercesc_2_510XMLScanner9emitErrorENS_7XMLErrs5CodesEPKtS4_S4_S4_(ptr noundef nonnull align 8 dereferenceable(664) %0, i32 noundef 200, ptr noundef %180, ptr noundef null, ptr noundef null, ptr noundef null)
  br label %181

181:                                              ; preds = %176, %173
  %182 = load i32, ptr %65, align 4, !tbaa !107
  %183 = icmp eq i32 %182, 1
  %184 = getelementptr inbounds %"class.xercesc_2_5::XMLScanner", ptr %0, i64 0, i32 9
  %185 = load i8, ptr %184, align 8, !tbaa !209, !range !177
  br i1 %183, label %186, label %248

186:                                              ; preds = %181
  %187 = icmp eq i8 %185, 0
  br i1 %187, label %244, label %188

188:                                              ; preds = %186
  %189 = load ptr, ptr %59, align 8, !tbaa !213
  %190 = getelementptr inbounds %"class.xercesc_2_5::XMLElementDecl", ptr %189, i64 0, i32 3
  %191 = load i32, ptr %190, align 8, !tbaa !240
  %192 = icmp eq i32 %191, 1
  br i1 %192, label %193, label %244

193:                                              ; preds = %188
  %194 = getelementptr inbounds %"class.xercesc_2_5::XMLScanner", ptr %0, i64 0, i32 41
  %195 = load ptr, ptr %194, align 8, !tbaa !118
  %196 = getelementptr inbounds %"class.xercesc_2_5::SchemaValidator", ptr %195, i64 0, i32 14
  %197 = load ptr, ptr %196, align 8, !tbaa !241
  %198 = getelementptr inbounds %"class.xercesc_2_5::ValueStackOf.8", ptr %197, i64 0, i32 1, i32 1
  %199 = load i32, ptr %198, align 4, !tbaa !245
  %200 = icmp eq i32 %199, 0
  br i1 %200, label %201, label %203

201:                                              ; preds = %193
  %202 = getelementptr inbounds %"class.xercesc_2_5::IGXMLScanner", ptr %0, i64 0, i32 24, i32 6
  store ptr null, ptr %202, align 8, !tbaa !247
  br label %212

203:                                              ; preds = %193
  %204 = add nsw i32 %199, -1
  %205 = getelementptr inbounds %"class.xercesc_2_5::ValueStackOf.8", ptr %197, i64 0, i32 1, i32 3
  %206 = load ptr, ptr %205, align 8, !tbaa !248
  %207 = zext i32 %204 to i64
  %208 = getelementptr inbounds ptr, ptr %206, i64 %207
  %209 = load ptr, ptr %208, align 8, !tbaa !126
  %210 = getelementptr inbounds %"class.xercesc_2_5::IGXMLScanner", ptr %0, i64 0, i32 24, i32 6
  store ptr %209, ptr %210, align 8, !tbaa !247
  %211 = icmp eq ptr %209, null
  br i1 %211, label %212, label %215

212:                                              ; preds = %201, %203
  %213 = getelementptr inbounds %"class.xercesc_2_5::SchemaValidator", ptr %195, i64 0, i32 7
  %214 = load ptr, ptr %213, align 8, !tbaa !249
  br label %215

215:                                              ; preds = %203, %212
  %216 = phi ptr [ %214, %212 ], [ null, %203 ]
  %217 = getelementptr inbounds %"class.xercesc_2_5::IGXMLScanner", ptr %0, i64 0, i32 24, i32 5
  store ptr %216, ptr %217, align 8, !tbaa !250
  %218 = getelementptr inbounds %"class.xercesc_2_5::XMLScanner", ptr %0, i64 0, i32 37
  %219 = load ptr, ptr %218, align 8, !tbaa !251
  %220 = icmp eq ptr %219, null
  br i1 %220, label %246, label %221

221:                                              ; preds = %215
  %222 = getelementptr inbounds %"class.xercesc_2_5::SchemaValidator", ptr %195, i64 0, i32 9, i32 4
  %223 = load ptr, ptr %222, align 8, !tbaa !114
  %224 = getelementptr inbounds %"class.xercesc_2_5::SchemaValidator", ptr %195, i64 0, i32 9, i32 1
  %225 = load i32, ptr %224, align 4, !tbaa !111
  %226 = zext i32 %225 to i64
  %227 = getelementptr inbounds i16, ptr %223, i64 %226
  store i16 0, ptr %227, align 2, !tbaa !115
  %228 = getelementptr inbounds %"class.xercesc_2_5::IGXMLScanner", ptr %0, i64 0, i32 24, i32 7
  store ptr %223, ptr %228, align 8, !tbaa !252
  %229 = load i16, ptr %223, align 2, !tbaa !115
  %230 = load i16, ptr @_ZN11xercesc_2_56XMLUni15fgZeroLenStringE, align 2, !tbaa !115
  %231 = icmp eq i16 %229, %230
  br i1 %231, label %232, label %246

232:                                              ; preds = %221, %237
  %233 = phi i16 [ %240, %237 ], [ %229, %221 ]
  %234 = phi ptr [ %239, %237 ], [ @_ZN11xercesc_2_56XMLUni15fgZeroLenStringE, %221 ]
  %235 = phi ptr [ %238, %237 ], [ %223, %221 ]
  %236 = icmp eq i16 %233, 0
  br i1 %236, label %243, label %237

237:                                              ; preds = %232
  %238 = getelementptr inbounds i16, ptr %235, i64 1
  %239 = getelementptr inbounds i16, ptr %234, i64 1
  %240 = load i16, ptr %238, align 2, !tbaa !115
  %241 = load i16, ptr %239, align 2, !tbaa !115
  %242 = icmp eq i16 %240, %241
  br i1 %242, label %232, label %246

243:                                              ; preds = %232
  store ptr null, ptr %228, align 8, !tbaa !252
  br label %246

244:                                              ; preds = %188, %186
  %245 = getelementptr inbounds %"class.xercesc_2_5::IGXMLScanner", ptr %0, i64 0, i32 24, i32 5
  call void @llvm.memset.p0.i64(ptr noundef nonnull align 8 dereferenceable(24) %245, i8 0, i64 24, i1 false)
  br label %248

246:                                              ; preds = %237, %221, %243, %215
  %247 = getelementptr inbounds %"class.xercesc_2_5::XMLScanner", ptr %0, i64 0, i32 9
  br label %251

248:                                              ; preds = %181, %244
  %249 = getelementptr inbounds %"class.xercesc_2_5::XMLScanner", ptr %0, i64 0, i32 9
  %250 = icmp eq i8 %185, 0
  br i1 %250, label %506, label %251

251:                                              ; preds = %246, %248
  %252 = phi ptr [ %247, %246 ], [ %249, %248 ]
  %253 = getelementptr inbounds %"class.xercesc_2_5::XMLScanner", ptr %0, i64 0, i32 41
  %254 = load ptr, ptr %253, align 8, !tbaa !118
  %255 = load ptr, ptr %59, align 8, !tbaa !213
  %256 = getelementptr inbounds %"struct.xercesc_2_5::ElemStack::StackElem", ptr %59, i64 0, i32 5
  %257 = load ptr, ptr %256, align 8, !tbaa !253
  %258 = getelementptr inbounds %"struct.xercesc_2_5::ElemStack::StackElem", ptr %59, i64 0, i32 3
  %259 = load i32, ptr %258, align 8, !tbaa !254
  %260 = load ptr, ptr %254, align 8, !tbaa !86
  %261 = getelementptr inbounds ptr, ptr %260, i64 2
  %262 = load ptr, ptr %261, align 8
  %263 = call noundef i32 %262(ptr noundef nonnull align 8 dereferenceable(40) %254, ptr noundef %255, ptr noundef %257, i32 noundef %259)
  %264 = icmp sgt i32 %263, -1
  br i1 %264, label %265, label %295

265:                                              ; preds = %251
  %266 = load i32, ptr %258, align 8, !tbaa !254
  %267 = icmp eq i32 %266, 0
  br i1 %267, label %268, label %275

268:                                              ; preds = %265
  %269 = load ptr, ptr %253, align 8, !tbaa !118
  %270 = load ptr, ptr %59, align 8, !tbaa !213
  %271 = load ptr, ptr %270, align 8, !tbaa !86
  %272 = getelementptr inbounds ptr, ptr %271, i64 15
  %273 = load ptr, ptr %272, align 8
  %274 = call noundef ptr %273(ptr noundef nonnull align 8 dereferenceable(33) %270)
  call void @_ZN11xercesc_2_512XMLValidator9emitErrorENS_8XMLValid5CodesEPKtS4_S4_S4_(ptr noundef nonnull align 8 dereferenceable(40) %269, i32 noundef 16, ptr noundef %274, ptr noundef null, ptr noundef null, ptr noundef null)
  br label %295

275:                                              ; preds = %265
  %276 = icmp ult i32 %263, %266
  %277 = load ptr, ptr %253, align 8, !tbaa !118
  br i1 %276, label %284, label %278

278:                                              ; preds = %275
  %279 = load ptr, ptr %59, align 8, !tbaa !213
  %280 = load ptr, ptr %279, align 8, !tbaa !86
  %281 = getelementptr inbounds ptr, ptr %280, i64 15
  %282 = load ptr, ptr %281, align 8
  %283 = call noundef ptr %282(ptr noundef nonnull align 8 dereferenceable(33) %279)
  call void @_ZN11xercesc_2_512XMLValidator9emitErrorENS_8XMLValid5CodesEPKtS4_S4_S4_(ptr noundef nonnull align 8 dereferenceable(40) %277, i32 noundef 21, ptr noundef %283, ptr noundef null, ptr noundef null, ptr noundef null)
  br label %295

284:                                              ; preds = %275
  %285 = load ptr, ptr %256, align 8, !tbaa !253
  %286 = zext i32 %263 to i64
  %287 = getelementptr inbounds ptr, ptr %285, i64 %286
  %288 = load ptr, ptr %287, align 8, !tbaa !126
  %289 = call noundef ptr @_ZN11xercesc_2_55QName10getRawNameEv(ptr noundef nonnull align 8 dereferenceable(64) %288)
  %290 = load ptr, ptr %59, align 8, !tbaa !213
  %291 = load ptr, ptr %290, align 8, !tbaa !86
  %292 = getelementptr inbounds ptr, ptr %291, i64 15
  %293 = load ptr, ptr %292, align 8
  %294 = call noundef ptr %293(ptr noundef nonnull align 8 dereferenceable(33) %290)
  call void @_ZN11xercesc_2_512XMLValidator9emitErrorENS_8XMLValid5CodesEPKtS4_S4_S4_(ptr noundef nonnull align 8 dereferenceable(40) %277, i32 noundef 7, ptr noundef %289, ptr noundef %294, ptr noundef null, ptr noundef null)
  br label %295

295:                                              ; preds = %268, %284, %278, %251
  %296 = load i32, ptr %65, align 4, !tbaa !107
  %297 = icmp eq i32 %296, 1
  br i1 %297, label %298, label %570

298:                                              ; preds = %295
  %299 = load ptr, ptr %253, align 8, !tbaa !118
  %300 = getelementptr inbounds %"class.xercesc_2_5::SchemaValidator", ptr %299, i64 0, i32 16
  %301 = load i8, ptr %300, align 8, !tbaa !255, !range !177, !noundef !178
  %302 = icmp eq i8 %301, 0
  br i1 %302, label %305, label %303

303:                                              ; preds = %298
  %304 = getelementptr inbounds %"class.xercesc_2_5::IGXMLScanner", ptr %0, i64 0, i32 24, i32 1
  store i8 1, ptr %304, align 1, !tbaa !236
  br label %320

305:                                              ; preds = %298
  %306 = getelementptr inbounds %"class.xercesc_2_5::IGXMLScanner", ptr %0, i64 0, i32 24, i32 5
  %307 = load ptr, ptr %306, align 8, !tbaa !250
  %308 = icmp eq ptr %307, null
  br i1 %308, label %320, label %309

309:                                              ; preds = %305
  %310 = getelementptr inbounds %"class.xercesc_2_5::DatatypeValidator", ptr %307, i64 0, i32 8
  %311 = load i32, ptr %310, align 8, !tbaa !256
  %312 = icmp eq i32 %311, 25
  br i1 %312, label %313, label %320

313:                                              ; preds = %309
  %314 = getelementptr inbounds %"class.xercesc_2_5::XMLScanner", ptr %0, i64 0, i32 38
  %315 = load ptr, ptr %314, align 8, !tbaa !260
  %316 = load ptr, ptr %315, align 8, !tbaa !86
  %317 = getelementptr inbounds ptr, ptr %316, i64 11
  %318 = load ptr, ptr %317, align 8
  %319 = call noundef ptr %318(ptr noundef nonnull align 8 dereferenceable(16) %315)
  br label %320

320:                                              ; preds = %305, %309, %313, %303
  %321 = phi ptr [ null, %303 ], [ %319, %313 ], [ null, %309 ], [ null, %305 ]
  %322 = getelementptr inbounds %"class.xercesc_2_5::XMLScanner", ptr %0, i64 0, i32 37
  %323 = load ptr, ptr %322, align 8, !tbaa !251
  %324 = icmp eq ptr %323, null
  br i1 %324, label %336, label %325

325:                                              ; preds = %320
  %326 = load ptr, ptr %253, align 8, !tbaa !118
  %327 = getelementptr inbounds %"class.xercesc_2_5::SchemaValidator", ptr %326, i64 0, i32 17
  %328 = load i8, ptr %327, align 1, !tbaa !261, !range !177, !noundef !178
  %329 = icmp eq i8 %328, 0
  %330 = getelementptr inbounds %"class.xercesc_2_5::IGXMLScanner", ptr %0, i64 0, i32 24
  store i8 %328, ptr %330, align 8, !tbaa !262
  br i1 %329, label %336, label %331

331:                                              ; preds = %325
  %332 = load ptr, ptr %59, align 8, !tbaa !213
  %333 = getelementptr inbounds %"class.xercesc_2_5::SchemaElementDecl", ptr %332, i64 0, i32 10
  %334 = load ptr, ptr %333, align 8, !tbaa !263
  %335 = getelementptr inbounds %"class.xercesc_2_5::IGXMLScanner", ptr %0, i64 0, i32 24, i32 7
  store ptr %334, ptr %335, align 8, !tbaa !252
  br label %336

336:                                              ; preds = %325, %331, %320
  %337 = getelementptr inbounds %"class.xercesc_2_5::IGXMLScanner", ptr %0, i64 0, i32 10
  %338 = load ptr, ptr %337, align 8, !tbaa !129
  %339 = load i32, ptr %338, align 8, !tbaa !269
  %340 = icmp eq i32 %339, 0
  br i1 %340, label %341, label %350

341:                                              ; preds = %336
  %342 = load ptr, ptr %59, align 8, !tbaa !213
  %343 = getelementptr inbounds %"class.xercesc_2_5::SchemaElementDecl", ptr %342, i64 0, i32 15
  %344 = load ptr, ptr %343, align 8, !tbaa !271
  %345 = icmp eq ptr %344, null
  br i1 %345, label %506, label %346

346:                                              ; preds = %341
  %347 = getelementptr inbounds %"class.xercesc_2_5::BaseRefVectorOf.11", ptr %344, i64 0, i32 2
  %348 = load i32, ptr %347, align 4, !tbaa !272
  %349 = icmp eq i32 %348, 0
  br i1 %349, label %506, label %359

350:                                              ; preds = %336
  %351 = add i32 %339, -1
  %352 = icmp sgt i32 %339, 0
  br i1 %352, label %353, label %359

353:                                              ; preds = %350
  %354 = getelementptr inbounds %"class.xercesc_2_5::IGXMLScanner", ptr %0, i64 0, i32 5, i32 4
  %355 = getelementptr inbounds %"class.xercesc_2_5::IGXMLScanner", ptr %0, i64 0, i32 5, i32 1
  %356 = zext i32 %351 to i64
  br label %369

357:                                              ; preds = %385
  %358 = load ptr, ptr %337, align 8, !tbaa !129
  br label %359

359:                                              ; preds = %346, %357, %350
  %360 = phi i32 [ %351, %357 ], [ %351, %350 ], [ -1, %346 ]
  %361 = phi ptr [ %358, %357 ], [ %338, %350 ], [ %338, %346 ]
  %362 = getelementptr inbounds %"class.xercesc_2_5::XPathMatcherStack", ptr %361, i64 0, i32 1
  %363 = load ptr, ptr %362, align 8, !tbaa !274
  %364 = getelementptr inbounds %"class.xercesc_2_5::ValueStackOf.14", ptr %363, i64 0, i32 1, i32 1
  %365 = load i32, ptr %364, align 4, !tbaa !275
  %366 = icmp eq i32 %365, 0
  br i1 %366, label %367, label %400

367:                                              ; preds = %359
  %368 = load i32, ptr %361, align 8, !tbaa !269
  br label %407

369:                                              ; preds = %353, %385
  %370 = phi i64 [ %356, %353 ], [ %398, %385 ]
  %371 = load ptr, ptr %337, align 8, !tbaa !129
  %372 = getelementptr inbounds %"class.xercesc_2_5::XPathMatcherStack", ptr %371, i64 0, i32 2
  %373 = load ptr, ptr %372, align 8, !tbaa !277
  %374 = getelementptr inbounds %"class.xercesc_2_5::BaseRefVectorOf.13", ptr %373, i64 0, i32 2
  %375 = load i32, ptr %374, align 4, !tbaa !278
  %376 = zext i32 %375 to i64
  %377 = icmp ult i64 %370, %376
  br i1 %377, label %385, label %378

378:                                              ; preds = %369
  %379 = call ptr @__cxa_allocate_exception(i64 48) #14
  %380 = getelementptr inbounds %"class.xercesc_2_5::BaseRefVectorOf.13", ptr %373, i64 0, i32 5
  %381 = load ptr, ptr %380, align 8, !tbaa !280
  invoke void @_ZN11xercesc_2_530ArrayIndexOutOfBoundsExceptionC2EPKcjNS_10XMLExcepts5CodesEPNS_13MemoryManagerE(ptr noundef nonnull align 8 dereferenceable(48) %379, ptr noundef nonnull @.str.3, i32 noundef 289, i32 noundef 109, ptr noundef %381)
          to label %382 unwind label %383

382:                                              ; preds = %378
  call void @__cxa_throw(ptr nonnull %379, ptr nonnull @_ZTIN11xercesc_2_530ArrayIndexOutOfBoundsExceptionE, ptr nonnull @_ZN11xercesc_2_512XMLExceptionD2Ev) #16
  unreachable

383:                                              ; preds = %378
  %384 = landingpad { ptr, i32 }
          cleanup
  call void @__cxa_free_exception(ptr %379) #14
  br label %80

385:                                              ; preds = %369
  %386 = getelementptr inbounds %"class.xercesc_2_5::BaseRefVectorOf.13", ptr %373, i64 0, i32 4
  %387 = load ptr, ptr %386, align 8, !tbaa !281
  %388 = getelementptr inbounds ptr, ptr %387, i64 %370
  %389 = load ptr, ptr %388, align 8, !tbaa !126
  %390 = load ptr, ptr %59, align 8, !tbaa !213
  %391 = load ptr, ptr %354, align 8, !tbaa !114
  %392 = load i32, ptr %355, align 4, !tbaa !111
  %393 = zext i32 %392 to i64
  %394 = getelementptr inbounds i16, ptr %391, i64 %393
  store i16 0, ptr %394, align 2, !tbaa !115
  %395 = load ptr, ptr %389, align 8, !tbaa !86
  %396 = getelementptr inbounds ptr, ptr %395, i64 5
  %397 = load ptr, ptr %396, align 8
  call void %397(ptr noundef nonnull align 8 dereferenceable(72) %389, ptr noundef nonnull align 8 dereferenceable(33) %390, ptr noundef %391)
  %398 = add nsw i64 %370, -1
  %399 = icmp sgt i64 %370, 0
  br i1 %399, label %369, label %357

400:                                              ; preds = %359
  %401 = add nsw i32 %365, -1
  %402 = getelementptr inbounds %"class.xercesc_2_5::ValueStackOf.14", ptr %363, i64 0, i32 1, i32 3
  %403 = load ptr, ptr %402, align 8, !tbaa !282
  %404 = zext i32 %401 to i64
  %405 = getelementptr inbounds i32, ptr %403, i64 %404
  %406 = load i32, ptr %405, align 4, !tbaa !219
  store i32 %401, ptr %364, align 4, !tbaa !275
  store i32 %406, ptr %361, align 8, !tbaa !269
  br label %407

407:                                              ; preds = %367, %400
  %408 = phi i32 [ %368, %367 ], [ %406, %400 ]
  %409 = icmp sgt i32 %339, %408
  br i1 %409, label %410, label %454

410:                                              ; preds = %407
  %411 = getelementptr inbounds %"class.xercesc_2_5::IGXMLScanner", ptr %0, i64 0, i32 11
  br label %415

412:                                              ; preds = %451
  br i1 %409, label %413, label %454

413:                                              ; preds = %412
  %414 = getelementptr inbounds %"class.xercesc_2_5::IGXMLScanner", ptr %0, i64 0, i32 11
  br label %457

415:                                              ; preds = %410, %451
  %416 = phi i32 [ %360, %410 ], [ %452, %451 ]
  %417 = load ptr, ptr %337, align 8, !tbaa !129
  %418 = getelementptr inbounds %"class.xercesc_2_5::XPathMatcherStack", ptr %417, i64 0, i32 2
  %419 = load ptr, ptr %418, align 8, !tbaa !277
  %420 = getelementptr inbounds %"class.xercesc_2_5::BaseRefVectorOf.13", ptr %419, i64 0, i32 2
  %421 = load i32, ptr %420, align 4, !tbaa !278
  %422 = icmp ugt i32 %421, %416
  br i1 %422, label %430, label %423

423:                                              ; preds = %415
  %424 = call ptr @__cxa_allocate_exception(i64 48) #14
  %425 = getelementptr inbounds %"class.xercesc_2_5::BaseRefVectorOf.13", ptr %419, i64 0, i32 5
  %426 = load ptr, ptr %425, align 8, !tbaa !280
  invoke void @_ZN11xercesc_2_530ArrayIndexOutOfBoundsExceptionC2EPKcjNS_10XMLExcepts5CodesEPNS_13MemoryManagerE(ptr noundef nonnull align 8 dereferenceable(48) %424, ptr noundef nonnull @.str.3, i32 noundef 289, i32 noundef 109, ptr noundef %426)
          to label %427 unwind label %428

427:                                              ; preds = %423
  call void @__cxa_throw(ptr nonnull %424, ptr nonnull @_ZTIN11xercesc_2_530ArrayIndexOutOfBoundsExceptionE, ptr nonnull @_ZN11xercesc_2_512XMLExceptionD2Ev) #16
  unreachable

428:                                              ; preds = %423
  %429 = landingpad { ptr, i32 }
          cleanup
  call void @__cxa_free_exception(ptr %424) #14
  br label %80

430:                                              ; preds = %415
  %431 = getelementptr inbounds %"class.xercesc_2_5::BaseRefVectorOf.13", ptr %419, i64 0, i32 4
  %432 = load ptr, ptr %431, align 8, !tbaa !281
  %433 = zext i32 %416 to i64
  %434 = getelementptr inbounds ptr, ptr %432, i64 %433
  %435 = load ptr, ptr %434, align 8, !tbaa !126
  %436 = getelementptr inbounds %"class.xercesc_2_5::XPathMatcher", ptr %435, i64 0, i32 7
  %437 = load ptr, ptr %436, align 8, !tbaa !283
  %438 = icmp eq ptr %437, null
  br i1 %438, label %451, label %439

439:                                              ; preds = %430
  %440 = load ptr, ptr %437, align 8, !tbaa !86
  %441 = getelementptr inbounds ptr, ptr %440, i64 5
  %442 = load ptr, ptr %441, align 8
  %443 = call noundef signext i16 %442(ptr noundef nonnull align 8 dereferenceable(52) %437)
  %444 = icmp eq i16 %443, 2
  br i1 %444, label %451, label %445

445:                                              ; preds = %439
  %446 = load ptr, ptr %411, align 8, !tbaa !130
  %447 = load ptr, ptr %435, align 8, !tbaa !86
  %448 = getelementptr inbounds ptr, ptr %447, i64 2
  %449 = load ptr, ptr %448, align 8
  %450 = call noundef i32 %449(ptr noundef nonnull align 8 dereferenceable(72) %435)
  call void @_ZN11xercesc_2_515ValueStoreCache10transplantEPNS_18IdentityConstraintEi(ptr noundef nonnull align 8 dereferenceable(48) %446, ptr noundef nonnull %437, i32 noundef %450)
  br label %451

451:                                              ; preds = %445, %439, %430
  %452 = add nsw i32 %416, -1
  %453 = icmp sgt i32 %416, %408
  br i1 %453, label %415, label %412

454:                                              ; preds = %503, %407, %412
  %455 = getelementptr inbounds %"class.xercesc_2_5::IGXMLScanner", ptr %0, i64 0, i32 11
  %456 = load ptr, ptr %455, align 8, !tbaa !130
  call void @_ZN11xercesc_2_515ValueStoreCache10endElementEv(ptr noundef nonnull align 8 dereferenceable(48) %456)
  br label %506

457:                                              ; preds = %413, %503
  %458 = phi i32 [ %360, %413 ], [ %504, %503 ]
  %459 = load ptr, ptr %337, align 8, !tbaa !129
  %460 = getelementptr inbounds %"class.xercesc_2_5::XPathMatcherStack", ptr %459, i64 0, i32 2
  %461 = load ptr, ptr %460, align 8, !tbaa !277
  %462 = getelementptr inbounds %"class.xercesc_2_5::BaseRefVectorOf.13", ptr %461, i64 0, i32 2
  %463 = load i32, ptr %462, align 4, !tbaa !278
  %464 = icmp ugt i32 %463, %458
  br i1 %464, label %472, label %465

465:                                              ; preds = %457
  %466 = call ptr @__cxa_allocate_exception(i64 48) #14
  %467 = getelementptr inbounds %"class.xercesc_2_5::BaseRefVectorOf.13", ptr %461, i64 0, i32 5
  %468 = load ptr, ptr %467, align 8, !tbaa !280
  invoke void @_ZN11xercesc_2_530ArrayIndexOutOfBoundsExceptionC2EPKcjNS_10XMLExcepts5CodesEPNS_13MemoryManagerE(ptr noundef nonnull align 8 dereferenceable(48) %466, ptr noundef nonnull @.str.3, i32 noundef 289, i32 noundef 109, ptr noundef %468)
          to label %469 unwind label %470

469:                                              ; preds = %465
  call void @__cxa_throw(ptr nonnull %466, ptr nonnull @_ZTIN11xercesc_2_530ArrayIndexOutOfBoundsExceptionE, ptr nonnull @_ZN11xercesc_2_512XMLExceptionD2Ev) #16
  unreachable

470:                                              ; preds = %465
  %471 = landingpad { ptr, i32 }
          cleanup
  call void @__cxa_free_exception(ptr %466) #14
  br label %80

472:                                              ; preds = %457
  %473 = getelementptr inbounds %"class.xercesc_2_5::BaseRefVectorOf.13", ptr %461, i64 0, i32 4
  %474 = load ptr, ptr %473, align 8, !tbaa !281
  %475 = zext i32 %458 to i64
  %476 = getelementptr inbounds ptr, ptr %474, i64 %475
  %477 = load ptr, ptr %476, align 8, !tbaa !126
  %478 = getelementptr inbounds %"class.xercesc_2_5::XPathMatcher", ptr %477, i64 0, i32 7
  %479 = load ptr, ptr %478, align 8, !tbaa !283
  %480 = icmp eq ptr %479, null
  br i1 %480, label %503, label %481

481:                                              ; preds = %472
  %482 = load ptr, ptr %479, align 8, !tbaa !86
  %483 = getelementptr inbounds ptr, ptr %482, i64 5
  %484 = load ptr, ptr %483, align 8
  %485 = call noundef signext i16 %484(ptr noundef nonnull align 8 dereferenceable(52) %479)
  %486 = icmp eq i16 %485, 2
  br i1 %486, label %487, label %503

487:                                              ; preds = %481
  %488 = load ptr, ptr %414, align 8, !tbaa !130
  %489 = load ptr, ptr %477, align 8, !tbaa !86
  %490 = getelementptr inbounds ptr, ptr %489, i64 2
  %491 = load ptr, ptr %490, align 8
  %492 = call noundef i32 %491(ptr noundef nonnull align 8 dereferenceable(72) %477)
  %493 = getelementptr inbounds %"class.xercesc_2_5::ValueStoreCache", ptr %488, i64 0, i32 2
  %494 = load ptr, ptr %493, align 8, !tbaa !285
  call void @llvm.lifetime.start.p0(i64 4, ptr nonnull %3) #14
  %495 = call noundef ptr @_ZN11xercesc_2_519RefHash2KeysTableOfINS_10ValueStoreEE14findBucketElemEPKviRj(ptr noundef nonnull align 8 dereferenceable(40) %494, ptr noundef nonnull %479, i32 noundef %492, ptr noundef nonnull align 4 dereferenceable(4) %3)
  %496 = icmp eq ptr %495, null
  br i1 %496, label %497, label %498

497:                                              ; preds = %487
  call void @llvm.lifetime.end.p0(i64 4, ptr nonnull %3) #14
  br label %503

498:                                              ; preds = %487
  %499 = load ptr, ptr %495, align 8, !tbaa !286
  call void @llvm.lifetime.end.p0(i64 4, ptr nonnull %3) #14
  %500 = icmp eq ptr %499, null
  br i1 %500, label %503, label %501

501:                                              ; preds = %498
  %502 = load ptr, ptr %414, align 8, !tbaa !130
  call void @_ZN11xercesc_2_510ValueStore20endDcocumentFragmentEPNS_15ValueStoreCacheE(ptr noundef nonnull align 8 dereferenceable(80) %499, ptr noundef %502)
  br label %503

503:                                              ; preds = %497, %498, %501, %481, %472
  %504 = add nsw i32 %458, -1
  %505 = icmp sgt i32 %458, %408
  br i1 %505, label %457, label %454

506:                                              ; preds = %341, %454, %346, %248
  %507 = phi ptr [ %252, %346 ], [ %252, %454 ], [ %249, %248 ], [ %252, %341 ]
  %508 = phi ptr [ %321, %346 ], [ %321, %454 ], [ null, %248 ], [ %321, %341 ]
  %509 = load i32, ptr %65, align 4, !tbaa !107
  %510 = icmp eq i32 %509, 1
  br i1 %510, label %511, label %570

511:                                              ; preds = %506
  br i1 %61, label %558, label %512

512:                                              ; preds = %511
  %513 = call noundef ptr @_ZNK11xercesc_2_59ElemStack10topElementEv(ptr noundef nonnull align 8 dereferenceable(104) %5)
  %514 = load ptr, ptr %513, align 8, !tbaa !213
  %515 = load ptr, ptr %59, align 8, !tbaa !213
  %516 = load i32, ptr %65, align 4, !tbaa !107
  %517 = icmp eq i32 %516, 1
  br i1 %517, label %518, label %556

518:                                              ; preds = %512
  %519 = getelementptr inbounds %"class.xercesc_2_5::SchemaElementDecl", ptr %515, i64 0, i32 22
  %520 = load i8, ptr %519, align 2, !tbaa !288, !range !177, !noundef !178
  %521 = icmp eq i8 %520, 0
  br i1 %521, label %522, label %525

522:                                              ; preds = %518
  %523 = getelementptr inbounds %"class.xercesc_2_5::SchemaElementDecl", ptr %515, i64 0, i32 19
  %524 = load i32, ptr %523, align 4, !tbaa !289
  br label %539

525:                                              ; preds = %518
  %526 = getelementptr inbounds %"class.xercesc_2_5::SchemaElementDecl", ptr %515, i64 0, i32 21
  %527 = load i8, ptr %526, align 1, !tbaa !290, !range !177, !noundef !178
  %528 = icmp ne i8 %527, 0
  %529 = getelementptr inbounds %"class.xercesc_2_5::SchemaElementDecl", ptr %515, i64 0, i32 20
  %530 = load i8, ptr %529, align 8, !range !177
  %531 = icmp eq i8 %530, 0
  %532 = select i1 %528, i1 true, i1 %531
  br i1 %532, label %536, label %533

533:                                              ; preds = %525
  %534 = getelementptr inbounds %"class.xercesc_2_5::SchemaElementDecl", ptr %515, i64 0, i32 18
  %535 = load i32, ptr %534, align 8, !tbaa !291
  br label %548

536:                                              ; preds = %525
  %537 = select i1 %528, i1 %531, i1 false
  %538 = select i1 %537, i32 1, i32 2
  br label %539

539:                                              ; preds = %536, %522
  %540 = phi i32 [ %524, %522 ], [ %538, %536 ]
  %541 = getelementptr inbounds %"class.xercesc_2_5::SchemaElementDecl", ptr %515, i64 0, i32 18
  %542 = load i32, ptr %541, align 8, !tbaa !291
  %543 = add i32 %540, -1
  %544 = icmp ult i32 %543, 2
  br i1 %544, label %545, label %548

545:                                              ; preds = %539
  %546 = getelementptr inbounds %"class.xercesc_2_5::SchemaElementDecl", ptr %514, i64 0, i32 21
  store i8 1, ptr %546, align 1, !tbaa !290
  %547 = getelementptr inbounds %"class.xercesc_2_5::SchemaElementDecl", ptr %514, i64 0, i32 18
  store i32 1, ptr %547, align 8, !tbaa !291
  br label %551

548:                                              ; preds = %539, %533
  %549 = phi i32 [ %535, %533 ], [ %542, %539 ]
  %550 = getelementptr inbounds %"class.xercesc_2_5::SchemaElementDecl", ptr %514, i64 0, i32 20
  store i8 1, ptr %550, align 8, !tbaa !292
  br label %551

551:                                              ; preds = %548, %545
  %552 = phi i32 [ %549, %548 ], [ %542, %545 ]
  %553 = icmp eq i32 %552, 2
  br i1 %553, label %554, label %556

554:                                              ; preds = %551
  %555 = getelementptr inbounds %"class.xercesc_2_5::SchemaElementDecl", ptr %514, i64 0, i32 18
  store i32 2, ptr %555, align 8, !tbaa !291
  br label %556

556:                                              ; preds = %512, %551, %554
  %557 = getelementptr inbounds %"class.xercesc_2_5::SchemaElementDecl", ptr %514, i64 0, i32 22
  store i8 1, ptr %557, align 2, !tbaa !288
  br label %558

558:                                              ; preds = %556, %511
  %559 = getelementptr inbounds %"class.xercesc_2_5::XMLScanner", ptr %0, i64 0, i32 37
  %560 = load ptr, ptr %559, align 8, !tbaa !251
  %561 = icmp eq ptr %560, null
  br i1 %561, label %564, label %562

562:                                              ; preds = %558
  %563 = load ptr, ptr %59, align 8, !tbaa !213
  call void @_ZN11xercesc_2_512IGXMLScanner14endElementPSVIEPNS_17SchemaElementDeclEPNS_17DatatypeValidatorE(ptr noundef nonnull align 8 dereferenceable(904) %0, ptr noundef %563, ptr noundef %508)
  br label %564

564:                                              ; preds = %562, %558
  %565 = getelementptr inbounds %"class.xercesc_2_5::XMLScanner", ptr %0, i64 0, i32 41
  %566 = load ptr, ptr %565, align 8, !tbaa !118
  %567 = getelementptr inbounds %"class.xercesc_2_5::SchemaValidator", ptr %566, i64 0, i32 9, i32 1
  store i32 0, ptr %567, align 4, !tbaa !111
  %568 = getelementptr inbounds %"class.xercesc_2_5::SchemaValidator", ptr %566, i64 0, i32 9, i32 4
  %569 = load ptr, ptr %568, align 8, !tbaa !114
  store i16 0, ptr %569, align 2, !tbaa !115
  br label %570

570:                                              ; preds = %295, %564, %506
  %571 = phi ptr [ %507, %564 ], [ %507, %506 ], [ %252, %295 ]
  %572 = phi ptr [ %508, %564 ], [ %508, %506 ], [ null, %295 ]
  %573 = getelementptr inbounds %"class.xercesc_2_5::XMLScanner", ptr %0, i64 0, i32 32
  %574 = load ptr, ptr %573, align 8, !tbaa !204
  %575 = icmp eq ptr %574, null
  br i1 %575, label %659, label %576

576:                                              ; preds = %570
  %577 = load ptr, ptr %59, align 8, !tbaa !213
  %578 = getelementptr inbounds %"class.xercesc_2_5::XMLScanner", ptr %0, i64 0, i32 59, i32 4
  %579 = load ptr, ptr %578, align 8, !tbaa !114
  %580 = getelementptr inbounds %"class.xercesc_2_5::XMLScanner", ptr %0, i64 0, i32 59, i32 1
  %581 = load i32, ptr %580, align 4, !tbaa !111
  %582 = zext i32 %581 to i64
  %583 = getelementptr inbounds i16, ptr %579, i64 %582
  store i16 0, ptr %583, align 2, !tbaa !115
  %584 = load ptr, ptr %574, align 8, !tbaa !86
  %585 = getelementptr inbounds ptr, ptr %584, i64 6
  %586 = load ptr, ptr %585, align 8
  call void %586(ptr noundef nonnull align 8 dereferenceable(8) %574, ptr noundef nonnull align 8 dereferenceable(33) %577, i32 noundef %49, i1 noundef zeroext %61, ptr noundef %579)
  %587 = load i32, ptr %65, align 4, !tbaa !107
  %588 = icmp eq i32 %587, 1
  br i1 %588, label %589, label %654

589:                                              ; preds = %576
  %590 = getelementptr inbounds %"class.xercesc_2_5::IGXMLScanner", ptr %0, i64 0, i32 24, i32 1
  %591 = load i8, ptr %590, align 1, !tbaa !236, !range !177, !noundef !178
  %592 = icmp eq i8 %591, 0
  br i1 %592, label %593, label %642

593:                                              ; preds = %589
  %594 = getelementptr inbounds %"class.xercesc_2_5::IGXMLScanner", ptr %0, i64 0, i32 24, i32 6
  %595 = load ptr, ptr %594, align 8, !tbaa !247
  %596 = icmp eq ptr %595, null
  br i1 %596, label %625, label %597

597:                                              ; preds = %593
  %598 = getelementptr inbounds %"class.xercesc_2_5::ComplexTypeInfo", ptr %595, i64 0, i32 1
  %599 = load i8, ptr %598, align 8, !tbaa !293, !range !177, !noundef !178
  %600 = icmp eq i8 %599, 0
  br i1 %600, label %601, label %604

601:                                              ; preds = %597
  %602 = call noundef ptr @_ZNK11xercesc_2_515ComplexTypeInfo16getTypeLocalNameEv(ptr noundef nonnull align 8 dereferenceable(184) %595)
  %603 = load ptr, ptr %594, align 8, !tbaa !247
  br label %604

604:                                              ; preds = %597, %601
  %605 = phi ptr [ %603, %601 ], [ %595, %597 ]
  %606 = phi ptr [ %602, %601 ], [ @_ZN11xercesc_2_56XMLUni15fgZeroLenStringE, %597 ]
  %607 = getelementptr inbounds %"class.xercesc_2_5::ComplexTypeInfo", ptr %605, i64 0, i32 14
  %608 = load ptr, ptr %607, align 8, !tbaa !295
  %609 = icmp eq ptr %608, null
  br i1 %609, label %610, label %647

610:                                              ; preds = %604
  %611 = getelementptr inbounds %"class.xercesc_2_5::ComplexTypeInfo", ptr %605, i64 0, i32 12
  %612 = load ptr, ptr %611, align 8, !tbaa !296
  %613 = call noundef i32 @_ZN11xercesc_2_59XMLString7indexOfEPKtt(ptr noundef %612, i16 noundef zeroext 44)
  %614 = getelementptr inbounds %"class.xercesc_2_5::ComplexTypeInfo", ptr %605, i64 0, i32 30
  %615 = load ptr, ptr %614, align 8, !tbaa !297
  %616 = add nsw i32 %613, 1
  %617 = sext i32 %616 to i64
  %618 = shl nsw i64 %617, 1
  %619 = load ptr, ptr %615, align 8, !tbaa !86
  %620 = getelementptr inbounds ptr, ptr %619, i64 2
  %621 = load ptr, ptr %620, align 8
  %622 = call noundef ptr %621(ptr noundef nonnull align 8 dereferenceable(8) %615, i64 noundef %618)
  %623 = load ptr, ptr %611, align 8, !tbaa !296
  %624 = load ptr, ptr %614, align 8, !tbaa !297
  call void @_ZN11xercesc_2_59XMLString9subStringEPtPKtiiPNS_13MemoryManagerE(ptr noundef %622, ptr noundef %623, i32 noundef 0, i32 noundef %613, ptr noundef %624)
  store ptr %622, ptr %607, align 8, !tbaa !295
  br label %647

625:                                              ; preds = %593
  %626 = icmp eq ptr %572, null
  %627 = getelementptr inbounds %"class.xercesc_2_5::IGXMLScanner", ptr %0, i64 0, i32 24, i32 5
  %628 = load ptr, ptr %627, align 8
  %629 = select i1 %626, ptr %628, ptr %572
  %630 = icmp eq ptr %629, null
  br i1 %630, label %647, label %631

631:                                              ; preds = %625
  %632 = getelementptr inbounds %"class.xercesc_2_5::DatatypeValidator", ptr %629, i64 0, i32 2
  %633 = load i8, ptr %632, align 8, !tbaa !298, !range !177, !noundef !178
  %634 = icmp eq i8 %633, 0
  br i1 %634, label %635, label %638

635:                                              ; preds = %631
  %636 = getelementptr inbounds %"class.xercesc_2_5::DatatypeValidator", ptr %629, i64 0, i32 15
  %637 = load ptr, ptr %636, align 8, !tbaa !299
  br label %638

638:                                              ; preds = %631, %635
  %639 = phi ptr [ %637, %635 ], [ @_ZN11xercesc_2_56XMLUni15fgZeroLenStringE, %631 ]
  %640 = getelementptr inbounds %"class.xercesc_2_5::DatatypeValidator", ptr %629, i64 0, i32 16
  %641 = load ptr, ptr %640, align 8, !tbaa !300
  br label %647

642:                                              ; preds = %589
  %643 = getelementptr inbounds %"class.xercesc_2_5::IGXMLScanner", ptr %0, i64 0, i32 24, i32 5
  %644 = load ptr, ptr %643, align 8, !tbaa !250
  %645 = icmp eq ptr %644, null
  %646 = select i1 %645, ptr @_ZN11xercesc_2_513SchemaSymbols16fgATTVAL_ANYTYPEE, ptr @_ZN11xercesc_2_513SchemaSymbols18fgDT_ANYSIMPLETYPEE
  br label %647

647:                                              ; preds = %610, %604, %642, %625, %638
  %648 = phi ptr [ %639, %638 ], [ @_ZN11xercesc_2_513SchemaSymbols16fgATTVAL_ANYTYPEE, %625 ], [ %646, %642 ], [ %606, %604 ], [ %606, %610 ]
  %649 = phi ptr [ %641, %638 ], [ @_ZN11xercesc_2_513SchemaSymbols21fgURI_SCHEMAFORSCHEMAE, %625 ], [ @_ZN11xercesc_2_513SchemaSymbols21fgURI_SCHEMAFORSCHEMAE, %642 ], [ %608, %604 ], [ %622, %610 ]
  %650 = load ptr, ptr %573, align 8, !tbaa !204
  %651 = load ptr, ptr %650, align 8, !tbaa !86
  %652 = getelementptr inbounds ptr, ptr %651, i64 14
  %653 = load ptr, ptr %652, align 8
  call void %653(ptr noundef nonnull align 8 dereferenceable(8) %650, ptr noundef %648, ptr noundef %649)
  br label %659

654:                                              ; preds = %576
  %655 = load ptr, ptr %573, align 8, !tbaa !204
  %656 = load ptr, ptr %655, align 8, !tbaa !86
  %657 = getelementptr inbounds ptr, ptr %656, i64 14
  %658 = load ptr, ptr %657, align 8
  call void %658(ptr noundef nonnull align 8 dereferenceable(8) %655, ptr noundef null, ptr noundef null)
  br label %659

659:                                              ; preds = %647, %654, %570
  %660 = load i32, ptr %65, align 4, !tbaa !107
  %661 = icmp eq i32 %660, 1
  br i1 %661, label %662, label %773

662:                                              ; preds = %659
  %663 = load ptr, ptr %59, align 8, !tbaa !213
  %664 = getelementptr inbounds %"class.xercesc_2_5::SchemaElementDecl", ptr %663, i64 0, i32 14
  %665 = load ptr, ptr %664, align 8, !tbaa !301
  %666 = icmp eq ptr %665, null
  br i1 %666, label %673, label %667

667:                                              ; preds = %662
  %668 = getelementptr inbounds %"class.xercesc_2_5::DatatypeValidator", ptr %665, i64 0, i32 8
  %669 = load i32, ptr %668, align 8, !tbaa !256
  %670 = icmp eq i32 %669, 25
  br i1 %670, label %671, label %673

671:                                              ; preds = %667
  %672 = getelementptr inbounds %"class.xercesc_2_5::UnionDatatypeValidator", ptr %665, i64 0, i32 5
  store ptr null, ptr %672, align 8, !tbaa !302
  br label %673

673:                                              ; preds = %671, %667, %662
  %674 = getelementptr inbounds %"class.xercesc_2_5::SchemaElementDecl", ptr %663, i64 0, i32 5
  %675 = load ptr, ptr %674, align 8, !tbaa !304
  %676 = icmp eq ptr %675, null
  br i1 %676, label %683, label %677

677:                                              ; preds = %673
  %678 = getelementptr inbounds %"class.xercesc_2_5::DatatypeValidator", ptr %675, i64 0, i32 8
  %679 = load i32, ptr %678, align 8, !tbaa !256
  %680 = icmp eq i32 %679, 25
  br i1 %680, label %681, label %683

681:                                              ; preds = %677
  %682 = getelementptr inbounds %"class.xercesc_2_5::UnionDatatypeValidator", ptr %675, i64 0, i32 5
  store ptr null, ptr %682, align 8, !tbaa !302
  br label %683

683:                                              ; preds = %673, %677, %681
  %684 = getelementptr inbounds %"class.xercesc_2_5::SchemaElementDecl", ptr %663, i64 0, i32 13
  %685 = getelementptr inbounds %"class.xercesc_2_5::SchemaElementDecl", ptr %663, i64 0, i32 18
  call void @llvm.memset.p0.i64(ptr noundef nonnull align 8 dereferenceable(16) %684, i8 0, i64 16, i1 false)
  store i32 1, ptr %685, align 8, !tbaa !291
  %686 = getelementptr inbounds %"class.xercesc_2_5::SchemaElementDecl", ptr %663, i64 0, i32 19
  store i32 1, ptr %686, align 4, !tbaa !289
  %687 = getelementptr inbounds %"class.xercesc_2_5::SchemaElementDecl", ptr %663, i64 0, i32 20
  store i8 0, ptr %687, align 8, !tbaa !292
  %688 = getelementptr inbounds %"class.xercesc_2_5::SchemaElementDecl", ptr %663, i64 0, i32 21
  store i8 0, ptr %688, align 1, !tbaa !290
  %689 = getelementptr inbounds %"class.xercesc_2_5::SchemaElementDecl", ptr %663, i64 0, i32 22
  store i8 0, ptr %689, align 2, !tbaa !288
  br i1 %61, label %859, label %690

690:                                              ; preds = %683
  %691 = call noundef ptr @_ZNK11xercesc_2_59ElemStack10topElementEv(ptr noundef nonnull align 8 dereferenceable(104) %5)
  %692 = load ptr, ptr %691, align 8, !tbaa !213
  %693 = getelementptr inbounds %"class.xercesc_2_5::XMLScanner", ptr %0, i64 0, i32 41
  %694 = load ptr, ptr %693, align 8, !tbaa !118
  %695 = getelementptr inbounds %"class.xercesc_2_5::SchemaValidator", ptr %694, i64 0, i32 14
  %696 = load ptr, ptr %695, align 8, !tbaa !241
  %697 = getelementptr inbounds %"class.xercesc_2_5::ValueStackOf.8", ptr %696, i64 0, i32 1, i32 1
  %698 = load i32, ptr %697, align 4, !tbaa !245
  %699 = icmp eq i32 %698, 0
  br i1 %699, label %707, label %700

700:                                              ; preds = %690
  %701 = add nsw i32 %698, -1
  %702 = getelementptr inbounds %"class.xercesc_2_5::ValueStackOf.8", ptr %696, i64 0, i32 1, i32 3
  %703 = load ptr, ptr %702, align 8, !tbaa !248
  %704 = zext i32 %701 to i64
  %705 = getelementptr inbounds ptr, ptr %703, i64 %704
  %706 = load ptr, ptr %705, align 8, !tbaa !126
  br label %707

707:                                              ; preds = %690, %700
  %708 = phi ptr [ %706, %700 ], [ null, %690 ]
  %709 = getelementptr inbounds %"class.xercesc_2_5::SchemaElementDecl", ptr %692, i64 0, i32 13
  store ptr %708, ptr %709, align 8, !tbaa !305
  %710 = getelementptr inbounds %"class.xercesc_2_5::IGXMLScanner", ptr %0, i64 0, i32 23
  %711 = load ptr, ptr %710, align 8, !tbaa !195
  %712 = getelementptr inbounds %"class.xercesc_2_5::ValueStackOf", ptr %711, i64 0, i32 1, i32 1
  %713 = load i32, ptr %712, align 4, !tbaa !235
  %714 = icmp eq i32 %713, 0
  br i1 %714, label %715, label %722

715:                                              ; preds = %707
  %716 = call ptr @__cxa_allocate_exception(i64 48) #14
  %717 = getelementptr inbounds %"class.xercesc_2_5::ValueStackOf", ptr %711, i64 0, i32 1, i32 4
  %718 = load ptr, ptr %717, align 8, !tbaa !196
  invoke void @_ZN11xercesc_2_519EmptyStackExceptionC2EPKcjNS_10XMLExcepts5CodesEPNS_13MemoryManagerE(ptr noundef nonnull align 8 dereferenceable(48) %716, ptr noundef nonnull @.str.1, i32 noundef 139, i32 noundef 78, ptr noundef %718)
          to label %719 unwind label %720

719:                                              ; preds = %715
  call void @__cxa_throw(ptr nonnull %716, ptr nonnull @_ZTIN11xercesc_2_519EmptyStackExceptionE, ptr nonnull @_ZN11xercesc_2_512XMLExceptionD2Ev) #16
  unreachable

720:                                              ; preds = %715
  %721 = landingpad { ptr, i32 }
          cleanup
  call void @__cxa_free_exception(ptr %716) #14
  br label %80

722:                                              ; preds = %707
  %723 = add nsw i32 %713, -1
  %724 = getelementptr inbounds %"class.xercesc_2_5::ValueStackOf", ptr %711, i64 0, i32 1, i32 3
  %725 = load ptr, ptr %724, align 8, !tbaa !198
  %726 = zext i32 %723 to i64
  %727 = getelementptr inbounds i8, ptr %725, i64 %726
  %728 = load i8, ptr %727, align 1, !tbaa !211, !range !177, !noundef !178
  %729 = icmp eq i8 %728, 0
  store i32 %723, ptr %712, align 4, !tbaa !235
  %730 = getelementptr inbounds %"class.xercesc_2_5::IGXMLScanner", ptr %0, i64 0, i32 24, i32 1
  %731 = load i8, ptr %730, align 1, !range !177
  %732 = select i1 %729, i8 %731, i8 1
  %733 = getelementptr inbounds %"class.xercesc_2_5::ValueStackOf", ptr %711, i64 0, i32 1, i32 2
  %734 = load i32, ptr %733, align 8, !tbaa !306
  %735 = icmp ult i32 %713, %734
  br i1 %735, label %768, label %736

736:                                              ; preds = %722
  %737 = uitofp i32 %723 to double
  %738 = fmul reassoc nnan ninf nsz arcp afn double %737, 1.250000e+00
  %739 = fptoui double %738 to i32
  %740 = call i32 @llvm.umax.i32(i32 %713, i32 %739)
  %741 = getelementptr inbounds %"class.xercesc_2_5::ValueStackOf", ptr %711, i64 0, i32 1, i32 4
  %742 = load ptr, ptr %741, align 8, !tbaa !196
  %743 = zext i32 %740 to i64
  %744 = load ptr, ptr %742, align 8, !tbaa !86
  %745 = getelementptr inbounds ptr, ptr %744, i64 2
  %746 = load ptr, ptr %745, align 8
  %747 = call noundef ptr %746(ptr noundef nonnull align 8 dereferenceable(8) %742, i64 noundef %743)
  %748 = load i32, ptr %712, align 4, !tbaa !235
  %749 = icmp eq i32 %748, 0
  %750 = load ptr, ptr %724, align 8, !tbaa !198
  br i1 %749, label %753, label %751

751:                                              ; preds = %736
  %752 = zext i32 %748 to i64
  br label %761

753:                                              ; preds = %761, %736
  %754 = load ptr, ptr %741, align 8, !tbaa !196
  %755 = load ptr, ptr %754, align 8, !tbaa !86
  %756 = getelementptr inbounds ptr, ptr %755, i64 3
  %757 = load ptr, ptr %756, align 8
  call void %757(ptr noundef nonnull align 8 dereferenceable(8) %754, ptr noundef %750)
  store ptr %747, ptr %724, align 8, !tbaa !198
  store i32 %740, ptr %733, align 8, !tbaa !306
  %758 = load i32, ptr %712, align 4, !tbaa !235
  %759 = add i32 %758, 1
  %760 = zext i32 %758 to i64
  br label %768

761:                                              ; preds = %761, %751
  %762 = phi i64 [ 0, %751 ], [ %766, %761 ]
  %763 = getelementptr inbounds i8, ptr %750, i64 %762
  %764 = load i8, ptr %763, align 1, !tbaa !211, !range !177, !noundef !178
  %765 = getelementptr inbounds i8, ptr %747, i64 %762
  store i8 %764, ptr %765, align 1, !tbaa !211
  %766 = add nuw nsw i64 %762, 1
  %767 = icmp eq i64 %766, %752
  br i1 %767, label %753, label %761

768:                                              ; preds = %722, %753
  %769 = phi i64 [ %726, %722 ], [ %760, %753 ]
  %770 = phi i32 [ %713, %722 ], [ %759, %753 ]
  %771 = phi ptr [ %725, %722 ], [ %747, %753 ]
  %772 = getelementptr inbounds i8, ptr %771, i64 %769
  store i8 %732, ptr %772, align 1, !tbaa !211
  store i32 %770, ptr %712, align 4, !tbaa !235
  br label %773

773:                                              ; preds = %768, %659
  %774 = xor i1 %61, true
  %775 = zext i1 %774 to i8
  store i8 %775, ptr %1, align 1, !tbaa !211
  br i1 %61, label %860, label %776

776:                                              ; preds = %773
  %777 = load i8, ptr %35, align 2, !tbaa !218, !range !177, !noundef !178
  %778 = icmp eq i8 %777, 0
  br i1 %778, label %850, label %779

779:                                              ; preds = %776
  %780 = load ptr, ptr %50, align 8, !tbaa !233
  %781 = load i32, ptr %6, align 4, !tbaa !212
  %782 = add i32 %781, -1
  %783 = zext i32 %782 to i64
  %784 = getelementptr inbounds ptr, ptr %780, i64 %783
  %785 = load ptr, ptr %784, align 8, !tbaa !126
  %786 = getelementptr inbounds %"struct.xercesc_2_5::ElemStack::StackElem", ptr %785, i64 0, i32 12
  %787 = load ptr, ptr %786, align 8, !tbaa !307
  %788 = getelementptr inbounds %"class.xercesc_2_5::XMLScanner", ptr %0, i64 0, i32 45
  store ptr %787, ptr %788, align 8, !tbaa !308
  %789 = load ptr, ptr %787, align 8, !tbaa !86
  %790 = getelementptr inbounds ptr, ptr %789, i64 5
  %791 = load ptr, ptr %790, align 8
  %792 = call noundef i32 %791(ptr noundef nonnull align 8 dereferenceable(8) %787)
  store i32 %792, ptr %65, align 4, !tbaa !107
  %793 = icmp eq i32 %792, 1
  br i1 %793, label %794, label %816

794:                                              ; preds = %779
  %795 = getelementptr inbounds %"class.xercesc_2_5::XMLScanner", ptr %0, i64 0, i32 41
  %796 = load ptr, ptr %795, align 8, !tbaa !118
  %797 = load ptr, ptr %796, align 8, !tbaa !86
  %798 = getelementptr inbounds ptr, ptr %797, i64 13
  %799 = load ptr, ptr %798, align 8
  %800 = call noundef zeroext i1 %799(ptr noundef nonnull align 8 dereferenceable(40) %796)
  br i1 %800, label %814, label %801

801:                                              ; preds = %794
  %802 = getelementptr inbounds %"class.xercesc_2_5::XMLScanner", ptr %0, i64 0, i32 10
  %803 = load i8, ptr %802, align 1, !tbaa !309, !range !177, !noundef !178
  %804 = icmp eq i8 %803, 0
  br i1 %804, label %812, label %805

805:                                              ; preds = %801
  %806 = call ptr @__cxa_allocate_exception(i64 48) #14
  %807 = getelementptr inbounds %"class.xercesc_2_5::XMLScanner", ptr %0, i64 0, i32 53
  %808 = load ptr, ptr %807, align 8, !tbaa !119
  invoke void @_ZN11xercesc_2_516RuntimeExceptionC2EPKcjNS_10XMLExcepts5CodesEPNS_13MemoryManagerE(ptr noundef nonnull align 8 dereferenceable(48) %806, ptr noundef nonnull @.str, i32 noundef 1295, i32 noundef 151, ptr noundef %808)
          to label %809 unwind label %810

809:                                              ; preds = %805
  call void @__cxa_throw(ptr nonnull %806, ptr nonnull @_ZTIN11xercesc_2_516RuntimeExceptionE, ptr nonnull @_ZN11xercesc_2_512XMLExceptionD2Ev) #16
  unreachable

810:                                              ; preds = %805
  %811 = landingpad { ptr, i32 }
          cleanup
  br label %862

812:                                              ; preds = %801
  %813 = getelementptr inbounds %"class.xercesc_2_5::IGXMLScanner", ptr %0, i64 0, i32 8
  br label %839

814:                                              ; preds = %794
  %815 = load i32, ptr %65, align 4, !tbaa !107
  br label %816

816:                                              ; preds = %814, %779
  %817 = phi i32 [ %815, %814 ], [ %792, %779 ]
  %818 = icmp eq i32 %817, 0
  br i1 %818, label %819, label %843

819:                                              ; preds = %816
  %820 = getelementptr inbounds %"class.xercesc_2_5::XMLScanner", ptr %0, i64 0, i32 41
  %821 = load ptr, ptr %820, align 8, !tbaa !118
  %822 = load ptr, ptr %821, align 8, !tbaa !86
  %823 = getelementptr inbounds ptr, ptr %822, i64 12
  %824 = load ptr, ptr %823, align 8
  %825 = call noundef zeroext i1 %824(ptr noundef nonnull align 8 dereferenceable(40) %821)
  br i1 %825, label %843, label %826

826:                                              ; preds = %819
  %827 = getelementptr inbounds %"class.xercesc_2_5::XMLScanner", ptr %0, i64 0, i32 10
  %828 = load i8, ptr %827, align 1, !tbaa !309, !range !177, !noundef !178
  %829 = icmp eq i8 %828, 0
  br i1 %829, label %837, label %830

830:                                              ; preds = %826
  %831 = call ptr @__cxa_allocate_exception(i64 48) #14
  %832 = getelementptr inbounds %"class.xercesc_2_5::XMLScanner", ptr %0, i64 0, i32 53
  %833 = load ptr, ptr %832, align 8, !tbaa !119
  invoke void @_ZN11xercesc_2_516RuntimeExceptionC2EPKcjNS_10XMLExcepts5CodesEPNS_13MemoryManagerE(ptr noundef nonnull align 8 dereferenceable(48) %831, ptr noundef nonnull @.str, i32 noundef 1302, i32 noundef 44, ptr noundef %833)
          to label %834 unwind label %835

834:                                              ; preds = %830
  call void @__cxa_throw(ptr nonnull %831, ptr nonnull @_ZTIN11xercesc_2_516RuntimeExceptionE, ptr nonnull @_ZN11xercesc_2_512XMLExceptionD2Ev) #16
  unreachable

835:                                              ; preds = %830
  %836 = landingpad { ptr, i32 }
          cleanup
  br label %862

837:                                              ; preds = %826
  %838 = getelementptr inbounds %"class.xercesc_2_5::IGXMLScanner", ptr %0, i64 0, i32 7
  br label %839

839:                                              ; preds = %812, %837
  %840 = phi ptr [ %838, %837 ], [ %813, %812 ]
  %841 = phi ptr [ %820, %837 ], [ %795, %812 ]
  %842 = load ptr, ptr %840, align 8, !tbaa !126
  store ptr %842, ptr %841, align 8, !tbaa !118
  br label %843

843:                                              ; preds = %839, %816, %819
  %844 = getelementptr inbounds %"class.xercesc_2_5::XMLScanner", ptr %0, i64 0, i32 41
  %845 = load ptr, ptr %844, align 8, !tbaa !118
  %846 = load ptr, ptr %788, align 8, !tbaa !308
  %847 = load ptr, ptr %845, align 8, !tbaa !86
  %848 = getelementptr inbounds ptr, ptr %847, i64 11
  %849 = load ptr, ptr %848, align 8
  call void %849(ptr noundef nonnull align 8 dereferenceable(40) %845, ptr noundef %846)
  br label %850

850:                                              ; preds = %843, %776
  %851 = load ptr, ptr %50, align 8, !tbaa !233
  %852 = load i32, ptr %6, align 4, !tbaa !212
  %853 = add i32 %852, -1
  %854 = zext i32 %853 to i64
  %855 = getelementptr inbounds ptr, ptr %851, i64 %854
  %856 = load ptr, ptr %855, align 8, !tbaa !126
  %857 = getelementptr inbounds %"struct.xercesc_2_5::ElemStack::StackElem", ptr %856, i64 0, i32 9
  %858 = load i8, ptr %857, align 8, !tbaa !310, !range !177, !noundef !178
  store i8 %858, ptr %571, align 8, !tbaa !209
  br label %860

859:                                              ; preds = %683
  store i8 0, ptr %1, align 1, !tbaa !211
  br label %860

860:                                              ; preds = %859, %850, %773
  call void @llvm.lifetime.end.p0(i64 4, ptr nonnull %4) #14
  br label %861

861:                                              ; preds = %30, %30, %860
  ret void

862:                                              ; preds = %835, %810
  %863 = phi ptr [ %831, %835 ], [ %806, %810 ]
  %864 = phi { ptr, i32 } [ %836, %835 ], [ %811, %810 ]
  call void @__cxa_free_exception(ptr %863) #14
  call void @llvm.lifetime.end.p0(i64 4, ptr nonnull %4) #14
  br label %80
}

declare void @_ZN11xercesc_2_510XMLScanner6scanPIEv(ptr noundef nonnull align 8 dereferenceable(664)) local_unnamed_addr #2

; Function Attrs: uwtable
define dso_local noundef zeroext i1 @_ZN11xercesc_2_512IGXMLScanner14scanStartTagNSERb(ptr noundef nonnull align 8 dereferenceable(904) %0, ptr nocapture noundef nonnull writeonly align 1 dereferenceable(1) %1) local_unnamed_addr #4 align 2 personality ptr @__gxx_personality_v0 {
  %3 = alloca i32, align 4
  %4 = alloca i32, align 4
  %5 = alloca i32, align 4
  %6 = alloca i32, align 4
  %7 = alloca i32, align 4
  %8 = alloca i32, align 4
  %9 = alloca i32, align 4
  %10 = alloca i32, align 4
  %11 = alloca i8, align 1
  %12 = alloca i32, align 4
  %13 = alloca %"class.xercesc_2_5::QName", align 8
  %14 = alloca [2 x i16], align 4
  %15 = alloca %"class.xercesc_2_5::XMLBuffer", align 8
  store i8 1, ptr %1, align 1, !tbaa !211
  %16 = getelementptr inbounds %"class.xercesc_2_5::IGXMLScanner", ptr %0, i64 0, i32 5, i32 1
  store i32 0, ptr %16, align 4, !tbaa !111
  %17 = getelementptr inbounds %"class.xercesc_2_5::IGXMLScanner", ptr %0, i64 0, i32 5, i32 4
  %18 = load ptr, ptr %17, align 8, !tbaa !114
  store i16 0, ptr %18, align 2, !tbaa !115
  %19 = getelementptr inbounds %"class.xercesc_2_5::XMLScanner", ptr %0, i64 0, i32 40
  %20 = getelementptr inbounds %"class.xercesc_2_5::XMLScanner", ptr %0, i64 0, i32 58
  %21 = getelementptr inbounds %"class.xercesc_2_5::XMLScanner", ptr %0, i64 0, i32 58, i32 1
  store i32 0, ptr %21, align 4, !tbaa !111
  %22 = getelementptr inbounds %"class.xercesc_2_5::XMLScanner", ptr %0, i64 0, i32 58, i32 4
  %23 = load ptr, ptr %22, align 8, !tbaa !114
  store i16 0, ptr %23, align 2, !tbaa !115
  %24 = getelementptr inbounds %"class.xercesc_2_5::XMLScanner", ptr %0, i64 0, i32 40, i32 2
  %25 = load ptr, ptr %24, align 8, !tbaa !220
  %26 = tail call noundef zeroext i1 @_ZN11xercesc_2_59XMLReader7getNameERNS_9XMLBufferEb(ptr noundef nonnull align 8 dereferenceable(98456) %25, ptr noundef nonnull align 8 dereferenceable(32) %20, i1 noundef zeroext false)
  br i1 %26, label %30, label %27

27:                                               ; preds = %2
  tail call void @_ZN11xercesc_2_510XMLScanner9emitErrorENS_7XMLErrs5CodesE(ptr noundef nonnull align 8 dereferenceable(664) %0, i32 noundef 183)
  br label %28

28:                                               ; preds = %28, %27
  %29 = tail call noundef zeroext i16 @_ZN11xercesc_2_59ReaderMgr11getNextCharEv(ptr noundef nonnull align 8 dereferenceable(80) %19)
  switch i16 %29, label %28 [
    i16 60, label %1869
    i16 0, label %1869
  ]

30:                                               ; preds = %2
  %31 = getelementptr inbounds %"class.xercesc_2_5::XMLScanner", ptr %0, i64 0, i32 61
  %32 = getelementptr inbounds %"class.xercesc_2_5::XMLScanner", ptr %0, i64 0, i32 61, i32 5
  %33 = load i32, ptr %32, align 4, !tbaa !212
  %34 = icmp eq i32 %33, 0
  %35 = tail call noundef zeroext i1 @_ZN11xercesc_2_59ReaderMgr14skipPastSpacesEv(ptr noundef nonnull align 8 dereferenceable(80) %19)
  %36 = getelementptr inbounds %"class.xercesc_2_5::IGXMLScanner", ptr %0, i64 0, i32 18
  %37 = load ptr, ptr %36, align 8, !tbaa !159
  %38 = getelementptr inbounds %"class.xercesc_2_5::RefHashTableOf", ptr %37, i64 0, i32 3
  %39 = load i32, ptr %38, align 8, !tbaa !154
  %40 = icmp eq i32 %39, 0
  br i1 %40, label %73, label %41

41:                                               ; preds = %30
  %42 = getelementptr inbounds %"class.xercesc_2_5::RefHashTableOf", ptr %37, i64 0, i32 2
  %43 = getelementptr inbounds %"class.xercesc_2_5::RefHashTableOf", ptr %37, i64 0, i32 1
  br label %44

44:                                               ; preds = %66, %41
  %45 = phi i32 [ %39, %41 ], [ %67, %66 ]
  %46 = phi i64 [ 0, %41 ], [ %70, %66 ]
  %47 = load ptr, ptr %42, align 8, !tbaa !153
  %48 = getelementptr inbounds ptr, ptr %47, i64 %46
  %49 = load ptr, ptr %48, align 8, !tbaa !126
  %50 = icmp eq ptr %49, null
  br i1 %50, label %66, label %51

51:                                               ; preds = %44, %61
  %52 = phi ptr [ %54, %61 ], [ %49, %44 ]
  %53 = getelementptr inbounds %"struct.xercesc_2_5::RefHashTableBucketElem", ptr %52, i64 0, i32 1
  %54 = load ptr, ptr %53, align 8, !tbaa !184
  %55 = load i8, ptr %43, align 8, !tbaa !152, !range !177, !noundef !178
  %56 = icmp eq i8 %55, 0
  br i1 %56, label %61, label %57

57:                                               ; preds = %51
  %58 = load ptr, ptr %52, align 8, !tbaa !186
  %59 = icmp eq ptr %58, null
  br i1 %59, label %61, label %60

60:                                               ; preds = %57
  tail call void @_ZdlPv(ptr noundef nonnull %58) #17
  br label %61

61:                                               ; preds = %60, %57, %51
  tail call void @_ZN11xercesc_2_57XMemorydlEPv(ptr noundef nonnull %52)
  %62 = icmp eq ptr %54, null
  br i1 %62, label %63, label %51

63:                                               ; preds = %61
  %64 = load ptr, ptr %42, align 8, !tbaa !153
  %65 = load i32, ptr %38, align 8, !tbaa !154
  br label %66

66:                                               ; preds = %63, %44
  %67 = phi i32 [ %65, %63 ], [ %45, %44 ]
  %68 = phi ptr [ %64, %63 ], [ %47, %44 ]
  %69 = getelementptr inbounds ptr, ptr %68, i64 %46
  store ptr null, ptr %69, align 8, !tbaa !126
  %70 = add nuw nsw i64 %46, 1
  %71 = zext i32 %67 to i64
  %72 = icmp ult i64 %70, %71
  br i1 %72, label %44, label %73

73:                                               ; preds = %66, %30
  %74 = getelementptr inbounds %"class.xercesc_2_5::RefHashTableOf", ptr %37, i64 0, i32 5
  store i32 0, ptr %74, align 8, !tbaa !156
  %75 = getelementptr inbounds %"class.xercesc_2_5::IGXMLScanner", ptr %0, i64 0, i32 19
  %76 = load ptr, ptr %75, align 8, !tbaa !166
  %77 = getelementptr inbounds %"class.xercesc_2_5::RefHash2KeysTableOf", ptr %76, i64 0, i32 3
  %78 = load i32, ptr %77, align 8, !tbaa !164
  %79 = icmp eq i32 %78, 0
  br i1 %79, label %112, label %80

80:                                               ; preds = %73
  %81 = getelementptr inbounds %"class.xercesc_2_5::RefHash2KeysTableOf", ptr %76, i64 0, i32 2
  %82 = getelementptr inbounds %"class.xercesc_2_5::RefHash2KeysTableOf", ptr %76, i64 0, i32 1
  br label %83

83:                                               ; preds = %105, %80
  %84 = phi i32 [ %78, %80 ], [ %106, %105 ]
  %85 = phi i64 [ 0, %80 ], [ %109, %105 ]
  %86 = load ptr, ptr %81, align 8, !tbaa !163
  %87 = getelementptr inbounds ptr, ptr %86, i64 %85
  %88 = load ptr, ptr %87, align 8, !tbaa !126
  %89 = icmp eq ptr %88, null
  br i1 %89, label %105, label %90

90:                                               ; preds = %83, %100
  %91 = phi ptr [ %93, %100 ], [ %88, %83 ]
  %92 = getelementptr inbounds %"struct.xercesc_2_5::RefHash2KeysTableBucketElem.17", ptr %91, i64 0, i32 1
  %93 = load ptr, ptr %92, align 8, !tbaa !187
  %94 = load i8, ptr %82, align 8, !tbaa !162, !range !177, !noundef !178
  %95 = icmp eq i8 %94, 0
  br i1 %95, label %100, label %96

96:                                               ; preds = %90
  %97 = load ptr, ptr %91, align 8, !tbaa !189
  %98 = icmp eq ptr %97, null
  br i1 %98, label %100, label %99

99:                                               ; preds = %96
  tail call void @_ZdlPv(ptr noundef nonnull %97) #17
  br label %100

100:                                              ; preds = %99, %96, %90
  tail call void @_ZN11xercesc_2_57XMemorydlEPv(ptr noundef nonnull %91)
  %101 = icmp eq ptr %93, null
  br i1 %101, label %102, label %90

102:                                              ; preds = %100
  %103 = load ptr, ptr %81, align 8, !tbaa !163
  %104 = load i32, ptr %77, align 8, !tbaa !164
  br label %105

105:                                              ; preds = %102, %83
  %106 = phi i32 [ %104, %102 ], [ %84, %83 ]
  %107 = phi ptr [ %103, %102 ], [ %86, %83 ]
  %108 = getelementptr inbounds ptr, ptr %107, i64 %85
  store ptr null, ptr %108, align 8, !tbaa !126
  %109 = add nuw nsw i64 %85, 1
  %110 = zext i32 %106 to i64
  %111 = icmp ult i64 %109, %110
  br i1 %111, label %83, label %112

112:                                              ; preds = %105, %73
  call void @llvm.lifetime.start.p0(i64 1, ptr nonnull %11) #14
  %113 = load ptr, ptr %22, align 8, !tbaa !114
  %114 = load i32, ptr %21, align 4, !tbaa !111
  %115 = zext i32 %114 to i64
  %116 = getelementptr inbounds i16, ptr %113, i64 %115
  store i16 0, ptr %116, align 2, !tbaa !115
  %117 = getelementptr inbounds %"class.xercesc_2_5::IGXMLScanner", ptr %0, i64 0, i32 6
  %118 = load ptr, ptr %117, align 8, !tbaa !127
  %119 = call noundef i32 @_ZN11xercesc_2_512IGXMLScanner11rawAttrScanEPKtRNS_11RefVectorOfINS_12KVStringPairEEERb(ptr noundef nonnull align 8 dereferenceable(904) %0, ptr noundef %113, ptr noundef nonnull align 8 dereferenceable(40) %118, ptr noundef nonnull align 1 dereferenceable(1) %11)
  %120 = getelementptr inbounds %"class.xercesc_2_5::IGXMLScanner", ptr %0, i64 0, i32 2
  %121 = load i32, ptr %120, align 4
  %122 = icmp ne i32 %121, 1
  %123 = select i1 %34, i1 true, i1 %122
  br i1 %123, label %180, label %124

124:                                              ; preds = %112
  %125 = tail call noundef ptr @_ZNK11xercesc_2_59ElemStack10topElementEv(ptr noundef nonnull align 8 dereferenceable(104) %31)
  %126 = load ptr, ptr %125, align 8, !tbaa !213
  %127 = getelementptr inbounds %"class.xercesc_2_5::SchemaElementDecl", ptr %126, i64 0, i32 11
  %128 = load ptr, ptr %127, align 8, !tbaa !311
  %129 = icmp eq ptr %128, null
  %130 = getelementptr inbounds %"class.xercesc_2_5::ComplexTypeInfo", ptr %128, i64 0, i32 11
  %131 = getelementptr inbounds %"class.xercesc_2_5::SchemaElementDecl", ptr %126, i64 0, i32 2
  %132 = select i1 %129, ptr %131, ptr %130
  %133 = getelementptr inbounds %"class.xercesc_2_5::XMLScanner", ptr %0, i64 0, i32 9
  %134 = load i8, ptr %133, align 8, !tbaa !209, !range !177, !noundef !178
  %135 = icmp eq i8 %134, 0
  br i1 %135, label %154, label %136

136:                                              ; preds = %124
  %137 = getelementptr inbounds %"class.xercesc_2_5::XMLScanner", ptr %0, i64 0, i32 41
  %138 = load ptr, ptr %137, align 8, !tbaa !118
  %139 = getelementptr inbounds %"class.xercesc_2_5::SchemaValidator", ptr %138, i64 0, i32 14
  %140 = load ptr, ptr %139, align 8, !tbaa !241
  %141 = getelementptr inbounds %"class.xercesc_2_5::ValueStackOf.8", ptr %140, i64 0, i32 1, i32 1
  %142 = load i32, ptr %141, align 4, !tbaa !245
  %143 = icmp eq i32 %142, 0
  br i1 %143, label %179, label %144

144:                                              ; preds = %136
  %145 = add nsw i32 %142, -1
  %146 = getelementptr inbounds %"class.xercesc_2_5::ValueStackOf.8", ptr %140, i64 0, i32 1, i32 3
  %147 = load ptr, ptr %146, align 8, !tbaa !248
  %148 = zext i32 %145 to i64
  %149 = getelementptr inbounds ptr, ptr %147, i64 %148
  %150 = load ptr, ptr %149, align 8, !tbaa !126
  %151 = icmp eq ptr %150, null
  br i1 %151, label %179, label %152

152:                                              ; preds = %144
  %153 = getelementptr inbounds %"class.xercesc_2_5::ComplexTypeInfo", ptr %150, i64 0, i32 11
  br label %154

154:                                              ; preds = %124, %152
  %155 = phi ptr [ %150, %152 ], [ %128, %124 ]
  %156 = phi ptr [ %153, %152 ], [ %132, %124 ]
  %157 = load i32, ptr %156, align 4, !tbaa !312
  switch i32 %157, label %180 [
    i32 4, label %158
    i32 3, label %158
    i32 2, label %158
    i32 1, label %179
  ]

158:                                              ; preds = %154, %154, %154
  %159 = getelementptr inbounds %"class.xercesc_2_5::ComplexTypeInfo", ptr %155, i64 0, i32 24
  %160 = load ptr, ptr %159, align 8, !tbaa !313
  %161 = icmp eq ptr %160, null
  br i1 %161, label %162, label %164

162:                                              ; preds = %158
  %163 = tail call noundef ptr @_ZN11xercesc_2_515ComplexTypeInfo16makeContentModelEbPNS_15ContentSpecNodeE(ptr noundef nonnull align 8 dereferenceable(184) %155, i1 noundef zeroext false, ptr noundef null)
  store ptr %163, ptr %159, align 8, !tbaa !313
  br label %164

164:                                              ; preds = %158, %162
  %165 = phi ptr [ %163, %162 ], [ %160, %158 ]
  %166 = load ptr, ptr %165, align 8, !tbaa !86
  %167 = getelementptr inbounds ptr, ptr %166, i64 5
  %168 = load ptr, ptr %167, align 8
  %169 = tail call noundef ptr %168(ptr noundef nonnull align 8 dereferenceable(8) %165)
  %170 = getelementptr inbounds %"class.xercesc_2_5::XMLScanner", ptr %0, i64 0, i32 61, i32 3
  %171 = load ptr, ptr %170, align 8, !tbaa !233
  %172 = load i32, ptr %32, align 4, !tbaa !212
  %173 = add i32 %172, -1
  %174 = zext i32 %173 to i64
  %175 = getelementptr inbounds ptr, ptr %171, i64 %174
  %176 = load ptr, ptr %175, align 8, !tbaa !126
  %177 = getelementptr inbounds %"struct.xercesc_2_5::ElemStack::StackElem", ptr %176, i64 0, i32 11
  %178 = load i32, ptr %177, align 4, !tbaa !314
  br label %180

179:                                              ; preds = %136, %144, %154
  br label %180

180:                                              ; preds = %164, %179, %154, %112
  %181 = phi i8 [ 0, %112 ], [ 0, %164 ], [ 1, %179 ], [ 0, %154 ]
  %182 = phi i32 [ -1, %112 ], [ %178, %164 ], [ -1, %179 ], [ -1, %154 ]
  %183 = phi ptr [ null, %112 ], [ %165, %164 ], [ null, %179 ], [ null, %154 ]
  %184 = phi ptr [ null, %112 ], [ %169, %164 ], [ null, %179 ], [ null, %154 ]
  %185 = tail call noundef i32 @_ZN11xercesc_2_59ElemStack8addLevelEv(ptr noundef nonnull align 8 dereferenceable(104) %31)
  %186 = getelementptr inbounds %"class.xercesc_2_5::XMLScanner", ptr %0, i64 0, i32 9
  %187 = load i8, ptr %186, align 8, !tbaa !209, !range !177, !noundef !178
  %188 = getelementptr inbounds %"class.xercesc_2_5::XMLScanner", ptr %0, i64 0, i32 61, i32 3
  %189 = load ptr, ptr %188, align 8, !tbaa !233
  %190 = load i32, ptr %32, align 4, !tbaa !212
  %191 = add i32 %190, -1
  %192 = zext i32 %191 to i64
  %193 = getelementptr inbounds ptr, ptr %189, i64 %192
  %194 = load ptr, ptr %193, align 8, !tbaa !126
  %195 = getelementptr inbounds %"struct.xercesc_2_5::ElemStack::StackElem", ptr %194, i64 0, i32 9
  store i8 %187, ptr %195, align 8, !tbaa !310
  %196 = getelementptr inbounds %"class.xercesc_2_5::XMLScanner", ptr %0, i64 0, i32 11
  %197 = load i8, ptr %196, align 2, !range !177
  %198 = icmp ne i8 %197, 0
  %199 = select i1 %34, i1 %198, i1 false
  br i1 %199, label %200, label %215

200:                                              ; preds = %180
