; ModuleID = 'SAX2XMLReaderImpl.cpp'
source_filename = "SAX2XMLReaderImpl.cpp"
target datalayout = "e-m:e-p270:32:32-p271:32:32-p272:64:64-i64:64-f80:128-n8:16:32:64-S128"
target triple = "x86_64-unknown-linux-gnu"

%"class.xercesc_2_5::SAX2XMLReaderImpl" = type { %"class.xercesc_2_5::SAX2XMLReader", %"class.xercesc_2_5::XMLDocumentHandler", %"class.xercesc_2_5::XMLErrorReporter", %"class.xercesc_2_5::XMLEntityHandler", %"class.xercesc_2_5::DocTypeHandler", i8, i8, i8, i8, i8, i32, i32, i32, %"class.xercesc_2_5::VecAttributesImpl", ptr, ptr, ptr, ptr, ptr, ptr, ptr, ptr, ptr, ptr, ptr, ptr, ptr, ptr, ptr, ptr, ptr, ptr, %"class.xercesc_2_5::XMLBufferMgr" }
%"class.xercesc_2_5::SAX2XMLReader" = type { ptr }
%"class.xercesc_2_5::XMLDocumentHandler" = type { ptr }
%"class.xercesc_2_5::XMLErrorReporter" = type { ptr }
%"class.xercesc_2_5::XMLEntityHandler" = type { ptr }
%"class.xercesc_2_5::DocTypeHandler" = type { ptr }
%"class.xercesc_2_5::VecAttributesImpl" = type { %"class.xercesc_2_5::Attributes", i8, i32, ptr, ptr }
%"class.xercesc_2_5::Attributes" = type { ptr }
%"class.xercesc_2_5::XMLBufferMgr" = type { i32, ptr, ptr }
%"class.xercesc_2_5::GrammarResolver" = type { i8, i8, i8, ptr, ptr, ptr, ptr, ptr, ptr, ptr, ptr, ptr }
%"class.xercesc_2_5::XMLScanner" = type { ptr, i8, i8, i8, i8, i8, i8, i8, i8, i8, i8, i8, i8, i8, i8, i8, i8, i32, i32, i32, i32, i32, i32, i32, i32, ptr, i32, i32, i32, i32, i32, ptr, ptr, ptr, ptr, ptr, ptr, ptr, ptr, i8, %"class.xercesc_2_5::ReaderMgr", ptr, i32, ptr, ptr, ptr, ptr, ptr, ptr, ptr, ptr, ptr, i32, ptr, %"class.xercesc_2_5::XMLBufferMgr", %"class.xercesc_2_5::XMLBuffer", %"class.xercesc_2_5::XMLBuffer", %"class.xercesc_2_5::XMLBuffer", %"class.xercesc_2_5::XMLBuffer", %"class.xercesc_2_5::XMLBuffer", %"class.xercesc_2_5::XMLBuffer", %"class.xercesc_2_5::ElemStack" }
%"class.xercesc_2_5::ReaderMgr" = type { %"class.xercesc_2_5::Locator", ptr, ptr, ptr, ptr, i32, ptr, i8, i32, i8, ptr }
%"class.xercesc_2_5::Locator" = type { ptr }
%"class.xercesc_2_5::XMLBuffer" = type { i8, i32, i32, ptr, ptr }
%"class.xercesc_2_5::ElemStack" = type { i32, i32, %"class.xercesc_2_5::XMLStringPool", ptr, i32, i32, i32, i32, i32, i32, i32, ptr, ptr }
%"class.xercesc_2_5::XMLStringPool" = type { %"class.xercesc_2_5::XSerializable", ptr, ptr, ptr, i32, i32 }
%"class.xercesc_2_5::XSerializable" = type { ptr }
%"class.xercesc_2_5::RefStackOf" = type { [8 x i8], %"class.xercesc_2_5::RefVectorOf" }
%"class.xercesc_2_5::RefVectorOf" = type { %"class.xercesc_2_5::BaseRefVectorOf" }
%"class.xercesc_2_5::BaseRefVectorOf" = type { ptr, i8, i32, i32, ptr, ptr }
%"class.xercesc_2_5::BaseRefVectorOf.1" = type { ptr, i8, i32, i32, ptr, ptr }
%"class.xercesc_2_5::ValueStackOf" = type { [8 x i8], %"class.xercesc_2_5::ValueVectorOf" }
%"class.xercesc_2_5::ValueVectorOf" = type { i8, i32, i32, ptr, ptr }
%"class.xercesc_2_5::XMLEntityDecl" = type { %"class.xercesc_2_5::XSerializable", i32, i32, ptr, ptr, ptr, ptr, ptr, ptr, ptr }
%"class.xercesc_2_5::XMLElementDecl" = type <{ %"class.xercesc_2_5::XSerializable", ptr, ptr, i32, i32, i8, [7 x i8] }>
%"class.xercesc_2_5::QName" = type { %"class.xercesc_2_5::XSerializable", ptr, ptr, i32, ptr, i32, ptr, i32, i32 }
%"class.xercesc_2_5::XMLAttr" = type <{ i8, [3 x i8], i32, i32, [4 x i8], ptr, ptr, ptr, ptr, i8, [7 x i8] }>
%"class.xercesc_2_5::XMLAttDef" = type { %"class.xercesc_2_5::XSerializable", i32, i32, i32, i8, i8, i32, ptr, ptr, ptr }
%"class.xercesc_2_5::ArrayJanitor" = type { ptr, ptr }
%"class.xercesc_2_5::XMLNotationDecl" = type { %"class.xercesc_2_5::XSerializable", i32, ptr, ptr, ptr, ptr, i32, ptr }
%"class.xercesc_2_5::XMLResourceIdentifier" = type { i32, ptr, ptr, ptr, ptr }
%"class.xercesc_2_5::SAXParseException" = type { %"class.xercesc_2_5::SAXException", i64, i64, ptr, ptr }
%"class.xercesc_2_5::SAXException" = type { ptr, ptr, ptr }
%"class.xercesc_2_5::XMLException" = type { ptr, i32, ptr, i32, ptr, ptr }

$__clang_call_terminate = comdat any

$_ZN11xercesc_2_511IOExceptionC2EPKcjNS_10XMLExcepts5CodesEPNS_13MemoryManagerE = comdat any

$_ZN11xercesc_2_512ArrayJanitorItED2Ev = comdat any

$_ZN11xercesc_2_512SAXExceptionD2Ev = comdat any

$_ZNK11xercesc_2_517SAX2XMLReaderImpl17getContentHandlerEv = comdat any

$_ZNK11xercesc_2_517SAX2XMLReaderImpl13getDTDHandlerEv = comdat any

$_ZNK11xercesc_2_517SAX2XMLReaderImpl17getEntityResolverEv = comdat any

$_ZNK11xercesc_2_517SAX2XMLReaderImpl15getErrorHandlerEv = comdat any

$_ZNK11xercesc_2_517SAX2XMLReaderImpl21getDeclarationHandlerEv = comdat any

$_ZNK11xercesc_2_517SAX2XMLReaderImpl17getLexicalHandlerEv = comdat any

$_ZNK11xercesc_2_517SAX2XMLReaderImpl24getExitOnFirstFatalErrorEv = comdat any

$_ZNK11xercesc_2_517SAX2XMLReaderImpl28getValidationConstraintFatalEv = comdat any

$_ZN11xercesc_2_517SAX2XMLReaderImpl14getRootGrammarEv = comdat any

$_ZNK11xercesc_2_517SAX2XMLReaderImpl10getURITextEj = comdat any

$_ZNK11xercesc_2_517SAX2XMLReaderImpl12getSrcOffsetEv = comdat any

$_ZNK11xercesc_2_517SAX2XMLReaderImpl20getXMLEntityResolverEv = comdat any

$_ZNK11xercesc_2_517SAX2XMLReaderImpl14getPSVIHandlerEv = comdat any

$_ZN11xercesc_2_518XMLDocumentHandler15elementTypeInfoEPKtS2_ = comdat any

$_ZN11xercesc_2_511IOExceptionD0Ev = comdat any

$_ZNK11xercesc_2_511IOException7getTypeEv = comdat any

$_ZNK11xercesc_2_511IOException9duplicateEv = comdat any

$_ZN11xercesc_2_512SAXExceptionD0Ev = comdat any

$_ZNK11xercesc_2_512SAXException10getMessageEv = comdat any

$_ZN11xercesc_2_511RefVectorOfINS_9XMLBufferEED2Ev = comdat any

$_ZN11xercesc_2_511RefVectorOfINS_9XMLBufferEED0Ev = comdat any

$_ZN11xercesc_2_515BaseRefVectorOfINS_9XMLBufferEE12setElementAtEPS1_j = comdat any

$_ZN11xercesc_2_515BaseRefVectorOfINS_9XMLBufferEE17removeAllElementsEv = comdat any

$_ZN11xercesc_2_515BaseRefVectorOfINS_9XMLBufferEE15removeElementAtEj = comdat any

$_ZN11xercesc_2_515BaseRefVectorOfINS_9XMLBufferEE17removeLastElementEv = comdat any

$_ZN11xercesc_2_515BaseRefVectorOfINS_9XMLBufferEE7cleanupEv = comdat any

$_ZN11xercesc_2_515BaseRefVectorOfINS_9XMLBufferEED2Ev = comdat any

$_ZN11xercesc_2_515BaseRefVectorOfINS_9XMLBufferEED0Ev = comdat any

$_ZN11xercesc_2_530ArrayIndexOutOfBoundsExceptionC2EPKcjNS_10XMLExcepts5CodesEPNS_13MemoryManagerE = comdat any

$_ZN11xercesc_2_530ArrayIndexOutOfBoundsExceptionD0Ev = comdat any

$_ZNK11xercesc_2_530ArrayIndexOutOfBoundsException7getTypeEv = comdat any

$_ZNK11xercesc_2_530ArrayIndexOutOfBoundsException9duplicateEv = comdat any

$_ZN11xercesc_2_511RefVectorOfINS_7XMLAttrEED2Ev = comdat any

$_ZN11xercesc_2_511RefVectorOfINS_7XMLAttrEED0Ev = comdat any

$_ZN11xercesc_2_515BaseRefVectorOfINS_7XMLAttrEE12setElementAtEPS1_j = comdat any

$_ZN11xercesc_2_515BaseRefVectorOfINS_7XMLAttrEE17removeAllElementsEv = comdat any

$_ZN11xercesc_2_515BaseRefVectorOfINS_7XMLAttrEE15removeElementAtEj = comdat any

$_ZN11xercesc_2_515BaseRefVectorOfINS_7XMLAttrEE17removeLastElementEv = comdat any

$_ZN11xercesc_2_515BaseRefVectorOfINS_7XMLAttrEE7cleanupEv = comdat any

$_ZN11xercesc_2_515BaseRefVectorOfINS_7XMLAttrEED2Ev = comdat any

$_ZN11xercesc_2_515BaseRefVectorOfINS_7XMLAttrEED0Ev = comdat any

$_ZN11xercesc_2_519EmptyStackExceptionC2EPKcjNS_10XMLExcepts5CodesEPNS_13MemoryManagerE = comdat any

$_ZN11xercesc_2_519EmptyStackExceptionD0Ev = comdat any

$_ZNK11xercesc_2_519EmptyStackException7getTypeEv = comdat any

$_ZNK11xercesc_2_519EmptyStackException9duplicateEv = comdat any

$_ZTSN11xercesc_2_520OutOfMemoryExceptionE = comdat any

$_ZTSN11xercesc_2_57XMemoryE = comdat any

$_ZTIN11xercesc_2_57XMemoryE = comdat any

$_ZTIN11xercesc_2_520OutOfMemoryExceptionE = comdat any

$_ZTSN11xercesc_2_511IOExceptionE = comdat any

$_ZTIN11xercesc_2_511IOExceptionE = comdat any

$_ZTSN11xercesc_2_524SAXNotSupportedExceptionE = comdat any

$_ZTSN11xercesc_2_512SAXExceptionE = comdat any

$_ZTIN11xercesc_2_512SAXExceptionE = comdat any

$_ZTIN11xercesc_2_524SAXNotSupportedExceptionE = comdat any

$_ZTSN11xercesc_2_525SAXNotRecognizedExceptionE = comdat any

$_ZTIN11xercesc_2_525SAXNotRecognizedExceptionE = comdat any

$_ZTSN11xercesc_2_513SAX2XMLReaderE = comdat any

$_ZTIN11xercesc_2_513SAX2XMLReaderE = comdat any

$_ZTSN11xercesc_2_518XMLDocumentHandlerE = comdat any

$_ZTIN11xercesc_2_518XMLDocumentHandlerE = comdat any

$_ZTSN11xercesc_2_516XMLErrorReporterE = comdat any

$_ZTIN11xercesc_2_516XMLErrorReporterE = comdat any

$_ZTSN11xercesc_2_516XMLEntityHandlerE = comdat any

$_ZTIN11xercesc_2_516XMLEntityHandlerE = comdat any

$_ZTSN11xercesc_2_514DocTypeHandlerE = comdat any

$_ZTIN11xercesc_2_514DocTypeHandlerE = comdat any

$_ZTVN11xercesc_2_511IOExceptionE = comdat any

$_ZTVN11xercesc_2_512SAXExceptionE = comdat any

$_ZTVN11xercesc_2_511RefVectorOfINS_9XMLBufferEEE = comdat any

$_ZTSN11xercesc_2_511RefVectorOfINS_9XMLBufferEEE = comdat any

$_ZTSN11xercesc_2_515BaseRefVectorOfINS_9XMLBufferEEE = comdat any

$_ZTIN11xercesc_2_515BaseRefVectorOfINS_9XMLBufferEEE = comdat any

$_ZTIN11xercesc_2_511RefVectorOfINS_9XMLBufferEEE = comdat any

$_ZTVN11xercesc_2_515BaseRefVectorOfINS_9XMLBufferEEE = comdat any

$_ZTSN11xercesc_2_530ArrayIndexOutOfBoundsExceptionE = comdat any

$_ZTIN11xercesc_2_530ArrayIndexOutOfBoundsExceptionE = comdat any

$_ZTVN11xercesc_2_530ArrayIndexOutOfBoundsExceptionE = comdat any

$_ZTVN11xercesc_2_511RefVectorOfINS_7XMLAttrEEE = comdat any

$_ZTSN11xercesc_2_511RefVectorOfINS_7XMLAttrEEE = comdat any

$_ZTSN11xercesc_2_515BaseRefVectorOfINS_7XMLAttrEEE = comdat any

$_ZTIN11xercesc_2_515BaseRefVectorOfINS_7XMLAttrEEE = comdat any

$_ZTIN11xercesc_2_511RefVectorOfINS_7XMLAttrEEE = comdat any

$_ZTVN11xercesc_2_515BaseRefVectorOfINS_7XMLAttrEEE = comdat any

$_ZTSN11xercesc_2_519EmptyStackExceptionE = comdat any

$_ZTIN11xercesc_2_519EmptyStackExceptionE = comdat any

$_ZTVN11xercesc_2_519EmptyStackExceptionE = comdat any

@_ZTVN11xercesc_2_517SAX2XMLReaderImplE = dso_local unnamed_addr constant { [85 x ptr], [17 x ptr], [6 x ptr], [10 x ptr], [20 x ptr] } { [85 x ptr] [ptr null, ptr @_ZTIN11xercesc_2_517SAX2XMLReaderImplE, ptr @_ZN11xercesc_2_517SAX2XMLReaderImplD2Ev, ptr @_ZN11xercesc_2_517SAX2XMLReaderImplD0Ev, ptr @_ZNK11xercesc_2_517SAX2XMLReaderImpl17getContentHandlerEv, ptr @_ZNK11xercesc_2_517SAX2XMLReaderImpl13getDTDHandlerEv, ptr @_ZNK11xercesc_2_517SAX2XMLReaderImpl17getEntityResolverEv, ptr @_ZNK11xercesc_2_517SAX2XMLReaderImpl15getErrorHandlerEv, ptr @_ZNK11xercesc_2_517SAX2XMLReaderImpl10getFeatureEPKt, ptr @_ZNK11xercesc_2_517SAX2XMLReaderImpl11getPropertyEPKt, ptr @_ZN11xercesc_2_517SAX2XMLReaderImpl17setContentHandlerEPNS_14ContentHandlerE, ptr @_ZN11xercesc_2_517SAX2XMLReaderImpl13setDTDHandlerEPNS_10DTDHandlerE, ptr @_ZN11xercesc_2_517SAX2XMLReaderImpl17setEntityResolverEPNS_14EntityResolverE, ptr @_ZN11xercesc_2_517SAX2XMLReaderImpl15setErrorHandlerEPNS_12ErrorHandlerE, ptr @_ZN11xercesc_2_517SAX2XMLReaderImpl10setFeatureEPKtb, ptr @_ZN11xercesc_2_517SAX2XMLReaderImpl11setPropertyEPKtPv, ptr @_ZN11xercesc_2_517SAX2XMLReaderImpl5parseERKNS_11InputSourceE, ptr @_ZN11xercesc_2_517SAX2XMLReaderImpl5parseEPKt, ptr @_ZN11xercesc_2_517SAX2XMLReaderImpl5parseEPKc, ptr @_ZNK11xercesc_2_517SAX2XMLReaderImpl21getDeclarationHandlerEv, ptr @_ZNK11xercesc_2_517SAX2XMLReaderImpl17getLexicalHandlerEv, ptr @_ZN11xercesc_2_517SAX2XMLReaderImpl21setDeclarationHandlerEPNS_11DeclHandlerE, ptr @_ZN11xercesc_2_517SAX2XMLReaderImpl17setLexicalHandlerEPNS_14LexicalHandlerE, ptr @_ZNK11xercesc_2_517SAX2XMLReaderImpl12getValidatorEv, ptr @_ZNK11xercesc_2_517SAX2XMLReaderImpl13getErrorCountEv, ptr @_ZNK11xercesc_2_517SAX2XMLReaderImpl24getExitOnFirstFatalErrorEv, ptr @_ZNK11xercesc_2_517SAX2XMLReaderImpl28getValidationConstraintFatalEv, ptr @_ZN11xercesc_2_517SAX2XMLReaderImpl10getGrammarEPKt, ptr @_ZN11xercesc_2_517SAX2XMLReaderImpl14getRootGrammarEv, ptr @_ZNK11xercesc_2_517SAX2XMLReaderImpl10getURITextEj, ptr @_ZNK11xercesc_2_517SAX2XMLReaderImpl12getSrcOffsetEv, ptr @_ZN11xercesc_2_517SAX2XMLReaderImpl12setValidatorEPNS_12XMLValidatorE, ptr @_ZN11xercesc_2_517SAX2XMLReaderImpl24setExitOnFirstFatalErrorEb, ptr @_ZN11xercesc_2_517SAX2XMLReaderImpl28setValidationConstraintFatalEb, ptr @_ZN11xercesc_2_517SAX2XMLReaderImpl10parseFirstEPKtRNS_13XMLPScanTokenE, ptr @_ZN11xercesc_2_517SAX2XMLReaderImpl10parseFirstEPKcRNS_13XMLPScanTokenE, ptr @_ZN11xercesc_2_517SAX2XMLReaderImpl10parseFirstERKNS_11InputSourceERNS_13XMLPScanTokenE, ptr @_ZN11xercesc_2_517SAX2XMLReaderImpl9parseNextERNS_13XMLPScanTokenE, ptr @_ZN11xercesc_2_517SAX2XMLReaderImpl10parseResetERNS_13XMLPScanTokenE, ptr @_ZN11xercesc_2_517SAX2XMLReaderImpl11loadGrammarERKNS_11InputSourceEsb, ptr @_ZN11xercesc_2_517SAX2XMLReaderImpl11loadGrammarEPKtsb, ptr @_ZN11xercesc_2_517SAX2XMLReaderImpl11loadGrammarEPKcsb, ptr @_ZN11xercesc_2_517SAX2XMLReaderImpl22resetCachedGrammarPoolEv, ptr @_ZN11xercesc_2_517SAX2XMLReaderImpl20installAdvDocHandlerEPNS_18XMLDocumentHandlerE, ptr @_ZN11xercesc_2_517SAX2XMLReaderImpl19removeAdvDocHandlerEPNS_18XMLDocumentHandlerE, ptr @_ZNK11xercesc_2_517SAX2XMLReaderImpl20getXMLEntityResolverEv, ptr @_ZNK11xercesc_2_517SAX2XMLReaderImpl14getPSVIHandlerEv, ptr @_ZN11xercesc_2_517SAX2XMLReaderImpl20setXMLEntityResolverEPNS_17XMLEntityResolverE, ptr @_ZN11xercesc_2_517SAX2XMLReaderImpl14setPSVIHandlerEPNS_11PSVIHandlerE, ptr @_ZN11xercesc_2_517SAX2XMLReaderImpl13docCharactersEPKtjb, ptr @_ZN11xercesc_2_517SAX2XMLReaderImpl10docCommentEPKt, ptr @_ZN11xercesc_2_517SAX2XMLReaderImpl5docPIEPKtS2_, ptr @_ZN11xercesc_2_517SAX2XMLReaderImpl11endDocumentEv, ptr @_ZN11xercesc_2_517SAX2XMLReaderImpl10endElementERKNS_14XMLElementDeclEjbPKt, ptr @_ZN11xercesc_2_517SAX2XMLReaderImpl18endEntityReferenceERKNS_13XMLEntityDeclE, ptr @_ZN11xercesc_2_517SAX2XMLReaderImpl19ignorableWhitespaceEPKtjb, ptr @_ZN11xercesc_2_517SAX2XMLReaderImpl13resetDocumentEv, ptr @_ZN11xercesc_2_517SAX2XMLReaderImpl13startDocumentEv, ptr @_ZN11xercesc_2_517SAX2XMLReaderImpl12startElementERKNS_14XMLElementDeclEjPKtRKNS_11RefVectorOfINS_7XMLAttrEEEjbb, ptr @_ZN11xercesc_2_517SAX2XMLReaderImpl20startEntityReferenceERKNS_13XMLEntityDeclE, ptr @_ZN11xercesc_2_517SAX2XMLReaderImpl7XMLDeclEPKtS2_S2_S2_, ptr @_ZN11xercesc_2_517SAX2XMLReaderImpl5errorEjPKtNS_16XMLErrorReporter8ErrTypesES2_S2_S2_ll, ptr @_ZN11xercesc_2_517SAX2XMLReaderImpl11resetErrorsEv, ptr @_ZN11xercesc_2_517SAX2XMLReaderImpl14endInputSourceERKNS_11InputSourceE, ptr @_ZN11xercesc_2_517SAX2XMLReaderImpl14expandSystemIdEPKtRNS_9XMLBufferE, ptr @_ZN11xercesc_2_517SAX2XMLReaderImpl13resetEntitiesEv, ptr @_ZN11xercesc_2_517SAX2XMLReaderImpl13resolveEntityEPKtS2_S2_, ptr @_ZN11xercesc_2_517SAX2XMLReaderImpl13resolveEntityEPNS_21XMLResourceIdentifierE, ptr @_ZN11xercesc_2_517SAX2XMLReaderImpl16startInputSourceERKNS_11InputSourceE, ptr @_ZN11xercesc_2_517SAX2XMLReaderImpl6attDefERKNS_14DTDElementDeclERKNS_9DTDAttDefEb, ptr @_ZN11xercesc_2_517SAX2XMLReaderImpl14doctypeCommentEPKt, ptr @_ZN11xercesc_2_517SAX2XMLReaderImpl11doctypeDeclERKNS_14DTDElementDeclEPKtS5_bb, ptr @_ZN11xercesc_2_517SAX2XMLReaderImpl9doctypePIEPKtS2_, ptr @_ZN11xercesc_2_517SAX2XMLReaderImpl17doctypeWhitespaceEPKtj, ptr @_ZN11xercesc_2_517SAX2XMLReaderImpl11elementDeclERKNS_14DTDElementDeclEb, ptr @_ZN11xercesc_2_517SAX2XMLReaderImpl10endAttListERKNS_14DTDElementDeclE, ptr @_ZN11xercesc_2_517SAX2XMLReaderImpl12endIntSubsetEv, ptr @_ZN11xercesc_2_517SAX2XMLReaderImpl12endExtSubsetEv, ptr @_ZN11xercesc_2_517SAX2XMLReaderImpl10entityDeclERKNS_13DTDEntityDeclEbb, ptr @_ZN11xercesc_2_517SAX2XMLReaderImpl12resetDocTypeEv, ptr @_ZN11xercesc_2_517SAX2XMLReaderImpl12notationDeclERKNS_15XMLNotationDeclEb, ptr @_ZN11xercesc_2_517SAX2XMLReaderImpl12startAttListERKNS_14DTDElementDeclE, ptr @_ZN11xercesc_2_517SAX2XMLReaderImpl14startIntSubsetEv, ptr @_ZN11xercesc_2_517SAX2XMLReaderImpl14startExtSubsetEv, ptr @_ZN11xercesc_2_517SAX2XMLReaderImpl8TextDeclEPKtS2_], [17 x ptr] [ptr inttoptr (i64 -8 to ptr), ptr @_ZTIN11xercesc_2_517SAX2XMLReaderImplE, ptr @_ZThn8_N11xercesc_2_517SAX2XMLReaderImplD1Ev, ptr @_ZThn8_N11xercesc_2_517SAX2XMLReaderImplD0Ev, ptr @_ZThn8_N11xercesc_2_517SAX2XMLReaderImpl13docCharactersEPKtjb, ptr @_ZThn8_N11xercesc_2_517SAX2XMLReaderImpl10docCommentEPKt, ptr @_ZThn8_N11xercesc_2_517SAX2XMLReaderImpl5docPIEPKtS2_, ptr @_ZThn8_N11xercesc_2_517SAX2XMLReaderImpl11endDocumentEv, ptr @_ZThn8_N11xercesc_2_517SAX2XMLReaderImpl10endElementERKNS_14XMLElementDeclEjbPKt, ptr @_ZThn8_N11xercesc_2_517SAX2XMLReaderImpl18endEntityReferenceERKNS_13XMLEntityDeclE, ptr @_ZThn8_N11xercesc_2_517SAX2XMLReaderImpl19ignorableWhitespaceEPKtjb, ptr @_ZThn8_N11xercesc_2_517SAX2XMLReaderImpl13resetDocumentEv, ptr @_ZThn8_N11xercesc_2_517SAX2XMLReaderImpl13startDocumentEv, ptr @_ZThn8_N11xercesc_2_517SAX2XMLReaderImpl12startElementERKNS_14XMLElementDeclEjPKtRKNS_11RefVectorOfINS_7XMLAttrEEEjbb, ptr @_ZThn8_N11xercesc_2_517SAX2XMLReaderImpl20startEntityReferenceERKNS_13XMLEntityDeclE, ptr @_ZThn8_N11xercesc_2_517SAX2XMLReaderImpl7XMLDeclEPKtS2_S2_S2_, ptr @_ZN11xercesc_2_518XMLDocumentHandler15elementTypeInfoEPKtS2_], [6 x ptr] [ptr inttoptr (i64 -16 to ptr), ptr @_ZTIN11xercesc_2_517SAX2XMLReaderImplE, ptr @_ZThn16_N11xercesc_2_517SAX2XMLReaderImplD1Ev, ptr @_ZThn16_N11xercesc_2_517SAX2XMLReaderImplD0Ev, ptr @_ZThn16_N11xercesc_2_517SAX2XMLReaderImpl5errorEjPKtNS_16XMLErrorReporter8ErrTypesES2_S2_S2_ll, ptr @_ZThn16_N11xercesc_2_517SAX2XMLReaderImpl11resetErrorsEv], [10 x ptr] [ptr inttoptr (i64 -24 to ptr), ptr @_ZTIN11xercesc_2_517SAX2XMLReaderImplE, ptr @_ZThn24_N11xercesc_2_517SAX2XMLReaderImplD1Ev, ptr @_ZThn24_N11xercesc_2_517SAX2XMLReaderImplD0Ev, ptr @_ZThn24_N11xercesc_2_517SAX2XMLReaderImpl14endInputSourceERKNS_11InputSourceE, ptr @_ZThn24_N11xercesc_2_517SAX2XMLReaderImpl14expandSystemIdEPKtRNS_9XMLBufferE, ptr @_ZThn24_N11xercesc_2_517SAX2XMLReaderImpl13resetEntitiesEv, ptr @_ZThn24_N11xercesc_2_517SAX2XMLReaderImpl13resolveEntityEPKtS2_S2_, ptr @_ZThn24_N11xercesc_2_517SAX2XMLReaderImpl13resolveEntityEPNS_21XMLResourceIdentifierE, ptr @_ZThn24_N11xercesc_2_517SAX2XMLReaderImpl16startInputSourceERKNS_11InputSourceE], [20 x ptr] [ptr inttoptr (i64 -32 to ptr), ptr @_ZTIN11xercesc_2_517SAX2XMLReaderImplE, ptr @_ZThn32_N11xercesc_2_517SAX2XMLReaderImplD1Ev, ptr @_ZThn32_N11xercesc_2_517SAX2XMLReaderImplD0Ev, ptr @_ZThn32_N11xercesc_2_517SAX2XMLReaderImpl6attDefERKNS_14DTDElementDeclERKNS_9DTDAttDefEb, ptr @_ZThn32_N11xercesc_2_517SAX2XMLReaderImpl14doctypeCommentEPKt, ptr @_ZThn32_N11xercesc_2_517SAX2XMLReaderImpl11doctypeDeclERKNS_14DTDElementDeclEPKtS5_bb, ptr @_ZThn32_N11xercesc_2_517SAX2XMLReaderImpl9doctypePIEPKtS2_, ptr @_ZThn32_N11xercesc_2_517SAX2XMLReaderImpl17doctypeWhitespaceEPKtj, ptr @_ZThn32_N11xercesc_2_517SAX2XMLReaderImpl11elementDeclERKNS_14DTDElementDeclEb, ptr @_ZThn32_N11xercesc_2_517SAX2XMLReaderImpl10endAttListERKNS_14DTDElementDeclE, ptr @_ZThn32_N11xercesc_2_517SAX2XMLReaderImpl12endIntSubsetEv, ptr @_ZThn32_N11xercesc_2_517SAX2XMLReaderImpl12endExtSubsetEv, ptr @_ZThn32_N11xercesc_2_517SAX2XMLReaderImpl10entityDeclERKNS_13DTDEntityDeclEbb, ptr @_ZThn32_N11xercesc_2_517SAX2XMLReaderImpl12resetDocTypeEv, ptr @_ZThn32_N11xercesc_2_517SAX2XMLReaderImpl12notationDeclERKNS_15XMLNotationDeclEb, ptr @_ZThn32_N11xercesc_2_517SAX2XMLReaderImpl12startAttListERKNS_14DTDElementDeclE, ptr @_ZThn32_N11xercesc_2_517SAX2XMLReaderImpl14startIntSubsetEv, ptr @_ZThn32_N11xercesc_2_517SAX2XMLReaderImpl14startExtSubsetEv, ptr @_ZThn32_N11xercesc_2_517SAX2XMLReaderImpl8TextDeclEPKtS2_] }, align 8, !type !0, !type !1, !type !2, !type !3, !type !4, !type !5, !type !6, !type !7, !type !8, !type !9, !type !10, !type !11, !type !12, !type !13, !type !14, !type !15, !type !16, !type !17, !type !18, !type !19, !type !20, !type !21, !type !22, !type !23, !type !24, !type !25, !type !26, !type !27, !type !28, !type !29, !type !30, !type !31, !type !32, !type !33, !type !34, !type !35, !type !36, !type !37, !type !38, !type !39, !type !40, !type !41, !type !42, !type !43, !type !44, !type !45, !type !46, !type !47, !type !48, !type !49, !type !50, !type !51, !type !52, !type !53, !type !54, !type !55, !type !56, !type !57, !type !58, !type !59, !type !60, !type !61, !type !62, !type !63, !type !64, !type !65, !type !66, !type !67, !type !68, !type !69, !type !70, !type !71, !type !72, !type !73, !type !74, !type !75, !type !76, !type !77, !type !78, !type !79, !type !80, !type !81, !type !82, !type !83, !type !84, !type !85, !type !86, !type !87, !type !88, !type !89, !type !90, !type !91, !type !92, !type !93, !type !94, !type !95, !type !96, !type !97, !type !98, !type !99, !type !100, !type !101, !type !102, !type !103, !type !104, !type !105, !type !106, !type !107, !type !108, !type !109, !type !110, !type !111, !type !112, !type !113, !type !114, !type !115, !type !116, !type !117, !type !118, !type !119, !type !120, !type !121, !type !122, !type !123, !type !124, !type !125, !type !126, !type !127, !type !128, !type !129, !type !130, !type !131, !type !132, !type !133, !type !134, !type !135, !type !136, !type !137, !type !138, !type !139, !type !140, !type !141, !type !142, !type !143, !type !144, !type !145, !type !146, !type !147, !type !148, !type !149, !type !150, !type !151, !type !152, !type !153, !type !154, !type !155, !type !156, !type !157, !type !158, !type !159, !type !160, !type !161, !type !162, !type !163, !type !164, !type !165, !type !166, !type !167, !type !168, !type !169, !type !170, !type !171, !type !172, !type !173, !type !174, !type !175, !type !176, !type !177, !type !178, !type !179, !type !180, !type !181, !type !182, !type !183, !type !184, !type !185, !type !186, !type !187, !type !188, !type !189, !type !190, !type !191, !type !192, !type !193, !type !194, !type !195, !type !196, !type !197, !type !198, !type !199, !type !200, !type !201, !type !202, !type !203, !type !204, !type !205, !type !206, !type !207, !type !208, !type !209, !type !210, !type !211, !type !212, !type !213, !type !214, !type !215, !type !216, !type !217, !type !218, !type !219, !type !220, !type !221, !type !222, !type !223, !type !224, !type !225, !type !226, !type !227, !type !228, !type !229, !type !230, !type !231, !type !232, !type !233, !type !234, !type !235, !type !236, !type !237, !type !238, !type !239, !type !240, !type !241, !type !242, !type !243, !type !244, !type !245, !type !246, !type !247, !type !248, !type !249, !type !250, !type !251, !type !252, !type !253, !type !254, !type !255, !type !256, !type !257, !type !258, !type !259, !type !260, !type !261, !type !262, !type !263, !type !264, !type !265, !type !266, !type !267, !type !268, !type !269, !type !270, !type !271, !type !272, !type !273, !type !274, !type !275, !type !276, !type !277, !type !278, !type !279, !type !280, !type !281, !type !282, !type !283, !type !284, !type !285, !type !286, !type !287, !type !288, !type !289, !type !290, !type !291, !type !292, !type !293, !type !294, !type !295, !type !296, !type !297, !type !298, !type !299, !type !300, !type !301, !type !302, !type !303, !type !304, !type !305, !type !306, !type !307, !type !308, !type !309, !type !310, !type !311, !type !312, !type !313, !type !314, !type !315, !type !316, !type !317, !type !318, !type !319, !type !320, !type !321, !type !322, !type !323, !type !324, !type !325, !type !326, !type !327, !type !328, !type !329, !type !330, !type !331, !type !332, !type !333, !type !334, !type !335, !type !336, !type !337, !type !338, !type !339, !type !340, !type !341, !type !342, !type !343, !type !344, !type !345, !type !346, !type !347, !type !348, !type !349, !type !350, !type !351, !type !352, !type !353, !type !354, !type !355, !type !356, !type !357, !type !358, !type !359, !type !360, !type !361, !type !362, !type !363, !type !364, !type !365, !type !366, !type !367, !type !368, !type !369, !type !370, !type !371, !type !372, !type !373, !type !374, !type !375, !type !376, !type !377, !type !378, !type !379, !type !380, !type !381, !type !382, !type !383, !type !384, !type !385, !type !386, !type !387, !type !388, !type !389, !type !390, !type !391, !type !392, !type !393, !type !394, !type !395, !type !396, !type !397, !type !398, !type !399, !type !400, !type !401, !type !402, !type !403, !type !404, !type !405, !type !406, !type !407, !type !408, !type !409, !type !410, !type !411, !type !412, !type !413, !type !414, !type !415, !type !416, !type !417, !type !418, !type !419, !type !420, !type !421, !type !422, !type !423, !type !424, !type !425, !type !426, !type !427, !type !428, !type !429, !type !430, !type !431, !type !432, !type !433, !type !434, !type !435, !type !436, !type !437, !type !438, !type !439, !type !440, !type !441, !type !442, !type !443, !type !444, !type !445, !type !446, !type !447, !type !448, !type !449, !type !450, !type !451, !type !452, !type !453, !type !454, !type !455, !type !456, !type !457, !type !458, !type !459, !type !460, !type !461, !type !462, !type !463, !type !464, !type !465, !type !466, !type !467, !type !468, !type !469, !type !470, !type !471, !type !472, !type !473, !type !474, !type !475, !type !476, !type !477, !type !478, !type !479, !type !480, !type !481, !type !482, !type !483, !type !484, !type !485, !type !486, !type !487, !type !488, !type !489, !type !490, !type !491, !type !492, !type !493, !type !494, !type !495, !type !496, !type !497, !type !498, !type !499, !type !500, !type !501, !type !502, !type !503, !type !504, !type !505, !type !506, !type !507, !type !508, !type !509, !type !510, !type !511, !type !512, !type !513, !type !514, !type !515, !type !516, !type !517, !type !518, !type !519, !type !520, !type !521, !type !522, !type !523, !type !524, !type !525, !type !526, !type !527, !type !528, !type !529, !type !530, !type !531, !type !532, !type !533, !type !534, !type !535, !type !536, !type !537, !type !538, !type !539, !type !540, !type !541, !type !542, !type !543, !type !544, !type !545, !type !546, !type !547, !type !548, !type !549, !type !550, !type !551, !type !552, !type !553, !type !554, !type !555, !type !556, !type !557, !type !558, !type !559, !type !560, !type !561, !type !562, !type !563, !type !564, !type !565, !type !566, !type !567, !type !568, !type !569, !type !570, !type !571, !type !572, !type !573, !type !574, !type !575, !type !576, !type !577, !type !578, !type !579, !type !580, !type !581, !type !582, !type !583, !type !584, !type !585, !type !586, !type !587, !type !588, !type !589, !type !590, !type !591, !type !592, !type !593, !type !594, !type !595, !type !596, !type !597, !type !598, !type !599, !type !600, !type !601, !type !602, !type !603, !type !604, !type !605, !type !606, !type !607, !type !608, !type !609, !type !610, !type !611, !type !612, !type !613, !type !614, !type !615, !type !616, !type !617, !type !618, !type !619, !type !620, !type !621, !type !622, !type !623, !type !624, !type !625, !type !626, !type !627, !type !628, !type !629, !type !630, !type !631, !type !632, !type !633, !type !634, !type !635, !type !636, !type !637, !type !638, !type !639, !type !640, !type !641, !type !642, !type !643, !type !644, !type !645, !type !646, !type !647, !type !648, !type !649, !type !650, !type !651, !type !652, !type !653, !type !654, !type !655, !type !656, !type !657, !type !658, !type !659, !type !660, !type !661, !type !662, !type !663, !type !664, !type !665, !type !666, !type !667, !type !668, !type !669, !type !670, !type !671, !type !672, !type !673, !type !674, !type !675, !type !676, !type !677, !type !678, !type !679, !type !680, !type !681, !type !682, !type !683, !type !684, !type !685, !type !686, !type !687, !type !688, !type !689, !type !690, !type !691, !type !692, !type !693, !type !694, !type !695, !type !696, !type !697, !type !698, !type !699, !type !700, !type !701, !type !702, !type !703, !type !704, !type !705, !type !706, !type !707, !type !708, !type !709, !type !710, !type !711, !type !712, !type !713
@_ZTVN10__cxxabiv120__si_class_type_infoE = external global ptr
@_ZTSN11xercesc_2_520OutOfMemoryExceptionE = linkonce_odr dso_local constant [38 x i8] c"N11xercesc_2_520OutOfMemoryExceptionE\00", comdat, align 1
@_ZTVN10__cxxabiv117__class_type_infoE = external global ptr
@_ZTSN11xercesc_2_57XMemoryE = linkonce_odr dso_local constant [24 x i8] c"N11xercesc_2_57XMemoryE\00", comdat, align 1
@_ZTIN11xercesc_2_57XMemoryE = linkonce_odr dso_local constant { ptr, ptr } { ptr getelementptr inbounds (ptr, ptr @_ZTVN10__cxxabiv117__class_type_infoE, i64 2), ptr @_ZTSN11xercesc_2_57XMemoryE }, comdat, align 8
@_ZTIN11xercesc_2_520OutOfMemoryExceptionE = linkonce_odr dso_local constant { ptr, ptr, ptr } { ptr getelementptr inbounds (ptr, ptr @_ZTVN10__cxxabiv120__si_class_type_infoE, i64 2), ptr @_ZTSN11xercesc_2_520OutOfMemoryExceptionE, ptr @_ZTIN11xercesc_2_57XMemoryE }, comdat, align 8
@.str = private unnamed_addr constant [22 x i8] c"SAX2XMLReaderImpl.cpp\00", align 1
@_ZTSN11xercesc_2_511IOExceptionE = linkonce_odr dso_local constant [29 x i8] c"N11xercesc_2_511IOExceptionE\00", comdat, align 1
@_ZTIN11xercesc_2_512XMLExceptionE = external constant ptr
@_ZTIN11xercesc_2_511IOExceptionE = linkonce_odr dso_local constant { ptr, ptr, ptr } { ptr getelementptr inbounds (ptr, ptr @_ZTVN10__cxxabiv120__si_class_type_infoE, i64 2), ptr @_ZTSN11xercesc_2_511IOExceptionE, ptr @_ZTIN11xercesc_2_512XMLExceptionE }, comdat, align 8
@_ZN11xercesc_2_56XMLUni13fgXMLNSStringE = external local_unnamed_addr constant [0 x i16], align 2
@_ZN11xercesc_2_56XMLUni15fgZeroLenStringE = external constant [0 x i16], align 2
@_ZN11xercesc_2_56XMLUni12fgNullStringE = external constant [0 x i16], align 2
@_ZN11xercesc_2_56XMLUni16fgNotationStringE = external constant [0 x i16], align 2
@_ZN11xercesc_2_5L13gDTDEntityStrE = internal constant [6 x i16] [i16 91, i16 100, i16 116, i16 100, i16 93, i16 0], align 2
@_ZTIN11xercesc_2_517SAXParseExceptionE = external constant ptr
@.str.1 = private unnamed_addr constant [52 x i8] c"Feature modification is not supported during parse.\00", align 1
@_ZTSN11xercesc_2_524SAXNotSupportedExceptionE = linkonce_odr dso_local constant [42 x i8] c"N11xercesc_2_524SAXNotSupportedExceptionE\00", comdat, align 1
@_ZTSN11xercesc_2_512SAXExceptionE = linkonce_odr dso_local constant [30 x i8] c"N11xercesc_2_512SAXExceptionE\00", comdat, align 1
@_ZTIN11xercesc_2_512SAXExceptionE = linkonce_odr dso_local constant { ptr, ptr, ptr } { ptr getelementptr inbounds (ptr, ptr @_ZTVN10__cxxabiv120__si_class_type_infoE, i64 2), ptr @_ZTSN11xercesc_2_512SAXExceptionE, ptr @_ZTIN11xercesc_2_57XMemoryE }, comdat, align 8
@_ZTIN11xercesc_2_524SAXNotSupportedExceptionE = linkonce_odr dso_local constant { ptr, ptr, ptr } { ptr getelementptr inbounds (ptr, ptr @_ZTVN10__cxxabiv120__si_class_type_infoE, i64 2), ptr @_ZTSN11xercesc_2_524SAXNotSupportedExceptionE, ptr @_ZTIN11xercesc_2_512SAXExceptionE }, comdat, align 8
@_ZN11xercesc_2_56XMLUni20fgSAX2CoreNameSpacesE = external constant [0 x i16], align 2
@_ZN11xercesc_2_56XMLUni20fgSAX2CoreValidationE = external constant [0 x i16], align 2
@_ZN11xercesc_2_56XMLUni27fgSAX2CoreNameSpacePrefixesE = external constant [0 x i16], align 2
@_ZN11xercesc_2_56XMLUni15fgXercesDynamicE = external constant [0 x i16], align 2
@_ZN11xercesc_2_56XMLUni14fgXercesSchemaE = external constant [0 x i16], align 2
@_ZN11xercesc_2_56XMLUni26fgXercesSchemaFullCheckingE = external constant [0 x i16], align 2
@_ZN11xercesc_2_56XMLUni23fgXercesLoadExternalDTDE = external constant [0 x i16], align 2
@_ZN11xercesc_2_56XMLUni31fgXercesContinueAfterFatalErrorE = external constant [0 x i16], align 2
@_ZN11xercesc_2_56XMLUni30fgXercesValidationErrorAsFatalE = external constant [0 x i16], align 2
@_ZN11xercesc_2_56XMLUni29fgXercesCacheGrammarFromParseE = external constant [0 x i16], align 2
@_ZN11xercesc_2_56XMLUni31fgXercesUseCachedGrammarInParseE = external constant [0 x i16], align 2
@_ZN11xercesc_2_56XMLUni23fgXercesCalculateSrcOfsE = external constant [0 x i16], align 2
@_ZN11xercesc_2_56XMLUni29fgXercesStandardUriConformantE = external constant [0 x i16], align 2
@.str.2 = private unnamed_addr constant [16 x i8] c"Unknown Feature\00", align 1
@_ZTSN11xercesc_2_525SAXNotRecognizedExceptionE = linkonce_odr dso_local constant [43 x i8] c"N11xercesc_2_525SAXNotRecognizedExceptionE\00", comdat, align 1
@_ZTIN11xercesc_2_525SAXNotRecognizedExceptionE = linkonce_odr dso_local constant { ptr, ptr, ptr } { ptr getelementptr inbounds (ptr, ptr @_ZTVN10__cxxabiv120__si_class_type_infoE, i64 2), ptr @_ZTSN11xercesc_2_525SAXNotRecognizedExceptionE, ptr @_ZTIN11xercesc_2_512SAXExceptionE }, comdat, align 8
@.str.3 = private unnamed_addr constant [53 x i8] c"Property modification is not supported during parse.\00", align 1
@_ZN11xercesc_2_56XMLUni36fgXercesSchemaExternalSchemaLocationE = external constant [0 x i16], align 2
@_ZN11xercesc_2_56XMLUni47fgXercesSchemaExternalNoNameSpaceSchemaLocationE = external constant [0 x i16], align 2
@_ZN11xercesc_2_56XMLUni23fgXercesSecurityManagerE = external constant [0 x i16], align 2
@_ZN11xercesc_2_56XMLUni19fgXercesScannerNameE = external local_unnamed_addr constant [0 x i16], align 2
@.str.4 = private unnamed_addr constant [17 x i8] c"Unknown Property\00", align 1
@_ZTVN10__cxxabiv121__vmi_class_type_infoE = external global ptr
@_ZTSN11xercesc_2_517SAX2XMLReaderImplE = dso_local constant [35 x i8] c"N11xercesc_2_517SAX2XMLReaderImplE\00", align 1
@_ZTSN11xercesc_2_513SAX2XMLReaderE = linkonce_odr dso_local constant [31 x i8] c"N11xercesc_2_513SAX2XMLReaderE\00", comdat, align 1
@_ZTIN11xercesc_2_513SAX2XMLReaderE = linkonce_odr dso_local constant { ptr, ptr } { ptr getelementptr inbounds (ptr, ptr @_ZTVN10__cxxabiv117__class_type_infoE, i64 2), ptr @_ZTSN11xercesc_2_513SAX2XMLReaderE }, comdat, align 8
@_ZTSN11xercesc_2_518XMLDocumentHandlerE = linkonce_odr dso_local constant [36 x i8] c"N11xercesc_2_518XMLDocumentHandlerE\00", comdat, align 1
@_ZTIN11xercesc_2_518XMLDocumentHandlerE = linkonce_odr dso_local constant { ptr, ptr } { ptr getelementptr inbounds (ptr, ptr @_ZTVN10__cxxabiv117__class_type_infoE, i64 2), ptr @_ZTSN11xercesc_2_518XMLDocumentHandlerE }, comdat, align 8
@_ZTSN11xercesc_2_516XMLErrorReporterE = linkonce_odr dso_local constant [34 x i8] c"N11xercesc_2_516XMLErrorReporterE\00", comdat, align 1
@_ZTIN11xercesc_2_516XMLErrorReporterE = linkonce_odr dso_local constant { ptr, ptr } { ptr getelementptr inbounds (ptr, ptr @_ZTVN10__cxxabiv117__class_type_infoE, i64 2), ptr @_ZTSN11xercesc_2_516XMLErrorReporterE }, comdat, align 8
@_ZTSN11xercesc_2_516XMLEntityHandlerE = linkonce_odr dso_local constant [34 x i8] c"N11xercesc_2_516XMLEntityHandlerE\00", comdat, align 1
@_ZTIN11xercesc_2_516XMLEntityHandlerE = linkonce_odr dso_local constant { ptr, ptr } { ptr getelementptr inbounds (ptr, ptr @_ZTVN10__cxxabiv117__class_type_infoE, i64 2), ptr @_ZTSN11xercesc_2_516XMLEntityHandlerE }, comdat, align 8
@_ZTSN11xercesc_2_514DocTypeHandlerE = linkonce_odr dso_local constant [32 x i8] c"N11xercesc_2_514DocTypeHandlerE\00", comdat, align 1
@_ZTIN11xercesc_2_514DocTypeHandlerE = linkonce_odr dso_local constant { ptr, ptr } { ptr getelementptr inbounds (ptr, ptr @_ZTVN10__cxxabiv117__class_type_infoE, i64 2), ptr @_ZTSN11xercesc_2_514DocTypeHandlerE }, comdat, align 8
@_ZTIN11xercesc_2_517SAX2XMLReaderImplE = dso_local constant { ptr, ptr, i32, i32, ptr, i64, ptr, i64, ptr, i64, ptr, i64, ptr, i64, ptr, i64 } { ptr getelementptr inbounds (ptr, ptr @_ZTVN10__cxxabiv121__vmi_class_type_infoE, i64 2), ptr @_ZTSN11xercesc_2_517SAX2XMLReaderImplE, i32 0, i32 6, ptr @_ZTIN11xercesc_2_57XMemoryE, i64 2, ptr @_ZTIN11xercesc_2_513SAX2XMLReaderE, i64 2, ptr @_ZTIN11xercesc_2_518XMLDocumentHandlerE, i64 2050, ptr @_ZTIN11xercesc_2_516XMLErrorReporterE, i64 4098, ptr @_ZTIN11xercesc_2_516XMLEntityHandlerE, i64 6146, ptr @_ZTIN11xercesc_2_514DocTypeHandlerE, i64 8194 }, align 8
@_ZTVN11xercesc_2_511IOExceptionE = linkonce_odr dso_local unnamed_addr constant { [6 x ptr] } { [6 x ptr] [ptr null, ptr @_ZTIN11xercesc_2_511IOExceptionE, ptr @_ZN11xercesc_2_512XMLExceptionD2Ev, ptr @_ZN11xercesc_2_511IOExceptionD0Ev, ptr @_ZNK11xercesc_2_511IOException7getTypeEv, ptr @_ZNK11xercesc_2_511IOException9duplicateEv] }, comdat, align 8, !type !714, !type !715, !type !716, !type !717, !type !718, !type !719
@_ZN11xercesc_2_56XMLUni18fgIOException_NameE = external constant [0 x i16], align 2
@_ZTVN11xercesc_2_512SAXExceptionE = linkonce_odr dso_local unnamed_addr constant { [5 x ptr] } { [5 x ptr] [ptr null, ptr @_ZTIN11xercesc_2_512SAXExceptionE, ptr @_ZN11xercesc_2_512SAXExceptionD2Ev, ptr @_ZN11xercesc_2_512SAXExceptionD0Ev, ptr @_ZNK11xercesc_2_512SAXException10getMessageEv] }, comdat, align 8, !type !720, !type !721
@_ZTVN11xercesc_2_511RefVectorOfINS_9XMLBufferEEE = linkonce_odr dso_local unnamed_addr constant { [9 x ptr] } { [9 x ptr] [ptr null, ptr @_ZTIN11xercesc_2_511RefVectorOfINS_9XMLBufferEEE, ptr @_ZN11xercesc_2_511RefVectorOfINS_9XMLBufferEED2Ev, ptr @_ZN11xercesc_2_511RefVectorOfINS_9XMLBufferEED0Ev, ptr @_ZN11xercesc_2_515BaseRefVectorOfINS_9XMLBufferEE12setElementAtEPS1_j, ptr @_ZN11xercesc_2_515BaseRefVectorOfINS_9XMLBufferEE17removeAllElementsEv, ptr @_ZN11xercesc_2_515BaseRefVectorOfINS_9XMLBufferEE15removeElementAtEj, ptr @_ZN11xercesc_2_515BaseRefVectorOfINS_9XMLBufferEE17removeLastElementEv, ptr @_ZN11xercesc_2_515BaseRefVectorOfINS_9XMLBufferEE7cleanupEv] }, comdat, align 8, !type !722, !type !723, !type !724, !type !725, !type !726, !type !727, !type !728, !type !729, !type !730, !type !731, !type !732, !type !733
@_ZTSN11xercesc_2_511RefVectorOfINS_9XMLBufferEEE = linkonce_odr dso_local constant [45 x i8] c"N11xercesc_2_511RefVectorOfINS_9XMLBufferEEE\00", comdat, align 1
@_ZTSN11xercesc_2_515BaseRefVectorOfINS_9XMLBufferEEE = linkonce_odr dso_local constant [49 x i8] c"N11xercesc_2_515BaseRefVectorOfINS_9XMLBufferEEE\00", comdat, align 1
@_ZTIN11xercesc_2_515BaseRefVectorOfINS_9XMLBufferEEE = linkonce_odr dso_local constant { ptr, ptr, ptr } { ptr getelementptr inbounds (ptr, ptr @_ZTVN10__cxxabiv120__si_class_type_infoE, i64 2), ptr @_ZTSN11xercesc_2_515BaseRefVectorOfINS_9XMLBufferEEE, ptr @_ZTIN11xercesc_2_57XMemoryE }, comdat, align 8
@_ZTIN11xercesc_2_511RefVectorOfINS_9XMLBufferEEE = linkonce_odr dso_local constant { ptr, ptr, ptr } { ptr getelementptr inbounds (ptr, ptr @_ZTVN10__cxxabiv120__si_class_type_infoE, i64 2), ptr @_ZTSN11xercesc_2_511RefVectorOfINS_9XMLBufferEEE, ptr @_ZTIN11xercesc_2_515BaseRefVectorOfINS_9XMLBufferEEE }, comdat, align 8
@_ZTVN11xercesc_2_515BaseRefVectorOfINS_9XMLBufferEEE = linkonce_odr dso_local unnamed_addr constant { [9 x ptr] } { [9 x ptr] [ptr null, ptr @_ZTIN11xercesc_2_515BaseRefVectorOfINS_9XMLBufferEEE, ptr @_ZN11xercesc_2_515BaseRefVectorOfINS_9XMLBufferEED2Ev, ptr @_ZN11xercesc_2_515BaseRefVectorOfINS_9XMLBufferEED0Ev, ptr @_ZN11xercesc_2_515BaseRefVectorOfINS_9XMLBufferEE12setElementAtEPS1_j, ptr @_ZN11xercesc_2_515BaseRefVectorOfINS_9XMLBufferEE17removeAllElementsEv, ptr @_ZN11xercesc_2_515BaseRefVectorOfINS_9XMLBufferEE15removeElementAtEj, ptr @_ZN11xercesc_2_515BaseRefVectorOfINS_9XMLBufferEE17removeLastElementEv, ptr @_ZN11xercesc_2_515BaseRefVectorOfINS_9XMLBufferEE7cleanupEv] }, comdat, align 8, !type !728, !type !729, !type !730, !type !731, !type !732, !type !733
@.str.5 = private unnamed_addr constant [33 x i8] c"./xercesc/util/BaseRefVectorOf.c\00", align 1
@_ZTSN11xercesc_2_530ArrayIndexOutOfBoundsExceptionE = linkonce_odr dso_local constant [48 x i8] c"N11xercesc_2_530ArrayIndexOutOfBoundsExceptionE\00", comdat, align 1
@_ZTIN11xercesc_2_530ArrayIndexOutOfBoundsExceptionE = linkonce_odr dso_local constant { ptr, ptr, ptr } { ptr getelementptr inbounds (ptr, ptr @_ZTVN10__cxxabiv120__si_class_type_infoE, i64 2), ptr @_ZTSN11xercesc_2_530ArrayIndexOutOfBoundsExceptionE, ptr @_ZTIN11xercesc_2_512XMLExceptionE }, comdat, align 8
@_ZTVN11xercesc_2_530ArrayIndexOutOfBoundsExceptionE = linkonce_odr dso_local unnamed_addr constant { [6 x ptr] } { [6 x ptr] [ptr null, ptr @_ZTIN11xercesc_2_530ArrayIndexOutOfBoundsExceptionE, ptr @_ZN11xercesc_2_512XMLExceptionD2Ev, ptr @_ZN11xercesc_2_530ArrayIndexOutOfBoundsExceptionD0Ev, ptr @_ZNK11xercesc_2_530ArrayIndexOutOfBoundsException7getTypeEv, ptr @_ZNK11xercesc_2_530ArrayIndexOutOfBoundsException9duplicateEv] }, comdat, align 8, !type !717, !type !718, !type !719, !type !734, !type !735, !type !736
@_ZN11xercesc_2_56XMLUni37fgArrayIndexOutOfBoundsException_NameE = external constant [0 x i16], align 2
@_ZTVN11xercesc_2_511RefVectorOfINS_7XMLAttrEEE = linkonce_odr dso_local unnamed_addr constant { [9 x ptr] } { [9 x ptr] [ptr null, ptr @_ZTIN11xercesc_2_511RefVectorOfINS_7XMLAttrEEE, ptr @_ZN11xercesc_2_511RefVectorOfINS_7XMLAttrEED2Ev, ptr @_ZN11xercesc_2_511RefVectorOfINS_7XMLAttrEED0Ev, ptr @_ZN11xercesc_2_515BaseRefVectorOfINS_7XMLAttrEE12setElementAtEPS1_j, ptr @_ZN11xercesc_2_515BaseRefVectorOfINS_7XMLAttrEE17removeAllElementsEv, ptr @_ZN11xercesc_2_515BaseRefVectorOfINS_7XMLAttrEE15removeElementAtEj, ptr @_ZN11xercesc_2_515BaseRefVectorOfINS_7XMLAttrEE17removeLastElementEv, ptr @_ZN11xercesc_2_515BaseRefVectorOfINS_7XMLAttrEE7cleanupEv] }, comdat, align 8, !type !737, !type !738, !type !739, !type !740, !type !741, !type !742, !type !743, !type !744, !type !745, !type !746, !type !747, !type !748
@_ZTSN11xercesc_2_511RefVectorOfINS_7XMLAttrEEE = linkonce_odr dso_local constant [43 x i8] c"N11xercesc_2_511RefVectorOfINS_7XMLAttrEEE\00", comdat, align 1
@_ZTSN11xercesc_2_515BaseRefVectorOfINS_7XMLAttrEEE = linkonce_odr dso_local constant [47 x i8] c"N11xercesc_2_515BaseRefVectorOfINS_7XMLAttrEEE\00", comdat, align 1
@_ZTIN11xercesc_2_515BaseRefVectorOfINS_7XMLAttrEEE = linkonce_odr dso_local constant { ptr, ptr, ptr } { ptr getelementptr inbounds (ptr, ptr @_ZTVN10__cxxabiv120__si_class_type_infoE, i64 2), ptr @_ZTSN11xercesc_2_515BaseRefVectorOfINS_7XMLAttrEEE, ptr @_ZTIN11xercesc_2_57XMemoryE }, comdat, align 8
@_ZTIN11xercesc_2_511RefVectorOfINS_7XMLAttrEEE = linkonce_odr dso_local constant { ptr, ptr, ptr } { ptr getelementptr inbounds (ptr, ptr @_ZTVN10__cxxabiv120__si_class_type_infoE, i64 2), ptr @_ZTSN11xercesc_2_511RefVectorOfINS_7XMLAttrEEE, ptr @_ZTIN11xercesc_2_515BaseRefVectorOfINS_7XMLAttrEEE }, comdat, align 8
@_ZTVN11xercesc_2_515BaseRefVectorOfINS_7XMLAttrEEE = linkonce_odr dso_local unnamed_addr constant { [9 x ptr] } { [9 x ptr] [ptr null, ptr @_ZTIN11xercesc_2_515BaseRefVectorOfINS_7XMLAttrEEE, ptr @_ZN11xercesc_2_515BaseRefVectorOfINS_7XMLAttrEED2Ev, ptr @_ZN11xercesc_2_515BaseRefVectorOfINS_7XMLAttrEED0Ev, ptr @_ZN11xercesc_2_515BaseRefVectorOfINS_7XMLAttrEE12setElementAtEPS1_j, ptr @_ZN11xercesc_2_515BaseRefVectorOfINS_7XMLAttrEE17removeAllElementsEv, ptr @_ZN11xercesc_2_515BaseRefVectorOfINS_7XMLAttrEE15removeElementAtEj, ptr @_ZN11xercesc_2_515BaseRefVectorOfINS_7XMLAttrEE17removeLastElementEv, ptr @_ZN11xercesc_2_515BaseRefVectorOfINS_7XMLAttrEE7cleanupEv] }, comdat, align 8, !type !743, !type !744, !type !745, !type !746, !type !747, !type !748
@.str.6 = private unnamed_addr constant [30 x i8] c"./xercesc/util/ValueStackOf.c\00", align 1
@_ZTSN11xercesc_2_519EmptyStackExceptionE = linkonce_odr dso_local constant [37 x i8] c"N11xercesc_2_519EmptyStackExceptionE\00", comdat, align 1
@_ZTIN11xercesc_2_519EmptyStackExceptionE = linkonce_odr dso_local constant { ptr, ptr, ptr } { ptr getelementptr inbounds (ptr, ptr @_ZTVN10__cxxabiv120__si_class_type_infoE, i64 2), ptr @_ZTSN11xercesc_2_519EmptyStackExceptionE, ptr @_ZTIN11xercesc_2_512XMLExceptionE }, comdat, align 8
@_ZTVN11xercesc_2_519EmptyStackExceptionE = linkonce_odr dso_local unnamed_addr constant { [6 x ptr] } { [6 x ptr] [ptr null, ptr @_ZTIN11xercesc_2_519EmptyStackExceptionE, ptr @_ZN11xercesc_2_512XMLExceptionD2Ev, ptr @_ZN11xercesc_2_519EmptyStackExceptionD0Ev, ptr @_ZNK11xercesc_2_519EmptyStackException7getTypeEv, ptr @_ZNK11xercesc_2_519EmptyStackException9duplicateEv] }, comdat, align 8, !type !717, !type !718, !type !719, !type !749, !type !750, !type !751
@_ZN11xercesc_2_56XMLUni26fgEmptyStackException_NameE = external constant [0 x i16], align 2
@.str.8 = private unnamed_addr constant [28 x i8] c"./xercesc/util/RefStackOf.c\00", align 1

@_ZN11xercesc_2_517SAX2XMLReaderImplC1EPNS_13MemoryManagerEPNS_14XMLGrammarPoolE = dso_local unnamed_addr alias void (ptr, ptr, ptr), ptr @_ZN11xercesc_2_517SAX2XMLReaderImplC2EPNS_13MemoryManagerEPNS_14XMLGrammarPoolE
@_ZN11xercesc_2_517SAX2XMLReaderImplD1Ev = dso_local unnamed_addr alias void (ptr), ptr @_ZN11xercesc_2_517SAX2XMLReaderImplD2Ev

declare i32 @__gxx_personality_v0(...)

; Function Attrs: noinline noreturn nounwind uwtable
define linkonce_odr hidden void @__clang_call_terminate(ptr noundef %0) local_unnamed_addr #0 comdat {
  %2 = tail call ptr @__cxa_begin_catch(ptr %0) #17
  tail call void @_ZSt9terminatev() #18
  unreachable
}

declare ptr @__cxa_begin_catch(ptr) local_unnamed_addr

declare void @_ZSt9terminatev() local_unnamed_addr

declare void @_ZN11xercesc_2_57XMemorydlEPv(ptr noundef) local_unnamed_addr #1

; Function Attrs: uwtable
define dso_local void @_ZN11xercesc_2_517SAX2XMLReaderImplC2EPNS_13MemoryManagerEPNS_14XMLGrammarPoolE(ptr noundef nonnull align 8 dereferenceable(264) %0, ptr noundef %1, ptr noundef %2) unnamed_addr #2 align 2 personality ptr @__gxx_personality_v0 {
  %4 = getelementptr inbounds i8, ptr %0, i64 8
  %5 = getelementptr inbounds i8, ptr %0, i64 16
  %6 = getelementptr inbounds i8, ptr %0, i64 24
  %7 = getelementptr inbounds i8, ptr %0, i64 32
  store ptr getelementptr inbounds ({ [85 x ptr], [17 x ptr], [6 x ptr], [10 x ptr], [20 x ptr] }, ptr @_ZTVN11xercesc_2_517SAX2XMLReaderImplE, i64 0, inrange i32 0, i64 2), ptr %0, align 8, !tbaa !759
  store ptr getelementptr inbounds ({ [85 x ptr], [17 x ptr], [6 x ptr], [10 x ptr], [20 x ptr] }, ptr @_ZTVN11xercesc_2_517SAX2XMLReaderImplE, i64 0, inrange i32 1, i64 2), ptr %4, align 8, !tbaa !759
  store ptr getelementptr inbounds ({ [85 x ptr], [17 x ptr], [6 x ptr], [10 x ptr], [20 x ptr] }, ptr @_ZTVN11xercesc_2_517SAX2XMLReaderImplE, i64 0, inrange i32 2, i64 2), ptr %5, align 8, !tbaa !759
  store ptr getelementptr inbounds ({ [85 x ptr], [17 x ptr], [6 x ptr], [10 x ptr], [20 x ptr] }, ptr @_ZTVN11xercesc_2_517SAX2XMLReaderImplE, i64 0, inrange i32 3, i64 2), ptr %6, align 8, !tbaa !759
  store ptr getelementptr inbounds ({ [85 x ptr], [17 x ptr], [6 x ptr], [10 x ptr], [20 x ptr] }, ptr @_ZTVN11xercesc_2_517SAX2XMLReaderImplE, i64 0, inrange i32 4, i64 2), ptr %7, align 8, !tbaa !759
  %8 = getelementptr inbounds %"class.xercesc_2_5::SAX2XMLReaderImpl", ptr %0, i64 0, i32 5
  store i8 0, ptr %8, align 8, !tbaa !762
  %9 = getelementptr inbounds %"class.xercesc_2_5::SAX2XMLReaderImpl", ptr %0, i64 0, i32 6
  store i8 0, ptr %9, align 1, !tbaa !776
  %10 = getelementptr inbounds %"class.xercesc_2_5::SAX2XMLReaderImpl", ptr %0, i64 0, i32 7
  store i8 1, ptr %10, align 2, !tbaa !777
  %11 = getelementptr inbounds %"class.xercesc_2_5::SAX2XMLReaderImpl", ptr %0, i64 0, i32 8
  store i8 0, ptr %11, align 1, !tbaa !778
  %12 = getelementptr inbounds %"class.xercesc_2_5::SAX2XMLReaderImpl", ptr %0, i64 0, i32 9
  store i8 0, ptr %12, align 4, !tbaa !779
  %13 = getelementptr inbounds %"class.xercesc_2_5::SAX2XMLReaderImpl", ptr %0, i64 0, i32 10
  store i32 0, ptr %13, align 8, !tbaa !780
  %14 = getelementptr inbounds %"class.xercesc_2_5::SAX2XMLReaderImpl", ptr %0, i64 0, i32 11
  store i32 0, ptr %14, align 4, !tbaa !781
  %15 = getelementptr inbounds %"class.xercesc_2_5::SAX2XMLReaderImpl", ptr %0, i64 0, i32 12
  store i32 32, ptr %15, align 8, !tbaa !782
  %16 = getelementptr inbounds %"class.xercesc_2_5::SAX2XMLReaderImpl", ptr %0, i64 0, i32 13
  tail call void @_ZN11xercesc_2_517VecAttributesImplC1Ev(ptr noundef nonnull align 8 dereferenceable(32) %16)
  %17 = getelementptr inbounds %"class.xercesc_2_5::SAX2XMLReaderImpl", ptr %0, i64 0, i32 14
  %18 = getelementptr inbounds %"class.xercesc_2_5::SAX2XMLReaderImpl", ptr %0, i64 0, i32 30
  tail call void @llvm.memset.p0.i64(ptr noundef nonnull align 8 dereferenceable(128) %17, i8 0, i64 128, i1 false)
  store ptr %1, ptr %18, align 8, !tbaa !783
  %19 = getelementptr inbounds %"class.xercesc_2_5::SAX2XMLReaderImpl", ptr %0, i64 0, i32 31
  store ptr %2, ptr %19, align 8, !tbaa !784
  %20 = getelementptr inbounds %"class.xercesc_2_5::SAX2XMLReaderImpl", ptr %0, i64 0, i32 32
  invoke void @_ZN11xercesc_2_512XMLBufferMgrC1EPNS_13MemoryManagerE(ptr noundef nonnull align 8 dereferenceable(24) %20, ptr noundef %1)
          to label %21 unwind label %22

21:                                               ; preds = %3
  invoke void @_ZN11xercesc_2_517SAX2XMLReaderImpl10initializeEv(ptr noundef nonnull align 8 dereferenceable(264) %0)
          to label %38 unwind label %24

22:                                               ; preds = %3
  %23 = landingpad { ptr, i32 }
          cleanup
  br label %41

24:                                               ; preds = %21
  %25 = landingpad { ptr, i32 }
          catch ptr @_ZTIN11xercesc_2_520OutOfMemoryExceptionE
          catch ptr null
  %26 = extractvalue { ptr, i32 } %25, 0
  %27 = extractvalue { ptr, i32 } %25, 1
  %28 = tail call i32 @llvm.eh.typeid.for(ptr nonnull @_ZTIN11xercesc_2_520OutOfMemoryExceptionE) #17
  %29 = icmp eq i32 %27, %28
  %30 = tail call ptr @__cxa_begin_catch(ptr %26) #17
  br i1 %29, label %31, label %32

31:                                               ; preds = %24
  invoke void @__cxa_rethrow() #19
          to label %47 unwind label %36

32:                                               ; preds = %24
  invoke void @_ZN11xercesc_2_517SAX2XMLReaderImpl7cleanUpEv(ptr noundef nonnull align 8 dereferenceable(264) %0)
          to label %33 unwind label %34

33:                                               ; preds = %32
  invoke void @__cxa_rethrow() #19
          to label %47 unwind label %34

34:                                               ; preds = %33, %32
  %35 = landingpad { ptr, i32 }
          cleanup
  invoke void @__cxa_end_catch()
          to label %39 unwind label %44

36:                                               ; preds = %31
  %37 = landingpad { ptr, i32 }
          cleanup
  invoke void @__cxa_end_catch()
          to label %39 unwind label %44

38:                                               ; preds = %21
  ret void

39:                                               ; preds = %36, %34
  %40 = phi { ptr, i32 } [ %35, %34 ], [ %37, %36 ]
  invoke void @_ZN11xercesc_2_512XMLBufferMgrD1Ev(ptr noundef nonnull align 8 dereferenceable(24) %20)
          to label %41 unwind label %44

41:                                               ; preds = %39, %22
  %42 = phi { ptr, i32 } [ %40, %39 ], [ %23, %22 ]
  invoke void @_ZN11xercesc_2_517VecAttributesImplD1Ev(ptr noundef nonnull align 8 dereferenceable(32) %16)
          to label %43 unwind label %44

43:                                               ; preds = %41
  resume { ptr, i32 } %42

44:                                               ; preds = %41, %39, %36, %34
  %45 = landingpad { ptr, i32 }
          catch ptr null
  %46 = extractvalue { ptr, i32 } %45, 0
  tail call void @__clang_call_terminate(ptr %46) #18
  unreachable

47:                                               ; preds = %31, %33
  unreachable
}

declare void @_ZN11xercesc_2_517VecAttributesImplC1Ev(ptr noundef nonnull align 8 dereferenceable(32)) unnamed_addr #1

declare void @_ZN11xercesc_2_512XMLBufferMgrC1EPNS_13MemoryManagerE(ptr noundef nonnull align 8 dereferenceable(24), ptr noundef) unnamed_addr #1

; Function Attrs: uwtable
define dso_local void @_ZN11xercesc_2_517SAX2XMLReaderImpl10initializeEv(ptr nocapture noundef nonnull align 8 dereferenceable(264) %0) local_unnamed_addr #2 align 2 personality ptr @__gxx_personality_v0 {
  %2 = getelementptr inbounds %"class.xercesc_2_5::SAX2XMLReaderImpl", ptr %0, i64 0, i32 30
  %3 = load ptr, ptr %2, align 8, !tbaa !783
  %4 = tail call noundef ptr @_ZN11xercesc_2_57XMemorynwEmPNS_13MemoryManagerE(i64 noundef 80, ptr noundef %3)
  %5 = getelementptr inbounds %"class.xercesc_2_5::SAX2XMLReaderImpl", ptr %0, i64 0, i32 31
  %6 = load ptr, ptr %5, align 8, !tbaa !784
  %7 = load ptr, ptr %2, align 8, !tbaa !783
  invoke void @_ZN11xercesc_2_515GrammarResolverC1EPNS_14XMLGrammarPoolEPNS_13MemoryManagerE(ptr noundef nonnull align 8 dereferenceable(80) %4, ptr noundef %6, ptr noundef %7)
          to label %8 unwind label %115

8:                                                ; preds = %1
  %9 = getelementptr inbounds %"class.xercesc_2_5::SAX2XMLReaderImpl", ptr %0, i64 0, i32 27
  store ptr %4, ptr %9, align 8, !tbaa !785
  %10 = getelementptr inbounds %"class.xercesc_2_5::GrammarResolver", ptr %4, i64 0, i32 3
  %11 = load ptr, ptr %10, align 8, !tbaa !786
  %12 = getelementptr inbounds %"class.xercesc_2_5::SAX2XMLReaderImpl", ptr %0, i64 0, i32 28
  store ptr %11, ptr %12, align 8, !tbaa !788
  %13 = load ptr, ptr %2, align 8, !tbaa !783
  %14 = tail call noundef ptr @_ZN11xercesc_2_518XMLScannerResolver17getDefaultScannerEPNS_12XMLValidatorEPNS_15GrammarResolverEPNS_13MemoryManagerE(ptr noundef null, ptr noundef nonnull %4, ptr noundef %13)
  %15 = getelementptr inbounds %"class.xercesc_2_5::SAX2XMLReaderImpl", ptr %0, i64 0, i32 26
  store ptr %14, ptr %15, align 8, !tbaa !789
  %16 = load ptr, ptr %12, align 8, !tbaa !788
  tail call void @_ZN11xercesc_2_510XMLScanner16setURIStringPoolEPNS_13XMLStringPoolE(ptr noundef nonnull align 8 dereferenceable(664) %14, ptr noundef %16)
  %17 = load ptr, ptr %2, align 8, !tbaa !783
  %18 = getelementptr inbounds %"class.xercesc_2_5::SAX2XMLReaderImpl", ptr %0, i64 0, i32 12
  %19 = load i32, ptr %18, align 8, !tbaa !782
  %20 = zext i32 %19 to i64
  %21 = shl nuw nsw i64 %20, 3
  %22 = load ptr, ptr %17, align 8, !tbaa !759
  %23 = getelementptr inbounds ptr, ptr %22, i64 2
  %24 = load ptr, ptr %23, align 8
  %25 = tail call noundef ptr %24(ptr noundef nonnull align 8 dereferenceable(8) %17, i64 noundef %21)
  %26 = getelementptr inbounds %"class.xercesc_2_5::SAX2XMLReaderImpl", ptr %0, i64 0, i32 25
  store ptr %25, ptr %26, align 8, !tbaa !790
  %27 = load i32, ptr %18, align 8, !tbaa !782
  %28 = zext i32 %27 to i64
  %29 = shl nuw nsw i64 %28, 3
  tail call void @llvm.memset.p0.i64(ptr align 8 %25, i8 0, i64 %29, i1 false)
  %30 = load ptr, ptr %15, align 8, !tbaa !789
  %31 = getelementptr inbounds %"class.xercesc_2_5::XMLScanner", ptr %30, i64 0, i32 3
  store i8 1, ptr %31, align 2, !tbaa !791
  %32 = getelementptr inbounds %"class.xercesc_2_5::XMLScanner", ptr %30, i64 0, i32 11
  store i8 1, ptr %32, align 2, !tbaa !801
  %33 = load ptr, ptr %2, align 8, !tbaa !783
  %34 = tail call noundef ptr @_ZN11xercesc_2_57XMemorynwEmPNS_13MemoryManagerE(i64 noundef 48, ptr noundef %33)
  %35 = load ptr, ptr %2, align 8, !tbaa !783
  %36 = getelementptr inbounds %"class.xercesc_2_5::RefStackOf", ptr %34, i64 0, i32 1
  store ptr getelementptr inbounds ({ [9 x ptr] }, ptr @_ZTVN11xercesc_2_515BaseRefVectorOfINS_9XMLBufferEEE, i64 0, inrange i32 0, i64 2), ptr %36, align 8, !tbaa !759
  %37 = getelementptr inbounds %"class.xercesc_2_5::RefStackOf", ptr %34, i64 0, i32 1, i32 0, i32 1
  store i8 0, ptr %37, align 8, !tbaa !802
  %38 = getelementptr inbounds %"class.xercesc_2_5::RefStackOf", ptr %34, i64 0, i32 1, i32 0, i32 2
  store i32 0, ptr %38, align 4, !tbaa !804
  %39 = getelementptr inbounds %"class.xercesc_2_5::RefStackOf", ptr %34, i64 0, i32 1, i32 0, i32 3
  store i32 10, ptr %39, align 8, !tbaa !805
  %40 = getelementptr inbounds %"class.xercesc_2_5::RefStackOf", ptr %34, i64 0, i32 1, i32 0, i32 4
  store ptr null, ptr %40, align 8, !tbaa !806
  %41 = getelementptr inbounds %"class.xercesc_2_5::RefStackOf", ptr %34, i64 0, i32 1, i32 0, i32 5
  store ptr %35, ptr %41, align 8, !tbaa !807
  %42 = load ptr, ptr %35, align 8, !tbaa !759
  %43 = getelementptr inbounds ptr, ptr %42, i64 2
  %44 = load ptr, ptr %43, align 8
  %45 = invoke noundef ptr %44(ptr noundef nonnull align 8 dereferenceable(8) %35, i64 noundef 80)
          to label %46 unwind label %117

46:                                               ; preds = %8
  store ptr %45, ptr %40, align 8, !tbaa !806
  store ptr null, ptr %45, align 8, !tbaa !808
  %47 = load ptr, ptr %40, align 8, !tbaa !806
  %48 = getelementptr inbounds ptr, ptr %47, i64 1
  store ptr null, ptr %48, align 8, !tbaa !808
  %49 = load ptr, ptr %40, align 8, !tbaa !806
  %50 = getelementptr inbounds ptr, ptr %49, i64 2
  store ptr null, ptr %50, align 8, !tbaa !808
  %51 = load ptr, ptr %40, align 8, !tbaa !806
  %52 = getelementptr inbounds ptr, ptr %51, i64 3
  store ptr null, ptr %52, align 8, !tbaa !808
  %53 = load ptr, ptr %40, align 8, !tbaa !806
  %54 = getelementptr inbounds ptr, ptr %53, i64 4
  store ptr null, ptr %54, align 8, !tbaa !808
  %55 = load ptr, ptr %40, align 8, !tbaa !806
  %56 = getelementptr inbounds ptr, ptr %55, i64 5
  store ptr null, ptr %56, align 8, !tbaa !808
  %57 = load ptr, ptr %40, align 8, !tbaa !806
  %58 = getelementptr inbounds ptr, ptr %57, i64 6
  store ptr null, ptr %58, align 8, !tbaa !808
  %59 = load ptr, ptr %40, align 8, !tbaa !806
  %60 = getelementptr inbounds ptr, ptr %59, i64 7
  store ptr null, ptr %60, align 8, !tbaa !808
  %61 = load ptr, ptr %40, align 8, !tbaa !806
  %62 = getelementptr inbounds ptr, ptr %61, i64 8
  store ptr null, ptr %62, align 8, !tbaa !808
  %63 = load ptr, ptr %40, align 8, !tbaa !806
  %64 = getelementptr inbounds ptr, ptr %63, i64 9
  store ptr null, ptr %64, align 8, !tbaa !808
  store ptr getelementptr inbounds ({ [9 x ptr] }, ptr @_ZTVN11xercesc_2_511RefVectorOfINS_9XMLBufferEEE, i64 0, inrange i32 0, i64 2), ptr %36, align 8, !tbaa !759
  %65 = getelementptr inbounds %"class.xercesc_2_5::SAX2XMLReaderImpl", ptr %0, i64 0, i32 16
  store ptr %34, ptr %65, align 8, !tbaa !809
  %66 = load ptr, ptr %2, align 8, !tbaa !783
  %67 = tail call noundef ptr @_ZN11xercesc_2_57XMemorynwEmPNS_13MemoryManagerE(i64 noundef 40, ptr noundef %66)
  %68 = load ptr, ptr %2, align 8, !tbaa !783
  store ptr getelementptr inbounds ({ [9 x ptr] }, ptr @_ZTVN11xercesc_2_515BaseRefVectorOfINS_7XMLAttrEEE, i64 0, inrange i32 0, i64 2), ptr %67, align 8, !tbaa !759
  %69 = getelementptr inbounds %"class.xercesc_2_5::BaseRefVectorOf.1", ptr %67, i64 0, i32 1
  store i8 0, ptr %69, align 8, !tbaa !810
  %70 = getelementptr inbounds %"class.xercesc_2_5::BaseRefVectorOf.1", ptr %67, i64 0, i32 2
  store i32 0, ptr %70, align 4, !tbaa !812
  %71 = getelementptr inbounds %"class.xercesc_2_5::BaseRefVectorOf.1", ptr %67, i64 0, i32 3
  store i32 10, ptr %71, align 8, !tbaa !813
  %72 = getelementptr inbounds %"class.xercesc_2_5::BaseRefVectorOf.1", ptr %67, i64 0, i32 4
  store ptr null, ptr %72, align 8, !tbaa !814
  %73 = getelementptr inbounds %"class.xercesc_2_5::BaseRefVectorOf.1", ptr %67, i64 0, i32 5
  store ptr %68, ptr %73, align 8, !tbaa !815
  %74 = load ptr, ptr %68, align 8, !tbaa !759
  %75 = getelementptr inbounds ptr, ptr %74, i64 2
  %76 = load ptr, ptr %75, align 8
  %77 = invoke noundef ptr %76(ptr noundef nonnull align 8 dereferenceable(8) %68, i64 noundef 80)
          to label %78 unwind label %119

78:                                               ; preds = %46
  store ptr %77, ptr %72, align 8, !tbaa !814
  store ptr null, ptr %77, align 8, !tbaa !808
  %79 = load ptr, ptr %72, align 8, !tbaa !814
  %80 = getelementptr inbounds ptr, ptr %79, i64 1
  store ptr null, ptr %80, align 8, !tbaa !808
  %81 = load ptr, ptr %72, align 8, !tbaa !814
  %82 = getelementptr inbounds ptr, ptr %81, i64 2
  store ptr null, ptr %82, align 8, !tbaa !808
  %83 = load ptr, ptr %72, align 8, !tbaa !814
  %84 = getelementptr inbounds ptr, ptr %83, i64 3
  store ptr null, ptr %84, align 8, !tbaa !808
  %85 = load ptr, ptr %72, align 8, !tbaa !814
  %86 = getelementptr inbounds ptr, ptr %85, i64 4
  store ptr null, ptr %86, align 8, !tbaa !808
  %87 = load ptr, ptr %72, align 8, !tbaa !814
  %88 = getelementptr inbounds ptr, ptr %87, i64 5
  store ptr null, ptr %88, align 8, !tbaa !808
  %89 = load ptr, ptr %72, align 8, !tbaa !814
  %90 = getelementptr inbounds ptr, ptr %89, i64 6
  store ptr null, ptr %90, align 8, !tbaa !808
  %91 = load ptr, ptr %72, align 8, !tbaa !814
  %92 = getelementptr inbounds ptr, ptr %91, i64 7
  store ptr null, ptr %92, align 8, !tbaa !808
  %93 = load ptr, ptr %72, align 8, !tbaa !814
  %94 = getelementptr inbounds ptr, ptr %93, i64 8
  store ptr null, ptr %94, align 8, !tbaa !808
  %95 = load ptr, ptr %72, align 8, !tbaa !814
  %96 = getelementptr inbounds ptr, ptr %95, i64 9
  store ptr null, ptr %96, align 8, !tbaa !808
  store ptr getelementptr inbounds ({ [9 x ptr] }, ptr @_ZTVN11xercesc_2_511RefVectorOfINS_7XMLAttrEEE, i64 0, inrange i32 0, i64 2), ptr %67, align 8, !tbaa !759
  %97 = getelementptr inbounds %"class.xercesc_2_5::SAX2XMLReaderImpl", ptr %0, i64 0, i32 15
  store ptr %67, ptr %97, align 8, !tbaa !816
  %98 = load ptr, ptr %2, align 8, !tbaa !783
  %99 = tail call noundef ptr @_ZN11xercesc_2_57XMemorynwEmPNS_13MemoryManagerE(i64 noundef 40, ptr noundef %98)
  %100 = load ptr, ptr %2, align 8, !tbaa !783
  %101 = getelementptr inbounds %"class.xercesc_2_5::ValueStackOf", ptr %99, i64 0, i32 1
  store i8 0, ptr %101, align 8, !tbaa !817
  %102 = getelementptr inbounds %"class.xercesc_2_5::ValueStackOf", ptr %99, i64 0, i32 1, i32 1
  store i32 0, ptr %102, align 4, !tbaa !819
  %103 = getelementptr inbounds %"class.xercesc_2_5::ValueStackOf", ptr %99, i64 0, i32 1, i32 2
  store i32 10, ptr %103, align 8, !tbaa !820
  %104 = getelementptr inbounds %"class.xercesc_2_5::ValueStackOf", ptr %99, i64 0, i32 1, i32 3
  store ptr null, ptr %104, align 8, !tbaa !821
  %105 = getelementptr inbounds %"class.xercesc_2_5::ValueStackOf", ptr %99, i64 0, i32 1, i32 4
  store ptr %100, ptr %105, align 8, !tbaa !822
  %106 = load ptr, ptr %100, align 8, !tbaa !759
  %107 = getelementptr inbounds ptr, ptr %106, i64 2
  %108 = load ptr, ptr %107, align 8
  %109 = invoke noundef ptr %108(ptr noundef nonnull align 8 dereferenceable(8) %100, i64 noundef 40)
          to label %110 unwind label %121

110:                                              ; preds = %78
  store ptr %109, ptr %104, align 8, !tbaa !821
  %111 = load i32, ptr %103, align 8, !tbaa !820
  %112 = zext i32 %111 to i64
  %113 = shl nuw nsw i64 %112, 2
  tail call void @llvm.memset.p0.i64(ptr align 4 %109, i8 0, i64 %113, i1 false)
  %114 = getelementptr inbounds %"class.xercesc_2_5::SAX2XMLReaderImpl", ptr %0, i64 0, i32 17
  store ptr %99, ptr %114, align 8, !tbaa !823
  ret void

115:                                              ; preds = %1
  %116 = landingpad { ptr, i32 }
          cleanup
  invoke void @_ZN11xercesc_2_57XMemorydlEPvPNS_13MemoryManagerE(ptr noundef %4, ptr noundef %3)
          to label %123 unwind label %125

117:                                              ; preds = %8
  %118 = landingpad { ptr, i32 }
          cleanup
  invoke void @_ZN11xercesc_2_57XMemorydlEPvPNS_13MemoryManagerE(ptr noundef nonnull %34, ptr noundef %33)
          to label %123 unwind label %125

119:                                              ; preds = %46
  %120 = landingpad { ptr, i32 }
          cleanup
  invoke void @_ZN11xercesc_2_57XMemorydlEPvPNS_13MemoryManagerE(ptr noundef nonnull %67, ptr noundef %66)
          to label %123 unwind label %125

121:                                              ; preds = %78
  %122 = landingpad { ptr, i32 }
          cleanup
  invoke void @_ZN11xercesc_2_57XMemorydlEPvPNS_13MemoryManagerE(ptr noundef nonnull %99, ptr noundef %98)
          to label %123 unwind label %125

123:                                              ; preds = %121, %119, %117, %115
  %124 = phi { ptr, i32 } [ %122, %121 ], [ %120, %119 ], [ %118, %117 ], [ %116, %115 ]
  resume { ptr, i32 } %124

125:                                              ; preds = %121, %119, %117, %115
  %126 = landingpad { ptr, i32 }
          catch ptr null
  %127 = extractvalue { ptr, i32 } %126, 0
  tail call void @__clang_call_terminate(ptr %127) #18
  unreachable
}

; Function Attrs: nofree nosync nounwind memory(none)
declare i32 @llvm.eh.typeid.for(ptr) #3

; Function Attrs: uwtable
define dso_local void @_ZN11xercesc_2_517SAX2XMLReaderImpl7cleanUpEv(ptr nocapture noundef nonnull readonly align 8 dereferenceable(264) %0) local_unnamed_addr #2 align 2 personality ptr @__gxx_personality_v0 {
  %2 = getelementptr inbounds %"class.xercesc_2_5::SAX2XMLReaderImpl", ptr %0, i64 0, i32 30
  %3 = load ptr, ptr %2, align 8, !tbaa !783
  %4 = getelementptr inbounds %"class.xercesc_2_5::SAX2XMLReaderImpl", ptr %0, i64 0, i32 25
  %5 = load ptr, ptr %4, align 8, !tbaa !790
  %6 = load ptr, ptr %3, align 8, !tbaa !759
  %7 = getelementptr inbounds ptr, ptr %6, i64 3
  %8 = load ptr, ptr %7, align 8
  tail call void %8(ptr noundef nonnull align 8 dereferenceable(8) %3, ptr noundef %5)
  %9 = getelementptr inbounds %"class.xercesc_2_5::SAX2XMLReaderImpl", ptr %0, i64 0, i32 26
  %10 = load ptr, ptr %9, align 8, !tbaa !789
  %11 = icmp eq ptr %10, null
  br i1 %11, label %16, label %12

12:                                               ; preds = %1
  %13 = load ptr, ptr %10, align 8, !tbaa !759
  %14 = getelementptr inbounds ptr, ptr %13, i64 1
  %15 = load ptr, ptr %14, align 8
  tail call void %15(ptr noundef nonnull align 8 dereferenceable(664) %10)
  br label %16

16:                                               ; preds = %12, %1
  %17 = getelementptr inbounds %"class.xercesc_2_5::SAX2XMLReaderImpl", ptr %0, i64 0, i32 16
  %18 = load ptr, ptr %17, align 8, !tbaa !809
  %19 = icmp eq ptr %18, null
  br i1 %19, label %68, label %20

20:                                               ; preds = %16
  %21 = getelementptr inbounds %"class.xercesc_2_5::RefStackOf", ptr %18, i64 0, i32 1
  store ptr getelementptr inbounds ({ [9 x ptr] }, ptr @_ZTVN11xercesc_2_511RefVectorOfINS_9XMLBufferEEE, i64 0, inrange i32 0, i64 2), ptr %21, align 8, !tbaa !759
  %22 = getelementptr inbounds %"class.xercesc_2_5::RefStackOf", ptr %18, i64 0, i32 1, i32 0, i32 1
  %23 = load i8, ptr %22, align 8, !tbaa !802, !range !824, !noundef !825
  %24 = icmp eq i8 %23, 0
  br i1 %24, label %59, label %25

25:                                               ; preds = %20
  %26 = getelementptr inbounds %"class.xercesc_2_5::RefStackOf", ptr %18, i64 0, i32 1, i32 0, i32 2
  %27 = load i32, ptr %26, align 4, !tbaa !804
  %28 = icmp eq i32 %27, 0
  br i1 %28, label %59, label %29

29:                                               ; preds = %25
  %30 = getelementptr inbounds %"class.xercesc_2_5::RefStackOf", ptr %18, i64 0, i32 1, i32 0, i32 4
  br label %31

31:                                               ; preds = %49, %29
  %32 = phi i32 [ %27, %29 ], [ %50, %49 ]
  %33 = phi i64 [ 0, %29 ], [ %51, %49 ]
  %34 = load ptr, ptr %30, align 8, !tbaa !806
  %35 = getelementptr inbounds ptr, ptr %34, i64 %33
  %36 = load ptr, ptr %35, align 8, !tbaa !808
  %37 = icmp eq ptr %36, null
  br i1 %37, label %49, label %38

38:                                               ; preds = %31
  %39 = getelementptr inbounds %"class.xercesc_2_5::XMLBuffer", ptr %36, i64 0, i32 3
  %40 = load ptr, ptr %39, align 8, !tbaa !826
  %41 = getelementptr inbounds %"class.xercesc_2_5::XMLBuffer", ptr %36, i64 0, i32 4
  %42 = load ptr, ptr %41, align 8, !tbaa !827
  %43 = load ptr, ptr %40, align 8, !tbaa !759
  %44 = getelementptr inbounds ptr, ptr %43, i64 3
  %45 = load ptr, ptr %44, align 8
  invoke void %45(ptr noundef nonnull align 8 dereferenceable(8) %40, ptr noundef %42)
          to label %46 unwind label %54

46:                                               ; preds = %38
  invoke void @_ZN11xercesc_2_57XMemorydlEPv(ptr noundef nonnull %36)
          to label %47 unwind label %96

47:                                               ; preds = %46
  %48 = load i32, ptr %26, align 4, !tbaa !804
  br label %49

49:                                               ; preds = %47, %31
  %50 = phi i32 [ %48, %47 ], [ %32, %31 ]
  %51 = add nuw nsw i64 %33, 1
  %52 = zext i32 %50 to i64
  %53 = icmp ult i64 %51, %52
  br i1 %53, label %31, label %59

54:                                               ; preds = %38
  %55 = landingpad { ptr, i32 }
          cleanup
  invoke void @_ZN11xercesc_2_57XMemorydlEPv(ptr noundef nonnull %36)
          to label %100 unwind label %56

56:                                               ; preds = %54
  %57 = landingpad { ptr, i32 }
          catch ptr null
  %58 = extractvalue { ptr, i32 } %57, 0
  tail call void @__clang_call_terminate(ptr %58) #18
  unreachable

59:                                               ; preds = %49, %25, %20
  %60 = getelementptr inbounds %"class.xercesc_2_5::RefStackOf", ptr %18, i64 0, i32 1, i32 0, i32 5
  %61 = load ptr, ptr %60, align 8, !tbaa !807
  %62 = getelementptr inbounds %"class.xercesc_2_5::RefStackOf", ptr %18, i64 0, i32 1, i32 0, i32 4
  %63 = load ptr, ptr %62, align 8, !tbaa !806
  %64 = load ptr, ptr %61, align 8, !tbaa !759
  %65 = getelementptr inbounds ptr, ptr %64, i64 3
  %66 = load ptr, ptr %65, align 8
  invoke void %66(ptr noundef nonnull align 8 dereferenceable(8) %61, ptr noundef %63)
          to label %67 unwind label %98

67:                                               ; preds = %59
  tail call void @_ZN11xercesc_2_57XMemorydlEPv(ptr noundef nonnull %18)
  br label %68

68:                                               ; preds = %67, %16
  %69 = getelementptr inbounds %"class.xercesc_2_5::SAX2XMLReaderImpl", ptr %0, i64 0, i32 15
  %70 = load ptr, ptr %69, align 8, !tbaa !816
  %71 = icmp eq ptr %70, null
  br i1 %71, label %76, label %72

72:                                               ; preds = %68
  %73 = load ptr, ptr %70, align 8, !tbaa !759
  %74 = getelementptr inbounds ptr, ptr %73, i64 1
  %75 = load ptr, ptr %74, align 8
  tail call void %75(ptr noundef nonnull align 8 dereferenceable(40) %70)
  br label %76

76:                                               ; preds = %72, %68
  %77 = getelementptr inbounds %"class.xercesc_2_5::SAX2XMLReaderImpl", ptr %0, i64 0, i32 17
  %78 = load ptr, ptr %77, align 8, !tbaa !823
  %79 = icmp eq ptr %78, null
  br i1 %79, label %89, label %80

80:                                               ; preds = %76
  %81 = getelementptr inbounds %"class.xercesc_2_5::ValueStackOf", ptr %78, i64 0, i32 1, i32 4
  %82 = load ptr, ptr %81, align 8, !tbaa !822
  %83 = getelementptr inbounds %"class.xercesc_2_5::ValueStackOf", ptr %78, i64 0, i32 1, i32 3
  %84 = load ptr, ptr %83, align 8, !tbaa !821
  %85 = load ptr, ptr %82, align 8, !tbaa !759
  %86 = getelementptr inbounds ptr, ptr %85, i64 3
  %87 = load ptr, ptr %86, align 8
  invoke void %87(ptr noundef nonnull align 8 dereferenceable(8) %82, ptr noundef %84)
          to label %88 unwind label %102

88:                                               ; preds = %80
  tail call void @_ZN11xercesc_2_57XMemorydlEPv(ptr noundef nonnull %78)
  br label %89

89:                                               ; preds = %88, %76
  %90 = getelementptr inbounds %"class.xercesc_2_5::SAX2XMLReaderImpl", ptr %0, i64 0, i32 27
  %91 = load ptr, ptr %90, align 8, !tbaa !785
  %92 = icmp eq ptr %91, null
  br i1 %92, label %95, label %93

93:                                               ; preds = %89
  invoke void @_ZN11xercesc_2_515GrammarResolverD1Ev(ptr noundef nonnull align 8 dereferenceable(80) %91)
          to label %94 unwind label %104

94:                                               ; preds = %93
  tail call void @_ZN11xercesc_2_57XMemorydlEPv(ptr noundef nonnull %91)
  br label %95

95:                                               ; preds = %94, %89
  ret void

96:                                               ; preds = %46
  %97 = landingpad { ptr, i32 }
          cleanup
  br label %100

98:                                               ; preds = %59
  %99 = landingpad { ptr, i32 }
          cleanup
  br label %100

100:                                              ; preds = %96, %98, %54
  %101 = phi { ptr, i32 } [ %55, %54 ], [ %97, %96 ], [ %99, %98 ]
  invoke void @_ZN11xercesc_2_57XMemorydlEPv(ptr noundef nonnull %18)
          to label %106 unwind label %108

102:                                              ; preds = %80
  %103 = landingpad { ptr, i32 }
          cleanup
  invoke void @_ZN11xercesc_2_57XMemorydlEPv(ptr noundef nonnull %78)
          to label %106 unwind label %108

104:                                              ; preds = %93
  %105 = landingpad { ptr, i32 }
          cleanup
  invoke void @_ZN11xercesc_2_57XMemorydlEPv(ptr noundef nonnull %91)
          to label %106 unwind label %108

106:                                              ; preds = %104, %102, %100
  %107 = phi { ptr, i32 } [ %105, %104 ], [ %103, %102 ], [ %101, %100 ]
  resume { ptr, i32 } %107

108:                                              ; preds = %104, %102, %100
  %109 = landingpad { ptr, i32 }
          catch ptr null
  %110 = extractvalue { ptr, i32 } %109, 0
  tail call void @__clang_call_terminate(ptr %110) #18
  unreachable
}

declare void @__cxa_rethrow() local_unnamed_addr

declare void @__cxa_end_catch() local_unnamed_addr

; Function Attrs: mustprogress nocallback nofree nosync nounwind willreturn memory(argmem: readwrite)
declare void @llvm.lifetime.start.p0(i64 immarg, ptr nocapture) #4

; Function Attrs: mustprogress nocallback nofree nosync nounwind willreturn memory(argmem: readwrite)
declare void @llvm.lifetime.end.p0(i64 immarg, ptr nocapture) #4

declare void @_ZN11xercesc_2_512XMLBufferMgrD1Ev(ptr noundef nonnull align 8 dereferenceable(24)) unnamed_addr #1

declare void @_ZN11xercesc_2_517VecAttributesImplD1Ev(ptr noundef nonnull align 8 dereferenceable(32)) unnamed_addr #1

; Function Attrs: uwtable
define dso_local void @_ZN11xercesc_2_517SAX2XMLReaderImplD2Ev(ptr noundef nonnull align 8 dereferenceable(264) %0) unnamed_addr #2 align 2 personality ptr @__gxx_personality_v0 {
  store ptr getelementptr inbounds ({ [85 x ptr], [17 x ptr], [6 x ptr], [10 x ptr], [20 x ptr] }, ptr @_ZTVN11xercesc_2_517SAX2XMLReaderImplE, i64 0, inrange i32 0, i64 2), ptr %0, align 8, !tbaa !759
  %2 = getelementptr inbounds i8, ptr %0, i64 8
  store ptr getelementptr inbounds ({ [85 x ptr], [17 x ptr], [6 x ptr], [10 x ptr], [20 x ptr] }, ptr @_ZTVN11xercesc_2_517SAX2XMLReaderImplE, i64 0, inrange i32 1, i64 2), ptr %2, align 8, !tbaa !759
  %3 = getelementptr inbounds i8, ptr %0, i64 16
  store ptr getelementptr inbounds ({ [85 x ptr], [17 x ptr], [6 x ptr], [10 x ptr], [20 x ptr] }, ptr @_ZTVN11xercesc_2_517SAX2XMLReaderImplE, i64 0, inrange i32 2, i64 2), ptr %3, align 8, !tbaa !759
  %4 = getelementptr inbounds i8, ptr %0, i64 24
  store ptr getelementptr inbounds ({ [85 x ptr], [17 x ptr], [6 x ptr], [10 x ptr], [20 x ptr] }, ptr @_ZTVN11xercesc_2_517SAX2XMLReaderImplE, i64 0, inrange i32 3, i64 2), ptr %4, align 8, !tbaa !759
  %5 = getelementptr inbounds i8, ptr %0, i64 32
  store ptr getelementptr inbounds ({ [85 x ptr], [17 x ptr], [6 x ptr], [10 x ptr], [20 x ptr] }, ptr @_ZTVN11xercesc_2_517SAX2XMLReaderImplE, i64 0, inrange i32 4, i64 2), ptr %5, align 8, !tbaa !759
  invoke void @_ZN11xercesc_2_517SAX2XMLReaderImpl7cleanUpEv(ptr noundef nonnull align 8 dereferenceable(264) %0)
          to label %6 unwind label %10

6:                                                ; preds = %1
  %7 = getelementptr inbounds %"class.xercesc_2_5::SAX2XMLReaderImpl", ptr %0, i64 0, i32 32
  invoke void @_ZN11xercesc_2_512XMLBufferMgrD1Ev(ptr noundef nonnull align 8 dereferenceable(24) %7)
          to label %8 unwind label %13

8:                                                ; preds = %6
  %9 = getelementptr inbounds %"class.xercesc_2_5::SAX2XMLReaderImpl", ptr %0, i64 0, i32 13
  tail call void @_ZN11xercesc_2_517VecAttributesImplD1Ev(ptr noundef nonnull align 8 dereferenceable(32) %9)
  ret void

10:                                               ; preds = %1
  %11 = landingpad { ptr, i32 }
          cleanup
  %12 = getelementptr inbounds %"class.xercesc_2_5::SAX2XMLReaderImpl", ptr %0, i64 0, i32 32
  invoke void @_ZN11xercesc_2_512XMLBufferMgrD1Ev(ptr noundef nonnull align 8 dereferenceable(24) %12)
          to label %15 unwind label %19

13:                                               ; preds = %6
  %14 = landingpad { ptr, i32 }
          cleanup
  br label %15

15:                                               ; preds = %10, %13
  %16 = phi { ptr, i32 } [ %14, %13 ], [ %11, %10 ]
  %17 = getelementptr inbounds %"class.xercesc_2_5::SAX2XMLReaderImpl", ptr %0, i64 0, i32 13
  invoke void @_ZN11xercesc_2_517VecAttributesImplD1Ev(ptr noundef nonnull align 8 dereferenceable(32) %17)
          to label %18 unwind label %19

18:                                               ; preds = %15
  resume { ptr, i32 } %16

19:                                               ; preds = %15, %10
  %20 = landingpad { ptr, i32 }
          catch ptr null
  %21 = extractvalue { ptr, i32 } %20, 0
  tail call void @__clang_call_terminate(ptr %21) #18
  unreachable
}

; Function Attrs: uwtable
define dso_local void @_ZThn8_N11xercesc_2_517SAX2XMLReaderImplD1Ev(ptr noundef %0) unnamed_addr #2 align 2 personality ptr @__gxx_personality_v0 {
  %2 = getelementptr inbounds i8, ptr %0, i64 -8
  store ptr getelementptr inbounds ({ [85 x ptr], [17 x ptr], [6 x ptr], [10 x ptr], [20 x ptr] }, ptr @_ZTVN11xercesc_2_517SAX2XMLReaderImplE, i64 0, inrange i32 0, i64 2), ptr %2, align 8, !tbaa !759
  store ptr getelementptr inbounds ({ [85 x ptr], [17 x ptr], [6 x ptr], [10 x ptr], [20 x ptr] }, ptr @_ZTVN11xercesc_2_517SAX2XMLReaderImplE, i64 0, inrange i32 1, i64 2), ptr %0, align 8, !tbaa !759
  %3 = getelementptr inbounds i8, ptr %0, i64 8
  store ptr getelementptr inbounds ({ [85 x ptr], [17 x ptr], [6 x ptr], [10 x ptr], [20 x ptr] }, ptr @_ZTVN11xercesc_2_517SAX2XMLReaderImplE, i64 0, inrange i32 2, i64 2), ptr %3, align 8, !tbaa !759
  %4 = getelementptr inbounds i8, ptr %0, i64 16
  store ptr getelementptr inbounds ({ [85 x ptr], [17 x ptr], [6 x ptr], [10 x ptr], [20 x ptr] }, ptr @_ZTVN11xercesc_2_517SAX2XMLReaderImplE, i64 0, inrange i32 3, i64 2), ptr %4, align 8, !tbaa !759
  %5 = getelementptr inbounds i8, ptr %0, i64 24
  store ptr getelementptr inbounds ({ [85 x ptr], [17 x ptr], [6 x ptr], [10 x ptr], [20 x ptr] }, ptr @_ZTVN11xercesc_2_517SAX2XMLReaderImplE, i64 0, inrange i32 4, i64 2), ptr %5, align 8, !tbaa !759
  invoke void @_ZN11xercesc_2_517SAX2XMLReaderImpl7cleanUpEv(ptr noundef nonnull align 8 dereferenceable(264) %2)
          to label %6 unwind label %8

6:                                                ; preds = %1
  %7 = getelementptr inbounds i8, ptr %0, i64 232
  invoke void @_ZN11xercesc_2_512XMLBufferMgrD1Ev(ptr noundef nonnull align 8 dereferenceable(24) %7)
          to label %20 unwind label %11

8:                                                ; preds = %1
  %9 = landingpad { ptr, i32 }
          cleanup
  %10 = getelementptr inbounds i8, ptr %0, i64 232
  invoke void @_ZN11xercesc_2_512XMLBufferMgrD1Ev(ptr noundef nonnull align 8 dereferenceable(24) %10)
          to label %13 unwind label %17

11:                                               ; preds = %6
  %12 = landingpad { ptr, i32 }
          cleanup
  br label %13

13:                                               ; preds = %11, %8
  %14 = phi { ptr, i32 } [ %12, %11 ], [ %9, %8 ]
  %15 = getelementptr inbounds i8, ptr %0, i64 56
  invoke void @_ZN11xercesc_2_517VecAttributesImplD1Ev(ptr noundef nonnull align 8 dereferenceable(32) %15)
          to label %16 unwind label %17

16:                                               ; preds = %13
  resume { ptr, i32 } %14

17:                                               ; preds = %13, %8
  %18 = landingpad { ptr, i32 }
          catch ptr null
  %19 = extractvalue { ptr, i32 } %18, 0
  tail call void @__clang_call_terminate(ptr %19) #18
  unreachable

20:                                               ; preds = %6
  %21 = getelementptr inbounds i8, ptr %0, i64 56
  tail call void @_ZN11xercesc_2_517VecAttributesImplD1Ev(ptr noundef nonnull align 8 dereferenceable(32) %21)
  ret void
}

; Function Attrs: uwtable
define dso_local void @_ZThn16_N11xercesc_2_517SAX2XMLReaderImplD1Ev(ptr noundef %0) unnamed_addr #2 align 2 personality ptr @__gxx_personality_v0 {
  %2 = getelementptr inbounds i8, ptr %0, i64 -16
  store ptr getelementptr inbounds ({ [85 x ptr], [17 x ptr], [6 x ptr], [10 x ptr], [20 x ptr] }, ptr @_ZTVN11xercesc_2_517SAX2XMLReaderImplE, i64 0, inrange i32 0, i64 2), ptr %2, align 8, !tbaa !759
  %3 = getelementptr inbounds i8, ptr %0, i64 -8
  store ptr getelementptr inbounds ({ [85 x ptr], [17 x ptr], [6 x ptr], [10 x ptr], [20 x ptr] }, ptr @_ZTVN11xercesc_2_517SAX2XMLReaderImplE, i64 0, inrange i32 1, i64 2), ptr %3, align 8, !tbaa !759
  store ptr getelementptr inbounds ({ [85 x ptr], [17 x ptr], [6 x ptr], [10 x ptr], [20 x ptr] }, ptr @_ZTVN11xercesc_2_517SAX2XMLReaderImplE, i64 0, inrange i32 2, i64 2), ptr %0, align 8, !tbaa !759
  %4 = getelementptr inbounds i8, ptr %0, i64 8
  store ptr getelementptr inbounds ({ [85 x ptr], [17 x ptr], [6 x ptr], [10 x ptr], [20 x ptr] }, ptr @_ZTVN11xercesc_2_517SAX2XMLReaderImplE, i64 0, inrange i32 3, i64 2), ptr %4, align 8, !tbaa !759
  %5 = getelementptr inbounds i8, ptr %0, i64 16
  store ptr getelementptr inbounds ({ [85 x ptr], [17 x ptr], [6 x ptr], [10 x ptr], [20 x ptr] }, ptr @_ZTVN11xercesc_2_517SAX2XMLReaderImplE, i64 0, inrange i32 4, i64 2), ptr %5, align 8, !tbaa !759
  invoke void @_ZN11xercesc_2_517SAX2XMLReaderImpl7cleanUpEv(ptr noundef nonnull align 8 dereferenceable(264) %2)
          to label %6 unwind label %8

6:                                                ; preds = %1
  %7 = getelementptr inbounds i8, ptr %0, i64 224
  invoke void @_ZN11xercesc_2_512XMLBufferMgrD1Ev(ptr noundef nonnull align 8 dereferenceable(24) %7)
          to label %20 unwind label %11

8:                                                ; preds = %1
  %9 = landingpad { ptr, i32 }
          cleanup
  %10 = getelementptr inbounds i8, ptr %0, i64 224
  invoke void @_ZN11xercesc_2_512XMLBufferMgrD1Ev(ptr noundef nonnull align 8 dereferenceable(24) %10)
          to label %13 unwind label %17

11:                                               ; preds = %6
  %12 = landingpad { ptr, i32 }
          cleanup
  br label %13

13:                                               ; preds = %11, %8
  %14 = phi { ptr, i32 } [ %12, %11 ], [ %9, %8 ]
  %15 = getelementptr inbounds i8, ptr %0, i64 48
  invoke void @_ZN11xercesc_2_517VecAttributesImplD1Ev(ptr noundef nonnull align 8 dereferenceable(32) %15)
          to label %16 unwind label %17

16:                                               ; preds = %13
  resume { ptr, i32 } %14

17:                                               ; preds = %13, %8
  %18 = landingpad { ptr, i32 }
          catch ptr null
  %19 = extractvalue { ptr, i32 } %18, 0
  tail call void @__clang_call_terminate(ptr %19) #18
  unreachable

20:                                               ; preds = %6
  %21 = getelementptr inbounds i8, ptr %0, i64 48
  tail call void @_ZN11xercesc_2_517VecAttributesImplD1Ev(ptr noundef nonnull align 8 dereferenceable(32) %21)
  ret void
}

; Function Attrs: uwtable
define dso_local void @_ZThn24_N11xercesc_2_517SAX2XMLReaderImplD1Ev(ptr noundef %0) unnamed_addr #2 align 2 personality ptr @__gxx_personality_v0 {
  %2 = getelementptr inbounds i8, ptr %0, i64 -24
  store ptr getelementptr inbounds ({ [85 x ptr], [17 x ptr], [6 x ptr], [10 x ptr], [20 x ptr] }, ptr @_ZTVN11xercesc_2_517SAX2XMLReaderImplE, i64 0, inrange i32 0, i64 2), ptr %2, align 8, !tbaa !759
  %3 = getelementptr inbounds i8, ptr %0, i64 -16
  store ptr getelementptr inbounds ({ [85 x ptr], [17 x ptr], [6 x ptr], [10 x ptr], [20 x ptr] }, ptr @_ZTVN11xercesc_2_517SAX2XMLReaderImplE, i64 0, inrange i32 1, i64 2), ptr %3, align 8, !tbaa !759
  %4 = getelementptr inbounds i8, ptr %0, i64 -8
  store ptr getelementptr inbounds ({ [85 x ptr], [17 x ptr], [6 x ptr], [10 x ptr], [20 x ptr] }, ptr @_ZTVN11xercesc_2_517SAX2XMLReaderImplE, i64 0, inrange i32 2, i64 2), ptr %4, align 8, !tbaa !759
  store ptr getelementptr inbounds ({ [85 x ptr], [17 x ptr], [6 x ptr], [10 x ptr], [20 x ptr] }, ptr @_ZTVN11xercesc_2_517SAX2XMLReaderImplE, i64 0, inrange i32 3, i64 2), ptr %0, align 8, !tbaa !759
  %5 = getelementptr inbounds i8, ptr %0, i64 8
  store ptr getelementptr inbounds ({ [85 x ptr], [17 x ptr], [6 x ptr], [10 x ptr], [20 x ptr] }, ptr @_ZTVN11xercesc_2_517SAX2XMLReaderImplE, i64 0, inrange i32 4, i64 2), ptr %5, align 8, !tbaa !759
  invoke void @_ZN11xercesc_2_517SAX2XMLReaderImpl7cleanUpEv(ptr noundef nonnull align 8 dereferenceable(264) %2)
          to label %6 unwind label %8

6:                                                ; preds = %1
  %7 = getelementptr inbounds i8, ptr %0, i64 216
  invoke void @_ZN11xercesc_2_512XMLBufferMgrD1Ev(ptr noundef nonnull align 8 dereferenceable(24) %7)
          to label %20 unwind label %11

8:                                                ; preds = %1
  %9 = landingpad { ptr, i32 }
          cleanup
  %10 = getelementptr inbounds i8, ptr %0, i64 216
  invoke void @_ZN11xercesc_2_512XMLBufferMgrD1Ev(ptr noundef nonnull align 8 dereferenceable(24) %10)
          to label %13 unwind label %17

11:                                               ; preds = %6
  %12 = landingpad { ptr, i32 }
          cleanup
  br label %13

13:                                               ; preds = %11, %8
  %14 = phi { ptr, i32 } [ %12, %11 ], [ %9, %8 ]
  %15 = getelementptr inbounds i8, ptr %0, i64 40
  invoke void @_ZN11xercesc_2_517VecAttributesImplD1Ev(ptr noundef nonnull align 8 dereferenceable(32) %15)
          to label %16 unwind label %17

16:                                               ; preds = %13
  resume { ptr, i32 } %14

17:                                               ; preds = %13, %8
  %18 = landingpad { ptr, i32 }
          catch ptr null
  %19 = extractvalue { ptr, i32 } %18, 0
  tail call void @__clang_call_terminate(ptr %19) #18
  unreachable

20:                                               ; preds = %6
  %21 = getelementptr inbounds i8, ptr %0, i64 40
  tail call void @_ZN11xercesc_2_517VecAttributesImplD1Ev(ptr noundef nonnull align 8 dereferenceable(32) %21)
  ret void
}

; Function Attrs: uwtable
define dso_local void @_ZThn32_N11xercesc_2_517SAX2XMLReaderImplD1Ev(ptr noundef %0) unnamed_addr #2 align 2 personality ptr @__gxx_personality_v0 {
  %2 = getelementptr inbounds i8, ptr %0, i64 -32
  store ptr getelementptr inbounds ({ [85 x ptr], [17 x ptr], [6 x ptr], [10 x ptr], [20 x ptr] }, ptr @_ZTVN11xercesc_2_517SAX2XMLReaderImplE, i64 0, inrange i32 0, i64 2), ptr %2, align 8, !tbaa !759
  %3 = getelementptr inbounds i8, ptr %0, i64 -24
  store ptr getelementptr inbounds ({ [85 x ptr], [17 x ptr], [6 x ptr], [10 x ptr], [20 x ptr] }, ptr @_ZTVN11xercesc_2_517SAX2XMLReaderImplE, i64 0, inrange i32 1, i64 2), ptr %3, align 8, !tbaa !759
  %4 = getelementptr inbounds i8, ptr %0, i64 -16
  store ptr getelementptr inbounds ({ [85 x ptr], [17 x ptr], [6 x ptr], [10 x ptr], [20 x ptr] }, ptr @_ZTVN11xercesc_2_517SAX2XMLReaderImplE, i64 0, inrange i32 2, i64 2), ptr %4, align 8, !tbaa !759
  %5 = getelementptr inbounds i8, ptr %0, i64 -8
  store ptr getelementptr inbounds ({ [85 x ptr], [17 x ptr], [6 x ptr], [10 x ptr], [20 x ptr] }, ptr @_ZTVN11xercesc_2_517SAX2XMLReaderImplE, i64 0, inrange i32 3, i64 2), ptr %5, align 8, !tbaa !759
  store ptr getelementptr inbounds ({ [85 x ptr], [17 x ptr], [6 x ptr], [10 x ptr], [20 x ptr] }, ptr @_ZTVN11xercesc_2_517SAX2XMLReaderImplE, i64 0, inrange i32 4, i64 2), ptr %0, align 8, !tbaa !759
  invoke void @_ZN11xercesc_2_517SAX2XMLReaderImpl7cleanUpEv(ptr noundef nonnull align 8 dereferenceable(264) %2)
          to label %6 unwind label %8

6:                                                ; preds = %1
  %7 = getelementptr inbounds i8, ptr %0, i64 208
  invoke void @_ZN11xercesc_2_512XMLBufferMgrD1Ev(ptr noundef nonnull align 8 dereferenceable(24) %7)
          to label %20 unwind label %11

8:                                                ; preds = %1
  %9 = landingpad { ptr, i32 }
          cleanup
  %10 = getelementptr inbounds i8, ptr %0, i64 208
  invoke void @_ZN11xercesc_2_512XMLBufferMgrD1Ev(ptr noundef nonnull align 8 dereferenceable(24) %10)
          to label %13 unwind label %17

11:                                               ; preds = %6
  %12 = landingpad { ptr, i32 }
          cleanup
  br label %13

13:                                               ; preds = %11, %8
  %14 = phi { ptr, i32 } [ %12, %11 ], [ %9, %8 ]
  %15 = getelementptr inbounds i8, ptr %0, i64 32
  invoke void @_ZN11xercesc_2_517VecAttributesImplD1Ev(ptr noundef nonnull align 8 dereferenceable(32) %15)
          to label %16 unwind label %17

16:                                               ; preds = %13
  resume { ptr, i32 } %14

17:                                               ; preds = %13, %8
  %18 = landingpad { ptr, i32 }
          catch ptr null
  %19 = extractvalue { ptr, i32 } %18, 0
  tail call void @__clang_call_terminate(ptr %19) #18
  unreachable

20:                                               ; preds = %6
  %21 = getelementptr inbounds i8, ptr %0, i64 32
  tail call void @_ZN11xercesc_2_517VecAttributesImplD1Ev(ptr noundef nonnull align 8 dereferenceable(32) %21)
  ret void
}

; Function Attrs: uwtable
define dso_local void @_ZN11xercesc_2_517SAX2XMLReaderImplD0Ev(ptr noundef nonnull align 8 dereferenceable(264) %0) unnamed_addr #2 align 2 personality ptr @__gxx_personality_v0 {
  store ptr getelementptr inbounds ({ [85 x ptr], [17 x ptr], [6 x ptr], [10 x ptr], [20 x ptr] }, ptr @_ZTVN11xercesc_2_517SAX2XMLReaderImplE, i64 0, inrange i32 0, i64 2), ptr %0, align 8, !tbaa !759
  %2 = getelementptr inbounds i8, ptr %0, i64 8
  store ptr getelementptr inbounds ({ [85 x ptr], [17 x ptr], [6 x ptr], [10 x ptr], [20 x ptr] }, ptr @_ZTVN11xercesc_2_517SAX2XMLReaderImplE, i64 0, inrange i32 1, i64 2), ptr %2, align 8, !tbaa !759
  %3 = getelementptr inbounds i8, ptr %0, i64 16
  store ptr getelementptr inbounds ({ [85 x ptr], [17 x ptr], [6 x ptr], [10 x ptr], [20 x ptr] }, ptr @_ZTVN11xercesc_2_517SAX2XMLReaderImplE, i64 0, inrange i32 2, i64 2), ptr %3, align 8, !tbaa !759
  %4 = getelementptr inbounds i8, ptr %0, i64 24
  store ptr getelementptr inbounds ({ [85 x ptr], [17 x ptr], [6 x ptr], [10 x ptr], [20 x ptr] }, ptr @_ZTVN11xercesc_2_517SAX2XMLReaderImplE, i64 0, inrange i32 3, i64 2), ptr %4, align 8, !tbaa !759
  %5 = getelementptr inbounds i8, ptr %0, i64 32
  store ptr getelementptr inbounds ({ [85 x ptr], [17 x ptr], [6 x ptr], [10 x ptr], [20 x ptr] }, ptr @_ZTVN11xercesc_2_517SAX2XMLReaderImplE, i64 0, inrange i32 4, i64 2), ptr %5, align 8, !tbaa !759
  invoke void @_ZN11xercesc_2_517SAX2XMLReaderImpl7cleanUpEv(ptr noundef nonnull align 8 dereferenceable(264) %0)
          to label %6 unwind label %10

6:                                                ; preds = %1
  %7 = getelementptr inbounds %"class.xercesc_2_5::SAX2XMLReaderImpl", ptr %0, i64 0, i32 32
  invoke void @_ZN11xercesc_2_512XMLBufferMgrD1Ev(ptr noundef nonnull align 8 dereferenceable(24) %7)
          to label %8 unwind label %13

8:                                                ; preds = %6
  %9 = getelementptr inbounds %"class.xercesc_2_5::SAX2XMLReaderImpl", ptr %0, i64 0, i32 13
  invoke void @_ZN11xercesc_2_517VecAttributesImplD1Ev(ptr noundef nonnull align 8 dereferenceable(32) %9)
          to label %21 unwind label %22

10:                                               ; preds = %1
  %11 = landingpad { ptr, i32 }
          cleanup
  %12 = getelementptr inbounds %"class.xercesc_2_5::SAX2XMLReaderImpl", ptr %0, i64 0, i32 32
  invoke void @_ZN11xercesc_2_512XMLBufferMgrD1Ev(ptr noundef nonnull align 8 dereferenceable(24) %12)
          to label %15 unwind label %18

13:                                               ; preds = %6
  %14 = landingpad { ptr, i32 }
          cleanup
  br label %15

15:                                               ; preds = %13, %10
  %16 = phi { ptr, i32 } [ %14, %13 ], [ %11, %10 ]
  %17 = getelementptr inbounds %"class.xercesc_2_5::SAX2XMLReaderImpl", ptr %0, i64 0, i32 13
  invoke void @_ZN11xercesc_2_517VecAttributesImplD1Ev(ptr noundef nonnull align 8 dereferenceable(32) %17)
          to label %24 unwind label %18

18:                                               ; preds = %15, %10
  %19 = landingpad { ptr, i32 }
          catch ptr null
  %20 = extractvalue { ptr, i32 } %19, 0
  tail call void @__clang_call_terminate(ptr %20) #18
  unreachable

21:                                               ; preds = %8
  tail call void @_ZN11xercesc_2_57XMemorydlEPv(ptr noundef nonnull %0)
  ret void

22:                                               ; preds = %8
  %23 = landingpad { ptr, i32 }
          cleanup
  br label %24

24:                                               ; preds = %15, %22
  %25 = phi { ptr, i32 } [ %23, %22 ], [ %16, %15 ]
  invoke void @_ZN11xercesc_2_57XMemorydlEPv(ptr noundef nonnull %0)
          to label %26 unwind label %27

26:                                               ; preds = %24
  resume { ptr, i32 } %25

27:                                               ; preds = %24
  %28 = landingpad { ptr, i32 }
          catch ptr null
  %29 = extractvalue { ptr, i32 } %28, 0
  tail call void @__clang_call_terminate(ptr %29) #18
  unreachable
}

; Function Attrs: uwtable
define dso_local void @_ZThn8_N11xercesc_2_517SAX2XMLReaderImplD0Ev(ptr noundef %0) unnamed_addr #2 align 2 {
  %2 = getelementptr inbounds i8, ptr %0, i64 -8
  tail call void @_ZN11xercesc_2_517SAX2XMLReaderImplD0Ev(ptr noundef nonnull align 8 dereferenceable(264) %2)
  ret void
}

; Function Attrs: uwtable
define dso_local void @_ZThn16_N11xercesc_2_517SAX2XMLReaderImplD0Ev(ptr noundef %0) unnamed_addr #2 align 2 {
  %2 = getelementptr inbounds i8, ptr %0, i64 -16
  tail call void @_ZN11xercesc_2_517SAX2XMLReaderImplD0Ev(ptr noundef nonnull align 8 dereferenceable(264) %2)
  ret void
}

; Function Attrs: uwtable
define dso_local void @_ZThn24_N11xercesc_2_517SAX2XMLReaderImplD0Ev(ptr noundef %0) unnamed_addr #2 align 2 {
  %2 = getelementptr inbounds i8, ptr %0, i64 -24
  tail call void @_ZN11xercesc_2_517SAX2XMLReaderImplD0Ev(ptr noundef nonnull align 8 dereferenceable(264) %2)
  ret void
}

; Function Attrs: uwtable
define dso_local void @_ZThn32_N11xercesc_2_517SAX2XMLReaderImplD0Ev(ptr noundef %0) unnamed_addr #2 align 2 {
  %2 = getelementptr inbounds i8, ptr %0, i64 -32
  tail call void @_ZN11xercesc_2_517SAX2XMLReaderImplD0Ev(ptr noundef nonnull align 8 dereferenceable(264) %2)
  ret void
}

declare noundef ptr @_ZN11xercesc_2_57XMemorynwEmPNS_13MemoryManagerE(i64 noundef, ptr noundef) local_unnamed_addr #1

declare void @_ZN11xercesc_2_515GrammarResolverC1EPNS_14XMLGrammarPoolEPNS_13MemoryManagerE(ptr noundef nonnull align 8 dereferenceable(80), ptr noundef, ptr noundef) unnamed_addr #1

declare void @_ZN11xercesc_2_57XMemorydlEPvPNS_13MemoryManagerE(ptr noundef, ptr noundef) local_unnamed_addr #1

declare noundef ptr @_ZN11xercesc_2_518XMLScannerResolver17getDefaultScannerEPNS_12XMLValidatorEPNS_15GrammarResolverEPNS_13MemoryManagerE(ptr noundef, ptr noundef, ptr noundef) local_unnamed_addr #1

declare void @_ZN11xercesc_2_510XMLScanner16setURIStringPoolEPNS_13XMLStringPoolE(ptr noundef nonnull align 8 dereferenceable(664), ptr noundef) local_unnamed_addr #1

; Function Attrs: mustprogress nocallback nofree nounwind willreturn memory(argmem: write)
declare void @llvm.memset.p0.i64(ptr nocapture writeonly, i8, i64, i1 immarg) #5

; Function Attrs: mustprogress nofree norecurse nosync nounwind willreturn memory(write, argmem: readwrite, inaccessiblemem: none) uwtable
define dso_local void @_ZN11xercesc_2_517SAX2XMLReaderImpl15setDoNamespacesEb(ptr nocapture noundef nonnull readonly align 8 dereferenceable(264) %0, i1 noundef zeroext %1) local_unnamed_addr #6 align 2 {
  %3 = getelementptr inbounds %"class.xercesc_2_5::SAX2XMLReaderImpl", ptr %0, i64 0, i32 26
  %4 = load ptr, ptr %3, align 8, !tbaa !789
  %5 = zext i1 %1 to i8
  %6 = getelementptr inbounds %"class.xercesc_2_5::XMLScanner", ptr %4, i64 0, i32 3
  store i8 %5, ptr %6, align 2, !tbaa !791
  ret void
}

; Function Attrs: mustprogress nofree norecurse nosync nounwind willreturn memory(write, argmem: readwrite, inaccessiblemem: none) uwtable
define dso_local void @_ZN11xercesc_2_517SAX2XMLReaderImpl11setDoSchemaEb(ptr nocapture noundef nonnull readonly align 8 dereferenceable(264) %0, i1 noundef zeroext %1) local_unnamed_addr #6 align 2 {
  %3 = getelementptr inbounds %"class.xercesc_2_5::SAX2XMLReaderImpl", ptr %0, i64 0, i32 26
  %4 = load ptr, ptr %3, align 8, !tbaa !789
  %5 = zext i1 %1 to i8
  %6 = getelementptr inbounds %"class.xercesc_2_5::XMLScanner", ptr %4, i64 0, i32 11
  store i8 %5, ptr %6, align 2, !tbaa !801
  ret void
}

declare void @_ZN11xercesc_2_515GrammarResolverD1Ev(ptr noundef nonnull align 8 dereferenceable(80)) unnamed_addr #1

; Function Attrs: uwtable
define dso_local void @_ZN11xercesc_2_517SAX2XMLReaderImpl20installAdvDocHandlerEPNS_18XMLDocumentHandlerE(ptr noundef nonnull align 8 dereferenceable(264) %0, ptr noundef %1) unnamed_addr #2 align 2 {
  %3 = getelementptr inbounds %"class.xercesc_2_5::SAX2XMLReaderImpl", ptr %0, i64 0, i32 11
  %4 = load i32, ptr %3, align 4, !tbaa !781
  %5 = getelementptr inbounds %"class.xercesc_2_5::SAX2XMLReaderImpl", ptr %0, i64 0, i32 12
  %6 = load i32, ptr %5, align 8, !tbaa !782
  %7 = icmp eq i32 %4, %6
  br i1 %7, label %11, label %8

8:                                                ; preds = %2
  %9 = getelementptr inbounds %"class.xercesc_2_5::SAX2XMLReaderImpl", ptr %0, i64 0, i32 25
  %10 = load ptr, ptr %9, align 8, !tbaa !790
  br label %40

11:                                               ; preds = %2
  %12 = uitofp i32 %4 to double
  %13 = fmul reassoc nnan ninf nsz arcp afn double %12, 1.500000e+00
  %14 = fptoui double %13 to i32
  %15 = getelementptr inbounds %"class.xercesc_2_5::SAX2XMLReaderImpl", ptr %0, i64 0, i32 30
  %16 = load ptr, ptr %15, align 8, !tbaa !783
  %17 = zext i32 %14 to i64
  %18 = shl nuw nsw i64 %17, 3
  %19 = load ptr, ptr %16, align 8, !tbaa !759
  %20 = getelementptr inbounds ptr, ptr %19, i64 2
  %21 = load ptr, ptr %20, align 8
  %22 = tail call noundef ptr %21(ptr noundef nonnull align 8 dereferenceable(8) %16, i64 noundef %18)
  %23 = getelementptr inbounds %"class.xercesc_2_5::SAX2XMLReaderImpl", ptr %0, i64 0, i32 25
  %24 = load ptr, ptr %23, align 8, !tbaa !790
  %25 = load i32, ptr %5, align 8, !tbaa !782
  %26 = zext i32 %25 to i64
  %27 = shl nuw nsw i64 %26, 3
  tail call void @llvm.memcpy.p0.p0.i64(ptr align 8 %22, ptr align 8 %24, i64 %27, i1 false)
  %28 = load i32, ptr %5, align 8, !tbaa !782
  %29 = zext i32 %28 to i64
  %30 = getelementptr inbounds ptr, ptr %22, i64 %29
  %31 = sub i32 %14, %28
  %32 = zext i32 %31 to i64
  %33 = shl nuw nsw i64 %32, 3
  tail call void @llvm.memset.p0.i64(ptr align 8 %30, i8 0, i64 %33, i1 false)
  %34 = load ptr, ptr %15, align 8, !tbaa !783
  %35 = load ptr, ptr %23, align 8, !tbaa !790
  %36 = load ptr, ptr %34, align 8, !tbaa !759
  %37 = getelementptr inbounds ptr, ptr %36, i64 3
  %38 = load ptr, ptr %37, align 8
  tail call void %38(ptr noundef nonnull align 8 dereferenceable(8) %34, ptr noundef %35)
  store ptr %22, ptr %23, align 8, !tbaa !790
  store i32 %14, ptr %5, align 8, !tbaa !782
  %39 = load i32, ptr %3, align 4, !tbaa !781
  br label %40

40:                                               ; preds = %8, %11
  %41 = phi i32 [ %4, %8 ], [ %39, %11 ]
  %42 = phi ptr [ %10, %8 ], [ %22, %11 ]
  %43 = add i32 %41, 1
  store i32 %43, ptr %3, align 4, !tbaa !781
  %44 = zext i32 %41 to i64
  %45 = getelementptr inbounds ptr, ptr %42, i64 %44
  store ptr %1, ptr %45, align 8, !tbaa !808
  %46 = getelementptr inbounds %"class.xercesc_2_5::SAX2XMLReaderImpl", ptr %0, i64 0, i32 26
  %47 = load ptr, ptr %46, align 8, !tbaa !789
  %48 = getelementptr inbounds i8, ptr %0, i64 8
  %49 = getelementptr inbounds %"class.xercesc_2_5::XMLScanner", ptr %47, i64 0, i32 32
  store ptr %48, ptr %49, align 8, !tbaa !828
  ret void
}

; Function Attrs: mustprogress nocallback nofree nounwind willreturn memory(argmem: readwrite)
declare void @llvm.memcpy.p0.p0.i64(ptr noalias nocapture writeonly, ptr noalias nocapture readonly, i64, i1 immarg) #7

; Function Attrs: nofree norecurse nosync nounwind memory(readwrite, inaccessiblemem: none) uwtable
define dso_local noundef zeroext i1 @_ZN11xercesc_2_517SAX2XMLReaderImpl19removeAdvDocHandlerEPNS_18XMLDocumentHandlerE(ptr nocapture noundef nonnull align 8 dereferenceable(264) %0, ptr noundef readnone %1) unnamed_addr #8 align 2 {
  %3 = getelementptr inbounds %"class.xercesc_2_5::SAX2XMLReaderImpl", ptr %0, i64 0, i32 11
  %4 = load i32, ptr %3, align 4, !tbaa !781
  %5 = icmp eq i32 %4, 0
  br i1 %5, label %45, label %6

6:                                                ; preds = %2
  %7 = getelementptr inbounds %"class.xercesc_2_5::SAX2XMLReaderImpl", ptr %0, i64 0, i32 25
  %8 = load ptr, ptr %7, align 8, !tbaa !790
  %9 = zext i32 %4 to i64
  br label %10

10:                                               ; preds = %6, %42
  %11 = phi i64 [ 0, %6 ], [ %43, %42 ]
  %12 = getelementptr inbounds ptr, ptr %8, i64 %11
  %13 = load ptr, ptr %12, align 8, !tbaa !808
  %14 = icmp eq ptr %13, %1
  br i1 %14, label %15, label %42

15:                                               ; preds = %10
  %16 = icmp ugt i32 %4, 1
  br i1 %16, label %17, label %29

17:                                               ; preds = %15
  %18 = trunc i64 %11 to i32
  %19 = add nuw i32 %18, 1
  %20 = icmp ult i32 %19, %4
  br i1 %20, label %21, label %29

21:                                               ; preds = %17
  %22 = zext i32 %19 to i64
  br label %23

23:                                               ; preds = %23, %21
  %24 = phi ptr [ %28, %23 ], [ %8, %21 ]
  %25 = getelementptr inbounds ptr, ptr %24, i64 %22
  %26 = load ptr, ptr %25, align 8, !tbaa !808
  %27 = getelementptr inbounds ptr, ptr %24, i64 %11
  store ptr %26, ptr %27, align 8, !tbaa !808
  %28 = load ptr, ptr %7, align 8, !tbaa !790
  br label %23

29:                                               ; preds = %17, %15
  %30 = add i32 %4, -1
  store i32 %30, ptr %3, align 4, !tbaa !781
  %31 = zext i32 %30 to i64
  %32 = getelementptr inbounds ptr, ptr %8, i64 %31
  store ptr null, ptr %32, align 8, !tbaa !808
  %33 = icmp eq i32 %30, 0
  %34 = getelementptr inbounds %"class.xercesc_2_5::SAX2XMLReaderImpl", ptr %0, i64 0, i32 14
  %35 = load ptr, ptr %34, align 8
  %36 = icmp eq ptr %35, null
  %37 = select i1 %33, i1 %36, i1 false
  br i1 %37, label %38, label %45

38:                                               ; preds = %29
  %39 = getelementptr inbounds %"class.xercesc_2_5::SAX2XMLReaderImpl", ptr %0, i64 0, i32 26
  %40 = load ptr, ptr %39, align 8, !tbaa !789
  %41 = getelementptr inbounds %"class.xercesc_2_5::XMLScanner", ptr %40, i64 0, i32 32
  store ptr null, ptr %41, align 8, !tbaa !828
  br label %45

42:                                               ; preds = %10
  %43 = add nuw nsw i64 %11, 1
  %44 = icmp eq i64 %43, %9
  br i1 %44, label %45, label %10

45:                                               ; preds = %42, %38, %29, %2
  %46 = phi i1 [ false, %2 ], [ true, %29 ], [ true, %38 ], [ false, %42 ]
  ret i1 %46
}

; Function Attrs: uwtable
define dso_local void @_ZN11xercesc_2_517SAX2XMLReaderImpl12setValidatorEPNS_12XMLValidatorE(ptr nocapture noundef nonnull align 8 dereferenceable(264) %0, ptr noundef %1) unnamed_addr #2 align 2 {
  %3 = getelementptr inbounds %"class.xercesc_2_5::SAX2XMLReaderImpl", ptr %0, i64 0, i32 29
  store ptr %1, ptr %3, align 8, !tbaa !829
  %4 = getelementptr inbounds %"class.xercesc_2_5::SAX2XMLReaderImpl", ptr %0, i64 0, i32 26
  %5 = load ptr, ptr %4, align 8, !tbaa !789
  tail call void @_ZN11xercesc_2_510XMLScanner12setValidatorEPNS_12XMLValidatorE(ptr noundef nonnull align 8 dereferenceable(664) %5, ptr noundef %1)
  ret void
}

declare void @_ZN11xercesc_2_510XMLScanner12setValidatorEPNS_12XMLValidatorE(ptr noundef nonnull align 8 dereferenceable(664), ptr noundef) local_unnamed_addr #1

; Function Attrs: mustprogress nofree norecurse nosync nounwind willreturn memory(read, inaccessiblemem: none) uwtable
define dso_local noundef ptr @_ZNK11xercesc_2_517SAX2XMLReaderImpl12getValidatorEv(ptr nocapture noundef nonnull readonly align 8 dereferenceable(264) %0) unnamed_addr #9 align 2 {
  %2 = getelementptr inbounds %"class.xercesc_2_5::SAX2XMLReaderImpl", ptr %0, i64 0, i32 26
  %3 = load ptr, ptr %2, align 8, !tbaa !789
  %4 = getelementptr inbounds %"class.xercesc_2_5::XMLScanner", ptr %3, i64 0, i32 41
  %5 = load ptr, ptr %4, align 8, !tbaa !830
  ret ptr %5
}

; Function Attrs: mustprogress nofree norecurse nosync nounwind willreturn memory(read, inaccessiblemem: none) uwtable
define dso_local noundef i32 @_ZNK11xercesc_2_517SAX2XMLReaderImpl13getErrorCountEv(ptr nocapture noundef nonnull readonly align 8 dereferenceable(264) %0) unnamed_addr #9 align 2 {
  %2 = getelementptr inbounds %"class.xercesc_2_5::SAX2XMLReaderImpl", ptr %0, i64 0, i32 26
  %3 = load ptr, ptr %2, align 8, !tbaa !789
  %4 = getelementptr inbounds %"class.xercesc_2_5::XMLScanner", ptr %3, i64 0, i32 17
  %5 = load i32, ptr %4, align 8, !tbaa !831
  ret i32 %5
}

; Function Attrs: mustprogress nofree norecurse nosync nounwind willreturn memory(write, argmem: readwrite, inaccessiblemem: none) uwtable
define dso_local void @_ZN11xercesc_2_517SAX2XMLReaderImpl17setContentHandlerEPNS_14ContentHandlerE(ptr noundef nonnull align 8 dereferenceable(264) %0, ptr noundef %1) unnamed_addr #6 align 2 {
  %3 = getelementptr inbounds %"class.xercesc_2_5::SAX2XMLReaderImpl", ptr %0, i64 0, i32 14
  store ptr %1, ptr %3, align 8, !tbaa !832
  %4 = icmp eq ptr %1, null
  br i1 %4, label %7, label %5

5:                                                ; preds = %2
  %6 = getelementptr inbounds i8, ptr %0, i64 8
  br label %11

7:                                                ; preds = %2
  %8 = getelementptr inbounds %"class.xercesc_2_5::SAX2XMLReaderImpl", ptr %0, i64 0, i32 11
  %9 = load i32, ptr %8, align 4, !tbaa !781
  %10 = icmp eq i32 %9, 0
  br i1 %10, label %11, label %16

11:                                               ; preds = %7, %5
  %12 = phi ptr [ %6, %5 ], [ null, %7 ]
  %13 = getelementptr inbounds %"class.xercesc_2_5::SAX2XMLReaderImpl", ptr %0, i64 0, i32 26
  %14 = load ptr, ptr %13, align 8, !tbaa !789
  %15 = getelementptr inbounds %"class.xercesc_2_5::XMLScanner", ptr %14, i64 0, i32 32
  store ptr %12, ptr %15, align 8, !tbaa !828
  br label %16

16:                                               ; preds = %11, %7
  ret void
}

; Function Attrs: mustprogress nofree norecurse nosync nounwind willreturn memory(write, argmem: readwrite, inaccessiblemem: none) uwtable
define dso_local void @_ZN11xercesc_2_517SAX2XMLReaderImpl13setDTDHandlerEPNS_10DTDHandlerE(ptr noundef nonnull align 8 dereferenceable(264) %0, ptr noundef %1) unnamed_addr #6 align 2 {
  %3 = getelementptr inbounds %"class.xercesc_2_5::SAX2XMLReaderImpl", ptr %0, i64 0, i32 18
  store ptr %1, ptr %3, align 8, !tbaa !833
  %4 = icmp eq ptr %1, null
  %5 = getelementptr inbounds %"class.xercesc_2_5::SAX2XMLReaderImpl", ptr %0, i64 0, i32 26
  %6 = load ptr, ptr %5, align 8, !tbaa !789
  %7 = getelementptr inbounds i8, ptr %0, i64 32
  %8 = select i1 %4, ptr null, ptr %7
  %9 = getelementptr inbounds %"class.xercesc_2_5::XMLScanner", ptr %6, i64 0, i32 33
  store ptr %8, ptr %9, align 8, !tbaa !834
  ret void
}

; Function Attrs: mustprogress nofree nosync nounwind willreturn memory(write, argmem: readwrite, inaccessiblemem: none) uwtable
define dso_local void @_ZN11xercesc_2_517SAX2XMLReaderImpl15setErrorHandlerEPNS_12ErrorHandlerE(ptr noundef nonnull align 8 dereferenceable(264) %0, ptr noundef %1) unnamed_addr #10 align 2 {
  %3 = getelementptr inbounds %"class.xercesc_2_5::SAX2XMLReaderImpl", ptr %0, i64 0, i32 21
  store ptr %1, ptr %3, align 8, !tbaa !835
  %4 = icmp eq ptr %1, null
  %5 = getelementptr inbounds %"class.xercesc_2_5::SAX2XMLReaderImpl", ptr %0, i64 0, i32 26
  %6 = load ptr, ptr %5, align 8, !tbaa !789
  br i1 %4, label %11, label %7

7:                                                ; preds = %2
  %8 = getelementptr inbounds i8, ptr %0, i64 16
  %9 = getelementptr inbounds %"class.xercesc_2_5::XMLScanner", ptr %6, i64 0, i32 35
  store ptr %8, ptr %9, align 8, !tbaa !836
  %10 = getelementptr inbounds %"class.xercesc_2_5::XMLScanner", ptr %6, i64 0, i32 36
  store ptr %1, ptr %10, align 8, !tbaa !837
  br label %13

11:                                               ; preds = %2
  %12 = getelementptr inbounds %"class.xercesc_2_5::XMLScanner", ptr %6, i64 0, i32 35
  tail call void @llvm.memset.p0.i64(ptr noundef nonnull align 8 dereferenceable(16) %12, i8 0, i64 16, i1 false)
  br label %13

13:                                               ; preds = %11, %7
  ret void
}

; Function Attrs: mustprogress nofree norecurse nosync nounwind willreturn memory(write, argmem: readwrite, inaccessiblemem: none) uwtable
define dso_local void @_ZN11xercesc_2_517SAX2XMLReaderImpl14setPSVIHandlerEPNS_11PSVIHandlerE(ptr nocapture noundef nonnull align 8 dereferenceable(264) %0, ptr noundef %1) unnamed_addr #6 align 2 {
  %3 = getelementptr inbounds %"class.xercesc_2_5::SAX2XMLReaderImpl", ptr %0, i64 0, i32 22
  store ptr %1, ptr %3, align 8, !tbaa !838
  %4 = getelementptr inbounds %"class.xercesc_2_5::SAX2XMLReaderImpl", ptr %0, i64 0, i32 26
  %5 = load ptr, ptr %4, align 8, !tbaa !789
  %6 = getelementptr inbounds %"class.xercesc_2_5::XMLScanner", ptr %5, i64 0, i32 37
  store ptr %1, ptr %6, align 8, !tbaa !839
  ret void
}

; Function Attrs: mustprogress nofree norecurse nosync nounwind willreturn memory(write, argmem: readwrite, inaccessiblemem: none) uwtable
define dso_local void @_ZN11xercesc_2_517SAX2XMLReaderImpl17setLexicalHandlerEPNS_14LexicalHandlerE(ptr noundef nonnull align 8 dereferenceable(264) %0, ptr noundef %1) unnamed_addr #6 align 2 {
  %3 = getelementptr inbounds %"class.xercesc_2_5::SAX2XMLReaderImpl", ptr %0, i64 0, i32 23
  store ptr %1, ptr %3, align 8, !tbaa !840
  %4 = icmp eq ptr %1, null
  %5 = getelementptr inbounds %"class.xercesc_2_5::SAX2XMLReaderImpl", ptr %0, i64 0, i32 26
  %6 = load ptr, ptr %5, align 8, !tbaa !789
  %7 = getelementptr inbounds i8, ptr %0, i64 32
  %8 = select i1 %4, ptr null, ptr %7
  %9 = getelementptr inbounds %"class.xercesc_2_5::XMLScanner", ptr %6, i64 0, i32 33
  store ptr %8, ptr %9, align 8, !tbaa !834
  ret void
}

; Function Attrs: mustprogress nofree norecurse nosync nounwind willreturn memory(write, argmem: readwrite, inaccessiblemem: none) uwtable
define dso_local void @_ZN11xercesc_2_517SAX2XMLReaderImpl21setDeclarationHandlerEPNS_11DeclHandlerE(ptr noundef nonnull align 8 dereferenceable(264) %0, ptr noundef %1) unnamed_addr #6 align 2 {
  %3 = getelementptr inbounds %"class.xercesc_2_5::SAX2XMLReaderImpl", ptr %0, i64 0, i32 24
  store ptr %1, ptr %3, align 8, !tbaa !841
  %4 = icmp eq ptr %1, null
  %5 = getelementptr inbounds %"class.xercesc_2_5::SAX2XMLReaderImpl", ptr %0, i64 0, i32 26
  %6 = load ptr, ptr %5, align 8, !tbaa !789
  %7 = getelementptr inbounds i8, ptr %0, i64 32
  %8 = select i1 %4, ptr null, ptr %7
  %9 = getelementptr inbounds %"class.xercesc_2_5::XMLScanner", ptr %6, i64 0, i32 33
  store ptr %8, ptr %9, align 8, !tbaa !834
  ret void
}

; Function Attrs: mustprogress nofree norecurse nosync nounwind willreturn memory(write, argmem: readwrite, inaccessiblemem: none) uwtable
define dso_local void @_ZN11xercesc_2_517SAX2XMLReaderImpl17setEntityResolverEPNS_14EntityResolverE(ptr noundef nonnull align 8 dereferenceable(264) %0, ptr noundef %1) unnamed_addr #6 align 2 {
  %3 = getelementptr inbounds %"class.xercesc_2_5::SAX2XMLReaderImpl", ptr %0, i64 0, i32 19
  store ptr %1, ptr %3, align 8, !tbaa !842
  %4 = icmp eq ptr %1, null
  %5 = getelementptr inbounds %"class.xercesc_2_5::SAX2XMLReaderImpl", ptr %0, i64 0, i32 26
  %6 = load ptr, ptr %5, align 8, !tbaa !789
  br i1 %4, label %12, label %7

7:                                                ; preds = %2
  %8 = getelementptr inbounds i8, ptr %0, i64 24
  %9 = getelementptr inbounds %"class.xercesc_2_5::XMLScanner", ptr %6, i64 0, i32 34
  store ptr %8, ptr %9, align 8, !tbaa !843
  %10 = getelementptr inbounds %"class.xercesc_2_5::XMLScanner", ptr %6, i64 0, i32 40, i32 3
  store ptr %8, ptr %10, align 8, !tbaa !844
  %11 = getelementptr inbounds %"class.xercesc_2_5::SAX2XMLReaderImpl", ptr %0, i64 0, i32 20
  br label %15

12:                                               ; preds = %2
  %13 = getelementptr inbounds %"class.xercesc_2_5::XMLScanner", ptr %6, i64 0, i32 34
  store ptr null, ptr %13, align 8, !tbaa !843
  %14 = getelementptr inbounds %"class.xercesc_2_5::XMLScanner", ptr %6, i64 0, i32 40, i32 3
  br label %15

15:                                               ; preds = %12, %7
  %16 = phi ptr [ %14, %12 ], [ %11, %7 ]
  store ptr null, ptr %16, align 8, !tbaa !808
  ret void
}

; Function Attrs: mustprogress nofree norecurse nosync nounwind willreturn memory(write, argmem: readwrite, inaccessiblemem: none) uwtable
define dso_local void @_ZN11xercesc_2_517SAX2XMLReaderImpl20setXMLEntityResolverEPNS_17XMLEntityResolverE(ptr noundef nonnull align 8 dereferenceable(264) %0, ptr noundef %1) unnamed_addr #6 align 2 {
  %3 = getelementptr inbounds %"class.xercesc_2_5::SAX2XMLReaderImpl", ptr %0, i64 0, i32 20
  store ptr %1, ptr %3, align 8, !tbaa !845
  %4 = icmp eq ptr %1, null
  %5 = getelementptr inbounds %"class.xercesc_2_5::SAX2XMLReaderImpl", ptr %0, i64 0, i32 26
  %6 = load ptr, ptr %5, align 8, !tbaa !789
  br i1 %4, label %12, label %7

7:                                                ; preds = %2
  %8 = getelementptr inbounds i8, ptr %0, i64 24
  %9 = getelementptr inbounds %"class.xercesc_2_5::XMLScanner", ptr %6, i64 0, i32 34
  store ptr %8, ptr %9, align 8, !tbaa !843
  %10 = getelementptr inbounds %"class.xercesc_2_5::XMLScanner", ptr %6, i64 0, i32 40, i32 3
  store ptr %8, ptr %10, align 8, !tbaa !844
  %11 = getelementptr inbounds %"class.xercesc_2_5::SAX2XMLReaderImpl", ptr %0, i64 0, i32 19
  br label %15

12:                                               ; preds = %2
  %13 = getelementptr inbounds %"class.xercesc_2_5::XMLScanner", ptr %6, i64 0, i32 34
  store ptr null, ptr %13, align 8, !tbaa !843
  %14 = getelementptr inbounds %"class.xercesc_2_5::XMLScanner", ptr %6, i64 0, i32 40, i32 3
  br label %15

15:                                               ; preds = %12, %7
  %16 = phi ptr [ %14, %12 ], [ %11, %7 ]
  store ptr null, ptr %16, align 8, !tbaa !808
  ret void
}

; Function Attrs: mustprogress nofree norecurse nosync nounwind willreturn memory(write, argmem: readwrite, inaccessiblemem: none) uwtable
define dso_local void @_ZN11xercesc_2_517SAX2XMLReaderImpl24setExitOnFirstFatalErrorEb(ptr nocapture noundef nonnull readonly align 8 dereferenceable(264) %0, i1 noundef zeroext %1) unnamed_addr #6 align 2 {
  %3 = getelementptr inbounds %"class.xercesc_2_5::SAX2XMLReaderImpl", ptr %0, i64 0, i32 26
  %4 = load ptr, ptr %3, align 8, !tbaa !789
  %5 = zext i1 %1 to i8
  %6 = getelementptr inbounds %"class.xercesc_2_5::XMLScanner", ptr %4, i64 0, i32 4
  store i8 %5, ptr %6, align 1, !tbaa !846
  ret void
}

; Function Attrs: mustprogress nofree norecurse nosync nounwind willreturn memory(write, argmem: readwrite, inaccessiblemem: none) uwtable
define dso_local void @_ZN11xercesc_2_517SAX2XMLReaderImpl28setValidationConstraintFatalEb(ptr nocapture noundef nonnull readonly align 8 dereferenceable(264) %0, i1 noundef zeroext %1) unnamed_addr #6 align 2 {
  %3 = getelementptr inbounds %"class.xercesc_2_5::SAX2XMLReaderImpl", ptr %0, i64 0, i32 26
  %4 = load ptr, ptr %3, align 8, !tbaa !789
  %5 = zext i1 %1 to i8
  %6 = getelementptr inbounds %"class.xercesc_2_5::XMLScanner", ptr %4, i64 0, i32 5
  store i8 %5, ptr %6, align 4, !tbaa !847
  ret void
}

; Function Attrs: uwtable
define dso_local void @_ZN11xercesc_2_517SAX2XMLReaderImpl5parseERKNS_11InputSourceE(ptr nocapture noundef nonnull align 8 dereferenceable(264) %0, ptr noundef nonnull align 1 %1) unnamed_addr #2 align 2 personality ptr @__gxx_personality_v0 {
  %3 = getelementptr inbounds %"class.xercesc_2_5::SAX2XMLReaderImpl", ptr %0, i64 0, i32 8
  %4 = load i8, ptr %3, align 1, !tbaa !778, !range !824, !noundef !825
  %5 = icmp eq i8 %4, 0
  br i1 %5, label %13, label %6

6:                                                ; preds = %2
  %7 = tail call ptr @__cxa_allocate_exception(i64 48) #17
  %8 = getelementptr inbounds %"class.xercesc_2_5::SAX2XMLReaderImpl", ptr %0, i64 0, i32 30
  %9 = load ptr, ptr %8, align 8, !tbaa !783
  invoke void @_ZN11xercesc_2_511IOExceptionC2EPKcjNS_10XMLExcepts5CodesEPNS_13MemoryManagerE(ptr noundef nonnull align 8 dereferenceable(48) %7, ptr noundef nonnull @.str, i32 noundef 667, i32 noundef 43, ptr noundef %9)
          to label %10 unwind label %11

10:                                               ; preds = %6
  tail call void @__cxa_throw(ptr nonnull %7, ptr nonnull @_ZTIN11xercesc_2_511IOExceptionE, ptr nonnull @_ZN11xercesc_2_512XMLExceptionD2Ev) #19
  unreachable

11:                                               ; preds = %6
  %12 = landingpad { ptr, i32 }
          cleanup
  tail call void @__cxa_free_exception(ptr %7) #17
  br label %33

13:                                               ; preds = %2
  store i8 1, ptr %3, align 1, !tbaa !778
  %14 = getelementptr inbounds %"class.xercesc_2_5::SAX2XMLReaderImpl", ptr %0, i64 0, i32 26
  %15 = load ptr, ptr %14, align 8, !tbaa !789
  %16 = load ptr, ptr %15, align 8, !tbaa !759
  %17 = getelementptr inbounds ptr, ptr %16, i64 6
  %18 = load ptr, ptr %17, align 8
  invoke void %18(ptr noundef nonnull align 8 dereferenceable(664) %15, ptr noundef nonnull align 1 %1)
          to label %19 unwind label %20

19:                                               ; preds = %13
  store i8 0, ptr %3, align 1, !tbaa !778
  ret void

20:                                               ; preds = %13
  %21 = landingpad { ptr, i32 }
          catch ptr @_ZTIN11xercesc_2_520OutOfMemoryExceptionE
          catch ptr null
  %22 = extractvalue { ptr, i32 } %21, 0
  %23 = extractvalue { ptr, i32 } %21, 1
  %24 = tail call i32 @llvm.eh.typeid.for(ptr nonnull @_ZTIN11xercesc_2_520OutOfMemoryExceptionE) #17
  %25 = icmp eq i32 %23, %24
  %26 = tail call ptr @__cxa_begin_catch(ptr %22) #17
  br i1 %25, label %27, label %28

27:                                               ; preds = %20
  invoke void @__cxa_rethrow() #19
          to label %38 unwind label %31

28:                                               ; preds = %20
  store i8 0, ptr %3, align 1, !tbaa !778
  invoke void @__cxa_rethrow() #19
          to label %38 unwind label %29

29:                                               ; preds = %28
  %30 = landingpad { ptr, i32 }
          cleanup
  invoke void @__cxa_end_catch()
          to label %33 unwind label %35

31:                                               ; preds = %27
  %32 = landingpad { ptr, i32 }
          cleanup
  invoke void @__cxa_end_catch()
          to label %33 unwind label %35

33:                                               ; preds = %31, %29, %11
  %34 = phi { ptr, i32 } [ %12, %11 ], [ %30, %29 ], [ %32, %31 ]
  resume { ptr, i32 } %34

35:                                               ; preds = %31, %29
  %36 = landingpad { ptr, i32 }
          catch ptr null
  %37 = extractvalue { ptr, i32 } %36, 0
  tail call void @__clang_call_terminate(ptr %37) #18
  unreachable

38:                                               ; preds = %27, %28
  unreachable
}

declare ptr @__cxa_allocate_exception(i64) local_unnamed_addr

; Function Attrs: uwtable
define linkonce_odr dso_local void @_ZN11xercesc_2_511IOExceptionC2EPKcjNS_10XMLExcepts5CodesEPNS_13MemoryManagerE(ptr noundef nonnull align 8 dereferenceable(48) %0, ptr noundef %1, i32 noundef %2, i32 noundef %3, ptr noundef %4) unnamed_addr #2 comdat align 2 personality ptr @__gxx_personality_v0 {
  tail call void @_ZN11xercesc_2_512XMLExceptionC2EPKcjPNS_13MemoryManagerE(ptr noundef nonnull align 8 dereferenceable(48) %0, ptr noundef %1, i32 noundef %2, ptr noundef %4)
  store ptr getelementptr inbounds ({ [6 x ptr] }, ptr @_ZTVN11xercesc_2_511IOExceptionE, i64 0, inrange i32 0, i64 2), ptr %0, align 8, !tbaa !759
  invoke void @_ZN11xercesc_2_512XMLException14loadExceptTextENS_10XMLExcepts5CodesE(ptr noundef nonnull align 8 dereferenceable(48) %0, i32 noundef %3)
          to label %6 unwind label %7

6:                                                ; preds = %5
  ret void

7:                                                ; preds = %5
  %8 = landingpad { ptr, i32 }
          cleanup
  invoke void @_ZN11xercesc_2_512XMLExceptionD2Ev(ptr noundef nonnull align 8 dereferenceable(48) %0)
          to label %9 unwind label %10

9:                                                ; preds = %7
  resume { ptr, i32 } %8

10:                                               ; preds = %7
  %11 = landingpad { ptr, i32 }
          catch ptr null
  %12 = extractvalue { ptr, i32 } %11, 0
  tail call void @__clang_call_terminate(ptr %12) #18
  unreachable
}

declare void @__cxa_free_exception(ptr) local_unnamed_addr

declare void @__cxa_throw(ptr, ptr, ptr) local_unnamed_addr

; Function Attrs: uwtable
define dso_local void @_ZN11xercesc_2_517SAX2XMLReaderImpl5parseEPKt(ptr nocapture noundef nonnull align 8 dereferenceable(264) %0, ptr noundef %1) unnamed_addr #2 align 2 personality ptr @__gxx_personality_v0 {
  %3 = getelementptr inbounds %"class.xercesc_2_5::SAX2XMLReaderImpl", ptr %0, i64 0, i32 8
  %4 = load i8, ptr %3, align 1, !tbaa !778, !range !824, !noundef !825
  %5 = icmp eq i8 %4, 0
  br i1 %5, label %13, label %6

6:                                                ; preds = %2
  %7 = tail call ptr @__cxa_allocate_exception(i64 48) #17
  %8 = getelementptr inbounds %"class.xercesc_2_5::SAX2XMLReaderImpl", ptr %0, i64 0, i32 30
  %9 = load ptr, ptr %8, align 8, !tbaa !783
  invoke void @_ZN11xercesc_2_511IOExceptionC2EPKcjNS_10XMLExcepts5CodesEPNS_13MemoryManagerE(ptr noundef nonnull align 8 dereferenceable(48) %7, ptr noundef nonnull @.str, i32 noundef 690, i32 noundef 43, ptr noundef %9)
          to label %10 unwind label %11

10:                                               ; preds = %6
  tail call void @__cxa_throw(ptr nonnull %7, ptr nonnull @_ZTIN11xercesc_2_511IOExceptionE, ptr nonnull @_ZN11xercesc_2_512XMLExceptionD2Ev) #19
  unreachable

11:                                               ; preds = %6
  %12 = landingpad { ptr, i32 }
          cleanup
  tail call void @__cxa_free_exception(ptr %7) #17
  br label %30

13:                                               ; preds = %2
  store i8 1, ptr %3, align 1, !tbaa !778
  %14 = getelementptr inbounds %"class.xercesc_2_5::SAX2XMLReaderImpl", ptr %0, i64 0, i32 26
  %15 = load ptr, ptr %14, align 8, !tbaa !789
  invoke void @_ZN11xercesc_2_510XMLScanner12scanDocumentEPKt(ptr noundef nonnull align 8 dereferenceable(664) %15, ptr noundef %1)
          to label %16 unwind label %17

16:                                               ; preds = %13
  store i8 0, ptr %3, align 1, !tbaa !778
  ret void

17:                                               ; preds = %13
  %18 = landingpad { ptr, i32 }
          catch ptr @_ZTIN11xercesc_2_520OutOfMemoryExceptionE
          catch ptr null
  %19 = extractvalue { ptr, i32 } %18, 0
  %20 = extractvalue { ptr, i32 } %18, 1
  %21 = tail call i32 @llvm.eh.typeid.for(ptr nonnull @_ZTIN11xercesc_2_520OutOfMemoryExceptionE) #17
  %22 = icmp eq i32 %20, %21
  %23 = tail call ptr @__cxa_begin_catch(ptr %19) #17
  br i1 %22, label %24, label %25

24:                                               ; preds = %17
  invoke void @__cxa_rethrow() #19
          to label %35 unwind label %28

25:                                               ; preds = %17
  store i8 0, ptr %3, align 1, !tbaa !778
  invoke void @__cxa_rethrow() #19
          to label %35 unwind label %26

26:                                               ; preds = %25
  %27 = landingpad { ptr, i32 }
          cleanup
  invoke void @__cxa_end_catch()
          to label %30 unwind label %32

28:                                               ; preds = %24
  %29 = landingpad { ptr, i32 }
          cleanup
  invoke void @__cxa_end_catch()
          to label %30 unwind label %32

30:                                               ; preds = %28, %26, %11
  %31 = phi { ptr, i32 } [ %12, %11 ], [ %27, %26 ], [ %29, %28 ]
  resume { ptr, i32 } %31

32:                                               ; preds = %28, %26
  %33 = landingpad { ptr, i32 }
          catch ptr null
  %34 = extractvalue { ptr, i32 } %33, 0
  tail call void @__clang_call_terminate(ptr %34) #18
  unreachable

35:                                               ; preds = %24, %25
  unreachable
}

declare void @_ZN11xercesc_2_510XMLScanner12scanDocumentEPKt(ptr noundef nonnull align 8 dereferenceable(664), ptr noundef) local_unnamed_addr #1

; Function Attrs: uwtable
define dso_local void @_ZN11xercesc_2_517SAX2XMLReaderImpl5parseEPKc(ptr nocapture noundef nonnull align 8 dereferenceable(264) %0, ptr noundef %1) unnamed_addr #2 align 2 personality ptr @__gxx_personality_v0 {
  %3 = getelementptr inbounds %"class.xercesc_2_5::SAX2XMLReaderImpl", ptr %0, i64 0, i32 8
  %4 = load i8, ptr %3, align 1, !tbaa !778, !range !824, !noundef !825
  %5 = icmp eq i8 %4, 0
  br i1 %5, label %13, label %6

6:                                                ; preds = %2
  %7 = tail call ptr @__cxa_allocate_exception(i64 48) #17
  %8 = getelementptr inbounds %"class.xercesc_2_5::SAX2XMLReaderImpl", ptr %0, i64 0, i32 30
  %9 = load ptr, ptr %8, align 8, !tbaa !783
  invoke void @_ZN11xercesc_2_511IOExceptionC2EPKcjNS_10XMLExcepts5CodesEPNS_13MemoryManagerE(ptr noundef nonnull align 8 dereferenceable(48) %7, ptr noundef nonnull @.str, i32 noundef 713, i32 noundef 43, ptr noundef %9)
          to label %10 unwind label %11

10:                                               ; preds = %6
  tail call void @__cxa_throw(ptr nonnull %7, ptr nonnull @_ZTIN11xercesc_2_511IOExceptionE, ptr nonnull @_ZN11xercesc_2_512XMLExceptionD2Ev) #19
  unreachable

11:                                               ; preds = %6
  %12 = landingpad { ptr, i32 }
          cleanup
  tail call void @__cxa_free_exception(ptr %7) #17
  br label %30

13:                                               ; preds = %2
  store i8 1, ptr %3, align 1, !tbaa !778
  %14 = getelementptr inbounds %"class.xercesc_2_5::SAX2XMLReaderImpl", ptr %0, i64 0, i32 26
  %15 = load ptr, ptr %14, align 8, !tbaa !789
  invoke void @_ZN11xercesc_2_510XMLScanner12scanDocumentEPKc(ptr noundef nonnull align 8 dereferenceable(664) %15, ptr noundef %1)
          to label %16 unwind label %17

16:                                               ; preds = %13
  store i8 0, ptr %3, align 1, !tbaa !778
  ret void

17:                                               ; preds = %13
  %18 = landingpad { ptr, i32 }
          catch ptr @_ZTIN11xercesc_2_520OutOfMemoryExceptionE
          catch ptr null
  %19 = extractvalue { ptr, i32 } %18, 0
  %20 = extractvalue { ptr, i32 } %18, 1
  %21 = tail call i32 @llvm.eh.typeid.for(ptr nonnull @_ZTIN11xercesc_2_520OutOfMemoryExceptionE) #17
  %22 = icmp eq i32 %20, %21
  %23 = tail call ptr @__cxa_begin_catch(ptr %19) #17
  br i1 %22, label %24, label %25

24:                                               ; preds = %17
  invoke void @__cxa_rethrow() #19
          to label %35 unwind label %28

25:                                               ; preds = %17
  store i8 0, ptr %3, align 1, !tbaa !778
  invoke void @__cxa_rethrow() #19
          to label %35 unwind label %26

26:                                               ; preds = %25
  %27 = landingpad { ptr, i32 }
          cleanup
  invoke void @__cxa_end_catch()
          to label %30 unwind label %32

28:                                               ; preds = %24
  %29 = landingpad { ptr, i32 }
          cleanup
  invoke void @__cxa_end_catch()
          to label %30 unwind label %32

30:                                               ; preds = %28, %26, %11
  %31 = phi { ptr, i32 } [ %12, %11 ], [ %27, %26 ], [ %29, %28 ]
  resume { ptr, i32 } %31

32:                                               ; preds = %28, %26
  %33 = landingpad { ptr, i32 }
          catch ptr null
  %34 = extractvalue { ptr, i32 } %33, 0
  tail call void @__clang_call_terminate(ptr %34) #18
  unreachable

35:                                               ; preds = %24, %25
  unreachable
}

declare void @_ZN11xercesc_2_510XMLScanner12scanDocumentEPKc(ptr noundef nonnull align 8 dereferenceable(664), ptr noundef) local_unnamed_addr #1

; Function Attrs: uwtable
define dso_local noundef zeroext i1 @_ZN11xercesc_2_517SAX2XMLReaderImpl10parseFirstEPKtRNS_13XMLPScanTokenE(ptr nocapture noundef nonnull readonly align 8 dereferenceable(264) %0, ptr noundef %1, ptr noundef nonnull align 4 dereferenceable(8) %2) unnamed_addr #2 align 2 personality ptr @__gxx_personality_v0 {
  %4 = getelementptr inbounds %"class.xercesc_2_5::SAX2XMLReaderImpl", ptr %0, i64 0, i32 8
  %5 = load i8, ptr %4, align 1, !tbaa !778, !range !824, !noundef !825
  %6 = icmp eq i8 %5, 0
  br i1 %6, label %14, label %7

7:                                                ; preds = %3
  %8 = tail call ptr @__cxa_allocate_exception(i64 48) #17
  %9 = getelementptr inbounds %"class.xercesc_2_5::SAX2XMLReaderImpl", ptr %0, i64 0, i32 30
  %10 = load ptr, ptr %9, align 8, !tbaa !783
  invoke void @_ZN11xercesc_2_511IOExceptionC2EPKcjNS_10XMLExcepts5CodesEPNS_13MemoryManagerE(ptr noundef nonnull align 8 dereferenceable(48) %8, ptr noundef nonnull @.str, i32 noundef 743, i32 noundef 43, ptr noundef %10)
          to label %11 unwind label %12

11:                                               ; preds = %7
  tail call void @__cxa_throw(ptr nonnull %8, ptr nonnull @_ZTIN11xercesc_2_511IOExceptionE, ptr nonnull @_ZN11xercesc_2_512XMLExceptionD2Ev) #19
  unreachable

12:                                               ; preds = %7
  %13 = landingpad { ptr, i32 }
          cleanup
  tail call void @__cxa_free_exception(ptr %8) #17
  resume { ptr, i32 } %13

14:                                               ; preds = %3
  %15 = getelementptr inbounds %"class.xercesc_2_5::SAX2XMLReaderImpl", ptr %0, i64 0, i32 26
  %16 = load ptr, ptr %15, align 8, !tbaa !789
  %17 = tail call noundef zeroext i1 @_ZN11xercesc_2_510XMLScanner9scanFirstEPKtRNS_13XMLPScanTokenE(ptr noundef nonnull align 8 dereferenceable(664) %16, ptr noundef %1, ptr noundef nonnull align 4 dereferenceable(8) %2)
  ret i1 %17
}

declare noundef zeroext i1 @_ZN11xercesc_2_510XMLScanner9scanFirstEPKtRNS_13XMLPScanTokenE(ptr noundef nonnull align 8 dereferenceable(664), ptr noundef, ptr noundef nonnull align 4 dereferenceable(8)) local_unnamed_addr #1

; Function Attrs: uwtable
define dso_local noundef zeroext i1 @_ZN11xercesc_2_517SAX2XMLReaderImpl10parseFirstEPKcRNS_13XMLPScanTokenE(ptr nocapture noundef nonnull readonly align 8 dereferenceable(264) %0, ptr noundef %1, ptr noundef nonnull align 4 dereferenceable(8) %2) unnamed_addr #2 align 2 personality ptr @__gxx_personality_v0 {
  %4 = getelementptr inbounds %"class.xercesc_2_5::SAX2XMLReaderImpl", ptr %0, i64 0, i32 8
  %5 = load i8, ptr %4, align 1, !tbaa !778, !range !824, !noundef !825
  %6 = icmp eq i8 %5, 0
  br i1 %6, label %14, label %7

7:                                                ; preds = %3
  %8 = tail call ptr @__cxa_allocate_exception(i64 48) #17
  %9 = getelementptr inbounds %"class.xercesc_2_5::SAX2XMLReaderImpl", ptr %0, i64 0, i32 30
  %10 = load ptr, ptr %9, align 8, !tbaa !783
  invoke void @_ZN11xercesc_2_511IOExceptionC2EPKcjNS_10XMLExcepts5CodesEPNS_13MemoryManagerE(ptr noundef nonnull align 8 dereferenceable(48) %8, ptr noundef nonnull @.str, i32 noundef 756, i32 noundef 43, ptr noundef %10)
          to label %11 unwind label %12

11:                                               ; preds = %7
  tail call void @__cxa_throw(ptr nonnull %8, ptr nonnull @_ZTIN11xercesc_2_511IOExceptionE, ptr nonnull @_ZN11xercesc_2_512XMLExceptionD2Ev) #19
  unreachable

12:                                               ; preds = %7
  %13 = landingpad { ptr, i32 }
          cleanup
  tail call void @__cxa_free_exception(ptr %8) #17
  resume { ptr, i32 } %13

14:                                               ; preds = %3
  %15 = getelementptr inbounds %"class.xercesc_2_5::SAX2XMLReaderImpl", ptr %0, i64 0, i32 26
  %16 = load ptr, ptr %15, align 8, !tbaa !789
  %17 = tail call noundef zeroext i1 @_ZN11xercesc_2_510XMLScanner9scanFirstEPKcRNS_13XMLPScanTokenE(ptr noundef nonnull align 8 dereferenceable(664) %16, ptr noundef %1, ptr noundef nonnull align 4 dereferenceable(8) %2)
  ret i1 %17
}

declare noundef zeroext i1 @_ZN11xercesc_2_510XMLScanner9scanFirstEPKcRNS_13XMLPScanTokenE(ptr noundef nonnull align 8 dereferenceable(664), ptr noundef, ptr noundef nonnull align 4 dereferenceable(8)) local_unnamed_addr #1

; Function Attrs: uwtable
define dso_local noundef zeroext i1 @_ZN11xercesc_2_517SAX2XMLReaderImpl10parseFirstERKNS_11InputSourceERNS_13XMLPScanTokenE(ptr nocapture noundef nonnull readonly align 8 dereferenceable(264) %0, ptr noundef nonnull align 1 %1, ptr noundef nonnull align 4 dereferenceable(8) %2) unnamed_addr #2 align 2 personality ptr @__gxx_personality_v0 {
  %4 = getelementptr inbounds %"class.xercesc_2_5::SAX2XMLReaderImpl", ptr %0, i64 0, i32 8
  %5 = load i8, ptr %4, align 1, !tbaa !778, !range !824, !noundef !825
  %6 = icmp eq i8 %5, 0
  br i1 %6, label %14, label %7

7:                                                ; preds = %3
  %8 = tail call ptr @__cxa_allocate_exception(i64 48) #17
  %9 = getelementptr inbounds %"class.xercesc_2_5::SAX2XMLReaderImpl", ptr %0, i64 0, i32 30
  %10 = load ptr, ptr %9, align 8, !tbaa !783
  invoke void @_ZN11xercesc_2_511IOExceptionC2EPKcjNS_10XMLExcepts5CodesEPNS_13MemoryManagerE(ptr noundef nonnull align 8 dereferenceable(48) %8, ptr noundef nonnull @.str, i32 noundef 769, i32 noundef 43, ptr noundef %10)
          to label %11 unwind label %12

11:                                               ; preds = %7
  tail call void @__cxa_throw(ptr nonnull %8, ptr nonnull @_ZTIN11xercesc_2_511IOExceptionE, ptr nonnull @_ZN11xercesc_2_512XMLExceptionD2Ev) #19
  unreachable

12:                                               ; preds = %7
  %13 = landingpad { ptr, i32 }
          cleanup
  tail call void @__cxa_free_exception(ptr %8) #17
  resume { ptr, i32 } %13

14:                                               ; preds = %3
  %15 = getelementptr inbounds %"class.xercesc_2_5::SAX2XMLReaderImpl", ptr %0, i64 0, i32 26
  %16 = load ptr, ptr %15, align 8, !tbaa !789
  %17 = tail call noundef zeroext i1 @_ZN11xercesc_2_510XMLScanner9scanFirstERKNS_11InputSourceERNS_13XMLPScanTokenE(ptr noundef nonnull align 8 dereferenceable(664) %16, ptr noundef nonnull align 1 %1, ptr noundef nonnull align 4 dereferenceable(8) %2)
  ret i1 %17
}

declare noundef zeroext i1 @_ZN11xercesc_2_510XMLScanner9scanFirstERKNS_11InputSourceERNS_13XMLPScanTokenE(ptr noundef nonnull align 8 dereferenceable(664), ptr noundef nonnull align 1, ptr noundef nonnull align 4 dereferenceable(8)) local_unnamed_addr #1

; Function Attrs: uwtable
define dso_local noundef zeroext i1 @_ZN11xercesc_2_517SAX2XMLReaderImpl9parseNextERNS_13XMLPScanTokenE(ptr nocapture noundef nonnull readonly align 8 dereferenceable(264) %0, ptr noundef nonnull align 4 dereferenceable(8) %1) unnamed_addr #2 align 2 {
  %3 = getelementptr inbounds %"class.xercesc_2_5::SAX2XMLReaderImpl", ptr %0, i64 0, i32 26
  %4 = load ptr, ptr %3, align 8, !tbaa !789
  %5 = load ptr, ptr %4, align 8, !tbaa !759
  %6 = getelementptr inbounds ptr, ptr %5, i64 7
  %7 = load ptr, ptr %6, align 8
  %8 = tail call noundef zeroext i1 %7(ptr noundef nonnull align 8 dereferenceable(664) %4, ptr noundef nonnull align 4 dereferenceable(8) %1)
  ret i1 %8
}

; Function Attrs: uwtable
define dso_local void @_ZN11xercesc_2_517SAX2XMLReaderImpl10parseResetERNS_13XMLPScanTokenE(ptr nocapture noundef nonnull readonly align 8 dereferenceable(264) %0, ptr noundef nonnull align 4 dereferenceable(8) %1) unnamed_addr #2 align 2 {
  %3 = getelementptr inbounds %"class.xercesc_2_5::SAX2XMLReaderImpl", ptr %0, i64 0, i32 26
  %4 = load ptr, ptr %3, align 8, !tbaa !789
  tail call void @_ZN11xercesc_2_510XMLScanner9scanResetERNS_13XMLPScanTokenE(ptr noundef nonnull align 8 dereferenceable(664) %4, ptr noundef nonnull align 4 dereferenceable(8) %1)
  ret void
}

declare void @_ZN11xercesc_2_510XMLScanner9scanResetERNS_13XMLPScanTokenE(ptr noundef nonnull align 8 dereferenceable(664), ptr noundef nonnull align 4 dereferenceable(8)) local_unnamed_addr #1

; Function Attrs: uwtable
define dso_local void @_ZN11xercesc_2_517SAX2XMLReaderImpl13docCharactersEPKtjb(ptr nocapture noundef nonnull readonly align 8 dereferenceable(264) %0, ptr noundef %1, i32 noundef %2, i1 noundef zeroext %3) unnamed_addr #2 align 2 {
  %5 = getelementptr inbounds %"class.xercesc_2_5::SAX2XMLReaderImpl", ptr %0, i64 0, i32 10
  %6 = load i32, ptr %5, align 8, !tbaa !780
  %7 = icmp eq i32 %6, 0
  br i1 %7, label %52, label %8

8:                                                ; preds = %4
  br i1 %3, label %9, label %17

9:                                                ; preds = %8
  %10 = getelementptr inbounds %"class.xercesc_2_5::SAX2XMLReaderImpl", ptr %0, i64 0, i32 23
  %11 = load ptr, ptr %10, align 8, !tbaa !840
  %12 = icmp eq ptr %11, null
  br i1 %12, label %17, label %13

13:                                               ; preds = %9
  %14 = load ptr, ptr %11, align 8, !tbaa !759
  %15 = getelementptr inbounds ptr, ptr %14, i64 6
  %16 = load ptr, ptr %15, align 8
  tail call void %16(ptr noundef nonnull align 8 dereferenceable(8) %11)
  br label %17

17:                                               ; preds = %13, %9, %8
  %18 = getelementptr inbounds %"class.xercesc_2_5::SAX2XMLReaderImpl", ptr %0, i64 0, i32 14
  %19 = load ptr, ptr %18, align 8, !tbaa !832
  %20 = icmp eq ptr %19, null
  br i1 %20, label %25, label %21

21:                                               ; preds = %17
  %22 = load ptr, ptr %19, align 8, !tbaa !759
  %23 = getelementptr inbounds ptr, ptr %22, i64 2
  %24 = load ptr, ptr %23, align 8
  tail call void %24(ptr noundef nonnull align 8 dereferenceable(8) %19, ptr noundef %1, i32 noundef %2)
  br label %25

25:                                               ; preds = %21, %17
  br i1 %3, label %26, label %34

26:                                               ; preds = %25
  %27 = getelementptr inbounds %"class.xercesc_2_5::SAX2XMLReaderImpl", ptr %0, i64 0, i32 23
  %28 = load ptr, ptr %27, align 8, !tbaa !840
  %29 = icmp eq ptr %28, null
  br i1 %29, label %34, label %30

30:                                               ; preds = %26
  %31 = load ptr, ptr %28, align 8, !tbaa !759
  %32 = getelementptr inbounds ptr, ptr %31, i64 3
  %33 = load ptr, ptr %32, align 8
  tail call void %33(ptr noundef nonnull align 8 dereferenceable(8) %28)
  br label %34

34:                                               ; preds = %30, %26, %25
  %35 = getelementptr inbounds %"class.xercesc_2_5::SAX2XMLReaderImpl", ptr %0, i64 0, i32 11
  %36 = load i32, ptr %35, align 4, !tbaa !781
  %37 = icmp eq i32 %36, 0
  br i1 %37, label %52, label %38

38:                                               ; preds = %34
  %39 = getelementptr inbounds %"class.xercesc_2_5::SAX2XMLReaderImpl", ptr %0, i64 0, i32 25
  br label %40

40:                                               ; preds = %38, %40
  %41 = phi i64 [ 0, %38 ], [ %48, %40 ]
  %42 = load ptr, ptr %39, align 8, !tbaa !790
  %43 = getelementptr inbounds ptr, ptr %42, i64 %41
  %44 = load ptr, ptr %43, align 8, !tbaa !808
  %45 = load ptr, ptr %44, align 8, !tbaa !759
  %46 = getelementptr inbounds ptr, ptr %45, i64 2
  %47 = load ptr, ptr %46, align 8
  tail call void %47(ptr noundef nonnull align 8 dereferenceable(8) %44, ptr noundef %1, i32 noundef %2, i1 noundef zeroext %3)
  %48 = add nuw nsw i64 %41, 1
  %49 = load i32, ptr %35, align 4, !tbaa !781
  %50 = zext i32 %49 to i64
  %51 = icmp ult i64 %48, %50
  br i1 %51, label %40, label %52

52:                                               ; preds = %40, %34, %4
  ret void
}

; Function Attrs: uwtable
define dso_local void @_ZThn8_N11xercesc_2_517SAX2XMLReaderImpl13docCharactersEPKtjb(ptr nocapture noundef readonly %0, ptr noundef %1, i32 noundef %2, i1 noundef zeroext %3) unnamed_addr #2 align 2 {
  %5 = getelementptr inbounds i8, ptr %0, i64 40
  %6 = load i32, ptr %5, align 8, !tbaa !780
  %7 = icmp eq i32 %6, 0
  br i1 %7, label %52, label %8

8:                                                ; preds = %4
  br i1 %3, label %9, label %17

9:                                                ; preds = %8
  %10 = getelementptr inbounds i8, ptr %0, i64 160
  %11 = load ptr, ptr %10, align 8, !tbaa !840
  %12 = icmp eq ptr %11, null
  br i1 %12, label %17, label %13

13:                                               ; preds = %9
  %14 = load ptr, ptr %11, align 8, !tbaa !759
  %15 = getelementptr inbounds ptr, ptr %14, i64 6
  %16 = load ptr, ptr %15, align 8
  tail call void %16(ptr noundef nonnull align 8 dereferenceable(8) %11)
  br label %17

17:                                               ; preds = %13, %9, %8
  %18 = getelementptr inbounds i8, ptr %0, i64 88
  %19 = load ptr, ptr %18, align 8, !tbaa !832
  %20 = icmp eq ptr %19, null
  br i1 %20, label %25, label %21

21:                                               ; preds = %17
  %22 = load ptr, ptr %19, align 8, !tbaa !759
  %23 = getelementptr inbounds ptr, ptr %22, i64 2
  %24 = load ptr, ptr %23, align 8
  tail call void %24(ptr noundef nonnull align 8 dereferenceable(8) %19, ptr noundef %1, i32 noundef %2)
  br label %25

25:                                               ; preds = %21, %17
  br i1 %3, label %26, label %34

26:                                               ; preds = %25
  %27 = getelementptr inbounds i8, ptr %0, i64 160
  %28 = load ptr, ptr %27, align 8, !tbaa !840
  %29 = icmp eq ptr %28, null
  br i1 %29, label %34, label %30

30:                                               ; preds = %26
  %31 = load ptr, ptr %28, align 8, !tbaa !759
  %32 = getelementptr inbounds ptr, ptr %31, i64 3
  %33 = load ptr, ptr %32, align 8
  tail call void %33(ptr noundef nonnull align 8 dereferenceable(8) %28)
  br label %34

34:                                               ; preds = %30, %26, %25
  %35 = getelementptr inbounds i8, ptr %0, i64 44
  %36 = load i32, ptr %35, align 4, !tbaa !781
  %37 = icmp eq i32 %36, 0
  br i1 %37, label %52, label %38

38:                                               ; preds = %34
  %39 = getelementptr inbounds i8, ptr %0, i64 176
  br label %40

40:                                               ; preds = %40, %38
  %41 = phi i64 [ 0, %38 ], [ %48, %40 ]
  %42 = load ptr, ptr %39, align 8, !tbaa !790
  %43 = getelementptr inbounds ptr, ptr %42, i64 %41
  %44 = load ptr, ptr %43, align 8, !tbaa !808
  %45 = load ptr, ptr %44, align 8, !tbaa !759
  %46 = getelementptr inbounds ptr, ptr %45, i64 2
  %47 = load ptr, ptr %46, align 8
  tail call void %47(ptr noundef nonnull align 8 dereferenceable(8) %44, ptr noundef %1, i32 noundef %2, i1 noundef zeroext %3)
  %48 = add nuw nsw i64 %41, 1
  %49 = load i32, ptr %35, align 4, !tbaa !781
  %50 = zext i32 %49 to i64
  %51 = icmp ult i64 %48, %50
  br i1 %51, label %40, label %52

52:                                               ; preds = %40, %4, %34
  ret void
}

; Function Attrs: uwtable
define dso_local void @_ZN11xercesc_2_517SAX2XMLReaderImpl10docCommentEPKt(ptr nocapture noundef nonnull readonly align 8 dereferenceable(264) %0, ptr noundef %1) unnamed_addr #2 align 2 {
  %3 = getelementptr inbounds %"class.xercesc_2_5::SAX2XMLReaderImpl", ptr %0, i64 0, i32 23
  %4 = load ptr, ptr %3, align 8, !tbaa !840
  %5 = icmp eq ptr %4, null
  br i1 %5, label %27, label %6

6:                                                ; preds = %2
  %7 = icmp eq ptr %1, null
  br i1 %7, label %22, label %8

8:                                                ; preds = %6
  %9 = load i16, ptr %1, align 2, !tbaa !848
  %10 = icmp eq i16 %9, 0
  br i1 %10, label %22, label %11

11:                                               ; preds = %8, %11
  %12 = phi ptr [ %13, %11 ], [ %1, %8 ]
  %13 = getelementptr inbounds i16, ptr %12, i64 1
  %14 = load i16, ptr %13, align 2, !tbaa !848
  %15 = icmp eq i16 %14, 0
  br i1 %15, label %16, label %11

16:                                               ; preds = %11
  %17 = ptrtoint ptr %13 to i64
  %18 = ptrtoint ptr %1 to i64
  %19 = sub i64 %17, %18
  %20 = lshr exact i64 %19, 1
  %21 = trunc i64 %20 to i32
  br label %22

22:                                               ; preds = %6, %8, %16
  %23 = phi i32 [ %21, %16 ], [ 0, %8 ], [ 0, %6 ]
  %24 = load ptr, ptr %4, align 8, !tbaa !759
  %25 = getelementptr inbounds ptr, ptr %24, i64 2
  %26 = load ptr, ptr %25, align 8
  tail call void %26(ptr noundef nonnull align 8 dereferenceable(8) %4, ptr noundef %1, i32 noundef %23)
  br label %27

27:                                               ; preds = %22, %2
  %28 = getelementptr inbounds %"class.xercesc_2_5::SAX2XMLReaderImpl", ptr %0, i64 0, i32 11
  %29 = load i32, ptr %28, align 4, !tbaa !781
  %30 = icmp eq i32 %29, 0
  br i1 %30, label %33, label %31

31:                                               ; preds = %27
  %32 = getelementptr inbounds %"class.xercesc_2_5::SAX2XMLReaderImpl", ptr %0, i64 0, i32 25
  br label %34

33:                                               ; preds = %34, %27
  ret void

34:                                               ; preds = %31, %34
  %35 = phi i64 [ 0, %31 ], [ %42, %34 ]
  %36 = load ptr, ptr %32, align 8, !tbaa !790
  %37 = getelementptr inbounds ptr, ptr %36, i64 %35
  %38 = load ptr, ptr %37, align 8, !tbaa !808
  %39 = load ptr, ptr %38, align 8, !tbaa !759
  %40 = getelementptr inbounds ptr, ptr %39, i64 3
  %41 = load ptr, ptr %40, align 8
  tail call void %41(ptr noundef nonnull align 8 dereferenceable(8) %38, ptr noundef %1)
  %42 = add nuw nsw i64 %35, 1
  %43 = load i32, ptr %28, align 4, !tbaa !781
  %44 = zext i32 %43 to i64
  %45 = icmp ult i64 %42, %44
  br i1 %45, label %34, label %33
}

; Function Attrs: uwtable
define dso_local void @_ZThn8_N11xercesc_2_517SAX2XMLReaderImpl10docCommentEPKt(ptr nocapture noundef readonly %0, ptr noundef %1) unnamed_addr #2 align 2 {
  %3 = getelementptr inbounds i8, ptr %0, i64 160
  %4 = load ptr, ptr %3, align 8, !tbaa !840
  %5 = icmp eq ptr %4, null
  br i1 %5, label %27, label %6

6:                                                ; preds = %2
  %7 = icmp eq ptr %1, null
  br i1 %7, label %22, label %8

8:                                                ; preds = %6
  %9 = load i16, ptr %1, align 2, !tbaa !848
  %10 = icmp eq i16 %9, 0
  br i1 %10, label %22, label %11

11:                                               ; preds = %8, %11
  %12 = phi ptr [ %13, %11 ], [ %1, %8 ]
  %13 = getelementptr inbounds i16, ptr %12, i64 1
  %14 = load i16, ptr %13, align 2, !tbaa !848
  %15 = icmp eq i16 %14, 0
  br i1 %15, label %16, label %11

16:                                               ; preds = %11
  %17 = ptrtoint ptr %13 to i64
  %18 = ptrtoint ptr %1 to i64
  %19 = sub i64 %17, %18
  %20 = lshr exact i64 %19, 1
  %21 = trunc i64 %20 to i32
  br label %22

22:                                               ; preds = %16, %8, %6
  %23 = phi i32 [ %21, %16 ], [ 0, %8 ], [ 0, %6 ]
  %24 = load ptr, ptr %4, align 8, !tbaa !759
  %25 = getelementptr inbounds ptr, ptr %24, i64 2
  %26 = load ptr, ptr %25, align 8
  tail call void %26(ptr noundef nonnull align 8 dereferenceable(8) %4, ptr noundef %1, i32 noundef %23)
  br label %27

27:                                               ; preds = %22, %2
  %28 = getelementptr inbounds i8, ptr %0, i64 44
  %29 = load i32, ptr %28, align 4, !tbaa !781
  %30 = icmp eq i32 %29, 0
  br i1 %30, label %45, label %31

31:                                               ; preds = %27
  %32 = getelementptr inbounds i8, ptr %0, i64 176
  br label %33

33:                                               ; preds = %33, %31
  %34 = phi i64 [ 0, %31 ], [ %41, %33 ]
  %35 = load ptr, ptr %32, align 8, !tbaa !790
  %36 = getelementptr inbounds ptr, ptr %35, i64 %34
  %37 = load ptr, ptr %36, align 8, !tbaa !808
  %38 = load ptr, ptr %37, align 8, !tbaa !759
  %39 = getelementptr inbounds ptr, ptr %38, i64 3
  %40 = load ptr, ptr %39, align 8
  tail call void %40(ptr noundef nonnull align 8 dereferenceable(8) %37, ptr noundef %1)
  %41 = add nuw nsw i64 %34, 1
  %42 = load i32, ptr %28, align 4, !tbaa !781
  %43 = zext i32 %42 to i64
  %44 = icmp ult i64 %41, %43
  br i1 %44, label %33, label %45

45:                                               ; preds = %33, %27
  ret void
}

; Function Attrs: uwtable
define dso_local void @_ZN11xercesc_2_517SAX2XMLReaderImpl7XMLDeclEPKtS2_S2_S2_(ptr nocapture noundef nonnull readonly align 8 dereferenceable(264) %0, ptr noundef %1, ptr noundef %2, ptr noundef %3, ptr noundef %4) unnamed_addr #2 align 2 {
  %6 = getelementptr inbounds %"class.xercesc_2_5::SAX2XMLReaderImpl", ptr %0, i64 0, i32 11
  %7 = load i32, ptr %6, align 4, !tbaa !781
  %8 = icmp eq i32 %7, 0
  br i1 %8, label %11, label %9

9:                                                ; preds = %5
  %10 = getelementptr inbounds %"class.xercesc_2_5::SAX2XMLReaderImpl", ptr %0, i64 0, i32 25
  br label %12

11:                                               ; preds = %12, %5
  ret void

12:                                               ; preds = %9, %12
  %13 = phi i64 [ 0, %9 ], [ %20, %12 ]
  %14 = load ptr, ptr %10, align 8, !tbaa !790
  %15 = getelementptr inbounds ptr, ptr %14, i64 %13
  %16 = load ptr, ptr %15, align 8, !tbaa !808
  %17 = load ptr, ptr %16, align 8, !tbaa !759
  %18 = getelementptr inbounds ptr, ptr %17, i64 13
  %19 = load ptr, ptr %18, align 8
  tail call void %19(ptr noundef nonnull align 8 dereferenceable(8) %16, ptr noundef %1, ptr noundef %2, ptr noundef %3, ptr noundef %4)
  %20 = add nuw nsw i64 %13, 1
  %21 = load i32, ptr %6, align 4, !tbaa !781
  %22 = zext i32 %21 to i64
  %23 = icmp ult i64 %20, %22
  br i1 %23, label %12, label %11
}

; Function Attrs: uwtable
define dso_local void @_ZThn8_N11xercesc_2_517SAX2XMLReaderImpl7XMLDeclEPKtS2_S2_S2_(ptr nocapture noundef readonly %0, ptr noundef %1, ptr noundef %2, ptr noundef %3, ptr noundef %4) unnamed_addr #2 align 2 {
  %6 = getelementptr inbounds i8, ptr %0, i64 44
  %7 = load i32, ptr %6, align 4, !tbaa !781
  %8 = icmp eq i32 %7, 0
  br i1 %8, label %23, label %9

9:                                                ; preds = %5
  %10 = getelementptr inbounds i8, ptr %0, i64 176
  br label %11

11:                                               ; preds = %11, %9
  %12 = phi i64 [ 0, %9 ], [ %19, %11 ]
  %13 = load ptr, ptr %10, align 8, !tbaa !790
  %14 = getelementptr inbounds ptr, ptr %13, i64 %12
  %15 = load ptr, ptr %14, align 8, !tbaa !808
  %16 = load ptr, ptr %15, align 8, !tbaa !759
  %17 = getelementptr inbounds ptr, ptr %16, i64 13
  %18 = load ptr, ptr %17, align 8
  tail call void %18(ptr noundef nonnull align 8 dereferenceable(8) %15, ptr noundef %1, ptr noundef %2, ptr noundef %3, ptr noundef %4)
  %19 = add nuw nsw i64 %12, 1
  %20 = load i32, ptr %6, align 4, !tbaa !781
  %21 = zext i32 %20 to i64
  %22 = icmp ult i64 %19, %21
  br i1 %22, label %11, label %23

23:                                               ; preds = %11, %5
  ret void
}

; Function Attrs: uwtable
define dso_local void @_ZN11xercesc_2_517SAX2XMLReaderImpl5docPIEPKtS2_(ptr nocapture noundef nonnull readonly align 8 dereferenceable(264) %0, ptr noundef %1, ptr noundef %2) unnamed_addr #2 align 2 {
  %4 = getelementptr inbounds %"class.xercesc_2_5::SAX2XMLReaderImpl", ptr %0, i64 0, i32 14
  %5 = load ptr, ptr %4, align 8, !tbaa !832
  %6 = icmp eq ptr %5, null
  br i1 %6, label %11, label %7

7:                                                ; preds = %3
  %8 = load ptr, ptr %5, align 8, !tbaa !759
  %9 = getelementptr inbounds ptr, ptr %8, i64 6
  %10 = load ptr, ptr %9, align 8
  tail call void %10(ptr noundef nonnull align 8 dereferenceable(8) %5, ptr noundef %1, ptr noundef %2)
  br label %11

11:                                               ; preds = %7, %3
  %12 = getelementptr inbounds %"class.xercesc_2_5::SAX2XMLReaderImpl", ptr %0, i64 0, i32 11
  %13 = load i32, ptr %12, align 4, !tbaa !781
  %14 = icmp eq i32 %13, 0
  br i1 %14, label %17, label %15

15:                                               ; preds = %11
  %16 = getelementptr inbounds %"class.xercesc_2_5::SAX2XMLReaderImpl", ptr %0, i64 0, i32 25
  br label %18

17:                                               ; preds = %18, %11
  ret void

18:                                               ; preds = %15, %18
  %19 = phi i64 [ 0, %15 ], [ %26, %18 ]
  %20 = load ptr, ptr %16, align 8, !tbaa !790
  %21 = getelementptr inbounds ptr, ptr %20, i64 %19
  %22 = load ptr, ptr %21, align 8, !tbaa !808
  %23 = load ptr, ptr %22, align 8, !tbaa !759
  %24 = getelementptr inbounds ptr, ptr %23, i64 4
  %25 = load ptr, ptr %24, align 8
  tail call void %25(ptr noundef nonnull align 8 dereferenceable(8) %22, ptr noundef %1, ptr noundef %2)
  %26 = add nuw nsw i64 %19, 1
  %27 = load i32, ptr %12, align 4, !tbaa !781
  %28 = zext i32 %27 to i64
  %29 = icmp ult i64 %26, %28
  br i1 %29, label %18, label %17
}

; Function Attrs: uwtable
define dso_local void @_ZThn8_N11xercesc_2_517SAX2XMLReaderImpl5docPIEPKtS2_(ptr nocapture noundef readonly %0, ptr noundef %1, ptr noundef %2) unnamed_addr #2 align 2 {
  %4 = getelementptr inbounds i8, ptr %0, i64 88
  %5 = load ptr, ptr %4, align 8, !tbaa !832
  %6 = icmp eq ptr %5, null
  br i1 %6, label %11, label %7

7:                                                ; preds = %3
  %8 = load ptr, ptr %5, align 8, !tbaa !759
  %9 = getelementptr inbounds ptr, ptr %8, i64 6
  %10 = load ptr, ptr %9, align 8
  tail call void %10(ptr noundef nonnull align 8 dereferenceable(8) %5, ptr noundef %1, ptr noundef %2)
  br label %11

11:                                               ; preds = %7, %3
  %12 = getelementptr inbounds i8, ptr %0, i64 44
  %13 = load i32, ptr %12, align 4, !tbaa !781
  %14 = icmp eq i32 %13, 0
  br i1 %14, label %29, label %15

15:                                               ; preds = %11
  %16 = getelementptr inbounds i8, ptr %0, i64 176
  br label %17

17:                                               ; preds = %17, %15
  %18 = phi i64 [ 0, %15 ], [ %25, %17 ]
  %19 = load ptr, ptr %16, align 8, !tbaa !790
  %20 = getelementptr inbounds ptr, ptr %19, i64 %18
  %21 = load ptr, ptr %20, align 8, !tbaa !808
  %22 = load ptr, ptr %21, align 8, !tbaa !759
  %23 = getelementptr inbounds ptr, ptr %22, i64 4
  %24 = load ptr, ptr %23, align 8
  tail call void %24(ptr noundef nonnull align 8 dereferenceable(8) %21, ptr noundef %1, ptr noundef %2)
  %25 = add nuw nsw i64 %18, 1
  %26 = load i32, ptr %12, align 4, !tbaa !781
  %27 = zext i32 %26 to i64
  %28 = icmp ult i64 %25, %27
  br i1 %28, label %17, label %29

29:                                               ; preds = %17, %11
  ret void
}

; Function Attrs: uwtable
define dso_local void @_ZN11xercesc_2_517SAX2XMLReaderImpl11endDocumentEv(ptr nocapture noundef nonnull readonly align 8 dereferenceable(264) %0) unnamed_addr #2 align 2 {
  %2 = getelementptr inbounds %"class.xercesc_2_5::SAX2XMLReaderImpl", ptr %0, i64 0, i32 14
  %3 = load ptr, ptr %2, align 8, !tbaa !832
  %4 = icmp eq ptr %3, null
  br i1 %4, label %9, label %5

5:                                                ; preds = %1
  %6 = load ptr, ptr %3, align 8, !tbaa !759
  %7 = getelementptr inbounds ptr, ptr %6, i64 3
  %8 = load ptr, ptr %7, align 8
  tail call void %8(ptr noundef nonnull align 8 dereferenceable(8) %3)
  br label %9

9:                                                ; preds = %5, %1
  %10 = getelementptr inbounds %"class.xercesc_2_5::SAX2XMLReaderImpl", ptr %0, i64 0, i32 11
  %11 = load i32, ptr %10, align 4, !tbaa !781
  %12 = icmp eq i32 %11, 0
  br i1 %12, label %15, label %13

13:                                               ; preds = %9
  %14 = getelementptr inbounds %"class.xercesc_2_5::SAX2XMLReaderImpl", ptr %0, i64 0, i32 25
  br label %16

15:                                               ; preds = %16, %9
  ret void

16:                                               ; preds = %13, %16
  %17 = phi i64 [ 0, %13 ], [ %24, %16 ]
  %18 = load ptr, ptr %14, align 8, !tbaa !790
  %19 = getelementptr inbounds ptr, ptr %18, i64 %17
  %20 = load ptr, ptr %19, align 8, !tbaa !808
  %21 = load ptr, ptr %20, align 8, !tbaa !759
  %22 = getelementptr inbounds ptr, ptr %21, i64 5
  %23 = load ptr, ptr %22, align 8
  tail call void %23(ptr noundef nonnull align 8 dereferenceable(8) %20)
  %24 = add nuw nsw i64 %17, 1
  %25 = load i32, ptr %10, align 4, !tbaa !781
  %26 = zext i32 %25 to i64
  %27 = icmp ult i64 %24, %26
  br i1 %27, label %16, label %15
}

; Function Attrs: uwtable
define dso_local void @_ZThn8_N11xercesc_2_517SAX2XMLReaderImpl11endDocumentEv(ptr nocapture noundef readonly %0) unnamed_addr #2 align 2 {
  %2 = getelementptr inbounds i8, ptr %0, i64 88
  %3 = load ptr, ptr %2, align 8, !tbaa !832
  %4 = icmp eq ptr %3, null
  br i1 %4, label %9, label %5

5:                                                ; preds = %1
  %6 = load ptr, ptr %3, align 8, !tbaa !759
  %7 = getelementptr inbounds ptr, ptr %6, i64 3
  %8 = load ptr, ptr %7, align 8
  tail call void %8(ptr noundef nonnull align 8 dereferenceable(8) %3)
  br label %9

9:                                                ; preds = %5, %1
  %10 = getelementptr inbounds i8, ptr %0, i64 44
  %11 = load i32, ptr %10, align 4, !tbaa !781
  %12 = icmp eq i32 %11, 0
  br i1 %12, label %27, label %13

13:                                               ; preds = %9
  %14 = getelementptr inbounds i8, ptr %0, i64 176
  br label %15

15:                                               ; preds = %15, %13
  %16 = phi i64 [ 0, %13 ], [ %23, %15 ]
  %17 = load ptr, ptr %14, align 8, !tbaa !790
  %18 = getelementptr inbounds ptr, ptr %17, i64 %16
  %19 = load ptr, ptr %18, align 8, !tbaa !808
  %20 = load ptr, ptr %19, align 8, !tbaa !759
  %21 = getelementptr inbounds ptr, ptr %20, i64 5
  %22 = load ptr, ptr %21, align 8
  tail call void %22(ptr noundef nonnull align 8 dereferenceable(8) %19)
  %23 = add nuw nsw i64 %16, 1
  %24 = load i32, ptr %10, align 4, !tbaa !781
  %25 = zext i32 %24 to i64
  %26 = icmp ult i64 %23, %25
  br i1 %26, label %15, label %27

27:                                               ; preds = %15, %9
  ret void
}

; Function Attrs: uwtable
define dso_local void @_ZN11xercesc_2_517SAX2XMLReaderImpl18endEntityReferenceERKNS_13XMLEntityDeclE(ptr nocapture noundef nonnull readonly align 8 dereferenceable(264) %0, ptr noundef nonnull align 8 dereferenceable(72) %1) unnamed_addr #2 align 2 {
  %3 = getelementptr inbounds %"class.xercesc_2_5::SAX2XMLReaderImpl", ptr %0, i64 0, i32 23
  %4 = load ptr, ptr %3, align 8, !tbaa !840
  %5 = icmp eq ptr %4, null
  br i1 %5, label %12, label %6

6:                                                ; preds = %2
  %7 = getelementptr inbounds %"class.xercesc_2_5::XMLEntityDecl", ptr %1, i64 0, i32 4
  %8 = load ptr, ptr %7, align 8, !tbaa !850
  %9 = load ptr, ptr %4, align 8, !tbaa !759
  %10 = getelementptr inbounds ptr, ptr %9, i64 5
  %11 = load ptr, ptr %10, align 8
  tail call void %11(ptr noundef nonnull align 8 dereferenceable(8) %4, ptr noundef %8)
  br label %12

12:                                               ; preds = %6, %2
  %13 = getelementptr inbounds %"class.xercesc_2_5::SAX2XMLReaderImpl", ptr %0, i64 0, i32 11
  %14 = load i32, ptr %13, align 4, !tbaa !781
  %15 = icmp eq i32 %14, 0
  br i1 %15, label %18, label %16

16:                                               ; preds = %12
  %17 = getelementptr inbounds %"class.xercesc_2_5::SAX2XMLReaderImpl", ptr %0, i64 0, i32 25
  br label %19

18:                                               ; preds = %19, %12
  ret void

19:                                               ; preds = %16, %19
  %20 = phi i64 [ 0, %16 ], [ %27, %19 ]
  %21 = load ptr, ptr %17, align 8, !tbaa !790
  %22 = getelementptr inbounds ptr, ptr %21, i64 %20
  %23 = load ptr, ptr %22, align 8, !tbaa !808
  %24 = load ptr, ptr %23, align 8, !tbaa !759
  %25 = getelementptr inbounds ptr, ptr %24, i64 7
  %26 = load ptr, ptr %25, align 8
  tail call void %26(ptr noundef nonnull align 8 dereferenceable(8) %23, ptr noundef nonnull align 8 dereferenceable(72) %1)
  %27 = add nuw nsw i64 %20, 1
  %28 = load i32, ptr %13, align 4, !tbaa !781
  %29 = zext i32 %28 to i64
  %30 = icmp ult i64 %27, %29
  br i1 %30, label %19, label %18
}

; Function Attrs: uwtable
define dso_local void @_ZThn8_N11xercesc_2_517SAX2XMLReaderImpl18endEntityReferenceERKNS_13XMLEntityDeclE(ptr nocapture noundef readonly %0, ptr noundef nonnull align 8 dereferenceable(72) %1) unnamed_addr #2 align 2 {
  %3 = getelementptr inbounds i8, ptr %0, i64 160
  %4 = load ptr, ptr %3, align 8, !tbaa !840
  %5 = icmp eq ptr %4, null
  br i1 %5, label %12, label %6

6:                                                ; preds = %2
  %7 = getelementptr inbounds %"class.xercesc_2_5::XMLEntityDecl", ptr %1, i64 0, i32 4
  %8 = load ptr, ptr %7, align 8, !tbaa !850
  %9 = load ptr, ptr %4, align 8, !tbaa !759
  %10 = getelementptr inbounds ptr, ptr %9, i64 5
  %11 = load ptr, ptr %10, align 8
  tail call void %11(ptr noundef nonnull align 8 dereferenceable(8) %4, ptr noundef %8)
  br label %12

12:                                               ; preds = %6, %2
  %13 = getelementptr inbounds i8, ptr %0, i64 44
  %14 = load i32, ptr %13, align 4, !tbaa !781
  %15 = icmp eq i32 %14, 0
  br i1 %15, label %30, label %16

16:                                               ; preds = %12
  %17 = getelementptr inbounds i8, ptr %0, i64 176
  br label %18

18:                                               ; preds = %18, %16
  %19 = phi i64 [ 0, %16 ], [ %26, %18 ]
  %20 = load ptr, ptr %17, align 8, !tbaa !790
  %21 = getelementptr inbounds ptr, ptr %20, i64 %19
  %22 = load ptr, ptr %21, align 8, !tbaa !808
  %23 = load ptr, ptr %22, align 8, !tbaa !759
  %24 = getelementptr inbounds ptr, ptr %23, i64 7
  %25 = load ptr, ptr %24, align 8
  tail call void %25(ptr noundef nonnull align 8 dereferenceable(8) %22, ptr noundef nonnull align 8 dereferenceable(72) %1)
  %26 = add nuw nsw i64 %19, 1
  %27 = load i32, ptr %13, align 4, !tbaa !781
  %28 = zext i32 %27 to i64
  %29 = icmp ult i64 %26, %28
  br i1 %29, label %18, label %30

30:                                               ; preds = %18, %12
  ret void
}

; Function Attrs: uwtable
define dso_local void @_ZN11xercesc_2_517SAX2XMLReaderImpl19ignorableWhitespaceEPKtjb(ptr nocapture noundef nonnull readonly align 8 dereferenceable(264) %0, ptr noundef %1, i32 noundef %2, i1 noundef zeroext %3) unnamed_addr #2 align 2 {
  %5 = getelementptr inbounds %"class.xercesc_2_5::SAX2XMLReaderImpl", ptr %0, i64 0, i32 10
  %6 = load i32, ptr %5, align 8, !tbaa !780
  %7 = icmp eq i32 %6, 0
  br i1 %7, label %34, label %8

8:                                                ; preds = %4
  %9 = getelementptr inbounds %"class.xercesc_2_5::SAX2XMLReaderImpl", ptr %0, i64 0, i32 14
  %10 = load ptr, ptr %9, align 8, !tbaa !832
  %11 = icmp eq ptr %10, null
  br i1 %11, label %16, label %12

12:                                               ; preds = %8
  %13 = load ptr, ptr %10, align 8, !tbaa !759
  %14 = getelementptr inbounds ptr, ptr %13, i64 5
  %15 = load ptr, ptr %14, align 8
  tail call void %15(ptr noundef nonnull align 8 dereferenceable(8) %10, ptr noundef %1, i32 noundef %2)
  br label %16

16:                                               ; preds = %12, %8
  %17 = getelementptr inbounds %"class.xercesc_2_5::SAX2XMLReaderImpl", ptr %0, i64 0, i32 11
  %18 = load i32, ptr %17, align 4, !tbaa !781
  %19 = icmp eq i32 %18, 0
  br i1 %19, label %34, label %20

20:                                               ; preds = %16
  %21 = getelementptr inbounds %"class.xercesc_2_5::SAX2XMLReaderImpl", ptr %0, i64 0, i32 25
  br label %22

22:                                               ; preds = %20, %22
  %23 = phi i64 [ 0, %20 ], [ %30, %22 ]
  %24 = load ptr, ptr %21, align 8, !tbaa !790
  %25 = getelementptr inbounds ptr, ptr %24, i64 %23
  %26 = load ptr, ptr %25, align 8, !tbaa !808
  %27 = load ptr, ptr %26, align 8, !tbaa !759
  %28 = getelementptr inbounds ptr, ptr %27, i64 8
  %29 = load ptr, ptr %28, align 8
  tail call void %29(ptr noundef nonnull align 8 dereferenceable(8) %26, ptr noundef %1, i32 noundef %2, i1 noundef zeroext %3)
  %30 = add nuw nsw i64 %23, 1
  %31 = load i32, ptr %17, align 4, !tbaa !781
  %32 = zext i32 %31 to i64
  %33 = icmp ult i64 %30, %32
  br i1 %33, label %22, label %34

34:                                               ; preds = %22, %16, %4
  ret void
}

; Function Attrs: uwtable
define dso_local void @_ZThn8_N11xercesc_2_517SAX2XMLReaderImpl19ignorableWhitespaceEPKtjb(ptr nocapture noundef readonly %0, ptr noundef %1, i32 noundef %2, i1 noundef zeroext %3) unnamed_addr #2 align 2 {
  %5 = getelementptr inbounds i8, ptr %0, i64 40
  %6 = load i32, ptr %5, align 8, !tbaa !780
  %7 = icmp eq i32 %6, 0
  br i1 %7, label %34, label %8

8:                                                ; preds = %4
  %9 = getelementptr inbounds i8, ptr %0, i64 88
  %10 = load ptr, ptr %9, align 8, !tbaa !832
  %11 = icmp eq ptr %10, null
  br i1 %11, label %16, label %12

12:                                               ; preds = %8
  %13 = load ptr, ptr %10, align 8, !tbaa !759
  %14 = getelementptr inbounds ptr, ptr %13, i64 5
  %15 = load ptr, ptr %14, align 8
  tail call void %15(ptr noundef nonnull align 8 dereferenceable(8) %10, ptr noundef %1, i32 noundef %2)
  br label %16

16:                                               ; preds = %12, %8
  %17 = getelementptr inbounds i8, ptr %0, i64 44
  %18 = load i32, ptr %17, align 4, !tbaa !781
  %19 = icmp eq i32 %18, 0
  br i1 %19, label %34, label %20

20:                                               ; preds = %16
  %21 = getelementptr inbounds i8, ptr %0, i64 176
  br label %22

22:                                               ; preds = %22, %20
  %23 = phi i64 [ 0, %20 ], [ %30, %22 ]
  %24 = load ptr, ptr %21, align 8, !tbaa !790
  %25 = getelementptr inbounds ptr, ptr %24, i64 %23
  %26 = load ptr, ptr %25, align 8, !tbaa !808
  %27 = load ptr, ptr %26, align 8, !tbaa !759
  %28 = getelementptr inbounds ptr, ptr %27, i64 8
  %29 = load ptr, ptr %28, align 8
  tail call void %29(ptr noundef nonnull align 8 dereferenceable(8) %26, ptr noundef %1, i32 noundef %2, i1 noundef zeroext %3)
  %30 = add nuw nsw i64 %23, 1
  %31 = load i32, ptr %17, align 4, !tbaa !781
  %32 = zext i32 %31 to i64
  %33 = icmp ult i64 %30, %32
  br i1 %33, label %22, label %34

34:                                               ; preds = %22, %4, %16
  ret void
}

; Function Attrs: uwtable
define dso_local void @_ZN11xercesc_2_517SAX2XMLReaderImpl13resetDocumentEv(ptr noundef nonnull align 8 dereferenceable(264) %0) unnamed_addr #2 align 2 personality ptr @__gxx_personality_v0 {
  %2 = getelementptr inbounds %"class.xercesc_2_5::SAX2XMLReaderImpl", ptr %0, i64 0, i32 11
  %3 = load i32, ptr %2, align 4, !tbaa !781
  %4 = icmp eq i32 %3, 0
  br i1 %4, label %7, label %5

5:                                                ; preds = %1
  %6 = getelementptr inbounds %"class.xercesc_2_5::SAX2XMLReaderImpl", ptr %0, i64 0, i32 25
  br label %17

7:                                                ; preds = %17, %1
  %8 = getelementptr inbounds %"class.xercesc_2_5::SAX2XMLReaderImpl", ptr %0, i64 0, i32 10
  store i32 0, ptr %8, align 8, !tbaa !780
  %9 = getelementptr inbounds %"class.xercesc_2_5::SAX2XMLReaderImpl", ptr %0, i64 0, i32 17
  %10 = load ptr, ptr %9, align 8, !tbaa !823
  %11 = getelementptr inbounds %"class.xercesc_2_5::ValueStackOf", ptr %10, i64 0, i32 1, i32 1
  %12 = load i32, ptr %11, align 4, !tbaa !819
  %13 = icmp eq i32 %12, 0
  br i1 %13, label %69, label %14

14:                                               ; preds = %7
  %15 = getelementptr inbounds %"class.xercesc_2_5::SAX2XMLReaderImpl", ptr %0, i64 0, i32 16
  %16 = getelementptr inbounds %"class.xercesc_2_5::SAX2XMLReaderImpl", ptr %0, i64 0, i32 32
  br label %36

17:                                               ; preds = %5, %17
  %18 = phi i64 [ 0, %5 ], [ %25, %17 ]
  %19 = load ptr, ptr %6, align 8, !tbaa !790
  %20 = getelementptr inbounds ptr, ptr %19, i64 %18
  %21 = load ptr, ptr %20, align 8, !tbaa !808
  %22 = load ptr, ptr %21, align 8, !tbaa !759
  %23 = getelementptr inbounds ptr, ptr %22, i64 9
  %24 = load ptr, ptr %23, align 8
  tail call void %24(ptr noundef nonnull align 8 dereferenceable(8) %21)
  %25 = add nuw nsw i64 %18, 1
  %26 = load i32, ptr %2, align 4, !tbaa !781
  %27 = zext i32 %26 to i64
  %28 = icmp ult i64 %25, %27
  br i1 %28, label %17, label %7

29:                                               ; preds = %60
  %30 = load ptr, ptr %9, align 8, !tbaa !823
  br label %31

31:                                               ; preds = %29, %36
  %32 = phi ptr [ %30, %29 ], [ %37, %36 ]
  %33 = getelementptr inbounds %"class.xercesc_2_5::ValueStackOf", ptr %32, i64 0, i32 1, i32 1
  %34 = load i32, ptr %33, align 4, !tbaa !819
  %35 = icmp eq i32 %34, 0
  br i1 %35, label %69, label %36

36:                                               ; preds = %14, %31
  %37 = phi ptr [ %10, %14 ], [ %32, %31 ]
  %38 = phi i32 [ %12, %14 ], [ %34, %31 ]
  %39 = phi ptr [ %11, %14 ], [ %33, %31 ]
  %40 = add nsw i32 %38, -1
  %41 = getelementptr inbounds %"class.xercesc_2_5::ValueStackOf", ptr %37, i64 0, i32 1, i32 3
  %42 = load ptr, ptr %41, align 8, !tbaa !821
  %43 = zext i32 %40 to i64
  %44 = getelementptr inbounds i32, ptr %42, i64 %43
  %45 = load i32, ptr %44, align 4, !tbaa !852
  store i32 %40, ptr %39, align 4, !tbaa !819
  %46 = icmp eq i32 %45, 0
  br i1 %46, label %31, label %47

47:                                               ; preds = %36, %60
  %48 = phi i32 [ %67, %60 ], [ 0, %36 ]
  %49 = load ptr, ptr %15, align 8, !tbaa !809
  %50 = getelementptr inbounds %"class.xercesc_2_5::RefStackOf", ptr %49, i64 0, i32 1, i32 0, i32 2
  %51 = load i32, ptr %50, align 4, !tbaa !804
  %52 = icmp eq i32 %51, 0
  br i1 %52, label %53, label %60

53:                                               ; preds = %47
  %54 = tail call ptr @__cxa_allocate_exception(i64 48) #17
  %55 = getelementptr inbounds %"class.xercesc_2_5::RefStackOf", ptr %49, i64 0, i32 1, i32 0, i32 5
  %56 = load ptr, ptr %55, align 8, !tbaa !807
  invoke void @_ZN11xercesc_2_519EmptyStackExceptionC2EPKcjNS_10XMLExcepts5CodesEPNS_13MemoryManagerE(ptr noundef nonnull align 8 dereferenceable(48) %54, ptr noundef nonnull @.str.8, i32 noundef 143, i32 noundef 78, ptr noundef %56)
          to label %57 unwind label %58

57:                                               ; preds = %53
  tail call void @__cxa_throw(ptr nonnull %54, ptr nonnull @_ZTIN11xercesc_2_519EmptyStackExceptionE, ptr nonnull @_ZN11xercesc_2_512XMLExceptionD2Ev) #19
  unreachable

58:                                               ; preds = %53
  %59 = landingpad { ptr, i32 }
          cleanup
  tail call void @__cxa_free_exception(ptr %54) #17
  resume { ptr, i32 } %59

60:                                               ; preds = %47
  %61 = add nsw i32 %51, -1
  %62 = getelementptr inbounds %"class.xercesc_2_5::RefStackOf", ptr %49, i64 0, i32 1, i32 0, i32 4
  %63 = load ptr, ptr %62, align 8, !tbaa !806
  %64 = zext i32 %61 to i64
  %65 = getelementptr inbounds ptr, ptr %63, i64 %64
  %66 = load ptr, ptr %65, align 8, !tbaa !808
  store ptr null, ptr %65, align 8, !tbaa !808
  store i32 %61, ptr %50, align 4, !tbaa !804
  tail call void @_ZN11xercesc_2_512XMLBufferMgr13releaseBufferERNS_9XMLBufferE(ptr noundef nonnull align 8 dereferenceable(24) %16, ptr noundef nonnull align 8 dereferenceable(32) %66)
  %67 = add nuw i32 %48, 1
  %68 = icmp eq i32 %67, %45
  br i1 %68, label %29, label %47

69:                                               ; preds = %31, %7
  ret void
}

declare void @_ZN11xercesc_2_512XMLBufferMgr13releaseBufferERNS_9XMLBufferE(ptr noundef nonnull align 8 dereferenceable(24), ptr noundef nonnull align 8 dereferenceable(32)) local_unnamed_addr #1

; Function Attrs: uwtable
define dso_local void @_ZThn8_N11xercesc_2_517SAX2XMLReaderImpl13resetDocumentEv(ptr noundef %0) unnamed_addr #2 align 2 {
  %2 = getelementptr inbounds i8, ptr %0, i64 -8
  tail call void @_ZN11xercesc_2_517SAX2XMLReaderImpl13resetDocumentEv(ptr noundef nonnull align 8 dereferenceable(264) %2)
  ret void
}

; Function Attrs: uwtable
define dso_local void @_ZN11xercesc_2_517SAX2XMLReaderImpl13startDocumentEv(ptr nocapture noundef nonnull readonly align 8 dereferenceable(264) %0) unnamed_addr #2 align 2 {
  %2 = getelementptr inbounds %"class.xercesc_2_5::SAX2XMLReaderImpl", ptr %0, i64 0, i32 14
  %3 = load ptr, ptr %2, align 8, !tbaa !832
  %4 = icmp eq ptr %3, null
  br i1 %4, label %16, label %5

5:                                                ; preds = %1
  %6 = getelementptr inbounds %"class.xercesc_2_5::SAX2XMLReaderImpl", ptr %0, i64 0, i32 26
  %7 = load ptr, ptr %6, align 8, !tbaa !789
  %8 = getelementptr inbounds %"class.xercesc_2_5::XMLScanner", ptr %7, i64 0, i32 40
  %9 = load ptr, ptr %3, align 8, !tbaa !759
  %10 = getelementptr inbounds ptr, ptr %9, i64 7
  %11 = load ptr, ptr %10, align 8
  tail call void %11(ptr noundef nonnull align 8 dereferenceable(8) %3, ptr noundef nonnull %8)
  %12 = load ptr, ptr %2, align 8, !tbaa !832
  %13 = load ptr, ptr %12, align 8, !tbaa !759
  %14 = getelementptr inbounds ptr, ptr %13, i64 8
  %15 = load ptr, ptr %14, align 8
  tail call void %15(ptr noundef nonnull align 8 dereferenceable(8) %12)
  br label %16

16:                                               ; preds = %5, %1
  %17 = getelementptr inbounds %"class.xercesc_2_5::SAX2XMLReaderImpl", ptr %0, i64 0, i32 11
  %18 = load i32, ptr %17, align 4, !tbaa !781
  %19 = icmp eq i32 %18, 0
  br i1 %19, label %22, label %20

20:                                               ; preds = %16
  %21 = getelementptr inbounds %"class.xercesc_2_5::SAX2XMLReaderImpl", ptr %0, i64 0, i32 25
  br label %23

22:                                               ; preds = %23, %16
  ret void

23:                                               ; preds = %20, %23
  %24 = phi i64 [ 0, %20 ], [ %31, %23 ]
  %25 = load ptr, ptr %21, align 8, !tbaa !790
  %26 = getelementptr inbounds ptr, ptr %25, i64 %24
  %27 = load ptr, ptr %26, align 8, !tbaa !808
  %28 = load ptr, ptr %27, align 8, !tbaa !759
  %29 = getelementptr inbounds ptr, ptr %28, i64 10
  %30 = load ptr, ptr %29, align 8
  tail call void %30(ptr noundef nonnull align 8 dereferenceable(8) %27)
  %31 = add nuw nsw i64 %24, 1
  %32 = load i32, ptr %17, align 4, !tbaa !781
  %33 = zext i32 %32 to i64
  %34 = icmp ult i64 %31, %33
  br i1 %34, label %23, label %22
}

; Function Attrs: uwtable
define dso_local void @_ZThn8_N11xercesc_2_517SAX2XMLReaderImpl13startDocumentEv(ptr nocapture noundef readonly %0) unnamed_addr #2 align 2 {
  %2 = getelementptr inbounds i8, ptr %0, i64 88
  %3 = load ptr, ptr %2, align 8, !tbaa !832
  %4 = icmp eq ptr %3, null
  br i1 %4, label %16, label %5

5:                                                ; preds = %1
  %6 = getelementptr inbounds i8, ptr %0, i64 184
  %7 = load ptr, ptr %6, align 8, !tbaa !789
  %8 = getelementptr inbounds %"class.xercesc_2_5::XMLScanner", ptr %7, i64 0, i32 40
  %9 = load ptr, ptr %3, align 8, !tbaa !759
  %10 = getelementptr inbounds ptr, ptr %9, i64 7
  %11 = load ptr, ptr %10, align 8
  tail call void %11(ptr noundef nonnull align 8 dereferenceable(8) %3, ptr noundef nonnull %8)
  %12 = load ptr, ptr %2, align 8, !tbaa !832
  %13 = load ptr, ptr %12, align 8, !tbaa !759
  %14 = getelementptr inbounds ptr, ptr %13, i64 8
  %15 = load ptr, ptr %14, align 8
  tail call void %15(ptr noundef nonnull align 8 dereferenceable(8) %12)
  br label %16

16:                                               ; preds = %5, %1
  %17 = getelementptr inbounds i8, ptr %0, i64 44
  %18 = load i32, ptr %17, align 4, !tbaa !781
  %19 = icmp eq i32 %18, 0
  br i1 %19, label %34, label %20

20:                                               ; preds = %16
  %21 = getelementptr inbounds i8, ptr %0, i64 176
  br label %22

22:                                               ; preds = %22, %20
  %23 = phi i64 [ 0, %20 ], [ %30, %22 ]
  %24 = load ptr, ptr %21, align 8, !tbaa !790
  %25 = getelementptr inbounds ptr, ptr %24, i64 %23
  %26 = load ptr, ptr %25, align 8, !tbaa !808
  %27 = load ptr, ptr %26, align 8, !tbaa !759
  %28 = getelementptr inbounds ptr, ptr %27, i64 10
  %29 = load ptr, ptr %28, align 8
  tail call void %29(ptr noundef nonnull align 8 dereferenceable(8) %26)
  %30 = add nuw nsw i64 %23, 1
  %31 = load i32, ptr %17, align 4, !tbaa !781
  %32 = zext i32 %31 to i64
  %33 = icmp ult i64 %30, %32
  br i1 %33, label %22, label %34

34:                                               ; preds = %22, %16
  ret void
}

; Function Attrs: uwtable
define dso_local void @_ZN11xercesc_2_517SAX2XMLReaderImpl12startElementERKNS_14XMLElementDeclEjPKtRKNS_11RefVectorOfINS_7XMLAttrEEEjbb(ptr noundef nonnull align 8 dereferenceable(264) %0, ptr noundef nonnull align 8 dereferenceable(33) %1, i32 noundef %2, ptr noundef %3, ptr noundef nonnull align 8 dereferenceable(40) %4, i32 noundef %5, i1 noundef zeroext %6, i1 noundef zeroext %7) unnamed_addr #2 align 2 personality ptr @__gxx_personality_v0 {
  br i1 %6, label %13, label %9

9:                                                ; preds = %8
  %10 = getelementptr inbounds %"class.xercesc_2_5::SAX2XMLReaderImpl", ptr %0, i64 0, i32 10
  %11 = load i32, ptr %10, align 8, !tbaa !780
  %12 = add i32 %11, 1
  store i32 %12, ptr %10, align 8, !tbaa !780
  br label %13

13:                                               ; preds = %9, %8
  %14 = getelementptr inbounds %"class.xercesc_2_5::SAX2XMLReaderImpl", ptr %0, i64 0, i32 14
  %15 = load ptr, ptr %14, align 8, !tbaa !832
  %16 = icmp eq ptr %15, null
  br i1 %16, label %497, label %17

17:                                               ; preds = %13
  %18 = getelementptr inbounds %"class.xercesc_2_5::SAX2XMLReaderImpl", ptr %0, i64 0, i32 32
  %19 = tail call noundef nonnull align 8 dereferenceable(32) ptr @_ZN11xercesc_2_512XMLBufferMgr11bidOnBufferEv(ptr noundef nonnull align 8 dereferenceable(24) %18)
  %20 = icmp eq ptr %3, null
  br i1 %20, label %43, label %21

21:                                               ; preds = %17
  %22 = load i16, ptr %3, align 2, !tbaa !848
  %23 = icmp eq i16 %22, 0
  br i1 %23, label %43, label %24

24:                                               ; preds = %21
  invoke void @_ZN11xercesc_2_59XMLBuffer3setEPKtj(ptr noundef nonnull align 8 dereferenceable(32) %19, ptr noundef nonnull %3, i32 noundef 0)
          to label %25 unwind label %41

25:                                               ; preds = %24
  %26 = getelementptr inbounds %"class.xercesc_2_5::XMLBuffer", ptr %19, i64 0, i32 1
  %27 = load i32, ptr %26, align 4, !tbaa !853
  %28 = getelementptr inbounds %"class.xercesc_2_5::XMLBuffer", ptr %19, i64 0, i32 2
  %29 = load i32, ptr %28, align 8, !tbaa !854
  %30 = icmp eq i32 %27, %29
  br i1 %30, label %31, label %34

31:                                               ; preds = %25
  invoke void @_ZN11xercesc_2_59XMLBuffer6expandEv(ptr noundef nonnull align 8 dereferenceable(32) %19)
          to label %32 unwind label %41

32:                                               ; preds = %31
  %33 = load i32, ptr %26, align 4, !tbaa !853
  br label %34

34:                                               ; preds = %25, %32
  %35 = phi i32 [ %33, %32 ], [ %27, %25 ]
  %36 = getelementptr inbounds %"class.xercesc_2_5::XMLBuffer", ptr %19, i64 0, i32 4
  %37 = load ptr, ptr %36, align 8, !tbaa !827
  %38 = add i32 %35, 1
  store i32 %38, ptr %26, align 4, !tbaa !853
  %39 = zext i32 %35 to i64
  %40 = getelementptr inbounds i16, ptr %37, i64 %39
  store i16 58, ptr %40, align 2, !tbaa !848
  br label %43

41:                                               ; preds = %484, %387, %43, %31, %24, %489, %406, %404, %393, %385
  %42 = landingpad { ptr, i32 }
          cleanup
  br label %494

43:                                               ; preds = %17, %21, %34
  %44 = getelementptr inbounds %"class.xercesc_2_5::XMLElementDecl", ptr %1, i64 0, i32 2
  %45 = load ptr, ptr %44, align 8, !tbaa !855
  %46 = getelementptr inbounds %"class.xercesc_2_5::QName", ptr %45, i64 0, i32 4
  %47 = load ptr, ptr %46, align 8, !tbaa !858
  invoke void @_ZN11xercesc_2_59XMLBuffer6appendEPKtj(ptr noundef nonnull align 8 dereferenceable(32) %19, ptr noundef %47, i32 noundef 0)
          to label %48 unwind label %41

48:                                               ; preds = %43
  %49 = getelementptr inbounds %"class.xercesc_2_5::SAX2XMLReaderImpl", ptr %0, i64 0, i32 26
  %50 = load ptr, ptr %49, align 8, !tbaa !789
  %51 = getelementptr inbounds %"class.xercesc_2_5::XMLScanner", ptr %50, i64 0, i32 3
  %52 = load i8, ptr %51, align 2, !tbaa !791, !range !824, !noundef !825
  %53 = icmp eq i8 %52, 0
  br i1 %53, label %385, label %54

54:                                               ; preds = %48
  %55 = getelementptr inbounds %"class.xercesc_2_5::SAX2XMLReaderImpl", ptr %0, i64 0, i32 5
  %56 = load i8, ptr %55, align 8, !tbaa !762, !range !824, !noundef !825
  %57 = icmp eq i8 %56, 0
  br i1 %57, label %58, label %66

58:                                               ; preds = %54
  %59 = getelementptr inbounds %"class.xercesc_2_5::SAX2XMLReaderImpl", ptr %0, i64 0, i32 15
  %60 = load ptr, ptr %59, align 8, !tbaa !816
  %61 = load ptr, ptr %60, align 8, !tbaa !759
  %62 = getelementptr inbounds ptr, ptr %61, i64 3
  %63 = load ptr, ptr %62, align 8
  invoke void %63(ptr noundef nonnull align 8 dereferenceable(40) %60)
          to label %66 unwind label %64

64:                                               ; preds = %363, %105, %87, %371, %367, %58
  %65 = landingpad { ptr, i32 }
          cleanup
  br label %494

66:                                               ; preds = %58, %54
  %67 = icmp eq i32 %5, 0
  br i1 %67, label %74, label %68

68:                                               ; preds = %66
  %69 = getelementptr inbounds %"class.xercesc_2_5::BaseRefVectorOf.1", ptr %4, i64 0, i32 2
  %70 = getelementptr inbounds %"class.xercesc_2_5::BaseRefVectorOf.1", ptr %4, i64 0, i32 4
  %71 = getelementptr inbounds %"class.xercesc_2_5::SAX2XMLReaderImpl", ptr %0, i64 0, i32 15
  %72 = getelementptr inbounds %"class.xercesc_2_5::SAX2XMLReaderImpl", ptr %0, i64 0, i32 16
  %73 = zext i32 %5 to i64
  br label %121

74:                                               ; preds = %344, %66
  %75 = phi i32 [ 0, %66 ], [ %345, %344 ]
  %76 = getelementptr inbounds %"class.xercesc_2_5::SAX2XMLReaderImpl", ptr %0, i64 0, i32 17
  %77 = load ptr, ptr %76, align 8, !tbaa !823
  %78 = getelementptr inbounds %"class.xercesc_2_5::ValueStackOf", ptr %77, i64 0, i32 1, i32 1
  %79 = load i32, ptr %78, align 4, !tbaa !819
  %80 = add i32 %79, 1
  %81 = getelementptr inbounds %"class.xercesc_2_5::ValueStackOf", ptr %77, i64 0, i32 1, i32 2
  %82 = load i32, ptr %81, align 8, !tbaa !820
  %83 = icmp ult i32 %80, %82
  br i1 %83, label %84, label %87

84:                                               ; preds = %74
  %85 = getelementptr inbounds %"class.xercesc_2_5::ValueStackOf", ptr %77, i64 0, i32 1, i32 3
  %86 = load ptr, ptr %85, align 8, !tbaa !821
  br label %348

87:                                               ; preds = %74
  %88 = uitofp i32 %79 to double
  %89 = fmul reassoc nnan ninf nsz arcp afn double %88, 1.250000e+00
  %90 = fptoui double %89 to i32
  %91 = tail call i32 @llvm.umax.i32(i32 %80, i32 %90)
  %92 = getelementptr inbounds %"class.xercesc_2_5::ValueStackOf", ptr %77, i64 0, i32 1, i32 4
  %93 = load ptr, ptr %92, align 8, !tbaa !822
  %94 = zext i32 %91 to i64
  %95 = shl nuw nsw i64 %94, 2
  %96 = load ptr, ptr %93, align 8, !tbaa !759
  %97 = getelementptr inbounds ptr, ptr %96, i64 2
  %98 = load ptr, ptr %97, align 8
  %99 = invoke noundef ptr %98(ptr noundef nonnull align 8 dereferenceable(8) %93, i64 noundef %95)
          to label %100 unwind label %64

100:                                              ; preds = %87
  %101 = load i32, ptr %78, align 4, !tbaa !819
  %102 = icmp eq i32 %101, 0
  %103 = getelementptr inbounds %"class.xercesc_2_5::ValueStackOf", ptr %77, i64 0, i32 1, i32 3
  %104 = load ptr, ptr %103, align 8, !tbaa !821
  br i1 %102, label %105, label %112

105:                                              ; preds = %112, %100
  %106 = load ptr, ptr %92, align 8, !tbaa !822
  %107 = load ptr, ptr %106, align 8, !tbaa !759
  %108 = getelementptr inbounds ptr, ptr %107, i64 3
  %109 = load ptr, ptr %108, align 8
  invoke void %109(ptr noundef nonnull align 8 dereferenceable(8) %106, ptr noundef %104)
          to label %110 unwind label %64

110:                                              ; preds = %105
  store ptr %99, ptr %103, align 8, !tbaa !821
  store i32 %91, ptr %81, align 8, !tbaa !820
  %111 = load i32, ptr %78, align 4, !tbaa !819
  br label %348

112:                                              ; preds = %100, %112
  %113 = phi i64 [ %117, %112 ], [ 0, %100 ]
  %114 = getelementptr inbounds i32, ptr %104, i64 %113
  %115 = load i32, ptr %114, align 4, !tbaa !852
  %116 = getelementptr inbounds i32, ptr %99, i64 %113
  store i32 %115, ptr %116, align 4, !tbaa !852
  %117 = add nuw nsw i64 %113, 1
  %118 = load i32, ptr %78, align 4, !tbaa !819
  %119 = zext i32 %118 to i64
  %120 = icmp ult i64 %117, %119
  br i1 %120, label %112, label %105

121:                                              ; preds = %68, %344
  %122 = phi i64 [ 0, %68 ], [ %346, %344 ]
  %123 = phi i32 [ 0, %68 ], [ %345, %344 ]
  %124 = load i32, ptr %69, align 4, !tbaa !812
  %125 = zext i32 %124 to i64
  %126 = icmp ult i64 %122, %125
  br i1 %126, label %135, label %127

127:                                              ; preds = %121
  %128 = tail call ptr @__cxa_allocate_exception(i64 48) #17
  %129 = getelementptr inbounds %"class.xercesc_2_5::BaseRefVectorOf.1", ptr %4, i64 0, i32 5
  %130 = load ptr, ptr %129, align 8, !tbaa !815
  invoke void @_ZN11xercesc_2_530ArrayIndexOutOfBoundsExceptionC2EPKcjNS_10XMLExcepts5CodesEPNS_13MemoryManagerE(ptr noundef nonnull align 8 dereferenceable(48) %128, ptr noundef nonnull @.str.5, i32 noundef 281, i32 noundef 109, ptr noundef %130)
          to label %131 unwind label %133

131:                                              ; preds = %127
  invoke void @__cxa_throw(ptr nonnull %128, ptr nonnull @_ZTIN11xercesc_2_530ArrayIndexOutOfBoundsExceptionE, ptr nonnull @_ZN11xercesc_2_512XMLExceptionD2Ev) #19
          to label %132 unwind label %166

132:                                              ; preds = %131
  unreachable

133:                                              ; preds = %127
  %134 = landingpad { ptr, i32 }
          cleanup
  tail call void @__cxa_free_exception(ptr %128) #17
  br label %494

135:                                              ; preds = %121
  %136 = load ptr, ptr %70, align 8, !tbaa !814
  %137 = getelementptr inbounds ptr, ptr %136, i64 %122
  %138 = load ptr, ptr %137, align 8, !tbaa !808
  %139 = invoke noundef ptr @_ZNK11xercesc_2_57XMLAttr8getQNameEv(ptr noundef nonnull align 8 dereferenceable(49) %138)
          to label %140 unwind label %164

140:                                              ; preds = %135
  %141 = icmp eq ptr %139, null
  br i1 %141, label %146, label %142

142:                                              ; preds = %140
  %143 = load i16, ptr %139, align 2, !tbaa !848
  %144 = load i16, ptr @_ZN11xercesc_2_56XMLUni13fgXMLNSStringE, align 2, !tbaa !848
  %145 = icmp eq i16 %143, %144
  br i1 %145, label %149, label %168

146:                                              ; preds = %140
  %147 = load i16, ptr @_ZN11xercesc_2_56XMLUni13fgXMLNSStringE, align 2, !tbaa !848
  %148 = icmp eq i16 %147, 0
  br i1 %148, label %160, label %168

149:                                              ; preds = %142, %154
  %150 = phi i16 [ %157, %154 ], [ %143, %142 ]
  %151 = phi ptr [ %156, %154 ], [ @_ZN11xercesc_2_56XMLUni13fgXMLNSStringE, %142 ]
  %152 = phi ptr [ %155, %154 ], [ %139, %142 ]
  %153 = icmp eq i16 %150, 0
  br i1 %153, label %160, label %154

154:                                              ; preds = %149
  %155 = getelementptr inbounds i16, ptr %152, i64 1
  %156 = getelementptr inbounds i16, ptr %151, i64 1
  %157 = load i16, ptr %155, align 2, !tbaa !848
  %158 = load i16, ptr %156, align 2, !tbaa !848
  %159 = icmp eq i16 %157, %158
  br i1 %159, label %149, label %168

160:                                              ; preds = %149, %146
  %161 = phi i16 [ 0, %146 ], [ %143, %149 ]
  %162 = getelementptr inbounds %"class.xercesc_2_5::XMLAttr", ptr %138, i64 0, i32 5
  %163 = load ptr, ptr %162, align 8, !tbaa !860
  br label %168

164:                                              ; preds = %135, %268, %215, %251
  %165 = landingpad { ptr, i32 }
          cleanup
  br label %494

166:                                              ; preds = %131
  %167 = landingpad { ptr, i32 }
          cleanup
  br label %494

168:                                              ; preds = %154, %142, %146, %160
  %169 = phi i16 [ %161, %160 ], [ %147, %146 ], [ %144, %142 ], [ %143, %154 ]
  %170 = phi ptr [ %163, %160 ], [ null, %146 ], [ null, %142 ], [ null, %154 ]
  %171 = getelementptr inbounds %"class.xercesc_2_5::XMLAttr", ptr %138, i64 0, i32 6
  %172 = load ptr, ptr %171, align 8, !tbaa !863
  %173 = getelementptr inbounds %"class.xercesc_2_5::QName", ptr %172, i64 0, i32 2
  %174 = load ptr, ptr %173, align 8, !tbaa !864
  %175 = icmp eq ptr %174, null
  br i1 %175, label %179, label %176

176:                                              ; preds = %168
  %177 = load i16, ptr %174, align 2, !tbaa !848
  %178 = icmp eq i16 %177, %169
  br i1 %178, label %181, label %197

179:                                              ; preds = %168
  %180 = icmp eq i16 %169, 0
  br i1 %180, label %192, label %197

181:                                              ; preds = %176, %186
  %182 = phi i16 [ %189, %186 ], [ %169, %176 ]
  %183 = phi ptr [ %188, %186 ], [ @_ZN11xercesc_2_56XMLUni13fgXMLNSStringE, %176 ]
  %184 = phi ptr [ %187, %186 ], [ %174, %176 ]
  %185 = icmp eq i16 %182, 0
  br i1 %185, label %192, label %186

186:                                              ; preds = %181
  %187 = getelementptr inbounds i16, ptr %184, i64 1
  %188 = getelementptr inbounds i16, ptr %183, i64 1
  %189 = load i16, ptr %187, align 2, !tbaa !848
  %190 = load i16, ptr %188, align 2, !tbaa !848
  %191 = icmp eq i16 %189, %190
  br i1 %191, label %181, label %197

192:                                              ; preds = %181, %179
  %193 = getelementptr inbounds %"class.xercesc_2_5::QName", ptr %172, i64 0, i32 4
  %194 = load ptr, ptr %193, align 8, !tbaa !858
  %195 = getelementptr inbounds %"class.xercesc_2_5::XMLAttr", ptr %138, i64 0, i32 5
  %196 = load ptr, ptr %195, align 8, !tbaa !860
  br label %197

197:                                              ; preds = %186, %176, %179, %192
  %198 = phi ptr [ %196, %192 ], [ %170, %179 ], [ %170, %176 ], [ %170, %186 ]
  %199 = phi ptr [ %194, %192 ], [ null, %179 ], [ null, %176 ], [ null, %186 ]
  %200 = load i8, ptr %55, align 8, !tbaa !762, !range !824, !noundef !825
  %201 = icmp eq i8 %200, 0
  %202 = icmp eq ptr %198, null
  %203 = and i1 %202, %201
  br i1 %203, label %204, label %267

204:                                              ; preds = %197
  %205 = load ptr, ptr %71, align 8, !tbaa !816
  %206 = getelementptr inbounds %"class.xercesc_2_5::BaseRefVectorOf.1", ptr %205, i64 0, i32 2
  %207 = load i32, ptr %206, align 4, !tbaa !812
  %208 = add i32 %207, 1
  %209 = getelementptr inbounds %"class.xercesc_2_5::BaseRefVectorOf.1", ptr %205, i64 0, i32 3
  %210 = load i32, ptr %209, align 8, !tbaa !813
  %211 = icmp ult i32 %208, %210
  br i1 %211, label %212, label %215

212:                                              ; preds = %204
  %213 = getelementptr inbounds %"class.xercesc_2_5::BaseRefVectorOf.1", ptr %205, i64 0, i32 4
  %214 = load ptr, ptr %213, align 8, !tbaa !814
  br label %261

215:                                              ; preds = %204
  %216 = add i32 %210, 32
  %217 = tail call i32 @llvm.umax.i32(i32 %208, i32 %216)
  %218 = getelementptr inbounds %"class.xercesc_2_5::BaseRefVectorOf.1", ptr %205, i64 0, i32 5
  %219 = load ptr, ptr %218, align 8, !tbaa !815
  %220 = zext i32 %217 to i64
  %221 = shl nuw nsw i64 %220, 3
  %222 = load ptr, ptr %219, align 8, !tbaa !759
  %223 = getelementptr inbounds ptr, ptr %222, i64 2
  %224 = load ptr, ptr %223, align 8
  %225 = invoke noundef ptr %224(ptr noundef nonnull align 8 dereferenceable(8) %219, i64 noundef %221)
          to label %226 unwind label %164

226:                                              ; preds = %215
  %227 = load i32, ptr %206, align 4, !tbaa !812
  %228 = icmp eq i32 %227, 0
  br i1 %228, label %232, label %229

229:                                              ; preds = %226
  %230 = getelementptr inbounds %"class.xercesc_2_5::BaseRefVectorOf.1", ptr %205, i64 0, i32 4
  %231 = zext i32 %227 to i64
  br label %243

232:                                              ; preds = %243, %226
  %233 = icmp ult i32 %227, %217
  br i1 %233, label %234, label %251

234:                                              ; preds = %232
  %235 = zext i32 %227 to i64
  %236 = shl nuw nsw i64 %235, 3
  %237 = getelementptr i8, ptr %225, i64 %236
  %238 = xor i32 %227, -1
  %239 = add i32 %217, %238
  %240 = zext i32 %239 to i64
  %241 = shl nuw nsw i64 %240, 3
  %242 = add nuw nsw i64 %241, 8
  tail call void @llvm.memset.p0.i64(ptr noundef nonnull align 8 dereferenceable(1) %237, i8 0, i64 %242, i1 false), !tbaa !808
  br label %251

243:                                              ; preds = %243, %229
  %244 = phi i64 [ 0, %229 ], [ %249, %243 ]
  %245 = load ptr, ptr %230, align 8, !tbaa !814
  %246 = getelementptr inbounds ptr, ptr %245, i64 %244
  %247 = load ptr, ptr %246, align 8, !tbaa !808
  %248 = getelementptr inbounds ptr, ptr %225, i64 %244
  store ptr %247, ptr %248, align 8, !tbaa !808
  %249 = add nuw nsw i64 %244, 1
  %250 = icmp eq i64 %249, %231
  br i1 %250, label %232, label %243

251:                                              ; preds = %234, %232
  %252 = load ptr, ptr %218, align 8, !tbaa !815
  %253 = getelementptr inbounds %"class.xercesc_2_5::BaseRefVectorOf.1", ptr %205, i64 0, i32 4
  %254 = load ptr, ptr %253, align 8, !tbaa !814
  %255 = load ptr, ptr %252, align 8, !tbaa !759
  %256 = getelementptr inbounds ptr, ptr %255, i64 3
  %257 = load ptr, ptr %256, align 8
  invoke void %257(ptr noundef nonnull align 8 dereferenceable(8) %252, ptr noundef %254)
          to label %258 unwind label %164

258:                                              ; preds = %251
  store ptr %225, ptr %253, align 8, !tbaa !814
  store i32 %217, ptr %209, align 8, !tbaa !813
  %259 = load i32, ptr %206, align 4, !tbaa !812
  %260 = add i32 %259, 1
  br label %261

261:                                              ; preds = %212, %258
  %262 = phi i32 [ %208, %212 ], [ %260, %258 ]
  %263 = phi i32 [ %207, %212 ], [ %259, %258 ]
  %264 = phi ptr [ %214, %212 ], [ %225, %258 ]
  %265 = zext i32 %263 to i64
  %266 = getelementptr inbounds ptr, ptr %264, i64 %265
  store ptr %138, ptr %266, align 8, !tbaa !808
  store i32 %262, ptr %206, align 4, !tbaa !812
  br label %267

267:                                              ; preds = %261, %197
  br i1 %202, label %344, label %268

268:                                              ; preds = %267
  %269 = icmp eq ptr %199, null
  %270 = select i1 %269, ptr @_ZN11xercesc_2_56XMLUni15fgZeroLenStringE, ptr %199
  %271 = load ptr, ptr %14, align 8, !tbaa !832
  %272 = load ptr, ptr %271, align 8, !tbaa !759
  %273 = getelementptr inbounds ptr, ptr %272, i64 10
  %274 = load ptr, ptr %273, align 8
  invoke void %274(ptr noundef nonnull align 8 dereferenceable(8) %271, ptr noundef nonnull %270, ptr noundef nonnull %198)
          to label %275 unwind label %164

275:                                              ; preds = %268
  %276 = invoke noundef nonnull align 8 dereferenceable(32) ptr @_ZN11xercesc_2_512XMLBufferMgr11bidOnBufferEv(ptr noundef nonnull align 8 dereferenceable(24) %18)
          to label %277 unwind label %342

277:                                              ; preds = %275
  invoke void @_ZN11xercesc_2_59XMLBuffer3setEPKtj(ptr noundef nonnull align 8 dereferenceable(32) %276, ptr noundef nonnull %270, i32 noundef 0)
          to label %278 unwind label %342

278:                                              ; preds = %277
  %279 = load ptr, ptr %72, align 8, !tbaa !809
  %280 = getelementptr inbounds %"class.xercesc_2_5::RefStackOf", ptr %279, i64 0, i32 1, i32 0, i32 2
  %281 = load i32, ptr %280, align 4, !tbaa !804
  %282 = add i32 %281, 1
  %283 = getelementptr inbounds %"class.xercesc_2_5::RefStackOf", ptr %279, i64 0, i32 1, i32 0, i32 3
  %284 = load i32, ptr %283, align 8, !tbaa !805
  %285 = icmp ult i32 %282, %284
  br i1 %285, label %286, label %289

286:                                              ; preds = %278
  %287 = getelementptr inbounds %"class.xercesc_2_5::RefStackOf", ptr %279, i64 0, i32 1, i32 0, i32 4
  %288 = load ptr, ptr %287, align 8, !tbaa !806
  br label %335

289:                                              ; preds = %278
  %290 = add i32 %284, 32
  %291 = tail call i32 @llvm.umax.i32(i32 %282, i32 %290)
  %292 = getelementptr inbounds %"class.xercesc_2_5::RefStackOf", ptr %279, i64 0, i32 1, i32 0, i32 5
  %293 = load ptr, ptr %292, align 8, !tbaa !807
  %294 = zext i32 %291 to i64
  %295 = shl nuw nsw i64 %294, 3
  %296 = load ptr, ptr %293, align 8, !tbaa !759
  %297 = getelementptr inbounds ptr, ptr %296, i64 2
  %298 = load ptr, ptr %297, align 8
  %299 = invoke noundef ptr %298(ptr noundef nonnull align 8 dereferenceable(8) %293, i64 noundef %295)
          to label %300 unwind label %342

300:                                              ; preds = %289
  %301 = load i32, ptr %280, align 4, !tbaa !804
  %302 = icmp eq i32 %301, 0
  br i1 %302, label %306, label %303

303:                                              ; preds = %300
  %304 = getelementptr inbounds %"class.xercesc_2_5::RefStackOf", ptr %279, i64 0, i32 1, i32 0, i32 4
  %305 = zext i32 %301 to i64
  br label %317

306:                                              ; preds = %317, %300
  %307 = icmp ult i32 %301, %291
  br i1 %307, label %308, label %325

308:                                              ; preds = %306
  %309 = zext i32 %301 to i64
  %310 = shl nuw nsw i64 %309, 3
  %311 = getelementptr i8, ptr %299, i64 %310
  %312 = xor i32 %301, -1
  %313 = add i32 %291, %312
  %314 = zext i32 %313 to i64
  %315 = shl nuw nsw i64 %314, 3
  %316 = add nuw nsw i64 %315, 8
  tail call void @llvm.memset.p0.i64(ptr noundef nonnull align 8 dereferenceable(1) %311, i8 0, i64 %316, i1 false), !tbaa !808
  br label %325

317:                                              ; preds = %317, %303
  %318 = phi i64 [ 0, %303 ], [ %323, %317 ]
  %319 = load ptr, ptr %304, align 8, !tbaa !806
  %320 = getelementptr inbounds ptr, ptr %319, i64 %318
  %321 = load ptr, ptr %320, align 8, !tbaa !808
  %322 = getelementptr inbounds ptr, ptr %299, i64 %318
  store ptr %321, ptr %322, align 8, !tbaa !808
  %323 = add nuw nsw i64 %318, 1
  %324 = icmp eq i64 %323, %305
  br i1 %324, label %306, label %317

325:                                              ; preds = %308, %306
  %326 = load ptr, ptr %292, align 8, !tbaa !807
  %327 = getelementptr inbounds %"class.xercesc_2_5::RefStackOf", ptr %279, i64 0, i32 1, i32 0, i32 4
  %328 = load ptr, ptr %327, align 8, !tbaa !806
  %329 = load ptr, ptr %326, align 8, !tbaa !759
  %330 = getelementptr inbounds ptr, ptr %329, i64 3
  %331 = load ptr, ptr %330, align 8
  invoke void %331(ptr noundef nonnull align 8 dereferenceable(8) %326, ptr noundef %328)
          to label %332 unwind label %342

332:                                              ; preds = %325
  store ptr %299, ptr %327, align 8, !tbaa !806
  store i32 %291, ptr %283, align 8, !tbaa !805
  %333 = load i32, ptr %280, align 4, !tbaa !804
  %334 = add i32 %333, 1
  br label %335

335:                                              ; preds = %332, %286
  %336 = phi i32 [ %282, %286 ], [ %334, %332 ]
  %337 = phi i32 [ %281, %286 ], [ %333, %332 ]
  %338 = phi ptr [ %288, %286 ], [ %299, %332 ]
  %339 = zext i32 %337 to i64
  %340 = getelementptr inbounds ptr, ptr %338, i64 %339
  store ptr %276, ptr %340, align 8, !tbaa !808
  store i32 %336, ptr %280, align 4, !tbaa !804
  %341 = add i32 %123, 1
  br label %344

342:                                              ; preds = %325, %289, %277, %275
  %343 = landingpad { ptr, i32 }
          cleanup
  br label %494

344:                                              ; preds = %335, %267
  %345 = phi i32 [ %123, %267 ], [ %341, %335 ]
  %346 = add nuw nsw i64 %122, 1
  %347 = icmp eq i64 %346, %73
  br i1 %347, label %74, label %121

348:                                              ; preds = %110, %84
  %349 = phi i32 [ %79, %84 ], [ %111, %110 ]
  %350 = phi ptr [ %86, %84 ], [ %99, %110 ]
  %351 = zext i32 %349 to i64
  %352 = getelementptr inbounds i32, ptr %350, i64 %351
  store i32 %75, ptr %352, align 4, !tbaa !852
  %353 = load i32, ptr %78, align 4, !tbaa !819
  %354 = add i32 %353, 1
  store i32 %354, ptr %78, align 4, !tbaa !819
  %355 = load i8, ptr %55, align 8, !tbaa !762, !range !824, !noundef !825
  %356 = icmp eq i8 %355, 0
  %357 = getelementptr inbounds %"class.xercesc_2_5::SAX2XMLReaderImpl", ptr %0, i64 0, i32 13
  br i1 %356, label %358, label %363

358:                                              ; preds = %348
  %359 = getelementptr inbounds %"class.xercesc_2_5::SAX2XMLReaderImpl", ptr %0, i64 0, i32 15
  %360 = load ptr, ptr %359, align 8, !tbaa !816
  %361 = getelementptr inbounds %"class.xercesc_2_5::BaseRefVectorOf.1", ptr %360, i64 0, i32 2
  %362 = load i32, ptr %361, align 4, !tbaa !812
  br label %363

363:                                              ; preds = %348, %358
  %364 = phi ptr [ %360, %358 ], [ %4, %348 ]
  %365 = phi i32 [ %362, %358 ], [ %5, %348 ]
  %366 = load ptr, ptr %49, align 8, !tbaa !789
  invoke void @_ZN11xercesc_2_517VecAttributesImpl9setVectorEPKNS_11RefVectorOfINS_7XMLAttrEEEjPKNS_10XMLScannerEb(ptr noundef nonnull align 8 dereferenceable(32) %357, ptr noundef nonnull %364, i32 noundef %365, ptr noundef %366, i1 noundef zeroext false)
          to label %367 unwind label %64

367:                                              ; preds = %363
  %368 = load ptr, ptr %14, align 8, !tbaa !832
  %369 = load ptr, ptr %49, align 8, !tbaa !789
  %370 = invoke noundef ptr @_ZNK11xercesc_2_510XMLScanner10getURITextEj(ptr noundef nonnull align 8 dereferenceable(664) %369, i32 noundef %2)
          to label %371 unwind label %64

371:                                              ; preds = %367
  %372 = load ptr, ptr %44, align 8, !tbaa !855
  %373 = getelementptr inbounds %"class.xercesc_2_5::QName", ptr %372, i64 0, i32 4
  %374 = load ptr, ptr %373, align 8, !tbaa !858
  %375 = getelementptr inbounds %"class.xercesc_2_5::XMLBuffer", ptr %19, i64 0, i32 4
  %376 = load ptr, ptr %375, align 8, !tbaa !827
  %377 = getelementptr inbounds %"class.xercesc_2_5::XMLBuffer", ptr %19, i64 0, i32 1
  %378 = load i32, ptr %377, align 4, !tbaa !853
  %379 = zext i32 %378 to i64
  %380 = getelementptr inbounds i16, ptr %376, i64 %379
  store i16 0, ptr %380, align 2, !tbaa !848
  %381 = getelementptr inbounds %"class.xercesc_2_5::SAX2XMLReaderImpl", ptr %0, i64 0, i32 13
  %382 = load ptr, ptr %368, align 8, !tbaa !759
  %383 = getelementptr inbounds ptr, ptr %382, i64 9
  %384 = load ptr, ptr %383, align 8
  invoke void %384(ptr noundef nonnull align 8 dereferenceable(8) %368, ptr noundef %370, ptr noundef %374, ptr noundef nonnull %376, ptr noundef nonnull align 8 dereferenceable(8) %381)
          to label %397 unwind label %64

385:                                              ; preds = %48
  %386 = getelementptr inbounds %"class.xercesc_2_5::SAX2XMLReaderImpl", ptr %0, i64 0, i32 13
  invoke void @_ZN11xercesc_2_517VecAttributesImpl9setVectorEPKNS_11RefVectorOfINS_7XMLAttrEEEjPKNS_10XMLScannerEb(ptr noundef nonnull align 8 dereferenceable(32) %386, ptr noundef nonnull %4, i32 noundef %5, ptr noundef nonnull %50, i1 noundef zeroext false)
          to label %387 unwind label %41

387:                                              ; preds = %385
  %388 = load ptr, ptr %14, align 8, !tbaa !832
  %389 = load ptr, ptr %44, align 8, !tbaa !855
  %390 = getelementptr inbounds %"class.xercesc_2_5::QName", ptr %389, i64 0, i32 4
  %391 = load ptr, ptr %390, align 8, !tbaa !858
  %392 = invoke noundef ptr @_ZN11xercesc_2_55QName10getRawNameEv(ptr noundef nonnull align 8 dereferenceable(64) %389)
          to label %393 unwind label %41

393:                                              ; preds = %387
  %394 = load ptr, ptr %388, align 8, !tbaa !759
  %395 = getelementptr inbounds ptr, ptr %394, i64 9
  %396 = load ptr, ptr %395, align 8
  invoke void %396(ptr noundef nonnull align 8 dereferenceable(8) %388, ptr noundef nonnull @_ZN11xercesc_2_56XMLUni15fgZeroLenStringE, ptr noundef %391, ptr noundef %392, ptr noundef nonnull align 8 dereferenceable(8) %386)
          to label %397 unwind label %41

397:                                              ; preds = %371, %393
  br i1 %6, label %398, label %493

398:                                              ; preds = %397
  %399 = load ptr, ptr %49, align 8, !tbaa !789
  %400 = getelementptr inbounds %"class.xercesc_2_5::XMLScanner", ptr %399, i64 0, i32 3
  %401 = load i8, ptr %400, align 2, !tbaa !791, !range !824, !noundef !825
  %402 = icmp eq i8 %401, 0
  %403 = load ptr, ptr %14, align 8, !tbaa !832
  br i1 %402, label %484, label %404

404:                                              ; preds = %398
  %405 = invoke noundef ptr @_ZNK11xercesc_2_510XMLScanner10getURITextEj(ptr noundef nonnull align 8 dereferenceable(664) %399, i32 noundef %2)
          to label %406 unwind label %41

406:                                              ; preds = %404
  %407 = load ptr, ptr %44, align 8, !tbaa !855
  %408 = getelementptr inbounds %"class.xercesc_2_5::QName", ptr %407, i64 0, i32 4
  %409 = load ptr, ptr %408, align 8, !tbaa !858
  %410 = getelementptr inbounds %"class.xercesc_2_5::XMLBuffer", ptr %19, i64 0, i32 4
  %411 = load ptr, ptr %410, align 8, !tbaa !827
  %412 = getelementptr inbounds %"class.xercesc_2_5::XMLBuffer", ptr %19, i64 0, i32 1
  %413 = load i32, ptr %412, align 4, !tbaa !853
  %414 = zext i32 %413 to i64
  %415 = getelementptr inbounds i16, ptr %411, i64 %414
  store i16 0, ptr %415, align 2, !tbaa !848
  %416 = load ptr, ptr %403, align 8, !tbaa !759
  %417 = getelementptr inbounds ptr, ptr %416, i64 4
  %418 = load ptr, ptr %417, align 8
  invoke void %418(ptr noundef nonnull align 8 dereferenceable(8) %403, ptr noundef %405, ptr noundef %409, ptr noundef nonnull %411)
          to label %419 unwind label %41

419:                                              ; preds = %406
  %420 = getelementptr inbounds %"class.xercesc_2_5::SAX2XMLReaderImpl", ptr %0, i64 0, i32 17
  %421 = load ptr, ptr %420, align 8, !tbaa !823
  %422 = getelementptr inbounds %"class.xercesc_2_5::ValueStackOf", ptr %421, i64 0, i32 1, i32 1
  %423 = load i32, ptr %422, align 4, !tbaa !819
  %424 = icmp eq i32 %423, 0
  br i1 %424, label %425, label %433

425:                                              ; preds = %419
  %426 = tail call ptr @__cxa_allocate_exception(i64 48) #17
  %427 = getelementptr inbounds %"class.xercesc_2_5::ValueStackOf", ptr %421, i64 0, i32 1, i32 4
  %428 = load ptr, ptr %427, align 8, !tbaa !822
  invoke void @_ZN11xercesc_2_519EmptyStackExceptionC2EPKcjNS_10XMLExcepts5CodesEPNS_13MemoryManagerE(ptr noundef nonnull align 8 dereferenceable(48) %426, ptr noundef nonnull @.str.6, i32 noundef 139, i32 noundef 78, ptr noundef %428)
          to label %429 unwind label %431

429:                                              ; preds = %425
  invoke void @__cxa_throw(ptr nonnull %426, ptr nonnull @_ZTIN11xercesc_2_519EmptyStackExceptionE, ptr nonnull @_ZN11xercesc_2_512XMLExceptionD2Ev) #19
          to label %430 unwind label %443

430:                                              ; preds = %429
  unreachable

431:                                              ; preds = %425
  %432 = landingpad { ptr, i32 }
          cleanup
  tail call void @__cxa_free_exception(ptr %426) #17
  br label %494

433:                                              ; preds = %419
  %434 = add nsw i32 %423, -1
  %435 = getelementptr inbounds %"class.xercesc_2_5::ValueStackOf", ptr %421, i64 0, i32 1, i32 3
  %436 = load ptr, ptr %435, align 8, !tbaa !821
  %437 = zext i32 %434 to i64
  %438 = getelementptr inbounds i32, ptr %436, i64 %437
  %439 = load i32, ptr %438, align 4, !tbaa !852
  store i32 %434, ptr %422, align 4, !tbaa !819
  %440 = icmp eq i32 %439, 0
  br i1 %440, label %493, label %441

441:                                              ; preds = %433
  %442 = getelementptr inbounds %"class.xercesc_2_5::SAX2XMLReaderImpl", ptr %0, i64 0, i32 16
  br label %445

443:                                              ; preds = %429
  %444 = landingpad { ptr, i32 }
          cleanup
  br label %494

445:                                              ; preds = %441, %477
  %446 = phi i32 [ 0, %441 ], [ %478, %477 ]
  %447 = load ptr, ptr %442, align 8, !tbaa !809
  %448 = getelementptr inbounds %"class.xercesc_2_5::RefStackOf", ptr %447, i64 0, i32 1, i32 0, i32 2
  %449 = load i32, ptr %448, align 4, !tbaa !804
  %450 = icmp eq i32 %449, 0
  br i1 %450, label %451, label %459

451:                                              ; preds = %445
  %452 = tail call ptr @__cxa_allocate_exception(i64 48) #17
  %453 = getelementptr inbounds %"class.xercesc_2_5::RefStackOf", ptr %447, i64 0, i32 1, i32 0, i32 5
  %454 = load ptr, ptr %453, align 8, !tbaa !807
  invoke void @_ZN11xercesc_2_519EmptyStackExceptionC2EPKcjNS_10XMLExcepts5CodesEPNS_13MemoryManagerE(ptr noundef nonnull align 8 dereferenceable(48) %452, ptr noundef nonnull @.str.8, i32 noundef 143, i32 noundef 78, ptr noundef %454)
          to label %455 unwind label %457

455:                                              ; preds = %451
  invoke void @__cxa_throw(ptr nonnull %452, ptr nonnull @_ZTIN11xercesc_2_519EmptyStackExceptionE, ptr nonnull @_ZN11xercesc_2_512XMLExceptionD2Ev) #19
          to label %456 unwind label %482

456:                                              ; preds = %455
  unreachable

457:                                              ; preds = %451
  %458 = landingpad { ptr, i32 }
          cleanup
  tail call void @__cxa_free_exception(ptr %452) #17
  br label %494

459:                                              ; preds = %445
  %460 = add nsw i32 %449, -1
  %461 = getelementptr inbounds %"class.xercesc_2_5::RefStackOf", ptr %447, i64 0, i32 1, i32 0, i32 4
  %462 = load ptr, ptr %461, align 8, !tbaa !806
  %463 = zext i32 %460 to i64
  %464 = getelementptr inbounds ptr, ptr %462, i64 %463
  %465 = load ptr, ptr %464, align 8, !tbaa !808
  store ptr null, ptr %464, align 8, !tbaa !808
  store i32 %460, ptr %448, align 4, !tbaa !804
  %466 = load ptr, ptr %14, align 8, !tbaa !832
  %467 = getelementptr inbounds %"class.xercesc_2_5::XMLBuffer", ptr %465, i64 0, i32 4
  %468 = load ptr, ptr %467, align 8, !tbaa !827
  %469 = getelementptr inbounds %"class.xercesc_2_5::XMLBuffer", ptr %465, i64 0, i32 1
  %470 = load i32, ptr %469, align 4, !tbaa !853
  %471 = zext i32 %470 to i64
  %472 = getelementptr inbounds i16, ptr %468, i64 %471
  store i16 0, ptr %472, align 2, !tbaa !848
  %473 = load ptr, ptr %466, align 8, !tbaa !759
  %474 = getelementptr inbounds ptr, ptr %473, i64 11
  %475 = load ptr, ptr %474, align 8
  invoke void %475(ptr noundef nonnull align 8 dereferenceable(8) %466, ptr noundef nonnull %468)
          to label %476 unwind label %480

476:                                              ; preds = %459
  invoke void @_ZN11xercesc_2_512XMLBufferMgr13releaseBufferERNS_9XMLBufferE(ptr noundef nonnull align 8 dereferenceable(24) %18, ptr noundef nonnull align 8 dereferenceable(32) %465)
          to label %477 unwind label %480

477:                                              ; preds = %476
  %478 = add nuw i32 %446, 1
  %479 = icmp eq i32 %478, %439
  br i1 %479, label %493, label %445

480:                                              ; preds = %459, %476
  %481 = landingpad { ptr, i32 }
          cleanup
  br label %494

482:                                              ; preds = %455
  %483 = landingpad { ptr, i32 }
          cleanup
  br label %494

484:                                              ; preds = %398
  %485 = load ptr, ptr %44, align 8, !tbaa !855
  %486 = getelementptr inbounds %"class.xercesc_2_5::QName", ptr %485, i64 0, i32 4
  %487 = load ptr, ptr %486, align 8, !tbaa !858
  %488 = invoke noundef ptr @_ZN11xercesc_2_55QName10getRawNameEv(ptr noundef nonnull align 8 dereferenceable(64) %485)
          to label %489 unwind label %41

489:                                              ; preds = %484
  %490 = load ptr, ptr %403, align 8, !tbaa !759
  %491 = getelementptr inbounds ptr, ptr %490, i64 4
  %492 = load ptr, ptr %491, align 8
  invoke void %492(ptr noundef nonnull align 8 dereferenceable(8) %403, ptr noundef nonnull @_ZN11xercesc_2_56XMLUni15fgZeroLenStringE, ptr noundef %487, ptr noundef %488)
          to label %493 unwind label %41

493:                                              ; preds = %477, %433, %489, %397
  tail call void @_ZN11xercesc_2_512XMLBufferMgr13releaseBufferERNS_9XMLBufferE(ptr noundef nonnull align 8 dereferenceable(24) %18, ptr noundef nonnull align 8 dereferenceable(32) %19)
  br label %497

494:                                              ; preds = %480, %482, %164, %166, %457, %443, %431, %64, %342, %133, %41
  %495 = phi { ptr, i32 } [ %42, %41 ], [ %65, %64 ], [ %343, %342 ], [ %134, %133 ], [ %444, %443 ], [ %432, %431 ], [ %458, %457 ], [ %165, %164 ], [ %167, %166 ], [ %481, %480 ], [ %483, %482 ]
  invoke void @_ZN11xercesc_2_512XMLBufferMgr13releaseBufferERNS_9XMLBufferE(ptr noundef nonnull align 8 dereferenceable(24) %18, ptr noundef nonnull align 8 dereferenceable(32) %19)
          to label %496 unwind label %516

496:                                              ; preds = %494
  resume { ptr, i32 } %495

497:                                              ; preds = %493, %13
  %498 = getelementptr inbounds %"class.xercesc_2_5::SAX2XMLReaderImpl", ptr %0, i64 0, i32 11
  %499 = load i32, ptr %498, align 4, !tbaa !781
  %500 = icmp eq i32 %499, 0
  br i1 %500, label %503, label %501

501:                                              ; preds = %497
  %502 = getelementptr inbounds %"class.xercesc_2_5::SAX2XMLReaderImpl", ptr %0, i64 0, i32 25
  br label %504

503:                                              ; preds = %504, %497
  ret void

504:                                              ; preds = %501, %504
  %505 = phi i64 [ 0, %501 ], [ %512, %504 ]
  %506 = load ptr, ptr %502, align 8, !tbaa !790
  %507 = getelementptr inbounds ptr, ptr %506, i64 %505
  %508 = load ptr, ptr %507, align 8, !tbaa !808
  %509 = load ptr, ptr %508, align 8, !tbaa !759
  %510 = getelementptr inbounds ptr, ptr %509, i64 11
  %511 = load ptr, ptr %510, align 8
  tail call void %511(ptr noundef nonnull align 8 dereferenceable(8) %508, ptr noundef nonnull align 8 dereferenceable(33) %1, i32 noundef %2, ptr noundef %3, ptr noundef nonnull align 8 dereferenceable(40) %4, i32 noundef %5, i1 noundef zeroext %6, i1 noundef zeroext %7)
  %512 = add nuw nsw i64 %505, 1
  %513 = load i32, ptr %498, align 4, !tbaa !781
  %514 = zext i32 %513 to i64
  %515 = icmp ult i64 %512, %514
  br i1 %515, label %504, label %503

516:                                              ; preds = %494
  %517 = landingpad { ptr, i32 }
          catch ptr null
  %518 = extractvalue { ptr, i32 } %517, 0
  tail call void @__clang_call_terminate(ptr %518) #18
  unreachable
}

; Function Attrs: mustprogress nofree norecurse nosync nounwind willreturn memory(read, inaccessiblemem: none) uwtable
define dso_local noundef zeroext i1 @_ZNK11xercesc_2_517SAX2XMLReaderImpl15getDoNamespacesEv(ptr nocapture noundef nonnull readonly align 8 dereferenceable(264) %0) local_unnamed_addr #9 align 2 {
  %2 = getelementptr inbounds %"class.xercesc_2_5::SAX2XMLReaderImpl", ptr %0, i64 0, i32 26
  %3 = load ptr, ptr %2, align 8, !tbaa !789
  %4 = getelementptr inbounds %"class.xercesc_2_5::XMLScanner", ptr %3, i64 0, i32 3
  %5 = load i8, ptr %4, align 2, !tbaa !791, !range !824, !noundef !825
  %6 = icmp ne i8 %5, 0
  ret i1 %6
}

declare noundef ptr @_ZNK11xercesc_2_57XMLAttr8getQNameEv(ptr noundef nonnull align 8 dereferenceable(49)) local_unnamed_addr #1

declare noundef nonnull align 8 dereferenceable(32) ptr @_ZN11xercesc_2_512XMLBufferMgr11bidOnBufferEv(ptr noundef nonnull align 8 dereferenceable(24)) local_unnamed_addr #1

declare void @_ZN11xercesc_2_59XMLBuffer3setEPKtj(ptr noundef nonnull align 8 dereferenceable(32), ptr noundef, i32 noundef) local_unnamed_addr #1

declare void @_ZN11xercesc_2_517VecAttributesImpl9setVectorEPKNS_11RefVectorOfINS_7XMLAttrEEEjPKNS_10XMLScannerEb(ptr noundef nonnull align 8 dereferenceable(32), ptr noundef, i32 noundef, ptr noundef, i1 noundef zeroext) local_unnamed_addr #1

declare noundef ptr @_ZNK11xercesc_2_510XMLScanner10getURITextEj(ptr noundef nonnull align 8 dereferenceable(664), i32 noundef) local_unnamed_addr #1

; Function Attrs: uwtable
define dso_local void @_ZThn8_N11xercesc_2_517SAX2XMLReaderImpl12startElementERKNS_14XMLElementDeclEjPKtRKNS_11RefVectorOfINS_7XMLAttrEEEjbb(ptr noundef %0, ptr noundef nonnull align 8 dereferenceable(33) %1, i32 noundef %2, ptr noundef %3, ptr noundef nonnull align 8 dereferenceable(40) %4, i32 noundef %5, i1 noundef zeroext %6, i1 noundef zeroext %7) unnamed_addr #2 align 2 {
  %9 = getelementptr inbounds i8, ptr %0, i64 -8
  tail call void @_ZN11xercesc_2_517SAX2XMLReaderImpl12startElementERKNS_14XMLElementDeclEjPKtRKNS_11RefVectorOfINS_7XMLAttrEEEjbb(ptr noundef nonnull align 8 dereferenceable(264) %9, ptr noundef nonnull align 8 dereferenceable(33) %1, i32 noundef %2, ptr noundef %3, ptr noundef nonnull align 8 dereferenceable(40) %4, i32 noundef %5, i1 noundef zeroext %6, i1 noundef zeroext %7)
  ret void
}

; Function Attrs: uwtable
define dso_local void @_ZN11xercesc_2_517SAX2XMLReaderImpl10endElementERKNS_14XMLElementDeclEjbPKt(ptr noundef nonnull align 8 dereferenceable(264) %0, ptr noundef nonnull align 8 dereferenceable(33) %1, i32 noundef %2, i1 noundef zeroext %3, ptr noundef %4) unnamed_addr #2 align 2 personality ptr @__gxx_personality_v0 {
  %6 = getelementptr inbounds %"class.xercesc_2_5::SAX2XMLReaderImpl", ptr %0, i64 0, i32 14
  %7 = load ptr, ptr %6, align 8, !tbaa !832
  %8 = icmp eq ptr %7, null
  br i1 %8, label %141, label %9

9:                                                ; preds = %5
  %10 = getelementptr inbounds %"class.xercesc_2_5::SAX2XMLReaderImpl", ptr %0, i64 0, i32 26
  %11 = load ptr, ptr %10, align 8, !tbaa !789
  %12 = getelementptr inbounds %"class.xercesc_2_5::XMLScanner", ptr %11, i64 0, i32 3
  %13 = load i8, ptr %12, align 2, !tbaa !791, !range !824, !noundef !825
  %14 = icmp eq i8 %13, 0
  br i1 %14, label %132, label %15

15:                                               ; preds = %9
  %16 = getelementptr inbounds %"class.xercesc_2_5::SAX2XMLReaderImpl", ptr %0, i64 0, i32 32
  %17 = tail call noundef nonnull align 8 dereferenceable(32) ptr @_ZN11xercesc_2_512XMLBufferMgr11bidOnBufferEv(ptr noundef nonnull align 8 dereferenceable(24) %16)
  %18 = icmp eq ptr %4, null
  br i1 %18, label %41, label %19

19:                                               ; preds = %15
  %20 = load i16, ptr %4, align 2, !tbaa !848
  %21 = icmp eq i16 %20, 0
  br i1 %21, label %41, label %22

22:                                               ; preds = %19
  invoke void @_ZN11xercesc_2_59XMLBuffer3setEPKtj(ptr noundef nonnull align 8 dereferenceable(32) %17, ptr noundef nonnull %4, i32 noundef 0)
          to label %23 unwind label %39

23:                                               ; preds = %22
  %24 = getelementptr inbounds %"class.xercesc_2_5::XMLBuffer", ptr %17, i64 0, i32 1
  %25 = load i32, ptr %24, align 4, !tbaa !853
  %26 = getelementptr inbounds %"class.xercesc_2_5::XMLBuffer", ptr %17, i64 0, i32 2
  %27 = load i32, ptr %26, align 8, !tbaa !854
  %28 = icmp eq i32 %25, %27
  br i1 %28, label %29, label %32

29:                                               ; preds = %23
  invoke void @_ZN11xercesc_2_59XMLBuffer6expandEv(ptr noundef nonnull align 8 dereferenceable(32) %17)
          to label %30 unwind label %39

30:                                               ; preds = %29
  %31 = load i32, ptr %24, align 4, !tbaa !853
  br label %32

32:                                               ; preds = %23, %30
  %33 = phi i32 [ %31, %30 ], [ %25, %23 ]
  %34 = getelementptr inbounds %"class.xercesc_2_5::XMLBuffer", ptr %17, i64 0, i32 4
  %35 = load ptr, ptr %34, align 8, !tbaa !827
  %36 = add i32 %33, 1
  store i32 %36, ptr %24, align 4, !tbaa !853
  %37 = zext i32 %33 to i64
  %38 = getelementptr inbounds i16, ptr %35, i64 %37
  store i16 58, ptr %38, align 2, !tbaa !848
  br label %41

39:                                               ; preds = %41, %29, %22, %50, %46
  %40 = landingpad { ptr, i32 }
          cleanup
  br label %129

41:                                               ; preds = %15, %19, %32
  %42 = getelementptr inbounds %"class.xercesc_2_5::XMLElementDecl", ptr %1, i64 0, i32 2
  %43 = load ptr, ptr %42, align 8, !tbaa !855
  %44 = getelementptr inbounds %"class.xercesc_2_5::QName", ptr %43, i64 0, i32 4
  %45 = load ptr, ptr %44, align 8, !tbaa !858
  invoke void @_ZN11xercesc_2_59XMLBuffer6appendEPKtj(ptr noundef nonnull align 8 dereferenceable(32) %17, ptr noundef %45, i32 noundef 0)
          to label %46 unwind label %39

46:                                               ; preds = %41
  %47 = load ptr, ptr %6, align 8, !tbaa !832
  %48 = load ptr, ptr %10, align 8, !tbaa !789
  %49 = invoke noundef ptr @_ZNK11xercesc_2_510XMLScanner10getURITextEj(ptr noundef nonnull align 8 dereferenceable(664) %48, i32 noundef %2)
          to label %50 unwind label %39

50:                                               ; preds = %46
  %51 = load ptr, ptr %42, align 8, !tbaa !855
  %52 = getelementptr inbounds %"class.xercesc_2_5::QName", ptr %51, i64 0, i32 4
  %53 = load ptr, ptr %52, align 8, !tbaa !858
  %54 = getelementptr inbounds %"class.xercesc_2_5::XMLBuffer", ptr %17, i64 0, i32 4
  %55 = load ptr, ptr %54, align 8, !tbaa !827
  %56 = getelementptr inbounds %"class.xercesc_2_5::XMLBuffer", ptr %17, i64 0, i32 1
  %57 = load i32, ptr %56, align 4, !tbaa !853
  %58 = zext i32 %57 to i64
  %59 = getelementptr inbounds i16, ptr %55, i64 %58
  store i16 0, ptr %59, align 2, !tbaa !848
  %60 = load ptr, ptr %47, align 8, !tbaa !759
  %61 = getelementptr inbounds ptr, ptr %60, i64 4
  %62 = load ptr, ptr %61, align 8
  invoke void %62(ptr noundef nonnull align 8 dereferenceable(8) %47, ptr noundef %49, ptr noundef %53, ptr noundef nonnull %55)
          to label %63 unwind label %39

63:                                               ; preds = %50
  %64 = getelementptr inbounds %"class.xercesc_2_5::SAX2XMLReaderImpl", ptr %0, i64 0, i32 17
  %65 = load ptr, ptr %64, align 8, !tbaa !823
  %66 = getelementptr inbounds %"class.xercesc_2_5::ValueStackOf", ptr %65, i64 0, i32 1, i32 1
  %67 = load i32, ptr %66, align 4, !tbaa !819
  %68 = icmp eq i32 %67, 0
  br i1 %68, label %69, label %77

69:                                               ; preds = %63
  %70 = tail call ptr @__cxa_allocate_exception(i64 48) #17
  %71 = getelementptr inbounds %"class.xercesc_2_5::ValueStackOf", ptr %65, i64 0, i32 1, i32 4
  %72 = load ptr, ptr %71, align 8, !tbaa !822
  invoke void @_ZN11xercesc_2_519EmptyStackExceptionC2EPKcjNS_10XMLExcepts5CodesEPNS_13MemoryManagerE(ptr noundef nonnull align 8 dereferenceable(48) %70, ptr noundef nonnull @.str.6, i32 noundef 139, i32 noundef 78, ptr noundef %72)
          to label %73 unwind label %75

73:                                               ; preds = %69
  invoke void @__cxa_throw(ptr nonnull %70, ptr nonnull @_ZTIN11xercesc_2_519EmptyStackExceptionE, ptr nonnull @_ZN11xercesc_2_512XMLExceptionD2Ev) #19
          to label %74 unwind label %88

74:                                               ; preds = %73
  unreachable

75:                                               ; preds = %69
  %76 = landingpad { ptr, i32 }
          cleanup
  tail call void @__cxa_free_exception(ptr %70) #17
  br label %129

77:                                               ; preds = %63
  %78 = add nsw i32 %67, -1
  %79 = getelementptr inbounds %"class.xercesc_2_5::ValueStackOf", ptr %65, i64 0, i32 1, i32 3
  %80 = load ptr, ptr %79, align 8, !tbaa !821
  %81 = zext i32 %78 to i64
  %82 = getelementptr inbounds i32, ptr %80, i64 %81
  %83 = load i32, ptr %82, align 4, !tbaa !852
  store i32 %78, ptr %66, align 4, !tbaa !819
  %84 = icmp eq i32 %83, 0
  br i1 %84, label %87, label %85

85:                                               ; preds = %77
  %86 = getelementptr inbounds %"class.xercesc_2_5::SAX2XMLReaderImpl", ptr %0, i64 0, i32 16
  br label %90

87:                                               ; preds = %122, %77
  tail call void @_ZN11xercesc_2_512XMLBufferMgr13releaseBufferERNS_9XMLBufferE(ptr noundef nonnull align 8 dereferenceable(24) %16, ptr noundef nonnull align 8 dereferenceable(32) %17)
  br label %141

88:                                               ; preds = %73
  %89 = landingpad { ptr, i32 }
          cleanup
  br label %129

90:                                               ; preds = %85, %122
  %91 = phi i32 [ 0, %85 ], [ %123, %122 ]
  %92 = load ptr, ptr %86, align 8, !tbaa !809
  %93 = getelementptr inbounds %"class.xercesc_2_5::RefStackOf", ptr %92, i64 0, i32 1, i32 0, i32 2
  %94 = load i32, ptr %93, align 4, !tbaa !804
  %95 = icmp eq i32 %94, 0
  br i1 %95, label %96, label %104

96:                                               ; preds = %90
  %97 = tail call ptr @__cxa_allocate_exception(i64 48) #17
  %98 = getelementptr inbounds %"class.xercesc_2_5::RefStackOf", ptr %92, i64 0, i32 1, i32 0, i32 5
  %99 = load ptr, ptr %98, align 8, !tbaa !807
  invoke void @_ZN11xercesc_2_519EmptyStackExceptionC2EPKcjNS_10XMLExcepts5CodesEPNS_13MemoryManagerE(ptr noundef nonnull align 8 dereferenceable(48) %97, ptr noundef nonnull @.str.8, i32 noundef 143, i32 noundef 78, ptr noundef %99)
          to label %100 unwind label %102

100:                                              ; preds = %96
  invoke void @__cxa_throw(ptr nonnull %97, ptr nonnull @_ZTIN11xercesc_2_519EmptyStackExceptionE, ptr nonnull @_ZN11xercesc_2_512XMLExceptionD2Ev) #19
          to label %101 unwind label %127

101:                                              ; preds = %100
  unreachable

102:                                              ; preds = %96
  %103 = landingpad { ptr, i32 }
          cleanup
  tail call void @__cxa_free_exception(ptr %97) #17
  br label %129

104:                                              ; preds = %90
  %105 = add nsw i32 %94, -1
  %106 = getelementptr inbounds %"class.xercesc_2_5::RefStackOf", ptr %92, i64 0, i32 1, i32 0, i32 4
  %107 = load ptr, ptr %106, align 8, !tbaa !806
  %108 = zext i32 %105 to i64
  %109 = getelementptr inbounds ptr, ptr %107, i64 %108
  %110 = load ptr, ptr %109, align 8, !tbaa !808
  store ptr null, ptr %109, align 8, !tbaa !808
  store i32 %105, ptr %93, align 4, !tbaa !804
  %111 = load ptr, ptr %6, align 8, !tbaa !832
  %112 = getelementptr inbounds %"class.xercesc_2_5::XMLBuffer", ptr %110, i64 0, i32 4
  %113 = load ptr, ptr %112, align 8, !tbaa !827
  %114 = getelementptr inbounds %"class.xercesc_2_5::XMLBuffer", ptr %110, i64 0, i32 1
  %115 = load i32, ptr %114, align 4, !tbaa !853
  %116 = zext i32 %115 to i64
  %117 = getelementptr inbounds i16, ptr %113, i64 %116
  store i16 0, ptr %117, align 2, !tbaa !848
  %118 = load ptr, ptr %111, align 8, !tbaa !759
  %119 = getelementptr inbounds ptr, ptr %118, i64 11
  %120 = load ptr, ptr %119, align 8
  invoke void %120(ptr noundef nonnull align 8 dereferenceable(8) %111, ptr noundef nonnull %113)
          to label %121 unwind label %125

121:                                              ; preds = %104
  invoke void @_ZN11xercesc_2_512XMLBufferMgr13releaseBufferERNS_9XMLBufferE(ptr noundef nonnull align 8 dereferenceable(24) %16, ptr noundef nonnull align 8 dereferenceable(32) %110)
          to label %122 unwind label %125

122:                                              ; preds = %121
  %123 = add nuw i32 %91, 1
  %124 = icmp eq i32 %123, %83
  br i1 %124, label %87, label %90

125:                                              ; preds = %104, %121
  %126 = landingpad { ptr, i32 }
          cleanup
  br label %129

127:                                              ; preds = %100
  %128 = landingpad { ptr, i32 }
          cleanup
  br label %129

129:                                              ; preds = %125, %127, %102, %88, %75, %39
  %130 = phi { ptr, i32 } [ %40, %39 ], [ %89, %88 ], [ %76, %75 ], [ %103, %102 ], [ %126, %125 ], [ %128, %127 ]
  invoke void @_ZN11xercesc_2_512XMLBufferMgr13releaseBufferERNS_9XMLBufferE(ptr noundef nonnull align 8 dereferenceable(24) %16, ptr noundef nonnull align 8 dereferenceable(32) %17)
          to label %131 unwind label %166

131:                                              ; preds = %129
  resume { ptr, i32 } %130

132:                                              ; preds = %9
  %133 = getelementptr inbounds %"class.xercesc_2_5::XMLElementDecl", ptr %1, i64 0, i32 2
  %134 = load ptr, ptr %133, align 8, !tbaa !855
  %135 = getelementptr inbounds %"class.xercesc_2_5::QName", ptr %134, i64 0, i32 4
  %136 = load ptr, ptr %135, align 8, !tbaa !858
  %137 = tail call noundef ptr @_ZN11xercesc_2_55QName10getRawNameEv(ptr noundef nonnull align 8 dereferenceable(64) %134)
  %138 = load ptr, ptr %7, align 8, !tbaa !759
  %139 = getelementptr inbounds ptr, ptr %138, i64 4
  %140 = load ptr, ptr %139, align 8
  tail call void %140(ptr noundef nonnull align 8 dereferenceable(8) %7, ptr noundef nonnull @_ZN11xercesc_2_56XMLUni15fgZeroLenStringE, ptr noundef %136, ptr noundef %137)
  br label %141

141:                                              ; preds = %87, %132, %5
  %142 = getelementptr inbounds %"class.xercesc_2_5::SAX2XMLReaderImpl", ptr %0, i64 0, i32 11
  %143 = load i32, ptr %142, align 4, !tbaa !781
  %144 = icmp eq i32 %143, 0
  br i1 %144, label %147, label %145

145:                                              ; preds = %141
  %146 = getelementptr inbounds %"class.xercesc_2_5::SAX2XMLReaderImpl", ptr %0, i64 0, i32 25
  br label %151

147:                                              ; preds = %151, %141
  %148 = getelementptr inbounds %"class.xercesc_2_5::SAX2XMLReaderImpl", ptr %0, i64 0, i32 10
  %149 = load i32, ptr %148, align 8, !tbaa !780
  %150 = icmp eq i32 %149, 0
  br i1 %150, label %165, label %163

151:                                              ; preds = %145, %151
  %152 = phi i64 [ 0, %145 ], [ %159, %151 ]
  %153 = load ptr, ptr %146, align 8, !tbaa !790
  %154 = getelementptr inbounds ptr, ptr %153, i64 %152
  %155 = load ptr, ptr %154, align 8, !tbaa !808
  %156 = load ptr, ptr %155, align 8, !tbaa !759
  %157 = getelementptr inbounds ptr, ptr %156, i64 6
  %158 = load ptr, ptr %157, align 8
  tail call void %158(ptr noundef nonnull align 8 dereferenceable(8) %155, ptr noundef nonnull align 8 dereferenceable(33) %1, i32 noundef %2, i1 noundef zeroext %3, ptr noundef %4)
  %159 = add nuw nsw i64 %152, 1
  %160 = load i32, ptr %142, align 4, !tbaa !781
  %161 = zext i32 %160 to i64
  %162 = icmp ult i64 %159, %161
  br i1 %162, label %151, label %147

163:                                              ; preds = %147
  %164 = add i32 %149, -1
  store i32 %164, ptr %148, align 8, !tbaa !780
  br label %165

165:                                              ; preds = %163, %147
  ret void

166:                                              ; preds = %129
  %167 = landingpad { ptr, i32 }
          catch ptr null
  %168 = extractvalue { ptr, i32 } %167, 0
  tail call void @__clang_call_terminate(ptr %168) #18
  unreachable
}

; Function Attrs: uwtable
define dso_local void @_ZThn8_N11xercesc_2_517SAX2XMLReaderImpl10endElementERKNS_14XMLElementDeclEjbPKt(ptr noundef %0, ptr noundef nonnull align 8 dereferenceable(33) %1, i32 noundef %2, i1 noundef zeroext %3, ptr noundef %4) unnamed_addr #2 align 2 {
  %6 = getelementptr inbounds i8, ptr %0, i64 -8
  tail call void @_ZN11xercesc_2_517SAX2XMLReaderImpl10endElementERKNS_14XMLElementDeclEjbPKt(ptr noundef nonnull align 8 dereferenceable(264) %6, ptr noundef nonnull align 8 dereferenceable(33) %1, i32 noundef %2, i1 noundef zeroext %3, ptr noundef %4)
  ret void
}

; Function Attrs: uwtable
define dso_local void @_ZN11xercesc_2_517SAX2XMLReaderImpl20startEntityReferenceERKNS_13XMLEntityDeclE(ptr nocapture noundef nonnull readonly align 8 dereferenceable(264) %0, ptr noundef nonnull align 8 dereferenceable(72) %1) unnamed_addr #2 align 2 {
  %3 = getelementptr inbounds %"class.xercesc_2_5::SAX2XMLReaderImpl", ptr %0, i64 0, i32 23
  %4 = load ptr, ptr %3, align 8, !tbaa !840
  %5 = icmp eq ptr %4, null
  br i1 %5, label %12, label %6

6:                                                ; preds = %2
  %7 = getelementptr inbounds %"class.xercesc_2_5::XMLEntityDecl", ptr %1, i64 0, i32 4
  %8 = load ptr, ptr %7, align 8, !tbaa !850
  %9 = load ptr, ptr %4, align 8, !tbaa !759
  %10 = getelementptr inbounds ptr, ptr %9, i64 8
  %11 = load ptr, ptr %10, align 8
  tail call void %11(ptr noundef nonnull align 8 dereferenceable(8) %4, ptr noundef %8)
  br label %12

12:                                               ; preds = %6, %2
  %13 = getelementptr inbounds %"class.xercesc_2_5::SAX2XMLReaderImpl", ptr %0, i64 0, i32 11
  %14 = load i32, ptr %13, align 4, !tbaa !781
  %15 = icmp eq i32 %14, 0
  br i1 %15, label %18, label %16

16:                                               ; preds = %12
  %17 = getelementptr inbounds %"class.xercesc_2_5::SAX2XMLReaderImpl", ptr %0, i64 0, i32 25
  br label %19

18:                                               ; preds = %19, %12
  ret void

19:                                               ; preds = %16, %19
  %20 = phi i64 [ 0, %16 ], [ %27, %19 ]
  %21 = load ptr, ptr %17, align 8, !tbaa !790
  %22 = getelementptr inbounds ptr, ptr %21, i64 %20
  %23 = load ptr, ptr %22, align 8, !tbaa !808
  %24 = load ptr, ptr %23, align 8, !tbaa !759
  %25 = getelementptr inbounds ptr, ptr %24, i64 12
  %26 = load ptr, ptr %25, align 8
  tail call void %26(ptr noundef nonnull align 8 dereferenceable(8) %23, ptr noundef nonnull align 8 dereferenceable(72) %1)
  %27 = add nuw nsw i64 %20, 1
  %28 = load i32, ptr %13, align 4, !tbaa !781
  %29 = zext i32 %28 to i64
  %30 = icmp ult i64 %27, %29
  br i1 %30, label %19, label %18
}

; Function Attrs: uwtable
define dso_local void @_ZThn8_N11xercesc_2_517SAX2XMLReaderImpl20startEntityReferenceERKNS_13XMLEntityDeclE(ptr nocapture noundef readonly %0, ptr noundef nonnull align 8 dereferenceable(72) %1) unnamed_addr #2 align 2 {
  %3 = getelementptr inbounds i8, ptr %0, i64 160
  %4 = load ptr, ptr %3, align 8, !tbaa !840
  %5 = icmp eq ptr %4, null
  br i1 %5, label %12, label %6

6:                                                ; preds = %2
  %7 = getelementptr inbounds %"class.xercesc_2_5::XMLEntityDecl", ptr %1, i64 0, i32 4
  %8 = load ptr, ptr %7, align 8, !tbaa !850
  %9 = load ptr, ptr %4, align 8, !tbaa !759
  %10 = getelementptr inbounds ptr, ptr %9, i64 8
  %11 = load ptr, ptr %10, align 8
  tail call void %11(ptr noundef nonnull align 8 dereferenceable(8) %4, ptr noundef %8)
  br label %12

12:                                               ; preds = %6, %2
  %13 = getelementptr inbounds i8, ptr %0, i64 44
  %14 = load i32, ptr %13, align 4, !tbaa !781
  %15 = icmp eq i32 %14, 0
  br i1 %15, label %30, label %16

16:                                               ; preds = %12
  %17 = getelementptr inbounds i8, ptr %0, i64 176
  br label %18

18:                                               ; preds = %18, %16
  %19 = phi i64 [ 0, %16 ], [ %26, %18 ]
  %20 = load ptr, ptr %17, align 8, !tbaa !790
  %21 = getelementptr inbounds ptr, ptr %20, i64 %19
  %22 = load ptr, ptr %21, align 8, !tbaa !808
  %23 = load ptr, ptr %22, align 8, !tbaa !759
  %24 = getelementptr inbounds ptr, ptr %23, i64 12
  %25 = load ptr, ptr %24, align 8
  tail call void %25(ptr noundef nonnull align 8 dereferenceable(8) %22, ptr noundef nonnull align 8 dereferenceable(72) %1)
  %26 = add nuw nsw i64 %19, 1
  %27 = load i32, ptr %13, align 4, !tbaa !781
  %28 = zext i32 %27 to i64
  %29 = icmp ult i64 %26, %28
  br i1 %29, label %18, label %30

30:                                               ; preds = %18, %12
  ret void
}

; Function Attrs: uwtable
define dso_local void @_ZN11xercesc_2_517SAX2XMLReaderImpl6attDefERKNS_14DTDElementDeclERKNS_9DTDAttDefEb(ptr nocapture noundef nonnull readonly align 8 dereferenceable(264) %0, ptr nocapture noundef nonnull readonly align 8 dereferenceable(88) %1, ptr noundef nonnull align 8 dereferenceable(72) %2, i1 noundef zeroext %3) unnamed_addr #2 align 2 personality ptr @__gxx_personality_v0 {
  %5 = alloca %"class.xercesc_2_5::XMLBuffer", align 8
  %6 = getelementptr inbounds %"class.xercesc_2_5::SAX2XMLReaderImpl", ptr %0, i64 0, i32 24
  %7 = load ptr, ptr %6, align 8, !tbaa !841
  %8 = icmp eq ptr %7, null
  %9 = or i1 %8, %3
  br i1 %9, label %177, label %10

10:                                               ; preds = %4
  %11 = getelementptr inbounds %"class.xercesc_2_5::XMLAttDef", ptr %2, i64 0, i32 2
  %12 = load i32, ptr %11, align 4, !tbaa !865
  %13 = getelementptr inbounds %"class.xercesc_2_5::XMLAttDef", ptr %2, i64 0, i32 1
  %14 = load i32, ptr %13, align 8, !tbaa !869
  %15 = icmp eq i32 %12, 8
  %16 = and i32 %12, -2
  %17 = icmp eq i32 %16, 8
  call void @llvm.lifetime.start.p0(i64 32, ptr nonnull %5) #17
  %18 = getelementptr inbounds %"class.xercesc_2_5::SAX2XMLReaderImpl", ptr %0, i64 0, i32 30
  %19 = load ptr, ptr %18, align 8, !tbaa !783
  store i8 0, ptr %5, align 8, !tbaa !870
  %20 = getelementptr inbounds %"class.xercesc_2_5::XMLBuffer", ptr %5, i64 0, i32 1
  store i32 0, ptr %20, align 4, !tbaa !853
  %21 = getelementptr inbounds %"class.xercesc_2_5::XMLBuffer", ptr %5, i64 0, i32 2
  store i32 128, ptr %21, align 8, !tbaa !854
  %22 = getelementptr inbounds %"class.xercesc_2_5::XMLBuffer", ptr %5, i64 0, i32 3
  store ptr %19, ptr %22, align 8, !tbaa !826
  %23 = getelementptr inbounds %"class.xercesc_2_5::XMLBuffer", ptr %5, i64 0, i32 4
  %24 = load ptr, ptr %19, align 8, !tbaa !759
  %25 = getelementptr inbounds ptr, ptr %24, i64 2
  %26 = load ptr, ptr %25, align 8
  %27 = tail call noundef ptr %26(ptr noundef nonnull align 8 dereferenceable(8) %19, i64 noundef 258)
  store ptr %27, ptr %23, align 8, !tbaa !827
  store i16 0, ptr %27, align 2, !tbaa !848
  switch i32 %14, label %33 [
    i32 4, label %28
    i32 2, label %28
    i32 1, label %28
  ]

28:                                               ; preds = %10, %10, %10
  %29 = load ptr, ptr %18, align 8, !tbaa !783
  %30 = invoke noundef ptr @_ZN11xercesc_2_59XMLAttDef19getDefAttTypeStringENS0_11DefAttTypesEPNS_13MemoryManagerE(i32 noundef %14, ptr noundef %29)
          to label %33 unwind label %31

31:                                               ; preds = %136, %156, %152, %141, %28
  %32 = landingpad { ptr, i32 }
          cleanup
  br label %169

33:                                               ; preds = %28, %10
  %34 = phi ptr [ @_ZN11xercesc_2_56XMLUni12fgNullStringE, %10 ], [ %30, %28 ]
  br i1 %17, label %35, label %136

35:                                               ; preds = %33
  %36 = getelementptr inbounds %"class.xercesc_2_5::XMLAttDef", ptr %2, i64 0, i32 8
  %37 = load ptr, ptr %36, align 8, !tbaa !871
  %38 = icmp eq ptr %37, null
  br i1 %38, label %53, label %39

39:                                               ; preds = %35
  %40 = load i16, ptr %37, align 2, !tbaa !848
  %41 = icmp eq i16 %40, 0
  br i1 %41, label %53, label %42

42:                                               ; preds = %39, %42
  %43 = phi ptr [ %44, %42 ], [ %37, %39 ]
  %44 = getelementptr inbounds i16, ptr %43, i64 1
  %45 = load i16, ptr %44, align 2, !tbaa !848
  %46 = icmp eq i16 %45, 0
  br i1 %46, label %47, label %42

47:                                               ; preds = %42
  %48 = ptrtoint ptr %44 to i64
  %49 = ptrtoint ptr %37 to i64
  %50 = sub i64 %48, %49
  %51 = lshr exact i64 %50, 1
  %52 = trunc i64 %51 to i32
  br label %53

53:                                               ; preds = %35, %39, %47
  %54 = phi i32 [ %52, %47 ], [ 0, %39 ], [ 0, %35 ]
  br i1 %15, label %57, label %55

55:                                               ; preds = %53
  %56 = load i32, ptr %20, align 4, !tbaa !853
  br label %73

57:                                               ; preds = %53
  invoke void @_ZN11xercesc_2_59XMLBuffer3setEPKtj(ptr noundef nonnull align 8 dereferenceable(32) %5, ptr noundef nonnull @_ZN11xercesc_2_56XMLUni16fgNotationStringE, i32 noundef 0)
          to label %58 unwind label %71

58:                                               ; preds = %57
  %59 = load i32, ptr %20, align 4, !tbaa !853
  %60 = load i32, ptr %21, align 8, !tbaa !854
  %61 = icmp eq i32 %59, %60
  br i1 %61, label %62, label %65

62:                                               ; preds = %58
  invoke void @_ZN11xercesc_2_59XMLBuffer6expandEv(ptr noundef nonnull align 8 dereferenceable(32) %5)
          to label %63 unwind label %71

63:                                               ; preds = %62
  %64 = load i32, ptr %20, align 4, !tbaa !853
  br label %65

65:                                               ; preds = %58, %63
  %66 = phi i32 [ %64, %63 ], [ %59, %58 ]
  %67 = load ptr, ptr %23, align 8, !tbaa !827
  %68 = add i32 %66, 1
  store i32 %68, ptr %20, align 4, !tbaa !853
  %69 = zext i32 %66 to i64
  %70 = getelementptr inbounds i16, ptr %67, i64 %69
  store i16 32, ptr %70, align 2, !tbaa !848
  br label %73

71:                                               ; preds = %94, %77, %62, %57
  %72 = landingpad { ptr, i32 }
          cleanup
  br label %169

73:                                               ; preds = %55, %65
  %74 = phi i32 [ %56, %55 ], [ %68, %65 ]
  %75 = load i32, ptr %21, align 8, !tbaa !854
  %76 = icmp eq i32 %74, %75
  br i1 %76, label %77, label %80

77:                                               ; preds = %73
  invoke void @_ZN11xercesc_2_59XMLBuffer6expandEv(ptr noundef nonnull align 8 dereferenceable(32) %5)
          to label %78 unwind label %71

78:                                               ; preds = %77
  %79 = load i32, ptr %20, align 4, !tbaa !853
  br label %80

80:                                               ; preds = %73, %78
  %81 = phi i32 [ %79, %78 ], [ %74, %73 ]
  %82 = load ptr, ptr %23, align 8, !tbaa !827
  %83 = add i32 %81, 1
  store i32 %83, ptr %20, align 4, !tbaa !853
  %84 = zext i32 %81 to i64
  %85 = getelementptr inbounds i16, ptr %82, i64 %84
  store i16 40, ptr %85, align 2, !tbaa !848
  %86 = icmp eq i32 %54, 0
  br i1 %86, label %89, label %87

87:                                               ; preds = %80
  %88 = zext i32 %54 to i64
  br label %104

89:                                               ; preds = %126, %80
  %90 = phi ptr [ %82, %80 ], [ %130, %126 ]
  %91 = phi i32 [ %83, %80 ], [ %131, %126 ]
  %92 = load i32, ptr %21, align 8, !tbaa !854
  %93 = icmp eq i32 %91, %92
  br i1 %93, label %94, label %98

94:                                               ; preds = %89
  invoke void @_ZN11xercesc_2_59XMLBuffer6expandEv(ptr noundef nonnull align 8 dereferenceable(32) %5)
          to label %95 unwind label %71

95:                                               ; preds = %94
  %96 = load i32, ptr %20, align 4, !tbaa !853
  %97 = load ptr, ptr %23, align 8, !tbaa !827
  br label %98

98:                                               ; preds = %89, %95
  %99 = phi ptr [ %97, %95 ], [ %90, %89 ]
  %100 = phi i32 [ %96, %95 ], [ %91, %89 ]
  %101 = add i32 %100, 1
  store i32 %101, ptr %20, align 4, !tbaa !853
  %102 = zext i32 %100 to i64
  %103 = getelementptr inbounds i16, ptr %99, i64 %102
  store i16 41, ptr %103, align 2, !tbaa !848
  br label %136

104:                                              ; preds = %87, %126
  %105 = phi ptr [ %82, %87 ], [ %130, %126 ]
  %106 = phi ptr [ %82, %87 ], [ %128, %126 ]
  %107 = phi i32 [ %83, %87 ], [ %131, %126 ]
  %108 = phi i64 [ 0, %87 ], [ %134, %126 ]
  %109 = getelementptr inbounds i16, ptr %37, i64 %108
  %110 = load i16, ptr %109, align 2, !tbaa !848
  %111 = icmp eq i16 %110, 32
  %112 = load i32, ptr %21, align 8, !tbaa !854
  %113 = icmp eq i32 %107, %112
  br i1 %111, label %114, label %121

114:                                              ; preds = %104
  br i1 %113, label %115, label %126

115:                                              ; preds = %114
  invoke void @_ZN11xercesc_2_59XMLBuffer6expandEv(ptr noundef nonnull align 8 dereferenceable(32) %5)
          to label %116 unwind label %119

116:                                              ; preds = %115
  %117 = load i32, ptr %20, align 4, !tbaa !853
  %118 = load ptr, ptr %23, align 8, !tbaa !827
  br label %126

119:                                              ; preds = %122, %115
  %120 = landingpad { ptr, i32 }
          cleanup
  br label %169

121:                                              ; preds = %104
  br i1 %113, label %122, label %126

122:                                              ; preds = %121
  invoke void @_ZN11xercesc_2_59XMLBuffer6expandEv(ptr noundef nonnull align 8 dereferenceable(32) %5)
          to label %123 unwind label %119

123:                                              ; preds = %122
  %124 = load i32, ptr %20, align 4, !tbaa !853
  %125 = load ptr, ptr %23, align 8, !tbaa !827
  br label %126

126:                                              ; preds = %123, %121, %116, %114
  %127 = phi i32 [ %117, %116 ], [ %107, %114 ], [ %124, %123 ], [ %107, %121 ]
  %128 = phi ptr [ %118, %116 ], [ %105, %114 ], [ %125, %123 ], [ %106, %121 ]
  %129 = phi i16 [ 124, %116 ], [ 124, %114 ], [ %110, %123 ], [ %110, %121 ]
  %130 = phi ptr [ %118, %116 ], [ %105, %114 ], [ %125, %123 ], [ %105, %121 ]
  %131 = add i32 %127, 1
  store i32 %131, ptr %20, align 4, !tbaa !853
  %132 = zext i32 %127 to i64
  %133 = getelementptr inbounds i16, ptr %128, i64 %132
  store i16 %129, ptr %133, align 2, !tbaa !848
  %134 = add nuw nsw i64 %108, 1
  %135 = icmp eq i64 %134, %88
  br i1 %135, label %89, label %104

136:                                              ; preds = %98, %33
  %137 = load ptr, ptr %6, align 8, !tbaa !841
  %138 = getelementptr inbounds %"class.xercesc_2_5::XMLElementDecl", ptr %1, i64 0, i32 2
  %139 = load ptr, ptr %138, align 8, !tbaa !855
  %140 = invoke noundef ptr @_ZN11xercesc_2_55QName10getRawNameEv(ptr noundef nonnull align 8 dereferenceable(64) %139)
          to label %141 unwind label %31

141:                                              ; preds = %136
  %142 = load ptr, ptr %2, align 8, !tbaa !759
  %143 = getelementptr inbounds ptr, ptr %142, i64 5
  %144 = load ptr, ptr %143, align 8
  %145 = invoke noundef ptr %144(ptr noundef nonnull align 8 dereferenceable(72) %2)
          to label %146 unwind label %31

146:                                              ; preds = %141
  br i1 %17, label %147, label %152

147:                                              ; preds = %146
  %148 = load ptr, ptr %23, align 8, !tbaa !827
