; ModuleID = 'StylesheetConstructionContextDefault.cpp'
source_filename = "StylesheetConstructionContextDefault.cpp"
target datalayout = "e-m:e-p270:32:32-p271:32:32-p272:64:64-i64:64-f80:128-n8:16:32:64-S128"
target triple = "x86_64-unknown-linux-gnu"

%"struct.xalanc_1_8::StylesheetConstructionContextDefault::ElementTokenTableEntry" = type { ptr, i32 }
%"class.xalanc_1_8::StylesheetConstructionContextDefault" = type { %"class.xalanc_1_8::StylesheetConstructionContext", ptr, ptr, %"class.xalanc_1_8::XalanAutoPtr", %"class.std::vector", %"class.xalanc_1_8::XalanDOMStringPool", %"class.xalanc_1_8::XalanArrayAllocator", %"class.xalanc_1_8::XalanDOMString", %"class.xalanc_1_8::XalanQNameByValue", %"class.xalanc_1_8::XalanDOMStringCache", %"class.xalanc_1_8::XalanAVTAllocator", %"class.xalanc_1_8::XalanAVTPartSimpleAllocator", %"class.xalanc_1_8::XalanAVTPartXPathAllocator", %"class.xalanc_1_8::XalanQNameByValueAllocator", %"class.xalanc_1_8::XalanQNameByReference", %"class.xalanc_1_8::XalanArrayAllocator.42", %"class.std::vector.48", %"class.xalanc_1_8::XalanElemApplyTemplatesAllocator", %"class.xalanc_1_8::XalanElemAttributeAllocator", %"class.xalanc_1_8::XalanElemAttributeSetAllocator", %"class.xalanc_1_8::XalanElemCallTemplateAllocator", %"class.xalanc_1_8::XalanElemElementAllocator", %"class.xalanc_1_8::XalanElemLiteralResultAllocator", %"class.xalanc_1_8::XalanElemTemplateAllocator", %"class.xalanc_1_8::XalanElemTextLiteralAllocator", %"class.xalanc_1_8::XalanElemValueOfAllocator", %"class.xalanc_1_8::XalanElemVariableAllocator", %"class.xalanc_1_8::XalanQNameByReference" }
%"class.xalanc_1_8::StylesheetConstructionContext" = type { %"class.xalanc_1_8::XPathConstructionContext" }
%"class.xalanc_1_8::XPathConstructionContext" = type { ptr }
%"class.xalanc_1_8::XalanAutoPtr" = type { ptr }
%"class.std::vector" = type { %"struct.std::_Vector_base" }
%"struct.std::_Vector_base" = type { %"struct.std::_Vector_base<xalanc_1_8::StylesheetRoot *, std::allocator<xalanc_1_8::StylesheetRoot *> >::_Vector_impl" }
%"struct.std::_Vector_base<xalanc_1_8::StylesheetRoot *, std::allocator<xalanc_1_8::StylesheetRoot *> >::_Vector_impl" = type { %"struct.std::_Vector_base<xalanc_1_8::StylesheetRoot *, std::allocator<xalanc_1_8::StylesheetRoot *> >::_Vector_impl_data" }
%"struct.std::_Vector_base<xalanc_1_8::StylesheetRoot *, std::allocator<xalanc_1_8::StylesheetRoot *> >::_Vector_impl_data" = type { ptr, ptr, ptr }
%"class.xalanc_1_8::XalanDOMStringPool" = type { ptr, %"class.xalanc_1_8::XalanDOMStringAllocator", i64, %"class.xalanc_1_8::XalanDOMStringHashTable" }
%"class.xalanc_1_8::XalanDOMStringAllocator" = type { %"class.xalanc_1_8::ArenaAllocator" }
%"class.xalanc_1_8::ArenaAllocator" = type { ptr, i64, %"class.std::vector.0" }
%"class.std::vector.0" = type { %"struct.std::_Vector_base.1" }
%"struct.std::_Vector_base.1" = type { %"struct.std::_Vector_base<xalanc_1_8::ArenaBlock<xalanc_1_8::XalanDOMString> *, std::allocator<xalanc_1_8::ArenaBlock<xalanc_1_8::XalanDOMString> *> >::_Vector_impl" }
%"struct.std::_Vector_base<xalanc_1_8::ArenaBlock<xalanc_1_8::XalanDOMString> *, std::allocator<xalanc_1_8::ArenaBlock<xalanc_1_8::XalanDOMString> *> >::_Vector_impl" = type { %"struct.std::_Vector_base<xalanc_1_8::ArenaBlock<xalanc_1_8::XalanDOMString> *, std::allocator<xalanc_1_8::ArenaBlock<xalanc_1_8::XalanDOMString> *> >::_Vector_impl_data" }
%"struct.std::_Vector_base<xalanc_1_8::ArenaBlock<xalanc_1_8::XalanDOMString> *, std::allocator<xalanc_1_8::ArenaBlock<xalanc_1_8::XalanDOMString> *> >::_Vector_impl_data" = type { ptr, ptr, ptr }
%"class.xalanc_1_8::XalanDOMStringHashTable" = type <{ i64, i64, %"class.xalanc_1_8::XalanArrayAutoPtr", i64, i32, [4 x i8] }>
%"class.xalanc_1_8::XalanArrayAutoPtr" = type { ptr }
%"class.xalanc_1_8::XalanArrayAllocator" = type { %"class.std::__cxx11::list", i64, ptr }
%"class.std::__cxx11::list" = type { %"class.std::__cxx11::_List_base" }
%"class.std::__cxx11::_List_base" = type { %"struct.std::__cxx11::_List_base<std::pair<unsigned long, std::vector<unsigned short> >, std::allocator<std::pair<unsigned long, std::vector<unsigned short> > > >::_List_impl" }
%"struct.std::__cxx11::_List_base<std::pair<unsigned long, std::vector<unsigned short> >, std::allocator<std::pair<unsigned long, std::vector<unsigned short> > > >::_List_impl" = type { %"struct.std::__detail::_List_node_header" }
%"struct.std::__detail::_List_node_header" = type { %"struct.std::__detail::_List_node_base", i64 }
%"struct.std::__detail::_List_node_base" = type { ptr, ptr }
%"class.xalanc_1_8::XalanDOMString" = type <{ %"class.std::vector.8", i32, [4 x i8] }>
%"class.std::vector.8" = type { %"struct.std::_Vector_base.9" }
%"struct.std::_Vector_base.9" = type { %"struct.std::_Vector_base<unsigned short, std::allocator<unsigned short> >::_Vector_impl" }
%"struct.std::_Vector_base<unsigned short, std::allocator<unsigned short> >::_Vector_impl" = type { %"struct.std::_Vector_base<unsigned short, std::allocator<unsigned short> >::_Vector_impl_data" }
%"struct.std::_Vector_base<unsigned short, std::allocator<unsigned short> >::_Vector_impl_data" = type { ptr, ptr, ptr }
%"class.xalanc_1_8::XalanQNameByValue" = type { %"class.xalanc_1_8::XalanQName", %"class.xalanc_1_8::XalanDOMString", %"class.xalanc_1_8::XalanDOMString" }
%"class.xalanc_1_8::XalanQName" = type { ptr }
%"class.xalanc_1_8::XalanDOMStringCache" = type <{ %"class.std::vector.13", %"class.std::vector.13", i32, [4 x i8] }>
%"class.std::vector.13" = type { %"struct.std::_Vector_base.14" }
%"struct.std::_Vector_base.14" = type { %"struct.std::_Vector_base<xalanc_1_8::XalanDOMString *, std::allocator<xalanc_1_8::XalanDOMString *> >::_Vector_impl" }
%"struct.std::_Vector_base<xalanc_1_8::XalanDOMString *, std::allocator<xalanc_1_8::XalanDOMString *> >::_Vector_impl" = type { %"struct.std::_Vector_base<xalanc_1_8::XalanDOMString *, std::allocator<xalanc_1_8::XalanDOMString *> >::_Vector_impl_data" }
%"struct.std::_Vector_base<xalanc_1_8::XalanDOMString *, std::allocator<xalanc_1_8::XalanDOMString *> >::_Vector_impl_data" = type { ptr, ptr, ptr }
%"class.xalanc_1_8::XalanAVTAllocator" = type { %"class.xalanc_1_8::ArenaAllocator.18" }
%"class.xalanc_1_8::ArenaAllocator.18" = type { ptr, i64, %"class.std::vector.19" }
%"class.std::vector.19" = type { %"struct.std::_Vector_base.20" }
%"struct.std::_Vector_base.20" = type { %"struct.std::_Vector_base<xalanc_1_8::ArenaBlock<xalanc_1_8::AVT> *, std::allocator<xalanc_1_8::ArenaBlock<xalanc_1_8::AVT> *> >::_Vector_impl" }
%"struct.std::_Vector_base<xalanc_1_8::ArenaBlock<xalanc_1_8::AVT> *, std::allocator<xalanc_1_8::ArenaBlock<xalanc_1_8::AVT> *> >::_Vector_impl" = type { %"struct.std::_Vector_base<xalanc_1_8::ArenaBlock<xalanc_1_8::AVT> *, std::allocator<xalanc_1_8::ArenaBlock<xalanc_1_8::AVT> *> >::_Vector_impl_data" }
%"struct.std::_Vector_base<xalanc_1_8::ArenaBlock<xalanc_1_8::AVT> *, std::allocator<xalanc_1_8::ArenaBlock<xalanc_1_8::AVT> *> >::_Vector_impl_data" = type { ptr, ptr, ptr }
%"class.xalanc_1_8::XalanAVTPartSimpleAllocator" = type { %"class.xalanc_1_8::ArenaAllocator.24" }
%"class.xalanc_1_8::ArenaAllocator.24" = type { ptr, i64, %"class.std::vector.25" }
%"class.std::vector.25" = type { %"struct.std::_Vector_base.26" }
%"struct.std::_Vector_base.26" = type { %"struct.std::_Vector_base<xalanc_1_8::ArenaBlock<xalanc_1_8::AVTPartSimple> *, std::allocator<xalanc_1_8::ArenaBlock<xalanc_1_8::AVTPartSimple> *> >::_Vector_impl" }
%"struct.std::_Vector_base<xalanc_1_8::ArenaBlock<xalanc_1_8::AVTPartSimple> *, std::allocator<xalanc_1_8::ArenaBlock<xalanc_1_8::AVTPartSimple> *> >::_Vector_impl" = type { %"struct.std::_Vector_base<xalanc_1_8::ArenaBlock<xalanc_1_8::AVTPartSimple> *, std::allocator<xalanc_1_8::ArenaBlock<xalanc_1_8::AVTPartSimple> *> >::_Vector_impl_data" }
%"struct.std::_Vector_base<xalanc_1_8::ArenaBlock<xalanc_1_8::AVTPartSimple> *, std::allocator<xalanc_1_8::ArenaBlock<xalanc_1_8::AVTPartSimple> *> >::_Vector_impl_data" = type { ptr, ptr, ptr }
%"class.xalanc_1_8::XalanAVTPartXPathAllocator" = type { %"class.xalanc_1_8::ArenaAllocator.30" }
%"class.xalanc_1_8::ArenaAllocator.30" = type { ptr, i64, %"class.std::vector.31" }
%"class.std::vector.31" = type { %"struct.std::_Vector_base.32" }
%"struct.std::_Vector_base.32" = type { %"struct.std::_Vector_base<xalanc_1_8::ArenaBlock<xalanc_1_8::AVTPartXPath> *, std::allocator<xalanc_1_8::ArenaBlock<xalanc_1_8::AVTPartXPath> *> >::_Vector_impl" }
%"struct.std::_Vector_base<xalanc_1_8::ArenaBlock<xalanc_1_8::AVTPartXPath> *, std::allocator<xalanc_1_8::ArenaBlock<xalanc_1_8::AVTPartXPath> *> >::_Vector_impl" = type { %"struct.std::_Vector_base<xalanc_1_8::ArenaBlock<xalanc_1_8::AVTPartXPath> *, std::allocator<xalanc_1_8::ArenaBlock<xalanc_1_8::AVTPartXPath> *> >::_Vector_impl_data" }
%"struct.std::_Vector_base<xalanc_1_8::ArenaBlock<xalanc_1_8::AVTPartXPath> *, std::allocator<xalanc_1_8::ArenaBlock<xalanc_1_8::AVTPartXPath> *> >::_Vector_impl_data" = type { ptr, ptr, ptr }
%"class.xalanc_1_8::XalanQNameByValueAllocator" = type { %"class.xalanc_1_8::ArenaAllocator.36" }
%"class.xalanc_1_8::ArenaAllocator.36" = type { ptr, i64, %"class.std::vector.37" }
%"class.std::vector.37" = type { %"struct.std::_Vector_base.38" }
%"struct.std::_Vector_base.38" = type { %"struct.std::_Vector_base<xalanc_1_8::ArenaBlock<xalanc_1_8::XalanQNameByValue> *, std::allocator<xalanc_1_8::ArenaBlock<xalanc_1_8::XalanQNameByValue> *> >::_Vector_impl" }
%"struct.std::_Vector_base<xalanc_1_8::ArenaBlock<xalanc_1_8::XalanQNameByValue> *, std::allocator<xalanc_1_8::ArenaBlock<xalanc_1_8::XalanQNameByValue> *> >::_Vector_impl" = type { %"struct.std::_Vector_base<xalanc_1_8::ArenaBlock<xalanc_1_8::XalanQNameByValue> *, std::allocator<xalanc_1_8::ArenaBlock<xalanc_1_8::XalanQNameByValue> *> >::_Vector_impl_data" }
%"struct.std::_Vector_base<xalanc_1_8::ArenaBlock<xalanc_1_8::XalanQNameByValue> *, std::allocator<xalanc_1_8::ArenaBlock<xalanc_1_8::XalanQNameByValue> *> >::_Vector_impl_data" = type { ptr, ptr, ptr }
%"class.xalanc_1_8::XalanArrayAllocator.42" = type { %"class.std::__cxx11::list.43", i64, ptr }
%"class.std::__cxx11::list.43" = type { %"class.std::__cxx11::_List_base.44" }
%"class.std::__cxx11::_List_base.44" = type { %"struct.std::__cxx11::_List_base<std::pair<unsigned long, std::vector<const void *> >, std::allocator<std::pair<unsigned long, std::vector<const void *> > > >::_List_impl" }
%"struct.std::__cxx11::_List_base<std::pair<unsigned long, std::vector<const void *> >, std::allocator<std::pair<unsigned long, std::vector<const void *> > > >::_List_impl" = type { %"struct.std::__detail::_List_node_header" }
%"class.std::vector.48" = type { %"struct.std::_Vector_base.49" }
%"struct.std::_Vector_base.49" = type { %"struct.std::_Vector_base<xalanc_1_8::ElemTemplateElement *, std::allocator<xalanc_1_8::ElemTemplateElement *> >::_Vector_impl" }
%"struct.std::_Vector_base<xalanc_1_8::ElemTemplateElement *, std::allocator<xalanc_1_8::ElemTemplateElement *> >::_Vector_impl" = type { %"struct.std::_Vector_base<xalanc_1_8::ElemTemplateElement *, std::allocator<xalanc_1_8::ElemTemplateElement *> >::_Vector_impl_data" }
%"struct.std::_Vector_base<xalanc_1_8::ElemTemplateElement *, std::allocator<xalanc_1_8::ElemTemplateElement *> >::_Vector_impl_data" = type { ptr, ptr, ptr }
%"class.xalanc_1_8::XalanElemApplyTemplatesAllocator" = type { %"class.xalanc_1_8::ArenaAllocator.53" }
%"class.xalanc_1_8::ArenaAllocator.53" = type { ptr, i64, %"class.std::vector.54" }
%"class.std::vector.54" = type { %"struct.std::_Vector_base.55" }
%"struct.std::_Vector_base.55" = type { %"struct.std::_Vector_base<xalanc_1_8::ArenaBlock<xalanc_1_8::ElemApplyTemplates> *, std::allocator<xalanc_1_8::ArenaBlock<xalanc_1_8::ElemApplyTemplates> *> >::_Vector_impl" }
%"struct.std::_Vector_base<xalanc_1_8::ArenaBlock<xalanc_1_8::ElemApplyTemplates> *, std::allocator<xalanc_1_8::ArenaBlock<xalanc_1_8::ElemApplyTemplates> *> >::_Vector_impl" = type { %"struct.std::_Vector_base<xalanc_1_8::ArenaBlock<xalanc_1_8::ElemApplyTemplates> *, std::allocator<xalanc_1_8::ArenaBlock<xalanc_1_8::ElemApplyTemplates> *> >::_Vector_impl_data" }
%"struct.std::_Vector_base<xalanc_1_8::ArenaBlock<xalanc_1_8::ElemApplyTemplates> *, std::allocator<xalanc_1_8::ArenaBlock<xalanc_1_8::ElemApplyTemplates> *> >::_Vector_impl_data" = type { ptr, ptr, ptr }
%"class.xalanc_1_8::XalanElemAttributeAllocator" = type { %"class.xalanc_1_8::ArenaAllocator.59" }
%"class.xalanc_1_8::ArenaAllocator.59" = type { ptr, i64, %"class.std::vector.60" }
%"class.std::vector.60" = type { %"struct.std::_Vector_base.61" }
%"struct.std::_Vector_base.61" = type { %"struct.std::_Vector_base<xalanc_1_8::ArenaBlock<xalanc_1_8::ElemAttribute> *, std::allocator<xalanc_1_8::ArenaBlock<xalanc_1_8::ElemAttribute> *> >::_Vector_impl" }
%"struct.std::_Vector_base<xalanc_1_8::ArenaBlock<xalanc_1_8::ElemAttribute> *, std::allocator<xalanc_1_8::ArenaBlock<xalanc_1_8::ElemAttribute> *> >::_Vector_impl" = type { %"struct.std::_Vector_base<xalanc_1_8::ArenaBlock<xalanc_1_8::ElemAttribute> *, std::allocator<xalanc_1_8::ArenaBlock<xalanc_1_8::ElemAttribute> *> >::_Vector_impl_data" }
%"struct.std::_Vector_base<xalanc_1_8::ArenaBlock<xalanc_1_8::ElemAttribute> *, std::allocator<xalanc_1_8::ArenaBlock<xalanc_1_8::ElemAttribute> *> >::_Vector_impl_data" = type { ptr, ptr, ptr }
%"class.xalanc_1_8::XalanElemAttributeSetAllocator" = type { %"class.xalanc_1_8::ArenaAllocator.65" }
%"class.xalanc_1_8::ArenaAllocator.65" = type { ptr, i64, %"class.std::vector.66" }
%"class.std::vector.66" = type { %"struct.std::_Vector_base.67" }
%"struct.std::_Vector_base.67" = type { %"struct.std::_Vector_base<xalanc_1_8::ArenaBlock<xalanc_1_8::ElemAttributeSet> *, std::allocator<xalanc_1_8::ArenaBlock<xalanc_1_8::ElemAttributeSet> *> >::_Vector_impl" }
%"struct.std::_Vector_base<xalanc_1_8::ArenaBlock<xalanc_1_8::ElemAttributeSet> *, std::allocator<xalanc_1_8::ArenaBlock<xalanc_1_8::ElemAttributeSet> *> >::_Vector_impl" = type { %"struct.std::_Vector_base<xalanc_1_8::ArenaBlock<xalanc_1_8::ElemAttributeSet> *, std::allocator<xalanc_1_8::ArenaBlock<xalanc_1_8::ElemAttributeSet> *> >::_Vector_impl_data" }
%"struct.std::_Vector_base<xalanc_1_8::ArenaBlock<xalanc_1_8::ElemAttributeSet> *, std::allocator<xalanc_1_8::ArenaBlock<xalanc_1_8::ElemAttributeSet> *> >::_Vector_impl_data" = type { ptr, ptr, ptr }
%"class.xalanc_1_8::XalanElemCallTemplateAllocator" = type { %"class.xalanc_1_8::ArenaAllocator.71" }
%"class.xalanc_1_8::ArenaAllocator.71" = type { ptr, i64, %"class.std::vector.72" }
%"class.std::vector.72" = type { %"struct.std::_Vector_base.73" }
%"struct.std::_Vector_base.73" = type { %"struct.std::_Vector_base<xalanc_1_8::ArenaBlock<xalanc_1_8::ElemCallTemplate> *, std::allocator<xalanc_1_8::ArenaBlock<xalanc_1_8::ElemCallTemplate> *> >::_Vector_impl" }
%"struct.std::_Vector_base<xalanc_1_8::ArenaBlock<xalanc_1_8::ElemCallTemplate> *, std::allocator<xalanc_1_8::ArenaBlock<xalanc_1_8::ElemCallTemplate> *> >::_Vector_impl" = type { %"struct.std::_Vector_base<xalanc_1_8::ArenaBlock<xalanc_1_8::ElemCallTemplate> *, std::allocator<xalanc_1_8::ArenaBlock<xalanc_1_8::ElemCallTemplate> *> >::_Vector_impl_data" }
%"struct.std::_Vector_base<xalanc_1_8::ArenaBlock<xalanc_1_8::ElemCallTemplate> *, std::allocator<xalanc_1_8::ArenaBlock<xalanc_1_8::ElemCallTemplate> *> >::_Vector_impl_data" = type { ptr, ptr, ptr }
%"class.xalanc_1_8::XalanElemElementAllocator" = type { %"class.xalanc_1_8::ArenaAllocator.77" }
%"class.xalanc_1_8::ArenaAllocator.77" = type { ptr, i64, %"class.std::vector.78" }
%"class.std::vector.78" = type { %"struct.std::_Vector_base.79" }
%"struct.std::_Vector_base.79" = type { %"struct.std::_Vector_base<xalanc_1_8::ArenaBlock<xalanc_1_8::ElemElement> *, std::allocator<xalanc_1_8::ArenaBlock<xalanc_1_8::ElemElement> *> >::_Vector_impl" }
%"struct.std::_Vector_base<xalanc_1_8::ArenaBlock<xalanc_1_8::ElemElement> *, std::allocator<xalanc_1_8::ArenaBlock<xalanc_1_8::ElemElement> *> >::_Vector_impl" = type { %"struct.std::_Vector_base<xalanc_1_8::ArenaBlock<xalanc_1_8::ElemElement> *, std::allocator<xalanc_1_8::ArenaBlock<xalanc_1_8::ElemElement> *> >::_Vector_impl_data" }
%"struct.std::_Vector_base<xalanc_1_8::ArenaBlock<xalanc_1_8::ElemElement> *, std::allocator<xalanc_1_8::ArenaBlock<xalanc_1_8::ElemElement> *> >::_Vector_impl_data" = type { ptr, ptr, ptr }
%"class.xalanc_1_8::XalanElemLiteralResultAllocator" = type { %"class.xalanc_1_8::ArenaAllocator.83" }
%"class.xalanc_1_8::ArenaAllocator.83" = type { ptr, i64, %"class.std::vector.84" }
%"class.std::vector.84" = type { %"struct.std::_Vector_base.85" }
%"struct.std::_Vector_base.85" = type { %"struct.std::_Vector_base<xalanc_1_8::ArenaBlock<xalanc_1_8::ElemLiteralResult> *, std::allocator<xalanc_1_8::ArenaBlock<xalanc_1_8::ElemLiteralResult> *> >::_Vector_impl" }
%"struct.std::_Vector_base<xalanc_1_8::ArenaBlock<xalanc_1_8::ElemLiteralResult> *, std::allocator<xalanc_1_8::ArenaBlock<xalanc_1_8::ElemLiteralResult> *> >::_Vector_impl" = type { %"struct.std::_Vector_base<xalanc_1_8::ArenaBlock<xalanc_1_8::ElemLiteralResult> *, std::allocator<xalanc_1_8::ArenaBlock<xalanc_1_8::ElemLiteralResult> *> >::_Vector_impl_data" }
%"struct.std::_Vector_base<xalanc_1_8::ArenaBlock<xalanc_1_8::ElemLiteralResult> *, std::allocator<xalanc_1_8::ArenaBlock<xalanc_1_8::ElemLiteralResult> *> >::_Vector_impl_data" = type { ptr, ptr, ptr }
%"class.xalanc_1_8::XalanElemTemplateAllocator" = type { %"class.xalanc_1_8::ArenaAllocator.89" }
%"class.xalanc_1_8::ArenaAllocator.89" = type { ptr, i64, %"class.std::vector.90" }
%"class.std::vector.90" = type { %"struct.std::_Vector_base.91" }
%"struct.std::_Vector_base.91" = type { %"struct.std::_Vector_base<xalanc_1_8::ArenaBlock<xalanc_1_8::ElemTemplate> *, std::allocator<xalanc_1_8::ArenaBlock<xalanc_1_8::ElemTemplate> *> >::_Vector_impl" }
%"struct.std::_Vector_base<xalanc_1_8::ArenaBlock<xalanc_1_8::ElemTemplate> *, std::allocator<xalanc_1_8::ArenaBlock<xalanc_1_8::ElemTemplate> *> >::_Vector_impl" = type { %"struct.std::_Vector_base<xalanc_1_8::ArenaBlock<xalanc_1_8::ElemTemplate> *, std::allocator<xalanc_1_8::ArenaBlock<xalanc_1_8::ElemTemplate> *> >::_Vector_impl_data" }
%"struct.std::_Vector_base<xalanc_1_8::ArenaBlock<xalanc_1_8::ElemTemplate> *, std::allocator<xalanc_1_8::ArenaBlock<xalanc_1_8::ElemTemplate> *> >::_Vector_impl_data" = type { ptr, ptr, ptr }
%"class.xalanc_1_8::XalanElemTextLiteralAllocator" = type { %"class.xalanc_1_8::ArenaAllocator.95" }
%"class.xalanc_1_8::ArenaAllocator.95" = type { ptr, i64, %"class.std::vector.96" }
%"class.std::vector.96" = type { %"struct.std::_Vector_base.97" }
%"struct.std::_Vector_base.97" = type { %"struct.std::_Vector_base<xalanc_1_8::ArenaBlock<xalanc_1_8::ElemTextLiteral> *, std::allocator<xalanc_1_8::ArenaBlock<xalanc_1_8::ElemTextLiteral> *> >::_Vector_impl" }
%"struct.std::_Vector_base<xalanc_1_8::ArenaBlock<xalanc_1_8::ElemTextLiteral> *, std::allocator<xalanc_1_8::ArenaBlock<xalanc_1_8::ElemTextLiteral> *> >::_Vector_impl" = type { %"struct.std::_Vector_base<xalanc_1_8::ArenaBlock<xalanc_1_8::ElemTextLiteral> *, std::allocator<xalanc_1_8::ArenaBlock<xalanc_1_8::ElemTextLiteral> *> >::_Vector_impl_data" }
%"struct.std::_Vector_base<xalanc_1_8::ArenaBlock<xalanc_1_8::ElemTextLiteral> *, std::allocator<xalanc_1_8::ArenaBlock<xalanc_1_8::ElemTextLiteral> *> >::_Vector_impl_data" = type { ptr, ptr, ptr }
%"class.xalanc_1_8::XalanElemValueOfAllocator" = type { %"class.xalanc_1_8::ArenaAllocator.101" }
%"class.xalanc_1_8::ArenaAllocator.101" = type { ptr, i64, %"class.std::vector.102" }
%"class.std::vector.102" = type { %"struct.std::_Vector_base.103" }
%"struct.std::_Vector_base.103" = type { %"struct.std::_Vector_base<xalanc_1_8::ArenaBlock<xalanc_1_8::ElemValueOf> *, std::allocator<xalanc_1_8::ArenaBlock<xalanc_1_8::ElemValueOf> *> >::_Vector_impl" }
%"struct.std::_Vector_base<xalanc_1_8::ArenaBlock<xalanc_1_8::ElemValueOf> *, std::allocator<xalanc_1_8::ArenaBlock<xalanc_1_8::ElemValueOf> *> >::_Vector_impl" = type { %"struct.std::_Vector_base<xalanc_1_8::ArenaBlock<xalanc_1_8::ElemValueOf> *, std::allocator<xalanc_1_8::ArenaBlock<xalanc_1_8::ElemValueOf> *> >::_Vector_impl_data" }
%"struct.std::_Vector_base<xalanc_1_8::ArenaBlock<xalanc_1_8::ElemValueOf> *, std::allocator<xalanc_1_8::ArenaBlock<xalanc_1_8::ElemValueOf> *> >::_Vector_impl_data" = type { ptr, ptr, ptr }
%"class.xalanc_1_8::XalanElemVariableAllocator" = type { %"class.xalanc_1_8::ArenaAllocator.107" }
%"class.xalanc_1_8::ArenaAllocator.107" = type { ptr, i64, %"class.std::vector.108" }
%"class.std::vector.108" = type { %"struct.std::_Vector_base.109" }
%"struct.std::_Vector_base.109" = type { %"struct.std::_Vector_base<xalanc_1_8::ArenaBlock<xalanc_1_8::ElemVariable> *, std::allocator<xalanc_1_8::ArenaBlock<xalanc_1_8::ElemVariable> *> >::_Vector_impl" }
%"struct.std::_Vector_base<xalanc_1_8::ArenaBlock<xalanc_1_8::ElemVariable> *, std::allocator<xalanc_1_8::ArenaBlock<xalanc_1_8::ElemVariable> *> >::_Vector_impl" = type { %"struct.std::_Vector_base<xalanc_1_8::ArenaBlock<xalanc_1_8::ElemVariable> *, std::allocator<xalanc_1_8::ArenaBlock<xalanc_1_8::ElemVariable> *> >::_Vector_impl_data" }
%"struct.std::_Vector_base<xalanc_1_8::ArenaBlock<xalanc_1_8::ElemVariable> *, std::allocator<xalanc_1_8::ArenaBlock<xalanc_1_8::ElemVariable> *> >::_Vector_impl_data" = type { ptr, ptr, ptr }
%"class.xalanc_1_8::XalanQNameByReference" = type { %"class.xalanc_1_8::XalanQName", ptr, ptr }
%"struct.std::_List_node" = type { %"struct.std::__detail::_List_node_base", %"struct.std::pair" }
%"struct.std::pair" = type { i64, %"class.std::vector.398" }
%"class.std::vector.398" = type { %"struct.std::_Vector_base.399" }
%"struct.std::_Vector_base.399" = type { %"struct.std::_Vector_base<const void *, std::allocator<const void *> >::_Vector_impl" }
%"struct.std::_Vector_base<const void *, std::allocator<const void *> >::_Vector_impl" = type { %"struct.std::_Vector_base<const void *, std::allocator<const void *> >::_Vector_impl_data" }
%"struct.std::_Vector_base<const void *, std::allocator<const void *> >::_Vector_impl_data" = type { ptr, ptr, ptr }
%"struct.std::_List_node.407" = type { %"struct.std::__detail::_List_node_base", %"struct.std::pair.408" }
%"struct.std::pair.408" = type { i64, %"class.std::vector.8" }
%"class.xalanc_1_8::XalanAutoPtr.265" = type { ptr }
%"class.xalanc_1_8::XPath" = type <{ %"class.xalanc_1_8::XPathExpression", ptr, i8, [7 x i8] }>
%"class.xalanc_1_8::XPathExpression" = type { %"class.std::vector.266", i32, %"class.std::vector.271", i32, ptr, %"class.std::vector.276" }
%"class.std::vector.266" = type { %"struct.std::_Vector_base.267" }
%"struct.std::_Vector_base.267" = type { %"struct.std::_Vector_base<int, std::allocator<int> >::_Vector_impl" }
%"struct.std::_Vector_base<int, std::allocator<int> >::_Vector_impl" = type { %"struct.std::_Vector_base<int, std::allocator<int> >::_Vector_impl_data" }
%"struct.std::_Vector_base<int, std::allocator<int> >::_Vector_impl_data" = type { ptr, ptr, ptr }
%"class.std::vector.271" = type { %"struct.std::_Vector_base.272" }
%"struct.std::_Vector_base.272" = type { %"struct.std::_Vector_base<xalanc_1_8::XToken, std::allocator<xalanc_1_8::XToken> >::_Vector_impl" }
%"struct.std::_Vector_base<xalanc_1_8::XToken, std::allocator<xalanc_1_8::XToken> >::_Vector_impl" = type { %"struct.std::_Vector_base<xalanc_1_8::XToken, std::allocator<xalanc_1_8::XToken> >::_Vector_impl_data" }
%"struct.std::_Vector_base<xalanc_1_8::XToken, std::allocator<xalanc_1_8::XToken> >::_Vector_impl_data" = type { ptr, ptr, ptr }
%"class.std::vector.276" = type { %"struct.std::_Vector_base.277" }
%"struct.std::_Vector_base.277" = type { %"struct.std::_Vector_base<double, std::allocator<double> >::_Vector_impl" }
%"struct.std::_Vector_base<double, std::allocator<double> >::_Vector_impl" = type { %"struct.std::_Vector_base<double, std::allocator<double> >::_Vector_impl_data" }
%"struct.std::_Vector_base<double, std::allocator<double> >::_Vector_impl_data" = type { ptr, ptr, ptr }
%"class.xalanc_1_8::XSLTEngineImpl" = type { %"class.xalanc_1_8::XSLTProcessor", %"class.xalanc_1_8::PrefixResolver", %"class.xalanc_1_8::XalanDOMString", %"class.xalanc_1_8::XalanDOMString", ptr, ptr, %"class.xalanc_1_8::XalanAutoPtr", %"class.std::vector.113", %"class.std::vector.117", %"class.xalanc_1_8::ProblemListenerDefault", ptr, ptr, i8, i8, ptr, %"class.std::map", %"class.std::vector.125", i64, %"class.std::vector.130", ptr, ptr, ptr, ptr, %"class.xalanc_1_8::OutputContextStack", %"class.xalanc_1_8::XalanNamespacesStack", %"class.xalanc_1_8::AttributeListImpl", %"class.xalanc_1_8::XalanDOMString", %"class.std::vector.149", i8, %"class.xalanc_1_8::XPathConstructionContextDefault" }
%"class.xalanc_1_8::XSLTProcessor" = type { ptr }
%"class.xalanc_1_8::PrefixResolver" = type { ptr }
%"class.std::vector.113" = type { %"struct.std::_Bvector_base" }
%"struct.std::_Bvector_base" = type { %"struct.std::_Bvector_base<std::allocator<bool> >::_Bvector_impl" }
%"struct.std::_Bvector_base<std::allocator<bool> >::_Bvector_impl" = type { %"struct.std::_Bvector_base<std::allocator<bool> >::_Bvector_impl_data" }
%"struct.std::_Bvector_base<std::allocator<bool> >::_Bvector_impl_data" = type { %"struct.std::_Bit_iterator", %"struct.std::_Bit_iterator", ptr }
%"struct.std::_Bit_iterator" = type { %"struct.std::_Bit_iterator_base.base", [4 x i8] }
%"struct.std::_Bit_iterator_base.base" = type <{ ptr, i32 }>
%"class.std::vector.117" = type { %"struct.std::_Vector_base.118" }
%"struct.std::_Vector_base.118" = type { %"struct.std::_Vector_base<const xercesc_2_5::Locator *, std::allocator<const xercesc_2_5::Locator *> >::_Vector_impl" }
%"struct.std::_Vector_base<const xercesc_2_5::Locator *, std::allocator<const xercesc_2_5::Locator *> >::_Vector_impl" = type { %"struct.std::_Vector_base<const xercesc_2_5::Locator *, std::allocator<const xercesc_2_5::Locator *> >::_Vector_impl_data" }
%"struct.std::_Vector_base<const xercesc_2_5::Locator *, std::allocator<const xercesc_2_5::Locator *> >::_Vector_impl_data" = type { ptr, ptr, ptr }
%"class.xalanc_1_8::ProblemListenerDefault" = type { %"class.xalanc_1_8::ProblemListener", ptr }
%"class.xalanc_1_8::ProblemListener" = type { ptr }
%"class.std::map" = type { %"class.std::_Rb_tree" }
%"class.std::_Rb_tree" = type { %"struct.std::_Rb_tree<const void *, std::pair<const void *const, long>, std::_Select1st<std::pair<const void *const, long> >, std::less<const void *> >::_Rb_tree_impl" }
%"struct.std::_Rb_tree<const void *, std::pair<const void *const, long>, std::_Select1st<std::pair<const void *const, long> >, std::less<const void *> >::_Rb_tree_impl" = type { %"struct.std::_Rb_tree_key_compare", %"struct.std::_Rb_tree_header" }
%"struct.std::_Rb_tree_key_compare" = type { %"struct.std::less" }
%"struct.std::less" = type { i8 }
%"struct.std::_Rb_tree_header" = type { %"struct.std::_Rb_tree_node_base", i64 }
%"struct.std::_Rb_tree_node_base" = type { i32, ptr, ptr, ptr }
%"class.std::vector.125" = type { %"struct.std::_Vector_base.126" }
%"struct.std::_Vector_base.126" = type { %"struct.std::_Vector_base<xalanc_1_8::TraceListener *, std::allocator<xalanc_1_8::TraceListener *> >::_Vector_impl" }
%"struct.std::_Vector_base<xalanc_1_8::TraceListener *, std::allocator<xalanc_1_8::TraceListener *> >::_Vector_impl" = type { %"struct.std::_Vector_base<xalanc_1_8::TraceListener *, std::allocator<xalanc_1_8::TraceListener *> >::_Vector_impl_data" }
%"struct.std::_Vector_base<xalanc_1_8::TraceListener *, std::allocator<xalanc_1_8::TraceListener *> >::_Vector_impl_data" = type { ptr, ptr, ptr }
%"class.std::vector.130" = type { %"struct.std::_Vector_base.131" }
%"struct.std::_Vector_base.131" = type { %"struct.std::_Vector_base<xalanc_1_8::TopLevelArg, std::allocator<xalanc_1_8::TopLevelArg> >::_Vector_impl" }
%"struct.std::_Vector_base<xalanc_1_8::TopLevelArg, std::allocator<xalanc_1_8::TopLevelArg> >::_Vector_impl" = type { %"struct.std::_Vector_base<xalanc_1_8::TopLevelArg, std::allocator<xalanc_1_8::TopLevelArg> >::_Vector_impl_data" }
%"struct.std::_Vector_base<xalanc_1_8::TopLevelArg, std::allocator<xalanc_1_8::TopLevelArg> >::_Vector_impl_data" = type { ptr, ptr, ptr }
%"class.xalanc_1_8::OutputContextStack" = type { %"class.std::deque", %"struct.std::_Deque_iterator", i64 }
%"class.std::deque" = type { %"class.std::_Deque_base" }
%"class.std::_Deque_base" = type { %"struct.std::_Deque_base<xalanc_1_8::OutputContextStack::OutputContext, std::allocator<xalanc_1_8::OutputContextStack::OutputContext> >::_Deque_impl" }
%"struct.std::_Deque_base<xalanc_1_8::OutputContextStack::OutputContext, std::allocator<xalanc_1_8::OutputContextStack::OutputContext> >::_Deque_impl" = type { ptr, i64, %"struct.std::_Deque_iterator", %"struct.std::_Deque_iterator" }
%"struct.std::_Deque_iterator" = type { ptr, ptr, ptr, ptr }
%"class.xalanc_1_8::XalanNamespacesStack" = type { %"class.std::deque.138", %"struct.std::_Deque_iterator.143", %"struct.std::_Deque_iterator.143", %"class.std::vector.113" }
%"class.std::deque.138" = type { %"class.std::_Deque_base.139" }
%"class.std::_Deque_base.139" = type { %"struct.std::_Deque_base<xalanc_1_8::XalanNamespacesStack::XalanNamespacesStackEntry, std::allocator<xalanc_1_8::XalanNamespacesStack::XalanNamespacesStackEntry> >::_Deque_impl" }
%"struct.std::_Deque_base<xalanc_1_8::XalanNamespacesStack::XalanNamespacesStackEntry, std::allocator<xalanc_1_8::XalanNamespacesStack::XalanNamespacesStackEntry> >::_Deque_impl" = type { ptr, i64, %"struct.std::_Deque_iterator.143", %"struct.std::_Deque_iterator.143" }
%"struct.std::_Deque_iterator.143" = type { ptr, ptr, ptr, ptr }
%"class.xalanc_1_8::AttributeListImpl" = type { %"class.xercesc_2_5::AttributeList", %"class.std::vector.144", %"class.std::vector.144" }
%"class.xercesc_2_5::AttributeList" = type { ptr }
%"class.std::vector.144" = type { %"struct.std::_Vector_base.145" }
%"struct.std::_Vector_base.145" = type { %"struct.std::_Vector_base<xalanc_1_8::AttributeVectorEntry *, std::allocator<xalanc_1_8::AttributeVectorEntry *> >::_Vector_impl" }
%"struct.std::_Vector_base<xalanc_1_8::AttributeVectorEntry *, std::allocator<xalanc_1_8::AttributeVectorEntry *> >::_Vector_impl" = type { %"struct.std::_Vector_base<xalanc_1_8::AttributeVectorEntry *, std::allocator<xalanc_1_8::AttributeVectorEntry *> >::_Vector_impl_data" }
%"struct.std::_Vector_base<xalanc_1_8::AttributeVectorEntry *, std::allocator<xalanc_1_8::AttributeVectorEntry *> >::_Vector_impl_data" = type { ptr, ptr, ptr }
%"class.std::vector.149" = type { %"struct.std::_Vector_base.150" }
%"struct.std::_Vector_base.150" = type { %"struct.std::_Vector_base<const xalanc_1_8::XalanDOMString *, std::allocator<const xalanc_1_8::XalanDOMString *> >::_Vector_impl" }
%"struct.std::_Vector_base<const xalanc_1_8::XalanDOMString *, std::allocator<const xalanc_1_8::XalanDOMString *> >::_Vector_impl" = type { %"struct.std::_Vector_base<const xalanc_1_8::XalanDOMString *, std::allocator<const xalanc_1_8::XalanDOMString *> >::_Vector_impl_data" }
%"struct.std::_Vector_base<const xalanc_1_8::XalanDOMString *, std::allocator<const xalanc_1_8::XalanDOMString *> >::_Vector_impl_data" = type { ptr, ptr, ptr }
%"class.xalanc_1_8::XPathConstructionContextDefault" = type { %"class.xalanc_1_8::XPathConstructionContext", %"class.xalanc_1_8::XalanDOMStringPool", %"class.xalanc_1_8::XalanDOMStringCache" }
%"class.xalanc_1_8::Stylesheet" = type { %"class.xalanc_1_8::PrefixResolver", ptr, %"class.xalanc_1_8::XalanDOMString", %"class.std::vector.165", %"class.std::vector.170", %"class.xalanc_1_8::XalanDOMString", %"class.std::vector.175", i64, %"class.std::deque.180", %"class.std::deque.186", i8, %"class.std::map.192", ptr, %"class.std::vector.197", %"class.std::map.202", %"class.std::vector.210", double, %"class.std::map.215", %"struct.std::_Rb_tree_const_iterator", %"class.std::vector.220", %"class.std::map.215", %"struct.std::_Rb_tree_const_iterator", %"class.std::vector.220", %"class.std::vector.220", %"class.std::vector.220", %"class.std::vector.220", %"class.std::vector.220", %"class.std::vector.220", %"class.std::deque.225", i64, %"class.std::vector.231", %"class.xalanc_1_8::NamespacesHandler" }
%"class.std::vector.165" = type { %"struct.std::_Vector_base.166" }
%"struct.std::_Vector_base.166" = type { %"struct.std::_Vector_base<xalanc_1_8::KeyDeclaration, std::allocator<xalanc_1_8::KeyDeclaration> >::_Vector_impl" }
%"struct.std::_Vector_base<xalanc_1_8::KeyDeclaration, std::allocator<xalanc_1_8::KeyDeclaration> >::_Vector_impl" = type { %"struct.std::_Vector_base<xalanc_1_8::KeyDeclaration, std::allocator<xalanc_1_8::KeyDeclaration> >::_Vector_impl_data" }
%"struct.std::_Vector_base<xalanc_1_8::KeyDeclaration, std::allocator<xalanc_1_8::KeyDeclaration> >::_Vector_impl_data" = type { ptr, ptr, ptr }
%"class.std::vector.170" = type { %"struct.std::_Vector_base.171" }
%"struct.std::_Vector_base.171" = type { %"struct.std::_Vector_base<xalanc_1_8::XalanSpaceNodeTester, std::allocator<xalanc_1_8::XalanSpaceNodeTester> >::_Vector_impl" }
%"struct.std::_Vector_base<xalanc_1_8::XalanSpaceNodeTester, std::allocator<xalanc_1_8::XalanSpaceNodeTester> >::_Vector_impl" = type { %"struct.std::_Vector_base<xalanc_1_8::XalanSpaceNodeTester, std::allocator<xalanc_1_8::XalanSpaceNodeTester> >::_Vector_impl_data" }
%"struct.std::_Vector_base<xalanc_1_8::XalanSpaceNodeTester, std::allocator<xalanc_1_8::XalanSpaceNodeTester> >::_Vector_impl_data" = type { ptr, ptr, ptr }
%"class.std::vector.175" = type { %"struct.std::_Vector_base.176" }
%"struct.std::_Vector_base.176" = type { %"struct.std::_Vector_base<xalanc_1_8::Stylesheet *, std::allocator<xalanc_1_8::Stylesheet *> >::_Vector_impl" }
%"struct.std::_Vector_base<xalanc_1_8::Stylesheet *, std::allocator<xalanc_1_8::Stylesheet *> >::_Vector_impl" = type { %"struct.std::_Vector_base<xalanc_1_8::Stylesheet *, std::allocator<xalanc_1_8::Stylesheet *> >::_Vector_impl_data" }
%"struct.std::_Vector_base<xalanc_1_8::Stylesheet *, std::allocator<xalanc_1_8::Stylesheet *> >::_Vector_impl_data" = type { ptr, ptr, ptr }
%"class.std::deque.180" = type { %"class.std::_Deque_base.181" }
%"class.std::_Deque_base.181" = type { %"struct.std::_Deque_base<std::deque<xalanc_1_8::NameSpace>, std::allocator<std::deque<xalanc_1_8::NameSpace> > >::_Deque_impl" }
%"struct.std::_Deque_base<std::deque<xalanc_1_8::NameSpace>, std::allocator<std::deque<xalanc_1_8::NameSpace> > >::_Deque_impl" = type { ptr, i64, %"struct.std::_Deque_iterator.185", %"struct.std::_Deque_iterator.185" }
%"struct.std::_Deque_iterator.185" = type { ptr, ptr, ptr, ptr }
%"class.std::deque.186" = type { %"class.std::_Deque_base.187" }
%"class.std::_Deque_base.187" = type { %"struct.std::_Deque_base<xalanc_1_8::NameSpace, std::allocator<xalanc_1_8::NameSpace> >::_Deque_impl" }
%"struct.std::_Deque_base<xalanc_1_8::NameSpace, std::allocator<xalanc_1_8::NameSpace> >::_Deque_impl" = type { ptr, i64, %"struct.std::_Deque_iterator.191", %"struct.std::_Deque_iterator.191" }
%"struct.std::_Deque_iterator.191" = type { ptr, ptr, ptr, ptr }
%"class.std::map.192" = type { %"class.std::_Rb_tree.193" }
%"class.std::_Rb_tree.193" = type { %"struct.std::_Rb_tree<xalanc_1_8::XalanDOMString, std::pair<const xalanc_1_8::XalanDOMString, xalanc_1_8::ExtensionNSHandler *>, std::_Select1st<std::pair<const xalanc_1_8::XalanDOMString, xalanc_1_8::ExtensionNSHandler *> >, std::less<xalanc_1_8::XalanDOMString> >::_Rb_tree_impl" }
%"struct.std::_Rb_tree<xalanc_1_8::XalanDOMString, std::pair<const xalanc_1_8::XalanDOMString, xalanc_1_8::ExtensionNSHandler *>, std::_Select1st<std::pair<const xalanc_1_8::XalanDOMString, xalanc_1_8::ExtensionNSHandler *> >, std::less<xalanc_1_8::XalanDOMString> >::_Rb_tree_impl" = type { %"struct.std::_Rb_tree_key_compare.159", %"struct.std::_Rb_tree_header" }
%"struct.std::_Rb_tree_key_compare.159" = type { %"struct.std::less.160" }
%"struct.std::less.160" = type { i8 }
%"class.std::vector.197" = type { %"struct.std::_Vector_base.198" }
%"struct.std::_Vector_base.198" = type { %"struct.std::_Vector_base<xalanc_1_8::XalanDOMString, std::allocator<xalanc_1_8::XalanDOMString> >::_Vector_impl" }
%"struct.std::_Vector_base<xalanc_1_8::XalanDOMString, std::allocator<xalanc_1_8::XalanDOMString> >::_Vector_impl" = type { %"struct.std::_Vector_base<xalanc_1_8::XalanDOMString, std::allocator<xalanc_1_8::XalanDOMString> >::_Vector_impl_data" }
%"struct.std::_Vector_base<xalanc_1_8::XalanDOMString, std::allocator<xalanc_1_8::XalanDOMString> >::_Vector_impl_data" = type { ptr, ptr, ptr }
%"class.std::map.202" = type { %"class.std::_Rb_tree.203" }
%"class.std::_Rb_tree.203" = type { %"struct.std::_Rb_tree<xalanc_1_8::XalanQNameByReference, std::pair<const xalanc_1_8::XalanQNameByReference, const xalanc_1_8::ElemTemplate *>, std::_Select1st<std::pair<const xalanc_1_8::XalanQNameByReference, const xalanc_1_8::ElemTemplate *> >, std::less<xalanc_1_8::XalanQName> >::_Rb_tree_impl" }
%"struct.std::_Rb_tree<xalanc_1_8::XalanQNameByReference, std::pair<const xalanc_1_8::XalanQNameByReference, const xalanc_1_8::ElemTemplate *>, std::_Select1st<std::pair<const xalanc_1_8::XalanQNameByReference, const xalanc_1_8::ElemTemplate *> >, std::less<xalanc_1_8::XalanQName> >::_Rb_tree_impl" = type { %"struct.std::_Rb_tree_key_compare.207", %"struct.std::_Rb_tree_header" }
%"struct.std::_Rb_tree_key_compare.207" = type { %"struct.std::less.208" }
%"struct.std::less.208" = type { i8 }
%"class.std::vector.210" = type { %"struct.std::_Vector_base.211" }
%"struct.std::_Vector_base.211" = type { %"struct.std::_Vector_base<xalanc_1_8::ElemVariable *, std::allocator<xalanc_1_8::ElemVariable *> >::_Vector_impl" }
%"struct.std::_Vector_base<xalanc_1_8::ElemVariable *, std::allocator<xalanc_1_8::ElemVariable *> >::_Vector_impl" = type { %"struct.std::_Vector_base<xalanc_1_8::ElemVariable *, std::allocator<xalanc_1_8::ElemVariable *> >::_Vector_impl_data" }
%"struct.std::_Vector_base<xalanc_1_8::ElemVariable *, std::allocator<xalanc_1_8::ElemVariable *> >::_Vector_impl_data" = type { ptr, ptr, ptr }
%"class.std::map.215" = type { %"class.std::_Rb_tree.216" }
%"class.std::_Rb_tree.216" = type { %"struct.std::_Rb_tree<xalanc_1_8::XalanDOMString, std::pair<const xalanc_1_8::XalanDOMString, std::vector<const xalanc_1_8::Stylesheet::MatchPattern2 *> >, std::_Select1st<std::pair<const xalanc_1_8::XalanDOMString, std::vector<const xalanc_1_8::Stylesheet::MatchPattern2 *> > >, std::less<xalanc_1_8::XalanDOMString> >::_Rb_tree_impl" }
%"struct.std::_Rb_tree<xalanc_1_8::XalanDOMString, std::pair<const xalanc_1_8::XalanDOMString, std::vector<const xalanc_1_8::Stylesheet::MatchPattern2 *> >, std::_Select1st<std::pair<const xalanc_1_8::XalanDOMString, std::vector<const xalanc_1_8::Stylesheet::MatchPattern2 *> > >, std::less<xalanc_1_8::XalanDOMString> >::_Rb_tree_impl" = type { %"struct.std::_Rb_tree_key_compare.159", %"struct.std::_Rb_tree_header" }
%"struct.std::_Rb_tree_const_iterator" = type { ptr }
%"class.std::vector.220" = type { %"struct.std::_Vector_base.221" }
%"struct.std::_Vector_base.221" = type { %"struct.std::_Vector_base<const xalanc_1_8::Stylesheet::MatchPattern2 *, std::allocator<const xalanc_1_8::Stylesheet::MatchPattern2 *> >::_Vector_impl" }
%"struct.std::_Vector_base<const xalanc_1_8::Stylesheet::MatchPattern2 *, std::allocator<const xalanc_1_8::Stylesheet::MatchPattern2 *> >::_Vector_impl" = type { %"struct.std::_Vector_base<const xalanc_1_8::Stylesheet::MatchPattern2 *, std::allocator<const xalanc_1_8::Stylesheet::MatchPattern2 *> >::_Vector_impl_data" }
%"struct.std::_Vector_base<const xalanc_1_8::Stylesheet::MatchPattern2 *, std::allocator<const xalanc_1_8::Stylesheet::MatchPattern2 *> >::_Vector_impl_data" = type { ptr, ptr, ptr }
%"class.std::deque.225" = type { %"class.std::_Deque_base.226" }
%"class.std::_Deque_base.226" = type { %"struct.std::_Deque_base<xalanc_1_8::Stylesheet::MatchPattern2, std::allocator<xalanc_1_8::Stylesheet::MatchPattern2> >::_Deque_impl" }
%"struct.std::_Deque_base<xalanc_1_8::Stylesheet::MatchPattern2, std::allocator<xalanc_1_8::Stylesheet::MatchPattern2> >::_Deque_impl" = type { ptr, i64, %"struct.std::_Deque_iterator.230", %"struct.std::_Deque_iterator.230" }
%"struct.std::_Deque_iterator.230" = type { ptr, ptr, ptr, ptr }
%"class.std::vector.231" = type { %"struct.std::_Vector_base.232" }
%"struct.std::_Vector_base.232" = type { %"struct.std::_Vector_base<xalanc_1_8::ElemDecimalFormat *, std::allocator<xalanc_1_8::ElemDecimalFormat *> >::_Vector_impl" }
%"struct.std::_Vector_base<xalanc_1_8::ElemDecimalFormat *, std::allocator<xalanc_1_8::ElemDecimalFormat *> >::_Vector_impl" = type { %"struct.std::_Vector_base<xalanc_1_8::ElemDecimalFormat *, std::allocator<xalanc_1_8::ElemDecimalFormat *> >::_Vector_impl_data" }
%"struct.std::_Vector_base<xalanc_1_8::ElemDecimalFormat *, std::allocator<xalanc_1_8::ElemDecimalFormat *> >::_Vector_impl_data" = type { ptr, ptr, ptr }
%"class.xalanc_1_8::NamespacesHandler" = type { %"class.std::vector.236", %"class.std::vector.241", %"class.std::vector.149", %"class.std::map.246" }
%"class.std::vector.236" = type { %"struct.std::_Vector_base.237" }
%"struct.std::_Vector_base.237" = type { %"struct.std::_Vector_base<xalanc_1_8::NamespacesHandler::Namespace, std::allocator<xalanc_1_8::NamespacesHandler::Namespace> >::_Vector_impl" }
%"struct.std::_Vector_base<xalanc_1_8::NamespacesHandler::Namespace, std::allocator<xalanc_1_8::NamespacesHandler::Namespace> >::_Vector_impl" = type { %"struct.std::_Vector_base<xalanc_1_8::NamespacesHandler::Namespace, std::allocator<xalanc_1_8::NamespacesHandler::Namespace> >::_Vector_impl_data" }
%"struct.std::_Vector_base<xalanc_1_8::NamespacesHandler::Namespace, std::allocator<xalanc_1_8::NamespacesHandler::Namespace> >::_Vector_impl_data" = type { ptr, ptr, ptr }
%"class.std::vector.241" = type { %"struct.std::_Vector_base.242" }
%"struct.std::_Vector_base.242" = type { %"struct.std::_Vector_base<xalanc_1_8::NamespacesHandler::NamespaceExtended, std::allocator<xalanc_1_8::NamespacesHandler::NamespaceExtended> >::_Vector_impl" }
%"struct.std::_Vector_base<xalanc_1_8::NamespacesHandler::NamespaceExtended, std::allocator<xalanc_1_8::NamespacesHandler::NamespaceExtended> >::_Vector_impl" = type { %"struct.std::_Vector_base<xalanc_1_8::NamespacesHandler::NamespaceExtended, std::allocator<xalanc_1_8::NamespacesHandler::NamespaceExtended> >::_Vector_impl_data" }
%"struct.std::_Vector_base<xalanc_1_8::NamespacesHandler::NamespaceExtended, std::allocator<xalanc_1_8::NamespacesHandler::NamespaceExtended> >::_Vector_impl_data" = type { ptr, ptr, ptr }
%"class.std::map.246" = type { %"class.std::_Rb_tree.247" }
%"class.std::_Rb_tree.247" = type { %"struct.std::_Rb_tree<const xalanc_1_8::XalanDOMString *, std::pair<const xalanc_1_8::XalanDOMString *const, const xalanc_1_8::XalanDOMString *>, std::_Select1st<std::pair<const xalanc_1_8::XalanDOMString *const, const xalanc_1_8::XalanDOMString *> >, xalanc_1_8::DOMStringPointerLessThanFunction>::_Rb_tree_impl" }
%"struct.std::_Rb_tree<const xalanc_1_8::XalanDOMString *, std::pair<const xalanc_1_8::XalanDOMString *const, const xalanc_1_8::XalanDOMString *>, std::_Select1st<std::pair<const xalanc_1_8::XalanDOMString *const, const xalanc_1_8::XalanDOMString *> >, xalanc_1_8::DOMStringPointerLessThanFunction>::_Rb_tree_impl" = type { %"struct.std::_Rb_tree_key_compare.251", %"struct.std::_Rb_tree_header" }
%"struct.std::_Rb_tree_key_compare.251" = type { %"struct.xalanc_1_8::DOMStringPointerLessThanFunction" }
%"struct.xalanc_1_8::DOMStringPointerLessThanFunction" = type { i8 }
%"class.xalanc_1_8::StylesheetRoot" = type { %"class.xalanc_1_8::Stylesheet", %"class.xalanc_1_8::XalanDOMString", i8, [7 x i8], %"class.xalanc_1_8::XalanDOMString", %"class.xalanc_1_8::XalanDOMString", %"class.xalanc_1_8::XalanDOMString", %"class.xalanc_1_8::XalanDOMString", i8, [7 x i8], %"class.xalanc_1_8::XalanDOMString", %"class.xalanc_1_8::XalanDOMString", i32, %"class.std::vector.253", i8, %"class.std::vector.197", ptr, ptr, ptr, i8, i8, i32, i8, i64, %"class.std::map.258" }
%"class.std::vector.253" = type { %"struct.std::_Vector_base.254" }
%"struct.std::_Vector_base.254" = type { %"struct.std::_Vector_base<const xalanc_1_8::XalanQName *, std::allocator<const xalanc_1_8::XalanQName *> >::_Vector_impl" }
%"struct.std::_Vector_base<const xalanc_1_8::XalanQName *, std::allocator<const xalanc_1_8::XalanQName *> >::_Vector_impl" = type { %"struct.std::_Vector_base<const xalanc_1_8::XalanQName *, std::allocator<const xalanc_1_8::XalanQName *> >::_Vector_impl_data" }
%"struct.std::_Vector_base<const xalanc_1_8::XalanQName *, std::allocator<const xalanc_1_8::XalanQName *> >::_Vector_impl_data" = type { ptr, ptr, ptr }
%"class.std::map.258" = type { %"class.std::_Rb_tree.259" }
%"class.std::_Rb_tree.259" = type { %"struct.std::_Rb_tree<const xalanc_1_8::XalanQName *, std::pair<const xalanc_1_8::XalanQName *const, std::vector<xalanc_1_8::ElemAttributeSet *> >, std::_Select1st<std::pair<const xalanc_1_8::XalanQName *const, std::vector<xalanc_1_8::ElemAttributeSet *> > >, xalanc_1_8::pointer_less<const xalanc_1_8::XalanQName> >::_Rb_tree_impl" }
%"struct.std::_Rb_tree<const xalanc_1_8::XalanQName *, std::pair<const xalanc_1_8::XalanQName *const, std::vector<xalanc_1_8::ElemAttributeSet *> >, std::_Select1st<std::pair<const xalanc_1_8::XalanQName *const, std::vector<xalanc_1_8::ElemAttributeSet *> > >, xalanc_1_8::pointer_less<const xalanc_1_8::XalanQName> >::_Rb_tree_impl" = type { %"struct.std::_Rb_tree_key_compare.263", %"struct.std::_Rb_tree_header" }
%"struct.std::_Rb_tree_key_compare.263" = type { %"struct.xalanc_1_8::pointer_less" }
%"struct.xalanc_1_8::pointer_less" = type { i8 }
%"class.xalanc_1_8::StringTokenizer" = type { ptr, ptr, i8, i32, i32, i32 }

$__clang_call_terminate = comdat any

$_ZN10xalanc_1_819XalanArrayAllocatorIPKvED2Ev = comdat any

$_ZN10xalanc_1_819XalanArrayAllocatorItED2Ev = comdat any

$_ZN10xalanc_1_810URISupport16getURLFromStringERKNS_14XalanDOMStringES3_ = comdat any

$_ZN10xalanc_1_819XalanArrayAllocatorIPKvE11createEntryEmm = comdat any

$_ZNSt7__cxx114listISt4pairImSt6vectorIPKvSaIS4_EEESaIS7_EE14_M_create_nodeERKS7_ = comdat any

$_ZNSt6vectorIPKvSaIS1_EE14_M_fill_insertEN9__gnu_cxx17__normal_iteratorIPS1_S3_EEmRKS1_ = comdat any

$_ZN10xalanc_1_819XalanArrayAllocatorItE11createEntryEmm = comdat any

$_ZNSt7__cxx114listISt4pairImSt6vectorItSaItEEESaIS5_EE14_M_create_nodeERKS5_ = comdat any

$_ZNSt6vectorItSaItEE14_M_fill_insertEN9__gnu_cxx17__normal_iteratorIPtS1_EEmRKt = comdat any

@_ZTVN10xalanc_1_836StylesheetConstructionContextDefaultE = dso_local unnamed_addr constant { [59 x ptr] } { [59 x ptr] [ptr null, ptr @_ZTIN10xalanc_1_836StylesheetConstructionContextDefaultE, ptr @_ZN10xalanc_1_836StylesheetConstructionContextDefaultD2Ev, ptr @_ZN10xalanc_1_836StylesheetConstructionContextDefaultD0Ev, ptr @_ZN10xalanc_1_836StylesheetConstructionContextDefault5resetEv, ptr @_ZN10xalanc_1_836StylesheetConstructionContextDefault15getPooledStringERKNS_14XalanDOMStringE, ptr @_ZN10xalanc_1_836StylesheetConstructionContextDefault15getPooledStringEPKtj, ptr @_ZN10xalanc_1_836StylesheetConstructionContextDefault15getCachedStringEv, ptr @_ZN10xalanc_1_836StylesheetConstructionContextDefault19releaseCachedStringERNS_14XalanDOMStringE, ptr @_ZNK10xalanc_1_836StylesheetConstructionContextDefault5errorERKNS_14XalanDOMStringEPKNS_9XalanNodeEPKN11xercesc_2_57LocatorE, ptr @_ZNK10xalanc_1_836StylesheetConstructionContextDefault4warnERKNS_14XalanDOMStringEPKNS_9XalanNodeEPKN11xercesc_2_57LocatorE, ptr @_ZN10xalanc_1_836StylesheetConstructionContextDefault6createERKNS_14XalanDOMStringE, ptr @_ZN10xalanc_1_836StylesheetConstructionContextDefault6createERKNS_15XSLTInputSourceE, ptr @_ZN10xalanc_1_836StylesheetConstructionContextDefault6createERNS_14StylesheetRootERKNS_14XalanDOMStringE, ptr @_ZN10xalanc_1_836StylesheetConstructionContextDefault7destroyEPNS_14StylesheetRootE, ptr @_ZN10xalanc_1_836StylesheetConstructionContextDefault16getURLFromStringERKNS_14XalanDOMStringE, ptr @_ZN10xalanc_1_836StylesheetConstructionContextDefault22getURLStringFromStringERKNS_14XalanDOMStringE, ptr @_ZN10xalanc_1_836StylesheetConstructionContextDefault16getURLFromStringERKNS_14XalanDOMStringES3_, ptr @_ZN10xalanc_1_836StylesheetConstructionContextDefault22getURLStringFromStringERKNS_14XalanDOMStringES3_, ptr @_ZNK10xalanc_1_836StylesheetConstructionContextDefault19getXSLTNamespaceURIEv, ptr @_ZN10xalanc_1_836StylesheetConstructionContextDefault18createMatchPatternEPKN11xercesc_2_57LocatorERKNS_14XalanDOMStringERKNS_14PrefixResolverE, ptr @_ZN10xalanc_1_836StylesheetConstructionContextDefault18createMatchPatternEPKN11xercesc_2_57LocatorEPKtRKNS_14PrefixResolverE, ptr @_ZN10xalanc_1_836StylesheetConstructionContextDefault11createXPathEPKN11xercesc_2_57LocatorERKNS_14XalanDOMStringERKNS_14PrefixResolverE, ptr @_ZN10xalanc_1_836StylesheetConstructionContextDefault11createXPathEPKN11xercesc_2_57LocatorEPKtRKNS_14PrefixResolverE, ptr @_ZN10xalanc_1_836StylesheetConstructionContextDefault11createXPathEPKN11xercesc_2_57LocatorEPKtjRKNS_14PrefixResolverE, ptr @_ZNK10xalanc_1_836StylesheetConstructionContextDefault19getLocatorFromStackEv, ptr @_ZN10xalanc_1_836StylesheetConstructionContextDefault18pushLocatorOnStackEPKN11xercesc_2_57LocatorE, ptr @_ZN10xalanc_1_836StylesheetConstructionContextDefault15popLocatorStackEv, ptr @_ZNK10xalanc_1_836StylesheetConstructionContextDefault23getXalanXSLNameSpaceURLEv, ptr @_ZN10xalanc_1_836StylesheetConstructionContextDefault8parseXMLERKNS_14XalanDOMStringEPN11xercesc_2_515DocumentHandlerEPNS_13XalanDocumentE, ptr @_ZN10xalanc_1_836StylesheetConstructionContextDefault19isXMLSpaceAttributeEPKtRKNS_10StylesheetEPKN11xercesc_2_57LocatorE, ptr @_ZN10xalanc_1_836StylesheetConstructionContextDefault30isXSLUseAttributeSetsAttributeEPKtRKNS_10StylesheetEPKN11xercesc_2_57LocatorE, ptr @_ZN10xalanc_1_836StylesheetConstructionContextDefault12isValidQNameEPKtRKNS_10StylesheetEPKN11xercesc_2_57LocatorE, ptr @_ZNK10xalanc_1_836StylesheetConstructionContextDefault15getElementTokenERKNS_14XalanDOMStringE, ptr @_ZNK10xalanc_1_836StylesheetConstructionContextDefault23getXSLTVersionSupportedEv, ptr @_ZN10xalanc_1_836StylesheetConstructionContextDefault26allocateXalanDOMCharVectorEj, ptr @_ZN10xalanc_1_836StylesheetConstructionContextDefault26allocateXalanDOMCharVectorEPKtjb, ptr @_ZN10xalanc_1_836StylesheetConstructionContextDefault9createAVTEPKN11xercesc_2_57LocatorEPKtS6_RKNS_14PrefixResolverE, ptr @_ZN10xalanc_1_836StylesheetConstructionContextDefault13createAVTPartEPKtj, ptr @_ZN10xalanc_1_836StylesheetConstructionContextDefault13createAVTPartEPKN11xercesc_2_57LocatorEPKtjRKNS_14PrefixResolverE, ptr @_ZN10xalanc_1_836StylesheetConstructionContextDefault24allocateAVTPointerVectorEm, ptr @_ZN10xalanc_1_836StylesheetConstructionContextDefault28allocateAVTPartPointerVectorEm, ptr @_ZN10xalanc_1_836StylesheetConstructionContextDefault16createXalanQNameERKNS_14XalanDOMStringERKSt5dequeIS4_INS_9NameSpaceESaIS5_EESaIS7_EEPKN11xercesc_2_57LocatorEb, ptr @_ZN10xalanc_1_836StylesheetConstructionContextDefault16createXalanQNameEPKtRKSt5dequeIS3_INS_9NameSpaceESaIS4_EESaIS6_EEPKN11xercesc_2_57LocatorEb, ptr @_ZN10xalanc_1_836StylesheetConstructionContextDefault14tokenizeQNamesERmPKtRKSt5dequeIS4_INS_9NameSpaceESaIS5_EESaIS7_EEPKN11xercesc_2_57LocatorEb, ptr @_ZN10xalanc_1_836StylesheetConstructionContextDefault13createElementEiRNS_10StylesheetERKN11xercesc_2_513AttributeListEPKNS3_7LocatorE, ptr @_ZN10xalanc_1_836StylesheetConstructionContextDefault13createElementEiRNS_10StylesheetEPKtRKN11xercesc_2_513AttributeListEPKNS5_7LocatorE, ptr @_ZN10xalanc_1_836StylesheetConstructionContextDefault13createElementERNS_10StylesheetEPKtjbbPKN11xercesc_2_57LocatorE, ptr @_ZN10xalanc_1_836StylesheetConstructionContextDefault13createElementERNS_10StylesheetEPKtRKN11xercesc_2_513AttributeListERNS_18ExtensionNSHandlerEPKNS5_7LocatorE, ptr @_ZNK10xalanc_1_836StylesheetConstructionContextDefault5errorERKNS_14XalanDOMStringEPKNS_9XalanNodeEPKNS_19ElemTemplateElementE, ptr @_ZNK10xalanc_1_836StylesheetConstructionContextDefault5errorEPKcPKNS_9XalanNodeEPKNS_19ElemTemplateElementE, ptr @_ZNK10xalanc_1_836StylesheetConstructionContextDefault5errorEPKcPKNS_9XalanNodeEPKN11xercesc_2_57LocatorE, ptr @_ZNK10xalanc_1_836StylesheetConstructionContextDefault4warnERKNS_14XalanDOMStringEPKNS_9XalanNodeEPKNS_19ElemTemplateElementE, ptr @_ZNK10xalanc_1_836StylesheetConstructionContextDefault4warnEPKcPKNS_9XalanNodeEPKNS_19ElemTemplateElementE, ptr @_ZNK10xalanc_1_836StylesheetConstructionContextDefault4warnEPKcPKNS_9XalanNodeEPKN11xercesc_2_57LocatorE, ptr @_ZNK10xalanc_1_836StylesheetConstructionContextDefault7messageERKNS_14XalanDOMStringEPKNS_9XalanNodeEPKNS_19ElemTemplateElementE, ptr @_ZNK10xalanc_1_836StylesheetConstructionContextDefault7messageERKNS_14XalanDOMStringEPKNS_9XalanNodeEPKN11xercesc_2_57LocatorE, ptr @_ZNK10xalanc_1_836StylesheetConstructionContextDefault7messageEPKcPKNS_9XalanNodeEPKNS_19ElemTemplateElementE, ptr @_ZNK10xalanc_1_836StylesheetConstructionContextDefault7messageEPKcPKNS_9XalanNodeEPKN11xercesc_2_57LocatorE] }, align 8, !type !0, !type !1, !type !2, !type !3, !type !4, !type !5, !type !6, !type !7, !type !8, !type !9, !type !10, !type !11, !type !12, !type !13, !type !14, !type !15, !type !16, !type !17, !type !18, !type !19, !type !20, !type !21, !type !22, !type !23, !type !24, !type !25, !type !26, !type !27, !type !28, !type !29, !type !30, !type !31, !type !32, !type !33, !type !34, !type !35, !type !36, !type !37, !type !38, !type !39, !type !40, !type !41, !type !42, !type !43, !type !44, !type !45, !type !46, !type !47, !type !48, !type !49, !type !50, !type !51, !type !52, !type !53, !type !54, !type !55, !type !56, !type !57, !type !58, !type !59, !type !60, !type !61, !type !62, !type !63, !type !64, !type !65, !type !66, !type !67, !type !68, !type !69, !type !70, !type !71, !type !72, !type !73, !type !74, !type !75, !type !76, !type !77, !type !78, !type !79, !type !80, !type !81, !type !82, !type !83, !type !84, !type !85, !type !86, !type !87, !type !88, !type !89, !type !90, !type !91, !type !92, !type !93, !type !94, !type !95, !type !96, !type !97, !type !98, !type !99, !type !100, !type !101, !type !102, !type !103, !type !104, !type !105, !type !106, !type !107, !type !108, !type !109, !type !110, !type !111, !type !112, !type !113, !type !114, !type !115, !type !116, !type !117, !type !118, !type !119, !type !120, !type !121, !type !122, !type !123, !type !124, !type !125, !type !126, !type !127, !type !128, !type !129, !type !130, !type !131, !type !132, !type !133, !type !134, !type !135, !type !136, !type !137, !type !138, !type !139, !type !140, !type !141, !type !142, !type !143, !type !144, !type !145, !type !146, !type !147, !type !148, !type !149, !type !150, !type !151, !type !152, !type !153, !type !154, !type !155, !type !156, !type !157, !type !158, !type !159, !type !160, !type !161, !type !162, !type !163, !type !164, !type !165, !type !166, !type !167
@_ZN10xalanc_1_89Constants25ATTRNAME_USEATTRIBUTESETSE = external local_unnamed_addr constant ptr, align 8
@_ZN10xalanc_1_811DOMServices17s_XMLNamespaceURIE = external local_unnamed_addr constant ptr, align 8
@_ZN10xalanc_1_89Constants14ATTRNAME_SPACEE = external local_unnamed_addr constant ptr, align 8
@_ZN10xalanc_1_836StylesheetConstructionContextDefault23s_elementTokenTableLastE = dso_local local_unnamed_addr constant ptr getelementptr inbounds ([37 x %"struct.xalanc_1_8::StylesheetConstructionContextDefault::ElementTokenTableEntry"], ptr @_ZN10xalanc_1_836StylesheetConstructionContextDefault19s_elementTokenTableE, i64 0, i64 35, i32 0), align 8
@_ZN10xalanc_1_836StylesheetConstructionContextDefault24s_elementTokenTableDummyE = dso_local local_unnamed_addr constant ptr getelementptr inbounds ([37 x %"struct.xalanc_1_8::StylesheetConstructionContextDefault::ElementTokenTableEntry"], ptr @_ZN10xalanc_1_836StylesheetConstructionContextDefault19s_elementTokenTableE, i64 0, i64 36, i32 0), align 8
@_ZN10xalanc_1_815StringTokenizer15s_defaultTokensE = external constant [0 x i16], align 2
@_ZN10xalanc_1_836StylesheetConstructionContextDefault4s_ifE = dso_local constant [3 x i16] [i16 105, i16 102, i16 0], align 2
@_ZN10xalanc_1_836StylesheetConstructionContextDefault5s_keyE = dso_local constant [4 x i16] [i16 107, i16 101, i16 121, i16 0], align 2
@_ZN10xalanc_1_836StylesheetConstructionContextDefault6s_copyE = dso_local constant [5 x i16] [i16 99, i16 111, i16 112, i16 121, i16 0], align 2
@_ZN10xalanc_1_836StylesheetConstructionContextDefault6s_sortE = dso_local constant [5 x i16] [i16 115, i16 111, i16 114, i16 116, i16 0], align 2
@_ZN10xalanc_1_836StylesheetConstructionContextDefault6s_textE = dso_local constant [5 x i16] [i16 116, i16 101, i16 120, i16 116, i16 0], align 2
@_ZN10xalanc_1_836StylesheetConstructionContextDefault6s_whenE = dso_local constant [5 x i16] [i16 119, i16 104, i16 101, i16 110, i16 0], align 2
@_ZN10xalanc_1_836StylesheetConstructionContextDefault7s_emptyE = dso_local constant [6 x i16] [i16 101, i16 109, i16 112, i16 116, i16 121, i16 0], align 2
@_ZN10xalanc_1_836StylesheetConstructionContextDefault7s_paramE = dso_local constant [6 x i16] [i16 112, i16 97, i16 114, i16 97, i16 109, i16 0], align 2
@_ZN10xalanc_1_836StylesheetConstructionContextDefault8s_chooseE = dso_local constant [7 x i16] [i16 99, i16 104, i16 111, i16 111, i16 115, i16 101, i16 0], align 2
@_ZN10xalanc_1_836StylesheetConstructionContextDefault8s_importE = dso_local constant [7 x i16] [i16 105, i16 109, i16 112, i16 111, i16 114, i16 116, i16 0], align 2
@_ZN10xalanc_1_836StylesheetConstructionContextDefault8s_numberE = dso_local constant [7 x i16] [i16 110, i16 117, i16 109, i16 98, i16 101, i16 114, i16 0], align 2
@_ZN10xalanc_1_836StylesheetConstructionContextDefault8s_outputE = dso_local constant [7 x i16] [i16 111, i16 117, i16 116, i16 112, i16 117, i16 116, i16 0], align 2
@_ZN10xalanc_1_836StylesheetConstructionContextDefault9s_commentE = dso_local constant [8 x i16] [i16 99, i16 111, i16 109, i16 109, i16 101, i16 110, i16 116, i16 0], align 16
@_ZN10xalanc_1_836StylesheetConstructionContextDefault8s_copyOfE = dso_local constant [8 x i16] [i16 99, i16 111, i16 112, i16 121, i16 45, i16 111, i16 102, i16 0], align 16
@_ZN10xalanc_1_836StylesheetConstructionContextDefault9s_elementE = dso_local constant [8 x i16] [i16 101, i16 108, i16 101, i16 109, i16 101, i16 110, i16 116, i16 0], align 16
@_ZN10xalanc_1_836StylesheetConstructionContextDefault9s_includeE = dso_local constant [8 x i16] [i16 105, i16 110, i16 99, i16 108, i16 117, i16 100, i16 101, i16 0], align 16
@_ZN10xalanc_1_836StylesheetConstructionContextDefault9s_messageE = dso_local constant [8 x i16] [i16 109, i16 101, i16 115, i16 115, i16 97, i16 103, i16 101, i16 0], align 16
@_ZN10xalanc_1_836StylesheetConstructionContextDefault10s_fallbackE = dso_local constant [9 x i16] [i16 102, i16 97, i16 108, i16 108, i16 98, i16 97, i16 99, i16 107, i16 0], align 16
@_ZN10xalanc_1_836StylesheetConstructionContextDefault9s_forEachE = dso_local constant [9 x i16] [i16 102, i16 111, i16 114, i16 45, i16 101, i16 97, i16 99, i16 104, i16 0], align 16
@_ZN10xalanc_1_836StylesheetConstructionContextDefault10s_templateE = dso_local constant [9 x i16] [i16 116, i16 101, i16 109, i16 112, i16 108, i16 97, i16 116, i16 101, i16 0], align 16
@_ZN10xalanc_1_836StylesheetConstructionContextDefault9s_valueOfE = dso_local constant [9 x i16] [i16 118, i16 97, i16 108, i16 117, i16 101, i16 45, i16 111, i16 102, i16 0], align 16
@_ZN10xalanc_1_836StylesheetConstructionContextDefault10s_variableE = dso_local constant [9 x i16] [i16 118, i16 97, i16 114, i16 105, i16 97, i16 98, i16 108, i16 101, i16 0], align 16
@_ZN10xalanc_1_836StylesheetConstructionContextDefault11s_attributeE = dso_local constant [10 x i16] [i16 97, i16 116, i16 116, i16 114, i16 105, i16 98, i16 117, i16 116, i16 101, i16 0], align 16
@_ZN10xalanc_1_836StylesheetConstructionContextDefault11s_otherwiseE = dso_local constant [10 x i16] [i16 111, i16 116, i16 104, i16 101, i16 114, i16 119, i16 105, i16 115, i16 101, i16 0], align 16
@_ZN10xalanc_1_836StylesheetConstructionContextDefault11s_transformE = dso_local constant [10 x i16] [i16 116, i16 114, i16 97, i16 110, i16 115, i16 102, i16 111, i16 114, i16 109, i16 0], align 16
@_ZN10xalanc_1_836StylesheetConstructionContextDefault12s_stylesheetE = dso_local constant [11 x i16] [i16 115, i16 116, i16 121, i16 108, i16 101, i16 115, i16 104, i16 101, i16 101, i16 116, i16 0], align 16
@_ZN10xalanc_1_836StylesheetConstructionContextDefault11s_withParamE = dso_local constant [11 x i16] [i16 119, i16 105, i16 116, i16 104, i16 45, i16 112, i16 97, i16 114, i16 97, i16 109, i16 0], align 16
@_ZN10xalanc_1_836StylesheetConstructionContextDefault12s_stripSpaceE = dso_local constant [12 x i16] [i16 115, i16 116, i16 114, i16 105, i16 112, i16 45, i16 115, i16 112, i16 97, i16 99, i16 101, i16 0], align 16
@_ZN10xalanc_1_836StylesheetConstructionContextDefault14s_applyImportsE = dso_local constant [14 x i16] [i16 97, i16 112, i16 112, i16 108, i16 121, i16 45, i16 105, i16 109, i16 112, i16 111, i16 114, i16 116, i16 115, i16 0], align 16
@_ZN10xalanc_1_836StylesheetConstructionContextDefault14s_attributeSetE = dso_local constant [14 x i16] [i16 97, i16 116, i16 116, i16 114, i16 105, i16 98, i16 117, i16 116, i16 101, i16 45, i16 115, i16 101, i16 116, i16 0], align 16
@_ZN10xalanc_1_836StylesheetConstructionContextDefault14s_callTemplateE = dso_local constant [14 x i16] [i16 99, i16 97, i16 108, i16 108, i16 45, i16 116, i16 101, i16 109, i16 112, i16 108, i16 97, i16 116, i16 101, i16 0], align 16
@_ZN10xalanc_1_836StylesheetConstructionContextDefault15s_decimalFormatE = dso_local constant [15 x i16] [i16 100, i16 101, i16 99, i16 105, i16 109, i16 97, i16 108, i16 45, i16 102, i16 111, i16 114, i16 109, i16 97, i16 116, i16 0], align 16
@_ZN10xalanc_1_836StylesheetConstructionContextDefault15s_preserveSpaceE = dso_local constant [15 x i16] [i16 112, i16 114, i16 101, i16 115, i16 101, i16 114, i16 118, i16 101, i16 45, i16 115, i16 112, i16 97, i16 99, i16 101, i16 0], align 16
@_ZN10xalanc_1_836StylesheetConstructionContextDefault16s_applyTemplatesE = dso_local constant [16 x i16] [i16 97, i16 112, i16 112, i16 108, i16 121, i16 45, i16 116, i16 101, i16 109, i16 112, i16 108, i16 97, i16 116, i16 101, i16 115, i16 0], align 16
@_ZN10xalanc_1_836StylesheetConstructionContextDefault16s_namespaceAliasE = dso_local constant [16 x i16] [i16 110, i16 97, i16 109, i16 101, i16 115, i16 112, i16 97, i16 99, i16 101, i16 45, i16 97, i16 108, i16 105, i16 97, i16 115, i16 0], align 16
@_ZN10xalanc_1_836StylesheetConstructionContextDefault23s_processingInstructionE = dso_local constant [23 x i16] [i16 112, i16 114, i16 111, i16 99, i16 101, i16 115, i16 115, i16 105, i16 110, i16 103, i16 45, i16 105, i16 110, i16 115, i16 116, i16 114, i16 117, i16 99, i16 116, i16 105, i16 111, i16 110, i16 0], align 16
@_ZN10xalanc_1_836StylesheetConstructionContextDefault19s_elementTokenTableE = dso_local constant [37 x %"struct.xalanc_1_8::StylesheetConstructionContextDefault::ElementTokenTableEntry"] [%"struct.xalanc_1_8::StylesheetConstructionContextDefault::ElementTokenTableEntry" { ptr @_ZN10xalanc_1_836StylesheetConstructionContextDefault4s_ifE, i32 11 }, %"struct.xalanc_1_8::StylesheetConstructionContextDefault::ElementTokenTableEntry" { ptr @_ZN10xalanc_1_836StylesheetConstructionContextDefault5s_keyE, i32 10 }, %"struct.xalanc_1_8::StylesheetConstructionContextDefault::ElementTokenTableEntry" { ptr @_ZN10xalanc_1_836StylesheetConstructionContextDefault6s_copyE, i32 4 }, %"struct.xalanc_1_8::StylesheetConstructionContextDefault::ElementTokenTableEntry" { ptr @_ZN10xalanc_1_836StylesheetConstructionContextDefault6s_sortE, i32 21 }, %"struct.xalanc_1_8::StylesheetConstructionContextDefault::ElementTokenTableEntry" { ptr @_ZN10xalanc_1_836StylesheetConstructionContextDefault6s_textE, i32 24 }, %"struct.xalanc_1_8::StylesheetConstructionContextDefault::ElementTokenTableEntry" { ptr @_ZN10xalanc_1_836StylesheetConstructionContextDefault6s_whenE, i32 26 }, %"struct.xalanc_1_8::StylesheetConstructionContextDefault::ElementTokenTableEntry" { ptr @_ZN10xalanc_1_836StylesheetConstructionContextDefault7s_emptyE, i32 -1 }, %"struct.xalanc_1_8::StylesheetConstructionContextDefault::ElementTokenTableEntry" { ptr @_ZN10xalanc_1_836StylesheetConstructionContextDefault7s_paramE, i32 15 }, %"struct.xalanc_1_8::StylesheetConstructionContextDefault::ElementTokenTableEntry" { ptr @_ZN10xalanc_1_836StylesheetConstructionContextDefault8s_chooseE, i32 2 }, %"struct.xalanc_1_8::StylesheetConstructionContextDefault::ElementTokenTableEntry" { ptr @_ZN10xalanc_1_836StylesheetConstructionContextDefault8s_importE, i32 12 }, %"struct.xalanc_1_8::StylesheetConstructionContextDefault::ElementTokenTableEntry" { ptr @_ZN10xalanc_1_836StylesheetConstructionContextDefault8s_numberE, i32 16 }, %"struct.xalanc_1_8::StylesheetConstructionContextDefault::ElementTokenTableEntry" { ptr @_ZN10xalanc_1_836StylesheetConstructionContextDefault8s_outputE, i32 32 }, %"struct.xalanc_1_8::StylesheetConstructionContextDefault::ElementTokenTableEntry" { ptr @_ZN10xalanc_1_836StylesheetConstructionContextDefault9s_commentE, i32 3 }, %"struct.xalanc_1_8::StylesheetConstructionContextDefault::ElementTokenTableEntry" { ptr @_ZN10xalanc_1_836StylesheetConstructionContextDefault8s_copyOfE, i32 5 }, %"struct.xalanc_1_8::StylesheetConstructionContextDefault::ElementTokenTableEntry" { ptr @_ZN10xalanc_1_836StylesheetConstructionContextDefault9s_elementE, i32 28 }, %"struct.xalanc_1_8::StylesheetConstructionContextDefault::ElementTokenTableEntry" { ptr @_ZN10xalanc_1_836StylesheetConstructionContextDefault9s_includeE, i32 13 }, %"struct.xalanc_1_8::StylesheetConstructionContextDefault::ElementTokenTableEntry" { ptr @_ZN10xalanc_1_836StylesheetConstructionContextDefault9s_messageE, i32 31 }, %"struct.xalanc_1_8::StylesheetConstructionContextDefault::ElementTokenTableEntry" { ptr @_ZN10xalanc_1_836StylesheetConstructionContextDefault10s_fallbackE, i32 27 }, %"struct.xalanc_1_8::StylesheetConstructionContextDefault::ElementTokenTableEntry" { ptr @_ZN10xalanc_1_836StylesheetConstructionContextDefault9s_forEachE, i32 9 }, %"struct.xalanc_1_8::StylesheetConstructionContextDefault::ElementTokenTableEntry" { ptr @_ZN10xalanc_1_836StylesheetConstructionContextDefault10s_templateE, i32 20 }, %"struct.xalanc_1_8::StylesheetConstructionContextDefault::ElementTokenTableEntry" { ptr @_ZN10xalanc_1_836StylesheetConstructionContextDefault9s_valueOfE, i32 25 }, %"struct.xalanc_1_8::StylesheetConstructionContextDefault::ElementTokenTableEntry" { ptr @_ZN10xalanc_1_836StylesheetConstructionContextDefault10s_variableE, i32 30 }, %"struct.xalanc_1_8::StylesheetConstructionContextDefault::ElementTokenTableEntry" { ptr @_ZN10xalanc_1_836StylesheetConstructionContextDefault11s_attributeE, i32 6 }, %"struct.xalanc_1_8::StylesheetConstructionContextDefault::ElementTokenTableEntry" { ptr @_ZN10xalanc_1_836StylesheetConstructionContextDefault11s_otherwiseE, i32 17 }, %"struct.xalanc_1_8::StylesheetConstructionContextDefault::ElementTokenTableEntry" { ptr @_ZN10xalanc_1_836StylesheetConstructionContextDefault11s_transformE, i32 23 }, %"struct.xalanc_1_8::StylesheetConstructionContextDefault::ElementTokenTableEntry" { ptr @_ZN10xalanc_1_836StylesheetConstructionContextDefault12s_stylesheetE, i32 23 }, %"struct.xalanc_1_8::StylesheetConstructionContextDefault::ElementTokenTableEntry" { ptr @_ZN10xalanc_1_836StylesheetConstructionContextDefault11s_withParamE, i32 0 }, %"struct.xalanc_1_8::StylesheetConstructionContextDefault::ElementTokenTableEntry" { ptr @_ZN10xalanc_1_836StylesheetConstructionContextDefault12s_stripSpaceE, i32 22 }, %"struct.xalanc_1_8::StylesheetConstructionContextDefault::ElementTokenTableEntry" { ptr @_ZN10xalanc_1_836StylesheetConstructionContextDefault14s_applyImportsE, i32 29 }, %"struct.xalanc_1_8::StylesheetConstructionContextDefault::ElementTokenTableEntry" { ptr @_ZN10xalanc_1_836StylesheetConstructionContextDefault14s_attributeSetE, i32 7 }, %"struct.xalanc_1_8::StylesheetConstructionContextDefault::ElementTokenTableEntry" { ptr @_ZN10xalanc_1_836StylesheetConstructionContextDefault14s_callTemplateE, i32 14 }, %"struct.xalanc_1_8::StylesheetConstructionContextDefault::ElementTokenTableEntry" { ptr @_ZN10xalanc_1_836StylesheetConstructionContextDefault15s_decimalFormatE, i32 33 }, %"struct.xalanc_1_8::StylesheetConstructionContextDefault::ElementTokenTableEntry" { ptr @_ZN10xalanc_1_836StylesheetConstructionContextDefault15s_preserveSpaceE, i32 19 }, %"struct.xalanc_1_8::StylesheetConstructionContextDefault::ElementTokenTableEntry" { ptr @_ZN10xalanc_1_836StylesheetConstructionContextDefault16s_applyTemplatesE, i32 1 }, %"struct.xalanc_1_8::StylesheetConstructionContextDefault::ElementTokenTableEntry" { ptr @_ZN10xalanc_1_836StylesheetConstructionContextDefault16s_namespaceAliasE, i32 34 }, %"struct.xalanc_1_8::StylesheetConstructionContextDefault::ElementTokenTableEntry" { ptr @_ZN10xalanc_1_836StylesheetConstructionContextDefault23s_processingInstructionE, i32 18 }, %"struct.xalanc_1_8::StylesheetConstructionContextDefault::ElementTokenTableEntry" { ptr null, i32 -2 }], align 16
@_ZN10xalanc_1_836StylesheetConstructionContextDefault23s_elementTokenTableSizeE = dso_local local_unnamed_addr constant i32 37, align 4
@_ZTVN10__cxxabiv120__si_class_type_infoE = external global ptr
@_ZTSN10xalanc_1_836StylesheetConstructionContextDefaultE = dso_local constant [53 x i8] c"N10xalanc_1_836StylesheetConstructionContextDefaultE\00", align 1
@_ZTIN10xalanc_1_829StylesheetConstructionContextE = external constant ptr
@_ZTIN10xalanc_1_836StylesheetConstructionContextDefaultE = dso_local constant { ptr, ptr, ptr } { ptr getelementptr inbounds (ptr, ptr @_ZTVN10__cxxabiv120__si_class_type_infoE, i64 2), ptr @_ZTSN10xalanc_1_836StylesheetConstructionContextDefaultE, ptr @_ZTIN10xalanc_1_829StylesheetConstructionContextE }, align 8
@_ZN10xalanc_1_814XSLTEngineImpl17s_XSLNameSpaceURLE = external local_unnamed_addr constant ptr, align 8
@_ZN10xalanc_1_814XalanDOMString7s_emptyE = external constant i16, align 2
@.str = private unnamed_addr constant [26 x i8] c"vector::_M_realloc_insert\00", align 1
@_ZN10xalanc_1_814XSLTEngineImpl19s_XalanNamespaceURLE = external local_unnamed_addr constant ptr, align 8
@.str.2 = private unnamed_addr constant [23 x i8] c"vector::_M_fill_insert\00", align 1
@.str.3 = private unnamed_addr constant [16 x i8] c"vector::reserve\00", align 1

@_ZN10xalanc_1_836StylesheetConstructionContextDefaultC1ERNS_14XSLTEngineImplERNS_12XPathFactoryEmmmmmm = dso_local unnamed_addr alias void (ptr, ptr, ptr, i64, i64, i64, i64, i64, i64), ptr @_ZN10xalanc_1_836StylesheetConstructionContextDefaultC2ERNS_14XSLTEngineImplERNS_12XPathFactoryEmmmmmm
@_ZN10xalanc_1_836StylesheetConstructionContextDefaultD1Ev = dso_local unnamed_addr alias void (ptr), ptr @_ZN10xalanc_1_836StylesheetConstructionContextDefaultD2Ev

declare i32 @__gxx_personality_v0(...)

; Function Attrs: nobuiltin nounwind
declare void @_ZdlPv(ptr noundef) local_unnamed_addr #0

; Function Attrs: uwtable
define dso_local void @_ZN10xalanc_1_836StylesheetConstructionContextDefaultC2ERNS_14XSLTEngineImplERNS_12XPathFactoryEmmmmmm(ptr noundef nonnull align 8 dereferenceable(1024) %0, ptr noundef nonnull align 8 dereferenceable(936) %1, ptr noundef nonnull align 8 dereferenceable(8) %2, i64 noundef %3, i64 noundef %4, i64 noundef %5, i64 noundef %6, i64 noundef %7, i64 noundef %8) unnamed_addr #1 align 2 personality ptr @__gxx_personality_v0 {
  tail call void @_ZN10xalanc_1_829StylesheetConstructionContextC2Ev(ptr noundef nonnull align 8 dereferenceable(8) %0)
  store ptr getelementptr inbounds ({ [59 x ptr] }, ptr @_ZTVN10xalanc_1_836StylesheetConstructionContextDefaultE, i64 0, inrange i32 0, i64 2), ptr %0, align 8, !tbaa !175
  %10 = getelementptr inbounds %"class.xalanc_1_8::StylesheetConstructionContextDefault", ptr %0, i64 0, i32 1
  store ptr %1, ptr %10, align 8, !tbaa !178
  %11 = getelementptr inbounds %"class.xalanc_1_8::StylesheetConstructionContextDefault", ptr %0, i64 0, i32 2
  store ptr %2, ptr %11, align 8, !tbaa !178
  %12 = getelementptr inbounds %"class.xalanc_1_8::StylesheetConstructionContextDefault", ptr %0, i64 0, i32 3
  %13 = invoke noalias noundef nonnull dereferenceable(184) ptr @_Znwm(i64 noundef 184) #16
          to label %14 unwind label %72

14:                                               ; preds = %9
  invoke void @_ZN10xalanc_1_818XPathProcessorImplC1Ev(ptr noundef nonnull align 8 dereferenceable(184) %13)
          to label %15 unwind label %74

15:                                               ; preds = %14
  store ptr %13, ptr %12, align 8, !tbaa !181
  %16 = getelementptr inbounds %"class.xalanc_1_8::StylesheetConstructionContextDefault", ptr %0, i64 0, i32 4
  tail call void @llvm.memset.p0.i64(ptr noundef nonnull align 8 dereferenceable(24) %16, i8 0, i64 24, i1 false)
  %17 = getelementptr inbounds %"class.xalanc_1_8::StylesheetConstructionContextDefault", ptr %0, i64 0, i32 5
  invoke void @_ZN10xalanc_1_818XalanDOMStringPoolC1Emmm(ptr noundef nonnull align 8 dereferenceable(96) %17, i64 noundef 32, i64 noundef 101, i64 noundef 15)
          to label %18 unwind label %76

18:                                               ; preds = %15
  %19 = getelementptr inbounds %"class.xalanc_1_8::StylesheetConstructionContextDefault", ptr %0, i64 0, i32 6
  %20 = getelementptr inbounds %"class.xalanc_1_8::StylesheetConstructionContextDefault", ptr %0, i64 0, i32 6, i32 0, i32 0, i32 0, i32 0, i32 0, i32 1
  store ptr %19, ptr %20, align 8, !tbaa !183
  store ptr %19, ptr %19, align 8, !tbaa !185
  %21 = getelementptr inbounds %"class.xalanc_1_8::StylesheetConstructionContextDefault", ptr %0, i64 0, i32 6, i32 0, i32 0, i32 0, i32 0, i32 1
  store i64 0, ptr %21, align 8, !tbaa !186
  %22 = getelementptr inbounds %"class.xalanc_1_8::StylesheetConstructionContextDefault", ptr %0, i64 0, i32 6, i32 1
  store i64 %3, ptr %22, align 8, !tbaa !189
  %23 = getelementptr inbounds %"class.xalanc_1_8::StylesheetConstructionContextDefault", ptr %0, i64 0, i32 6, i32 2
  store ptr null, ptr %23, align 8, !tbaa !194
  %24 = getelementptr inbounds %"class.xalanc_1_8::StylesheetConstructionContextDefault", ptr %0, i64 0, i32 7
  invoke void @_ZN10xalanc_1_814XalanDOMStringC1Ev(ptr noundef nonnull align 8 dereferenceable(28) %24)
          to label %25 unwind label %78

25:                                               ; preds = %18
  %26 = getelementptr inbounds %"class.xalanc_1_8::StylesheetConstructionContextDefault", ptr %0, i64 0, i32 8
  invoke void @_ZN10xalanc_1_817XalanQNameByValueC1Ev(ptr noundef nonnull align 8 dereferenceable(72) %26)
          to label %27 unwind label %80

27:                                               ; preds = %25
  %28 = getelementptr inbounds %"class.xalanc_1_8::StylesheetConstructionContextDefault", ptr %0, i64 0, i32 9
  invoke void @_ZN10xalanc_1_819XalanDOMStringCacheC1Ej(ptr noundef nonnull align 8 dereferenceable(52) %28, i32 noundef 100)
          to label %29 unwind label %82

29:                                               ; preds = %27
  %30 = getelementptr inbounds %"class.xalanc_1_8::StylesheetConstructionContextDefault", ptr %0, i64 0, i32 10
  invoke void @_ZN10xalanc_1_817XalanAVTAllocatorC1Em(ptr noundef nonnull align 8 dereferenceable(40) %30, i64 noundef %4)
          to label %31 unwind label %84

31:                                               ; preds = %29
  %32 = getelementptr inbounds %"class.xalanc_1_8::StylesheetConstructionContextDefault", ptr %0, i64 0, i32 11
  invoke void @_ZN10xalanc_1_827XalanAVTPartSimpleAllocatorC1Em(ptr noundef nonnull align 8 dereferenceable(40) %32, i64 noundef %5)
          to label %33 unwind label %86

33:                                               ; preds = %31
  %34 = getelementptr inbounds %"class.xalanc_1_8::StylesheetConstructionContextDefault", ptr %0, i64 0, i32 12
  invoke void @_ZN10xalanc_1_826XalanAVTPartXPathAllocatorC1Em(ptr noundef nonnull align 8 dereferenceable(40) %34, i64 noundef %6)
          to label %35 unwind label %88

35:                                               ; preds = %33
  %36 = getelementptr inbounds %"class.xalanc_1_8::StylesheetConstructionContextDefault", ptr %0, i64 0, i32 13
  invoke void @_ZN10xalanc_1_826XalanQNameByValueAllocatorC1Em(ptr noundef nonnull align 8 dereferenceable(40) %36, i64 noundef %7)
          to label %37 unwind label %90

37:                                               ; preds = %35
  %38 = getelementptr inbounds %"class.xalanc_1_8::StylesheetConstructionContextDefault", ptr %0, i64 0, i32 14
  %39 = load ptr, ptr @_ZN10xalanc_1_814XSLTEngineImpl17s_XSLNameSpaceURLE, align 8, !tbaa !178
  %40 = load ptr, ptr @_ZN10xalanc_1_89Constants25ATTRNAME_USEATTRIBUTESETSE, align 8, !tbaa !178
  invoke void @_ZN10xalanc_1_821XalanQNameByReferenceC1ERKNS_14XalanDOMStringES3_(ptr noundef nonnull align 8 dereferenceable(24) %38, ptr noundef nonnull align 8 dereferenceable(28) %39, ptr noundef nonnull align 8 dereferenceable(28) %40)
          to label %41 unwind label %92

41:                                               ; preds = %37
  %42 = getelementptr inbounds %"class.xalanc_1_8::StylesheetConstructionContextDefault", ptr %0, i64 0, i32 15
  %43 = getelementptr inbounds %"class.xalanc_1_8::StylesheetConstructionContextDefault", ptr %0, i64 0, i32 15, i32 0, i32 0, i32 0, i32 0, i32 0, i32 1
  store ptr %42, ptr %43, align 8, !tbaa !183
  store ptr %42, ptr %42, align 8, !tbaa !185
  %44 = getelementptr inbounds %"class.xalanc_1_8::StylesheetConstructionContextDefault", ptr %0, i64 0, i32 15, i32 0, i32 0, i32 0, i32 0, i32 1
  store i64 0, ptr %44, align 8, !tbaa !186
  %45 = getelementptr inbounds %"class.xalanc_1_8::StylesheetConstructionContextDefault", ptr %0, i64 0, i32 15, i32 1
  store i64 %8, ptr %45, align 8, !tbaa !195
  %46 = getelementptr inbounds %"class.xalanc_1_8::StylesheetConstructionContextDefault", ptr %0, i64 0, i32 15, i32 2
  %47 = getelementptr inbounds %"class.xalanc_1_8::StylesheetConstructionContextDefault", ptr %0, i64 0, i32 16
  %48 = getelementptr inbounds %"class.xalanc_1_8::StylesheetConstructionContextDefault", ptr %0, i64 0, i32 17
  tail call void @llvm.memset.p0.i64(ptr noundef nonnull align 8 dereferenceable(32) %46, i8 0, i64 32, i1 false)
  invoke void @_ZN10xalanc_1_832XalanElemApplyTemplatesAllocatorC1Em(ptr noundef nonnull align 8 dereferenceable(40) %48, i64 noundef 10)
          to label %49 unwind label %94

49:                                               ; preds = %41
  %50 = getelementptr inbounds %"class.xalanc_1_8::StylesheetConstructionContextDefault", ptr %0, i64 0, i32 18
  invoke void @_ZN10xalanc_1_827XalanElemAttributeAllocatorC1Em(ptr noundef nonnull align 8 dereferenceable(40) %50, i64 noundef 10)
          to label %51 unwind label %96

51:                                               ; preds = %49
  %52 = getelementptr inbounds %"class.xalanc_1_8::StylesheetConstructionContextDefault", ptr %0, i64 0, i32 19
  invoke void @_ZN10xalanc_1_830XalanElemAttributeSetAllocatorC1Em(ptr noundef nonnull align 8 dereferenceable(40) %52, i64 noundef 10)
          to label %53 unwind label %98

53:                                               ; preds = %51
  %54 = getelementptr inbounds %"class.xalanc_1_8::StylesheetConstructionContextDefault", ptr %0, i64 0, i32 20
  invoke void @_ZN10xalanc_1_830XalanElemCallTemplateAllocatorC1Em(ptr noundef nonnull align 8 dereferenceable(40) %54, i64 noundef 10)
          to label %55 unwind label %100

55:                                               ; preds = %53
  %56 = getelementptr inbounds %"class.xalanc_1_8::StylesheetConstructionContextDefault", ptr %0, i64 0, i32 21
  invoke void @_ZN10xalanc_1_825XalanElemElementAllocatorC1Em(ptr noundef nonnull align 8 dereferenceable(40) %56, i64 noundef 10)
          to label %57 unwind label %102

57:                                               ; preds = %55
  %58 = getelementptr inbounds %"class.xalanc_1_8::StylesheetConstructionContextDefault", ptr %0, i64 0, i32 22
  invoke void @_ZN10xalanc_1_831XalanElemLiteralResultAllocatorC1Em(ptr noundef nonnull align 8 dereferenceable(40) %58, i64 noundef 20)
          to label %59 unwind label %104

59:                                               ; preds = %57
  %60 = getelementptr inbounds %"class.xalanc_1_8::StylesheetConstructionContextDefault", ptr %0, i64 0, i32 23
  invoke void @_ZN10xalanc_1_826XalanElemTemplateAllocatorC1Em(ptr noundef nonnull align 8 dereferenceable(40) %60, i64 noundef 10)
          to label %61 unwind label %106

61:                                               ; preds = %59
  %62 = getelementptr inbounds %"class.xalanc_1_8::StylesheetConstructionContextDefault", ptr %0, i64 0, i32 24
  invoke void @_ZN10xalanc_1_829XalanElemTextLiteralAllocatorC1Em(ptr noundef nonnull align 8 dereferenceable(40) %62, i64 noundef 20)
          to label %63 unwind label %108

63:                                               ; preds = %61
  %64 = getelementptr inbounds %"class.xalanc_1_8::StylesheetConstructionContextDefault", ptr %0, i64 0, i32 25
  invoke void @_ZN10xalanc_1_825XalanElemValueOfAllocatorC1Em(ptr noundef nonnull align 8 dereferenceable(40) %64, i64 noundef 10)
          to label %65 unwind label %110

65:                                               ; preds = %63
  %66 = getelementptr inbounds %"class.xalanc_1_8::StylesheetConstructionContextDefault", ptr %0, i64 0, i32 26
  invoke void @_ZN10xalanc_1_826XalanElemVariableAllocatorC1Em(ptr noundef nonnull align 8 dereferenceable(40) %66, i64 noundef 10)
          to label %67 unwind label %112

67:                                               ; preds = %65
  %68 = getelementptr inbounds %"class.xalanc_1_8::StylesheetConstructionContextDefault", ptr %0, i64 0, i32 27
  %69 = load ptr, ptr @_ZN10xalanc_1_811DOMServices17s_XMLNamespaceURIE, align 8, !tbaa !178
  %70 = load ptr, ptr @_ZN10xalanc_1_89Constants14ATTRNAME_SPACEE, align 8, !tbaa !178
  invoke void @_ZN10xalanc_1_821XalanQNameByReferenceC1ERKNS_14XalanDOMStringES3_(ptr noundef nonnull align 8 dereferenceable(24) %68, ptr noundef nonnull align 8 dereferenceable(28) %69, ptr noundef nonnull align 8 dereferenceable(28) %70)
          to label %71 unwind label %114

71:                                               ; preds = %67
  ret void

72:                                               ; preds = %9
  %73 = landingpad { ptr, i32 }
          cleanup
  br label %173

74:                                               ; preds = %14
  %75 = landingpad { ptr, i32 }
          cleanup
  tail call void @_ZdlPv(ptr noundef nonnull %13) #17
  br label %173

76:                                               ; preds = %15
  %77 = landingpad { ptr, i32 }
          cleanup
  br label %161

78:                                               ; preds = %18
  %79 = landingpad { ptr, i32 }
          cleanup
  br label %158

80:                                               ; preds = %25
  %81 = landingpad { ptr, i32 }
          cleanup
  br label %153

82:                                               ; preds = %27
  %83 = landingpad { ptr, i32 }
          cleanup
  br label %151

84:                                               ; preds = %29
  %85 = landingpad { ptr, i32 }
          cleanup
  br label %149

86:                                               ; preds = %31
  %87 = landingpad { ptr, i32 }
          cleanup
  br label %147

88:                                               ; preds = %33
  %89 = landingpad { ptr, i32 }
          cleanup
  br label %145

90:                                               ; preds = %35
  %91 = landingpad { ptr, i32 }
          cleanup
  br label %143

92:                                               ; preds = %37
  %93 = landingpad { ptr, i32 }
          cleanup
  br label %141

94:                                               ; preds = %41
  %95 = landingpad { ptr, i32 }
          cleanup
  br label %134

96:                                               ; preds = %49
  %97 = landingpad { ptr, i32 }
          cleanup
  br label %132

98:                                               ; preds = %51
  %99 = landingpad { ptr, i32 }
          cleanup
  br label %130

100:                                              ; preds = %53
  %101 = landingpad { ptr, i32 }
          cleanup
  br label %128

102:                                              ; preds = %55
  %103 = landingpad { ptr, i32 }
          cleanup
  br label %126

104:                                              ; preds = %57
  %105 = landingpad { ptr, i32 }
          cleanup
  br label %124

106:                                              ; preds = %59
  %107 = landingpad { ptr, i32 }
          cleanup
  br label %122

108:                                              ; preds = %61
  %109 = landingpad { ptr, i32 }
          cleanup
  br label %120

110:                                              ; preds = %63
  %111 = landingpad { ptr, i32 }
          cleanup
  br label %118

112:                                              ; preds = %65
  %113 = landingpad { ptr, i32 }
          cleanup
  br label %116

114:                                              ; preds = %67
  %115 = landingpad { ptr, i32 }
          cleanup
  invoke void @_ZN10xalanc_1_826XalanElemVariableAllocatorD1Ev(ptr noundef nonnull align 8 dereferenceable(40) %66)
          to label %116 unwind label %176

116:                                              ; preds = %114, %112
  %117 = phi { ptr, i32 } [ %115, %114 ], [ %113, %112 ]
  invoke void @_ZN10xalanc_1_825XalanElemValueOfAllocatorD1Ev(ptr noundef nonnull align 8 dereferenceable(40) %64)
          to label %118 unwind label %176

118:                                              ; preds = %116, %110
  %119 = phi { ptr, i32 } [ %117, %116 ], [ %111, %110 ]
  invoke void @_ZN10xalanc_1_829XalanElemTextLiteralAllocatorD1Ev(ptr noundef nonnull align 8 dereferenceable(40) %62)
          to label %120 unwind label %176

120:                                              ; preds = %118, %108
  %121 = phi { ptr, i32 } [ %119, %118 ], [ %109, %108 ]
  invoke void @_ZN10xalanc_1_826XalanElemTemplateAllocatorD1Ev(ptr noundef nonnull align 8 dereferenceable(40) %60)
          to label %122 unwind label %176

122:                                              ; preds = %120, %106
  %123 = phi { ptr, i32 } [ %121, %120 ], [ %107, %106 ]
  invoke void @_ZN10xalanc_1_831XalanElemLiteralResultAllocatorD1Ev(ptr noundef nonnull align 8 dereferenceable(40) %58)
          to label %124 unwind label %176

124:                                              ; preds = %122, %104
  %125 = phi { ptr, i32 } [ %123, %122 ], [ %105, %104 ]
  invoke void @_ZN10xalanc_1_825XalanElemElementAllocatorD1Ev(ptr noundef nonnull align 8 dereferenceable(40) %56)
          to label %126 unwind label %176

126:                                              ; preds = %124, %102
  %127 = phi { ptr, i32 } [ %125, %124 ], [ %103, %102 ]
  invoke void @_ZN10xalanc_1_830XalanElemCallTemplateAllocatorD1Ev(ptr noundef nonnull align 8 dereferenceable(40) %54)
          to label %128 unwind label %176

128:                                              ; preds = %126, %100
  %129 = phi { ptr, i32 } [ %127, %126 ], [ %101, %100 ]
  invoke void @_ZN10xalanc_1_830XalanElemAttributeSetAllocatorD1Ev(ptr noundef nonnull align 8 dereferenceable(40) %52)
          to label %130 unwind label %176

130:                                              ; preds = %128, %98
  %131 = phi { ptr, i32 } [ %129, %128 ], [ %99, %98 ]
  invoke void @_ZN10xalanc_1_827XalanElemAttributeAllocatorD1Ev(ptr noundef nonnull align 8 dereferenceable(40) %50)
          to label %132 unwind label %176

132:                                              ; preds = %130, %96
  %133 = phi { ptr, i32 } [ %131, %130 ], [ %97, %96 ]
  invoke void @_ZN10xalanc_1_832XalanElemApplyTemplatesAllocatorD1Ev(ptr noundef nonnull align 8 dereferenceable(40) %48)
          to label %134 unwind label %176

134:                                              ; preds = %132, %94
  %135 = phi { ptr, i32 } [ %133, %132 ], [ %95, %94 ]
  %136 = load ptr, ptr %47, align 8, !tbaa !200
  %137 = icmp eq ptr %136, null
  br i1 %137, label %139, label %138

138:                                              ; preds = %134
  tail call void @_ZdlPv(ptr noundef nonnull %136) #18
  br label %139

139:                                              ; preds = %138, %134
  invoke void @_ZN10xalanc_1_819XalanArrayAllocatorIPKvED2Ev(ptr noundef nonnull align 8 dereferenceable(40) %42)
          to label %140 unwind label %176

140:                                              ; preds = %139
  invoke void @_ZN10xalanc_1_821XalanQNameByReferenceD1Ev(ptr noundef nonnull align 8 dereferenceable(24) %38)
          to label %141 unwind label %176

141:                                              ; preds = %140, %92
  %142 = phi { ptr, i32 } [ %135, %140 ], [ %93, %92 ]
  invoke void @_ZN10xalanc_1_826XalanQNameByValueAllocatorD1Ev(ptr noundef nonnull align 8 dereferenceable(40) %36)
          to label %143 unwind label %176

143:                                              ; preds = %141, %90
  %144 = phi { ptr, i32 } [ %142, %141 ], [ %91, %90 ]
  invoke void @_ZN10xalanc_1_826XalanAVTPartXPathAllocatorD1Ev(ptr noundef nonnull align 8 dereferenceable(40) %34)
          to label %145 unwind label %176

145:                                              ; preds = %143, %88
  %146 = phi { ptr, i32 } [ %144, %143 ], [ %89, %88 ]
  invoke void @_ZN10xalanc_1_827XalanAVTPartSimpleAllocatorD1Ev(ptr noundef nonnull align 8 dereferenceable(40) %32)
          to label %147 unwind label %176

147:                                              ; preds = %145, %86
  %148 = phi { ptr, i32 } [ %146, %145 ], [ %87, %86 ]
  invoke void @_ZN10xalanc_1_817XalanAVTAllocatorD1Ev(ptr noundef nonnull align 8 dereferenceable(40) %30)
          to label %149 unwind label %176

149:                                              ; preds = %147, %84
  %150 = phi { ptr, i32 } [ %148, %147 ], [ %85, %84 ]
  invoke void @_ZN10xalanc_1_819XalanDOMStringCacheD1Ev(ptr noundef nonnull align 8 dereferenceable(52) %28)
          to label %151 unwind label %176

151:                                              ; preds = %149, %82
  %152 = phi { ptr, i32 } [ %150, %149 ], [ %83, %82 ]
  invoke void @_ZN10xalanc_1_817XalanQNameByValueD1Ev(ptr noundef nonnull align 8 dereferenceable(72) %26)
          to label %153 unwind label %176

153:                                              ; preds = %151, %80
  %154 = phi { ptr, i32 } [ %152, %151 ], [ %81, %80 ]
  %155 = load ptr, ptr %24, align 8, !tbaa !202
  %156 = icmp eq ptr %155, null
  br i1 %156, label %158, label %157

157:                                              ; preds = %153
  tail call void @_ZdlPv(ptr noundef nonnull %155) #18
  br label %158

158:                                              ; preds = %157, %153, %78
  %159 = phi { ptr, i32 } [ %79, %78 ], [ %154, %153 ], [ %154, %157 ]
  invoke void @_ZN10xalanc_1_819XalanArrayAllocatorItED2Ev(ptr noundef nonnull align 8 dereferenceable(40) %19)
          to label %160 unwind label %176

160:                                              ; preds = %158
  invoke void @_ZN10xalanc_1_818XalanDOMStringPoolD1Ev(ptr noundef nonnull align 8 dereferenceable(96) %17)
          to label %161 unwind label %176

161:                                              ; preds = %160, %76
  %162 = phi { ptr, i32 } [ %159, %160 ], [ %77, %76 ]
  %163 = load ptr, ptr %16, align 8, !tbaa !204
  %164 = icmp eq ptr %163, null
  br i1 %164, label %166, label %165

165:                                              ; preds = %161
  tail call void @_ZdlPv(ptr noundef nonnull %163) #18
  br label %166

166:                                              ; preds = %165, %161
  %167 = load ptr, ptr %12, align 8, !tbaa !181
  %168 = icmp eq ptr %167, null
  br i1 %168, label %173, label %169

169:                                              ; preds = %166
  %170 = load ptr, ptr %167, align 8, !tbaa !175
  %171 = getelementptr inbounds ptr, ptr %170, i64 1
  %172 = load ptr, ptr %171, align 8
  invoke void %172(ptr noundef nonnull align 8 dereferenceable(8) %167)
          to label %173 unwind label %176

173:                                              ; preds = %166, %169, %74, %72
  %174 = phi { ptr, i32 } [ %75, %74 ], [ %73, %72 ], [ %162, %169 ], [ %162, %166 ]
  invoke void @_ZN10xalanc_1_829StylesheetConstructionContextD2Ev(ptr noundef nonnull align 8 dereferenceable(8) %0)
          to label %175 unwind label %176

175:                                              ; preds = %173
  resume { ptr, i32 } %174

176:                                              ; preds = %169, %173, %160, %158, %151, %149, %147, %145, %143, %141, %140, %139, %132, %130, %128, %126, %124, %122, %120, %118, %116, %114
  %177 = landingpad { ptr, i32 }
          catch ptr null
  %178 = extractvalue { ptr, i32 } %177, 0
  tail call void @__clang_call_terminate(ptr %178) #19
  unreachable
}

declare void @_ZN10xalanc_1_829StylesheetConstructionContextC2Ev(ptr noundef nonnull align 8 dereferenceable(8)) unnamed_addr #2

; Function Attrs: nobuiltin allocsize(0)
declare noundef nonnull ptr @_Znwm(i64 noundef) local_unnamed_addr #3

declare void @_ZN10xalanc_1_818XPathProcessorImplC1Ev(ptr noundef nonnull align 8 dereferenceable(184)) unnamed_addr #2

declare void @_ZN10xalanc_1_818XalanDOMStringPoolC1Emmm(ptr noundef nonnull align 8 dereferenceable(96), i64 noundef, i64 noundef, i64 noundef) unnamed_addr #2

declare void @_ZN10xalanc_1_814XalanDOMStringC1Ev(ptr noundef nonnull align 8 dereferenceable(28)) unnamed_addr #2

declare void @_ZN10xalanc_1_817XalanQNameByValueC1Ev(ptr noundef nonnull align 8 dereferenceable(72)) unnamed_addr #2

declare void @_ZN10xalanc_1_819XalanDOMStringCacheC1Ej(ptr noundef nonnull align 8 dereferenceable(52), i32 noundef) unnamed_addr #2

declare void @_ZN10xalanc_1_817XalanAVTAllocatorC1Em(ptr noundef nonnull align 8 dereferenceable(40), i64 noundef) unnamed_addr #2

declare void @_ZN10xalanc_1_827XalanAVTPartSimpleAllocatorC1Em(ptr noundef nonnull align 8 dereferenceable(40), i64 noundef) unnamed_addr #2

declare void @_ZN10xalanc_1_826XalanAVTPartXPathAllocatorC1Em(ptr noundef nonnull align 8 dereferenceable(40), i64 noundef) unnamed_addr #2

declare void @_ZN10xalanc_1_826XalanQNameByValueAllocatorC1Em(ptr noundef nonnull align 8 dereferenceable(40), i64 noundef) unnamed_addr #2

declare void @_ZN10xalanc_1_821XalanQNameByReferenceC1ERKNS_14XalanDOMStringES3_(ptr noundef nonnull align 8 dereferenceable(24), ptr noundef nonnull align 8 dereferenceable(28), ptr noundef nonnull align 8 dereferenceable(28)) unnamed_addr #2

declare void @_ZN10xalanc_1_832XalanElemApplyTemplatesAllocatorC1Em(ptr noundef nonnull align 8 dereferenceable(40), i64 noundef) unnamed_addr #2

declare void @_ZN10xalanc_1_827XalanElemAttributeAllocatorC1Em(ptr noundef nonnull align 8 dereferenceable(40), i64 noundef) unnamed_addr #2

declare void @_ZN10xalanc_1_830XalanElemAttributeSetAllocatorC1Em(ptr noundef nonnull align 8 dereferenceable(40), i64 noundef) unnamed_addr #2

declare void @_ZN10xalanc_1_830XalanElemCallTemplateAllocatorC1Em(ptr noundef nonnull align 8 dereferenceable(40), i64 noundef) unnamed_addr #2

declare void @_ZN10xalanc_1_825XalanElemElementAllocatorC1Em(ptr noundef nonnull align 8 dereferenceable(40), i64 noundef) unnamed_addr #2

declare void @_ZN10xalanc_1_831XalanElemLiteralResultAllocatorC1Em(ptr noundef nonnull align 8 dereferenceable(40), i64 noundef) unnamed_addr #2

declare void @_ZN10xalanc_1_826XalanElemTemplateAllocatorC1Em(ptr noundef nonnull align 8 dereferenceable(40), i64 noundef) unnamed_addr #2

declare void @_ZN10xalanc_1_829XalanElemTextLiteralAllocatorC1Em(ptr noundef nonnull align 8 dereferenceable(40), i64 noundef) unnamed_addr #2

declare void @_ZN10xalanc_1_825XalanElemValueOfAllocatorC1Em(ptr noundef nonnull align 8 dereferenceable(40), i64 noundef) unnamed_addr #2

declare void @_ZN10xalanc_1_826XalanElemVariableAllocatorC1Em(ptr noundef nonnull align 8 dereferenceable(40), i64 noundef) unnamed_addr #2

declare void @_ZN10xalanc_1_826XalanElemVariableAllocatorD1Ev(ptr noundef nonnull align 8 dereferenceable(40)) unnamed_addr #2

; Function Attrs: noinline noreturn nounwind uwtable
define linkonce_odr hidden void @__clang_call_terminate(ptr noundef %0) local_unnamed_addr #4 comdat {
  %2 = tail call ptr @__cxa_begin_catch(ptr %0) #18
  tail call void @_ZSt9terminatev() #19
  unreachable
}

declare ptr @__cxa_begin_catch(ptr) local_unnamed_addr

declare void @_ZSt9terminatev() local_unnamed_addr

declare void @_ZN10xalanc_1_825XalanElemValueOfAllocatorD1Ev(ptr noundef nonnull align 8 dereferenceable(40)) unnamed_addr #2

declare void @_ZN10xalanc_1_829XalanElemTextLiteralAllocatorD1Ev(ptr noundef nonnull align 8 dereferenceable(40)) unnamed_addr #2

declare void @_ZN10xalanc_1_826XalanElemTemplateAllocatorD1Ev(ptr noundef nonnull align 8 dereferenceable(40)) unnamed_addr #2

declare void @_ZN10xalanc_1_831XalanElemLiteralResultAllocatorD1Ev(ptr noundef nonnull align 8 dereferenceable(40)) unnamed_addr #2

declare void @_ZN10xalanc_1_825XalanElemElementAllocatorD1Ev(ptr noundef nonnull align 8 dereferenceable(40)) unnamed_addr #2

declare void @_ZN10xalanc_1_830XalanElemCallTemplateAllocatorD1Ev(ptr noundef nonnull align 8 dereferenceable(40)) unnamed_addr #2

declare void @_ZN10xalanc_1_830XalanElemAttributeSetAllocatorD1Ev(ptr noundef nonnull align 8 dereferenceable(40)) unnamed_addr #2

declare void @_ZN10xalanc_1_827XalanElemAttributeAllocatorD1Ev(ptr noundef nonnull align 8 dereferenceable(40)) unnamed_addr #2

declare void @_ZN10xalanc_1_832XalanElemApplyTemplatesAllocatorD1Ev(ptr noundef nonnull align 8 dereferenceable(40)) unnamed_addr #2

; Function Attrs: uwtable
define linkonce_odr dso_local void @_ZN10xalanc_1_819XalanArrayAllocatorIPKvED2Ev(ptr noundef nonnull align 8 dereferenceable(40) %0) unnamed_addr #1 comdat align 2 personality ptr @__gxx_personality_v0 {
  %2 = load ptr, ptr %0, align 8, !tbaa !185
  %3 = icmp eq ptr %2, %0
  br i1 %3, label %13, label %4

4:                                                ; preds = %1, %11
  %5 = phi ptr [ %6, %11 ], [ %2, %1 ]
  %6 = load ptr, ptr %5, align 8, !tbaa !185
  %7 = getelementptr inbounds %"struct.std::_List_node", ptr %5, i64 0, i32 1, i32 1
  %8 = load ptr, ptr %7, align 8, !tbaa !206
  %9 = icmp eq ptr %8, null
  br i1 %9, label %11, label %10

10:                                               ; preds = %4
  tail call void @_ZdlPv(ptr noundef nonnull %8) #18
  br label %11

11:                                               ; preds = %10, %4
  tail call void @_ZdlPv(ptr noundef nonnull %5) #18
  %12 = icmp eq ptr %6, %0
  br i1 %12, label %13, label %4

13:                                               ; preds = %11, %1
  ret void
}

declare void @_ZN10xalanc_1_821XalanQNameByReferenceD1Ev(ptr noundef nonnull align 8 dereferenceable(24)) unnamed_addr #2

declare void @_ZN10xalanc_1_826XalanQNameByValueAllocatorD1Ev(ptr noundef nonnull align 8 dereferenceable(40)) unnamed_addr #2

declare void @_ZN10xalanc_1_826XalanAVTPartXPathAllocatorD1Ev(ptr noundef nonnull align 8 dereferenceable(40)) unnamed_addr #2

declare void @_ZN10xalanc_1_827XalanAVTPartSimpleAllocatorD1Ev(ptr noundef nonnull align 8 dereferenceable(40)) unnamed_addr #2

declare void @_ZN10xalanc_1_817XalanAVTAllocatorD1Ev(ptr noundef nonnull align 8 dereferenceable(40)) unnamed_addr #2

declare void @_ZN10xalanc_1_819XalanDOMStringCacheD1Ev(ptr noundef nonnull align 8 dereferenceable(52)) unnamed_addr #2

declare void @_ZN10xalanc_1_817XalanQNameByValueD1Ev(ptr noundef nonnull align 8 dereferenceable(72)) unnamed_addr #2

; Function Attrs: uwtable
define linkonce_odr dso_local void @_ZN10xalanc_1_819XalanArrayAllocatorItED2Ev(ptr noundef nonnull align 8 dereferenceable(40) %0) unnamed_addr #1 comdat align 2 personality ptr @__gxx_personality_v0 {
  %2 = load ptr, ptr %0, align 8, !tbaa !185
  %3 = icmp eq ptr %2, %0
  br i1 %3, label %13, label %4

4:                                                ; preds = %1, %11
  %5 = phi ptr [ %6, %11 ], [ %2, %1 ]
  %6 = load ptr, ptr %5, align 8, !tbaa !185
  %7 = getelementptr inbounds %"struct.std::_List_node.407", ptr %5, i64 0, i32 1, i32 1
  %8 = load ptr, ptr %7, align 8, !tbaa !202
  %9 = icmp eq ptr %8, null
  br i1 %9, label %11, label %10

10:                                               ; preds = %4
  tail call void @_ZdlPv(ptr noundef nonnull %8) #18
  br label %11

11:                                               ; preds = %10, %4
  tail call void @_ZdlPv(ptr noundef nonnull %5) #18
  %12 = icmp eq ptr %6, %0
  br i1 %12, label %13, label %4

13:                                               ; preds = %11, %1
  ret void
}

declare void @_ZN10xalanc_1_818XalanDOMStringPoolD1Ev(ptr noundef nonnull align 8 dereferenceable(96)) unnamed_addr #2

declare void @_ZN10xalanc_1_829StylesheetConstructionContextD2Ev(ptr noundef nonnull align 8 dereferenceable(8)) unnamed_addr #2

; Function Attrs: uwtable
define dso_local void @_ZN10xalanc_1_836StylesheetConstructionContextDefaultD2Ev(ptr noundef nonnull align 8 dereferenceable(1024) %0) unnamed_addr #1 align 2 personality ptr @__gxx_personality_v0 {
  store ptr getelementptr inbounds ({ [59 x ptr] }, ptr @_ZTVN10xalanc_1_836StylesheetConstructionContextDefaultE, i64 0, inrange i32 0, i64 2), ptr %0, align 8, !tbaa !175
  invoke void @_ZN10xalanc_1_836StylesheetConstructionContextDefault5resetEv(ptr noundef nonnull align 8 dereferenceable(1024) %0)
          to label %2 unwind label %90

2:                                                ; preds = %1
  %3 = getelementptr inbounds %"class.xalanc_1_8::StylesheetConstructionContextDefault", ptr %0, i64 0, i32 27
  invoke void @_ZN10xalanc_1_821XalanQNameByReferenceD1Ev(ptr noundef nonnull align 8 dereferenceable(24) %3)
          to label %4 unwind label %93

4:                                                ; preds = %2
  %5 = getelementptr inbounds %"class.xalanc_1_8::StylesheetConstructionContextDefault", ptr %0, i64 0, i32 26
  invoke void @_ZN10xalanc_1_826XalanElemVariableAllocatorD1Ev(ptr noundef nonnull align 8 dereferenceable(40) %5)
          to label %6 unwind label %95

6:                                                ; preds = %4
  %7 = getelementptr inbounds %"class.xalanc_1_8::StylesheetConstructionContextDefault", ptr %0, i64 0, i32 25
  invoke void @_ZN10xalanc_1_825XalanElemValueOfAllocatorD1Ev(ptr noundef nonnull align 8 dereferenceable(40) %7)
          to label %8 unwind label %100

8:                                                ; preds = %6
  %9 = getelementptr inbounds %"class.xalanc_1_8::StylesheetConstructionContextDefault", ptr %0, i64 0, i32 24
  invoke void @_ZN10xalanc_1_829XalanElemTextLiteralAllocatorD1Ev(ptr noundef nonnull align 8 dereferenceable(40) %9)
          to label %10 unwind label %105

10:                                               ; preds = %8
  %11 = getelementptr inbounds %"class.xalanc_1_8::StylesheetConstructionContextDefault", ptr %0, i64 0, i32 23
  invoke void @_ZN10xalanc_1_826XalanElemTemplateAllocatorD1Ev(ptr noundef nonnull align 8 dereferenceable(40) %11)
          to label %12 unwind label %110

12:                                               ; preds = %10
  %13 = getelementptr inbounds %"class.xalanc_1_8::StylesheetConstructionContextDefault", ptr %0, i64 0, i32 22
  invoke void @_ZN10xalanc_1_831XalanElemLiteralResultAllocatorD1Ev(ptr noundef nonnull align 8 dereferenceable(40) %13)
          to label %14 unwind label %115

14:                                               ; preds = %12
  %15 = getelementptr inbounds %"class.xalanc_1_8::StylesheetConstructionContextDefault", ptr %0, i64 0, i32 21
  invoke void @_ZN10xalanc_1_825XalanElemElementAllocatorD1Ev(ptr noundef nonnull align 8 dereferenceable(40) %15)
          to label %16 unwind label %120

16:                                               ; preds = %14
  %17 = getelementptr inbounds %"class.xalanc_1_8::StylesheetConstructionContextDefault", ptr %0, i64 0, i32 20
  invoke void @_ZN10xalanc_1_830XalanElemCallTemplateAllocatorD1Ev(ptr noundef nonnull align 8 dereferenceable(40) %17)
          to label %18 unwind label %125

18:                                               ; preds = %16
  %19 = getelementptr inbounds %"class.xalanc_1_8::StylesheetConstructionContextDefault", ptr %0, i64 0, i32 19
  invoke void @_ZN10xalanc_1_830XalanElemAttributeSetAllocatorD1Ev(ptr noundef nonnull align 8 dereferenceable(40) %19)
          to label %20 unwind label %130

20:                                               ; preds = %18
  %21 = getelementptr inbounds %"class.xalanc_1_8::StylesheetConstructionContextDefault", ptr %0, i64 0, i32 18
  invoke void @_ZN10xalanc_1_827XalanElemAttributeAllocatorD1Ev(ptr noundef nonnull align 8 dereferenceable(40) %21)
          to label %22 unwind label %135

22:                                               ; preds = %20
  %23 = getelementptr inbounds %"class.xalanc_1_8::StylesheetConstructionContextDefault", ptr %0, i64 0, i32 17
  invoke void @_ZN10xalanc_1_832XalanElemApplyTemplatesAllocatorD1Ev(ptr noundef nonnull align 8 dereferenceable(40) %23)
          to label %24 unwind label %140

24:                                               ; preds = %22
  %25 = getelementptr inbounds %"class.xalanc_1_8::StylesheetConstructionContextDefault", ptr %0, i64 0, i32 16
  %26 = load ptr, ptr %25, align 8, !tbaa !200
  %27 = icmp eq ptr %26, null
  br i1 %27, label %29, label %28

28:                                               ; preds = %24
  tail call void @_ZdlPv(ptr noundef nonnull %26) #18
  br label %29

29:                                               ; preds = %28, %24
  %30 = getelementptr inbounds %"class.xalanc_1_8::StylesheetConstructionContextDefault", ptr %0, i64 0, i32 15
  %31 = load ptr, ptr %30, align 8, !tbaa !185
  %32 = icmp eq ptr %31, %30
  br i1 %32, label %42, label %33

33:                                               ; preds = %29, %40
  %34 = phi ptr [ %35, %40 ], [ %31, %29 ]
  %35 = load ptr, ptr %34, align 8, !tbaa !185
  %36 = getelementptr inbounds %"struct.std::_List_node", ptr %34, i64 0, i32 1, i32 1
  %37 = load ptr, ptr %36, align 8, !tbaa !206
  %38 = icmp eq ptr %37, null
  br i1 %38, label %40, label %39

39:                                               ; preds = %33
  tail call void @_ZdlPv(ptr noundef nonnull %37) #18
  br label %40

40:                                               ; preds = %39, %33
  tail call void @_ZdlPv(ptr noundef nonnull %34) #18
  %41 = icmp eq ptr %35, %30
  br i1 %41, label %42, label %33

42:                                               ; preds = %40, %29
  %43 = getelementptr inbounds %"class.xalanc_1_8::StylesheetConstructionContextDefault", ptr %0, i64 0, i32 14
  invoke void @_ZN10xalanc_1_821XalanQNameByReferenceD1Ev(ptr noundef nonnull align 8 dereferenceable(24) %43)
          to label %44 unwind label %153

44:                                               ; preds = %42
  %45 = getelementptr inbounds %"class.xalanc_1_8::StylesheetConstructionContextDefault", ptr %0, i64 0, i32 13
  invoke void @_ZN10xalanc_1_826XalanQNameByValueAllocatorD1Ev(ptr noundef nonnull align 8 dereferenceable(40) %45)
          to label %46 unwind label %157

46:                                               ; preds = %44
  %47 = getelementptr inbounds %"class.xalanc_1_8::StylesheetConstructionContextDefault", ptr %0, i64 0, i32 12
  invoke void @_ZN10xalanc_1_826XalanAVTPartXPathAllocatorD1Ev(ptr noundef nonnull align 8 dereferenceable(40) %47)
          to label %48 unwind label %162

48:                                               ; preds = %46
  %49 = getelementptr inbounds %"class.xalanc_1_8::StylesheetConstructionContextDefault", ptr %0, i64 0, i32 11
  invoke void @_ZN10xalanc_1_827XalanAVTPartSimpleAllocatorD1Ev(ptr noundef nonnull align 8 dereferenceable(40) %49)
          to label %50 unwind label %167

50:                                               ; preds = %48
  %51 = getelementptr inbounds %"class.xalanc_1_8::StylesheetConstructionContextDefault", ptr %0, i64 0, i32 10
  invoke void @_ZN10xalanc_1_817XalanAVTAllocatorD1Ev(ptr noundef nonnull align 8 dereferenceable(40) %51)
          to label %52 unwind label %172

52:                                               ; preds = %50
  %53 = getelementptr inbounds %"class.xalanc_1_8::StylesheetConstructionContextDefault", ptr %0, i64 0, i32 9
  invoke void @_ZN10xalanc_1_819XalanDOMStringCacheD1Ev(ptr noundef nonnull align 8 dereferenceable(52) %53)
          to label %54 unwind label %177

54:                                               ; preds = %52
  %55 = getelementptr inbounds %"class.xalanc_1_8::StylesheetConstructionContextDefault", ptr %0, i64 0, i32 8
  invoke void @_ZN10xalanc_1_817XalanQNameByValueD1Ev(ptr noundef nonnull align 8 dereferenceable(72) %55)
          to label %56 unwind label %182

56:                                               ; preds = %54
  %57 = getelementptr inbounds %"class.xalanc_1_8::StylesheetConstructionContextDefault", ptr %0, i64 0, i32 7
  %58 = load ptr, ptr %57, align 8, !tbaa !202
  %59 = icmp eq ptr %58, null
  br i1 %59, label %61, label %60

60:                                               ; preds = %56
  tail call void @_ZdlPv(ptr noundef nonnull %58) #18
  br label %61

61:                                               ; preds = %60, %56
  %62 = getelementptr inbounds %"class.xalanc_1_8::StylesheetConstructionContextDefault", ptr %0, i64 0, i32 6
  %63 = load ptr, ptr %62, align 8, !tbaa !185
  %64 = icmp eq ptr %63, %62
  br i1 %64, label %74, label %65

65:                                               ; preds = %61, %72
  %66 = phi ptr [ %67, %72 ], [ %63, %61 ]
  %67 = load ptr, ptr %66, align 8, !tbaa !185
  %68 = getelementptr inbounds %"struct.std::_List_node.407", ptr %66, i64 0, i32 1, i32 1
  %69 = load ptr, ptr %68, align 8, !tbaa !202
  %70 = icmp eq ptr %69, null
  br i1 %70, label %72, label %71

71:                                               ; preds = %65
  tail call void @_ZdlPv(ptr noundef nonnull %69) #18
  br label %72

72:                                               ; preds = %71, %65
  tail call void @_ZdlPv(ptr noundef nonnull %66) #18
  %73 = icmp eq ptr %67, %62
  br i1 %73, label %74, label %65

74:                                               ; preds = %72, %61
  %75 = getelementptr inbounds %"class.xalanc_1_8::StylesheetConstructionContextDefault", ptr %0, i64 0, i32 5
  invoke void @_ZN10xalanc_1_818XalanDOMStringPoolD1Ev(ptr noundef nonnull align 8 dereferenceable(96) %75)
          to label %76 unwind label %195

76:                                               ; preds = %74
  %77 = getelementptr inbounds %"class.xalanc_1_8::StylesheetConstructionContextDefault", ptr %0, i64 0, i32 4
  %78 = load ptr, ptr %77, align 8, !tbaa !204
  %79 = icmp eq ptr %78, null
  br i1 %79, label %81, label %80

80:                                               ; preds = %76
  tail call void @_ZdlPv(ptr noundef nonnull %78) #18
  br label %81

81:                                               ; preds = %80, %76
  %82 = getelementptr inbounds %"class.xalanc_1_8::StylesheetConstructionContextDefault", ptr %0, i64 0, i32 3
  %83 = load ptr, ptr %82, align 8, !tbaa !181
  %84 = icmp eq ptr %83, null
  br i1 %84, label %89, label %85

85:                                               ; preds = %81
  %86 = load ptr, ptr %83, align 8, !tbaa !175
  %87 = getelementptr inbounds ptr, ptr %86, i64 1
  %88 = load ptr, ptr %87, align 8
  invoke void %88(ptr noundef nonnull align 8 dereferenceable(8) %83)
          to label %89 unwind label %205

89:                                               ; preds = %81, %85
  tail call void @_ZN10xalanc_1_829StylesheetConstructionContextD2Ev(ptr noundef nonnull align 8 dereferenceable(8) %0)
  ret void

90:                                               ; preds = %1
  %91 = landingpad { ptr, i32 }
          cleanup
  %92 = getelementptr inbounds %"class.xalanc_1_8::StylesheetConstructionContextDefault", ptr %0, i64 0, i32 27
  invoke void @_ZN10xalanc_1_821XalanQNameByReferenceD1Ev(ptr noundef nonnull align 8 dereferenceable(24) %92)
          to label %97 unwind label %218

93:                                               ; preds = %2
  %94 = landingpad { ptr, i32 }
          cleanup
  br label %97

95:                                               ; preds = %4
  %96 = landingpad { ptr, i32 }
          cleanup
  br label %102

97:                                               ; preds = %90, %93
  %98 = phi { ptr, i32 } [ %94, %93 ], [ %91, %90 ]
  %99 = getelementptr inbounds %"class.xalanc_1_8::StylesheetConstructionContextDefault", ptr %0, i64 0, i32 26
  invoke void @_ZN10xalanc_1_826XalanElemVariableAllocatorD1Ev(ptr noundef nonnull align 8 dereferenceable(40) %99)
          to label %102 unwind label %218

100:                                              ; preds = %6
  %101 = landingpad { ptr, i32 }
          cleanup
  br label %107

102:                                              ; preds = %97, %95
  %103 = phi { ptr, i32 } [ %96, %95 ], [ %98, %97 ]
  %104 = getelementptr inbounds %"class.xalanc_1_8::StylesheetConstructionContextDefault", ptr %0, i64 0, i32 25
  invoke void @_ZN10xalanc_1_825XalanElemValueOfAllocatorD1Ev(ptr noundef nonnull align 8 dereferenceable(40) %104)
          to label %107 unwind label %218

105:                                              ; preds = %8
  %106 = landingpad { ptr, i32 }
          cleanup
  br label %112

107:                                              ; preds = %102, %100
  %108 = phi { ptr, i32 } [ %101, %100 ], [ %103, %102 ]
  %109 = getelementptr inbounds %"class.xalanc_1_8::StylesheetConstructionContextDefault", ptr %0, i64 0, i32 24
  invoke void @_ZN10xalanc_1_829XalanElemTextLiteralAllocatorD1Ev(ptr noundef nonnull align 8 dereferenceable(40) %109)
          to label %112 unwind label %218

110:                                              ; preds = %10
  %111 = landingpad { ptr, i32 }
          cleanup
  br label %117

112:                                              ; preds = %107, %105
  %113 = phi { ptr, i32 } [ %106, %105 ], [ %108, %107 ]
  %114 = getelementptr inbounds %"class.xalanc_1_8::StylesheetConstructionContextDefault", ptr %0, i64 0, i32 23
  invoke void @_ZN10xalanc_1_826XalanElemTemplateAllocatorD1Ev(ptr noundef nonnull align 8 dereferenceable(40) %114)
          to label %117 unwind label %218

115:                                              ; preds = %12
  %116 = landingpad { ptr, i32 }
          cleanup
  br label %122

117:                                              ; preds = %112, %110
  %118 = phi { ptr, i32 } [ %111, %110 ], [ %113, %112 ]
  %119 = getelementptr inbounds %"class.xalanc_1_8::StylesheetConstructionContextDefault", ptr %0, i64 0, i32 22
  invoke void @_ZN10xalanc_1_831XalanElemLiteralResultAllocatorD1Ev(ptr noundef nonnull align 8 dereferenceable(40) %119)
          to label %122 unwind label %218

120:                                              ; preds = %14
  %121 = landingpad { ptr, i32 }
          cleanup
  br label %127

122:                                              ; preds = %117, %115
  %123 = phi { ptr, i32 } [ %116, %115 ], [ %118, %117 ]
  %124 = getelementptr inbounds %"class.xalanc_1_8::StylesheetConstructionContextDefault", ptr %0, i64 0, i32 21
  invoke void @_ZN10xalanc_1_825XalanElemElementAllocatorD1Ev(ptr noundef nonnull align 8 dereferenceable(40) %124)
          to label %127 unwind label %218

125:                                              ; preds = %16
  %126 = landingpad { ptr, i32 }
          cleanup
  br label %132

127:                                              ; preds = %122, %120
  %128 = phi { ptr, i32 } [ %121, %120 ], [ %123, %122 ]
  %129 = getelementptr inbounds %"class.xalanc_1_8::StylesheetConstructionContextDefault", ptr %0, i64 0, i32 20
  invoke void @_ZN10xalanc_1_830XalanElemCallTemplateAllocatorD1Ev(ptr noundef nonnull align 8 dereferenceable(40) %129)
          to label %132 unwind label %218

130:                                              ; preds = %18
  %131 = landingpad { ptr, i32 }
          cleanup
  br label %137

132:                                              ; preds = %127, %125
  %133 = phi { ptr, i32 } [ %126, %125 ], [ %128, %127 ]
  %134 = getelementptr inbounds %"class.xalanc_1_8::StylesheetConstructionContextDefault", ptr %0, i64 0, i32 19
  invoke void @_ZN10xalanc_1_830XalanElemAttributeSetAllocatorD1Ev(ptr noundef nonnull align 8 dereferenceable(40) %134)
          to label %137 unwind label %218

135:                                              ; preds = %20
  %136 = landingpad { ptr, i32 }
          cleanup
  br label %142

137:                                              ; preds = %132, %130
  %138 = phi { ptr, i32 } [ %131, %130 ], [ %133, %132 ]
  %139 = getelementptr inbounds %"class.xalanc_1_8::StylesheetConstructionContextDefault", ptr %0, i64 0, i32 18
  invoke void @_ZN10xalanc_1_827XalanElemAttributeAllocatorD1Ev(ptr noundef nonnull align 8 dereferenceable(40) %139)
          to label %142 unwind label %218

140:                                              ; preds = %22
  %141 = landingpad { ptr, i32 }
          cleanup
  br label %145

142:                                              ; preds = %137, %135
  %143 = phi { ptr, i32 } [ %136, %135 ], [ %138, %137 ]
  %144 = getelementptr inbounds %"class.xalanc_1_8::StylesheetConstructionContextDefault", ptr %0, i64 0, i32 17
  invoke void @_ZN10xalanc_1_832XalanElemApplyTemplatesAllocatorD1Ev(ptr noundef nonnull align 8 dereferenceable(40) %144)
          to label %145 unwind label %218

145:                                              ; preds = %142, %140
  %146 = phi { ptr, i32 } [ %141, %140 ], [ %143, %142 ]
  %147 = getelementptr inbounds %"class.xalanc_1_8::StylesheetConstructionContextDefault", ptr %0, i64 0, i32 16
  %148 = load ptr, ptr %147, align 8, !tbaa !200
  %149 = icmp eq ptr %148, null
  br i1 %149, label %151, label %150

150:                                              ; preds = %145
  tail call void @_ZdlPv(ptr noundef nonnull %148) #18
  br label %151

151:                                              ; preds = %150, %145
  %152 = getelementptr inbounds %"class.xalanc_1_8::StylesheetConstructionContextDefault", ptr %0, i64 0, i32 15
  invoke void @_ZN10xalanc_1_819XalanArrayAllocatorIPKvED2Ev(ptr noundef nonnull align 8 dereferenceable(40) %152)
          to label %155 unwind label %218

153:                                              ; preds = %42
  %154 = landingpad { ptr, i32 }
          cleanup
  br label %159

155:                                              ; preds = %151
  %156 = getelementptr inbounds %"class.xalanc_1_8::StylesheetConstructionContextDefault", ptr %0, i64 0, i32 14
  invoke void @_ZN10xalanc_1_821XalanQNameByReferenceD1Ev(ptr noundef nonnull align 8 dereferenceable(24) %156)
          to label %159 unwind label %218

157:                                              ; preds = %44
  %158 = landingpad { ptr, i32 }
          cleanup
  br label %164

159:                                              ; preds = %155, %153
  %160 = phi { ptr, i32 } [ %154, %153 ], [ %146, %155 ]
  %161 = getelementptr inbounds %"class.xalanc_1_8::StylesheetConstructionContextDefault", ptr %0, i64 0, i32 13
  invoke void @_ZN10xalanc_1_826XalanQNameByValueAllocatorD1Ev(ptr noundef nonnull align 8 dereferenceable(40) %161)
          to label %164 unwind label %218

162:                                              ; preds = %46
  %163 = landingpad { ptr, i32 }
          cleanup
  br label %169

164:                                              ; preds = %159, %157
  %165 = phi { ptr, i32 } [ %158, %157 ], [ %160, %159 ]
  %166 = getelementptr inbounds %"class.xalanc_1_8::StylesheetConstructionContextDefault", ptr %0, i64 0, i32 12
  invoke void @_ZN10xalanc_1_826XalanAVTPartXPathAllocatorD1Ev(ptr noundef nonnull align 8 dereferenceable(40) %166)
          to label %169 unwind label %218

167:                                              ; preds = %48
  %168 = landingpad { ptr, i32 }
          cleanup
  br label %174

169:                                              ; preds = %164, %162
  %170 = phi { ptr, i32 } [ %163, %162 ], [ %165, %164 ]
  %171 = getelementptr inbounds %"class.xalanc_1_8::StylesheetConstructionContextDefault", ptr %0, i64 0, i32 11
  invoke void @_ZN10xalanc_1_827XalanAVTPartSimpleAllocatorD1Ev(ptr noundef nonnull align 8 dereferenceable(40) %171)
          to label %174 unwind label %218

172:                                              ; preds = %50
  %173 = landingpad { ptr, i32 }
          cleanup
  br label %179

174:                                              ; preds = %169, %167
  %175 = phi { ptr, i32 } [ %168, %167 ], [ %170, %169 ]
  %176 = getelementptr inbounds %"class.xalanc_1_8::StylesheetConstructionContextDefault", ptr %0, i64 0, i32 10
  invoke void @_ZN10xalanc_1_817XalanAVTAllocatorD1Ev(ptr noundef nonnull align 8 dereferenceable(40) %176)
          to label %179 unwind label %218

177:                                              ; preds = %52
  %178 = landingpad { ptr, i32 }
          cleanup
  br label %184

179:                                              ; preds = %174, %172
  %180 = phi { ptr, i32 } [ %173, %172 ], [ %175, %174 ]
  %181 = getelementptr inbounds %"class.xalanc_1_8::StylesheetConstructionContextDefault", ptr %0, i64 0, i32 9
  invoke void @_ZN10xalanc_1_819XalanDOMStringCacheD1Ev(ptr noundef nonnull align 8 dereferenceable(52) %181)
          to label %184 unwind label %218

182:                                              ; preds = %54
  %183 = landingpad { ptr, i32 }
          cleanup
  br label %187

184:                                              ; preds = %179, %177
  %185 = phi { ptr, i32 } [ %178, %177 ], [ %180, %179 ]
  %186 = getelementptr inbounds %"class.xalanc_1_8::StylesheetConstructionContextDefault", ptr %0, i64 0, i32 8
  invoke void @_ZN10xalanc_1_817XalanQNameByValueD1Ev(ptr noundef nonnull align 8 dereferenceable(72) %186)
          to label %187 unwind label %218

187:                                              ; preds = %184, %182
  %188 = phi { ptr, i32 } [ %183, %182 ], [ %185, %184 ]
  %189 = getelementptr inbounds %"class.xalanc_1_8::StylesheetConstructionContextDefault", ptr %0, i64 0, i32 7
  %190 = load ptr, ptr %189, align 8, !tbaa !202
  %191 = icmp eq ptr %190, null
  br i1 %191, label %193, label %192

192:                                              ; preds = %187
  tail call void @_ZdlPv(ptr noundef nonnull %190) #18
  br label %193

193:                                              ; preds = %192, %187
  %194 = getelementptr inbounds %"class.xalanc_1_8::StylesheetConstructionContextDefault", ptr %0, i64 0, i32 6
  invoke void @_ZN10xalanc_1_819XalanArrayAllocatorItED2Ev(ptr noundef nonnull align 8 dereferenceable(40) %194)
          to label %197 unwind label %218

195:                                              ; preds = %74
  %196 = landingpad { ptr, i32 }
          cleanup
  br label %199

197:                                              ; preds = %193
  %198 = getelementptr inbounds %"class.xalanc_1_8::StylesheetConstructionContextDefault", ptr %0, i64 0, i32 5
  invoke void @_ZN10xalanc_1_818XalanDOMStringPoolD1Ev(ptr noundef nonnull align 8 dereferenceable(96) %198)
          to label %199 unwind label %218

199:                                              ; preds = %197, %195
  %200 = phi { ptr, i32 } [ %196, %195 ], [ %188, %197 ]
  %201 = getelementptr inbounds %"class.xalanc_1_8::StylesheetConstructionContextDefault", ptr %0, i64 0, i32 4
  %202 = load ptr, ptr %201, align 8, !tbaa !204
  %203 = icmp eq ptr %202, null
  br i1 %203, label %207, label %204

204:                                              ; preds = %199
  tail call void @_ZdlPv(ptr noundef nonnull %202) #18
  br label %207

205:                                              ; preds = %85
  %206 = landingpad { ptr, i32 }
          cleanup
  br label %215

207:                                              ; preds = %204, %199
  %208 = getelementptr inbounds %"class.xalanc_1_8::StylesheetConstructionContextDefault", ptr %0, i64 0, i32 3
  %209 = load ptr, ptr %208, align 8, !tbaa !181
  %210 = icmp eq ptr %209, null
  br i1 %210, label %215, label %211

211:                                              ; preds = %207
  %212 = load ptr, ptr %209, align 8, !tbaa !175
  %213 = getelementptr inbounds ptr, ptr %212, i64 1
  %214 = load ptr, ptr %213, align 8
  invoke void %214(ptr noundef nonnull align 8 dereferenceable(8) %209)
          to label %215 unwind label %218

215:                                              ; preds = %207, %211, %205
  %216 = phi { ptr, i32 } [ %206, %205 ], [ %200, %211 ], [ %200, %207 ]
  invoke void @_ZN10xalanc_1_829StylesheetConstructionContextD2Ev(ptr noundef nonnull align 8 dereferenceable(8) %0)
          to label %217 unwind label %218

217:                                              ; preds = %215
  resume { ptr, i32 } %216

218:                                              ; preds = %211, %215, %197, %193, %184, %179, %174, %169, %164, %159, %155, %151, %142, %137, %132, %127, %122, %117, %112, %107, %102, %97, %90
  %219 = landingpad { ptr, i32 }
          catch ptr null
  %220 = extractvalue { ptr, i32 } %219, 0
  tail call void @__clang_call_terminate(ptr %220) #19
  unreachable
}

; Function Attrs: uwtable
define dso_local void @_ZN10xalanc_1_836StylesheetConstructionContextDefaultD0Ev(ptr noundef nonnull align 8 dereferenceable(1024) %0) unnamed_addr #1 align 2 personality ptr @__gxx_personality_v0 {
  invoke void @_ZN10xalanc_1_836StylesheetConstructionContextDefaultD2Ev(ptr noundef nonnull align 8 dereferenceable(1024) %0)
          to label %2 unwind label %3

2:                                                ; preds = %1
  tail call void @_ZdlPv(ptr noundef nonnull %0) #17
  ret void

3:                                                ; preds = %1
  %4 = landingpad { ptr, i32 }
          cleanup
  tail call void @_ZdlPv(ptr noundef nonnull %0) #17
  resume { ptr, i32 } %4
}

; Function Attrs: uwtable
define dso_local void @_ZNK10xalanc_1_836StylesheetConstructionContextDefault5errorERKNS_14XalanDOMStringEPKNS_9XalanNodeEPKNS_19ElemTemplateElementE(ptr nocapture noundef nonnull readonly align 8 dereferenceable(1024) %0, ptr noundef nonnull align 8 dereferenceable(28) %1, ptr noundef %2, ptr noundef %3) unnamed_addr #1 align 2 {
  %5 = getelementptr inbounds %"class.xalanc_1_8::StylesheetConstructionContextDefault", ptr %0, i64 0, i32 1
  %6 = load ptr, ptr %5, align 8, !tbaa !208
  %7 = load ptr, ptr %6, align 8, !tbaa !175
  %8 = getelementptr inbounds ptr, ptr %7, i64 33
  %9 = load ptr, ptr %8, align 8
  tail call void %9(ptr noundef nonnull align 8 dereferenceable(936) %6, ptr noundef nonnull align 8 dereferenceable(28) %1, ptr noundef %2, ptr noundef %3)
  ret void
}

; Function Attrs: uwtable
define dso_local void @_ZNK10xalanc_1_836StylesheetConstructionContextDefault5errorERKNS_14XalanDOMStringEPKNS_9XalanNodeEPKN11xercesc_2_57LocatorE(ptr nocapture noundef nonnull readonly align 8 dereferenceable(1024) %0, ptr noundef nonnull align 8 dereferenceable(28) %1, ptr noundef %2, ptr noundef %3) unnamed_addr #1 align 2 {
  %5 = icmp eq ptr %3, null
  %6 = getelementptr inbounds %"class.xalanc_1_8::StylesheetConstructionContextDefault", ptr %0, i64 0, i32 1
  %7 = load ptr, ptr %6, align 8, !tbaa !208
  %8 = load ptr, ptr %7, align 8, !tbaa !175
  br i1 %5, label %12, label %9

9:                                                ; preds = %4
  %10 = getelementptr inbounds ptr, ptr %8, i64 34
  %11 = load ptr, ptr %10, align 8
  tail call void %11(ptr noundef nonnull align 8 dereferenceable(936) %7, ptr noundef nonnull align 8 dereferenceable(28) %1, ptr noundef nonnull align 8 dereferenceable(8) %3, ptr noundef %2)
  br label %15

12:                                               ; preds = %4
  %13 = getelementptr inbounds ptr, ptr %8, i64 33
  %14 = load ptr, ptr %13, align 8
  tail call void %14(ptr noundef nonnull align 8 dereferenceable(936) %7, ptr noundef nonnull align 8 dereferenceable(28) %1, ptr noundef %2, ptr noundef null)
  br label %15

15:                                               ; preds = %12, %9
  ret void
}

; Function Attrs: uwtable
define dso_local void @_ZNK10xalanc_1_836StylesheetConstructionContextDefault5errorEPKcPKNS_9XalanNodeEPKNS_19ElemTemplateElementE(ptr noundef nonnull align 8 dereferenceable(1024) %0, ptr noundef %1, ptr noundef %2, ptr noundef %3) unnamed_addr #1 align 2 personality ptr @__gxx_personality_v0 {
  %5 = alloca %"class.xalanc_1_8::XalanDOMString", align 8
  call void @llvm.lifetime.start.p0(i64 32, ptr nonnull %5) #18
  call void @_ZN10xalanc_1_814XalanDOMStringC1EPKcj(ptr noundef nonnull align 8 dereferenceable(28) %5, ptr noundef %1, i32 noundef -1)
  %6 = load ptr, ptr %0, align 8, !tbaa !175
  %7 = getelementptr inbounds ptr, ptr %6, i64 47
  %8 = load ptr, ptr %7, align 8
  invoke void %8(ptr noundef nonnull align 8 dereferenceable(1024) %0, ptr noundef nonnull align 8 dereferenceable(28) %5, ptr noundef %2, ptr noundef %3)
          to label %9 unwind label %14

9:                                                ; preds = %4
  %10 = load ptr, ptr %5, align 8, !tbaa !202
  %11 = icmp eq ptr %10, null
  br i1 %11, label %13, label %12

12:                                               ; preds = %9
  call void @_ZdlPv(ptr noundef nonnull %10) #18
  br label %13

13:                                               ; preds = %9, %12
  call void @llvm.lifetime.end.p0(i64 32, ptr nonnull %5) #18
  ret void

14:                                               ; preds = %4
  %15 = landingpad { ptr, i32 }
          cleanup
  %16 = load ptr, ptr %5, align 8, !tbaa !202
  %17 = icmp eq ptr %16, null
  br i1 %17, label %19, label %18

18:                                               ; preds = %14
  call void @_ZdlPv(ptr noundef nonnull %16) #18
  br label %19

19:                                               ; preds = %18, %14
  call void @llvm.lifetime.end.p0(i64 32, ptr nonnull %5) #18
  resume { ptr, i32 } %15
}

; Function Attrs: mustprogress nocallback nofree nosync nounwind willreturn memory(argmem: readwrite)
declare void @llvm.lifetime.start.p0(i64 immarg, ptr nocapture) #5

; Function Attrs: mustprogress nocallback nofree nosync nounwind willreturn memory(argmem: readwrite)
declare void @llvm.lifetime.end.p0(i64 immarg, ptr nocapture) #5

; Function Attrs: uwtable
define dso_local void @_ZNK10xalanc_1_836StylesheetConstructionContextDefault5errorEPKcPKNS_9XalanNodeEPKN11xercesc_2_57LocatorE(ptr noundef nonnull align 8 dereferenceable(1024) %0, ptr noundef %1, ptr noundef %2, ptr noundef %3) unnamed_addr #1 align 2 personality ptr @__gxx_personality_v0 {
  %5 = alloca %"class.xalanc_1_8::XalanDOMString", align 8
  call void @llvm.lifetime.start.p0(i64 32, ptr nonnull %5) #18
  call void @_ZN10xalanc_1_814XalanDOMStringC1EPKcj(ptr noundef nonnull align 8 dereferenceable(28) %5, ptr noundef %1, i32 noundef -1)
  %6 = load ptr, ptr %0, align 8, !tbaa !175
  %7 = getelementptr inbounds ptr, ptr %6, i64 7
  %8 = load ptr, ptr %7, align 8
  invoke void %8(ptr noundef nonnull align 8 dereferenceable(1024) %0, ptr noundef nonnull align 8 dereferenceable(28) %5, ptr noundef %2, ptr noundef %3)
          to label %9 unwind label %14

9:                                                ; preds = %4
  %10 = load ptr, ptr %5, align 8, !tbaa !202
  %11 = icmp eq ptr %10, null
  br i1 %11, label %13, label %12

12:                                               ; preds = %9
  call void @_ZdlPv(ptr noundef nonnull %10) #18
  br label %13

13:                                               ; preds = %9, %12
  call void @llvm.lifetime.end.p0(i64 32, ptr nonnull %5) #18
  ret void

14:                                               ; preds = %4
  %15 = landingpad { ptr, i32 }
          cleanup
  %16 = load ptr, ptr %5, align 8, !tbaa !202
  %17 = icmp eq ptr %16, null
  br i1 %17, label %19, label %18

18:                                               ; preds = %14
  call void @_ZdlPv(ptr noundef nonnull %16) #18
  br label %19

19:                                               ; preds = %18, %14
  call void @llvm.lifetime.end.p0(i64 32, ptr nonnull %5) #18
  resume { ptr, i32 } %15
}

; Function Attrs: uwtable
define dso_local void @_ZNK10xalanc_1_836StylesheetConstructionContextDefault4warnERKNS_14XalanDOMStringEPKNS_9XalanNodeEPKNS_19ElemTemplateElementE(ptr nocapture noundef nonnull readonly align 8 dereferenceable(1024) %0, ptr noundef nonnull align 8 dereferenceable(28) %1, ptr noundef %2, ptr noundef %3) unnamed_addr #1 align 2 {
  %5 = getelementptr inbounds %"class.xalanc_1_8::StylesheetConstructionContextDefault", ptr %0, i64 0, i32 1
  %6 = load ptr, ptr %5, align 8, !tbaa !208
  %7 = load ptr, ptr %6, align 8, !tbaa !175
  %8 = getelementptr inbounds ptr, ptr %7, i64 31
  %9 = load ptr, ptr %8, align 8
  tail call void %9(ptr noundef nonnull align 8 dereferenceable(936) %6, ptr noundef nonnull align 8 dereferenceable(28) %1, ptr noundef %2, ptr noundef %3)
  ret void
}

; Function Attrs: uwtable
define dso_local void @_ZNK10xalanc_1_836StylesheetConstructionContextDefault4warnERKNS_14XalanDOMStringEPKNS_9XalanNodeEPKN11xercesc_2_57LocatorE(ptr nocapture noundef nonnull readonly align 8 dereferenceable(1024) %0, ptr noundef nonnull align 8 dereferenceable(28) %1, ptr noundef %2, ptr noundef %3) unnamed_addr #1 align 2 {
  %5 = icmp eq ptr %3, null
  %6 = getelementptr inbounds %"class.xalanc_1_8::StylesheetConstructionContextDefault", ptr %0, i64 0, i32 1
  %7 = load ptr, ptr %6, align 8, !tbaa !208
  %8 = load ptr, ptr %7, align 8, !tbaa !175
  br i1 %5, label %12, label %9

9:                                                ; preds = %4
  %10 = getelementptr inbounds ptr, ptr %8, i64 32
  %11 = load ptr, ptr %10, align 8
  tail call void %11(ptr noundef nonnull align 8 dereferenceable(936) %7, ptr noundef nonnull align 8 dereferenceable(28) %1, ptr noundef nonnull align 8 dereferenceable(8) %3, ptr noundef %2)
  br label %15

12:                                               ; preds = %4
  %13 = getelementptr inbounds ptr, ptr %8, i64 31
  %14 = load ptr, ptr %13, align 8
  tail call void %14(ptr noundef nonnull align 8 dereferenceable(936) %7, ptr noundef nonnull align 8 dereferenceable(28) %1, ptr noundef %2, ptr noundef null)
  br label %15

15:                                               ; preds = %12, %9
  ret void
}

; Function Attrs: uwtable
define dso_local void @_ZNK10xalanc_1_836StylesheetConstructionContextDefault4warnEPKcPKNS_9XalanNodeEPKNS_19ElemTemplateElementE(ptr noundef nonnull align 8 dereferenceable(1024) %0, ptr noundef %1, ptr noundef %2, ptr noundef %3) unnamed_addr #1 align 2 personality ptr @__gxx_personality_v0 {
  %5 = alloca %"class.xalanc_1_8::XalanDOMString", align 8
  call void @llvm.lifetime.start.p0(i64 32, ptr nonnull %5) #18
  call void @_ZN10xalanc_1_814XalanDOMStringC1EPKcj(ptr noundef nonnull align 8 dereferenceable(28) %5, ptr noundef %1, i32 noundef -1)
  %6 = load ptr, ptr %0, align 8, !tbaa !175
  %7 = getelementptr inbounds ptr, ptr %6, i64 50
  %8 = load ptr, ptr %7, align 8
  invoke void %8(ptr noundef nonnull align 8 dereferenceable(1024) %0, ptr noundef nonnull align 8 dereferenceable(28) %5, ptr noundef %2, ptr noundef %3)
          to label %9 unwind label %14

9:                                                ; preds = %4
  %10 = load ptr, ptr %5, align 8, !tbaa !202
  %11 = icmp eq ptr %10, null
  br i1 %11, label %13, label %12

12:                                               ; preds = %9
  call void @_ZdlPv(ptr noundef nonnull %10) #18
  br label %13

13:                                               ; preds = %9, %12
  call void @llvm.lifetime.end.p0(i64 32, ptr nonnull %5) #18
  ret void

14:                                               ; preds = %4
  %15 = landingpad { ptr, i32 }
          cleanup
  %16 = load ptr, ptr %5, align 8, !tbaa !202
  %17 = icmp eq ptr %16, null
  br i1 %17, label %19, label %18

18:                                               ; preds = %14
  call void @_ZdlPv(ptr noundef nonnull %16) #18
  br label %19

19:                                               ; preds = %18, %14
  call void @llvm.lifetime.end.p0(i64 32, ptr nonnull %5) #18
  resume { ptr, i32 } %15
}

; Function Attrs: uwtable
define dso_local void @_ZNK10xalanc_1_836StylesheetConstructionContextDefault4warnEPKcPKNS_9XalanNodeEPKN11xercesc_2_57LocatorE(ptr noundef nonnull align 8 dereferenceable(1024) %0, ptr noundef %1, ptr noundef %2, ptr noundef %3) unnamed_addr #1 align 2 personality ptr @__gxx_personality_v0 {
  %5 = alloca %"class.xalanc_1_8::XalanDOMString", align 8
  call void @llvm.lifetime.start.p0(i64 32, ptr nonnull %5) #18
  call void @_ZN10xalanc_1_814XalanDOMStringC1EPKcj(ptr noundef nonnull align 8 dereferenceable(28) %5, ptr noundef %1, i32 noundef -1)
  %6 = load ptr, ptr %0, align 8, !tbaa !175
  %7 = getelementptr inbounds ptr, ptr %6, i64 8
  %8 = load ptr, ptr %7, align 8
  invoke void %8(ptr noundef nonnull align 8 dereferenceable(1024) %0, ptr noundef nonnull align 8 dereferenceable(28) %5, ptr noundef %2, ptr noundef %3)
          to label %9 unwind label %14

9:                                                ; preds = %4
  %10 = load ptr, ptr %5, align 8, !tbaa !202
  %11 = icmp eq ptr %10, null
  br i1 %11, label %13, label %12

12:                                               ; preds = %9
  call void @_ZdlPv(ptr noundef nonnull %10) #18
  br label %13

13:                                               ; preds = %9, %12
  call void @llvm.lifetime.end.p0(i64 32, ptr nonnull %5) #18
  ret void

14:                                               ; preds = %4
  %15 = landingpad { ptr, i32 }
          cleanup
  %16 = load ptr, ptr %5, align 8, !tbaa !202
  %17 = icmp eq ptr %16, null
  br i1 %17, label %19, label %18

18:                                               ; preds = %14
  call void @_ZdlPv(ptr noundef nonnull %16) #18
  br label %19

19:                                               ; preds = %18, %14
  call void @llvm.lifetime.end.p0(i64 32, ptr nonnull %5) #18
  resume { ptr, i32 } %15
}

; Function Attrs: uwtable
define dso_local void @_ZNK10xalanc_1_836StylesheetConstructionContextDefault7messageERKNS_14XalanDOMStringEPKNS_9XalanNodeEPKNS_19ElemTemplateElementE(ptr nocapture noundef nonnull readonly align 8 dereferenceable(1024) %0, ptr noundef nonnull align 8 dereferenceable(28) %1, ptr noundef %2, ptr noundef %3) unnamed_addr #1 align 2 {
  %5 = getelementptr inbounds %"class.xalanc_1_8::StylesheetConstructionContextDefault", ptr %0, i64 0, i32 1
  %6 = load ptr, ptr %5, align 8, !tbaa !208
  %7 = load ptr, ptr %6, align 8, !tbaa !175
  %8 = getelementptr inbounds ptr, ptr %7, i64 29
  %9 = load ptr, ptr %8, align 8
  tail call void %9(ptr noundef nonnull align 8 dereferenceable(936) %6, ptr noundef nonnull align 8 dereferenceable(28) %1, ptr noundef %2, ptr noundef %3)
  ret void
}

; Function Attrs: uwtable
define dso_local void @_ZNK10xalanc_1_836StylesheetConstructionContextDefault7messageERKNS_14XalanDOMStringEPKNS_9XalanNodeEPKN11xercesc_2_57LocatorE(ptr nocapture noundef nonnull readonly align 8 dereferenceable(1024) %0, ptr noundef nonnull align 8 dereferenceable(28) %1, ptr noundef %2, ptr noundef %3) unnamed_addr #1 align 2 {
  %5 = icmp eq ptr %3, null
  %6 = getelementptr inbounds %"class.xalanc_1_8::StylesheetConstructionContextDefault", ptr %0, i64 0, i32 1
  %7 = load ptr, ptr %6, align 8, !tbaa !208
  %8 = load ptr, ptr %7, align 8, !tbaa !175
  br i1 %5, label %12, label %9

9:                                                ; preds = %4
  %10 = getelementptr inbounds ptr, ptr %8, i64 30
  %11 = load ptr, ptr %10, align 8
  tail call void %11(ptr noundef nonnull align 8 dereferenceable(936) %7, ptr noundef nonnull align 8 dereferenceable(28) %1, ptr noundef nonnull align 8 dereferenceable(8) %3, ptr noundef %2)
  br label %15

12:                                               ; preds = %4
  %13 = getelementptr inbounds ptr, ptr %8, i64 29
  %14 = load ptr, ptr %13, align 8
  tail call void %14(ptr noundef nonnull align 8 dereferenceable(936) %7, ptr noundef nonnull align 8 dereferenceable(28) %1, ptr noundef %2, ptr noundef null)
  br label %15

15:                                               ; preds = %12, %9
  ret void
}

; Function Attrs: uwtable
define dso_local void @_ZNK10xalanc_1_836StylesheetConstructionContextDefault7messageEPKcPKNS_9XalanNodeEPKNS_19ElemTemplateElementE(ptr noundef nonnull align 8 dereferenceable(1024) %0, ptr noundef %1, ptr noundef %2, ptr noundef %3) unnamed_addr #1 align 2 personality ptr @__gxx_personality_v0 {
  %5 = alloca %"class.xalanc_1_8::XalanDOMString", align 8
  call void @llvm.lifetime.start.p0(i64 32, ptr nonnull %5) #18
  call void @_ZN10xalanc_1_814XalanDOMStringC1EPKcj(ptr noundef nonnull align 8 dereferenceable(28) %5, ptr noundef %1, i32 noundef -1)
  %6 = load ptr, ptr %0, align 8, !tbaa !175
  %7 = getelementptr inbounds ptr, ptr %6, i64 53
  %8 = load ptr, ptr %7, align 8
  invoke void %8(ptr noundef nonnull align 8 dereferenceable(1024) %0, ptr noundef nonnull align 8 dereferenceable(28) %5, ptr noundef %2, ptr noundef %3)
          to label %9 unwind label %14

9:                                                ; preds = %4
  %10 = load ptr, ptr %5, align 8, !tbaa !202
  %11 = icmp eq ptr %10, null
  br i1 %11, label %13, label %12

12:                                               ; preds = %9
  call void @_ZdlPv(ptr noundef nonnull %10) #18
  br label %13

13:                                               ; preds = %9, %12
  call void @llvm.lifetime.end.p0(i64 32, ptr nonnull %5) #18
  ret void

14:                                               ; preds = %4
  %15 = landingpad { ptr, i32 }
          cleanup
  %16 = load ptr, ptr %5, align 8, !tbaa !202
  %17 = icmp eq ptr %16, null
  br i1 %17, label %19, label %18

18:                                               ; preds = %14
  call void @_ZdlPv(ptr noundef nonnull %16) #18
  br label %19

19:                                               ; preds = %18, %14
  call void @llvm.lifetime.end.p0(i64 32, ptr nonnull %5) #18
  resume { ptr, i32 } %15
}

; Function Attrs: uwtable
define dso_local void @_ZNK10xalanc_1_836StylesheetConstructionContextDefault7messageEPKcPKNS_9XalanNodeEPKN11xercesc_2_57LocatorE(ptr noundef nonnull align 8 dereferenceable(1024) %0, ptr noundef %1, ptr noundef %2, ptr noundef %3) unnamed_addr #1 align 2 personality ptr @__gxx_personality_v0 {
  %5 = alloca %"class.xalanc_1_8::XalanDOMString", align 8
  call void @llvm.lifetime.start.p0(i64 32, ptr nonnull %5) #18
  call void @_ZN10xalanc_1_814XalanDOMStringC1EPKcj(ptr noundef nonnull align 8 dereferenceable(28) %5, ptr noundef %1, i32 noundef -1)
  %6 = load ptr, ptr %0, align 8, !tbaa !175
  %7 = getelementptr inbounds ptr, ptr %6, i64 54
  %8 = load ptr, ptr %7, align 8
  invoke void %8(ptr noundef nonnull align 8 dereferenceable(1024) %0, ptr noundef nonnull align 8 dereferenceable(28) %5, ptr noundef %2, ptr noundef %3)
          to label %9 unwind label %14

9:                                                ; preds = %4
  %10 = load ptr, ptr %5, align 8, !tbaa !202
  %11 = icmp eq ptr %10, null
  br i1 %11, label %13, label %12

12:                                               ; preds = %9
  call void @_ZdlPv(ptr noundef nonnull %10) #18
  br label %13

13:                                               ; preds = %9, %12
  call void @llvm.lifetime.end.p0(i64 32, ptr nonnull %5) #18
  ret void

14:                                               ; preds = %4
  %15 = landingpad { ptr, i32 }
          cleanup
  %16 = load ptr, ptr %5, align 8, !tbaa !202
  %17 = icmp eq ptr %16, null
  br i1 %17, label %19, label %18

18:                                               ; preds = %14
  call void @_ZdlPv(ptr noundef nonnull %16) #18
  br label %19

19:                                               ; preds = %18, %14
  call void @llvm.lifetime.end.p0(i64 32, ptr nonnull %5) #18
  resume { ptr, i32 } %15
}

; Function Attrs: uwtable
define dso_local void @_ZN10xalanc_1_836StylesheetConstructionContextDefault5resetEv(ptr noundef nonnull align 8 dereferenceable(1024) %0) unnamed_addr #1 align 2 {
  %2 = getelementptr inbounds %"class.xalanc_1_8::StylesheetConstructionContextDefault", ptr %0, i64 0, i32 4
  %3 = load ptr, ptr %2, align 8, !tbaa !178
  %4 = getelementptr inbounds %"class.xalanc_1_8::StylesheetConstructionContextDefault", ptr %0, i64 0, i32 4, i32 0, i32 0, i32 0, i32 1
  %5 = load ptr, ptr %4, align 8, !tbaa !178
  %6 = icmp eq ptr %3, %5
  br i1 %6, label %23, label %7

7:                                                ; preds = %1, %15
  %8 = phi ptr [ %16, %15 ], [ %3, %1 ]
  %9 = load ptr, ptr %8, align 8, !tbaa !178
  %10 = icmp eq ptr %9, null
  br i1 %10, label %15, label %11

11:                                               ; preds = %7
  %12 = load ptr, ptr %9, align 8, !tbaa !175
  %13 = getelementptr inbounds ptr, ptr %12, i64 1
  %14 = load ptr, ptr %13, align 8
  tail call void %14(ptr noundef nonnull align 8 dereferenceable(1400) %9)
  br label %15

15:                                               ; preds = %11, %7
  %16 = getelementptr inbounds ptr, ptr %8, i64 1
  %17 = icmp eq ptr %16, %5
  br i1 %17, label %18, label %7

18:                                               ; preds = %15
  %19 = load ptr, ptr %2, align 8, !tbaa !204
  %20 = load ptr, ptr %4, align 8, !tbaa !324
  %21 = icmp eq ptr %20, %19
  br i1 %21, label %23, label %22

22:                                               ; preds = %18
  store ptr %19, ptr %4, align 8, !tbaa !324
  br label %23

23:                                               ; preds = %1, %18, %22
  %24 = getelementptr inbounds %"class.xalanc_1_8::StylesheetConstructionContextDefault", ptr %0, i64 0, i32 16
  %25 = load ptr, ptr %24, align 8, !tbaa !178
  %26 = getelementptr inbounds %"class.xalanc_1_8::StylesheetConstructionContextDefault", ptr %0, i64 0, i32 16, i32 0, i32 0, i32 0, i32 1
  %27 = load ptr, ptr %26, align 8, !tbaa !178
  %28 = icmp eq ptr %25, %27
  br i1 %28, label %45, label %29

29:                                               ; preds = %23, %37
  %30 = phi ptr [ %38, %37 ], [ %25, %23 ]
  %31 = load ptr, ptr %30, align 8, !tbaa !178
  %32 = icmp eq ptr %31, null
  br i1 %32, label %37, label %33

33:                                               ; preds = %29
  %34 = load ptr, ptr %31, align 8, !tbaa !175
  %35 = getelementptr inbounds ptr, ptr %34, i64 1
  %36 = load ptr, ptr %35, align 8
  tail call void %36(ptr noundef nonnull align 8 dereferenceable(210) %31)
  br label %37

37:                                               ; preds = %33, %29
  %38 = getelementptr inbounds ptr, ptr %30, i64 1
  %39 = icmp eq ptr %38, %27
  br i1 %39, label %40, label %29

40:                                               ; preds = %37
  %41 = load ptr, ptr %24, align 8, !tbaa !200
  %42 = load ptr, ptr %26, align 8, !tbaa !325
  %43 = icmp eq ptr %42, %41
  br i1 %43, label %45, label %44

44:                                               ; preds = %40
  store ptr %41, ptr %26, align 8, !tbaa !325
  br label %45

45:                                               ; preds = %23, %40, %44
  %46 = getelementptr inbounds %"class.xalanc_1_8::StylesheetConstructionContextDefault", ptr %0, i64 0, i32 2
  %47 = load ptr, ptr %46, align 8, !tbaa !326
  %48 = load ptr, ptr %47, align 8, !tbaa !175
  %49 = getelementptr inbounds ptr, ptr %48, i64 2
  %50 = load ptr, ptr %49, align 8
  tail call void %50(ptr noundef nonnull align 8 dereferenceable(8) %47)
  %51 = getelementptr inbounds %"class.xalanc_1_8::StylesheetConstructionContextDefault", ptr %0, i64 0, i32 5
  tail call void @_ZN10xalanc_1_818XalanDOMStringPool5clearEv(ptr noundef nonnull align 8 dereferenceable(96) %51)
  %52 = getelementptr inbounds %"class.xalanc_1_8::StylesheetConstructionContextDefault", ptr %0, i64 0, i32 9
  tail call void @_ZN10xalanc_1_819XalanDOMStringCache5resetEv(ptr noundef nonnull align 8 dereferenceable(52) %52)
  %53 = getelementptr inbounds %"class.xalanc_1_8::StylesheetConstructionContextDefault", ptr %0, i64 0, i32 10, i32 0, i32 2
  %54 = load ptr, ptr %53, align 8, !tbaa !178
  %55 = getelementptr inbounds %"class.xalanc_1_8::StylesheetConstructionContextDefault", ptr %0, i64 0, i32 10, i32 0, i32 2, i32 0, i32 0, i32 0, i32 1
  %56 = load ptr, ptr %55, align 8, !tbaa !178
  %57 = icmp eq ptr %54, %56
  br i1 %57, label %74, label %58

58:                                               ; preds = %45, %66
  %59 = phi ptr [ %67, %66 ], [ %54, %45 ]
  %60 = load ptr, ptr %59, align 8, !tbaa !178
  %61 = icmp eq ptr %60, null
  br i1 %61, label %66, label %62

62:                                               ; preds = %58
  %63 = load ptr, ptr %60, align 8, !tbaa !175
  %64 = getelementptr inbounds ptr, ptr %63, i64 1
  %65 = load ptr, ptr %64, align 8
  tail call void %65(ptr noundef nonnull align 8 dereferenceable(41) %60)
  br label %66

66:                                               ; preds = %62, %58
  %67 = getelementptr inbounds ptr, ptr %59, i64 1
  %68 = icmp eq ptr %67, %56
  br i1 %68, label %69, label %58

69:                                               ; preds = %66
  %70 = load ptr, ptr %53, align 8, !tbaa !327
  %71 = load ptr, ptr %55, align 8, !tbaa !328
  %72 = icmp eq ptr %71, %70
  br i1 %72, label %74, label %73

73:                                               ; preds = %69
  store ptr %70, ptr %55, align 8, !tbaa !328
  br label %74

74:                                               ; preds = %45, %69, %73
  %75 = getelementptr inbounds %"class.xalanc_1_8::StylesheetConstructionContextDefault", ptr %0, i64 0, i32 11, i32 0, i32 2
  %76 = load ptr, ptr %75, align 8, !tbaa !178
  %77 = getelementptr inbounds %"class.xalanc_1_8::StylesheetConstructionContextDefault", ptr %0, i64 0, i32 11, i32 0, i32 2, i32 0, i32 0, i32 0, i32 1
  %78 = load ptr, ptr %77, align 8, !tbaa !178
  %79 = icmp eq ptr %76, %78
  br i1 %79, label %96, label %80

80:                                               ; preds = %74, %88
  %81 = phi ptr [ %89, %88 ], [ %76, %74 ]
  %82 = load ptr, ptr %81, align 8, !tbaa !178
  %83 = icmp eq ptr %82, null
  br i1 %83, label %88, label %84

84:                                               ; preds = %80
  %85 = load ptr, ptr %82, align 8, !tbaa !175
  %86 = getelementptr inbounds ptr, ptr %85, i64 1
  %87 = load ptr, ptr %86, align 8
  tail call void %87(ptr noundef nonnull align 8 dereferenceable(41) %82)
  br label %88

88:                                               ; preds = %84, %80
  %89 = getelementptr inbounds ptr, ptr %81, i64 1
  %90 = icmp eq ptr %89, %78
  br i1 %90, label %91, label %80

91:                                               ; preds = %88
  %92 = load ptr, ptr %75, align 8, !tbaa !329
  %93 = load ptr, ptr %77, align 8, !tbaa !330
  %94 = icmp eq ptr %93, %92
  br i1 %94, label %96, label %95

95:                                               ; preds = %91
  store ptr %92, ptr %77, align 8, !tbaa !330
  br label %96

96:                                               ; preds = %74, %91, %95
  %97 = getelementptr inbounds %"class.xalanc_1_8::StylesheetConstructionContextDefault", ptr %0, i64 0, i32 12, i32 0, i32 2
  %98 = load ptr, ptr %97, align 8, !tbaa !178
  %99 = getelementptr inbounds %"class.xalanc_1_8::StylesheetConstructionContextDefault", ptr %0, i64 0, i32 12, i32 0, i32 2, i32 0, i32 0, i32 0, i32 1
  %100 = load ptr, ptr %99, align 8, !tbaa !178
  %101 = icmp eq ptr %98, %100
  br i1 %101, label %118, label %102

102:                                              ; preds = %96, %110
  %103 = phi ptr [ %111, %110 ], [ %98, %96 ]
  %104 = load ptr, ptr %103, align 8, !tbaa !178
  %105 = icmp eq ptr %104, null
  br i1 %105, label %110, label %106

106:                                              ; preds = %102
  %107 = load ptr, ptr %104, align 8, !tbaa !175
  %108 = getelementptr inbounds ptr, ptr %107, i64 1
  %109 = load ptr, ptr %108, align 8
  tail call void %109(ptr noundef nonnull align 8 dereferenceable(41) %104)
  br label %110

110:                                              ; preds = %106, %102
  %111 = getelementptr inbounds ptr, ptr %103, i64 1
  %112 = icmp eq ptr %111, %100
  br i1 %112, label %113, label %102

113:                                              ; preds = %110
  %114 = load ptr, ptr %97, align 8, !tbaa !331
  %115 = load ptr, ptr %99, align 8, !tbaa !332
  %116 = icmp eq ptr %115, %114
  br i1 %116, label %118, label %117

117:                                              ; preds = %113
  store ptr %114, ptr %99, align 8, !tbaa !332
  br label %118

118:                                              ; preds = %96, %113, %117
  %119 = getelementptr inbounds %"class.xalanc_1_8::StylesheetConstructionContextDefault", ptr %0, i64 0, i32 13, i32 0, i32 2
  %120 = load ptr, ptr %119, align 8, !tbaa !178
  %121 = getelementptr inbounds %"class.xalanc_1_8::StylesheetConstructionContextDefault", ptr %0, i64 0, i32 13, i32 0, i32 2, i32 0, i32 0, i32 0, i32 1
  %122 = load ptr, ptr %121, align 8, !tbaa !178
  %123 = icmp eq ptr %120, %122
  br i1 %123, label %140, label %124

124:                                              ; preds = %118, %132
  %125 = phi ptr [ %133, %132 ], [ %120, %118 ]
  %126 = load ptr, ptr %125, align 8, !tbaa !178
  %127 = icmp eq ptr %126, null
  br i1 %127, label %132, label %128

128:                                              ; preds = %124
  %129 = load ptr, ptr %126, align 8, !tbaa !175
  %130 = getelementptr inbounds ptr, ptr %129, i64 1
  %131 = load ptr, ptr %130, align 8
  tail call void %131(ptr noundef nonnull align 8 dereferenceable(41) %126)
  br label %132

132:                                              ; preds = %128, %124
  %133 = getelementptr inbounds ptr, ptr %125, i64 1
  %134 = icmp eq ptr %133, %122
  br i1 %134, label %135, label %124

135:                                              ; preds = %132
  %136 = load ptr, ptr %119, align 8, !tbaa !333
  %137 = load ptr, ptr %121, align 8, !tbaa !334
  %138 = icmp eq ptr %137, %136
  br i1 %138, label %140, label %139

139:                                              ; preds = %135
  store ptr %136, ptr %121, align 8, !tbaa !334
  br label %140

140:                                              ; preds = %118, %135, %139
  %141 = getelementptr inbounds %"class.xalanc_1_8::StylesheetConstructionContextDefault", ptr %0, i64 0, i32 15
  %142 = load ptr, ptr %141, align 8, !tbaa !185
  %143 = icmp eq ptr %142, %141
  br i1 %143, label %159, label %144

144:                                              ; preds = %140, %144
  %145 = phi ptr [ %155, %144 ], [ %142, %140 ]
  %146 = getelementptr inbounds %"struct.std::_List_node", ptr %145, i64 0, i32 1
  %147 = getelementptr inbounds %"struct.std::_List_node", ptr %145, i64 0, i32 1, i32 1
  %148 = getelementptr inbounds %"struct.std::_List_node", ptr %145, i64 0, i32 1, i32 1, i32 0, i32 0, i32 0, i32 1
  %149 = load ptr, ptr %148, align 8, !tbaa !335
  %150 = load ptr, ptr %147, align 8, !tbaa !206
  %151 = ptrtoint ptr %149 to i64
  %152 = ptrtoint ptr %150 to i64
  %153 = sub i64 %151, %152
  %154 = ashr exact i64 %153, 3
  store i64 %154, ptr %146, align 8, !tbaa !336
  %155 = load ptr, ptr %145, align 8, !tbaa !185
  %156 = icmp eq ptr %155, %141
  br i1 %156, label %157, label %144

157:                                              ; preds = %144
  %158 = getelementptr inbounds %"struct.std::_List_node", ptr %142, i64 0, i32 1
  br label %159

159:                                              ; preds = %140, %157
  %160 = phi ptr [ %158, %157 ], [ null, %140 ]
  %161 = getelementptr inbounds %"class.xalanc_1_8::StylesheetConstructionContextDefault", ptr %0, i64 0, i32 15, i32 2
  store ptr %160, ptr %161, align 8, !tbaa !341
  %162 = getelementptr inbounds %"class.xalanc_1_8::StylesheetConstructionContextDefault", ptr %0, i64 0, i32 17, i32 0, i32 2
  %163 = load ptr, ptr %162, align 8, !tbaa !178
  %164 = getelementptr inbounds %"class.xalanc_1_8::StylesheetConstructionContextDefault", ptr %0, i64 0, i32 17, i32 0, i32 2, i32 0, i32 0, i32 0, i32 1
  %165 = load ptr, ptr %164, align 8, !tbaa !178
  %166 = icmp eq ptr %163, %165
  br i1 %166, label %183, label %167

167:                                              ; preds = %159, %175
  %168 = phi ptr [ %176, %175 ], [ %163, %159 ]
  %169 = load ptr, ptr %168, align 8, !tbaa !178
  %170 = icmp eq ptr %169, null
  br i1 %170, label %175, label %171

171:                                              ; preds = %167
  %172 = load ptr, ptr %169, align 8, !tbaa !175
  %173 = getelementptr inbounds ptr, ptr %172, i64 1
  %174 = load ptr, ptr %173, align 8
  tail call void %174(ptr noundef nonnull align 8 dereferenceable(41) %169)
  br label %175

175:                                              ; preds = %171, %167
  %176 = getelementptr inbounds ptr, ptr %168, i64 1
  %177 = icmp eq ptr %176, %165
  br i1 %177, label %178, label %167

178:                                              ; preds = %175
  %179 = load ptr, ptr %162, align 8, !tbaa !342
  %180 = load ptr, ptr %164, align 8, !tbaa !343
  %181 = icmp eq ptr %180, %179
  br i1 %181, label %183, label %182

182:                                              ; preds = %178
  store ptr %179, ptr %164, align 8, !tbaa !343
  br label %183

183:                                              ; preds = %159, %178, %182
  %184 = getelementptr inbounds %"class.xalanc_1_8::StylesheetConstructionContextDefault", ptr %0, i64 0, i32 18, i32 0, i32 2
  %185 = load ptr, ptr %184, align 8, !tbaa !178
  %186 = getelementptr inbounds %"class.xalanc_1_8::StylesheetConstructionContextDefault", ptr %0, i64 0, i32 18, i32 0, i32 2, i32 0, i32 0, i32 0, i32 1
  %187 = load ptr, ptr %186, align 8, !tbaa !178
  %188 = icmp eq ptr %185, %187
  br i1 %188, label %205, label %189

189:                                              ; preds = %183, %197
  %190 = phi ptr [ %198, %197 ], [ %185, %183 ]
  %191 = load ptr, ptr %190, align 8, !tbaa !178
  %192 = icmp eq ptr %191, null
  br i1 %192, label %197, label %193

193:                                              ; preds = %189
  %194 = load ptr, ptr %191, align 8, !tbaa !175
  %195 = getelementptr inbounds ptr, ptr %194, i64 1
  %196 = load ptr, ptr %195, align 8
  tail call void %196(ptr noundef nonnull align 8 dereferenceable(41) %191)
  br label %197

197:                                              ; preds = %193, %189
  %198 = getelementptr inbounds ptr, ptr %190, i64 1
  %199 = icmp eq ptr %198, %187
  br i1 %199, label %200, label %189

200:                                              ; preds = %197
  %201 = load ptr, ptr %184, align 8, !tbaa !344
  %202 = load ptr, ptr %186, align 8, !tbaa !345
  %203 = icmp eq ptr %202, %201
  br i1 %203, label %205, label %204

204:                                              ; preds = %200
  store ptr %201, ptr %186, align 8, !tbaa !345
  br label %205

205:                                              ; preds = %183, %200, %204
  %206 = getelementptr inbounds %"class.xalanc_1_8::StylesheetConstructionContextDefault", ptr %0, i64 0, i32 19, i32 0, i32 2
  %207 = load ptr, ptr %206, align 8, !tbaa !178
  %208 = getelementptr inbounds %"class.xalanc_1_8::StylesheetConstructionContextDefault", ptr %0, i64 0, i32 19, i32 0, i32 2, i32 0, i32 0, i32 0, i32 1
  %209 = load ptr, ptr %208, align 8, !tbaa !178
  %210 = icmp eq ptr %207, %209
  br i1 %210, label %227, label %211

211:                                              ; preds = %205, %219
  %212 = phi ptr [ %220, %219 ], [ %207, %205 ]
  %213 = load ptr, ptr %212, align 8, !tbaa !178
  %214 = icmp eq ptr %213, null
  br i1 %214, label %219, label %215

215:                                              ; preds = %211
  %216 = load ptr, ptr %213, align 8, !tbaa !175
  %217 = getelementptr inbounds ptr, ptr %216, i64 1
  %218 = load ptr, ptr %217, align 8
  tail call void %218(ptr noundef nonnull align 8 dereferenceable(41) %213)
  br label %219

219:                                              ; preds = %215, %211
  %220 = getelementptr inbounds ptr, ptr %212, i64 1
  %221 = icmp eq ptr %220, %209
  br i1 %221, label %222, label %211

222:                                              ; preds = %219
  %223 = load ptr, ptr %206, align 8, !tbaa !346
  %224 = load ptr, ptr %208, align 8, !tbaa !347
  %225 = icmp eq ptr %224, %223
  br i1 %225, label %227, label %226

226:                                              ; preds = %222
  store ptr %223, ptr %208, align 8, !tbaa !347
  br label %227

227:                                              ; preds = %205, %222, %226
  %228 = getelementptr inbounds %"class.xalanc_1_8::StylesheetConstructionContextDefault", ptr %0, i64 0, i32 20, i32 0, i32 2
  %229 = load ptr, ptr %228, align 8, !tbaa !178
  %230 = getelementptr inbounds %"class.xalanc_1_8::StylesheetConstructionContextDefault", ptr %0, i64 0, i32 20, i32 0, i32 2, i32 0, i32 0, i32 0, i32 1
  %231 = load ptr, ptr %230, align 8, !tbaa !178
  %232 = icmp eq ptr %229, %231
  br i1 %232, label %249, label %233

233:                                              ; preds = %227, %241
  %234 = phi ptr [ %242, %241 ], [ %229, %227 ]
  %235 = load ptr, ptr %234, align 8, !tbaa !178
  %236 = icmp eq ptr %235, null
  br i1 %236, label %241, label %237

237:                                              ; preds = %233
  %238 = load ptr, ptr %235, align 8, !tbaa !175
  %239 = getelementptr inbounds ptr, ptr %238, i64 1
  %240 = load ptr, ptr %239, align 8
  tail call void %240(ptr noundef nonnull align 8 dereferenceable(41) %235)
  br label %241

241:                                              ; preds = %237, %233
  %242 = getelementptr inbounds ptr, ptr %234, i64 1
  %243 = icmp eq ptr %242, %231
  br i1 %243, label %244, label %233

244:                                              ; preds = %241
  %245 = load ptr, ptr %228, align 8, !tbaa !348
  %246 = load ptr, ptr %230, align 8, !tbaa !349
  %247 = icmp eq ptr %246, %245
  br i1 %247, label %249, label %248

248:                                              ; preds = %244
  store ptr %245, ptr %230, align 8, !tbaa !349
  br label %249

249:                                              ; preds = %227, %244, %248
  %250 = getelementptr inbounds %"class.xalanc_1_8::StylesheetConstructionContextDefault", ptr %0, i64 0, i32 21, i32 0, i32 2
  %251 = load ptr, ptr %250, align 8, !tbaa !178
  %252 = getelementptr inbounds %"class.xalanc_1_8::StylesheetConstructionContextDefault", ptr %0, i64 0, i32 21, i32 0, i32 2, i32 0, i32 0, i32 0, i32 1
  %253 = load ptr, ptr %252, align 8, !tbaa !178
  %254 = icmp eq ptr %251, %253
  br i1 %254, label %271, label %255

255:                                              ; preds = %249, %263
  %256 = phi ptr [ %264, %263 ], [ %251, %249 ]
  %257 = load ptr, ptr %256, align 8, !tbaa !178
  %258 = icmp eq ptr %257, null
  br i1 %258, label %263, label %259

259:                                              ; preds = %255
  %260 = load ptr, ptr %257, align 8, !tbaa !175
  %261 = getelementptr inbounds ptr, ptr %260, i64 1
  %262 = load ptr, ptr %261, align 8
  tail call void %262(ptr noundef nonnull align 8 dereferenceable(41) %257)
  br label %263

263:                                              ; preds = %259, %255
  %264 = getelementptr inbounds ptr, ptr %256, i64 1
  %265 = icmp eq ptr %264, %253
  br i1 %265, label %266, label %255

266:                                              ; preds = %263
  %267 = load ptr, ptr %250, align 8, !tbaa !350
  %268 = load ptr, ptr %252, align 8, !tbaa !351
  %269 = icmp eq ptr %268, %267
  br i1 %269, label %271, label %270

270:                                              ; preds = %266
  store ptr %267, ptr %252, align 8, !tbaa !351
  br label %271

271:                                              ; preds = %249, %266, %270
  %272 = getelementptr inbounds %"class.xalanc_1_8::StylesheetConstructionContextDefault", ptr %0, i64 0, i32 22, i32 0, i32 2
  %273 = load ptr, ptr %272, align 8, !tbaa !178
  %274 = getelementptr inbounds %"class.xalanc_1_8::StylesheetConstructionContextDefault", ptr %0, i64 0, i32 22, i32 0, i32 2, i32 0, i32 0, i32 0, i32 1
  %275 = load ptr, ptr %274, align 8, !tbaa !178
  %276 = icmp eq ptr %273, %275
  br i1 %276, label %293, label %277

277:                                              ; preds = %271, %285
  %278 = phi ptr [ %286, %285 ], [ %273, %271 ]
  %279 = load ptr, ptr %278, align 8, !tbaa !178
  %280 = icmp eq ptr %279, null
  br i1 %280, label %285, label %281

281:                                              ; preds = %277
  %282 = load ptr, ptr %279, align 8, !tbaa !175
  %283 = getelementptr inbounds ptr, ptr %282, i64 1
  %284 = load ptr, ptr %283, align 8
  tail call void %284(ptr noundef nonnull align 8 dereferenceable(41) %279)
  br label %285

285:                                              ; preds = %281, %277
  %286 = getelementptr inbounds ptr, ptr %278, i64 1
  %287 = icmp eq ptr %286, %275
  br i1 %287, label %288, label %277

288:                                              ; preds = %285
  %289 = load ptr, ptr %272, align 8, !tbaa !352
  %290 = load ptr, ptr %274, align 8, !tbaa !353
  %291 = icmp eq ptr %290, %289
  br i1 %291, label %293, label %292

292:                                              ; preds = %288
  store ptr %289, ptr %274, align 8, !tbaa !353
  br label %293

293:                                              ; preds = %271, %288, %292
  %294 = getelementptr inbounds %"class.xalanc_1_8::StylesheetConstructionContextDefault", ptr %0, i64 0, i32 23, i32 0, i32 2
  %295 = load ptr, ptr %294, align 8, !tbaa !178
  %296 = getelementptr inbounds %"class.xalanc_1_8::StylesheetConstructionContextDefault", ptr %0, i64 0, i32 23, i32 0, i32 2, i32 0, i32 0, i32 0, i32 1
  %297 = load ptr, ptr %296, align 8, !tbaa !178
  %298 = icmp eq ptr %295, %297
  br i1 %298, label %315, label %299

299:                                              ; preds = %293, %307
  %300 = phi ptr [ %308, %307 ], [ %295, %293 ]
  %301 = load ptr, ptr %300, align 8, !tbaa !178
  %302 = icmp eq ptr %301, null
  br i1 %302, label %307, label %303

303:                                              ; preds = %299
  %304 = load ptr, ptr %301, align 8, !tbaa !175
  %305 = getelementptr inbounds ptr, ptr %304, i64 1
  %306 = load ptr, ptr %305, align 8
  tail call void %306(ptr noundef nonnull align 8 dereferenceable(41) %301)
  br label %307

307:                                              ; preds = %303, %299
  %308 = getelementptr inbounds ptr, ptr %300, i64 1
  %309 = icmp eq ptr %308, %297
  br i1 %309, label %310, label %299

310:                                              ; preds = %307
  %311 = load ptr, ptr %294, align 8, !tbaa !354
  %312 = load ptr, ptr %296, align 8, !tbaa !355
  %313 = icmp eq ptr %312, %311
  br i1 %313, label %315, label %314

314:                                              ; preds = %310
  store ptr %311, ptr %296, align 8, !tbaa !355
  br label %315

315:                                              ; preds = %293, %310, %314
  %316 = getelementptr inbounds %"class.xalanc_1_8::StylesheetConstructionContextDefault", ptr %0, i64 0, i32 24, i32 0, i32 2
  %317 = load ptr, ptr %316, align 8, !tbaa !178
  %318 = getelementptr inbounds %"class.xalanc_1_8::StylesheetConstructionContextDefault", ptr %0, i64 0, i32 24, i32 0, i32 2, i32 0, i32 0, i32 0, i32 1
  %319 = load ptr, ptr %318, align 8, !tbaa !178
  %320 = icmp eq ptr %317, %319
  br i1 %320, label %337, label %321

321:                                              ; preds = %315, %329
  %322 = phi ptr [ %330, %329 ], [ %317, %315 ]
  %323 = load ptr, ptr %322, align 8, !tbaa !178
  %324 = icmp eq ptr %323, null
  br i1 %324, label %329, label %325

325:                                              ; preds = %321
  %326 = load ptr, ptr %323, align 8, !tbaa !175
  %327 = getelementptr inbounds ptr, ptr %326, i64 1
  %328 = load ptr, ptr %327, align 8
  tail call void %328(ptr noundef nonnull align 8 dereferenceable(41) %323)
  br label %329

329:                                              ; preds = %325, %321
  %330 = getelementptr inbounds ptr, ptr %322, i64 1
  %331 = icmp eq ptr %330, %319
  br i1 %331, label %332, label %321

332:                                              ; preds = %329
  %333 = load ptr, ptr %316, align 8, !tbaa !356
  %334 = load ptr, ptr %318, align 8, !tbaa !357
  %335 = icmp eq ptr %334, %333
  br i1 %335, label %337, label %336

336:                                              ; preds = %332
  store ptr %333, ptr %318, align 8, !tbaa !357
  br label %337

337:                                              ; preds = %315, %332, %336
  %338 = getelementptr inbounds %"class.xalanc_1_8::StylesheetConstructionContextDefault", ptr %0, i64 0, i32 25, i32 0, i32 2
  %339 = load ptr, ptr %338, align 8, !tbaa !178
  %340 = getelementptr inbounds %"class.xalanc_1_8::StylesheetConstructionContextDefault", ptr %0, i64 0, i32 25, i32 0, i32 2, i32 0, i32 0, i32 0, i32 1
  %341 = load ptr, ptr %340, align 8, !tbaa !178
  %342 = icmp eq ptr %339, %341
  br i1 %342, label %359, label %343

343:                                              ; preds = %337, %351
  %344 = phi ptr [ %352, %351 ], [ %339, %337 ]
  %345 = load ptr, ptr %344, align 8, !tbaa !178
  %346 = icmp eq ptr %345, null
  br i1 %346, label %351, label %347

347:                                              ; preds = %343
  %348 = load ptr, ptr %345, align 8, !tbaa !175
  %349 = getelementptr inbounds ptr, ptr %348, i64 1
  %350 = load ptr, ptr %349, align 8
  tail call void %350(ptr noundef nonnull align 8 dereferenceable(41) %345)
  br label %351

351:                                              ; preds = %347, %343
  %352 = getelementptr inbounds ptr, ptr %344, i64 1
  %353 = icmp eq ptr %352, %341
  br i1 %353, label %354, label %343

354:                                              ; preds = %351
  %355 = load ptr, ptr %338, align 8, !tbaa !358
  %356 = load ptr, ptr %340, align 8, !tbaa !359
  %357 = icmp eq ptr %356, %355
  br i1 %357, label %359, label %358

358:                                              ; preds = %354
  store ptr %355, ptr %340, align 8, !tbaa !359
  br label %359

359:                                              ; preds = %337, %354, %358
  %360 = getelementptr inbounds %"class.xalanc_1_8::StylesheetConstructionContextDefault", ptr %0, i64 0, i32 26, i32 0, i32 2
  %361 = load ptr, ptr %360, align 8, !tbaa !178
  %362 = getelementptr inbounds %"class.xalanc_1_8::StylesheetConstructionContextDefault", ptr %0, i64 0, i32 26, i32 0, i32 2, i32 0, i32 0, i32 0, i32 1
  %363 = load ptr, ptr %362, align 8, !tbaa !178
  %364 = icmp eq ptr %361, %363
  br i1 %364, label %381, label %365

365:                                              ; preds = %359, %373
  %366 = phi ptr [ %374, %373 ], [ %361, %359 ]
  %367 = load ptr, ptr %366, align 8, !tbaa !178
  %368 = icmp eq ptr %367, null
  br i1 %368, label %373, label %369

369:                                              ; preds = %365
  %370 = load ptr, ptr %367, align 8, !tbaa !175
  %371 = getelementptr inbounds ptr, ptr %370, i64 1
  %372 = load ptr, ptr %371, align 8
  tail call void %372(ptr noundef nonnull align 8 dereferenceable(41) %367)
  br label %373

373:                                              ; preds = %369, %365
  %374 = getelementptr inbounds ptr, ptr %366, i64 1
  %375 = icmp eq ptr %374, %363
  br i1 %375, label %376, label %365

376:                                              ; preds = %373
  %377 = load ptr, ptr %360, align 8, !tbaa !360
  %378 = load ptr, ptr %362, align 8, !tbaa !361
  %379 = icmp eq ptr %378, %377
  br i1 %379, label %381, label %380

380:                                              ; preds = %376
  store ptr %377, ptr %362, align 8, !tbaa !361
  br label %381

381:                                              ; preds = %359, %376, %380
  ret void
}

declare void @_ZN10xalanc_1_818XalanDOMStringPool5clearEv(ptr noundef nonnull align 8 dereferenceable(96)) unnamed_addr #2

declare void @_ZN10xalanc_1_819XalanDOMStringCache5resetEv(ptr noundef nonnull align 8 dereferenceable(52)) local_unnamed_addr #2

; Function Attrs: uwtable
define dso_local noundef nonnull ptr @_ZN10xalanc_1_836StylesheetConstructionContextDefault6createERKNS_14XalanDOMStringE(ptr noundef nonnull align 8 dereferenceable(1024) %0, ptr noundef nonnull align 8 dereferenceable(28) %1) unnamed_addr #1 align 2 personality ptr @__gxx_personality_v0 {
  %3 = getelementptr inbounds %"class.xalanc_1_8::StylesheetConstructionContextDefault", ptr %0, i64 0, i32 4
  %4 = getelementptr inbounds %"class.xalanc_1_8::StylesheetConstructionContextDefault", ptr %0, i64 0, i32 4, i32 0, i32 0, i32 0, i32 1
  %5 = load ptr, ptr %4, align 8, !tbaa !324
  %6 = load ptr, ptr %3, align 8, !tbaa !204
  %7 = ptrtoint ptr %5 to i64
  %8 = ptrtoint ptr %6 to i64
  %9 = sub i64 %7, %8
  %10 = ashr exact i64 %9, 3
  %11 = add nsw i64 %10, 1
  %12 = icmp ugt i64 %11, 1152921504606846975
  br i1 %12, label %13, label %14

13:                                               ; preds = %2
  tail call void @_ZSt20__throw_length_errorPKc(ptr noundef nonnull @.str.3) #20
  unreachable

14:                                               ; preds = %2
  %15 = getelementptr inbounds %"class.xalanc_1_8::StylesheetConstructionContextDefault", ptr %0, i64 0, i32 4, i32 0, i32 0, i32 0, i32 2
  %16 = load ptr, ptr %15, align 8, !tbaa !362
  %17 = ptrtoint ptr %16 to i64
  %18 = sub i64 %17, %8
  %19 = ashr exact i64 %18, 3
  %20 = icmp ult i64 %19, %11
  br i1 %20, label %21, label %33

21:                                               ; preds = %14
  %22 = shl nuw nsw i64 %11, 3
  %23 = tail call noalias noundef nonnull ptr @_Znwm(i64 noundef %22) #21
  %24 = icmp eq ptr %5, %6
  br i1 %24, label %26, label %25

25:                                               ; preds = %21
  tail call void @llvm.memcpy.p0.p0.i64(ptr nonnull align 8 %23, ptr align 8 %6, i64 %9, i1 false)
  br label %26

26:                                               ; preds = %25, %21
  %27 = load ptr, ptr %3, align 8, !tbaa !204
  %28 = icmp eq ptr %27, null
  br i1 %28, label %30, label %29

29:                                               ; preds = %26
  tail call void @_ZdlPv(ptr noundef nonnull %27) #18
  br label %30

30:                                               ; preds = %29, %26
  store ptr %23, ptr %3, align 8, !tbaa !204
  %31 = getelementptr inbounds ptr, ptr %23, i64 %10
  store ptr %31, ptr %4, align 8, !tbaa !324
  %32 = getelementptr inbounds ptr, ptr %23, i64 %11
  store ptr %32, ptr %15, align 8, !tbaa !362
  br label %33

33:                                               ; preds = %14, %30
  %34 = tail call noalias noundef nonnull dereferenceable(1400) ptr @_Znwm(i64 noundef 1400) #16
  invoke void @_ZN10xalanc_1_814StylesheetRootC1ERKNS_14XalanDOMStringERNS_29StylesheetConstructionContextE(ptr noundef nonnull align 8 dereferenceable(1400) %34, ptr noundef nonnull align 8 dereferenceable(28) %1, ptr noundef nonnull align 8 dereferenceable(8) %0)
          to label %35 unwind label %73

35:                                               ; preds = %33
  %36 = load ptr, ptr %4, align 8, !tbaa !178
  %37 = load ptr, ptr %15, align 8, !tbaa !362
  %38 = icmp eq ptr %36, %37
  br i1 %38, label %42, label %39

39:                                               ; preds = %35
  store ptr %34, ptr %36, align 8, !tbaa !178
  %40 = load ptr, ptr %4, align 8, !tbaa !324
  %41 = getelementptr inbounds ptr, ptr %40, i64 1
  store ptr %41, ptr %4, align 8, !tbaa !324
  br label %72

42:                                               ; preds = %35
  %43 = load ptr, ptr %3, align 8, !tbaa !178
  %44 = ptrtoint ptr %36 to i64
  %45 = ptrtoint ptr %43 to i64
  %46 = sub i64 %44, %45
  %47 = icmp eq i64 %46, 9223372036854775800
  br i1 %47, label %48, label %49

48:                                               ; preds = %42
  tail call void @_ZSt20__throw_length_errorPKc(ptr noundef nonnull @.str) #20
  unreachable

49:                                               ; preds = %42
  %50 = ashr exact i64 %46, 3
  %51 = tail call i64 @llvm.umax.i64(i64 %50, i64 1)
  %52 = add i64 %51, %50
  %53 = icmp ult i64 %52, %50
  %54 = icmp ugt i64 %52, 1152921504606846975
  %55 = or i1 %53, %54
  %56 = select i1 %55, i64 1152921504606846975, i64 %52
  %57 = icmp eq i64 %56, 0
  br i1 %57, label %61, label %58

58:                                               ; preds = %49
  %59 = shl nuw nsw i64 %56, 3
  %60 = tail call noalias noundef nonnull ptr @_Znwm(i64 noundef %59) #21
  br label %61

61:                                               ; preds = %58, %49
  %62 = phi ptr [ %60, %58 ], [ null, %49 ]
  %63 = getelementptr inbounds ptr, ptr %62, i64 %50
  store ptr %34, ptr %63, align 8, !tbaa !178
  %64 = icmp eq ptr %43, %36
  br i1 %64, label %66, label %65

65:                                               ; preds = %61
  tail call void @llvm.memmove.p0.p0.i64(ptr nonnull align 8 %62, ptr align 8 %43, i64 %46, i1 false)
  br label %66

66:                                               ; preds = %65, %61
  %67 = getelementptr inbounds ptr, ptr %63, i64 1
  %68 = icmp eq ptr %43, null
  br i1 %68, label %70, label %69

69:                                               ; preds = %66
  tail call void @_ZdlPv(ptr noundef nonnull %43) #18
  br label %70

70:                                               ; preds = %69, %66
  store ptr %62, ptr %3, align 8, !tbaa !204
  store ptr %67, ptr %4, align 8, !tbaa !324
  %71 = getelementptr inbounds ptr, ptr %62, i64 %56
  store ptr %71, ptr %15, align 8, !tbaa !362
  br label %72

72:                                               ; preds = %39, %70
  ret ptr %34

73:                                               ; preds = %33
  %74 = landingpad { ptr, i32 }
          cleanup
  tail call void @_ZdlPv(ptr noundef nonnull %34) #17
  resume { ptr, i32 } %74
}

declare void @_ZN10xalanc_1_814StylesheetRootC1ERKNS_14XalanDOMStringERNS_29StylesheetConstructionContextE(ptr noundef nonnull align 8 dereferenceable(1400), ptr noundef nonnull align 8 dereferenceable(28), ptr noundef nonnull align 8 dereferenceable(8)) unnamed_addr #2

; Function Attrs: uwtable
define dso_local noundef ptr @_ZN10xalanc_1_836StylesheetConstructionContextDefault6createERKNS_15XSLTInputSourceE(ptr noundef nonnull align 8 dereferenceable(1024) %0, ptr noundef nonnull align 8 dereferenceable(64) %1) unnamed_addr #1 align 2 personality ptr @__gxx_personality_v0 {
  %3 = alloca %"class.xalanc_1_8::XalanDOMString", align 8
  %4 = load ptr, ptr %1, align 8, !tbaa !175
  %5 = getelementptr inbounds ptr, ptr %4, i64 5
  %6 = load ptr, ptr %5, align 8
  %7 = tail call noundef ptr %6(ptr noundef nonnull align 8 dereferenceable(41) %1)
  call void @llvm.lifetime.start.p0(i64 32, ptr nonnull %3) #18
  %8 = icmp eq ptr %7, null
  br i1 %8, label %9, label %10

9:                                                ; preds = %2
  call void @_ZN10xalanc_1_814XalanDOMStringC1Ev(ptr noundef nonnull align 8 dereferenceable(28) %3)
  br label %11

10:                                               ; preds = %2
  call void @_ZN10xalanc_1_814XalanDOMStringC1EPKtj(ptr noundef nonnull align 8 dereferenceable(28) %3, ptr noundef nonnull %7, i32 noundef -1)
  br label %11

11:                                               ; preds = %10, %9
  %12 = load ptr, ptr %0, align 8, !tbaa !175
  %13 = getelementptr inbounds ptr, ptr %12, i64 9
  %14 = load ptr, ptr %13, align 8
  %15 = invoke noundef ptr %14(ptr noundef nonnull align 8 dereferenceable(1024) %0, ptr noundef nonnull align 8 dereferenceable(28) %3)
          to label %16 unwind label %21

16:                                               ; preds = %11
  %17 = load ptr, ptr %3, align 8, !tbaa !202
  %18 = icmp eq ptr %17, null
  br i1 %18, label %20, label %19

19:                                               ; preds = %16
  call void @_ZdlPv(ptr noundef nonnull %17) #18
  br label %20

20:                                               ; preds = %16, %19
  call void @llvm.lifetime.end.p0(i64 32, ptr nonnull %3) #18
  ret ptr %15

21:                                               ; preds = %11
  %22 = landingpad { ptr, i32 }
          cleanup
  %23 = load ptr, ptr %3, align 8, !tbaa !202
  %24 = icmp eq ptr %23, null
  br i1 %24, label %26, label %25

25:                                               ; preds = %21
  call void @_ZdlPv(ptr noundef nonnull %23) #18
  br label %26

26:                                               ; preds = %25, %21
  call void @llvm.lifetime.end.p0(i64 32, ptr nonnull %3) #18
  resume { ptr, i32 } %22
}

declare void @_ZN10xalanc_1_814XalanDOMStringC1EPKtj(ptr noundef nonnull align 8 dereferenceable(28), ptr noundef, i32 noundef) unnamed_addr #2

; Function Attrs: uwtable
define dso_local noundef nonnull ptr @_ZN10xalanc_1_836StylesheetConstructionContextDefault6createERNS_14StylesheetRootERKNS_14XalanDOMStringE(ptr noundef nonnull align 8 dereferenceable(1024) %0, ptr noundef nonnull align 8 dereferenceable(1400) %1, ptr noundef nonnull align 8 dereferenceable(28) %2) unnamed_addr #1 align 2 personality ptr @__gxx_personality_v0 {
  %4 = tail call noalias noundef nonnull dereferenceable(1000) ptr @_Znwm(i64 noundef 1000) #16
  invoke void @_ZN10xalanc_1_810StylesheetC1ERNS_14StylesheetRootERKNS_14XalanDOMStringERNS_29StylesheetConstructionContextE(ptr noundef nonnull align 8 dereferenceable(1000) %4, ptr noundef nonnull align 8 dereferenceable(1400) %1, ptr noundef nonnull align 8 dereferenceable(28) %2, ptr noundef nonnull align 8 dereferenceable(8) %0)
          to label %5 unwind label %6

5:                                                ; preds = %3
  ret ptr %4

6:                                                ; preds = %3
  %7 = landingpad { ptr, i32 }
          cleanup
  tail call void @_ZdlPv(ptr noundef nonnull %4) #17
  resume { ptr, i32 } %7
}

declare void @_ZN10xalanc_1_810StylesheetC1ERNS_14StylesheetRootERKNS_14XalanDOMStringERNS_29StylesheetConstructionContextE(ptr noundef nonnull align 8 dereferenceable(1000), ptr noundef nonnull align 8 dereferenceable(1400), ptr noundef nonnull align 8 dereferenceable(28), ptr noundef nonnull align 8 dereferenceable(8)) unnamed_addr #2

; Function Attrs: uwtable
define dso_local void @_ZN10xalanc_1_836StylesheetConstructionContextDefault7destroyEPNS_14StylesheetRootE(ptr noundef nonnull align 8 dereferenceable(1024) %0, ptr noundef %1) unnamed_addr #1 align 2 {
  %3 = getelementptr inbounds %"class.xalanc_1_8::StylesheetConstructionContextDefault", ptr %0, i64 0, i32 4
  %4 = load ptr, ptr %3, align 8, !tbaa !178
  %5 = getelementptr inbounds %"class.xalanc_1_8::StylesheetConstructionContextDefault", ptr %0, i64 0, i32 4, i32 0, i32 0, i32 0, i32 1
  %6 = load ptr, ptr %5, align 8, !tbaa !178
  %7 = ptrtoint ptr %6 to i64
  %8 = ptrtoint ptr %4 to i64
  %9 = sub i64 %7, %8
  %10 = icmp sgt i64 %9, 31
  br i1 %10, label %11, label %37

11:                                               ; preds = %2
  %12 = lshr i64 %9, 5
  br label %13

13:                                               ; preds = %30, %11
  %14 = phi i64 [ %12, %11 ], [ %32, %30 ]
  %15 = phi ptr [ %4, %11 ], [ %31, %30 ]
  %16 = load ptr, ptr %15, align 8, !tbaa !178
  %17 = icmp eq ptr %16, %1
  br i1 %17, label %63, label %18

18:                                               ; preds = %13
  %19 = getelementptr inbounds ptr, ptr %15, i64 1
  %20 = load ptr, ptr %19, align 8, !tbaa !178
  %21 = icmp eq ptr %20, %1
  br i1 %21, label %57, label %22

22:                                               ; preds = %18
  %23 = getelementptr inbounds ptr, ptr %15, i64 2
  %24 = load ptr, ptr %23, align 8, !tbaa !178
  %25 = icmp eq ptr %24, %1
  br i1 %25, label %59, label %26

26:                                               ; preds = %22
  %27 = getelementptr inbounds ptr, ptr %15, i64 3
  %28 = load ptr, ptr %27, align 8, !tbaa !178
  %29 = icmp eq ptr %28, %1
  br i1 %29, label %61, label %30

30:                                               ; preds = %26
  %31 = getelementptr inbounds ptr, ptr %15, i64 4
  %32 = add nsw i64 %14, -1
  %33 = icmp sgt i64 %14, 1
  br i1 %33, label %13, label %34

34:                                               ; preds = %30
  %35 = ptrtoint ptr %31 to i64
  %36 = sub i64 %7, %35
  br label %37

37:                                               ; preds = %34, %2
  %38 = phi i64 [ %36, %34 ], [ %9, %2 ]
  %39 = phi ptr [ %31, %34 ], [ %4, %2 ]
  %40 = ashr exact i64 %38, 3
  switch i64 %40, label %82 [
    i64 3, label %41
    i64 2, label %46
    i64 1, label %52
  ]

41:                                               ; preds = %37
  %42 = load ptr, ptr %39, align 8, !tbaa !178
  %43 = icmp eq ptr %42, %1
  br i1 %43, label %63, label %44

44:                                               ; preds = %41
  %45 = getelementptr inbounds ptr, ptr %39, i64 1
  br label %46

46:                                               ; preds = %37, %44
  %47 = phi ptr [ %45, %44 ], [ %39, %37 ]
  %48 = load ptr, ptr %47, align 8, !tbaa !178
  %49 = icmp eq ptr %48, %1
  br i1 %49, label %63, label %50

50:                                               ; preds = %46
  %51 = getelementptr inbounds ptr, ptr %47, i64 1
  br label %52

52:                                               ; preds = %37, %50
  %53 = phi ptr [ %51, %50 ], [ %39, %37 ]
  %54 = load ptr, ptr %53, align 8, !tbaa !178
  %55 = icmp eq ptr %54, %1
  %56 = select i1 %55, ptr %53, ptr %6
  br label %63

57:                                               ; preds = %18
  %58 = getelementptr inbounds ptr, ptr %15, i64 1
  br label %63

59:                                               ; preds = %22
  %60 = getelementptr inbounds ptr, ptr %15, i64 2
  br label %63

61:                                               ; preds = %26
  %62 = getelementptr inbounds ptr, ptr %15, i64 3
  br label %63

63:                                               ; preds = %13, %57, %59, %61, %41, %46, %52
  %64 = phi ptr [ %39, %41 ], [ %47, %46 ], [ %56, %52 ], [ %58, %57 ], [ %60, %59 ], [ %62, %61 ], [ %15, %13 ]
  %65 = icmp eq ptr %64, %6
  br i1 %65, label %82, label %66

66:                                               ; preds = %63
  %67 = getelementptr inbounds ptr, ptr %64, i64 1
  %68 = icmp eq ptr %67, %6
  br i1 %68, label %73, label %69

69:                                               ; preds = %66
  %70 = ptrtoint ptr %67 to i64
  %71 = sub i64 %7, %70
  tail call void @llvm.memmove.p0.p0.i64(ptr align 8 %64, ptr nonnull align 8 %67, i64 %71, i1 false)
  %72 = load ptr, ptr %5, align 8, !tbaa !324
  br label %73

73:                                               ; preds = %66, %69
  %74 = phi ptr [ %72, %69 ], [ %6, %66 ]
  %75 = getelementptr inbounds ptr, ptr %74, i64 -1
  store ptr %75, ptr %5, align 8, !tbaa !324
  %76 = icmp eq ptr %1, null
  br i1 %76, label %82, label %77

77:                                               ; preds = %73
  %78 = load ptr, ptr %1, align 8, !tbaa !175
  %79 = getelementptr inbounds ptr, ptr %78, i64 1
  %80 = load ptr, ptr %79, align 8
  tail call void %80(ptr noundef nonnull align 8 dereferenceable(1400) %1)
  %81 = load ptr, ptr %5, align 8, !tbaa !178
  br label %82

82:                                               ; preds = %37, %73, %77, %63
  %83 = phi ptr [ %6, %37 ], [ %75, %73 ], [ %81, %77 ], [ %6, %63 ]
  %84 = load ptr, ptr %3, align 8, !tbaa !178
  %85 = icmp eq ptr %84, %83
  br i1 %85, label %86, label %90

86:                                               ; preds = %82
  %87 = load ptr, ptr %0, align 8, !tbaa !175
  %88 = getelementptr inbounds ptr, ptr %87, i64 2
  %89 = load ptr, ptr %88, align 8
  tail call void %89(ptr noundef nonnull align 8 dereferenceable(1024) %0)
  br label %90

90:                                               ; preds = %86, %82
  ret void
}

; Function Attrs: uwtable
define dso_local void @_ZN10xalanc_1_836StylesheetConstructionContextDefault16getURLFromStringERKNS_14XalanDOMStringE(ptr noalias sret(%"class.xalanc_1_8::XalanAutoPtr.265") align 8 %0, ptr nocapture nonnull readnone align 8 %1, ptr nocapture noundef nonnull readonly align 8 dereferenceable(28) %2) unnamed_addr #1 align 2 {
  %4 = load ptr, ptr %2, align 8, !tbaa !178, !noalias !363
  %5 = getelementptr inbounds %"struct.std::_Vector_base<unsigned short, std::allocator<unsigned short> >::_Vector_impl_data", ptr %2, i64 0, i32 1
  %6 = load ptr, ptr %5, align 8, !tbaa !178, !noalias !363
  %7 = icmp eq ptr %4, %6
  %8 = select i1 %7, ptr @_ZN10xalanc_1_814XalanDOMString7s_emptyE, ptr %4
  tail call void @_ZN10xalanc_1_810URISupport16getURLFromStringEPKt(ptr sret(%"class.xalanc_1_8::XalanAutoPtr.265") align 8 %0, ptr noundef %8)
  ret void
}

; Function Attrs: uwtable
define dso_local void @_ZN10xalanc_1_836StylesheetConstructionContextDefault22getURLStringFromStringERKNS_14XalanDOMStringE(ptr noalias nonnull sret(%"class.xalanc_1_8::XalanDOMString") align 8 %0, ptr nocapture nonnull readnone align 8 %1, ptr nocapture noundef nonnull readonly align 8 dereferenceable(28) %2) unnamed_addr #1 align 2 personality ptr @__gxx_personality_v0 {
  tail call void @llvm.experimental.noalias.scope.decl(metadata !366)
  tail call void @_ZN10xalanc_1_814XalanDOMStringC1Ev(ptr noundef nonnull align 8 dereferenceable(28) %0)
  %4 = load ptr, ptr %2, align 8, !tbaa !178, !noalias !366
  %5 = getelementptr inbounds %"struct.std::_Vector_base<unsigned short, std::allocator<unsigned short> >::_Vector_impl_data", ptr %2, i64 0, i32 1
  %6 = load ptr, ptr %5, align 8, !tbaa !178, !noalias !366
  %7 = icmp eq ptr %4, %6
  %8 = select i1 %7, ptr @_ZN10xalanc_1_814XalanDOMString7s_emptyE, ptr %4
  %9 = getelementptr inbounds %"class.xalanc_1_8::XalanDOMString", ptr %2, i64 0, i32 1
  %10 = load i32, ptr %9, align 8, !tbaa !369, !noalias !366
  invoke void @_ZN10xalanc_1_810URISupport22getURLStringFromStringEPKtjRNS_14XalanDOMStringE(ptr noundef %8, i32 noundef %10, ptr noundef nonnull align 8 dereferenceable(28) %0)
          to label %17 unwind label %11

11:                                               ; preds = %3
  %12 = landingpad { ptr, i32 }
          cleanup
  %13 = load ptr, ptr %0, align 8, !tbaa !202, !alias.scope !366
  %14 = icmp eq ptr %13, null
  br i1 %14, label %16, label %15

15:                                               ; preds = %11
  tail call void @_ZdlPv(ptr noundef nonnull %13) #18
  br label %16

16:                                               ; preds = %15, %11
  resume { ptr, i32 } %12

17:                                               ; preds = %3
  ret void
}

; Function Attrs: uwtable
define dso_local void @_ZN10xalanc_1_836StylesheetConstructionContextDefault16getURLFromStringERKNS_14XalanDOMStringES3_(ptr noalias sret(%"class.xalanc_1_8::XalanAutoPtr.265") align 8 %0, ptr nocapture nonnull readnone align 8 %1, ptr noundef nonnull align 8 dereferenceable(28) %2, ptr noundef nonnull align 8 dereferenceable(28) %3) unnamed_addr #1 align 2 {
  tail call void @_ZN10xalanc_1_810URISupport16getURLFromStringERKNS_14XalanDOMStringES3_(ptr sret(%"class.xalanc_1_8::XalanAutoPtr.265") align 8 %0, ptr noundef nonnull align 8 dereferenceable(28) %2, ptr noundef nonnull align 8 dereferenceable(28) %3)
  ret void
}

; Function Attrs: uwtable
define linkonce_odr dso_local void @_ZN10xalanc_1_810URISupport16getURLFromStringERKNS_14XalanDOMStringES3_(ptr noalias sret(%"class.xalanc_1_8::XalanAutoPtr.265") align 8 %0, ptr noundef nonnull align 8 dereferenceable(28) %1, ptr noundef nonnull align 8 dereferenceable(28) %2) local_unnamed_addr #1 comdat align 2 personality ptr @__gxx_personality_v0 {
  %4 = alloca %"class.xalanc_1_8::XalanDOMString", align 8
  call void @llvm.lifetime.start.p0(i64 32, ptr nonnull %4) #18
  tail call void @llvm.experimental.noalias.scope.decl(metadata !370)
  call void @_ZN10xalanc_1_814XalanDOMStringC1Ev(ptr noundef nonnull align 8 dereferenceable(28) %4)
  %5 = load ptr, ptr %1, align 8, !tbaa !178, !noalias !370
  %6 = getelementptr inbounds %"struct.std::_Vector_base<unsigned short, std::allocator<unsigned short> >::_Vector_impl_data", ptr %1, i64 0, i32 1
  %7 = load ptr, ptr %6, align 8, !tbaa !178, !noalias !370
  %8 = icmp eq ptr %5, %7
  %9 = select i1 %8, ptr @_ZN10xalanc_1_814XalanDOMString7s_emptyE, ptr %5
  %10 = getelementptr inbounds %"class.xalanc_1_8::XalanDOMString", ptr %1, i64 0, i32 1
  %11 = load i32, ptr %10, align 8, !tbaa !369, !noalias !370
  %12 = load ptr, ptr %2, align 8, !tbaa !178, !noalias !370
  %13 = getelementptr inbounds %"struct.std::_Vector_base<unsigned short, std::allocator<unsigned short> >::_Vector_impl_data", ptr %2, i64 0, i32 1
  %14 = load ptr, ptr %13, align 8, !tbaa !178, !noalias !370
  %15 = icmp eq ptr %12, %14
  %16 = select i1 %15, ptr @_ZN10xalanc_1_814XalanDOMString7s_emptyE, ptr %12
  %17 = getelementptr inbounds %"class.xalanc_1_8::XalanDOMString", ptr %2, i64 0, i32 1
  %18 = load i32, ptr %17, align 8, !tbaa !369, !noalias !370
  invoke void @_ZN10xalanc_1_810URISupport22getURLStringFromStringEPKtjS2_jRNS_14XalanDOMStringE(ptr noundef %9, i32 noundef %11, ptr noundef %16, i32 noundef %18, ptr noundef nonnull align 8 dereferenceable(28) %4)
          to label %26 unwind label %19

19:                                               ; preds = %3
  %20 = landingpad { ptr, i32 }
          cleanup
  %21 = load ptr, ptr %4, align 8, !tbaa !202, !alias.scope !370
  %22 = icmp eq ptr %21, null
  br i1 %22, label %24, label %23

23:                                               ; preds = %19
  call void @_ZdlPv(ptr noundef nonnull %21) #18
  br label %24

24:                                               ; preds = %19, %23, %42
  %25 = phi { ptr, i32 } [ %38, %42 ], [ %20, %23 ], [ %20, %19 ]
  resume { ptr, i32 } %25

26:                                               ; preds = %3
  %27 = load ptr, ptr %4, align 8, !tbaa !178, !noalias !373
  %28 = getelementptr inbounds %"struct.std::_Vector_base<unsigned short, std::allocator<unsigned short> >::_Vector_impl_data", ptr %4, i64 0, i32 1
  %29 = load ptr, ptr %28, align 8, !tbaa !178, !noalias !373
  %30 = icmp eq ptr %27, %29
  %31 = select i1 %30, ptr @_ZN10xalanc_1_814XalanDOMString7s_emptyE, ptr %27
  invoke void @_ZN10xalanc_1_810URISupport16getURLFromStringEPKt(ptr sret(%"class.xalanc_1_8::XalanAutoPtr.265") align 8 %0, ptr noundef %31)
          to label %32 unwind label %37

32:                                               ; preds = %26
  %33 = load ptr, ptr %4, align 8, !tbaa !202
  %34 = icmp eq ptr %33, null
  br i1 %34, label %36, label %35

35:                                               ; preds = %32
  call void @_ZdlPv(ptr noundef nonnull %33) #18
  br label %36

36:                                               ; preds = %32, %35
  call void @llvm.lifetime.end.p0(i64 32, ptr nonnull %4) #18
  ret void

37:                                               ; preds = %26
  %38 = landingpad { ptr, i32 }
          cleanup
  %39 = load ptr, ptr %4, align 8, !tbaa !202
  %40 = icmp eq ptr %39, null
  br i1 %40, label %42, label %41

41:                                               ; preds = %37
  call void @_ZdlPv(ptr noundef nonnull %39) #18
  br label %42

42:                                               ; preds = %41, %37
  call void @llvm.lifetime.end.p0(i64 32, ptr nonnull %4) #18
  br label %24
}

; Function Attrs: uwtable
define dso_local void @_ZN10xalanc_1_836StylesheetConstructionContextDefault22getURLStringFromStringERKNS_14XalanDOMStringES3_(ptr noalias nonnull sret(%"class.xalanc_1_8::XalanDOMString") align 8 %0, ptr nocapture nonnull readnone align 8 %1, ptr nocapture noundef nonnull readonly align 8 dereferenceable(28) %2, ptr nocapture noundef nonnull readonly align 8 dereferenceable(28) %3) unnamed_addr #1 align 2 personality ptr @__gxx_personality_v0 {
  tail call void @llvm.experimental.noalias.scope.decl(metadata !376)
  tail call void @_ZN10xalanc_1_814XalanDOMStringC1Ev(ptr noundef nonnull align 8 dereferenceable(28) %0)
  %5 = load ptr, ptr %2, align 8, !tbaa !178, !noalias !376
  %6 = getelementptr inbounds %"struct.std::_Vector_base<unsigned short, std::allocator<unsigned short> >::_Vector_impl_data", ptr %2, i64 0, i32 1
  %7 = load ptr, ptr %6, align 8, !tbaa !178, !noalias !376
  %8 = icmp eq ptr %5, %7
  %9 = select i1 %8, ptr @_ZN10xalanc_1_814XalanDOMString7s_emptyE, ptr %5
  %10 = getelementptr inbounds %"class.xalanc_1_8::XalanDOMString", ptr %2, i64 0, i32 1
  %11 = load i32, ptr %10, align 8, !tbaa !369, !noalias !376
  %12 = load ptr, ptr %3, align 8, !tbaa !178, !noalias !376
  %13 = getelementptr inbounds %"struct.std::_Vector_base<unsigned short, std::allocator<unsigned short> >::_Vector_impl_data", ptr %3, i64 0, i32 1
  %14 = load ptr, ptr %13, align 8, !tbaa !178, !noalias !376
  %15 = icmp eq ptr %12, %14
  %16 = select i1 %15, ptr @_ZN10xalanc_1_814XalanDOMString7s_emptyE, ptr %12
  %17 = getelementptr inbounds %"class.xalanc_1_8::XalanDOMString", ptr %3, i64 0, i32 1
  %18 = load i32, ptr %17, align 8, !tbaa !369, !noalias !376
  invoke void @_ZN10xalanc_1_810URISupport22getURLStringFromStringEPKtjS2_jRNS_14XalanDOMStringE(ptr noundef %9, i32 noundef %11, ptr noundef %16, i32 noundef %18, ptr noundef nonnull align 8 dereferenceable(28) %0)
          to label %25 unwind label %19

19:                                               ; preds = %4
  %20 = landingpad { ptr, i32 }
          cleanup
  %21 = load ptr, ptr %0, align 8, !tbaa !202, !alias.scope !376
  %22 = icmp eq ptr %21, null
  br i1 %22, label %24, label %23

23:                                               ; preds = %19
  tail call void @_ZdlPv(ptr noundef nonnull %21) #18
  br label %24

24:                                               ; preds = %23, %19
  resume { ptr, i32 } %20

25:                                               ; preds = %4
  ret void
}

; Function Attrs: mustprogress nofree norecurse nosync nounwind willreturn memory(none) uwtable
define dso_local noundef nonnull align 8 dereferenceable(28) ptr @_ZNK10xalanc_1_836StylesheetConstructionContextDefault19getXSLTNamespaceURIEv(ptr nocapture nonnull readnone align 8 %0) unnamed_addr #6 align 2 {
  %2 = load ptr, ptr @_ZN10xalanc_1_814XSLTEngineImpl17s_XSLNameSpaceURLE, align 8, !tbaa !178
  ret ptr %2
}

; Function Attrs: uwtable
define dso_local noundef ptr @_ZN10xalanc_1_836StylesheetConstructionContextDefault18createMatchPatternEPKN11xercesc_2_57LocatorERKNS_14XalanDOMStringERKNS_14PrefixResolverE(ptr noundef nonnull align 8 dereferenceable(1024) %0, ptr noundef %1, ptr noundef nonnull align 8 dereferenceable(28) %2, ptr noundef nonnull align 8 dereferenceable(8) %3) unnamed_addr #1 align 2 {
  %5 = getelementptr inbounds %"class.xalanc_1_8::StylesheetConstructionContextDefault", ptr %0, i64 0, i32 2
  %6 = load ptr, ptr %5, align 8, !tbaa !326
  %7 = load ptr, ptr %6, align 8, !tbaa !175
  %8 = getelementptr inbounds ptr, ptr %7, i64 3
  %9 = load ptr, ptr %8, align 8
  %10 = tail call noundef ptr %9(ptr noundef nonnull align 8 dereferenceable(8) %6)
  %11 = getelementptr inbounds %"class.xalanc_1_8::StylesheetConstructionContextDefault", ptr %0, i64 0, i32 3
  %12 = load ptr, ptr %11, align 8, !tbaa !181
  %13 = load ptr, ptr %0, align 8, !tbaa !175
  %14 = getelementptr inbounds ptr, ptr %13, i64 23
  %15 = load ptr, ptr %14, align 8
  %16 = tail call noundef ptr %15(ptr noundef nonnull align 8 dereferenceable(1024) %0)
  %17 = load ptr, ptr %12, align 8, !tbaa !175
  %18 = getelementptr inbounds ptr, ptr %17, i64 3
  %19 = load ptr, ptr %18, align 8
  tail call void %19(ptr noundef nonnull align 8 dereferenceable(8) %12, ptr noundef nonnull align 8 dereferenceable(105) %10, ptr noundef nonnull align 8 dereferenceable(8) %0, ptr noundef nonnull align 8 dereferenceable(28) %2, ptr noundef nonnull align 8 dereferenceable(8) %3, ptr noundef %16)
  %20 = getelementptr inbounds %"class.xalanc_1_8::XPath", ptr %10, i64 0, i32 2
  store i8 1, ptr %20, align 8, !tbaa !379
  %21 = getelementptr inbounds %"class.xalanc_1_8::XPath", ptr %10, i64 0, i32 1
  store ptr %1, ptr %21, align 8, !tbaa !395
  ret ptr %10
}

; Function Attrs: uwtable
define dso_local noundef ptr @_ZN10xalanc_1_836StylesheetConstructionContextDefault18createMatchPatternEPKN11xercesc_2_57LocatorEPKtRKNS_14PrefixResolverE(ptr noundef nonnull align 8 dereferenceable(1024) %0, ptr noundef %1, ptr noundef %2, ptr noundef nonnull align 8 dereferenceable(8) %3) unnamed_addr #1 align 2 {
  %5 = getelementptr inbounds %"class.xalanc_1_8::StylesheetConstructionContextDefault", ptr %0, i64 0, i32 7
  tail call void @_ZN10xalanc_1_814XalanDOMString5eraseEjj(ptr noundef nonnull align 8 dereferenceable(28) %5, i32 noundef 0, i32 noundef -1)
  %6 = tail call noundef i32 @_ZN10xalanc_1_814XalanDOMString6lengthEPKt(ptr noundef %2)
  %7 = tail call noundef nonnull align 8 dereferenceable(28) ptr @_ZN10xalanc_1_814XalanDOMString6appendEPKtj(ptr noundef nonnull align 8 dereferenceable(28) %5, ptr noundef %2, i32 noundef %6)
  %8 = load ptr, ptr %0, align 8, !tbaa !175
  %9 = getelementptr inbounds ptr, ptr %8, i64 18
  %10 = load ptr, ptr %9, align 8
  %11 = tail call noundef ptr %10(ptr noundef nonnull align 8 dereferenceable(1024) %0, ptr noundef %1, ptr noundef nonnull align 8 dereferenceable(28) %5, ptr noundef nonnull align 8 dereferenceable(8) %3)
  ret ptr %11
}

; Function Attrs: uwtable
define dso_local noundef ptr @_ZN10xalanc_1_836StylesheetConstructionContextDefault11createXPathEPKN11xercesc_2_57LocatorERKNS_14XalanDOMStringERKNS_14PrefixResolverE(ptr noundef nonnull align 8 dereferenceable(1024) %0, ptr noundef %1, ptr noundef nonnull align 8 dereferenceable(28) %2, ptr noundef nonnull align 8 dereferenceable(8) %3) unnamed_addr #1 align 2 {
  %5 = getelementptr inbounds %"class.xalanc_1_8::StylesheetConstructionContextDefault", ptr %0, i64 0, i32 2
  %6 = load ptr, ptr %5, align 8, !tbaa !326
  %7 = load ptr, ptr %6, align 8, !tbaa !175
  %8 = getelementptr inbounds ptr, ptr %7, i64 3
  %9 = load ptr, ptr %8, align 8
  %10 = tail call noundef ptr %9(ptr noundef nonnull align 8 dereferenceable(8) %6)
  %11 = getelementptr inbounds %"class.xalanc_1_8::StylesheetConstructionContextDefault", ptr %0, i64 0, i32 3
  %12 = load ptr, ptr %11, align 8, !tbaa !181
  %13 = load ptr, ptr %0, align 8, !tbaa !175
  %14 = getelementptr inbounds ptr, ptr %13, i64 23
  %15 = load ptr, ptr %14, align 8
  %16 = tail call noundef ptr %15(ptr noundef nonnull align 8 dereferenceable(1024) %0)
  %17 = load ptr, ptr %12, align 8, !tbaa !175
  %18 = getelementptr inbounds ptr, ptr %17, i64 2
  %19 = load ptr, ptr %18, align 8
  tail call void %19(ptr noundef nonnull align 8 dereferenceable(8) %12, ptr noundef nonnull align 8 dereferenceable(105) %10, ptr noundef nonnull align 8 dereferenceable(8) %0, ptr noundef nonnull align 8 dereferenceable(28) %2, ptr noundef nonnull align 8 dereferenceable(8) %3, ptr noundef %16)
  %20 = getelementptr inbounds %"class.xalanc_1_8::XPath", ptr %10, i64 0, i32 2
  store i8 1, ptr %20, align 8, !tbaa !379
  %21 = getelementptr inbounds %"class.xalanc_1_8::XPath", ptr %10, i64 0, i32 1
  store ptr %1, ptr %21, align 8, !tbaa !395
  ret ptr %10
}

; Function Attrs: uwtable
define dso_local noundef ptr @_ZN10xalanc_1_836StylesheetConstructionContextDefault11createXPathEPKN11xercesc_2_57LocatorEPKtRKNS_14PrefixResolverE(ptr noundef nonnull align 8 dereferenceable(1024) %0, ptr noundef %1, ptr noundef %2, ptr noundef nonnull align 8 dereferenceable(8) %3) unnamed_addr #1 align 2 {
  %5 = getelementptr inbounds %"class.xalanc_1_8::StylesheetConstructionContextDefault", ptr %0, i64 0, i32 7
  tail call void @_ZN10xalanc_1_814XalanDOMString5eraseEjj(ptr noundef nonnull align 8 dereferenceable(28) %5, i32 noundef 0, i32 noundef -1)
  %6 = tail call noundef i32 @_ZN10xalanc_1_814XalanDOMString6lengthEPKt(ptr noundef %2)
  %7 = tail call noundef nonnull align 8 dereferenceable(28) ptr @_ZN10xalanc_1_814XalanDOMString6appendEPKtj(ptr noundef nonnull align 8 dereferenceable(28) %5, ptr noundef %2, i32 noundef %6)
  %8 = load ptr, ptr %0, align 8, !tbaa !175
  %9 = getelementptr inbounds ptr, ptr %8, i64 20
  %10 = load ptr, ptr %9, align 8
  %11 = tail call noundef ptr %10(ptr noundef nonnull align 8 dereferenceable(1024) %0, ptr noundef %1, ptr noundef nonnull align 8 dereferenceable(28) %5, ptr noundef nonnull align 8 dereferenceable(8) %3)
  ret ptr %11
}

; Function Attrs: uwtable
define dso_local noundef ptr @_ZN10xalanc_1_836StylesheetConstructionContextDefault11createXPathEPKN11xercesc_2_57LocatorEPKtjRKNS_14PrefixResolverE(ptr noundef nonnull align 8 dereferenceable(1024) %0, ptr noundef %1, ptr noundef %2, i32 noundef %3, ptr noundef nonnull align 8 dereferenceable(8) %4) unnamed_addr #1 align 2 {
  %6 = getelementptr inbounds %"class.xalanc_1_8::StylesheetConstructionContextDefault", ptr %0, i64 0, i32 7
  %7 = icmp eq i32 %3, -1
  tail call void @_ZN10xalanc_1_814XalanDOMString5eraseEjj(ptr noundef nonnull align 8 dereferenceable(28) %6, i32 noundef 0, i32 noundef -1)
  br i1 %7, label %8, label %10

8:                                                ; preds = %5
  %9 = tail call noundef i32 @_ZN10xalanc_1_814XalanDOMString6lengthEPKt(ptr noundef %2)
  br label %10

10:                                               ; preds = %5, %8
  %11 = phi i32 [ %9, %8 ], [ %3, %5 ]
  %12 = tail call noundef nonnull align 8 dereferenceable(28) ptr @_ZN10xalanc_1_814XalanDOMString6appendEPKtj(ptr noundef nonnull align 8 dereferenceable(28) %6, ptr noundef %2, i32 noundef %11)
  %13 = load ptr, ptr %0, align 8, !tbaa !175
  %14 = getelementptr inbounds ptr, ptr %13, i64 20
  %15 = load ptr, ptr %14, align 8
  %16 = tail call noundef ptr %15(ptr noundef nonnull align 8 dereferenceable(1024) %0, ptr noundef %1, ptr noundef nonnull align 8 dereferenceable(28) %6, ptr noundef nonnull align 8 dereferenceable(8) %4)
  ret ptr %16
}

; Function Attrs: mustprogress nofree norecurse nosync nounwind willreturn memory(read, inaccessiblemem: none) uwtable
define dso_local noundef ptr @_ZNK10xalanc_1_836StylesheetConstructionContextDefault19getLocatorFromStackEv(ptr nocapture noundef nonnull readonly align 8 dereferenceable(1024) %0) unnamed_addr #7 align 2 {
  %2 = getelementptr inbounds %"class.xalanc_1_8::StylesheetConstructionContextDefault", ptr %0, i64 0, i32 1
  %3 = load ptr, ptr %2, align 8, !tbaa !208
  %4 = getelementptr inbounds %"class.xalanc_1_8::XSLTEngineImpl", ptr %3, i64 0, i32 8
  %5 = load ptr, ptr %4, align 8, !tbaa !178
  %6 = getelementptr inbounds %"class.xalanc_1_8::XSLTEngineImpl", ptr %3, i64 0, i32 8, i32 0, i32 0, i32 0, i32 1
  %7 = load ptr, ptr %6, align 8, !tbaa !178
  %8 = icmp eq ptr %5, %7
  br i1 %8, label %12, label %9

9:                                                ; preds = %1
  %10 = getelementptr inbounds ptr, ptr %7, i64 -1
  %11 = load ptr, ptr %10, align 8, !tbaa !178
  br label %12

12:                                               ; preds = %1, %9
  %13 = phi ptr [ %11, %9 ], [ null, %1 ]
  ret ptr %13
}

; Function Attrs: uwtable
define dso_local void @_ZN10xalanc_1_836StylesheetConstructionContextDefault18pushLocatorOnStackEPKN11xercesc_2_57LocatorE(ptr nocapture noundef nonnull readonly align 8 dereferenceable(1024) %0, ptr noundef %1) unnamed_addr #1 align 2 personality ptr @__gxx_personality_v0 {
  %3 = getelementptr inbounds %"class.xalanc_1_8::StylesheetConstructionContextDefault", ptr %0, i64 0, i32 1
  %4 = load ptr, ptr %3, align 8, !tbaa !208
  %5 = getelementptr inbounds %"class.xalanc_1_8::XSLTEngineImpl", ptr %4, i64 0, i32 8
  %6 = getelementptr inbounds %"class.xalanc_1_8::XSLTEngineImpl", ptr %4, i64 0, i32 8, i32 0, i32 0, i32 0, i32 1
  %7 = load ptr, ptr %6, align 8, !tbaa !178
  %8 = getelementptr inbounds %"class.xalanc_1_8::XSLTEngineImpl", ptr %4, i64 0, i32 8, i32 0, i32 0, i32 0, i32 2
  %9 = load ptr, ptr %8, align 8, !tbaa !396
  %10 = icmp eq ptr %7, %9
  br i1 %10, label %14, label %11

11:                                               ; preds = %2
  store ptr %1, ptr %7, align 8, !tbaa !178
  %12 = load ptr, ptr %6, align 8, !tbaa !398
  %13 = getelementptr inbounds ptr, ptr %12, i64 1
  store ptr %13, ptr %6, align 8, !tbaa !398
  br label %44

14:                                               ; preds = %2
  %15 = load ptr, ptr %5, align 8, !tbaa !178
  %16 = ptrtoint ptr %7 to i64
  %17 = ptrtoint ptr %15 to i64
  %18 = sub i64 %16, %17
  %19 = icmp eq i64 %18, 9223372036854775800
  br i1 %19, label %20, label %21

20:                                               ; preds = %14
  tail call void @_ZSt20__throw_length_errorPKc(ptr noundef nonnull @.str) #20
  unreachable

21:                                               ; preds = %14
  %22 = ashr exact i64 %18, 3
  %23 = tail call i64 @llvm.umax.i64(i64 %22, i64 1)
  %24 = add i64 %23, %22
  %25 = icmp ult i64 %24, %22
  %26 = icmp ugt i64 %24, 1152921504606846975
  %27 = or i1 %25, %26
  %28 = select i1 %27, i64 1152921504606846975, i64 %24
  %29 = icmp eq i64 %28, 0
  br i1 %29, label %33, label %30

30:                                               ; preds = %21
  %31 = shl nuw nsw i64 %28, 3
  %32 = tail call noalias noundef nonnull ptr @_Znwm(i64 noundef %31) #21
  br label %33

33:                                               ; preds = %30, %21
  %34 = phi ptr [ %32, %30 ], [ null, %21 ]
  %35 = getelementptr inbounds ptr, ptr %34, i64 %22
  store ptr %1, ptr %35, align 8, !tbaa !178
  %36 = icmp eq ptr %15, %7
  br i1 %36, label %38, label %37

37:                                               ; preds = %33
  tail call void @llvm.memmove.p0.p0.i64(ptr nonnull align 8 %34, ptr align 8 %15, i64 %18, i1 false)
  br label %38

38:                                               ; preds = %37, %33
  %39 = getelementptr inbounds ptr, ptr %35, i64 1
  %40 = icmp eq ptr %15, null
  br i1 %40, label %42, label %41

41:                                               ; preds = %38
  tail call void @_ZdlPv(ptr noundef nonnull %15) #18
  br label %42

42:                                               ; preds = %41, %38
  store ptr %34, ptr %5, align 8, !tbaa !399
  store ptr %39, ptr %6, align 8, !tbaa !398
  %43 = getelementptr inbounds ptr, ptr %34, i64 %28
  store ptr %43, ptr %8, align 8, !tbaa !396
  br label %44

44:                                               ; preds = %11, %42
  ret void
}

; Function Attrs: mustprogress nofree norecurse nosync nounwind willreturn memory(readwrite, inaccessiblemem: none) uwtable
define dso_local void @_ZN10xalanc_1_836StylesheetConstructionContextDefault15popLocatorStackEv(ptr nocapture noundef nonnull readonly align 8 dereferenceable(1024) %0) unnamed_addr #8 align 2 {
  %2 = getelementptr inbounds %"class.xalanc_1_8::StylesheetConstructionContextDefault", ptr %0, i64 0, i32 1
  %3 = load ptr, ptr %2, align 8, !tbaa !208
  %4 = getelementptr inbounds %"class.xalanc_1_8::XSLTEngineImpl", ptr %3, i64 0, i32 8
  %5 = load ptr, ptr %4, align 8, !tbaa !178
  %6 = getelementptr inbounds %"class.xalanc_1_8::XSLTEngineImpl", ptr %3, i64 0, i32 8, i32 0, i32 0, i32 0, i32 1
  %7 = load ptr, ptr %6, align 8, !tbaa !178
  %8 = icmp eq ptr %5, %7
  br i1 %8, label %11, label %9

9:                                                ; preds = %1
  %10 = getelementptr inbounds ptr, ptr %7, i64 -1
  store ptr %10, ptr %6, align 8, !tbaa !398
  br label %11

11:                                               ; preds = %1, %9
  ret void
}

; Function Attrs: mustprogress nofree norecurse nosync nounwind willreturn memory(none) uwtable
define dso_local noundef nonnull align 8 dereferenceable(28) ptr @_ZNK10xalanc_1_836StylesheetConstructionContextDefault23getXalanXSLNameSpaceURLEv(ptr nocapture nonnull readnone align 8 %0) unnamed_addr #6 align 2 {
  %2 = load ptr, ptr @_ZN10xalanc_1_814XSLTEngineImpl19s_XalanNamespaceURLE, align 8, !tbaa !178
  ret ptr %2
}

; Function Attrs: uwtable
define dso_local noundef ptr @_ZN10xalanc_1_836StylesheetConstructionContextDefault8parseXMLERKNS_14XalanDOMStringEPN11xercesc_2_515DocumentHandlerEPNS_13XalanDocumentE(ptr nocapture noundef nonnull readonly align 8 dereferenceable(1024) %0, ptr noundef nonnull align 8 dereferenceable(28) %1, ptr noundef %2, ptr noundef %3) unnamed_addr #1 align 2 {
  %5 = getelementptr inbounds %"class.xalanc_1_8::StylesheetConstructionContextDefault", ptr %0, i64 0, i32 1
  %6 = load ptr, ptr %5, align 8, !tbaa !208
  %7 = tail call noundef ptr @_ZN10xalanc_1_814XSLTEngineImpl8parseXMLERKNS_14XalanDOMStringEPN11xercesc_2_515DocumentHandlerEPNS_13XalanDocumentE(ptr noundef nonnull align 8 dereferenceable(936) %6, ptr noundef nonnull align 8 dereferenceable(28) %1, ptr noundef %2, ptr noundef %3)
  ret ptr %7
}

declare noundef ptr @_ZN10xalanc_1_814XSLTEngineImpl8parseXMLERKNS_14XalanDOMStringEPN11xercesc_2_515DocumentHandlerEPNS_13XalanDocumentE(ptr noundef nonnull align 8 dereferenceable(936), ptr noundef nonnull align 8 dereferenceable(28), ptr noundef, ptr noundef) local_unnamed_addr #2

; Function Attrs: uwtable
define dso_local noundef zeroext i1 @_ZN10xalanc_1_836StylesheetConstructionContextDefault19isXMLSpaceAttributeEPKtRKNS_10StylesheetEPKN11xercesc_2_57LocatorE(ptr noundef nonnull align 8 dereferenceable(1024) %0, ptr noundef %1, ptr noundef nonnull align 8 dereferenceable(1000) %2, ptr noundef %3) unnamed_addr #1 align 2 {
  %5 = getelementptr inbounds %"class.xalanc_1_8::StylesheetConstructionContextDefault", ptr %0, i64 0, i32 8
  %6 = getelementptr inbounds %"class.xalanc_1_8::Stylesheet", ptr %2, i64 0, i32 8
  tail call void @_ZN10xalanc_1_817XalanQNameByValue3setEPKtRKSt5dequeIS3_INS_9NameSpaceESaIS4_EESaIS6_EEPKN11xercesc_2_57LocatorEb(ptr noundef nonnull align 8 dereferenceable(72) %5, ptr noundef %1, ptr noundef nonnull align 8 dereferenceable(80) %6, ptr noundef %3, i1 noundef zeroext true)
  %7 = getelementptr inbounds %"class.xalanc_1_8::StylesheetConstructionContextDefault", ptr %0, i64 0, i32 27
  %8 = load ptr, ptr %7, align 8, !tbaa !175
  %9 = getelementptr inbounds ptr, ptr %8, i64 2
  %10 = load ptr, ptr %9, align 8
  %11 = tail call noundef nonnull align 8 dereferenceable(28) ptr %10(ptr noundef nonnull align 8 dereferenceable(8) %7)
  %12 = load ptr, ptr %5, align 8, !tbaa !175
  %13 = getelementptr inbounds ptr, ptr %12, i64 2
  %14 = load ptr, ptr %13, align 8
  %15 = tail call noundef nonnull align 8 dereferenceable(28) ptr %14(ptr noundef nonnull align 8 dereferenceable(8) %5)
  %16 = tail call noundef zeroext i1 @_ZN10xalanc_1_814XalanDOMString6equalsERKS0_S2_(ptr noundef nonnull align 8 dereferenceable(28) %11, ptr noundef nonnull align 8 dereferenceable(28) %15)
  br i1 %16, label %17, label %27

17:                                               ; preds = %4
  %18 = load ptr, ptr %7, align 8, !tbaa !175
  %19 = getelementptr inbounds ptr, ptr %18, i64 3
  %20 = load ptr, ptr %19, align 8
  %21 = tail call noundef nonnull align 8 dereferenceable(28) ptr %20(ptr noundef nonnull align 8 dereferenceable(8) %7)
  %22 = load ptr, ptr %5, align 8, !tbaa !175
  %23 = getelementptr inbounds ptr, ptr %22, i64 3
  %24 = load ptr, ptr %23, align 8
  %25 = tail call noundef nonnull align 8 dereferenceable(28) ptr %24(ptr noundef nonnull align 8 dereferenceable(8) %5)
  %26 = tail call noundef zeroext i1 @_ZN10xalanc_1_814XalanDOMString6equalsERKS0_S2_(ptr noundef nonnull align 8 dereferenceable(28) %21, ptr noundef nonnull align 8 dereferenceable(28) %25)
  br label %27

27:                                               ; preds = %4, %17
  %28 = phi i1 [ false, %4 ], [ %26, %17 ]
  ret i1 %28
}

declare void @_ZN10xalanc_1_817XalanQNameByValue3setEPKtRKSt5dequeIS3_INS_9NameSpaceESaIS4_EESaIS6_EEPKN11xercesc_2_57LocatorEb(ptr noundef nonnull align 8 dereferenceable(72), ptr noundef, ptr noundef nonnull align 8 dereferenceable(80), ptr noundef, i1 noundef zeroext) local_unnamed_addr #2

; Function Attrs: uwtable
define dso_local noundef zeroext i1 @_ZN10xalanc_1_836StylesheetConstructionContextDefault30isXSLUseAttributeSetsAttributeEPKtRKNS_10StylesheetEPKN11xercesc_2_57LocatorE(ptr noundef nonnull align 8 dereferenceable(1024) %0, ptr noundef %1, ptr noundef nonnull align 8 dereferenceable(1000) %2, ptr noundef %3) unnamed_addr #1 align 2 {
  %5 = getelementptr inbounds %"class.xalanc_1_8::StylesheetConstructionContextDefault", ptr %0, i64 0, i32 8
  %6 = getelementptr inbounds %"class.xalanc_1_8::Stylesheet", ptr %2, i64 0, i32 8
  tail call void @_ZN10xalanc_1_817XalanQNameByValue3setEPKtRKSt5dequeIS3_INS_9NameSpaceESaIS4_EESaIS6_EEPKN11xercesc_2_57LocatorEb(ptr noundef nonnull align 8 dereferenceable(72) %5, ptr noundef %1, ptr noundef nonnull align 8 dereferenceable(80) %6, ptr noundef %3, i1 noundef zeroext true)
  %7 = getelementptr inbounds %"class.xalanc_1_8::StylesheetConstructionContextDefault", ptr %0, i64 0, i32 14
  %8 = load ptr, ptr %7, align 8, !tbaa !175
  %9 = getelementptr inbounds ptr, ptr %8, i64 2
  %10 = load ptr, ptr %9, align 8
  %11 = tail call noundef nonnull align 8 dereferenceable(28) ptr %10(ptr noundef nonnull align 8 dereferenceable(8) %7)
  %12 = load ptr, ptr %5, align 8, !tbaa !175
  %13 = getelementptr inbounds ptr, ptr %12, i64 2
  %14 = load ptr, ptr %13, align 8
  %15 = tail call noundef nonnull align 8 dereferenceable(28) ptr %14(ptr noundef nonnull align 8 dereferenceable(8) %5)
  %16 = tail call noundef zeroext i1 @_ZN10xalanc_1_814XalanDOMString6equalsERKS0_S2_(ptr noundef nonnull align 8 dereferenceable(28) %11, ptr noundef nonnull align 8 dereferenceable(28) %15)
  br i1 %16, label %17, label %27

17:                                               ; preds = %4
  %18 = load ptr, ptr %7, align 8, !tbaa !175
  %19 = getelementptr inbounds ptr, ptr %18, i64 3
  %20 = load ptr, ptr %19, align 8
  %21 = tail call noundef nonnull align 8 dereferenceable(28) ptr %20(ptr noundef nonnull align 8 dereferenceable(8) %7)
  %22 = load ptr, ptr %5, align 8, !tbaa !175
  %23 = getelementptr inbounds ptr, ptr %22, i64 3
  %24 = load ptr, ptr %23, align 8
  %25 = tail call noundef nonnull align 8 dereferenceable(28) ptr %24(ptr noundef nonnull align 8 dereferenceable(8) %5)
  %26 = tail call noundef zeroext i1 @_ZN10xalanc_1_814XalanDOMString6equalsERKS0_S2_(ptr noundef nonnull align 8 dereferenceable(28) %21, ptr noundef nonnull align 8 dereferenceable(28) %25)
  br label %27

27:                                               ; preds = %4, %17
  %28 = phi i1 [ false, %4 ], [ %26, %17 ]
  ret i1 %28
}

; Function Attrs: uwtable
define dso_local noundef zeroext i1 @_ZN10xalanc_1_836StylesheetConstructionContextDefault12isValidQNameEPKtRKNS_10StylesheetEPKN11xercesc_2_57LocatorE(ptr noundef nonnull align 8 dereferenceable(1024) %0, ptr noundef %1, ptr noundef nonnull align 8 dereferenceable(1000) %2, ptr noundef %3) unnamed_addr #1 align 2 {
  %5 = getelementptr inbounds %"class.xalanc_1_8::StylesheetConstructionContextDefault", ptr %0, i64 0, i32 8
  %6 = getelementptr inbounds %"class.xalanc_1_8::Stylesheet", ptr %2, i64 0, i32 8
  tail call void @_ZN10xalanc_1_817XalanQNameByValue3setEPKtRKSt5dequeIS3_INS_9NameSpaceESaIS4_EESaIS6_EEPKN11xercesc_2_57LocatorEb(ptr noundef nonnull align 8 dereferenceable(72) %5, ptr noundef %1, ptr noundef nonnull align 8 dereferenceable(80) %6, ptr noundef %3, i1 noundef zeroext false)
  %7 = load ptr, ptr %5, align 8, !tbaa !175
  %8 = getelementptr inbounds ptr, ptr %7, i64 2
  %9 = load ptr, ptr %8, align 8
  %10 = tail call noundef nonnull align 8 dereferenceable(28) ptr %9(ptr noundef nonnull align 8 dereferenceable(8) %5)
  %11 = tail call noundef zeroext i1 @_ZN10xalanc_1_810XalanQName13isValidNCNameERKNS_14XalanDOMStringE(ptr noundef nonnull align 8 dereferenceable(28) %10)
  ret i1 %11
}

; Function Attrs: uwtable
define dso_local noundef ptr @_ZN10xalanc_1_836StylesheetConstructionContextDefault13createElementEiRNS_10StylesheetERKN11xercesc_2_513AttributeListEPKNS3_7LocatorE(ptr noundef nonnull align 8 dereferenceable(1024) %0, i32 noundef %1, ptr noundef nonnull align 8 dereferenceable(1000) %2, ptr noundef nonnull align 8 dereferenceable(8) %3, ptr noundef %4) unnamed_addr #1 align 2 personality ptr @__gxx_personality_v0 {
  %6 = alloca %"class.xalanc_1_8::XalanDOMString", align 8
  %7 = alloca %"class.xalanc_1_8::XalanDOMString", align 8
  %8 = icmp eq ptr %4, null
  br i1 %8, label %18, label %9

9:                                                ; preds = %5
  %10 = load ptr, ptr %4, align 8, !tbaa !175
  %11 = getelementptr inbounds ptr, ptr %10, i64 4
  %12 = load ptr, ptr %11, align 8
  %13 = tail call noundef i64 %12(ptr noundef nonnull align 8 dereferenceable(8) %4)
  %14 = load ptr, ptr %4, align 8, !tbaa !175
  %15 = getelementptr inbounds ptr, ptr %14, i64 5
  %16 = load ptr, ptr %15, align 8
  %17 = tail call noundef i64 %16(ptr noundef nonnull align 8 dereferenceable(8) %4)
  br label %18

18:                                               ; preds = %5, %9
  %19 = phi i64 [ %13, %9 ], [ -1, %5 ]
  %20 = phi i64 [ %17, %9 ], [ -1, %5 ]
  switch i32 %1, label %848 [
    i32 29, label %21
    i32 1, label %67
    i32 6, label %72
    i32 7, label %77
    i32 14, label %82
    i32 2, label %87
    i32 3, label %133
    i32 4, label %179
    i32 5, label %225
    i32 33, label %271
    i32 28, label %317
    i32 27, label %322
    i32 9, label %368
    i32 11, label %414
    i32 31, label %460
    i32 16, label %506
    i32 17, label %557
    i32 15, label %603
    i32 18, label %649
    i32 21, label %695
    i32 20, label %741
    i32 25, label %746
    i32 30, label %751
    i32 0, label %756
    i32 26, label %802
  ]

21:                                               ; preds = %18
  %22 = getelementptr inbounds %"class.xalanc_1_8::StylesheetConstructionContextDefault", ptr %0, i64 0, i32 16
  %23 = getelementptr inbounds %"class.xalanc_1_8::StylesheetConstructionContextDefault", ptr %0, i64 0, i32 16, i32 0, i32 0, i32 0, i32 1
  %24 = load ptr, ptr %23, align 8, !tbaa !178
  %25 = getelementptr inbounds %"class.xalanc_1_8::StylesheetConstructionContextDefault", ptr %0, i64 0, i32 16, i32 0, i32 0, i32 0, i32 2
  %26 = load ptr, ptr %25, align 8, !tbaa !400
  %27 = icmp eq ptr %24, %26
  br i1 %27, label %31, label %28

28:                                               ; preds = %21
  store ptr null, ptr %24, align 8, !tbaa !178
  %29 = load ptr, ptr %23, align 8, !tbaa !325
  %30 = getelementptr inbounds ptr, ptr %29, i64 1
  store ptr %30, ptr %23, align 8, !tbaa !325
  br label %61

31:                                               ; preds = %21
  %32 = load ptr, ptr %22, align 8, !tbaa !178
  %33 = ptrtoint ptr %24 to i64
  %34 = ptrtoint ptr %32 to i64
  %35 = sub i64 %33, %34
  %36 = icmp eq i64 %35, 9223372036854775800
  br i1 %36, label %37, label %38

37:                                               ; preds = %31
  tail call void @_ZSt20__throw_length_errorPKc(ptr noundef nonnull @.str) #20
  unreachable

38:                                               ; preds = %31
  %39 = ashr exact i64 %35, 3
  %40 = tail call i64 @llvm.umax.i64(i64 %39, i64 1)
  %41 = add i64 %40, %39
  %42 = icmp ult i64 %41, %39
  %43 = icmp ugt i64 %41, 1152921504606846975
  %44 = or i1 %42, %43
  %45 = select i1 %44, i64 1152921504606846975, i64 %41
  %46 = icmp eq i64 %45, 0
  br i1 %46, label %50, label %47

47:                                               ; preds = %38
  %48 = shl nuw nsw i64 %45, 3
  %49 = tail call noalias noundef nonnull ptr @_Znwm(i64 noundef %48) #21
  br label %50

50:                                               ; preds = %47, %38
  %51 = phi ptr [ %49, %47 ], [ null, %38 ]
  %52 = getelementptr inbounds ptr, ptr %51, i64 %39
  store ptr null, ptr %52, align 8, !tbaa !178
  %53 = icmp eq ptr %32, %24
  br i1 %53, label %55, label %54

54:                                               ; preds = %50
  tail call void @llvm.memmove.p0.p0.i64(ptr nonnull align 8 %51, ptr align 8 %32, i64 %35, i1 false)
  br label %55

55:                                               ; preds = %54, %50
  %56 = getelementptr inbounds ptr, ptr %52, i64 1
  %57 = icmp eq ptr %32, null
  br i1 %57, label %59, label %58

58:                                               ; preds = %55
  tail call void @_ZdlPv(ptr noundef nonnull %32) #18
  br label %59

59:                                               ; preds = %58, %55
  store ptr %51, ptr %22, align 8, !tbaa !200
  store ptr %56, ptr %23, align 8, !tbaa !325
  %60 = getelementptr inbounds ptr, ptr %51, i64 %45
  store ptr %60, ptr %25, align 8, !tbaa !400
  br label %61

61:                                               ; preds = %28, %59
  %62 = tail call noalias noundef nonnull dereferenceable(216) ptr @_Znwm(i64 noundef 216) #16
  %63 = trunc i64 %19 to i32
  %64 = trunc i64 %20 to i32
  invoke void @_ZN10xalanc_1_815ElemApplyImportC1ERNS_29StylesheetConstructionContextERNS_10StylesheetERKN11xercesc_2_513AttributeListEii(ptr noundef nonnull align 8 dereferenceable(210) %62, ptr noundef nonnull align 8 dereferenceable(8) %0, ptr noundef nonnull align 8 dereferenceable(1000) %2, ptr noundef nonnull align 8 dereferenceable(8) %3, i32 noundef %63, i32 noundef %64)
          to label %885 unwind label %65

65:                                               ; preds = %61
  %66 = landingpad { ptr, i32 }
          cleanup
  tail call void @_ZdlPv(ptr noundef nonnull %62) #17
  br label %856

67:                                               ; preds = %18
  %68 = getelementptr inbounds %"class.xalanc_1_8::StylesheetConstructionContextDefault", ptr %0, i64 0, i32 17
  %69 = trunc i64 %19 to i32
  %70 = trunc i64 %20 to i32
  %71 = tail call noundef ptr @_ZN10xalanc_1_832XalanElemApplyTemplatesAllocator6createERNS_29StylesheetConstructionContextERNS_10StylesheetERKN11xercesc_2_513AttributeListEii(ptr noundef nonnull align 8 dereferenceable(40) %68, ptr noundef nonnull align 8 dereferenceable(8) %0, ptr noundef nonnull align 8 dereferenceable(1000) %2, ptr noundef nonnull align 8 dereferenceable(8) %3, i32 noundef %69, i32 noundef %70)
  br label %890

72:                                               ; preds = %18
  %73 = getelementptr inbounds %"class.xalanc_1_8::StylesheetConstructionContextDefault", ptr %0, i64 0, i32 18
  %74 = trunc i64 %19 to i32
  %75 = trunc i64 %20 to i32
  %76 = tail call noundef ptr @_ZN10xalanc_1_827XalanElemAttributeAllocator6createERNS_29StylesheetConstructionContextERNS_10StylesheetERKN11xercesc_2_513AttributeListEii(ptr noundef nonnull align 8 dereferenceable(40) %73, ptr noundef nonnull align 8 dereferenceable(8) %0, ptr noundef nonnull align 8 dereferenceable(1000) %2, ptr noundef nonnull align 8 dereferenceable(8) %3, i32 noundef %74, i32 noundef %75)
  br label %890

77:                                               ; preds = %18
  %78 = getelementptr inbounds %"class.xalanc_1_8::StylesheetConstructionContextDefault", ptr %0, i64 0, i32 19
  %79 = trunc i64 %19 to i32
  %80 = trunc i64 %20 to i32
  %81 = tail call noundef ptr @_ZN10xalanc_1_830XalanElemAttributeSetAllocator6createERNS_29StylesheetConstructionContextERNS_10StylesheetERKN11xercesc_2_513AttributeListEii(ptr noundef nonnull align 8 dereferenceable(40) %78, ptr noundef nonnull align 8 dereferenceable(8) %0, ptr noundef nonnull align 8 dereferenceable(1000) %2, ptr noundef nonnull align 8 dereferenceable(8) %3, i32 noundef %79, i32 noundef %80)
  br label %890

82:                                               ; preds = %18
  %83 = getelementptr inbounds %"class.xalanc_1_8::StylesheetConstructionContextDefault", ptr %0, i64 0, i32 20
  %84 = trunc i64 %19 to i32
  %85 = trunc i64 %20 to i32
  %86 = tail call noundef ptr @_ZN10xalanc_1_830XalanElemCallTemplateAllocator6createERNS_29StylesheetConstructionContextERNS_10StylesheetERKN11xercesc_2_513AttributeListEii(ptr noundef nonnull align 8 dereferenceable(40) %83, ptr noundef nonnull align 8 dereferenceable(8) %0, ptr noundef nonnull align 8 dereferenceable(1000) %2, ptr noundef nonnull align 8 dereferenceable(8) %3, i32 noundef %84, i32 noundef %85)
  br label %890

87:                                               ; preds = %18
  %88 = getelementptr inbounds %"class.xalanc_1_8::StylesheetConstructionContextDefault", ptr %0, i64 0, i32 16
  %89 = getelementptr inbounds %"class.xalanc_1_8::StylesheetConstructionContextDefault", ptr %0, i64 0, i32 16, i32 0, i32 0, i32 0, i32 1
  %90 = load ptr, ptr %89, align 8, !tbaa !178
  %91 = getelementptr inbounds %"class.xalanc_1_8::StylesheetConstructionContextDefault", ptr %0, i64 0, i32 16, i32 0, i32 0, i32 0, i32 2
  %92 = load ptr, ptr %91, align 8, !tbaa !400
  %93 = icmp eq ptr %90, %92
  br i1 %93, label %97, label %94

94:                                               ; preds = %87
  store ptr null, ptr %90, align 8, !tbaa !178
  %95 = load ptr, ptr %89, align 8, !tbaa !325
  %96 = getelementptr inbounds ptr, ptr %95, i64 1
  store ptr %96, ptr %89, align 8, !tbaa !325
  br label %127

97:                                               ; preds = %87
  %98 = load ptr, ptr %88, align 8, !tbaa !178
  %99 = ptrtoint ptr %90 to i64
  %100 = ptrtoint ptr %98 to i64
  %101 = sub i64 %99, %100
  %102 = icmp eq i64 %101, 9223372036854775800
  br i1 %102, label %103, label %104

103:                                              ; preds = %97
  tail call void @_ZSt20__throw_length_errorPKc(ptr noundef nonnull @.str) #20
  unreachable

104:                                              ; preds = %97
  %105 = ashr exact i64 %101, 3
  %106 = tail call i64 @llvm.umax.i64(i64 %105, i64 1)
  %107 = add i64 %106, %105
  %108 = icmp ult i64 %107, %105
  %109 = icmp ugt i64 %107, 1152921504606846975
  %110 = or i1 %108, %109
  %111 = select i1 %110, i64 1152921504606846975, i64 %107
  %112 = icmp eq i64 %111, 0
  br i1 %112, label %116, label %113

113:                                              ; preds = %104
  %114 = shl nuw nsw i64 %111, 3
  %115 = tail call noalias noundef nonnull ptr @_Znwm(i64 noundef %114) #21
  br label %116

116:                                              ; preds = %113, %104
  %117 = phi ptr [ %115, %113 ], [ null, %104 ]
  %118 = getelementptr inbounds ptr, ptr %117, i64 %105
  store ptr null, ptr %118, align 8, !tbaa !178
  %119 = icmp eq ptr %98, %90
  br i1 %119, label %121, label %120

120:                                              ; preds = %116
  tail call void @llvm.memmove.p0.p0.i64(ptr nonnull align 8 %117, ptr align 8 %98, i64 %101, i1 false)
  br label %121

121:                                              ; preds = %120, %116
  %122 = getelementptr inbounds ptr, ptr %118, i64 1
  %123 = icmp eq ptr %98, null
  br i1 %123, label %125, label %124

124:                                              ; preds = %121
  tail call void @_ZdlPv(ptr noundef nonnull %98) #18
  br label %125

125:                                              ; preds = %124, %121
  store ptr %117, ptr %88, align 8, !tbaa !200
  store ptr %122, ptr %89, align 8, !tbaa !325
  %126 = getelementptr inbounds ptr, ptr %117, i64 %111
  store ptr %126, ptr %91, align 8, !tbaa !400
  br label %127

127:                                              ; preds = %94, %125
  %128 = tail call noalias noundef nonnull dereferenceable(216) ptr @_Znwm(i64 noundef 216) #16
  %129 = trunc i64 %19 to i32
  %130 = trunc i64 %20 to i32
  invoke void @_ZN10xalanc_1_810ElemChooseC1ERNS_29StylesheetConstructionContextERNS_10StylesheetERKN11xercesc_2_513AttributeListEii(ptr noundef nonnull align 8 dereferenceable(210) %128, ptr noundef nonnull align 8 dereferenceable(8) %0, ptr noundef nonnull align 8 dereferenceable(1000) %2, ptr noundef nonnull align 8 dereferenceable(8) %3, i32 noundef %129, i32 noundef %130)
          to label %885 unwind label %131

131:                                              ; preds = %127
  %132 = landingpad { ptr, i32 }
          cleanup
  tail call void @_ZdlPv(ptr noundef nonnull %128) #17
  br label %856

133:                                              ; preds = %18
  %134 = getelementptr inbounds %"class.xalanc_1_8::StylesheetConstructionContextDefault", ptr %0, i64 0, i32 16
  %135 = getelementptr inbounds %"class.xalanc_1_8::StylesheetConstructionContextDefault", ptr %0, i64 0, i32 16, i32 0, i32 0, i32 0, i32 1
  %136 = load ptr, ptr %135, align 8, !tbaa !178
  %137 = getelementptr inbounds %"class.xalanc_1_8::StylesheetConstructionContextDefault", ptr %0, i64 0, i32 16, i32 0, i32 0, i32 0, i32 2
  %138 = load ptr, ptr %137, align 8, !tbaa !400
  %139 = icmp eq ptr %136, %138
  br i1 %139, label %143, label %140

140:                                              ; preds = %133
  store ptr null, ptr %136, align 8, !tbaa !178
  %141 = load ptr, ptr %135, align 8, !tbaa !325
  %142 = getelementptr inbounds ptr, ptr %141, i64 1
  store ptr %142, ptr %135, align 8, !tbaa !325
  br label %173

143:                                              ; preds = %133
  %144 = load ptr, ptr %134, align 8, !tbaa !178
  %145 = ptrtoint ptr %136 to i64
  %146 = ptrtoint ptr %144 to i64
  %147 = sub i64 %145, %146
  %148 = icmp eq i64 %147, 9223372036854775800
  br i1 %148, label %149, label %150

149:                                              ; preds = %143
  tail call void @_ZSt20__throw_length_errorPKc(ptr noundef nonnull @.str) #20
  unreachable

150:                                              ; preds = %143
  %151 = ashr exact i64 %147, 3
  %152 = tail call i64 @llvm.umax.i64(i64 %151, i64 1)
  %153 = add i64 %152, %151
  %154 = icmp ult i64 %153, %151
  %155 = icmp ugt i64 %153, 1152921504606846975
  %156 = or i1 %154, %155
  %157 = select i1 %156, i64 1152921504606846975, i64 %153
  %158 = icmp eq i64 %157, 0
  br i1 %158, label %162, label %159

159:                                              ; preds = %150
  %160 = shl nuw nsw i64 %157, 3
  %161 = tail call noalias noundef nonnull ptr @_Znwm(i64 noundef %160) #21
  br label %162

162:                                              ; preds = %159, %150
  %163 = phi ptr [ %161, %159 ], [ null, %150 ]
  %164 = getelementptr inbounds ptr, ptr %163, i64 %151
  store ptr null, ptr %164, align 8, !tbaa !178
  %165 = icmp eq ptr %144, %136
  br i1 %165, label %167, label %166

166:                                              ; preds = %162
  tail call void @llvm.memmove.p0.p0.i64(ptr nonnull align 8 %163, ptr align 8 %144, i64 %147, i1 false)
  br label %167

167:                                              ; preds = %166, %162
  %168 = getelementptr inbounds ptr, ptr %164, i64 1
  %169 = icmp eq ptr %144, null
  br i1 %169, label %171, label %170

170:                                              ; preds = %167
  tail call void @_ZdlPv(ptr noundef nonnull %144) #18
  br label %171

171:                                              ; preds = %170, %167
  store ptr %163, ptr %134, align 8, !tbaa !200
  store ptr %168, ptr %135, align 8, !tbaa !325
  %172 = getelementptr inbounds ptr, ptr %163, i64 %157
  store ptr %172, ptr %137, align 8, !tbaa !400
  br label %173

173:                                              ; preds = %140, %171
  %174 = tail call noalias noundef nonnull dereferenceable(216) ptr @_Znwm(i64 noundef 216) #16
  %175 = trunc i64 %19 to i32
  %176 = trunc i64 %20 to i32
  invoke void @_ZN10xalanc_1_811ElemCommentC1ERNS_29StylesheetConstructionContextERNS_10StylesheetERKN11xercesc_2_513AttributeListEii(ptr noundef nonnull align 8 dereferenceable(210) %174, ptr noundef nonnull align 8 dereferenceable(8) %0, ptr noundef nonnull align 8 dereferenceable(1000) %2, ptr noundef nonnull align 8 dereferenceable(8) %3, i32 noundef %175, i32 noundef %176)
          to label %885 unwind label %177

177:                                              ; preds = %173
  %178 = landingpad { ptr, i32 }
          cleanup
  tail call void @_ZdlPv(ptr noundef nonnull %174) #17
  br label %856

179:                                              ; preds = %18
  %180 = getelementptr inbounds %"class.xalanc_1_8::StylesheetConstructionContextDefault", ptr %0, i64 0, i32 16
  %181 = getelementptr inbounds %"class.xalanc_1_8::StylesheetConstructionContextDefault", ptr %0, i64 0, i32 16, i32 0, i32 0, i32 0, i32 1
  %182 = load ptr, ptr %181, align 8, !tbaa !178
  %183 = getelementptr inbounds %"class.xalanc_1_8::StylesheetConstructionContextDefault", ptr %0, i64 0, i32 16, i32 0, i32 0, i32 0, i32 2
  %184 = load ptr, ptr %183, align 8, !tbaa !400
  %185 = icmp eq ptr %182, %184
  br i1 %185, label %189, label %186

186:                                              ; preds = %179
  store ptr null, ptr %182, align 8, !tbaa !178
  %187 = load ptr, ptr %181, align 8, !tbaa !325
  %188 = getelementptr inbounds ptr, ptr %187, i64 1
  store ptr %188, ptr %181, align 8, !tbaa !325
  br label %219

189:                                              ; preds = %179
  %190 = load ptr, ptr %180, align 8, !tbaa !178
  %191 = ptrtoint ptr %182 to i64
  %192 = ptrtoint ptr %190 to i64
  %193 = sub i64 %191, %192
  %194 = icmp eq i64 %193, 9223372036854775800
  br i1 %194, label %195, label %196

195:                                              ; preds = %189
  tail call void @_ZSt20__throw_length_errorPKc(ptr noundef nonnull @.str) #20
  unreachable

196:                                              ; preds = %189
  %197 = ashr exact i64 %193, 3
  %198 = tail call i64 @llvm.umax.i64(i64 %197, i64 1)
  %199 = add i64 %198, %197
  %200 = icmp ult i64 %199, %197
  %201 = icmp ugt i64 %199, 1152921504606846975
  %202 = or i1 %200, %201
  %203 = select i1 %202, i64 1152921504606846975, i64 %199
  %204 = icmp eq i64 %203, 0
  br i1 %204, label %208, label %205

205:                                              ; preds = %196
  %206 = shl nuw nsw i64 %203, 3
  %207 = tail call noalias noundef nonnull ptr @_Znwm(i64 noundef %206) #21
  br label %208

208:                                              ; preds = %205, %196
  %209 = phi ptr [ %207, %205 ], [ null, %196 ]
  %210 = getelementptr inbounds ptr, ptr %209, i64 %197
  store ptr null, ptr %210, align 8, !tbaa !178
  %211 = icmp eq ptr %190, %182
  br i1 %211, label %213, label %212

212:                                              ; preds = %208
  tail call void @llvm.memmove.p0.p0.i64(ptr nonnull align 8 %209, ptr align 8 %190, i64 %193, i1 false)
  br label %213

213:                                              ; preds = %212, %208
  %214 = getelementptr inbounds ptr, ptr %210, i64 1
  %215 = icmp eq ptr %190, null
  br i1 %215, label %217, label %216

216:                                              ; preds = %213
  tail call void @_ZdlPv(ptr noundef nonnull %190) #18
  br label %217

217:                                              ; preds = %216, %213
  store ptr %209, ptr %180, align 8, !tbaa !200
  store ptr %214, ptr %181, align 8, !tbaa !325
  %218 = getelementptr inbounds ptr, ptr %209, i64 %203
  store ptr %218, ptr %183, align 8, !tbaa !400
  br label %219

219:                                              ; preds = %186, %217
  %220 = tail call noalias noundef nonnull dereferenceable(232) ptr @_Znwm(i64 noundef 232) #16
  %221 = trunc i64 %19 to i32
  %222 = trunc i64 %20 to i32
  invoke void @_ZN10xalanc_1_88ElemCopyC1ERNS_29StylesheetConstructionContextERNS_10StylesheetERKN11xercesc_2_513AttributeListEii(ptr noundef nonnull align 8 dereferenceable(232) %220, ptr noundef nonnull align 8 dereferenceable(8) %0, ptr noundef nonnull align 8 dereferenceable(1000) %2, ptr noundef nonnull align 8 dereferenceable(8) %3, i32 noundef %221, i32 noundef %222)
          to label %885 unwind label %223

223:                                              ; preds = %219
  %224 = landingpad { ptr, i32 }
          cleanup
  tail call void @_ZdlPv(ptr noundef nonnull %220) #17
  br label %856

225:                                              ; preds = %18
  %226 = getelementptr inbounds %"class.xalanc_1_8::StylesheetConstructionContextDefault", ptr %0, i64 0, i32 16
  %227 = getelementptr inbounds %"class.xalanc_1_8::StylesheetConstructionContextDefault", ptr %0, i64 0, i32 16, i32 0, i32 0, i32 0, i32 1
  %228 = load ptr, ptr %227, align 8, !tbaa !178
  %229 = getelementptr inbounds %"class.xalanc_1_8::StylesheetConstructionContextDefault", ptr %0, i64 0, i32 16, i32 0, i32 0, i32 0, i32 2
  %230 = load ptr, ptr %229, align 8, !tbaa !400
  %231 = icmp eq ptr %228, %230
  br i1 %231, label %235, label %232

232:                                              ; preds = %225
  store ptr null, ptr %228, align 8, !tbaa !178
  %233 = load ptr, ptr %227, align 8, !tbaa !325
  %234 = getelementptr inbounds ptr, ptr %233, i64 1
  store ptr %234, ptr %227, align 8, !tbaa !325
  br label %265

235:                                              ; preds = %225
  %236 = load ptr, ptr %226, align 8, !tbaa !178
  %237 = ptrtoint ptr %228 to i64
  %238 = ptrtoint ptr %236 to i64
  %239 = sub i64 %237, %238
  %240 = icmp eq i64 %239, 9223372036854775800
  br i1 %240, label %241, label %242

241:                                              ; preds = %235
  tail call void @_ZSt20__throw_length_errorPKc(ptr noundef nonnull @.str) #20
  unreachable

242:                                              ; preds = %235
  %243 = ashr exact i64 %239, 3
  %244 = tail call i64 @llvm.umax.i64(i64 %243, i64 1)
  %245 = add i64 %244, %243
  %246 = icmp ult i64 %245, %243
  %247 = icmp ugt i64 %245, 1152921504606846975
  %248 = or i1 %246, %247
  %249 = select i1 %248, i64 1152921504606846975, i64 %245
  %250 = icmp eq i64 %249, 0
  br i1 %250, label %254, label %251

251:                                              ; preds = %242
  %252 = shl nuw nsw i64 %249, 3
  %253 = tail call noalias noundef nonnull ptr @_Znwm(i64 noundef %252) #21
  br label %254

254:                                              ; preds = %251, %242
  %255 = phi ptr [ %253, %251 ], [ null, %242 ]
  %256 = getelementptr inbounds ptr, ptr %255, i64 %243
  store ptr null, ptr %256, align 8, !tbaa !178
  %257 = icmp eq ptr %236, %228
  br i1 %257, label %259, label %258

258:                                              ; preds = %254
  tail call void @llvm.memmove.p0.p0.i64(ptr nonnull align 8 %255, ptr align 8 %236, i64 %239, i1 false)
  br label %259

259:                                              ; preds = %258, %254
  %260 = getelementptr inbounds ptr, ptr %256, i64 1
  %261 = icmp eq ptr %236, null
  br i1 %261, label %263, label %262

262:                                              ; preds = %259
  tail call void @_ZdlPv(ptr noundef nonnull %236) #18
  br label %263

263:                                              ; preds = %262, %259
  store ptr %255, ptr %226, align 8, !tbaa !200
  store ptr %260, ptr %227, align 8, !tbaa !325
  %264 = getelementptr inbounds ptr, ptr %255, i64 %249
  store ptr %264, ptr %229, align 8, !tbaa !400
  br label %265

265:                                              ; preds = %232, %263
  %266 = tail call noalias noundef nonnull dereferenceable(224) ptr @_Znwm(i64 noundef 224) #16
  %267 = trunc i64 %19 to i32
  %268 = trunc i64 %20 to i32
  invoke void @_ZN10xalanc_1_810ElemCopyOfC1ERNS_29StylesheetConstructionContextERNS_10StylesheetERKN11xercesc_2_513AttributeListEii(ptr noundef nonnull align 8 dereferenceable(224) %266, ptr noundef nonnull align 8 dereferenceable(8) %0, ptr noundef nonnull align 8 dereferenceable(1000) %2, ptr noundef nonnull align 8 dereferenceable(8) %3, i32 noundef %267, i32 noundef %268)
          to label %885 unwind label %269

269:                                              ; preds = %265
  %270 = landingpad { ptr, i32 }
          cleanup
  tail call void @_ZdlPv(ptr noundef nonnull %266) #17
  br label %856

271:                                              ; preds = %18
  %272 = getelementptr inbounds %"class.xalanc_1_8::StylesheetConstructionContextDefault", ptr %0, i64 0, i32 16
  %273 = getelementptr inbounds %"class.xalanc_1_8::StylesheetConstructionContextDefault", ptr %0, i64 0, i32 16, i32 0, i32 0, i32 0, i32 1
  %274 = load ptr, ptr %273, align 8, !tbaa !178
  %275 = getelementptr inbounds %"class.xalanc_1_8::StylesheetConstructionContextDefault", ptr %0, i64 0, i32 16, i32 0, i32 0, i32 0, i32 2
  %276 = load ptr, ptr %275, align 8, !tbaa !400
  %277 = icmp eq ptr %274, %276
  br i1 %277, label %281, label %278

278:                                              ; preds = %271
  store ptr null, ptr %274, align 8, !tbaa !178
  %279 = load ptr, ptr %273, align 8, !tbaa !325
  %280 = getelementptr inbounds ptr, ptr %279, i64 1
  store ptr %280, ptr %273, align 8, !tbaa !325
  br label %311

281:                                              ; preds = %271
  %282 = load ptr, ptr %272, align 8, !tbaa !178
  %283 = ptrtoint ptr %274 to i64
  %284 = ptrtoint ptr %282 to i64
  %285 = sub i64 %283, %284
  %286 = icmp eq i64 %285, 9223372036854775800
  br i1 %286, label %287, label %288

287:                                              ; preds = %281
  tail call void @_ZSt20__throw_length_errorPKc(ptr noundef nonnull @.str) #20
  unreachable

288:                                              ; preds = %281
  %289 = ashr exact i64 %285, 3
  %290 = tail call i64 @llvm.umax.i64(i64 %289, i64 1)
  %291 = add i64 %290, %289
  %292 = icmp ult i64 %291, %289
  %293 = icmp ugt i64 %291, 1152921504606846975
  %294 = or i1 %292, %293
  %295 = select i1 %294, i64 1152921504606846975, i64 %291
  %296 = icmp eq i64 %295, 0
  br i1 %296, label %300, label %297

297:                                              ; preds = %288
  %298 = shl nuw nsw i64 %295, 3
  %299 = tail call noalias noundef nonnull ptr @_Znwm(i64 noundef %298) #21
  br label %300

300:                                              ; preds = %297, %288
  %301 = phi ptr [ %299, %297 ], [ null, %288 ]
  %302 = getelementptr inbounds ptr, ptr %301, i64 %289
  store ptr null, ptr %302, align 8, !tbaa !178
  %303 = icmp eq ptr %282, %274
  br i1 %303, label %305, label %304

304:                                              ; preds = %300
  tail call void @llvm.memmove.p0.p0.i64(ptr nonnull align 8 %301, ptr align 8 %282, i64 %285, i1 false)
  br label %305

305:                                              ; preds = %304, %300
  %306 = getelementptr inbounds ptr, ptr %302, i64 1
  %307 = icmp eq ptr %282, null
  br i1 %307, label %309, label %308

308:                                              ; preds = %305
  tail call void @_ZdlPv(ptr noundef nonnull %282) #18
  br label %309

309:                                              ; preds = %308, %305
  store ptr %301, ptr %272, align 8, !tbaa !200
  store ptr %306, ptr %273, align 8, !tbaa !325
  %310 = getelementptr inbounds ptr, ptr %301, i64 %295
  store ptr %310, ptr %275, align 8, !tbaa !400
  br label %311

311:                                              ; preds = %278, %309
  %312 = tail call noalias noundef nonnull dereferenceable(400) ptr @_Znwm(i64 noundef 400) #16
  %313 = trunc i64 %19 to i32
  %314 = trunc i64 %20 to i32
  invoke void @_ZN10xalanc_1_817ElemDecimalFormatC1ERNS_29StylesheetConstructionContextERNS_10StylesheetERKN11xercesc_2_513AttributeListEii(ptr noundef nonnull align 8 dereferenceable(400) %312, ptr noundef nonnull align 8 dereferenceable(8) %0, ptr noundef nonnull align 8 dereferenceable(1000) %2, ptr noundef nonnull align 8 dereferenceable(8) %3, i32 noundef %313, i32 noundef %314)
          to label %885 unwind label %315

315:                                              ; preds = %311
  %316 = landingpad { ptr, i32 }
          cleanup
  tail call void @_ZdlPv(ptr noundef nonnull %312) #17
  br label %856

317:                                              ; preds = %18
  %318 = getelementptr inbounds %"class.xalanc_1_8::StylesheetConstructionContextDefault", ptr %0, i64 0, i32 21
  %319 = trunc i64 %19 to i32
  %320 = trunc i64 %20 to i32
  %321 = tail call noundef ptr @_ZN10xalanc_1_825XalanElemElementAllocator6createERNS_29StylesheetConstructionContextERNS_10StylesheetERKN11xercesc_2_513AttributeListEii(ptr noundef nonnull align 8 dereferenceable(40) %318, ptr noundef nonnull align 8 dereferenceable(8) %0, ptr noundef nonnull align 8 dereferenceable(1000) %2, ptr noundef nonnull align 8 dereferenceable(8) %3, i32 noundef %319, i32 noundef %320)
  br label %890

322:                                              ; preds = %18
  %323 = getelementptr inbounds %"class.xalanc_1_8::StylesheetConstructionContextDefault", ptr %0, i64 0, i32 16
  %324 = getelementptr inbounds %"class.xalanc_1_8::StylesheetConstructionContextDefault", ptr %0, i64 0, i32 16, i32 0, i32 0, i32 0, i32 1
  %325 = load ptr, ptr %324, align 8, !tbaa !178
  %326 = getelementptr inbounds %"class.xalanc_1_8::StylesheetConstructionContextDefault", ptr %0, i64 0, i32 16, i32 0, i32 0, i32 0, i32 2
  %327 = load ptr, ptr %326, align 8, !tbaa !400
  %328 = icmp eq ptr %325, %327
  br i1 %328, label %332, label %329

329:                                              ; preds = %322
