; ModuleID = 'XalanHTMLElementsProperties.cpp'
source_filename = "XalanHTMLElementsProperties.cpp"
target datalayout = "e-m:e-p270:32:32-p271:32:32-p272:64:64-i64:64-f80:128-n8:16:32:64-S128"
target triple = "x86_64-unknown-linux-gnu"

%"struct.xalanc_1_8::XalanHTMLElementsProperties::InternalAttributeProperties" = type { [9 x i16], i8 }
%"struct.xalanc_1_8::XalanHTMLElementsProperties::InternalElementProperties" = type { [11 x i16], i32, [7 x %"struct.xalanc_1_8::XalanHTMLElementsProperties::InternalAttributeProperties"] }
%"class.xalanc_1_8::XalanHTMLElementsProperties::ElementProperties" = type { ptr }

@_ZN10xalanc_1_827XalanHTMLElementsProperties25InternalElementProperties17s_dummyPropertiesE = dso_local constant %"struct.xalanc_1_8::XalanHTMLElementsProperties::InternalAttributeProperties" zeroinitializer, align 2
@_ZN10xalanc_1_827XalanHTMLElementsProperties19s_elementPropertiesE = dso_local constant <{ { <{ i16, [10 x i16] }>, i32, [7 x %"struct.xalanc_1_8::XalanHTMLElementsProperties::InternalAttributeProperties"] }, { <{ i16, [10 x i16] }>, i32, [7 x %"struct.xalanc_1_8::XalanHTMLElementsProperties::InternalAttributeProperties"] }, { <{ i16, [10 x i16] }>, i32, [7 x %"struct.xalanc_1_8::XalanHTMLElementsProperties::InternalAttributeProperties"] }, { <{ i16, [10 x i16] }>, i32, [7 x %"struct.xalanc_1_8::XalanHTMLElementsProperties::InternalAttributeProperties"] }, { <{ i16, [10 x i16] }>, i32, [7 x %"struct.xalanc_1_8::XalanHTMLElementsProperties::InternalAttributeProperties"] }, { <{ i16, [10 x i16] }>, i32, [7 x %"struct.xalanc_1_8::XalanHTMLElementsProperties::InternalAttributeProperties"] }, { <{ i16, [10 x i16] }>, i32, [7 x %"struct.xalanc_1_8::XalanHTMLElementsProperties::InternalAttributeProperties"] }, { <{ i16, i16, [9 x i16] }>, i32, [7 x %"struct.xalanc_1_8::XalanHTMLElementsProperties::InternalAttributeProperties"] }, { <{ i16, i16, [9 x i16] }>, i32, [7 x %"struct.xalanc_1_8::XalanHTMLElementsProperties::InternalAttributeProperties"] }, { <{ i16, i16, [9 x i16] }>, i32, [7 x %"struct.xalanc_1_8::XalanHTMLElementsProperties::InternalAttributeProperties"] }, { <{ i16, i16, [9 x i16] }>, i32, [7 x %"struct.xalanc_1_8::XalanHTMLElementsProperties::InternalAttributeProperties"] }, { <{ i16, i16, [9 x i16] }>, i32, [7 x %"struct.xalanc_1_8::XalanHTMLElementsProperties::InternalAttributeProperties"] }, { <{ i16, i16, [9 x i16] }>, i32, [7 x %"struct.xalanc_1_8::XalanHTMLElementsProperties::InternalAttributeProperties"] }, { <{ i16, i16, [9 x i16] }>, i32, [7 x %"struct.xalanc_1_8::XalanHTMLElementsProperties::InternalAttributeProperties"] }, { <{ i16, i16, [9 x i16] }>, i32, [7 x %"struct.xalanc_1_8::XalanHTMLElementsProperties::InternalAttributeProperties"] }, { <{ i16, i16, [9 x i16] }>, i32, [7 x %"struct.xalanc_1_8::XalanHTMLElementsProperties::InternalAttributeProperties"] }, { <{ i16, i16, [9 x i16] }>, i32, [7 x %"struct.xalanc_1_8::XalanHTMLElementsProperties::InternalAttributeProperties"] }, { <{ i16, i16, [9 x i16] }>, i32, [7 x %"struct.xalanc_1_8::XalanHTMLElementsProperties::InternalAttributeProperties"] }, { <{ i16, i16, [9 x i16] }>, i32, [7 x %"struct.xalanc_1_8::XalanHTMLElementsProperties::InternalAttributeProperties"] }, { <{ i16, i16, [9 x i16] }>, i32, [7 x %"struct.xalanc_1_8::XalanHTMLElementsProperties::InternalAttributeProperties"] }, { <{ i16, i16, [9 x i16] }>, i32, [7 x %"struct.xalanc_1_8::XalanHTMLElementsProperties::InternalAttributeProperties"] }, { <{ i16, i16, [9 x i16] }>, i32, [7 x %"struct.xalanc_1_8::XalanHTMLElementsProperties::InternalAttributeProperties"] }, { <{ i16, i16, [9 x i16] }>, i32, [7 x %"struct.xalanc_1_8::XalanHTMLElementsProperties::InternalAttributeProperties"] }, { <{ i16, i16, [9 x i16] }>, i32, [7 x %"struct.xalanc_1_8::XalanHTMLElementsProperties::InternalAttributeProperties"] }, { <{ i16, i16, [9 x i16] }>, i32, [7 x %"struct.xalanc_1_8::XalanHTMLElementsProperties::InternalAttributeProperties"] }, { <{ i16, i16, [9 x i16] }>, i32, [7 x %"struct.xalanc_1_8::XalanHTMLElementsProperties::InternalAttributeProperties"] }, { <{ i16, i16, i16, [8 x i16] }>, i32, [7 x %"struct.xalanc_1_8::XalanHTMLElementsProperties::InternalAttributeProperties"] }, { <{ i16, i16, i16, [8 x i16] }>, i32, [7 x %"struct.xalanc_1_8::XalanHTMLElementsProperties::InternalAttributeProperties"] }, { <{ i16, i16, i16, [8 x i16] }>, i32, [7 x %"struct.xalanc_1_8::XalanHTMLElementsProperties::InternalAttributeProperties"] }, { <{ i16, i16, i16, [8 x i16] }>, i32, [7 x %"struct.xalanc_1_8::XalanHTMLElementsProperties::InternalAttributeProperties"] }, { <{ i16, i16, i16, [8 x i16] }>, i32, [7 x %"struct.xalanc_1_8::XalanHTMLElementsProperties::InternalAttributeProperties"] }, { <{ i16, i16, i16, [8 x i16] }>, i32, [7 x %"struct.xalanc_1_8::XalanHTMLElementsProperties::InternalAttributeProperties"] }, { <{ i16, i16, i16, [8 x i16] }>, i32, [7 x %"struct.xalanc_1_8::XalanHTMLElementsProperties::InternalAttributeProperties"] }, { <{ i16, i16, i16, [8 x i16] }>, i32, [7 x %"struct.xalanc_1_8::XalanHTMLElementsProperties::InternalAttributeProperties"] }, { <{ i16, i16, i16, [8 x i16] }>, i32, [7 x %"struct.xalanc_1_8::XalanHTMLElementsProperties::InternalAttributeProperties"] }, { <{ i16, i16, i16, [8 x i16] }>, i32, [7 x %"struct.xalanc_1_8::XalanHTMLElementsProperties::InternalAttributeProperties"] }, { <{ i16, i16, i16, [8 x i16] }>, i32, [7 x %"struct.xalanc_1_8::XalanHTMLElementsProperties::InternalAttributeProperties"] }, { <{ i16, i16, i16, [8 x i16] }>, i32, [7 x %"struct.xalanc_1_8::XalanHTMLElementsProperties::InternalAttributeProperties"] }, { <{ i16, i16, i16, [8 x i16] }>, i32, [7 x %"struct.xalanc_1_8::XalanHTMLElementsProperties::InternalAttributeProperties"] }, { <{ i16, i16, i16, [8 x i16] }>, i32, [7 x %"struct.xalanc_1_8::XalanHTMLElementsProperties::InternalAttributeProperties"] }, { <{ i16, i16, i16, [8 x i16] }>, i32, [7 x %"struct.xalanc_1_8::XalanHTMLElementsProperties::InternalAttributeProperties"] }, %"struct.xalanc_1_8::XalanHTMLElementsProperties::InternalElementProperties", %"struct.xalanc_1_8::XalanHTMLElementsProperties::InternalElementProperties", %"struct.xalanc_1_8::XalanHTMLElementsProperties::InternalElementProperties", %"struct.xalanc_1_8::XalanHTMLElementsProperties::InternalElementProperties", %"struct.xalanc_1_8::XalanHTMLElementsProperties::InternalElementProperties", %"struct.xalanc_1_8::XalanHTMLElementsProperties::InternalElementProperties", %"struct.xalanc_1_8::XalanHTMLElementsProperties::InternalElementProperties", %"struct.xalanc_1_8::XalanHTMLElementsProperties::InternalElementProperties", %"struct.xalanc_1_8::XalanHTMLElementsProperties::InternalElementProperties", %"struct.xalanc_1_8::XalanHTMLElementsProperties::InternalElementProperties", %"struct.xalanc_1_8::XalanHTMLElementsProperties::InternalElementProperties", %"struct.xalanc_1_8::XalanHTMLElementsProperties::InternalElementProperties", %"struct.xalanc_1_8::XalanHTMLElementsProperties::InternalElementProperties", %"struct.xalanc_1_8::XalanHTMLElementsProperties::InternalElementProperties", %"struct.xalanc_1_8::XalanHTMLElementsProperties::InternalElementProperties", %"struct.xalanc_1_8::XalanHTMLElementsProperties::InternalElementProperties", %"struct.xalanc_1_8::XalanHTMLElementsProperties::InternalElementProperties", %"struct.xalanc_1_8::XalanHTMLElementsProperties::InternalElementProperties", %"struct.xalanc_1_8::XalanHTMLElementsProperties::InternalElementProperties", %"struct.xalanc_1_8::XalanHTMLElementsProperties::InternalElementProperties", %"struct.xalanc_1_8::XalanHTMLElementsProperties::InternalElementProperties", %"struct.xalanc_1_8::XalanHTMLElementsProperties::InternalElementProperties", %"struct.xalanc_1_8::XalanHTMLElementsProperties::InternalElementProperties", %"struct.xalanc_1_8::XalanHTMLElementsProperties::InternalElementProperties", %"struct.xalanc_1_8::XalanHTMLElementsProperties::InternalElementProperties", %"struct.xalanc_1_8::XalanHTMLElementsProperties::InternalElementProperties", %"struct.xalanc_1_8::XalanHTMLElementsProperties::InternalElementProperties", %"struct.xalanc_1_8::XalanHTMLElementsProperties::InternalElementProperties", %"struct.xalanc_1_8::XalanHTMLElementsProperties::InternalElementProperties", %"struct.xalanc_1_8::XalanHTMLElementsProperties::InternalElementProperties", %"struct.xalanc_1_8::XalanHTMLElementsProperties::InternalElementProperties", %"struct.xalanc_1_8::XalanHTMLElementsProperties::InternalElementProperties", %"struct.xalanc_1_8::XalanHTMLElementsProperties::InternalElementProperties", %"struct.xalanc_1_8::XalanHTMLElementsProperties::InternalElementProperties", %"struct.xalanc_1_8::XalanHTMLElementsProperties::InternalElementProperties", %"struct.xalanc_1_8::XalanHTMLElementsProperties::InternalElementProperties", %"struct.xalanc_1_8::XalanHTMLElementsProperties::InternalElementProperties", %"struct.xalanc_1_8::XalanHTMLElementsProperties::InternalElementProperties", %"struct.xalanc_1_8::XalanHTMLElementsProperties::InternalElementProperties", %"struct.xalanc_1_8::XalanHTMLElementsProperties::InternalElementProperties", %"struct.xalanc_1_8::XalanHTMLElementsProperties::InternalElementProperties", %"struct.xalanc_1_8::XalanHTMLElementsProperties::InternalElementProperties", %"struct.xalanc_1_8::XalanHTMLElementsProperties::InternalElementProperties", %"struct.xalanc_1_8::XalanHTMLElementsProperties::InternalElementProperties", %"struct.xalanc_1_8::XalanHTMLElementsProperties::InternalElementProperties", %"struct.xalanc_1_8::XalanHTMLElementsProperties::InternalElementProperties", %"struct.xalanc_1_8::XalanHTMLElementsProperties::InternalElementProperties", %"struct.xalanc_1_8::XalanHTMLElementsProperties::InternalElementProperties", %"struct.xalanc_1_8::XalanHTMLElementsProperties::InternalElementProperties", %"struct.xalanc_1_8::XalanHTMLElementsProperties::InternalElementProperties", %"struct.xalanc_1_8::XalanHTMLElementsProperties::InternalElementProperties" }> <{ { <{ i16, [10 x i16] }>, i32, [7 x %"struct.xalanc_1_8::XalanHTMLElementsProperties::InternalAttributeProperties"] } { <{ i16, [10 x i16] }> <{ i16 65, [10 x i16] zeroinitializer }>, i32 32768, [7 x %"struct.xalanc_1_8::XalanHTMLElementsProperties::InternalAttributeProperties"] [%"struct.xalanc_1_8::XalanHTMLElementsProperties::InternalAttributeProperties" { [9 x i16] [i16 72, i16 82, i16 69, i16 70, i16 0, i16 0, i16 0, i16 0, i16 0], i8 2 }, %"struct.xalanc_1_8::XalanHTMLElementsProperties::InternalAttributeProperties" { [9 x i16] [i16 78, i16 65, i16 77, i16 69, i16 0, i16 0, i16 0, i16 0, i16 0], i8 2 }, %"struct.xalanc_1_8::XalanHTMLElementsProperties::InternalAttributeProperties" zeroinitializer, %"struct.xalanc_1_8::XalanHTMLElementsProperties::InternalAttributeProperties" zeroinitializer, %"struct.xalanc_1_8::XalanHTMLElementsProperties::InternalAttributeProperties" zeroinitializer, %"struct.xalanc_1_8::XalanHTMLElementsProperties::InternalAttributeProperties" zeroinitializer, %"struct.xalanc_1_8::XalanHTMLElementsProperties::InternalAttributeProperties" zeroinitializer] }, { <{ i16, [10 x i16] }>, i32, [7 x %"struct.xalanc_1_8::XalanHTMLElementsProperties::InternalAttributeProperties"] } { <{ i16, [10 x i16] }> <{ i16 66, [10 x i16] zeroinitializer }>, i32 4096, [7 x %"struct.xalanc_1_8::XalanHTMLElementsProperties::InternalAttributeProperties"] zeroinitializer }, { <{ i16, [10 x i16] }>, i32, [7 x %"struct.xalanc_1_8::XalanHTMLElementsProperties::InternalAttributeProperties"] } { <{ i16, [10 x i16] }> <{ i16 73, [10 x i16] zeroinitializer }>, i32 4096, [7 x %"struct.xalanc_1_8::XalanHTMLElementsProperties::InternalAttributeProperties"] zeroinitializer }, { <{ i16, [10 x i16] }>, i32, [7 x %"struct.xalanc_1_8::XalanHTMLElementsProperties::InternalAttributeProperties"] } { <{ i16, [10 x i16] }> <{ i16 80, [10 x i16] zeroinitializer }>, i32 56, [7 x %"struct.xalanc_1_8::XalanHTMLElementsProperties::InternalAttributeProperties"] zeroinitializer }, { <{ i16, [10 x i16] }>, i32, [7 x %"struct.xalanc_1_8::XalanHTMLElementsProperties::InternalAttributeProperties"] } { <{ i16, [10 x i16] }> <{ i16 81, [10 x i16] zeroinitializer }>, i32 98304, [7 x %"struct.xalanc_1_8::XalanHTMLElementsProperties::InternalAttributeProperties"] [%"struct.xalanc_1_8::XalanHTMLElementsProperties::InternalAttributeProperties" { [9 x i16] [i16 67, i16 73, i16 84, i16 69, i16 0, i16 0, i16 0, i16 0, i16 0], i8 2 }, %"struct.xalanc_1_8::XalanHTMLElementsProperties::InternalAttributeProperties" zeroinitializer, %"struct.xalanc_1_8::XalanHTMLElementsProperties::InternalAttributeProperties" zeroinitializer, %"struct.xalanc_1_8::XalanHTMLElementsProperties::InternalAttributeProperties" zeroinitializer, %"struct.xalanc_1_8::XalanHTMLElementsProperties::InternalAttributeProperties" zeroinitializer, %"struct.xalanc_1_8::XalanHTMLElementsProperties::InternalAttributeProperties" zeroinitializer, %"struct.xalanc_1_8::XalanHTMLElementsProperties::InternalAttributeProperties" zeroinitializer] }, { <{ i16, [10 x i16] }>, i32, [7 x %"struct.xalanc_1_8::XalanHTMLElementsProperties::InternalAttributeProperties"] } { <{ i16, [10 x i16] }> <{ i16 83, [10 x i16] zeroinitializer }>, i32 4096, [7 x %"struct.xalanc_1_8::XalanHTMLElementsProperties::InternalAttributeProperties"] zeroinitializer }, { <{ i16, [10 x i16] }>, i32, [7 x %"struct.xalanc_1_8::XalanHTMLElementsProperties::InternalAttributeProperties"] } { <{ i16, [10 x i16] }> <{ i16 85, [10 x i16] zeroinitializer }>, i32 4096, [7 x %"struct.xalanc_1_8::XalanHTMLElementsProperties::InternalAttributeProperties"] zeroinitializer }, { <{ i16, i16, [9 x i16] }>, i32, [7 x %"struct.xalanc_1_8::XalanHTMLElementsProperties::InternalAttributeProperties"] } { <{ i16, i16, [9 x i16] }> <{ i16 66, i16 82, [9 x i16] zeroinitializer }>, i32 98314, [7 x %"struct.xalanc_1_8::XalanHTMLElementsProperties::InternalAttributeProperties"] zeroinitializer }, { <{ i16, i16, [9 x i16] }>, i32, [7 x %"struct.xalanc_1_8::XalanHTMLElementsProperties::InternalAttributeProperties"] } { <{ i16, i16, [9 x i16] }> <{ i16 68, i16 68, [9 x i16] zeroinitializer }>, i32 8, [7 x %"struct.xalanc_1_8::XalanHTMLElementsProperties::InternalAttributeProperties"] zeroinitializer }, { <{ i16, i16, [9 x i16] }>, i32, [7 x %"struct.xalanc_1_8::XalanHTMLElementsProperties::InternalAttributeProperties"] } { <{ i16, i16, [9 x i16] }> <{ i16 68, i16 76, [9 x i16] zeroinitializer }>, i32 56, [7 x %"struct.xalanc_1_8::XalanHTMLElementsProperties::InternalAttributeProperties"] zeroinitializer }, { <{ i16, i16, [9 x i16] }>, i32, [7 x %"struct.xalanc_1_8::XalanHTMLElementsProperties::InternalAttributeProperties"] } { <{ i16, i16, [9 x i16] }> <{ i16 68, i16 84, [9 x i16] zeroinitializer }>, i32 8, [7 x %"struct.xalanc_1_8::XalanHTMLElementsProperties::InternalAttributeProperties"] zeroinitializer }, { <{ i16, i16, [9 x i16] }>, i32, [7 x %"struct.xalanc_1_8::XalanHTMLElementsProperties::InternalAttributeProperties"] } { <{ i16, i16, [9 x i16] }> <{ i16 69, i16 77, [9 x i16] zeroinitializer }>, i32 8192, [7 x %"struct.xalanc_1_8::XalanHTMLElementsProperties::InternalAttributeProperties"] zeroinitializer }, { <{ i16, i16, [9 x i16] }>, i32, [7 x %"struct.xalanc_1_8::XalanHTMLElementsProperties::InternalAttributeProperties"] } { <{ i16, i16, [9 x i16] }> <{ i16 72, i16 49, [9 x i16] zeroinitializer }>, i32 262152, [7 x %"struct.xalanc_1_8::XalanHTMLElementsProperties::InternalAttributeProperties"] zeroinitializer }, { <{ i16, i16, [9 x i16] }>, i32, [7 x %"struct.xalanc_1_8::XalanHTMLElementsProperties::InternalAttributeProperties"] } { <{ i16, i16, [9 x i16] }> <{ i16 72, i16 50, [9 x i16] zeroinitializer }>, i32 262152, [7 x %"struct.xalanc_1_8::XalanHTMLElementsProperties::InternalAttributeProperties"] zeroinitializer }, { <{ i16, i16, [9 x i16] }>, i32, [7 x %"struct.xalanc_1_8::XalanHTMLElementsProperties::InternalAttributeProperties"] } { <{ i16, i16, [9 x i16] }> <{ i16 72, i16 51, [9 x i16] zeroinitializer }>, i32 262152, [7 x %"struct.xalanc_1_8::XalanHTMLElementsProperties::InternalAttributeProperties"] zeroinitializer }, { <{ i16, i16, [9 x i16] }>, i32, [7 x %"struct.xalanc_1_8::XalanHTMLElementsProperties::InternalAttributeProperties"] } { <{ i16, i16, [9 x i16] }> <{ i16 72, i16 52, [9 x i16] zeroinitializer }>, i32 262152, [7 x %"struct.xalanc_1_8::XalanHTMLElementsProperties::InternalAttributeProperties"] zeroinitializer }, { <{ i16, i16, [9 x i16] }>, i32, [7 x %"struct.xalanc_1_8::XalanHTMLElementsProperties::InternalAttributeProperties"] } { <{ i16, i16, [9 x i16] }> <{ i16 72, i16 53, [9 x i16] zeroinitializer }>, i32 262152, [7 x %"struct.xalanc_1_8::XalanHTMLElementsProperties::InternalAttributeProperties"] zeroinitializer }, { <{ i16, i16, [9 x i16] }>, i32, [7 x %"struct.xalanc_1_8::XalanHTMLElementsProperties::InternalAttributeProperties"] } { <{ i16, i16, [9 x i16] }> <{ i16 72, i16 54, [9 x i16] zeroinitializer }>, i32 262152, [7 x %"struct.xalanc_1_8::XalanHTMLElementsProperties::InternalAttributeProperties"] zeroinitializer }, { <{ i16, i16, [9 x i16] }>, i32, [7 x %"struct.xalanc_1_8::XalanHTMLElementsProperties::InternalAttributeProperties"] } { <{ i16, i16, [9 x i16] }> <{ i16 72, i16 82, [9 x i16] zeroinitializer }>, i32 58, [7 x %"struct.xalanc_1_8::XalanHTMLElementsProperties::InternalAttributeProperties"] zeroinitializer }, { <{ i16, i16, [9 x i16] }>, i32, [7 x %"struct.xalanc_1_8::XalanHTMLElementsProperties::InternalAttributeProperties"] } { <{ i16, i16, [9 x i16] }> <{ i16 76, i16 73, [9 x i16] zeroinitializer }>, i32 8, [7 x %"struct.xalanc_1_8::XalanHTMLElementsProperties::InternalAttributeProperties"] zeroinitializer }, { <{ i16, i16, [9 x i16] }>, i32, [7 x %"struct.xalanc_1_8::XalanHTMLElementsProperties::InternalAttributeProperties"] } { <{ i16, i16, [9 x i16] }> <{ i16 79, i16 76, [9 x i16] zeroinitializer }>, i32 524296, [7 x %"struct.xalanc_1_8::XalanHTMLElementsProperties::InternalAttributeProperties"] zeroinitializer }, { <{ i16, i16, [9 x i16] }>, i32, [7 x %"struct.xalanc_1_8::XalanHTMLElementsProperties::InternalAttributeProperties"] } { <{ i16, i16, [9 x i16] }> <{ i16 84, i16 68, [9 x i16] zeroinitializer }>, i32 0, [7 x %"struct.xalanc_1_8::XalanHTMLElementsProperties::InternalAttributeProperties"] zeroinitializer }, { <{ i16, i16, [9 x i16] }>, i32, [7 x %"struct.xalanc_1_8::XalanHTMLElementsProperties::InternalAttributeProperties"] } { <{ i16, i16, [9 x i16] }> <{ i16 84, i16 72, [9 x i16] zeroinitializer }>, i32 0, [7 x %"struct.xalanc_1_8::XalanHTMLElementsProperties::InternalAttributeProperties"] zeroinitializer }, { <{ i16, i16, [9 x i16] }>, i32, [7 x %"struct.xalanc_1_8::XalanHTMLElementsProperties::InternalAttributeProperties"] } { <{ i16, i16, [9 x i16] }> <{ i16 84, i16 82, [9 x i16] zeroinitializer }>, i32 8, [7 x %"struct.xalanc_1_8::XalanHTMLElementsProperties::InternalAttributeProperties"] zeroinitializer }, { <{ i16, i16, [9 x i16] }>, i32, [7 x %"struct.xalanc_1_8::XalanHTMLElementsProperties::InternalAttributeProperties"] } { <{ i16, i16, [9 x i16] }> <{ i16 84, i16 84, [9 x i16] zeroinitializer }>, i32 4096, [7 x %"struct.xalanc_1_8::XalanHTMLElementsProperties::InternalAttributeProperties"] zeroinitializer }, { <{ i16, i16, [9 x i16] }>, i32, [7 x %"struct.xalanc_1_8::XalanHTMLElementsProperties::InternalAttributeProperties"] } { <{ i16, i16, [9 x i16] }> <{ i16 85, i16 76, [9 x i16] zeroinitializer }>, i32 524296, [7 x %"struct.xalanc_1_8::XalanHTMLElementsProperties::InternalAttributeProperties"] zeroinitializer }, { <{ i16, i16, i16, [8 x i16] }>, i32, [7 x %"struct.xalanc_1_8::XalanHTMLElementsProperties::InternalAttributeProperties"] } { <{ i16, i16, i16, [8 x i16] }> <{ i16 66, i16 68, i16 79, [8 x i16] zeroinitializer }>, i32 98304, [7 x %"struct.xalanc_1_8::XalanHTMLElementsProperties::InternalAttributeProperties"] zeroinitializer }, { <{ i16, i16, i16, [8 x i16] }>, i32, [7 x %"struct.xalanc_1_8::XalanHTMLElementsProperties::InternalAttributeProperties"] } { <{ i16, i16, i16, [8 x i16] }> <{ i16 66, i16 73, i16 71, [8 x i16] zeroinitializer }>, i32 4096, [7 x %"struct.xalanc_1_8::XalanHTMLElementsProperties::InternalAttributeProperties"] zeroinitializer }, { <{ i16, i16, i16, [8 x i16] }>, i32, [7 x %"struct.xalanc_1_8::XalanHTMLElementsProperties::InternalAttributeProperties"] } { <{ i16, i16, i16, [8 x i16] }> <{ i16 67, i16 79, i16 76, [8 x i16] zeroinitializer }>, i32 10, [7 x %"struct.xalanc_1_8::XalanHTMLElementsProperties::InternalAttributeProperties"] zeroinitializer }, { <{ i16, i16, i16, [8 x i16] }>, i32, [7 x %"struct.xalanc_1_8::XalanHTMLElementsProperties::InternalAttributeProperties"] } { <{ i16, i16, i16, [8 x i16] }> <{ i16 68, i16 69, i16 76, [8 x i16] zeroinitializer }>, i32 0, [7 x %"struct.xalanc_1_8::XalanHTMLElementsProperties::InternalAttributeProperties"] [%"struct.xalanc_1_8::XalanHTMLElementsProperties::InternalAttributeProperties" { [9 x i16] [i16 67, i16 73, i16 84, i16 69, i16 0, i16 0, i16 0, i16 0, i16 0], i8 2 }, %"struct.xalanc_1_8::XalanHTMLElementsProperties::InternalAttributeProperties" zeroinitializer, %"struct.xalanc_1_8::XalanHTMLElementsProperties::InternalAttributeProperties" zeroinitializer, %"struct.xalanc_1_8::XalanHTMLElementsProperties::InternalAttributeProperties" zeroinitializer, %"struct.xalanc_1_8::XalanHTMLElementsProperties::InternalAttributeProperties" zeroinitializer, %"struct.xalanc_1_8::XalanHTMLElementsProperties::InternalAttributeProperties" zeroinitializer, %"struct.xalanc_1_8::XalanHTMLElementsProperties::InternalAttributeProperties" zeroinitializer] }, { <{ i16, i16, i16, [8 x i16] }>, i32, [7 x %"struct.xalanc_1_8::XalanHTMLElementsProperties::InternalAttributeProperties"] } { <{ i16, i16, i16, [8 x i16] }> <{ i16 68, i16 70, i16 78, [8 x i16] zeroinitializer }>, i32 8192, [7 x %"struct.xalanc_1_8::XalanHTMLElementsProperties::InternalAttributeProperties"] zeroinitializer }, { <{ i16, i16, i16, [8 x i16] }>, i32, [7 x %"struct.xalanc_1_8::XalanHTMLElementsProperties::InternalAttributeProperties"] } { <{ i16, i16, i16, [8 x i16] }> <{ i16 68, i16 73, i16 82, [8 x i16] zeroinitializer }>, i32 8, [7 x %"struct.xalanc_1_8::XalanHTMLElementsProperties::InternalAttributeProperties"] zeroinitializer }, { <{ i16, i16, i16, [8 x i16] }>, i32, [7 x %"struct.xalanc_1_8::XalanHTMLElementsProperties::InternalAttributeProperties"] } { <{ i16, i16, i16, [8 x i16] }> <{ i16 68, i16 73, i16 86, [8 x i16] zeroinitializer }>, i32 56, [7 x %"struct.xalanc_1_8::XalanHTMLElementsProperties::InternalAttributeProperties"] zeroinitializer }, { <{ i16, i16, i16, [8 x i16] }>, i32, [7 x %"struct.xalanc_1_8::XalanHTMLElementsProperties::InternalAttributeProperties"] } { <{ i16, i16, i16, [8 x i16] }> <{ i16 73, i16 77, i16 71, [8 x i16] zeroinitializer }>, i32 2195458, [7 x %"struct.xalanc_1_8::XalanHTMLElementsProperties::InternalAttributeProperties"] [%"struct.xalanc_1_8::XalanHTMLElementsProperties::InternalAttributeProperties" { [9 x i16] [i16 83, i16 82, i16 67, i16 0, i16 0, i16 0, i16 0, i16 0, i16 0], i8 2 }, %"struct.xalanc_1_8::XalanHTMLElementsProperties::InternalAttributeProperties" { [9 x i16] [i16 73, i16 83, i16 77, i16 65, i16 80, i16 0, i16 0, i16 0, i16 0], i8 4 }, %"struct.xalanc_1_8::XalanHTMLElementsProperties::InternalAttributeProperties" { [9 x i16] [i16 85, i16 83, i16 69, i16 77, i16 65, i16 80, i16 0, i16 0, i16 0], i8 2 }, %"struct.xalanc_1_8::XalanHTMLElementsProperties::InternalAttributeProperties" { [9 x i16] [i16 76, i16 79, i16 78, i16 71, i16 68, i16 69, i16 83, i16 67, i16 0], i8 2 }, %"struct.xalanc_1_8::XalanHTMLElementsProperties::InternalAttributeProperties" zeroinitializer, %"struct.xalanc_1_8::XalanHTMLElementsProperties::InternalAttributeProperties" zeroinitializer, %"struct.xalanc_1_8::XalanHTMLElementsProperties::InternalAttributeProperties" zeroinitializer] }, { <{ i16, i16, i16, [8 x i16] }>, i32, [7 x %"struct.xalanc_1_8::XalanHTMLElementsProperties::InternalAttributeProperties"] } { <{ i16, i16, i16, [8 x i16] }> <{ i16 73, i16 78, i16 83, [8 x i16] zeroinitializer }>, i32 0, [7 x %"struct.xalanc_1_8::XalanHTMLElementsProperties::InternalAttributeProperties"] [%"struct.xalanc_1_8::XalanHTMLElementsProperties::InternalAttributeProperties" { [9 x i16] [i16 67, i16 73, i16 84, i16 69, i16 0, i16 0, i16 0, i16 0, i16 0], i8 2 }, %"struct.xalanc_1_8::XalanHTMLElementsProperties::InternalAttributeProperties" zeroinitializer, %"struct.xalanc_1_8::XalanHTMLElementsProperties::InternalAttributeProperties" zeroinitializer, %"struct.xalanc_1_8::XalanHTMLElementsProperties::InternalAttributeProperties" zeroinitializer, %"struct.xalanc_1_8::XalanHTMLElementsProperties::InternalAttributeProperties" zeroinitializer, %"struct.xalanc_1_8::XalanHTMLElementsProperties::InternalAttributeProperties" zeroinitializer, %"struct.xalanc_1_8::XalanHTMLElementsProperties::InternalAttributeProperties" zeroinitializer] }, { <{ i16, i16, i16, [8 x i16] }>, i32, [7 x %"struct.xalanc_1_8::XalanHTMLElementsProperties::InternalAttributeProperties"] } { <{ i16, i16, i16, [8 x i16] }> <{ i16 75, i16 66, i16 68, [8 x i16] zeroinitializer }>, i32 8192, [7 x %"struct.xalanc_1_8::XalanHTMLElementsProperties::InternalAttributeProperties"] zeroinitializer }, { <{ i16, i16, i16, [8 x i16] }>, i32, [7 x %"struct.xalanc_1_8::XalanHTMLElementsProperties::InternalAttributeProperties"] } { <{ i16, i16, i16, [8 x i16] }> <{ i16 77, i16 65, i16 80, [8 x i16] zeroinitializer }>, i32 98312, [7 x %"struct.xalanc_1_8::XalanHTMLElementsProperties::InternalAttributeProperties"] zeroinitializer }, { <{ i16, i16, i16, [8 x i16] }>, i32, [7 x %"struct.xalanc_1_8::XalanHTMLElementsProperties::InternalAttributeProperties"] } { <{ i16, i16, i16, [8 x i16] }> <{ i16 80, i16 82, i16 69, [8 x i16] zeroinitializer }>, i32 1048584, [7 x %"struct.xalanc_1_8::XalanHTMLElementsProperties::InternalAttributeProperties"] zeroinitializer }, { <{ i16, i16, i16, [8 x i16] }>, i32, [7 x %"struct.xalanc_1_8::XalanHTMLElementsProperties::InternalAttributeProperties"] } { <{ i16, i16, i16, [8 x i16] }> <{ i16 83, i16 85, i16 66, [8 x i16] zeroinitializer }>, i32 98304, [7 x %"struct.xalanc_1_8::XalanHTMLElementsProperties::InternalAttributeProperties"] zeroinitializer }, { <{ i16, i16, i16, [8 x i16] }>, i32, [7 x %"struct.xalanc_1_8::XalanHTMLElementsProperties::InternalAttributeProperties"] } { <{ i16, i16, i16, [8 x i16] }> <{ i16 83, i16 85, i16 80, [8 x i16] zeroinitializer }>, i32 98304, [7 x %"struct.xalanc_1_8::XalanHTMLElementsProperties::InternalAttributeProperties"] zeroinitializer }, { <{ i16, i16, i16, [8 x i16] }>, i32, [7 x %"struct.xalanc_1_8::XalanHTMLElementsProperties::InternalAttributeProperties"] } { <{ i16, i16, i16, [8 x i16] }> <{ i16 86, i16 65, i16 82, [8 x i16] zeroinitializer }>, i32 8192, [7 x %"struct.xalanc_1_8::XalanHTMLElementsProperties::InternalAttributeProperties"] zeroinitializer }, %"struct.xalanc_1_8::XalanHTMLElementsProperties::InternalElementProperties" { [11 x i16] [i16 65, i16 66, i16 66, i16 82, i16 0, i16 0, i16 0, i16 0, i16 0, i16 0, i16 0], i32 8192, [7 x %"struct.xalanc_1_8::XalanHTMLElementsProperties::InternalAttributeProperties"] zeroinitializer }, %"struct.xalanc_1_8::XalanHTMLElementsProperties::InternalElementProperties" { [11 x i16] [i16 65, i16 82, i16 69, i16 65, i16 0, i16 0, i16 0, i16 0, i16 0, i16 0, i16 0], i32 10, [7 x %"struct.xalanc_1_8::XalanHTMLElementsProperties::InternalAttributeProperties"] [%"struct.xalanc_1_8::XalanHTMLElementsProperties::InternalAttributeProperties" { [9 x i16] [i16 72, i16 82, i16 69, i16 70, i16 0, i16 0, i16 0, i16 0, i16 0], i8 2 }, %"struct.xalanc_1_8::XalanHTMLElementsProperties::InternalAttributeProperties" { [9 x i16] [i16 78, i16 79, i16 72, i16 82, i16 69, i16 70, i16 0, i16 0, i16 0], i8 4 }, %"struct.xalanc_1_8::XalanHTMLElementsProperties::InternalAttributeProperties" zeroinitializer, %"struct.xalanc_1_8::XalanHTMLElementsProperties::InternalAttributeProperties" zeroinitializer, %"struct.xalanc_1_8::XalanHTMLElementsProperties::InternalAttributeProperties" zeroinitializer, %"struct.xalanc_1_8::XalanHTMLElementsProperties::InternalAttributeProperties" zeroinitializer, %"struct.xalanc_1_8::XalanHTMLElementsProperties::InternalAttributeProperties" zeroinitializer] }, %"struct.xalanc_1_8::XalanHTMLElementsProperties::InternalElementProperties" { [11 x i16] [i16 66, i16 65, i16 83, i16 69, i16 0, i16 0, i16 0, i16 0, i16 0, i16 0, i16 0], i32 10, [7 x %"struct.xalanc_1_8::XalanHTMLElementsProperties::InternalAttributeProperties"] [%"struct.xalanc_1_8::XalanHTMLElementsProperties::InternalAttributeProperties" { [9 x i16] [i16 72, i16 82, i16 69, i16 70, i16 0, i16 0, i16 0, i16 0, i16 0], i8 2 }, %"struct.xalanc_1_8::XalanHTMLElementsProperties::InternalAttributeProperties" zeroinitializer, %"struct.xalanc_1_8::XalanHTMLElementsProperties::InternalAttributeProperties" zeroinitializer, %"struct.xalanc_1_8::XalanHTMLElementsProperties::InternalAttributeProperties" zeroinitializer, %"struct.xalanc_1_8::XalanHTMLElementsProperties::InternalAttributeProperties" zeroinitializer, %"struct.xalanc_1_8::XalanHTMLElementsProperties::InternalAttributeProperties" zeroinitializer, %"struct.xalanc_1_8::XalanHTMLElementsProperties::InternalAttributeProperties" zeroinitializer] }, %"struct.xalanc_1_8::XalanHTMLElementsProperties::InternalElementProperties" { [11 x i16] [i16 66, i16 79, i16 68, i16 89, i16 0, i16 0, i16 0, i16 0, i16 0, i16 0, i16 0], i32 8, [7 x %"struct.xalanc_1_8::XalanHTMLElementsProperties::InternalAttributeProperties"] zeroinitializer }, %"struct.xalanc_1_8::XalanHTMLElementsProperties::InternalElementProperties" { [11 x i16] [i16 67, i16 73, i16 84, i16 69, i16 0, i16 0, i16 0, i16 0, i16 0, i16 0, i16 0], i32 8192, [7 x %"struct.xalanc_1_8::XalanHTMLElementsProperties::InternalAttributeProperties"] zeroinitializer }, %"struct.xalanc_1_8::XalanHTMLElementsProperties::InternalElementProperties" { [11 x i16] [i16 67, i16 79, i16 68, i16 69, i16 0, i16 0, i16 0, i16 0, i16 0, i16 0, i16 0], i32 8192, [7 x %"struct.xalanc_1_8::XalanHTMLElementsProperties::InternalAttributeProperties"] zeroinitializer }, %"struct.xalanc_1_8::XalanHTMLElementsProperties::InternalElementProperties" { [11 x i16] [i16 70, i16 79, i16 78, i16 84, i16 0, i16 0, i16 0, i16 0, i16 0, i16 0, i16 0], i32 4096, [7 x %"struct.xalanc_1_8::XalanHTMLElementsProperties::InternalAttributeProperties"] zeroinitializer }, %"struct.xalanc_1_8::XalanHTMLElementsProperties::InternalElementProperties" { [11 x i16] [i16 70, i16 79, i16 82, i16 77, i16 0, i16 0, i16 0, i16 0, i16 0, i16 0, i16 0], i32 8, [7 x %"struct.xalanc_1_8::XalanHTMLElementsProperties::InternalAttributeProperties"] [%"struct.xalanc_1_8::XalanHTMLElementsProperties::InternalAttributeProperties" { [9 x i16] [i16 65, i16 67, i16 84, i16 73, i16 79, i16 78, i16 0, i16 0, i16 0], i8 2 }, %"struct.xalanc_1_8::XalanHTMLElementsProperties::InternalAttributeProperties" zeroinitializer, %"struct.xalanc_1_8::XalanHTMLElementsProperties::InternalAttributeProperties" zeroinitializer, %"struct.xalanc_1_8::XalanHTMLElementsProperties::InternalAttributeProperties" zeroinitializer, %"struct.xalanc_1_8::XalanHTMLElementsProperties::InternalAttributeProperties" zeroinitializer, %"struct.xalanc_1_8::XalanHTMLElementsProperties::InternalAttributeProperties" zeroinitializer, %"struct.xalanc_1_8::XalanHTMLElementsProperties::InternalAttributeProperties" zeroinitializer] }, %"struct.xalanc_1_8::XalanHTMLElementsProperties::InternalElementProperties" { [11 x i16] [i16 72, i16 69, i16 65, i16 68, i16 0, i16 0, i16 0, i16 0, i16 0, i16 0, i16 0], i32 4194312, [7 x %"struct.xalanc_1_8::XalanHTMLElementsProperties::InternalAttributeProperties"] [%"struct.xalanc_1_8::XalanHTMLElementsProperties::InternalAttributeProperties" { [9 x i16] [i16 80, i16 82, i16 79, i16 70, i16 73, i16 76, i16 69, i16 0, i16 0], i8 2 }, %"struct.xalanc_1_8::XalanHTMLElementsProperties::InternalAttributeProperties" zeroinitializer, %"struct.xalanc_1_8::XalanHTMLElementsProperties::InternalAttributeProperties" zeroinitializer, %"struct.xalanc_1_8::XalanHTMLElementsProperties::InternalAttributeProperties" zeroinitializer, %"struct.xalanc_1_8::XalanHTMLElementsProperties::InternalAttributeProperties" zeroinitializer, %"struct.xalanc_1_8::XalanHTMLElementsProperties::InternalAttributeProperties" zeroinitializer, %"struct.xalanc_1_8::XalanHTMLElementsProperties::InternalAttributeProperties" zeroinitializer] }, %"struct.xalanc_1_8::XalanHTMLElementsProperties::InternalElementProperties" { [11 x i16] [i16 72, i16 84, i16 77, i16 76, i16 0, i16 0, i16 0, i16 0, i16 0, i16 0, i16 0], i32 8, [7 x %"struct.xalanc_1_8::XalanHTMLElementsProperties::InternalAttributeProperties"] zeroinitializer }, %"struct.xalanc_1_8::XalanHTMLElementsProperties::InternalElementProperties" { [11 x i16] [i16 76, i16 73, i16 78, i16 75, i16 0, i16 0, i16 0, i16 0, i16 0, i16 0, i16 0], i32 131082, [7 x %"struct.xalanc_1_8::XalanHTMLElementsProperties::InternalAttributeProperties"] zeroinitializer }, %"struct.xalanc_1_8::XalanHTMLElementsProperties::InternalElementProperties" { [11 x i16] [i16 77, i16 69, i16 78, i16 85, i16 0, i16 0, i16 0, i16 0, i16 0, i16 0, i16 0], i32 8, [7 x %"struct.xalanc_1_8::XalanHTMLElementsProperties::InternalAttributeProperties"] zeroinitializer }, %"struct.xalanc_1_8::XalanHTMLElementsProperties::InternalElementProperties" { [11 x i16] [i16 77, i16 69, i16 84, i16 65, i16 0, i16 0, i16 0, i16 0, i16 0, i16 0, i16 0], i32 131082, [7 x %"struct.xalanc_1_8::XalanHTMLElementsProperties::InternalAttributeProperties"] zeroinitializer }, %"struct.xalanc_1_8::XalanHTMLElementsProperties::InternalElementProperties" { [11 x i16] [i16 78, i16 79, i16 66, i16 82, i16 0, i16 0, i16 0, i16 0, i16 0, i16 0, i16 0], i32 4096, [7 x %"struct.xalanc_1_8::XalanHTMLElementsProperties::InternalAttributeProperties"] zeroinitializer }, %"struct.xalanc_1_8::XalanHTMLElementsProperties::InternalElementProperties" { [11 x i16] [i16 83, i16 65, i16 77, i16 80, i16 0, i16 0, i16 0, i16 0, i16 0, i16 0, i16 0], i32 8192, [7 x %"struct.xalanc_1_8::XalanHTMLElementsProperties::InternalAttributeProperties"] zeroinitializer }, %"struct.xalanc_1_8::XalanHTMLElementsProperties::InternalElementProperties" { [11 x i16] [i16 83, i16 80, i16 65, i16 78, i16 0, i16 0, i16 0, i16 0, i16 0, i16 0, i16 0], i32 98304, [7 x %"struct.xalanc_1_8::XalanHTMLElementsProperties::InternalAttributeProperties"] zeroinitializer }, %"struct.xalanc_1_8::XalanHTMLElementsProperties::InternalElementProperties" { [11 x i16] [i16 70, i16 82, i16 65, i16 77, i16 69, i16 0, i16 0, i16 0, i16 0, i16 0, i16 0], i32 10, [7 x %"struct.xalanc_1_8::XalanHTMLElementsProperties::InternalAttributeProperties"] [%"struct.xalanc_1_8::XalanHTMLElementsProperties::InternalAttributeProperties" { [9 x i16] [i16 83, i16 82, i16 67, i16 0, i16 0, i16 0, i16 0, i16 0, i16 0], i8 2 }, %"struct.xalanc_1_8::XalanHTMLElementsProperties::InternalAttributeProperties" zeroinitializer, %"struct.xalanc_1_8::XalanHTMLElementsProperties::InternalAttributeProperties" zeroinitializer, %"struct.xalanc_1_8::XalanHTMLElementsProperties::InternalAttributeProperties" zeroinitializer, %"struct.xalanc_1_8::XalanHTMLElementsProperties::InternalAttributeProperties" zeroinitializer, %"struct.xalanc_1_8::XalanHTMLElementsProperties::InternalAttributeProperties" zeroinitializer, %"struct.xalanc_1_8::XalanHTMLElementsProperties::InternalAttributeProperties" zeroinitializer] }, %"struct.xalanc_1_8::XalanHTMLElementsProperties::InternalElementProperties" { [11 x i16] [i16 73, i16 78, i16 80, i16 85, i16 84, i16 0, i16 0, i16 0, i16 0, i16 0, i16 0], i32 18434, [7 x %"struct.xalanc_1_8::XalanHTMLElementsProperties::InternalAttributeProperties"] [%"struct.xalanc_1_8::XalanHTMLElementsProperties::InternalAttributeProperties" { [9 x i16] [i16 83, i16 82, i16 67, i16 0, i16 0, i16 0, i16 0, i16 0, i16 0], i8 2 }, %"struct.xalanc_1_8::XalanHTMLElementsProperties::InternalAttributeProperties" { [9 x i16] [i16 73, i16 83, i16 77, i16 65, i16 80, i16 0, i16 0, i16 0, i16 0], i8 4 }, %"struct.xalanc_1_8::XalanHTMLElementsProperties::InternalAttributeProperties" { [9 x i16] [i16 85, i16 83, i16 69, i16 77, i16 65, i16 80, i16 0, i16 0, i16 0], i8 2 }, %"struct.xalanc_1_8::XalanHTMLElementsProperties::InternalAttributeProperties" { [9 x i16] [i16 67, i16 72, i16 69, i16 67, i16 75, i16 69, i16 68, i16 0, i16 0], i8 4 }, %"struct.xalanc_1_8::XalanHTMLElementsProperties::InternalAttributeProperties" { [9 x i16] [i16 68, i16 73, i16 83, i16 65, i16 66, i16 76, i16 69, i16 68, i16 0], i8 4 }, %"struct.xalanc_1_8::XalanHTMLElementsProperties::InternalAttributeProperties" { [9 x i16] [i16 82, i16 69, i16 65, i16 68, i16 79, i16 78, i16 76, i16 89, i16 0], i8 4 }, %"struct.xalanc_1_8::XalanHTMLElementsProperties::InternalAttributeProperties" zeroinitializer] }, %"struct.xalanc_1_8::XalanHTMLElementsProperties::InternalElementProperties" { [11 x i16] [i16 76, i16 65, i16 66, i16 69, i16 76, i16 0, i16 0, i16 0, i16 0, i16 0, i16 0], i32 16384, [7 x %"struct.xalanc_1_8::XalanHTMLElementsProperties::InternalAttributeProperties"] zeroinitializer }, %"struct.xalanc_1_8::XalanHTMLElementsProperties::InternalElementProperties" { [11 x i16] [i16 80, i16 65, i16 82, i16 65, i16 77, i16 0, i16 0, i16 0, i16 0, i16 0, i16 0], i32 2, [7 x %"struct.xalanc_1_8::XalanHTMLElementsProperties::InternalAttributeProperties"] zeroinitializer }, %"struct.xalanc_1_8::XalanHTMLElementsProperties::InternalElementProperties" { [11 x i16] [i16 83, i16 77, i16 65, i16 76, i16 76, i16 0, i16 0, i16 0, i16 0, i16 0, i16 0], i32 4096, [7 x %"struct.xalanc_1_8::XalanHTMLElementsProperties::InternalAttributeProperties"] zeroinitializer }, %"struct.xalanc_1_8::XalanHTMLElementsProperties::InternalElementProperties" { [11 x i16] [i16 83, i16 84, i16 89, i16 76, i16 69, i16 0, i16 0, i16 0, i16 0, i16 0, i16 0], i32 8519944, [7 x %"struct.xalanc_1_8::XalanHTMLElementsProperties::InternalAttributeProperties"] zeroinitializer }, %"struct.xalanc_1_8::XalanHTMLElementsProperties::InternalElementProperties" { [11 x i16] [i16 84, i16 65, i16 66, i16 76, i16 69, i16 0, i16 0, i16 0, i16 0, i16 0, i16 0], i32 56, [7 x %"struct.xalanc_1_8::XalanHTMLElementsProperties::InternalAttributeProperties"] zeroinitializer }, %"struct.xalanc_1_8::XalanHTMLElementsProperties::InternalElementProperties" { [11 x i16] [i16 84, i16 66, i16 79, i16 68, i16 89, i16 0, i16 0, i16 0, i16 0, i16 0, i16 0], i32 8, [7 x %"struct.xalanc_1_8::XalanHTMLElementsProperties::InternalAttributeProperties"] zeroinitializer }, %"struct.xalanc_1_8::XalanHTMLElementsProperties::InternalElementProperties" { [11 x i16] [i16 84, i16 70, i16 79, i16 79, i16 84, i16 0, i16 0, i16 0, i16 0, i16 0, i16 0], i32 8, [7 x %"struct.xalanc_1_8::XalanHTMLElementsProperties::InternalAttributeProperties"] zeroinitializer }, %"struct.xalanc_1_8::XalanHTMLElementsProperties::InternalElementProperties" { [11 x i16] [i16 84, i16 72, i16 69, i16 65, i16 68, i16 0, i16 0, i16 0, i16 0, i16 0, i16 0], i32 8, [7 x %"struct.xalanc_1_8::XalanHTMLElementsProperties::InternalAttributeProperties"] zeroinitializer }, %"struct.xalanc_1_8::XalanHTMLElementsProperties::InternalElementProperties" { [11 x i16] [i16 84, i16 73, i16 84, i16 76, i16 69, i16 0, i16 0, i16 0, i16 0, i16 0, i16 0], i32 8, [7 x %"struct.xalanc_1_8::XalanHTMLElementsProperties::InternalAttributeProperties"] zeroinitializer }, %"struct.xalanc_1_8::XalanHTMLElementsProperties::InternalElementProperties" { [11 x i16] [i16 65, i16 80, i16 80, i16 76, i16 69, i16 84, i16 0, i16 0, i16 0, i16 0, i16 0], i32 2097152, [7 x %"struct.xalanc_1_8::XalanHTMLElementsProperties::InternalAttributeProperties"] zeroinitializer }, %"struct.xalanc_1_8::XalanHTMLElementsProperties::InternalElementProperties" { [11 x i16] [i16 66, i16 85, i16 84, i16 84, i16 79, i16 78, i16 0, i16 0, i16 0, i16 0, i16 0], i32 18432, [7 x %"struct.xalanc_1_8::XalanHTMLElementsProperties::InternalAttributeProperties"] [%"struct.xalanc_1_8::XalanHTMLElementsProperties::InternalAttributeProperties" { [9 x i16] [i16 68, i16 73, i16 83, i16 65, i16 66, i16 76, i16 69, i16 68, i16 0], i8 4 }, %"struct.xalanc_1_8::XalanHTMLElementsProperties::InternalAttributeProperties" zeroinitializer, %"struct.xalanc_1_8::XalanHTMLElementsProperties::InternalAttributeProperties" zeroinitializer, %"struct.xalanc_1_8::XalanHTMLElementsProperties::InternalAttributeProperties" zeroinitializer, %"struct.xalanc_1_8::XalanHTMLElementsProperties::InternalAttributeProperties" zeroinitializer, %"struct.xalanc_1_8::XalanHTMLElementsProperties::InternalAttributeProperties" zeroinitializer, %"struct.xalanc_1_8::XalanHTMLElementsProperties::InternalAttributeProperties" zeroinitializer] }, %"struct.xalanc_1_8::XalanHTMLElementsProperties::InternalElementProperties" { [11 x i16] [i16 67, i16 69, i16 78, i16 84, i16 69, i16 82, i16 0, i16 0, i16 0, i16 0, i16 0], i32 8, [7 x %"struct.xalanc_1_8::XalanHTMLElementsProperties::InternalAttributeProperties"] zeroinitializer }, %"struct.xalanc_1_8::XalanHTMLElementsProperties::InternalElementProperties" { [11 x i16] [i16 76, i16 69, i16 71, i16 69, i16 78, i16 68, i16 0, i16 0, i16 0, i16 0, i16 0], i32 0, [7 x %"struct.xalanc_1_8::XalanHTMLElementsProperties::InternalAttributeProperties"] zeroinitializer }, %"struct.xalanc_1_8::XalanHTMLElementsProperties::InternalElementProperties" { [11 x i16] [i16 79, i16 66, i16 74, i16 69, i16 67, i16 84, i16 0, i16 0, i16 0, i16 0, i16 0], i32 2326528, [7 x %"struct.xalanc_1_8::XalanHTMLElementsProperties::InternalAttributeProperties"] [%"struct.xalanc_1_8::XalanHTMLElementsProperties::InternalAttributeProperties" { [9 x i16] [i16 68, i16 65, i16 84, i16 65, i16 0, i16 0, i16 0, i16 0, i16 0], i8 2 }, %"struct.xalanc_1_8::XalanHTMLElementsProperties::InternalAttributeProperties" { [9 x i16] [i16 85, i16 83, i16 69, i16 77, i16 65, i16 80, i16 0, i16 0, i16 0], i8 2 }, %"struct.xalanc_1_8::XalanHTMLElementsProperties::InternalAttributeProperties" { [9 x i16] [i16 65, i16 82, i16 67, i16 72, i16 73, i16 86, i16 69, i16 0, i16 0], i8 2 }, %"struct.xalanc_1_8::XalanHTMLElementsProperties::InternalAttributeProperties" { [9 x i16] [i16 67, i16 76, i16 65, i16 83, i16 83, i16 73, i16 68, i16 0, i16 0], i8 2 }, %"struct.xalanc_1_8::XalanHTMLElementsProperties::InternalAttributeProperties" { [9 x i16] [i16 68, i16 69, i16 67, i16 76, i16 65, i16 82, i16 69, i16 0, i16 0], i8 4 }, %"struct.xalanc_1_8::XalanHTMLElementsProperties::InternalAttributeProperties" { [9 x i16] [i16 67, i16 79, i16 68, i16 69, i16 66, i16 65, i16 83, i16 69, i16 0], i8 2 }, %"struct.xalanc_1_8::XalanHTMLElementsProperties::InternalAttributeProperties" zeroinitializer] }, %"struct.xalanc_1_8::XalanHTMLElementsProperties::InternalElementProperties" { [11 x i16] [i16 79, i16 80, i16 84, i16 73, i16 79, i16 78, i16 0, i16 0, i16 0, i16 0, i16 0], i32 0, [7 x %"struct.xalanc_1_8::XalanHTMLElementsProperties::InternalAttributeProperties"] [%"struct.xalanc_1_8::XalanHTMLElementsProperties::InternalAttributeProperties" { [9 x i16] [i16 68, i16 73, i16 83, i16 65, i16 66, i16 76, i16 69, i16 68, i16 0], i8 4 }, %"struct.xalanc_1_8::XalanHTMLElementsProperties::InternalAttributeProperties" { [9 x i16] [i16 83, i16 69, i16 76, i16 69, i16 67, i16 84, i16 69, i16 68, i16 0], i8 4 }, %"struct.xalanc_1_8::XalanHTMLElementsProperties::InternalAttributeProperties" zeroinitializer, %"struct.xalanc_1_8::XalanHTMLElementsProperties::InternalAttributeProperties" zeroinitializer, %"struct.xalanc_1_8::XalanHTMLElementsProperties::InternalAttributeProperties" zeroinitializer, %"struct.xalanc_1_8::XalanHTMLElementsProperties::InternalAttributeProperties" zeroinitializer, %"struct.xalanc_1_8::XalanHTMLElementsProperties::InternalAttributeProperties" zeroinitializer] }, %"struct.xalanc_1_8::XalanHTMLElementsProperties::InternalElementProperties" { [11 x i16] [i16 83, i16 67, i16 82, i16 73, i16 80, i16 84, i16 0, i16 0, i16 0, i16 0, i16 0], i32 17006848, [7 x %"struct.xalanc_1_8::XalanHTMLElementsProperties::InternalAttributeProperties"] [%"struct.xalanc_1_8::XalanHTMLElementsProperties::InternalAttributeProperties" { [9 x i16] [i16 70, i16 79, i16 82, i16 0, i16 0, i16 0, i16 0, i16 0, i16 0], i8 2 }, %"struct.xalanc_1_8::XalanHTMLElementsProperties::InternalAttributeProperties" { [9 x i16] [i16 83, i16 82, i16 67, i16 0, i16 0, i16 0, i16 0, i16 0, i16 0], i8 2 }, %"struct.xalanc_1_8::XalanHTMLElementsProperties::InternalAttributeProperties" { [9 x i16] [i16 68, i16 69, i16 70, i16 69, i16 82, i16 0, i16 0, i16 0, i16 0], i8 4 }, %"struct.xalanc_1_8::XalanHTMLElementsProperties::InternalAttributeProperties" zeroinitializer, %"struct.xalanc_1_8::XalanHTMLElementsProperties::InternalAttributeProperties" zeroinitializer, %"struct.xalanc_1_8::XalanHTMLElementsProperties::InternalAttributeProperties" zeroinitializer, %"struct.xalanc_1_8::XalanHTMLElementsProperties::InternalAttributeProperties" zeroinitializer] }, %"struct.xalanc_1_8::XalanHTMLElementsProperties::InternalElementProperties" { [11 x i16] [i16 83, i16 69, i16 76, i16 69, i16 67, i16 84, i16 0, i16 0, i16 0, i16 0, i16 0], i32 18432, [7 x %"struct.xalanc_1_8::XalanHTMLElementsProperties::InternalAttributeProperties"] [%"struct.xalanc_1_8::XalanHTMLElementsProperties::InternalAttributeProperties" { [9 x i16] [i16 68, i16 73, i16 83, i16 65, i16 66, i16 76, i16 69, i16 68, i16 0], i8 4 }, %"struct.xalanc_1_8::XalanHTMLElementsProperties::InternalAttributeProperties" { [9 x i16] [i16 77, i16 85, i16 76, i16 84, i16 73, i16 80, i16 76, i16 69, i16 0], i8 4 }, %"struct.xalanc_1_8::XalanHTMLElementsProperties::InternalAttributeProperties" zeroinitializer, %"struct.xalanc_1_8::XalanHTMLElementsProperties::InternalAttributeProperties" zeroinitializer, %"struct.xalanc_1_8::XalanHTMLElementsProperties::InternalAttributeProperties" zeroinitializer, %"struct.xalanc_1_8::XalanHTMLElementsProperties::InternalAttributeProperties" zeroinitializer, %"struct.xalanc_1_8::XalanHTMLElementsProperties::InternalAttributeProperties" zeroinitializer] }, %"struct.xalanc_1_8::XalanHTMLElementsProperties::InternalElementProperties" { [11 x i16] [i16 83, i16 84, i16 82, i16 73, i16 75, i16 69, i16 0, i16 0, i16 0, i16 0, i16 0], i32 4096, [7 x %"struct.xalanc_1_8::XalanHTMLElementsProperties::InternalAttributeProperties"] zeroinitializer }, %"struct.xalanc_1_8::XalanHTMLElementsProperties::InternalElementProperties" { [11 x i16] [i16 83, i16 84, i16 82, i16 79, i16 78, i16 71, i16 0, i16 0, i16 0, i16 0, i16 0], i32 8192, [7 x %"struct.xalanc_1_8::XalanHTMLElementsProperties::InternalAttributeProperties"] zeroinitializer }, %"struct.xalanc_1_8::XalanHTMLElementsProperties::InternalElementProperties" { [11 x i16] [i16 65, i16 67, i16 82, i16 79, i16 78, i16 89, i16 77, i16 0, i16 0, i16 0, i16 0], i32 8192, [7 x %"struct.xalanc_1_8::XalanHTMLElementsProperties::InternalAttributeProperties"] zeroinitializer }, %"struct.xalanc_1_8::XalanHTMLElementsProperties::InternalElementProperties" { [11 x i16] [i16 65, i16 68, i16 68, i16 82, i16 69, i16 83, i16 83, i16 0, i16 0, i16 0, i16 0], i32 56, [7 x %"struct.xalanc_1_8::XalanHTMLElementsProperties::InternalAttributeProperties"] zeroinitializer }, %"struct.xalanc_1_8::XalanHTMLElementsProperties::InternalElementProperties" { [11 x i16] [i16 67, i16 65, i16 80, i16 84, i16 73, i16 79, i16 78, i16 0, i16 0, i16 0, i16 0], i32 8, [7 x %"struct.xalanc_1_8::XalanHTMLElementsProperties::InternalAttributeProperties"] zeroinitializer }, %"struct.xalanc_1_8::XalanHTMLElementsProperties::InternalElementProperties" { [11 x i16] [i16 73, i16 83, i16 73, i16 78, i16 68, i16 69, i16 88, i16 0, i16 0, i16 0, i16 0], i32 10, [7 x %"struct.xalanc_1_8::XalanHTMLElementsProperties::InternalAttributeProperties"] zeroinitializer }, %"struct.xalanc_1_8::XalanHTMLElementsProperties::InternalElementProperties" { [11 x i16] [i16 66, i16 65, i16 83, i16 69, i16 70, i16 79, i16 78, i16 84, i16 0, i16 0, i16 0], i32 2, [7 x %"struct.xalanc_1_8::XalanHTMLElementsProperties::InternalAttributeProperties"] zeroinitializer }, %"struct.xalanc_1_8::XalanHTMLElementsProperties::InternalElementProperties" { [11 x i16] [i16 67, i16 79, i16 76, i16 71, i16 82, i16 79, i16 85, i16 80, i16 0, i16 0, i16 0], i32 8, [7 x %"struct.xalanc_1_8::XalanHTMLElementsProperties::InternalAttributeProperties"] zeroinitializer }, %"struct.xalanc_1_8::XalanHTMLElementsProperties::InternalElementProperties" { [11 x i16] [i16 70, i16 73, i16 69, i16 76, i16 68, i16 83, i16 69, i16 84, i16 0, i16 0, i16 0], i32 24, [7 x %"struct.xalanc_1_8::XalanHTMLElementsProperties::InternalAttributeProperties"] zeroinitializer }, %"struct.xalanc_1_8::XalanHTMLElementsProperties::InternalElementProperties" { [11 x i16] [i16 70, i16 82, i16 65, i16 77, i16 69, i16 83, i16 69, i16 84, i16 0, i16 0, i16 0], i32 8, [7 x %"struct.xalanc_1_8::XalanHTMLElementsProperties::InternalAttributeProperties"] zeroinitializer }, %"struct.xalanc_1_8::XalanHTMLElementsProperties::InternalElementProperties" { [11 x i16] [i16 78, i16 79, i16 70, i16 82, i16 65, i16 77, i16 69, i16 83, i16 0, i16 0, i16 0], i32 8, [7 x %"struct.xalanc_1_8::XalanHTMLElementsProperties::InternalAttributeProperties"] zeroinitializer }, %"struct.xalanc_1_8::XalanHTMLElementsProperties::InternalElementProperties" { [11 x i16] [i16 78, i16 79, i16 83, i16 67, i16 82, i16 73, i16 80, i16 84, i16 0, i16 0, i16 0], i32 56, [7 x %"struct.xalanc_1_8::XalanHTMLElementsProperties::InternalAttributeProperties"] zeroinitializer }, %"struct.xalanc_1_8::XalanHTMLElementsProperties::InternalElementProperties" { [11 x i16] [i16 79, i16 80, i16 84, i16 71, i16 82, i16 79, i16 85, i16 80, i16 0, i16 0, i16 0], i32 0, [7 x %"struct.xalanc_1_8::XalanHTMLElementsProperties::InternalAttributeProperties"] [%"struct.xalanc_1_8::XalanHTMLElementsProperties::InternalAttributeProperties" { [9 x i16] [i16 68, i16 73, i16 83, i16 65, i16 66, i16 76, i16 69, i16 68, i16 0], i8 4 }, %"struct.xalanc_1_8::XalanHTMLElementsProperties::InternalAttributeProperties" zeroinitializer, %"struct.xalanc_1_8::XalanHTMLElementsProperties::InternalAttributeProperties" zeroinitializer, %"struct.xalanc_1_8::XalanHTMLElementsProperties::InternalAttributeProperties" zeroinitializer, %"struct.xalanc_1_8::XalanHTMLElementsProperties::InternalAttributeProperties" zeroinitializer, %"struct.xalanc_1_8::XalanHTMLElementsProperties::InternalAttributeProperties" zeroinitializer, %"struct.xalanc_1_8::XalanHTMLElementsProperties::InternalAttributeProperties" zeroinitializer] }, %"struct.xalanc_1_8::XalanHTMLElementsProperties::InternalElementProperties" { [11 x i16] [i16 84, i16 69, i16 88, i16 84, i16 65, i16 82, i16 69, i16 65, i16 0, i16 0, i16 0], i32 18432, [7 x %"struct.xalanc_1_8::XalanHTMLElementsProperties::InternalAttributeProperties"] [%"struct.xalanc_1_8::XalanHTMLElementsProperties::InternalAttributeProperties" { [9 x i16] [i16 68, i16 73, i16 83, i16 65, i16 66, i16 76, i16 69, i16 68, i16 0], i8 4 }, %"struct.xalanc_1_8::XalanHTMLElementsProperties::InternalAttributeProperties" { [9 x i16] [i16 82, i16 69, i16 65, i16 68, i16 79, i16 78, i16 76, i16 89, i16 0], i8 4 }, %"struct.xalanc_1_8::XalanHTMLElementsProperties::InternalAttributeProperties" zeroinitializer, %"struct.xalanc_1_8::XalanHTMLElementsProperties::InternalAttributeProperties" zeroinitializer, %"struct.xalanc_1_8::XalanHTMLElementsProperties::InternalAttributeProperties" zeroinitializer, %"struct.xalanc_1_8::XalanHTMLElementsProperties::InternalAttributeProperties" zeroinitializer, %"struct.xalanc_1_8::XalanHTMLElementsProperties::InternalAttributeProperties" zeroinitializer] }, %"struct.xalanc_1_8::XalanHTMLElementsProperties::InternalElementProperties" { [11 x i16] [i16 66, i16 76, i16 79, i16 67, i16 75, i16 81, i16 85, i16 79, i16 84, i16 69, i16 0], i32 56, [7 x %"struct.xalanc_1_8::XalanHTMLElementsProperties::InternalAttributeProperties"] [%"struct.xalanc_1_8::XalanHTMLElementsProperties::InternalAttributeProperties" { [9 x i16] [i16 67, i16 73, i16 84, i16 69, i16 0, i16 0, i16 0, i16 0, i16 0], i8 2 }, %"struct.xalanc_1_8::XalanHTMLElementsProperties::InternalAttributeProperties" zeroinitializer, %"struct.xalanc_1_8::XalanHTMLElementsProperties::InternalAttributeProperties" zeroinitializer, %"struct.xalanc_1_8::XalanHTMLElementsProperties::InternalAttributeProperties" zeroinitializer, %"struct.xalanc_1_8::XalanHTMLElementsProperties::InternalAttributeProperties" zeroinitializer, %"struct.xalanc_1_8::XalanHTMLElementsProperties::InternalAttributeProperties" zeroinitializer, %"struct.xalanc_1_8::XalanHTMLElementsProperties::InternalAttributeProperties" zeroinitializer] }, %"struct.xalanc_1_8::XalanHTMLElementsProperties::InternalElementProperties" { [11 x i16] zeroinitializer, i32 8, [7 x %"struct.xalanc_1_8::XalanHTMLElementsProperties::InternalAttributeProperties"] zeroinitializer } }>, align 16
@_ZN10xalanc_1_827XalanHTMLElementsProperties16s_lastPropertiesE = dso_local local_unnamed_addr constant ptr getelementptr inbounds (<{ { <{ i16, [10 x i16] }>, i32, [7 x %"struct.xalanc_1_8::XalanHTMLElementsProperties::InternalAttributeProperties"] }, { <{ i16, [10 x i16] }>, i32, [7 x %"struct.xalanc_1_8::XalanHTMLElementsProperties::InternalAttributeProperties"] }, { <{ i16, [10 x i16] }>, i32, [7 x %"struct.xalanc_1_8::XalanHTMLElementsProperties::InternalAttributeProperties"] }, { <{ i16, [10 x i16] }>, i32, [7 x %"struct.xalanc_1_8::XalanHTMLElementsProperties::InternalAttributeProperties"] }, { <{ i16, [10 x i16] }>, i32, [7 x %"struct.xalanc_1_8::XalanHTMLElementsProperties::InternalAttributeProperties"] }, { <{ i16, [10 x i16] }>, i32, [7 x %"struct.xalanc_1_8::XalanHTMLElementsProperties::InternalAttributeProperties"] }, { <{ i16, [10 x i16] }>, i32, [7 x %"struct.xalanc_1_8::XalanHTMLElementsProperties::InternalAttributeProperties"] }, { <{ i16, i16, [9 x i16] }>, i32, [7 x %"struct.xalanc_1_8::XalanHTMLElementsProperties::InternalAttributeProperties"] }, { <{ i16, i16, [9 x i16] }>, i32, [7 x %"struct.xalanc_1_8::XalanHTMLElementsProperties::InternalAttributeProperties"] }, { <{ i16, i16, [9 x i16] }>, i32, [7 x %"struct.xalanc_1_8::XalanHTMLElementsProperties::InternalAttributeProperties"] }, { <{ i16, i16, [9 x i16] }>, i32, [7 x %"struct.xalanc_1_8::XalanHTMLElementsProperties::InternalAttributeProperties"] }, { <{ i16, i16, [9 x i16] }>, i32, [7 x %"struct.xalanc_1_8::XalanHTMLElementsProperties::InternalAttributeProperties"] }, { <{ i16, i16, [9 x i16] }>, i32, [7 x %"struct.xalanc_1_8::XalanHTMLElementsProperties::InternalAttributeProperties"] }, { <{ i16, i16, [9 x i16] }>, i32, [7 x %"struct.xalanc_1_8::XalanHTMLElementsProperties::InternalAttributeProperties"] }, { <{ i16, i16, [9 x i16] }>, i32, [7 x %"struct.xalanc_1_8::XalanHTMLElementsProperties::InternalAttributeProperties"] }, { <{ i16, i16, [9 x i16] }>, i32, [7 x %"struct.xalanc_1_8::XalanHTMLElementsProperties::InternalAttributeProperties"] }, { <{ i16, i16, [9 x i16] }>, i32, [7 x %"struct.xalanc_1_8::XalanHTMLElementsProperties::InternalAttributeProperties"] }, { <{ i16, i16, [9 x i16] }>, i32, [7 x %"struct.xalanc_1_8::XalanHTMLElementsProperties::InternalAttributeProperties"] }, { <{ i16, i16, [9 x i16] }>, i32, [7 x %"struct.xalanc_1_8::XalanHTMLElementsProperties::InternalAttributeProperties"] }, { <{ i16, i16, [9 x i16] }>, i32, [7 x %"struct.xalanc_1_8::XalanHTMLElementsProperties::InternalAttributeProperties"] }, { <{ i16, i16, [9 x i16] }>, i32, [7 x %"struct.xalanc_1_8::XalanHTMLElementsProperties::InternalAttributeProperties"] }, { <{ i16, i16, [9 x i16] }>, i32, [7 x %"struct.xalanc_1_8::XalanHTMLElementsProperties::InternalAttributeProperties"] }, { <{ i16, i16, [9 x i16] }>, i32, [7 x %"struct.xalanc_1_8::XalanHTMLElementsProperties::InternalAttributeProperties"] }, { <{ i16, i16, [9 x i16] }>, i32, [7 x %"struct.xalanc_1_8::XalanHTMLElementsProperties::InternalAttributeProperties"] }, { <{ i16, i16, [9 x i16] }>, i32, [7 x %"struct.xalanc_1_8::XalanHTMLElementsProperties::InternalAttributeProperties"] }, { <{ i16, i16, [9 x i16] }>, i32, [7 x %"struct.xalanc_1_8::XalanHTMLElementsProperties::InternalAttributeProperties"] }, { <{ i16, i16, i16, [8 x i16] }>, i32, [7 x %"struct.xalanc_1_8::XalanHTMLElementsProperties::InternalAttributeProperties"] }, { <{ i16, i16, i16, [8 x i16] }>, i32, [7 x %"struct.xalanc_1_8::XalanHTMLElementsProperties::InternalAttributeProperties"] }, { <{ i16, i16, i16, [8 x i16] }>, i32, [7 x %"struct.xalanc_1_8::XalanHTMLElementsProperties::InternalAttributeProperties"] }, { <{ i16, i16, i16, [8 x i16] }>, i32, [7 x %"struct.xalanc_1_8::XalanHTMLElementsProperties::InternalAttributeProperties"] }, { <{ i16, i16, i16, [8 x i16] }>, i32, [7 x %"struct.xalanc_1_8::XalanHTMLElementsProperties::InternalAttributeProperties"] }, { <{ i16, i16, i16, [8 x i16] }>, i32, [7 x %"struct.xalanc_1_8::XalanHTMLElementsProperties::InternalAttributeProperties"] }, { <{ i16, i16, i16, [8 x i16] }>, i32, [7 x %"struct.xalanc_1_8::XalanHTMLElementsProperties::InternalAttributeProperties"] }, { <{ i16, i16, i16, [8 x i16] }>, i32, [7 x %"struct.xalanc_1_8::XalanHTMLElementsProperties::InternalAttributeProperties"] }, { <{ i16, i16, i16, [8 x i16] }>, i32, [7 x %"struct.xalanc_1_8::XalanHTMLElementsProperties::InternalAttributeProperties"] }, { <{ i16, i16, i16, [8 x i16] }>, i32, [7 x %"struct.xalanc_1_8::XalanHTMLElementsProperties::InternalAttributeProperties"] }, { <{ i16, i16, i16, [8 x i16] }>, i32, [7 x %"struct.xalanc_1_8::XalanHTMLElementsProperties::InternalAttributeProperties"] }, { <{ i16, i16, i16, [8 x i16] }>, i32, [7 x %"struct.xalanc_1_8::XalanHTMLElementsProperties::InternalAttributeProperties"] }, { <{ i16, i16, i16, [8 x i16] }>, i32, [7 x %"struct.xalanc_1_8::XalanHTMLElementsProperties::InternalAttributeProperties"] }, { <{ i16, i16, i16, [8 x i16] }>, i32, [7 x %"struct.xalanc_1_8::XalanHTMLElementsProperties::InternalAttributeProperties"] }, { <{ i16, i16, i16, [8 x i16] }>, i32, [7 x %"struct.xalanc_1_8::XalanHTMLElementsProperties::InternalAttributeProperties"] }, %"struct.xalanc_1_8::XalanHTMLElementsProperties::InternalElementProperties", %"struct.xalanc_1_8::XalanHTMLElementsProperties::InternalElementProperties", %"struct.xalanc_1_8::XalanHTMLElementsProperties::InternalElementProperties", %"struct.xalanc_1_8::XalanHTMLElementsProperties::InternalElementProperties", %"struct.xalanc_1_8::XalanHTMLElementsProperties::InternalElementProperties", %"struct.xalanc_1_8::XalanHTMLElementsProperties::InternalElementProperties", %"struct.xalanc_1_8::XalanHTMLElementsProperties::InternalElementProperties", %"struct.xalanc_1_8::XalanHTMLElementsProperties::InternalElementProperties", %"struct.xalanc_1_8::XalanHTMLElementsProperties::InternalElementProperties", %"struct.xalanc_1_8::XalanHTMLElementsProperties::InternalElementProperties", %"struct.xalanc_1_8::XalanHTMLElementsProperties::InternalElementProperties", %"struct.xalanc_1_8::XalanHTMLElementsProperties::InternalElementProperties", %"struct.xalanc_1_8::XalanHTMLElementsProperties::InternalElementProperties", %"struct.xalanc_1_8::XalanHTMLElementsProperties::InternalElementProperties", %"struct.xalanc_1_8::XalanHTMLElementsProperties::InternalElementProperties", %"struct.xalanc_1_8::XalanHTMLElementsProperties::InternalElementProperties", %"struct.xalanc_1_8::XalanHTMLElementsProperties::InternalElementProperties", %"struct.xalanc_1_8::XalanHTMLElementsProperties::InternalElementProperties", %"struct.xalanc_1_8::XalanHTMLElementsProperties::InternalElementProperties", %"struct.xalanc_1_8::XalanHTMLElementsProperties::InternalElementProperties", %"struct.xalanc_1_8::XalanHTMLElementsProperties::InternalElementProperties", %"struct.xalanc_1_8::XalanHTMLElementsProperties::InternalElementProperties", %"struct.xalanc_1_8::XalanHTMLElementsProperties::InternalElementProperties", %"struct.xalanc_1_8::XalanHTMLElementsProperties::InternalElementProperties", %"struct.xalanc_1_8::XalanHTMLElementsProperties::InternalElementProperties", %"struct.xalanc_1_8::XalanHTMLElementsProperties::InternalElementProperties", %"struct.xalanc_1_8::XalanHTMLElementsProperties::InternalElementProperties", %"struct.xalanc_1_8::XalanHTMLElementsProperties::InternalElementProperties", %"struct.xalanc_1_8::XalanHTMLElementsProperties::InternalElementProperties", %"struct.xalanc_1_8::XalanHTMLElementsProperties::InternalElementProperties", %"struct.xalanc_1_8::XalanHTMLElementsProperties::InternalElementProperties", %"struct.xalanc_1_8::XalanHTMLElementsProperties::InternalElementProperties", %"struct.xalanc_1_8::XalanHTMLElementsProperties::InternalElementProperties", %"struct.xalanc_1_8::XalanHTMLElementsProperties::InternalElementProperties", %"struct.xalanc_1_8::XalanHTMLElementsProperties::InternalElementProperties", %"struct.xalanc_1_8::XalanHTMLElementsProperties::InternalElementProperties", %"struct.xalanc_1_8::XalanHTMLElementsProperties::InternalElementProperties", %"struct.xalanc_1_8::XalanHTMLElementsProperties::InternalElementProperties", %"struct.xalanc_1_8::XalanHTMLElementsProperties::InternalElementProperties", %"struct.xalanc_1_8::XalanHTMLElementsProperties::InternalElementProperties", %"struct.xalanc_1_8::XalanHTMLElementsProperties::InternalElementProperties", %"struct.xalanc_1_8::XalanHTMLElementsProperties::InternalElementProperties", %"struct.xalanc_1_8::XalanHTMLElementsProperties::InternalElementProperties", %"struct.xalanc_1_8::XalanHTMLElementsProperties::InternalElementProperties", %"struct.xalanc_1_8::XalanHTMLElementsProperties::InternalElementProperties", %"struct.xalanc_1_8::XalanHTMLElementsProperties::InternalElementProperties", %"struct.xalanc_1_8::XalanHTMLElementsProperties::InternalElementProperties", %"struct.xalanc_1_8::XalanHTMLElementsProperties::InternalElementProperties", %"struct.xalanc_1_8::XalanHTMLElementsProperties::InternalElementProperties", %"struct.xalanc_1_8::XalanHTMLElementsProperties::InternalElementProperties", %"struct.xalanc_1_8::XalanHTMLElementsProperties::InternalElementProperties" }>, ptr @_ZN10xalanc_1_827XalanHTMLElementsProperties19s_elementPropertiesE, i64 0, i32 90, i32 0, i64 0), align 8
@_ZN10xalanc_1_827XalanHTMLElementsProperties17s_dummyPropertiesE = dso_local local_unnamed_addr constant ptr getelementptr inbounds (<{ { <{ i16, [10 x i16] }>, i32, [7 x %"struct.xalanc_1_8::XalanHTMLElementsProperties::InternalAttributeProperties"] }, { <{ i16, [10 x i16] }>, i32, [7 x %"struct.xalanc_1_8::XalanHTMLElementsProperties::InternalAttributeProperties"] }, { <{ i16, [10 x i16] }>, i32, [7 x %"struct.xalanc_1_8::XalanHTMLElementsProperties::InternalAttributeProperties"] }, { <{ i16, [10 x i16] }>, i32, [7 x %"struct.xalanc_1_8::XalanHTMLElementsProperties::InternalAttributeProperties"] }, { <{ i16, [10 x i16] }>, i32, [7 x %"struct.xalanc_1_8::XalanHTMLElementsProperties::InternalAttributeProperties"] }, { <{ i16, [10 x i16] }>, i32, [7 x %"struct.xalanc_1_8::XalanHTMLElementsProperties::InternalAttributeProperties"] }, { <{ i16, [10 x i16] }>, i32, [7 x %"struct.xalanc_1_8::XalanHTMLElementsProperties::InternalAttributeProperties"] }, { <{ i16, i16, [9 x i16] }>, i32, [7 x %"struct.xalanc_1_8::XalanHTMLElementsProperties::InternalAttributeProperties"] }, { <{ i16, i16, [9 x i16] }>, i32, [7 x %"struct.xalanc_1_8::XalanHTMLElementsProperties::InternalAttributeProperties"] }, { <{ i16, i16, [9 x i16] }>, i32, [7 x %"struct.xalanc_1_8::XalanHTMLElementsProperties::InternalAttributeProperties"] }, { <{ i16, i16, [9 x i16] }>, i32, [7 x %"struct.xalanc_1_8::XalanHTMLElementsProperties::InternalAttributeProperties"] }, { <{ i16, i16, [9 x i16] }>, i32, [7 x %"struct.xalanc_1_8::XalanHTMLElementsProperties::InternalAttributeProperties"] }, { <{ i16, i16, [9 x i16] }>, i32, [7 x %"struct.xalanc_1_8::XalanHTMLElementsProperties::InternalAttributeProperties"] }, { <{ i16, i16, [9 x i16] }>, i32, [7 x %"struct.xalanc_1_8::XalanHTMLElementsProperties::InternalAttributeProperties"] }, { <{ i16, i16, [9 x i16] }>, i32, [7 x %"struct.xalanc_1_8::XalanHTMLElementsProperties::InternalAttributeProperties"] }, { <{ i16, i16, [9 x i16] }>, i32, [7 x %"struct.xalanc_1_8::XalanHTMLElementsProperties::InternalAttributeProperties"] }, { <{ i16, i16, [9 x i16] }>, i32, [7 x %"struct.xalanc_1_8::XalanHTMLElementsProperties::InternalAttributeProperties"] }, { <{ i16, i16, [9 x i16] }>, i32, [7 x %"struct.xalanc_1_8::XalanHTMLElementsProperties::InternalAttributeProperties"] }, { <{ i16, i16, [9 x i16] }>, i32, [7 x %"struct.xalanc_1_8::XalanHTMLElementsProperties::InternalAttributeProperties"] }, { <{ i16, i16, [9 x i16] }>, i32, [7 x %"struct.xalanc_1_8::XalanHTMLElementsProperties::InternalAttributeProperties"] }, { <{ i16, i16, [9 x i16] }>, i32, [7 x %"struct.xalanc_1_8::XalanHTMLElementsProperties::InternalAttributeProperties"] }, { <{ i16, i16, [9 x i16] }>, i32, [7 x %"struct.xalanc_1_8::XalanHTMLElementsProperties::InternalAttributeProperties"] }, { <{ i16, i16, [9 x i16] }>, i32, [7 x %"struct.xalanc_1_8::XalanHTMLElementsProperties::InternalAttributeProperties"] }, { <{ i16, i16, [9 x i16] }>, i32, [7 x %"struct.xalanc_1_8::XalanHTMLElementsProperties::InternalAttributeProperties"] }, { <{ i16, i16, [9 x i16] }>, i32, [7 x %"struct.xalanc_1_8::XalanHTMLElementsProperties::InternalAttributeProperties"] }, { <{ i16, i16, [9 x i16] }>, i32, [7 x %"struct.xalanc_1_8::XalanHTMLElementsProperties::InternalAttributeProperties"] }, { <{ i16, i16, i16, [8 x i16] }>, i32, [7 x %"struct.xalanc_1_8::XalanHTMLElementsProperties::InternalAttributeProperties"] }, { <{ i16, i16, i16, [8 x i16] }>, i32, [7 x %"struct.xalanc_1_8::XalanHTMLElementsProperties::InternalAttributeProperties"] }, { <{ i16, i16, i16, [8 x i16] }>, i32, [7 x %"struct.xalanc_1_8::XalanHTMLElementsProperties::InternalAttributeProperties"] }, { <{ i16, i16, i16, [8 x i16] }>, i32, [7 x %"struct.xalanc_1_8::XalanHTMLElementsProperties::InternalAttributeProperties"] }, { <{ i16, i16, i16, [8 x i16] }>, i32, [7 x %"struct.xalanc_1_8::XalanHTMLElementsProperties::InternalAttributeProperties"] }, { <{ i16, i16, i16, [8 x i16] }>, i32, [7 x %"struct.xalanc_1_8::XalanHTMLElementsProperties::InternalAttributeProperties"] }, { <{ i16, i16, i16, [8 x i16] }>, i32, [7 x %"struct.xalanc_1_8::XalanHTMLElementsProperties::InternalAttributeProperties"] }, { <{ i16, i16, i16, [8 x i16] }>, i32, [7 x %"struct.xalanc_1_8::XalanHTMLElementsProperties::InternalAttributeProperties"] }, { <{ i16, i16, i16, [8 x i16] }>, i32, [7 x %"struct.xalanc_1_8::XalanHTMLElementsProperties::InternalAttributeProperties"] }, { <{ i16, i16, i16, [8 x i16] }>, i32, [7 x %"struct.xalanc_1_8::XalanHTMLElementsProperties::InternalAttributeProperties"] }, { <{ i16, i16, i16, [8 x i16] }>, i32, [7 x %"struct.xalanc_1_8::XalanHTMLElementsProperties::InternalAttributeProperties"] }, { <{ i16, i16, i16, [8 x i16] }>, i32, [7 x %"struct.xalanc_1_8::XalanHTMLElementsProperties::InternalAttributeProperties"] }, { <{ i16, i16, i16, [8 x i16] }>, i32, [7 x %"struct.xalanc_1_8::XalanHTMLElementsProperties::InternalAttributeProperties"] }, { <{ i16, i16, i16, [8 x i16] }>, i32, [7 x %"struct.xalanc_1_8::XalanHTMLElementsProperties::InternalAttributeProperties"] }, { <{ i16, i16, i16, [8 x i16] }>, i32, [7 x %"struct.xalanc_1_8::XalanHTMLElementsProperties::InternalAttributeProperties"] }, %"struct.xalanc_1_8::XalanHTMLElementsProperties::InternalElementProperties", %"struct.xalanc_1_8::XalanHTMLElementsProperties::InternalElementProperties", %"struct.xalanc_1_8::XalanHTMLElementsProperties::InternalElementProperties", %"struct.xalanc_1_8::XalanHTMLElementsProperties::InternalElementProperties", %"struct.xalanc_1_8::XalanHTMLElementsProperties::InternalElementProperties", %"struct.xalanc_1_8::XalanHTMLElementsProperties::InternalElementProperties", %"struct.xalanc_1_8::XalanHTMLElementsProperties::InternalElementProperties", %"struct.xalanc_1_8::XalanHTMLElementsProperties::InternalElementProperties", %"struct.xalanc_1_8::XalanHTMLElementsProperties::InternalElementProperties", %"struct.xalanc_1_8::XalanHTMLElementsProperties::InternalElementProperties", %"struct.xalanc_1_8::XalanHTMLElementsProperties::InternalElementProperties", %"struct.xalanc_1_8::XalanHTMLElementsProperties::InternalElementProperties", %"struct.xalanc_1_8::XalanHTMLElementsProperties::InternalElementProperties", %"struct.xalanc_1_8::XalanHTMLElementsProperties::InternalElementProperties", %"struct.xalanc_1_8::XalanHTMLElementsProperties::InternalElementProperties", %"struct.xalanc_1_8::XalanHTMLElementsProperties::InternalElementProperties", %"struct.xalanc_1_8::XalanHTMLElementsProperties::InternalElementProperties", %"struct.xalanc_1_8::XalanHTMLElementsProperties::InternalElementProperties", %"struct.xalanc_1_8::XalanHTMLElementsProperties::InternalElementProperties", %"struct.xalanc_1_8::XalanHTMLElementsProperties::InternalElementProperties", %"struct.xalanc_1_8::XalanHTMLElementsProperties::InternalElementProperties", %"struct.xalanc_1_8::XalanHTMLElementsProperties::InternalElementProperties", %"struct.xalanc_1_8::XalanHTMLElementsProperties::InternalElementProperties", %"struct.xalanc_1_8::XalanHTMLElementsProperties::InternalElementProperties", %"struct.xalanc_1_8::XalanHTMLElementsProperties::InternalElementProperties", %"struct.xalanc_1_8::XalanHTMLElementsProperties::InternalElementProperties", %"struct.xalanc_1_8::XalanHTMLElementsProperties::InternalElementProperties", %"struct.xalanc_1_8::XalanHTMLElementsProperties::InternalElementProperties", %"struct.xalanc_1_8::XalanHTMLElementsProperties::InternalElementProperties", %"struct.xalanc_1_8::XalanHTMLElementsProperties::InternalElementProperties", %"struct.xalanc_1_8::XalanHTMLElementsProperties::InternalElementProperties", %"struct.xalanc_1_8::XalanHTMLElementsProperties::InternalElementProperties", %"struct.xalanc_1_8::XalanHTMLElementsProperties::InternalElementProperties", %"struct.xalanc_1_8::XalanHTMLElementsProperties::InternalElementProperties", %"struct.xalanc_1_8::XalanHTMLElementsProperties::InternalElementProperties", %"struct.xalanc_1_8::XalanHTMLElementsProperties::InternalElementProperties", %"struct.xalanc_1_8::XalanHTMLElementsProperties::InternalElementProperties", %"struct.xalanc_1_8::XalanHTMLElementsProperties::InternalElementProperties", %"struct.xalanc_1_8::XalanHTMLElementsProperties::InternalElementProperties", %"struct.xalanc_1_8::XalanHTMLElementsProperties::InternalElementProperties", %"struct.xalanc_1_8::XalanHTMLElementsProperties::InternalElementProperties", %"struct.xalanc_1_8::XalanHTMLElementsProperties::InternalElementProperties", %"struct.xalanc_1_8::XalanHTMLElementsProperties::InternalElementProperties", %"struct.xalanc_1_8::XalanHTMLElementsProperties::InternalElementProperties", %"struct.xalanc_1_8::XalanHTMLElementsProperties::InternalElementProperties", %"struct.xalanc_1_8::XalanHTMLElementsProperties::InternalElementProperties", %"struct.xalanc_1_8::XalanHTMLElementsProperties::InternalElementProperties", %"struct.xalanc_1_8::XalanHTMLElementsProperties::InternalElementProperties", %"struct.xalanc_1_8::XalanHTMLElementsProperties::InternalElementProperties", %"struct.xalanc_1_8::XalanHTMLElementsProperties::InternalElementProperties", %"struct.xalanc_1_8::XalanHTMLElementsProperties::InternalElementProperties" }>, ptr @_ZN10xalanc_1_827XalanHTMLElementsProperties19s_elementPropertiesE, i64 0, i32 91, i32 0, i64 0), align 8

@_ZN10xalanc_1_827XalanHTMLElementsPropertiesC1Ev = dso_local unnamed_addr alias void (ptr), ptr @_ZN10xalanc_1_827XalanHTMLElementsPropertiesC2Ev

; Function Attrs: mustprogress nofree norecurse nosync nounwind willreturn memory(none) uwtable
define dso_local void @_ZN10xalanc_1_827XalanHTMLElementsPropertiesC2Ev(ptr nocapture nonnull align 1 %0) unnamed_addr #0 align 2 {
  ret void
}

; Function Attrs: uwtable
define dso_local void @_ZN10xalanc_1_827XalanHTMLElementsProperties4findEPKt(ptr noalias nocapture writeonly sret(%"class.xalanc_1_8::XalanHTMLElementsProperties::ElementProperties") align 8 %0, ptr noundef %1) local_unnamed_addr #1 align 2 {
  %3 = ptrtoint ptr %1 to i64
  br label %4

4:                                                ; preds = %41, %2
  %5 = phi ptr [ @_ZN10xalanc_1_827XalanHTMLElementsProperties19s_elementPropertiesE, %2 ], [ %43, %41 ]
  %6 = phi ptr [ getelementptr inbounds (<{ { <{ i16, [10 x i16] }>, i32, [7 x %"struct.xalanc_1_8::XalanHTMLElementsProperties::InternalAttributeProperties"] }, { <{ i16, [10 x i16] }>, i32, [7 x %"struct.xalanc_1_8::XalanHTMLElementsProperties::InternalAttributeProperties"] }, { <{ i16, [10 x i16] }>, i32, [7 x %"struct.xalanc_1_8::XalanHTMLElementsProperties::InternalAttributeProperties"] }, { <{ i16, [10 x i16] }>, i32, [7 x %"struct.xalanc_1_8::XalanHTMLElementsProperties::InternalAttributeProperties"] }, { <{ i16, [10 x i16] }>, i32, [7 x %"struct.xalanc_1_8::XalanHTMLElementsProperties::InternalAttributeProperties"] }, { <{ i16, [10 x i16] }>, i32, [7 x %"struct.xalanc_1_8::XalanHTMLElementsProperties::InternalAttributeProperties"] }, { <{ i16, [10 x i16] }>, i32, [7 x %"struct.xalanc_1_8::XalanHTMLElementsProperties::InternalAttributeProperties"] }, { <{ i16, i16, [9 x i16] }>, i32, [7 x %"struct.xalanc_1_8::XalanHTMLElementsProperties::InternalAttributeProperties"] }, { <{ i16, i16, [9 x i16] }>, i32, [7 x %"struct.xalanc_1_8::XalanHTMLElementsProperties::InternalAttributeProperties"] }, { <{ i16, i16, [9 x i16] }>, i32, [7 x %"struct.xalanc_1_8::XalanHTMLElementsProperties::InternalAttributeProperties"] }, { <{ i16, i16, [9 x i16] }>, i32, [7 x %"struct.xalanc_1_8::XalanHTMLElementsProperties::InternalAttributeProperties"] }, { <{ i16, i16, [9 x i16] }>, i32, [7 x %"struct.xalanc_1_8::XalanHTMLElementsProperties::InternalAttributeProperties"] }, { <{ i16, i16, [9 x i16] }>, i32, [7 x %"struct.xalanc_1_8::XalanHTMLElementsProperties::InternalAttributeProperties"] }, { <{ i16, i16, [9 x i16] }>, i32, [7 x %"struct.xalanc_1_8::XalanHTMLElementsProperties::InternalAttributeProperties"] }, { <{ i16, i16, [9 x i16] }>, i32, [7 x %"struct.xalanc_1_8::XalanHTMLElementsProperties::InternalAttributeProperties"] }, { <{ i16, i16, [9 x i16] }>, i32, [7 x %"struct.xalanc_1_8::XalanHTMLElementsProperties::InternalAttributeProperties"] }, { <{ i16, i16, [9 x i16] }>, i32, [7 x %"struct.xalanc_1_8::XalanHTMLElementsProperties::InternalAttributeProperties"] }, { <{ i16, i16, [9 x i16] }>, i32, [7 x %"struct.xalanc_1_8::XalanHTMLElementsProperties::InternalAttributeProperties"] }, { <{ i16, i16, [9 x i16] }>, i32, [7 x %"struct.xalanc_1_8::XalanHTMLElementsProperties::InternalAttributeProperties"] }, { <{ i16, i16, [9 x i16] }>, i32, [7 x %"struct.xalanc_1_8::XalanHTMLElementsProperties::InternalAttributeProperties"] }, { <{ i16, i16, [9 x i16] }>, i32, [7 x %"struct.xalanc_1_8::XalanHTMLElementsProperties::InternalAttributeProperties"] }, { <{ i16, i16, [9 x i16] }>, i32, [7 x %"struct.xalanc_1_8::XalanHTMLElementsProperties::InternalAttributeProperties"] }, { <{ i16, i16, [9 x i16] }>, i32, [7 x %"struct.xalanc_1_8::XalanHTMLElementsProperties::InternalAttributeProperties"] }, { <{ i16, i16, [9 x i16] }>, i32, [7 x %"struct.xalanc_1_8::XalanHTMLElementsProperties::InternalAttributeProperties"] }, { <{ i16, i16, [9 x i16] }>, i32, [7 x %"struct.xalanc_1_8::XalanHTMLElementsProperties::InternalAttributeProperties"] }, { <{ i16, i16, [9 x i16] }>, i32, [7 x %"struct.xalanc_1_8::XalanHTMLElementsProperties::InternalAttributeProperties"] }, { <{ i16, i16, i16, [8 x i16] }>, i32, [7 x %"struct.xalanc_1_8::XalanHTMLElementsProperties::InternalAttributeProperties"] }, { <{ i16, i16, i16, [8 x i16] }>, i32, [7 x %"struct.xalanc_1_8::XalanHTMLElementsProperties::InternalAttributeProperties"] }, { <{ i16, i16, i16, [8 x i16] }>, i32, [7 x %"struct.xalanc_1_8::XalanHTMLElementsProperties::InternalAttributeProperties"] }, { <{ i16, i16, i16, [8 x i16] }>, i32, [7 x %"struct.xalanc_1_8::XalanHTMLElementsProperties::InternalAttributeProperties"] }, { <{ i16, i16, i16, [8 x i16] }>, i32, [7 x %"struct.xalanc_1_8::XalanHTMLElementsProperties::InternalAttributeProperties"] }, { <{ i16, i16, i16, [8 x i16] }>, i32, [7 x %"struct.xalanc_1_8::XalanHTMLElementsProperties::InternalAttributeProperties"] }, { <{ i16, i16, i16, [8 x i16] }>, i32, [7 x %"struct.xalanc_1_8::XalanHTMLElementsProperties::InternalAttributeProperties"] }, { <{ i16, i16, i16, [8 x i16] }>, i32, [7 x %"struct.xalanc_1_8::XalanHTMLElementsProperties::InternalAttributeProperties"] }, { <{ i16, i16, i16, [8 x i16] }>, i32, [7 x %"struct.xalanc_1_8::XalanHTMLElementsProperties::InternalAttributeProperties"] }, { <{ i16, i16, i16, [8 x i16] }>, i32, [7 x %"struct.xalanc_1_8::XalanHTMLElementsProperties::InternalAttributeProperties"] }, { <{ i16, i16, i16, [8 x i16] }>, i32, [7 x %"struct.xalanc_1_8::XalanHTMLElementsProperties::InternalAttributeProperties"] }, { <{ i16, i16, i16, [8 x i16] }>, i32, [7 x %"struct.xalanc_1_8::XalanHTMLElementsProperties::InternalAttributeProperties"] }, { <{ i16, i16, i16, [8 x i16] }>, i32, [7 x %"struct.xalanc_1_8::XalanHTMLElementsProperties::InternalAttributeProperties"] }, { <{ i16, i16, i16, [8 x i16] }>, i32, [7 x %"struct.xalanc_1_8::XalanHTMLElementsProperties::InternalAttributeProperties"] }, { <{ i16, i16, i16, [8 x i16] }>, i32, [7 x %"struct.xalanc_1_8::XalanHTMLElementsProperties::InternalAttributeProperties"] }, %"struct.xalanc_1_8::XalanHTMLElementsProperties::InternalElementProperties", %"struct.xalanc_1_8::XalanHTMLElementsProperties::InternalElementProperties", %"struct.xalanc_1_8::XalanHTMLElementsProperties::InternalElementProperties", %"struct.xalanc_1_8::XalanHTMLElementsProperties::InternalElementProperties", %"struct.xalanc_1_8::XalanHTMLElementsProperties::InternalElementProperties", %"struct.xalanc_1_8::XalanHTMLElementsProperties::InternalElementProperties", %"struct.xalanc_1_8::XalanHTMLElementsProperties::InternalElementProperties", %"struct.xalanc_1_8::XalanHTMLElementsProperties::InternalElementProperties", %"struct.xalanc_1_8::XalanHTMLElementsProperties::InternalElementProperties", %"struct.xalanc_1_8::XalanHTMLElementsProperties::InternalElementProperties", %"struct.xalanc_1_8::XalanHTMLElementsProperties::InternalElementProperties", %"struct.xalanc_1_8::XalanHTMLElementsProperties::InternalElementProperties", %"struct.xalanc_1_8::XalanHTMLElementsProperties::InternalElementProperties", %"struct.xalanc_1_8::XalanHTMLElementsProperties::InternalElementProperties", %"struct.xalanc_1_8::XalanHTMLElementsProperties::InternalElementProperties", %"struct.xalanc_1_8::XalanHTMLElementsProperties::InternalElementProperties", %"struct.xalanc_1_8::XalanHTMLElementsProperties::InternalElementProperties", %"struct.xalanc_1_8::XalanHTMLElementsProperties::InternalElementProperties", %"struct.xalanc_1_8::XalanHTMLElementsProperties::InternalElementProperties", %"struct.xalanc_1_8::XalanHTMLElementsProperties::InternalElementProperties", %"struct.xalanc_1_8::XalanHTMLElementsProperties::InternalElementProperties", %"struct.xalanc_1_8::XalanHTMLElementsProperties::InternalElementProperties", %"struct.xalanc_1_8::XalanHTMLElementsProperties::InternalElementProperties", %"struct.xalanc_1_8::XalanHTMLElementsProperties::InternalElementProperties", %"struct.xalanc_1_8::XalanHTMLElementsProperties::InternalElementProperties", %"struct.xalanc_1_8::XalanHTMLElementsProperties::InternalElementProperties", %"struct.xalanc_1_8::XalanHTMLElementsProperties::InternalElementProperties", %"struct.xalanc_1_8::XalanHTMLElementsProperties::InternalElementProperties", %"struct.xalanc_1_8::XalanHTMLElementsProperties::InternalElementProperties", %"struct.xalanc_1_8::XalanHTMLElementsProperties::InternalElementProperties", %"struct.xalanc_1_8::XalanHTMLElementsProperties::InternalElementProperties", %"struct.xalanc_1_8::XalanHTMLElementsProperties::InternalElementProperties", %"struct.xalanc_1_8::XalanHTMLElementsProperties::InternalElementProperties", %"struct.xalanc_1_8::XalanHTMLElementsProperties::InternalElementProperties", %"struct.xalanc_1_8::XalanHTMLElementsProperties::InternalElementProperties", %"struct.xalanc_1_8::XalanHTMLElementsProperties::InternalElementProperties", %"struct.xalanc_1_8::XalanHTMLElementsProperties::InternalElementProperties", %"struct.xalanc_1_8::XalanHTMLElementsProperties::InternalElementProperties", %"struct.xalanc_1_8::XalanHTMLElementsProperties::InternalElementProperties", %"struct.xalanc_1_8::XalanHTMLElementsProperties::InternalElementProperties", %"struct.xalanc_1_8::XalanHTMLElementsProperties::InternalElementProperties", %"struct.xalanc_1_8::XalanHTMLElementsProperties::InternalElementProperties", %"struct.xalanc_1_8::XalanHTMLElementsProperties::InternalElementProperties", %"struct.xalanc_1_8::XalanHTMLElementsProperties::InternalElementProperties", %"struct.xalanc_1_8::XalanHTMLElementsProperties::InternalElementProperties", %"struct.xalanc_1_8::XalanHTMLElementsProperties::InternalElementProperties", %"struct.xalanc_1_8::XalanHTMLElementsProperties::InternalElementProperties", %"struct.xalanc_1_8::XalanHTMLElementsProperties::InternalElementProperties", %"struct.xalanc_1_8::XalanHTMLElementsProperties::InternalElementProperties", %"struct.xalanc_1_8::XalanHTMLElementsProperties::InternalElementProperties", %"struct.xalanc_1_8::XalanHTMLElementsProperties::InternalElementProperties" }>, ptr @_ZN10xalanc_1_827XalanHTMLElementsProperties19s_elementPropertiesE, i64 0, i32 90, i32 0, i64 0), %2 ], [ %42, %41 ]
  %7 = ptrtoint ptr %6 to i64
  %8 = ptrtoint ptr %5 to i64
  %9 = sub i64 %7, %8
  br label %10

10:                                               ; preds = %10, %4
  %11 = phi ptr [ %1, %4 ], [ %14, %10 ]
  %12 = load i16, ptr %11, align 2, !tbaa !7
  %13 = icmp eq i16 %12, 0
  %14 = getelementptr inbounds i16, ptr %11, i64 1
  br i1 %13, label %15, label %10

15:                                               ; preds = %10
  %16 = sdiv i64 %9, 336
  %17 = getelementptr inbounds %"struct.xalanc_1_8::XalanHTMLElementsProperties::InternalElementProperties", ptr %5, i64 %16
  br label %18

18:                                               ; preds = %18, %15
  %19 = phi ptr [ %22, %18 ], [ %17, %15 ]
  %20 = load i16, ptr %19, align 2, !tbaa !7
  %21 = icmp eq i16 %20, 0
  %22 = getelementptr inbounds i16, ptr %19, i64 1
  br i1 %21, label %23, label %18

23:                                               ; preds = %18
  %24 = ptrtoint ptr %11 to i64
  %25 = sub i64 %24, %3
  %26 = lshr exact i64 %25, 1
  %27 = trunc i64 %26 to i32
  %28 = ptrtoint ptr %19 to i64
  %29 = ptrtoint ptr %17 to i64
  %30 = sub i64 %28, %29
  %31 = lshr exact i64 %30, 1
  %32 = trunc i64 %31 to i32
  %33 = tail call noundef i32 @_ZN10xalanc_1_822compareIgnoreCaseASCIIEPKtjS1_j(ptr noundef %1, i32 noundef %27, ptr noundef %17, i32 noundef %32)
  %34 = icmp slt i32 %33, 0
  br i1 %34, label %35, label %37

35:                                               ; preds = %23
  %36 = getelementptr inbounds %"struct.xalanc_1_8::XalanHTMLElementsProperties::InternalElementProperties", ptr %17, i64 -1
  br label %41

37:                                               ; preds = %23
  %38 = icmp eq i32 %33, 0
  br i1 %38, label %45, label %39

39:                                               ; preds = %37
  %40 = getelementptr inbounds %"struct.xalanc_1_8::XalanHTMLElementsProperties::InternalElementProperties", ptr %17, i64 1
  br label %41

41:                                               ; preds = %39, %35
  %42 = phi ptr [ %36, %35 ], [ %6, %39 ]
  %43 = phi ptr [ %5, %35 ], [ %40, %39 ]
  %44 = icmp ugt ptr %43, %42
  br i1 %44, label %45, label %4

45:                                               ; preds = %37, %41
  %46 = phi ptr [ getelementptr inbounds (<{ { <{ i16, [10 x i16] }>, i32, [7 x %"struct.xalanc_1_8::XalanHTMLElementsProperties::InternalAttributeProperties"] }, { <{ i16, [10 x i16] }>, i32, [7 x %"struct.xalanc_1_8::XalanHTMLElementsProperties::InternalAttributeProperties"] }, { <{ i16, [10 x i16] }>, i32, [7 x %"struct.xalanc_1_8::XalanHTMLElementsProperties::InternalAttributeProperties"] }, { <{ i16, [10 x i16] }>, i32, [7 x %"struct.xalanc_1_8::XalanHTMLElementsProperties::InternalAttributeProperties"] }, { <{ i16, [10 x i16] }>, i32, [7 x %"struct.xalanc_1_8::XalanHTMLElementsProperties::InternalAttributeProperties"] }, { <{ i16, [10 x i16] }>, i32, [7 x %"struct.xalanc_1_8::XalanHTMLElementsProperties::InternalAttributeProperties"] }, { <{ i16, [10 x i16] }>, i32, [7 x %"struct.xalanc_1_8::XalanHTMLElementsProperties::InternalAttributeProperties"] }, { <{ i16, i16, [9 x i16] }>, i32, [7 x %"struct.xalanc_1_8::XalanHTMLElementsProperties::InternalAttributeProperties"] }, { <{ i16, i16, [9 x i16] }>, i32, [7 x %"struct.xalanc_1_8::XalanHTMLElementsProperties::InternalAttributeProperties"] }, { <{ i16, i16, [9 x i16] }>, i32, [7 x %"struct.xalanc_1_8::XalanHTMLElementsProperties::InternalAttributeProperties"] }, { <{ i16, i16, [9 x i16] }>, i32, [7 x %"struct.xalanc_1_8::XalanHTMLElementsProperties::InternalAttributeProperties"] }, { <{ i16, i16, [9 x i16] }>, i32, [7 x %"struct.xalanc_1_8::XalanHTMLElementsProperties::InternalAttributeProperties"] }, { <{ i16, i16, [9 x i16] }>, i32, [7 x %"struct.xalanc_1_8::XalanHTMLElementsProperties::InternalAttributeProperties"] }, { <{ i16, i16, [9 x i16] }>, i32, [7 x %"struct.xalanc_1_8::XalanHTMLElementsProperties::InternalAttributeProperties"] }, { <{ i16, i16, [9 x i16] }>, i32, [7 x %"struct.xalanc_1_8::XalanHTMLElementsProperties::InternalAttributeProperties"] }, { <{ i16, i16, [9 x i16] }>, i32, [7 x %"struct.xalanc_1_8::XalanHTMLElementsProperties::InternalAttributeProperties"] }, { <{ i16, i16, [9 x i16] }>, i32, [7 x %"struct.xalanc_1_8::XalanHTMLElementsProperties::InternalAttributeProperties"] }, { <{ i16, i16, [9 x i16] }>, i32, [7 x %"struct.xalanc_1_8::XalanHTMLElementsProperties::InternalAttributeProperties"] }, { <{ i16, i16, [9 x i16] }>, i32, [7 x %"struct.xalanc_1_8::XalanHTMLElementsProperties::InternalAttributeProperties"] }, { <{ i16, i16, [9 x i16] }>, i32, [7 x %"struct.xalanc_1_8::XalanHTMLElementsProperties::InternalAttributeProperties"] }, { <{ i16, i16, [9 x i16] }>, i32, [7 x %"struct.xalanc_1_8::XalanHTMLElementsProperties::InternalAttributeProperties"] }, { <{ i16, i16, [9 x i16] }>, i32, [7 x %"struct.xalanc_1_8::XalanHTMLElementsProperties::InternalAttributeProperties"] }, { <{ i16, i16, [9 x i16] }>, i32, [7 x %"struct.xalanc_1_8::XalanHTMLElementsProperties::InternalAttributeProperties"] }, { <{ i16, i16, [9 x i16] }>, i32, [7 x %"struct.xalanc_1_8::XalanHTMLElementsProperties::InternalAttributeProperties"] }, { <{ i16, i16, [9 x i16] }>, i32, [7 x %"struct.xalanc_1_8::XalanHTMLElementsProperties::InternalAttributeProperties"] }, { <{ i16, i16, [9 x i16] }>, i32, [7 x %"struct.xalanc_1_8::XalanHTMLElementsProperties::InternalAttributeProperties"] }, { <{ i16, i16, i16, [8 x i16] }>, i32, [7 x %"struct.xalanc_1_8::XalanHTMLElementsProperties::InternalAttributeProperties"] }, { <{ i16, i16, i16, [8 x i16] }>, i32, [7 x %"struct.xalanc_1_8::XalanHTMLElementsProperties::InternalAttributeProperties"] }, { <{ i16, i16, i16, [8 x i16] }>, i32, [7 x %"struct.xalanc_1_8::XalanHTMLElementsProperties::InternalAttributeProperties"] }, { <{ i16, i16, i16, [8 x i16] }>, i32, [7 x %"struct.xalanc_1_8::XalanHTMLElementsProperties::InternalAttributeProperties"] }, { <{ i16, i16, i16, [8 x i16] }>, i32, [7 x %"struct.xalanc_1_8::XalanHTMLElementsProperties::InternalAttributeProperties"] }, { <{ i16, i16, i16, [8 x i16] }>, i32, [7 x %"struct.xalanc_1_8::XalanHTMLElementsProperties::InternalAttributeProperties"] }, { <{ i16, i16, i16, [8 x i16] }>, i32, [7 x %"struct.xalanc_1_8::XalanHTMLElementsProperties::InternalAttributeProperties"] }, { <{ i16, i16, i16, [8 x i16] }>, i32, [7 x %"struct.xalanc_1_8::XalanHTMLElementsProperties::InternalAttributeProperties"] }, { <{ i16, i16, i16, [8 x i16] }>, i32, [7 x %"struct.xalanc_1_8::XalanHTMLElementsProperties::InternalAttributeProperties"] }, { <{ i16, i16, i16, [8 x i16] }>, i32, [7 x %"struct.xalanc_1_8::XalanHTMLElementsProperties::InternalAttributeProperties"] }, { <{ i16, i16, i16, [8 x i16] }>, i32, [7 x %"struct.xalanc_1_8::XalanHTMLElementsProperties::InternalAttributeProperties"] }, { <{ i16, i16, i16, [8 x i16] }>, i32, [7 x %"struct.xalanc_1_8::XalanHTMLElementsProperties::InternalAttributeProperties"] }, { <{ i16, i16, i16, [8 x i16] }>, i32, [7 x %"struct.xalanc_1_8::XalanHTMLElementsProperties::InternalAttributeProperties"] }, { <{ i16, i16, i16, [8 x i16] }>, i32, [7 x %"struct.xalanc_1_8::XalanHTMLElementsProperties::InternalAttributeProperties"] }, { <{ i16, i16, i16, [8 x i16] }>, i32, [7 x %"struct.xalanc_1_8::XalanHTMLElementsProperties::InternalAttributeProperties"] }, %"struct.xalanc_1_8::XalanHTMLElementsProperties::InternalElementProperties", %"struct.xalanc_1_8::XalanHTMLElementsProperties::InternalElementProperties", %"struct.xalanc_1_8::XalanHTMLElementsProperties::InternalElementProperties", %"struct.xalanc_1_8::XalanHTMLElementsProperties::InternalElementProperties", %"struct.xalanc_1_8::XalanHTMLElementsProperties::InternalElementProperties", %"struct.xalanc_1_8::XalanHTMLElementsProperties::InternalElementProperties", %"struct.xalanc_1_8::XalanHTMLElementsProperties::InternalElementProperties", %"struct.xalanc_1_8::XalanHTMLElementsProperties::InternalElementProperties", %"struct.xalanc_1_8::XalanHTMLElementsProperties::InternalElementProperties", %"struct.xalanc_1_8::XalanHTMLElementsProperties::InternalElementProperties", %"struct.xalanc_1_8::XalanHTMLElementsProperties::InternalElementProperties", %"struct.xalanc_1_8::XalanHTMLElementsProperties::InternalElementProperties", %"struct.xalanc_1_8::XalanHTMLElementsProperties::InternalElementProperties", %"struct.xalanc_1_8::XalanHTMLElementsProperties::InternalElementProperties", %"struct.xalanc_1_8::XalanHTMLElementsProperties::InternalElementProperties", %"struct.xalanc_1_8::XalanHTMLElementsProperties::InternalElementProperties", %"struct.xalanc_1_8::XalanHTMLElementsProperties::InternalElementProperties", %"struct.xalanc_1_8::XalanHTMLElementsProperties::InternalElementProperties", %"struct.xalanc_1_8::XalanHTMLElementsProperties::InternalElementProperties", %"struct.xalanc_1_8::XalanHTMLElementsProperties::InternalElementProperties", %"struct.xalanc_1_8::XalanHTMLElementsProperties::InternalElementProperties", %"struct.xalanc_1_8::XalanHTMLElementsProperties::InternalElementProperties", %"struct.xalanc_1_8::XalanHTMLElementsProperties::InternalElementProperties", %"struct.xalanc_1_8::XalanHTMLElementsProperties::InternalElementProperties", %"struct.xalanc_1_8::XalanHTMLElementsProperties::InternalElementProperties", %"struct.xalanc_1_8::XalanHTMLElementsProperties::InternalElementProperties", %"struct.xalanc_1_8::XalanHTMLElementsProperties::InternalElementProperties", %"struct.xalanc_1_8::XalanHTMLElementsProperties::InternalElementProperties", %"struct.xalanc_1_8::XalanHTMLElementsProperties::InternalElementProperties", %"struct.xalanc_1_8::XalanHTMLElementsProperties::InternalElementProperties", %"struct.xalanc_1_8::XalanHTMLElementsProperties::InternalElementProperties", %"struct.xalanc_1_8::XalanHTMLElementsProperties::InternalElementProperties", %"struct.xalanc_1_8::XalanHTMLElementsProperties::InternalElementProperties", %"struct.xalanc_1_8::XalanHTMLElementsProperties::InternalElementProperties", %"struct.xalanc_1_8::XalanHTMLElementsProperties::InternalElementProperties", %"struct.xalanc_1_8::XalanHTMLElementsProperties::InternalElementProperties", %"struct.xalanc_1_8::XalanHTMLElementsProperties::InternalElementProperties", %"struct.xalanc_1_8::XalanHTMLElementsProperties::InternalElementProperties", %"struct.xalanc_1_8::XalanHTMLElementsProperties::InternalElementProperties", %"struct.xalanc_1_8::XalanHTMLElementsProperties::InternalElementProperties", %"struct.xalanc_1_8::XalanHTMLElementsProperties::InternalElementProperties", %"struct.xalanc_1_8::XalanHTMLElementsProperties::InternalElementProperties", %"struct.xalanc_1_8::XalanHTMLElementsProperties::InternalElementProperties", %"struct.xalanc_1_8::XalanHTMLElementsProperties::InternalElementProperties", %"struct.xalanc_1_8::XalanHTMLElementsProperties::InternalElementProperties", %"struct.xalanc_1_8::XalanHTMLElementsProperties::InternalElementProperties", %"struct.xalanc_1_8::XalanHTMLElementsProperties::InternalElementProperties", %"struct.xalanc_1_8::XalanHTMLElementsProperties::InternalElementProperties", %"struct.xalanc_1_8::XalanHTMLElementsProperties::InternalElementProperties", %"struct.xalanc_1_8::XalanHTMLElementsProperties::InternalElementProperties", %"struct.xalanc_1_8::XalanHTMLElementsProperties::InternalElementProperties" }>, ptr @_ZN10xalanc_1_827XalanHTMLElementsProperties19s_elementPropertiesE, i64 0, i32 91, i32 0, i64 0), %41 ], [ %17, %37 ]
  store ptr %46, ptr %0, align 8, !tbaa !11
  ret void
}

; Function Attrs: uwtable
define dso_local noundef nonnull align 4 dereferenceable(168) ptr @_ZN10xalanc_1_827XalanHTMLElementsProperties14findPropertiesEPKt(ptr noundef %0) local_unnamed_addr #1 align 2 {
  %2 = ptrtoint ptr %0 to i64
  br label %3

3:                                                ; preds = %1, %40
  %4 = phi ptr [ @_ZN10xalanc_1_827XalanHTMLElementsProperties19s_elementPropertiesE, %1 ], [ %42, %40 ]
  %5 = phi ptr [ getelementptr inbounds (<{ { <{ i16, [10 x i16] }>, i32, [7 x %"struct.xalanc_1_8::XalanHTMLElementsProperties::InternalAttributeProperties"] }, { <{ i16, [10 x i16] }>, i32, [7 x %"struct.xalanc_1_8::XalanHTMLElementsProperties::InternalAttributeProperties"] }, { <{ i16, [10 x i16] }>, i32, [7 x %"struct.xalanc_1_8::XalanHTMLElementsProperties::InternalAttributeProperties"] }, { <{ i16, [10 x i16] }>, i32, [7 x %"struct.xalanc_1_8::XalanHTMLElementsProperties::InternalAttributeProperties"] }, { <{ i16, [10 x i16] }>, i32, [7 x %"struct.xalanc_1_8::XalanHTMLElementsProperties::InternalAttributeProperties"] }, { <{ i16, [10 x i16] }>, i32, [7 x %"struct.xalanc_1_8::XalanHTMLElementsProperties::InternalAttributeProperties"] }, { <{ i16, [10 x i16] }>, i32, [7 x %"struct.xalanc_1_8::XalanHTMLElementsProperties::InternalAttributeProperties"] }, { <{ i16, i16, [9 x i16] }>, i32, [7 x %"struct.xalanc_1_8::XalanHTMLElementsProperties::InternalAttributeProperties"] }, { <{ i16, i16, [9 x i16] }>, i32, [7 x %"struct.xalanc_1_8::XalanHTMLElementsProperties::InternalAttributeProperties"] }, { <{ i16, i16, [9 x i16] }>, i32, [7 x %"struct.xalanc_1_8::XalanHTMLElementsProperties::InternalAttributeProperties"] }, { <{ i16, i16, [9 x i16] }>, i32, [7 x %"struct.xalanc_1_8::XalanHTMLElementsProperties::InternalAttributeProperties"] }, { <{ i16, i16, [9 x i16] }>, i32, [7 x %"struct.xalanc_1_8::XalanHTMLElementsProperties::InternalAttributeProperties"] }, { <{ i16, i16, [9 x i16] }>, i32, [7 x %"struct.xalanc_1_8::XalanHTMLElementsProperties::InternalAttributeProperties"] }, { <{ i16, i16, [9 x i16] }>, i32, [7 x %"struct.xalanc_1_8::XalanHTMLElementsProperties::InternalAttributeProperties"] }, { <{ i16, i16, [9 x i16] }>, i32, [7 x %"struct.xalanc_1_8::XalanHTMLElementsProperties::InternalAttributeProperties"] }, { <{ i16, i16, [9 x i16] }>, i32, [7 x %"struct.xalanc_1_8::XalanHTMLElementsProperties::InternalAttributeProperties"] }, { <{ i16, i16, [9 x i16] }>, i32, [7 x %"struct.xalanc_1_8::XalanHTMLElementsProperties::InternalAttributeProperties"] }, { <{ i16, i16, [9 x i16] }>, i32, [7 x %"struct.xalanc_1_8::XalanHTMLElementsProperties::InternalAttributeProperties"] }, { <{ i16, i16, [9 x i16] }>, i32, [7 x %"struct.xalanc_1_8::XalanHTMLElementsProperties::InternalAttributeProperties"] }, { <{ i16, i16, [9 x i16] }>, i32, [7 x %"struct.xalanc_1_8::XalanHTMLElementsProperties::InternalAttributeProperties"] }, { <{ i16, i16, [9 x i16] }>, i32, [7 x %"struct.xalanc_1_8::XalanHTMLElementsProperties::InternalAttributeProperties"] }, { <{ i16, i16, [9 x i16] }>, i32, [7 x %"struct.xalanc_1_8::XalanHTMLElementsProperties::InternalAttributeProperties"] }, { <{ i16, i16, [9 x i16] }>, i32, [7 x %"struct.xalanc_1_8::XalanHTMLElementsProperties::InternalAttributeProperties"] }, { <{ i16, i16, [9 x i16] }>, i32, [7 x %"struct.xalanc_1_8::XalanHTMLElementsProperties::InternalAttributeProperties"] }, { <{ i16, i16, [9 x i16] }>, i32, [7 x %"struct.xalanc_1_8::XalanHTMLElementsProperties::InternalAttributeProperties"] }, { <{ i16, i16, [9 x i16] }>, i32, [7 x %"struct.xalanc_1_8::XalanHTMLElementsProperties::InternalAttributeProperties"] }, { <{ i16, i16, i16, [8 x i16] }>, i32, [7 x %"struct.xalanc_1_8::XalanHTMLElementsProperties::InternalAttributeProperties"] }, { <{ i16, i16, i16, [8 x i16] }>, i32, [7 x %"struct.xalanc_1_8::XalanHTMLElementsProperties::InternalAttributeProperties"] }, { <{ i16, i16, i16, [8 x i16] }>, i32, [7 x %"struct.xalanc_1_8::XalanHTMLElementsProperties::InternalAttributeProperties"] }, { <{ i16, i16, i16, [8 x i16] }>, i32, [7 x %"struct.xalanc_1_8::XalanHTMLElementsProperties::InternalAttributeProperties"] }, { <{ i16, i16, i16, [8 x i16] }>, i32, [7 x %"struct.xalanc_1_8::XalanHTMLElementsProperties::InternalAttributeProperties"] }, { <{ i16, i16, i16, [8 x i16] }>, i32, [7 x %"struct.xalanc_1_8::XalanHTMLElementsProperties::InternalAttributeProperties"] }, { <{ i16, i16, i16, [8 x i16] }>, i32, [7 x %"struct.xalanc_1_8::XalanHTMLElementsProperties::InternalAttributeProperties"] }, { <{ i16, i16, i16, [8 x i16] }>, i32, [7 x %"struct.xalanc_1_8::XalanHTMLElementsProperties::InternalAttributeProperties"] }, { <{ i16, i16, i16, [8 x i16] }>, i32, [7 x %"struct.xalanc_1_8::XalanHTMLElementsProperties::InternalAttributeProperties"] }, { <{ i16, i16, i16, [8 x i16] }>, i32, [7 x %"struct.xalanc_1_8::XalanHTMLElementsProperties::InternalAttributeProperties"] }, { <{ i16, i16, i16, [8 x i16] }>, i32, [7 x %"struct.xalanc_1_8::XalanHTMLElementsProperties::InternalAttributeProperties"] }, { <{ i16, i16, i16, [8 x i16] }>, i32, [7 x %"struct.xalanc_1_8::XalanHTMLElementsProperties::InternalAttributeProperties"] }, { <{ i16, i16, i16, [8 x i16] }>, i32, [7 x %"struct.xalanc_1_8::XalanHTMLElementsProperties::InternalAttributeProperties"] }, { <{ i16, i16, i16, [8 x i16] }>, i32, [7 x %"struct.xalanc_1_8::XalanHTMLElementsProperties::InternalAttributeProperties"] }, { <{ i16, i16, i16, [8 x i16] }>, i32, [7 x %"struct.xalanc_1_8::XalanHTMLElementsProperties::InternalAttributeProperties"] }, %"struct.xalanc_1_8::XalanHTMLElementsProperties::InternalElementProperties", %"struct.xalanc_1_8::XalanHTMLElementsProperties::InternalElementProperties", %"struct.xalanc_1_8::XalanHTMLElementsProperties::InternalElementProperties", %"struct.xalanc_1_8::XalanHTMLElementsProperties::InternalElementProperties", %"struct.xalanc_1_8::XalanHTMLElementsProperties::InternalElementProperties", %"struct.xalanc_1_8::XalanHTMLElementsProperties::InternalElementProperties", %"struct.xalanc_1_8::XalanHTMLElementsProperties::InternalElementProperties", %"struct.xalanc_1_8::XalanHTMLElementsProperties::InternalElementProperties", %"struct.xalanc_1_8::XalanHTMLElementsProperties::InternalElementProperties", %"struct.xalanc_1_8::XalanHTMLElementsProperties::InternalElementProperties", %"struct.xalanc_1_8::XalanHTMLElementsProperties::InternalElementProperties", %"struct.xalanc_1_8::XalanHTMLElementsProperties::InternalElementProperties", %"struct.xalanc_1_8::XalanHTMLElementsProperties::InternalElementProperties", %"struct.xalanc_1_8::XalanHTMLElementsProperties::InternalElementProperties", %"struct.xalanc_1_8::XalanHTMLElementsProperties::InternalElementProperties", %"struct.xalanc_1_8::XalanHTMLElementsProperties::InternalElementProperties", %"struct.xalanc_1_8::XalanHTMLElementsProperties::InternalElementProperties", %"struct.xalanc_1_8::XalanHTMLElementsProperties::InternalElementProperties", %"struct.xalanc_1_8::XalanHTMLElementsProperties::InternalElementProperties", %"struct.xalanc_1_8::XalanHTMLElementsProperties::InternalElementProperties", %"struct.xalanc_1_8::XalanHTMLElementsProperties::InternalElementProperties", %"struct.xalanc_1_8::XalanHTMLElementsProperties::InternalElementProperties", %"struct.xalanc_1_8::XalanHTMLElementsProperties::InternalElementProperties", %"struct.xalanc_1_8::XalanHTMLElementsProperties::InternalElementProperties", %"struct.xalanc_1_8::XalanHTMLElementsProperties::InternalElementProperties", %"struct.xalanc_1_8::XalanHTMLElementsProperties::InternalElementProperties", %"struct.xalanc_1_8::XalanHTMLElementsProperties::InternalElementProperties", %"struct.xalanc_1_8::XalanHTMLElementsProperties::InternalElementProperties", %"struct.xalanc_1_8::XalanHTMLElementsProperties::InternalElementProperties", %"struct.xalanc_1_8::XalanHTMLElementsProperties::InternalElementProperties", %"struct.xalanc_1_8::XalanHTMLElementsProperties::InternalElementProperties", %"struct.xalanc_1_8::XalanHTMLElementsProperties::InternalElementProperties", %"struct.xalanc_1_8::XalanHTMLElementsProperties::InternalElementProperties", %"struct.xalanc_1_8::XalanHTMLElementsProperties::InternalElementProperties", %"struct.xalanc_1_8::XalanHTMLElementsProperties::InternalElementProperties", %"struct.xalanc_1_8::XalanHTMLElementsProperties::InternalElementProperties", %"struct.xalanc_1_8::XalanHTMLElementsProperties::InternalElementProperties", %"struct.xalanc_1_8::XalanHTMLElementsProperties::InternalElementProperties", %"struct.xalanc_1_8::XalanHTMLElementsProperties::InternalElementProperties", %"struct.xalanc_1_8::XalanHTMLElementsProperties::InternalElementProperties", %"struct.xalanc_1_8::XalanHTMLElementsProperties::InternalElementProperties", %"struct.xalanc_1_8::XalanHTMLElementsProperties::InternalElementProperties", %"struct.xalanc_1_8::XalanHTMLElementsProperties::InternalElementProperties", %"struct.xalanc_1_8::XalanHTMLElementsProperties::InternalElementProperties", %"struct.xalanc_1_8::XalanHTMLElementsProperties::InternalElementProperties", %"struct.xalanc_1_8::XalanHTMLElementsProperties::InternalElementProperties", %"struct.xalanc_1_8::XalanHTMLElementsProperties::InternalElementProperties", %"struct.xalanc_1_8::XalanHTMLElementsProperties::InternalElementProperties", %"struct.xalanc_1_8::XalanHTMLElementsProperties::InternalElementProperties", %"struct.xalanc_1_8::XalanHTMLElementsProperties::InternalElementProperties", %"struct.xalanc_1_8::XalanHTMLElementsProperties::InternalElementProperties" }>, ptr @_ZN10xalanc_1_827XalanHTMLElementsProperties19s_elementPropertiesE, i64 0, i32 90, i32 0, i64 0), %1 ], [ %41, %40 ]
  %6 = ptrtoint ptr %5 to i64
  %7 = ptrtoint ptr %4 to i64
  %8 = sub i64 %6, %7
  %9 = sdiv i64 %8, 336
  br label %10

10:                                               ; preds = %10, %3
  %11 = phi ptr [ %0, %3 ], [ %14, %10 ]
  %12 = load i16, ptr %11, align 2, !tbaa !7
  %13 = icmp eq i16 %12, 0
  %14 = getelementptr inbounds i16, ptr %11, i64 1
  br i1 %13, label %15, label %10

15:                                               ; preds = %10
  %16 = getelementptr inbounds %"struct.xalanc_1_8::XalanHTMLElementsProperties::InternalElementProperties", ptr %4, i64 %9
  br label %17

17:                                               ; preds = %15, %17
  %18 = phi ptr [ %21, %17 ], [ %16, %15 ]
  %19 = load i16, ptr %18, align 2, !tbaa !7
  %20 = icmp eq i16 %19, 0
  %21 = getelementptr inbounds i16, ptr %18, i64 1
  br i1 %20, label %22, label %17

22:                                               ; preds = %17
  %23 = ptrtoint ptr %11 to i64
  %24 = sub i64 %23, %2
  %25 = lshr exact i64 %24, 1
  %26 = trunc i64 %25 to i32
  %27 = ptrtoint ptr %18 to i64
  %28 = ptrtoint ptr %16 to i64
  %29 = sub i64 %27, %28
  %30 = lshr exact i64 %29, 1
  %31 = trunc i64 %30 to i32
  %32 = tail call noundef i32 @_ZN10xalanc_1_822compareIgnoreCaseASCIIEPKtjS1_j(ptr noundef %0, i32 noundef %26, ptr noundef %16, i32 noundef %31)
  %33 = icmp slt i32 %32, 0
  br i1 %33, label %34, label %36

34:                                               ; preds = %22
  %35 = getelementptr inbounds %"struct.xalanc_1_8::XalanHTMLElementsProperties::InternalElementProperties", ptr %16, i64 -1
  br label %40

36:                                               ; preds = %22
  %37 = icmp eq i32 %32, 0
  br i1 %37, label %44, label %38

38:                                               ; preds = %36
  %39 = getelementptr inbounds %"struct.xalanc_1_8::XalanHTMLElementsProperties::InternalElementProperties", ptr %16, i64 1
  br label %40

40:                                               ; preds = %34, %38
  %41 = phi ptr [ %35, %34 ], [ %5, %38 ]
  %42 = phi ptr [ %4, %34 ], [ %39, %38 ]
  %43 = icmp ugt ptr %42, %41
  br i1 %43, label %44, label %3

44:                                               ; preds = %36, %40
  %45 = phi ptr [ getelementptr inbounds (<{ { <{ i16, [10 x i16] }>, i32, [7 x %"struct.xalanc_1_8::XalanHTMLElementsProperties::InternalAttributeProperties"] }, { <{ i16, [10 x i16] }>, i32, [7 x %"struct.xalanc_1_8::XalanHTMLElementsProperties::InternalAttributeProperties"] }, { <{ i16, [10 x i16] }>, i32, [7 x %"struct.xalanc_1_8::XalanHTMLElementsProperties::InternalAttributeProperties"] }, { <{ i16, [10 x i16] }>, i32, [7 x %"struct.xalanc_1_8::XalanHTMLElementsProperties::InternalAttributeProperties"] }, { <{ i16, [10 x i16] }>, i32, [7 x %"struct.xalanc_1_8::XalanHTMLElementsProperties::InternalAttributeProperties"] }, { <{ i16, [10 x i16] }>, i32, [7 x %"struct.xalanc_1_8::XalanHTMLElementsProperties::InternalAttributeProperties"] }, { <{ i16, [10 x i16] }>, i32, [7 x %"struct.xalanc_1_8::XalanHTMLElementsProperties::InternalAttributeProperties"] }, { <{ i16, i16, [9 x i16] }>, i32, [7 x %"struct.xalanc_1_8::XalanHTMLElementsProperties::InternalAttributeProperties"] }, { <{ i16, i16, [9 x i16] }>, i32, [7 x %"struct.xalanc_1_8::XalanHTMLElementsProperties::InternalAttributeProperties"] }, { <{ i16, i16, [9 x i16] }>, i32, [7 x %"struct.xalanc_1_8::XalanHTMLElementsProperties::InternalAttributeProperties"] }, { <{ i16, i16, [9 x i16] }>, i32, [7 x %"struct.xalanc_1_8::XalanHTMLElementsProperties::InternalAttributeProperties"] }, { <{ i16, i16, [9 x i16] }>, i32, [7 x %"struct.xalanc_1_8::XalanHTMLElementsProperties::InternalAttributeProperties"] }, { <{ i16, i16, [9 x i16] }>, i32, [7 x %"struct.xalanc_1_8::XalanHTMLElementsProperties::InternalAttributeProperties"] }, { <{ i16, i16, [9 x i16] }>, i32, [7 x %"struct.xalanc_1_8::XalanHTMLElementsProperties::InternalAttributeProperties"] }, { <{ i16, i16, [9 x i16] }>, i32, [7 x %"struct.xalanc_1_8::XalanHTMLElementsProperties::InternalAttributeProperties"] }, { <{ i16, i16, [9 x i16] }>, i32, [7 x %"struct.xalanc_1_8::XalanHTMLElementsProperties::InternalAttributeProperties"] }, { <{ i16, i16, [9 x i16] }>, i32, [7 x %"struct.xalanc_1_8::XalanHTMLElementsProperties::InternalAttributeProperties"] }, { <{ i16, i16, [9 x i16] }>, i32, [7 x %"struct.xalanc_1_8::XalanHTMLElementsProperties::InternalAttributeProperties"] }, { <{ i16, i16, [9 x i16] }>, i32, [7 x %"struct.xalanc_1_8::XalanHTMLElementsProperties::InternalAttributeProperties"] }, { <{ i16, i16, [9 x i16] }>, i32, [7 x %"struct.xalanc_1_8::XalanHTMLElementsProperties::InternalAttributeProperties"] }, { <{ i16, i16, [9 x i16] }>, i32, [7 x %"struct.xalanc_1_8::XalanHTMLElementsProperties::InternalAttributeProperties"] }, { <{ i16, i16, [9 x i16] }>, i32, [7 x %"struct.xalanc_1_8::XalanHTMLElementsProperties::InternalAttributeProperties"] }, { <{ i16, i16, [9 x i16] }>, i32, [7 x %"struct.xalanc_1_8::XalanHTMLElementsProperties::InternalAttributeProperties"] }, { <{ i16, i16, [9 x i16] }>, i32, [7 x %"struct.xalanc_1_8::XalanHTMLElementsProperties::InternalAttributeProperties"] }, { <{ i16, i16, [9 x i16] }>, i32, [7 x %"struct.xalanc_1_8::XalanHTMLElementsProperties::InternalAttributeProperties"] }, { <{ i16, i16, [9 x i16] }>, i32, [7 x %"struct.xalanc_1_8::XalanHTMLElementsProperties::InternalAttributeProperties"] }, { <{ i16, i16, i16, [8 x i16] }>, i32, [7 x %"struct.xalanc_1_8::XalanHTMLElementsProperties::InternalAttributeProperties"] }, { <{ i16, i16, i16, [8 x i16] }>, i32, [7 x %"struct.xalanc_1_8::XalanHTMLElementsProperties::InternalAttributeProperties"] }, { <{ i16, i16, i16, [8 x i16] }>, i32, [7 x %"struct.xalanc_1_8::XalanHTMLElementsProperties::InternalAttributeProperties"] }, { <{ i16, i16, i16, [8 x i16] }>, i32, [7 x %"struct.xalanc_1_8::XalanHTMLElementsProperties::InternalAttributeProperties"] }, { <{ i16, i16, i16, [8 x i16] }>, i32, [7 x %"struct.xalanc_1_8::XalanHTMLElementsProperties::InternalAttributeProperties"] }, { <{ i16, i16, i16, [8 x i16] }>, i32, [7 x %"struct.xalanc_1_8::XalanHTMLElementsProperties::InternalAttributeProperties"] }, { <{ i16, i16, i16, [8 x i16] }>, i32, [7 x %"struct.xalanc_1_8::XalanHTMLElementsProperties::InternalAttributeProperties"] }, { <{ i16, i16, i16, [8 x i16] }>, i32, [7 x %"struct.xalanc_1_8::XalanHTMLElementsProperties::InternalAttributeProperties"] }, { <{ i16, i16, i16, [8 x i16] }>, i32, [7 x %"struct.xalanc_1_8::XalanHTMLElementsProperties::InternalAttributeProperties"] }, { <{ i16, i16, i16, [8 x i16] }>, i32, [7 x %"struct.xalanc_1_8::XalanHTMLElementsProperties::InternalAttributeProperties"] }, { <{ i16, i16, i16, [8 x i16] }>, i32, [7 x %"struct.xalanc_1_8::XalanHTMLElementsProperties::InternalAttributeProperties"] }, { <{ i16, i16, i16, [8 x i16] }>, i32, [7 x %"struct.xalanc_1_8::XalanHTMLElementsProperties::InternalAttributeProperties"] }, { <{ i16, i16, i16, [8 x i16] }>, i32, [7 x %"struct.xalanc_1_8::XalanHTMLElementsProperties::InternalAttributeProperties"] }, { <{ i16, i16, i16, [8 x i16] }>, i32, [7 x %"struct.xalanc_1_8::XalanHTMLElementsProperties::InternalAttributeProperties"] }, { <{ i16, i16, i16, [8 x i16] }>, i32, [7 x %"struct.xalanc_1_8::XalanHTMLElementsProperties::InternalAttributeProperties"] }, %"struct.xalanc_1_8::XalanHTMLElementsProperties::InternalElementProperties", %"struct.xalanc_1_8::XalanHTMLElementsProperties::InternalElementProperties", %"struct.xalanc_1_8::XalanHTMLElementsProperties::InternalElementProperties", %"struct.xalanc_1_8::XalanHTMLElementsProperties::InternalElementProperties", %"struct.xalanc_1_8::XalanHTMLElementsProperties::InternalElementProperties", %"struct.xalanc_1_8::XalanHTMLElementsProperties::InternalElementProperties", %"struct.xalanc_1_8::XalanHTMLElementsProperties::InternalElementProperties", %"struct.xalanc_1_8::XalanHTMLElementsProperties::InternalElementProperties", %"struct.xalanc_1_8::XalanHTMLElementsProperties::InternalElementProperties", %"struct.xalanc_1_8::XalanHTMLElementsProperties::InternalElementProperties", %"struct.xalanc_1_8::XalanHTMLElementsProperties::InternalElementProperties", %"struct.xalanc_1_8::XalanHTMLElementsProperties::InternalElementProperties", %"struct.xalanc_1_8::XalanHTMLElementsProperties::InternalElementProperties", %"struct.xalanc_1_8::XalanHTMLElementsProperties::InternalElementProperties", %"struct.xalanc_1_8::XalanHTMLElementsProperties::InternalElementProperties", %"struct.xalanc_1_8::XalanHTMLElementsProperties::InternalElementProperties", %"struct.xalanc_1_8::XalanHTMLElementsProperties::InternalElementProperties", %"struct.xalanc_1_8::XalanHTMLElementsProperties::InternalElementProperties", %"struct.xalanc_1_8::XalanHTMLElementsProperties::InternalElementProperties", %"struct.xalanc_1_8::XalanHTMLElementsProperties::InternalElementProperties", %"struct.xalanc_1_8::XalanHTMLElementsProperties::InternalElementProperties", %"struct.xalanc_1_8::XalanHTMLElementsProperties::InternalElementProperties", %"struct.xalanc_1_8::XalanHTMLElementsProperties::InternalElementProperties", %"struct.xalanc_1_8::XalanHTMLElementsProperties::InternalElementProperties", %"struct.xalanc_1_8::XalanHTMLElementsProperties::InternalElementProperties", %"struct.xalanc_1_8::XalanHTMLElementsProperties::InternalElementProperties", %"struct.xalanc_1_8::XalanHTMLElementsProperties::InternalElementProperties", %"struct.xalanc_1_8::XalanHTMLElementsProperties::InternalElementProperties", %"struct.xalanc_1_8::XalanHTMLElementsProperties::InternalElementProperties", %"struct.xalanc_1_8::XalanHTMLElementsProperties::InternalElementProperties", %"struct.xalanc_1_8::XalanHTMLElementsProperties::InternalElementProperties", %"struct.xalanc_1_8::XalanHTMLElementsProperties::InternalElementProperties", %"struct.xalanc_1_8::XalanHTMLElementsProperties::InternalElementProperties", %"struct.xalanc_1_8::XalanHTMLElementsProperties::InternalElementProperties", %"struct.xalanc_1_8::XalanHTMLElementsProperties::InternalElementProperties", %"struct.xalanc_1_8::XalanHTMLElementsProperties::InternalElementProperties", %"struct.xalanc_1_8::XalanHTMLElementsProperties::InternalElementProperties", %"struct.xalanc_1_8::XalanHTMLElementsProperties::InternalElementProperties", %"struct.xalanc_1_8::XalanHTMLElementsProperties::InternalElementProperties", %"struct.xalanc_1_8::XalanHTMLElementsProperties::InternalElementProperties", %"struct.xalanc_1_8::XalanHTMLElementsProperties::InternalElementProperties", %"struct.xalanc_1_8::XalanHTMLElementsProperties::InternalElementProperties", %"struct.xalanc_1_8::XalanHTMLElementsProperties::InternalElementProperties", %"struct.xalanc_1_8::XalanHTMLElementsProperties::InternalElementProperties", %"struct.xalanc_1_8::XalanHTMLElementsProperties::InternalElementProperties", %"struct.xalanc_1_8::XalanHTMLElementsProperties::InternalElementProperties", %"struct.xalanc_1_8::XalanHTMLElementsProperties::InternalElementProperties", %"struct.xalanc_1_8::XalanHTMLElementsProperties::InternalElementProperties", %"struct.xalanc_1_8::XalanHTMLElementsProperties::InternalElementProperties", %"struct.xalanc_1_8::XalanHTMLElementsProperties::InternalElementProperties", %"struct.xalanc_1_8::XalanHTMLElementsProperties::InternalElementProperties" }>, ptr @_ZN10xalanc_1_827XalanHTMLElementsProperties19s_elementPropertiesE, i64 0, i32 91, i32 0, i64 0), %40 ], [ %16, %36 ]
  ret ptr %45
}

; Function Attrs: uwtable
define dso_local noundef zeroext i1 @_ZNK10xalanc_1_827XalanHTMLElementsProperties25InternalElementProperties11isAttributeEPKth(ptr noundef nonnull align 4 dereferenceable(168) %0, ptr noundef %1, i8 noundef zeroext %2) local_unnamed_addr #1 align 2 {
  %4 = getelementptr inbounds %"struct.xalanc_1_8::XalanHTMLElementsProperties::InternalElementProperties", ptr %0, i64 0, i32 2
  %5 = ptrtoint ptr %1 to i64
  br label %6

6:                                                ; preds = %20, %3
  %7 = phi ptr [ %4, %3 ], [ %35, %20 ]
  %8 = load i16, ptr %7, align 2, !tbaa !7
  %9 = icmp eq i16 %8, 0
  br i1 %9, label %38, label %10

10:                                               ; preds = %6, %10
  %11 = phi ptr [ %14, %10 ], [ %1, %6 ]
  %12 = load i16, ptr %11, align 2, !tbaa !7
  %13 = icmp eq i16 %12, 0
  %14 = getelementptr inbounds i16, ptr %11, i64 1
  br i1 %13, label %15, label %10

15:                                               ; preds = %10, %15
  %16 = phi ptr [ %19, %15 ], [ %7, %10 ]
  %17 = load i16, ptr %16, align 2, !tbaa !7
  %18 = icmp eq i16 %17, 0
  %19 = getelementptr inbounds i16, ptr %16, i64 1
  br i1 %18, label %20, label %15

20:                                               ; preds = %15
  %21 = ptrtoint ptr %11 to i64
  %22 = sub i64 %21, %5
  %23 = lshr exact i64 %22, 1
  %24 = trunc i64 %23 to i32
  %25 = ptrtoint ptr %16 to i64
  %26 = ptrtoint ptr %7 to i64
  %27 = sub i64 %25, %26
  %28 = lshr exact i64 %27, 1
  %29 = trunc i64 %28 to i32
  %30 = tail call noundef i32 @_ZN10xalanc_1_822compareIgnoreCaseASCIIEPKtjS1_j(ptr noundef %1, i32 noundef %24, ptr noundef nonnull %7, i32 noundef %29)
  %31 = icmp eq i32 %30, 0
  %32 = lshr i32 %30, 31
  %33 = icmp sgt i32 %30, 0
  %34 = zext i1 %33 to i64
  %35 = getelementptr inbounds %"struct.xalanc_1_8::XalanHTMLElementsProperties::InternalAttributeProperties", ptr %7, i64 %34
  %36 = select i1 %31, i32 2, i32 %32
  switch i32 %36, label %38 [
    i32 0, label %6
    i32 2, label %37
  ]

37:                                               ; preds = %20
  br label %38

38:                                               ; preds = %6, %20, %37
  %39 = phi ptr [ %35, %37 ], [ @_ZN10xalanc_1_827XalanHTMLElementsProperties25InternalElementProperties17s_dummyPropertiesE, %20 ], [ @_ZN10xalanc_1_827XalanHTMLElementsProperties25InternalElementProperties17s_dummyPropertiesE, %6 ]
  %40 = getelementptr inbounds %"struct.xalanc_1_8::XalanHTMLElementsProperties::InternalAttributeProperties", ptr %39, i64 0, i32 1
  %41 = load i8, ptr %40, align 2, !tbaa !14
  %42 = and i8 %41, %2
  %43 = icmp ne i8 %42, 0
  ret i1 %43
}

; Function Attrs: uwtable
define dso_local noundef nonnull align 2 dereferenceable(20) ptr @_ZNK10xalanc_1_827XalanHTMLElementsProperties25InternalElementProperties14findPropertiesEPKt(ptr noundef nonnull align 4 dereferenceable(168) %0, ptr noundef %1) local_unnamed_addr #1 align 2 {
  %3 = getelementptr inbounds %"struct.xalanc_1_8::XalanHTMLElementsProperties::InternalElementProperties", ptr %0, i64 0, i32 2
  %4 = ptrtoint ptr %1 to i64
  br label %5

5:                                                ; preds = %19, %2
  %6 = phi ptr [ %3, %2 ], [ %34, %19 ]
  %7 = load i16, ptr %6, align 2, !tbaa !7
  %8 = icmp eq i16 %7, 0
  br i1 %8, label %36, label %9

9:                                                ; preds = %5, %9
  %10 = phi ptr [ %13, %9 ], [ %1, %5 ]
  %11 = load i16, ptr %10, align 2, !tbaa !7
  %12 = icmp eq i16 %11, 0
  %13 = getelementptr inbounds i16, ptr %10, i64 1
  br i1 %12, label %14, label %9

14:                                               ; preds = %9, %14
  %15 = phi ptr [ %18, %14 ], [ %6, %9 ]
  %16 = load i16, ptr %15, align 2, !tbaa !7
  %17 = icmp eq i16 %16, 0
  %18 = getelementptr inbounds i16, ptr %15, i64 1
  br i1 %17, label %19, label %14

19:                                               ; preds = %14
  %20 = ptrtoint ptr %10 to i64
  %21 = sub i64 %20, %4
  %22 = lshr exact i64 %21, 1
  %23 = trunc i64 %22 to i32
  %24 = ptrtoint ptr %15 to i64
  %25 = ptrtoint ptr %6 to i64
  %26 = sub i64 %24, %25
  %27 = lshr exact i64 %26, 1
  %28 = trunc i64 %27 to i32
  %29 = tail call noundef i32 @_ZN10xalanc_1_822compareIgnoreCaseASCIIEPKtjS1_j(ptr noundef %1, i32 noundef %23, ptr noundef nonnull %6, i32 noundef %28)
  %30 = icmp eq i32 %29, 0
  %31 = lshr i32 %29, 31
  %32 = icmp sgt i32 %29, 0
  %33 = zext i1 %32 to i64
  %34 = getelementptr inbounds %"struct.xalanc_1_8::XalanHTMLElementsProperties::InternalAttributeProperties", ptr %6, i64 %33
  %35 = select i1 %30, i32 2, i32 %31
  switch i32 %35, label %36 [
    i32 0, label %5
    i32 2, label %37
  ]

36:                                               ; preds = %19, %5
  br label %37

37:                                               ; preds = %19, %36
  %38 = phi ptr [ @_ZN10xalanc_1_827XalanHTMLElementsProperties25InternalElementProperties17s_dummyPropertiesE, %36 ], [ %34, %19 ]
  ret ptr %38
}

declare noundef i32 @_ZN10xalanc_1_822compareIgnoreCaseASCIIEPKtjS1_j(ptr noundef, i32 noundef, ptr noundef, i32 noundef) local_unnamed_addr #2

attributes #0 = { mustprogress nofree norecurse nosync nounwind willreturn memory(none) uwtable "approx-func-fp-math"="true" "denormal-fp-math"="preserve-sign,preserve-sign" "min-legal-vector-width"="0" "no-infs-fp-math"="true" "no-nans-fp-math"="true" "no-signed-zeros-fp-math"="true" "no-trapping-math"="true" "stack-protector-buffer-size"="8" "target-cpu"="znver2" "target-features"="+adx,+aes,+avx,+avx2,+bmi,+bmi2,+clflushopt,+clwb,+clzero,+crc32,+cx16,+cx8,+f16c,+fma,+fsgsbase,+fxsr,+lzcnt,+mmx,+movbe,+mwaitx,+pclmul,+popcnt,+prfchw,+rdpid,+rdpru,+rdrnd,+rdseed,+sahf,+sha,+sse,+sse2,+sse3,+sse4.1,+sse4.2,+sse4a,+ssse3,+wbnoinvd,+x87,+xsave,+xsavec,+xsaveopt,+xsaves" }
attributes #1 = { uwtable "approx-func-fp-math"="true" "denormal-fp-math"="preserve-sign,preserve-sign" "min-legal-vector-width"="0" "no-infs-fp-math"="true" "no-nans-fp-math"="true" "no-signed-zeros-fp-math"="true" "no-trapping-math"="true" "stack-protector-buffer-size"="8" "target-cpu"="znver2" "target-features"="+adx,+aes,+avx,+avx2,+bmi,+bmi2,+clflushopt,+clwb,+clzero,+crc32,+cx16,+cx8,+f16c,+fma,+fsgsbase,+fxsr,+lzcnt,+mmx,+movbe,+mwaitx,+pclmul,+popcnt,+prfchw,+rdpid,+rdpru,+rdrnd,+rdseed,+sahf,+sha,+sse,+sse2,+sse3,+sse4.1,+sse4.2,+sse4a,+ssse3,+wbnoinvd,+x87,+xsave,+xsavec,+xsaveopt,+xsaves" }
attributes #2 = { "approx-func-fp-math"="true" "denormal-fp-math"="preserve-sign,preserve-sign" "no-infs-fp-math"="true" "no-nans-fp-math"="true" "no-signed-zeros-fp-math"="true" "no-trapping-math"="true" "stack-protector-buffer-size"="8" "target-cpu"="znver2" "target-features"="+adx,+aes,+avx,+avx2,+bmi,+bmi2,+clflushopt,+clwb,+clzero,+crc32,+cx16,+cx8,+f16c,+fma,+fsgsbase,+fxsr,+lzcnt,+mmx,+movbe,+mwaitx,+pclmul,+popcnt,+prfchw,+rdpid,+rdpru,+rdrnd,+rdseed,+sahf,+sha,+sse,+sse2,+sse3,+sse4.1,+sse4.2,+sse4a,+ssse3,+wbnoinvd,+x87,+xsave,+xsavec,+xsaveopt,+xsaves" }

!llvm.module.flags = !{!0, !1, !2, !3, !4, !5}
!llvm.ident = !{!6}

!0 = !{i32 1, !"wchar_size", i32 4}
!1 = !{i32 8, !"PIC Level", i32 2}
!2 = !{i32 7, !"PIE Level", i32 2}
!3 = !{i32 7, !"uwtable", i32 2}
!4 = !{i32 1, !"ThinLTO", i32 0}
!5 = !{i32 1, !"EnableSplitLTOUnit", i32 1}
!6 = !{!"clang version 17.0.0 (git@github.com:llvm/llvm-project.git cff7a7747db02d1214b20e98677e5ddcb402ffe0)"}
!7 = !{!8, !8, i64 0}
!8 = !{!"short", !9, i64 0}
!9 = !{!"omnipotent char", !10, i64 0}
!10 = !{!"Simple C++ TBAA"}
!11 = !{!12, !13, i64 0}
!12 = !{!"_ZTSN10xalanc_1_827XalanHTMLElementsProperties17ElementPropertiesE", !13, i64 0}
!13 = !{!"any pointer", !9, i64 0}
!14 = !{!15, !9, i64 18}
!15 = !{!"_ZTSN10xalanc_1_827XalanHTMLElementsProperties27InternalAttributePropertiesE", !9, i64 0, !9, i64 18}

^0 = module: (path: "", hash: (0, 0, 0, 0, 0))
^1 = gv: (name: "_ZN10xalanc_1_827XalanHTMLElementsProperties17s_dummyPropertiesE", summaries: (variable: (module: ^0, flags: (linkage: external, visibility: default, notEligibleToImport: 1, live: 0, dsoLocal: 1, canAutoHide: 0), varFlags: (readonly: 1, writeonly: 0, constant: 1), refs: (^11)))) ; guid = 1320751718594859514
^2 = gv: (name: "_ZNK10xalanc_1_827XalanHTMLElementsProperties25InternalElementProperties11isAttributeEPKth", summaries: (function: (module: ^0, flags: (linkage: external, visibility: default, notEligibleToImport: 1, live: 0, dsoLocal: 1, canAutoHide: 0), insts: 41, calls: ((callee: ^3, relbf: 2816)), refs: (^10)))) ; guid = 1529883987729376539
^3 = gv: (name: "_ZN10xalanc_1_822compareIgnoreCaseASCIIEPKtjS1_j") ; guid = 1538916335490329986
^4 = gv: (name: "_ZN10xalanc_1_827XalanHTMLElementsProperties14findPropertiesEPKt", summaries: (function: (module: ^0, flags: (linkage: external, visibility: default, notEligibleToImport: 1, live: 0, dsoLocal: 1, canAutoHide: 0), insts: 45, calls: ((callee: ^3, relbf: 5088)), refs: (^11)))) ; guid = 2304070682314005933
^5 = gv: (name: "_ZN10xalanc_1_827XalanHTMLElementsPropertiesC2Ev", summaries: (function: (module: ^0, flags: (linkage: external, visibility: default, notEligibleToImport: 1, live: 0, dsoLocal: 1, canAutoHide: 0), insts: 1, funcFlags: (readNone: 1, readOnly: 0, noRecurse: 1, returnDoesNotAlias: 0, noInline: 0, alwaysInline: 0, noUnwind: 1, mayThrow: 0, hasUnknownCall: 0, mustBeUnreachable: 0)))) ; guid = 4659178062263029436
^6 = gv: (name: "_ZNK10xalanc_1_827XalanHTMLElementsProperties25InternalElementProperties14findPropertiesEPKt", summaries: (function: (module: ^0, flags: (linkage: external, visibility: default, notEligibleToImport: 1, live: 0, dsoLocal: 1, canAutoHide: 0), insts: 37, calls: ((callee: ^3, relbf: 2955)), refs: (^10)))) ; guid = 5438333402469230934
^7 = gv: (name: "_ZN10xalanc_1_827XalanHTMLElementsProperties16s_lastPropertiesE", summaries: (variable: (module: ^0, flags: (linkage: external, visibility: default, notEligibleToImport: 1, live: 0, dsoLocal: 1, canAutoHide: 0), varFlags: (readonly: 1, writeonly: 0, constant: 1), refs: (^11)))) ; guid = 7002400453418908728
^8 = gv: (name: "_ZN10xalanc_1_827XalanHTMLElementsPropertiesC1Ev", summaries: (alias: (module: ^0, flags: (linkage: external, visibility: default, notEligibleToImport: 1, live: 0, dsoLocal: 1, canAutoHide: 0), aliasee: ^5))) ; guid = 7594726653736483693
^9 = gv: (name: "_ZN10xalanc_1_827XalanHTMLElementsProperties4findEPKt", summaries: (function: (module: ^0, flags: (linkage: external, visibility: default, notEligibleToImport: 1, live: 0, dsoLocal: 1, canAutoHide: 0), insts: 46, calls: ((callee: ^3, relbf: 5088)), refs: (^11)))) ; guid = 7972464634142313849
^10 = gv: (name: "_ZN10xalanc_1_827XalanHTMLElementsProperties25InternalElementProperties17s_dummyPropertiesE", summaries: (variable: (module: ^0, flags: (linkage: external, visibility: default, notEligibleToImport: 1, live: 0, dsoLocal: 1, canAutoHide: 0), varFlags: (readonly: 1, writeonly: 0, constant: 1)))) ; guid = 10128303769008457640
^11 = gv: (name: "_ZN10xalanc_1_827XalanHTMLElementsProperties19s_elementPropertiesE", summaries: (variable: (module: ^0, flags: (linkage: external, visibility: default, notEligibleToImport: 1, live: 0, dsoLocal: 1, canAutoHide: 0), varFlags: (readonly: 1, writeonly: 0, constant: 1)))) ; guid = 16965415723191132121
^12 = flags: 8
^13 = blockcount: 0
