; ModuleID = 'XercesXPath.cpp'
source_filename = "XercesXPath.cpp"
target datalayout = "e-m:e-p270:32:32-p271:32:32-p272:64:64-i64:64-f80:128-n8:16:32:64-S128"
target triple = "x86_64-unknown-linux-gnu"

%"class.xercesc_2_5::XProtoType" = type { ptr, ptr }
%"class.xercesc_2_5::ValueVectorOf" = type { i8, i32, i32, ptr, ptr }
%"class.xercesc_2_5::XercesNodeTest" = type { %"class.xercesc_2_5::XSerializable", i16, ptr }
%"class.xercesc_2_5::XSerializable" = type { ptr }
%"class.xercesc_2_5::QName" = type { %"class.xercesc_2_5::XSerializable", ptr, ptr, i32, ptr, i32, ptr, i32, i32 }
%"class.xercesc_2_5::XercesStep" = type { %"class.xercesc_2_5::XSerializable", i16, ptr }
%"class.xercesc_2_5::XercesLocationPath" = type { %"class.xercesc_2_5::XSerializable", ptr }
%"class.xercesc_2_5::BaseRefVectorOf" = type { ptr, i8, i32, i32, ptr, ptr }
%"class.xercesc_2_5::XercesXPath" = type { %"class.xercesc_2_5::XSerializable", i32, ptr, ptr, ptr }
%"class.xercesc_2_5::XPathScannerForSchema" = type { %"class.xercesc_2_5::XPathScanner" }
%"class.xercesc_2_5::XPathScanner" = type { ptr, i32, i32, i32, i32, i32, i32, i32, i32, i32, i32, i32, i32, i32, i32, i32, i32, i32, i32, i32, i32, i32, ptr }
%"class.xercesc_2_5::BaseRefVectorOf.1" = type { ptr, i8, i32, i32, ptr, ptr }
%"class.xercesc_2_5::NamespaceScope" = type { i32, i32, i32, %"class.xercesc_2_5::XMLStringPool", ptr, ptr }
%"class.xercesc_2_5::XMLStringPool" = type { %"class.xercesc_2_5::XSerializable", ptr, ptr, ptr, i32, i32 }
%"class.xercesc_2_5::XMLBuffer" = type { i8, i32, i32, ptr, ptr }
%"class.xercesc_2_5::XMLException" = type { ptr, i32, ptr, i32, ptr, ptr }

$_ZN11xercesc_2_512XPathScanner8addTokenEPNS_13ValueVectorOfIiEEi = comdat any

$_ZN11xercesc_2_513ValueVectorOfIiE10addElementERKi = comdat any

$__clang_call_terminate = comdat any

$_ZN11xercesc_2_514XPathExceptionC2EPKcjNS_10XMLExcepts5CodesEPNS_13MemoryManagerE = comdat any

$_ZN11xercesc_2_514XPathExceptionC2EPKcjNS_10XMLExcepts5CodesEPKtS6_S6_S6_PNS_13MemoryManagerE = comdat any

$_ZN11xercesc_2_516RuntimeExceptionC2EPKcjNS_10XMLExcepts5CodesEPNS_13MemoryManagerE = comdat any

$_ZN11xercesc_2_514XercesNodeTestD2Ev = comdat any

$_ZN11xercesc_2_514XercesNodeTestD0Ev = comdat any

$_ZN11xercesc_2_510XercesStepD2Ev = comdat any

$_ZN11xercesc_2_510XercesStepD0Ev = comdat any

$_ZN11xercesc_2_518XercesLocationPathD2Ev = comdat any

$_ZN11xercesc_2_518XercesLocationPathD0Ev = comdat any

$_ZN11xercesc_2_512XPathScannerD2Ev = comdat any

$_ZN11xercesc_2_512XPathScannerD0Ev = comdat any

$_ZN11xercesc_2_521XPathScannerForSchemaD0Ev = comdat any

$_ZN11xercesc_2_514XPathExceptionD0Ev = comdat any

$_ZNK11xercesc_2_514XPathException7getTypeEv = comdat any

$_ZNK11xercesc_2_514XPathException9duplicateEv = comdat any

$_ZN11xercesc_2_516RuntimeExceptionD0Ev = comdat any

$_ZNK11xercesc_2_516RuntimeException7getTypeEv = comdat any

$_ZNK11xercesc_2_516RuntimeException9duplicateEv = comdat any

$_ZN11xercesc_2_530ArrayIndexOutOfBoundsExceptionC2EPKcjNS_10XMLExcepts5CodesEPNS_13MemoryManagerE = comdat any

$_ZN11xercesc_2_530ArrayIndexOutOfBoundsExceptionD0Ev = comdat any

$_ZNK11xercesc_2_530ArrayIndexOutOfBoundsException7getTypeEv = comdat any

$_ZNK11xercesc_2_530ArrayIndexOutOfBoundsException9duplicateEv = comdat any

$_ZN11xercesc_2_511RefVectorOfINS_10XercesStepEED2Ev = comdat any

$_ZN11xercesc_2_511RefVectorOfINS_10XercesStepEED0Ev = comdat any

$_ZN11xercesc_2_515BaseRefVectorOfINS_10XercesStepEE12setElementAtEPS1_j = comdat any

$_ZN11xercesc_2_515BaseRefVectorOfINS_10XercesStepEE17removeAllElementsEv = comdat any

$_ZN11xercesc_2_515BaseRefVectorOfINS_10XercesStepEE15removeElementAtEj = comdat any

$_ZN11xercesc_2_515BaseRefVectorOfINS_10XercesStepEE17removeLastElementEv = comdat any

$_ZN11xercesc_2_515BaseRefVectorOfINS_10XercesStepEE7cleanupEv = comdat any

$_ZN11xercesc_2_515BaseRefVectorOfINS_10XercesStepEED2Ev = comdat any

$_ZN11xercesc_2_515BaseRefVectorOfINS_10XercesStepEED0Ev = comdat any

$_ZN11xercesc_2_511RefVectorOfINS_18XercesLocationPathEED2Ev = comdat any

$_ZN11xercesc_2_511RefVectorOfINS_18XercesLocationPathEED0Ev = comdat any

$_ZN11xercesc_2_515BaseRefVectorOfINS_18XercesLocationPathEE12setElementAtEPS1_j = comdat any

$_ZN11xercesc_2_515BaseRefVectorOfINS_18XercesLocationPathEE17removeAllElementsEv = comdat any

$_ZN11xercesc_2_515BaseRefVectorOfINS_18XercesLocationPathEE15removeElementAtEj = comdat any

$_ZN11xercesc_2_515BaseRefVectorOfINS_18XercesLocationPathEE17removeLastElementEv = comdat any

$_ZN11xercesc_2_515BaseRefVectorOfINS_18XercesLocationPathEE7cleanupEv = comdat any

$_ZN11xercesc_2_515BaseRefVectorOfINS_18XercesLocationPathEED2Ev = comdat any

$_ZN11xercesc_2_515BaseRefVectorOfINS_18XercesLocationPathEED0Ev = comdat any

$_ZTSN11xercesc_2_520OutOfMemoryExceptionE = comdat any

$_ZTSN11xercesc_2_57XMemoryE = comdat any

$_ZTIN11xercesc_2_57XMemoryE = comdat any

$_ZTIN11xercesc_2_520OutOfMemoryExceptionE = comdat any

$_ZTSN11xercesc_2_514XPathExceptionE = comdat any

$_ZTIN11xercesc_2_514XPathExceptionE = comdat any

$_ZTVN11xercesc_2_512XPathScannerE = comdat any

$_ZTSN11xercesc_2_516RuntimeExceptionE = comdat any

$_ZTIN11xercesc_2_516RuntimeExceptionE = comdat any

$_ZTSN11xercesc_2_513XSerializableE = comdat any

$_ZTIN11xercesc_2_513XSerializableE = comdat any

$_ZTSN11xercesc_2_512XPathScannerE = comdat any

$_ZTIN11xercesc_2_512XPathScannerE = comdat any

$_ZTVN11xercesc_2_514XPathExceptionE = comdat any

$_ZTVN11xercesc_2_516RuntimeExceptionE = comdat any

$_ZTSN11xercesc_2_530ArrayIndexOutOfBoundsExceptionE = comdat any

$_ZTIN11xercesc_2_530ArrayIndexOutOfBoundsExceptionE = comdat any

$_ZTVN11xercesc_2_530ArrayIndexOutOfBoundsExceptionE = comdat any

$_ZTVN11xercesc_2_511RefVectorOfINS_10XercesStepEEE = comdat any

$_ZTSN11xercesc_2_511RefVectorOfINS_10XercesStepEEE = comdat any

$_ZTSN11xercesc_2_515BaseRefVectorOfINS_10XercesStepEEE = comdat any

$_ZTIN11xercesc_2_515BaseRefVectorOfINS_10XercesStepEEE = comdat any

$_ZTIN11xercesc_2_511RefVectorOfINS_10XercesStepEEE = comdat any

$_ZTVN11xercesc_2_515BaseRefVectorOfINS_10XercesStepEEE = comdat any

$_ZTVN11xercesc_2_511RefVectorOfINS_18XercesLocationPathEEE = comdat any

$_ZTSN11xercesc_2_511RefVectorOfINS_18XercesLocationPathEEE = comdat any

$_ZTSN11xercesc_2_515BaseRefVectorOfINS_18XercesLocationPathEEE = comdat any

$_ZTIN11xercesc_2_515BaseRefVectorOfINS_18XercesLocationPathEEE = comdat any

$_ZTIN11xercesc_2_511RefVectorOfINS_18XercesLocationPathEEE = comdat any

$_ZTVN11xercesc_2_515BaseRefVectorOfINS_18XercesLocationPathEEE = comdat any

@_ZN11xercesc_2_512XPathScanner13fASCIICharMapE = dso_local local_unnamed_addr constant [128 x i8] c"\00\00\00\00\00\00\00\00\00\02\02\00\00\02\00\00\00\00\00\00\00\00\00\00\00\00\00\00\00\00\00\00\02\03\04\01\05\01\01\04\06\07\08\09\0A\0B\0C\0D\0E\0E\0E\0E\0E\0E\0E\0E\0E\0E\0F\01\10\11\12\01\13\14\14\14\14\14\14\14\14\14\14\14\14\14\14\14\14\14\14\14\14\14\14\14\14\14\14\15\01\16\01\17\01\14\14\14\14\14\14\14\14\14\14\14\14\14\14\14\14\14\14\14\14\14\14\14\14\14\14\01\18\01\01\01", align 16
@_ZTVN11xercesc_2_514XercesNodeTestE = dso_local unnamed_addr constant { [7 x ptr] } { [7 x ptr] [ptr null, ptr @_ZTIN11xercesc_2_514XercesNodeTestE, ptr @_ZN11xercesc_2_514XercesNodeTestD2Ev, ptr @_ZN11xercesc_2_514XercesNodeTestD0Ev, ptr @_ZNK11xercesc_2_514XercesNodeTest14isSerializableEv, ptr @_ZN11xercesc_2_514XercesNodeTest9serializeERNS_16XSerializeEngineE, ptr @_ZNK11xercesc_2_514XercesNodeTest12getProtoTypeEv] }, align 8, !type !0, !type !1, !type !2, !type !3, !type !4, !type !5, !type !6, !type !7
@.str = private unnamed_addr constant [15 x i8] c"XercesNodeTest\00", align 1
@_ZN11xercesc_2_514XercesNodeTest19classXercesNodeTestE = dso_local global %"class.xercesc_2_5::XProtoType" { ptr @.str, ptr @_ZN11xercesc_2_514XercesNodeTest12createObjectEPNS_13MemoryManagerE }, align 8
@_ZTVN11xercesc_2_510XercesStepE = dso_local unnamed_addr constant { [7 x ptr] } { [7 x ptr] [ptr null, ptr @_ZTIN11xercesc_2_510XercesStepE, ptr @_ZN11xercesc_2_510XercesStepD2Ev, ptr @_ZN11xercesc_2_510XercesStepD0Ev, ptr @_ZNK11xercesc_2_510XercesStep14isSerializableEv, ptr @_ZN11xercesc_2_510XercesStep9serializeERNS_16XSerializeEngineE, ptr @_ZNK11xercesc_2_510XercesStep12getProtoTypeEv] }, align 8, !type !8, !type !9, !type !10, !type !11, !type !0, !type !1, !type !2, !type !3
@.str.1 = private unnamed_addr constant [11 x i8] c"XercesStep\00", align 1
@_ZN11xercesc_2_510XercesStep15classXercesStepE = dso_local global %"class.xercesc_2_5::XProtoType" { ptr @.str.1, ptr @_ZN11xercesc_2_510XercesStep12createObjectEPNS_13MemoryManagerE }, align 8
@_ZTVN11xercesc_2_518XercesLocationPathE = dso_local unnamed_addr constant { [7 x ptr] } { [7 x ptr] [ptr null, ptr @_ZTIN11xercesc_2_518XercesLocationPathE, ptr @_ZN11xercesc_2_518XercesLocationPathD2Ev, ptr @_ZN11xercesc_2_518XercesLocationPathD0Ev, ptr @_ZNK11xercesc_2_518XercesLocationPath14isSerializableEv, ptr @_ZN11xercesc_2_518XercesLocationPath9serializeERNS_16XSerializeEngineE, ptr @_ZNK11xercesc_2_518XercesLocationPath12getProtoTypeEv] }, align 8, !type !0, !type !1, !type !2, !type !3, !type !12, !type !13, !type !14, !type !15
@.str.2 = private unnamed_addr constant [19 x i8] c"XercesLocationPath\00", align 1
@_ZN11xercesc_2_518XercesLocationPath23classXercesLocationPathE = dso_local global %"class.xercesc_2_5::XProtoType" { ptr @.str.2, ptr @_ZN11xercesc_2_518XercesLocationPath12createObjectEPNS_13MemoryManagerE }, align 8
@_ZTVN11xercesc_2_511XercesXPathE = dso_local unnamed_addr constant { [7 x ptr] } { [7 x ptr] [ptr null, ptr @_ZTIN11xercesc_2_511XercesXPathE, ptr @_ZN11xercesc_2_511XercesXPathD2Ev, ptr @_ZN11xercesc_2_511XercesXPathD0Ev, ptr @_ZNK11xercesc_2_511XercesXPath14isSerializableEv, ptr @_ZN11xercesc_2_511XercesXPath9serializeERNS_16XSerializeEngineE, ptr @_ZNK11xercesc_2_511XercesXPath12getProtoTypeEv] }, align 8, !type !16, !type !17, !type !18, !type !19, !type !0, !type !1, !type !2, !type !3
@_ZTVN10__cxxabiv120__si_class_type_infoE = external global ptr
@_ZTSN11xercesc_2_520OutOfMemoryExceptionE = linkonce_odr dso_local constant [38 x i8] c"N11xercesc_2_520OutOfMemoryExceptionE\00", comdat, align 1
@_ZTVN10__cxxabiv117__class_type_infoE = external global ptr
@_ZTSN11xercesc_2_57XMemoryE = linkonce_odr dso_local constant [24 x i8] c"N11xercesc_2_57XMemoryE\00", comdat, align 1
@_ZTIN11xercesc_2_57XMemoryE = linkonce_odr dso_local constant { ptr, ptr } { ptr getelementptr inbounds (ptr, ptr @_ZTVN10__cxxabiv117__class_type_infoE, i64 2), ptr @_ZTSN11xercesc_2_57XMemoryE }, comdat, align 8
@_ZTIN11xercesc_2_520OutOfMemoryExceptionE = linkonce_odr dso_local constant { ptr, ptr, ptr } { ptr getelementptr inbounds (ptr, ptr @_ZTVN10__cxxabiv120__si_class_type_infoE, i64 2), ptr @_ZTSN11xercesc_2_520OutOfMemoryExceptionE, ptr @_ZTIN11xercesc_2_57XMemoryE }, comdat, align 8
@.str.3 = private unnamed_addr constant [16 x i8] c"XercesXPath.cpp\00", align 1
@_ZTSN11xercesc_2_514XPathExceptionE = linkonce_odr dso_local constant [32 x i8] c"N11xercesc_2_514XPathExceptionE\00", comdat, align 1
@_ZTIN11xercesc_2_512XMLExceptionE = external constant ptr
@_ZTIN11xercesc_2_514XPathExceptionE = linkonce_odr dso_local constant { ptr, ptr, ptr } { ptr getelementptr inbounds (ptr, ptr @_ZTVN10__cxxabiv120__si_class_type_infoE, i64 2), ptr @_ZTSN11xercesc_2_514XPathExceptionE, ptr @_ZTIN11xercesc_2_512XMLExceptionE }, comdat, align 8
@_ZN11xercesc_2_56XMLUni15fgZeroLenStringE = external constant [0 x i16], align 2
@.str.4 = private unnamed_addr constant [12 x i8] c"XercesXPath\00", align 1
@_ZN11xercesc_2_511XercesXPath16classXercesXPathE = dso_local global %"class.xercesc_2_5::XProtoType" { ptr @.str.4, ptr @_ZN11xercesc_2_511XercesXPath12createObjectEPNS_13MemoryManagerE }, align 8
@_ZN11xercesc_2_516XSerializeEngine16defaultBufferLenE = external global i32, align 4
@_ZN11xercesc_2_516XSerializeEngine14defaultDataLenE = external global i32, align 4
@_ZTVN11xercesc_2_512XPathScannerE = linkonce_odr dso_local unnamed_addr constant { [5 x ptr] } { [5 x ptr] [ptr null, ptr @_ZTIN11xercesc_2_512XPathScannerE, ptr @_ZN11xercesc_2_512XPathScannerD2Ev, ptr @_ZN11xercesc_2_512XPathScannerD0Ev, ptr @_ZN11xercesc_2_512XPathScanner8addTokenEPNS_13ValueVectorOfIiEEi] }, comdat, align 8, !type !20, !type !21
@_ZN11xercesc_2_512XPathSymbols12fgSYMBOL_ANDE = external constant [0 x i16], align 2
@_ZN11xercesc_2_512XPathSymbols11fgSYMBOL_ORE = external constant [0 x i16], align 2
@_ZN11xercesc_2_512XPathSymbols12fgSYMBOL_MODE = external constant [0 x i16], align 2
@_ZN11xercesc_2_512XPathSymbols12fgSYMBOL_DIVE = external constant [0 x i16], align 2
@_ZN11xercesc_2_512XPathSymbols16fgSYMBOL_COMMENTE = external constant [0 x i16], align 2
@_ZN11xercesc_2_512XPathSymbols13fgSYMBOL_TEXTE = external constant [0 x i16], align 2
@_ZN11xercesc_2_512XPathSymbols11fgSYMBOL_PIE = external constant [0 x i16], align 2
@_ZN11xercesc_2_512XPathSymbols13fgSYMBOL_NODEE = external constant [0 x i16], align 2
@_ZN11xercesc_2_512XPathSymbols17fgSYMBOL_ANCESTORE = external constant [0 x i16], align 2
@_ZN11xercesc_2_512XPathSymbols25fgSYMBOL_ANCESTOR_OR_SELFE = external constant [0 x i16], align 2
@_ZN11xercesc_2_512XPathSymbols18fgSYMBOL_ATTRIBUTEE = external constant [0 x i16], align 2
@_ZN11xercesc_2_512XPathSymbols14fgSYMBOL_CHILDE = external constant [0 x i16], align 2
@_ZN11xercesc_2_512XPathSymbols19fgSYMBOL_DESCENDANTE = external constant [0 x i16], align 2
@_ZN11xercesc_2_512XPathSymbols27fgSYMBOL_DESCENDANT_OR_SELFE = external constant [0 x i16], align 2
@_ZN11xercesc_2_512XPathSymbols18fgSYMBOL_FOLLOWINGE = external constant [0 x i16], align 2
@_ZN11xercesc_2_512XPathSymbols26fgSYMBOL_FOLLOWING_SIBLINGE = external constant [0 x i16], align 2
@_ZN11xercesc_2_512XPathSymbols18fgSYMBOL_NAMESPACEE = external constant [0 x i16], align 2
@_ZN11xercesc_2_512XPathSymbols15fgSYMBOL_PARENTE = external constant [0 x i16], align 2
@_ZN11xercesc_2_512XPathSymbols18fgSYMBOL_PRECEDINGE = external constant [0 x i16], align 2
@_ZN11xercesc_2_512XPathSymbols26fgSYMBOL_PRECEDING_SIBLINGE = external constant [0 x i16], align 2
@_ZN11xercesc_2_512XPathSymbols13fgSYMBOL_SELFE = external constant [0 x i16], align 2
@_ZTSN11xercesc_2_516RuntimeExceptionE = linkonce_odr dso_local constant [34 x i8] c"N11xercesc_2_516RuntimeExceptionE\00", comdat, align 1
@_ZTIN11xercesc_2_516RuntimeExceptionE = linkonce_odr dso_local constant { ptr, ptr, ptr } { ptr getelementptr inbounds (ptr, ptr @_ZTVN10__cxxabiv120__si_class_type_infoE, i64 2), ptr @_ZTSN11xercesc_2_516RuntimeExceptionE, ptr @_ZTIN11xercesc_2_512XMLExceptionE }, comdat, align 8
@_ZTVN11xercesc_2_521XPathScannerForSchemaE = dso_local unnamed_addr constant { [5 x ptr] } { [5 x ptr] [ptr null, ptr @_ZTIN11xercesc_2_521XPathScannerForSchemaE, ptr @_ZN11xercesc_2_512XPathScannerD2Ev, ptr @_ZN11xercesc_2_521XPathScannerForSchemaD0Ev, ptr @_ZN11xercesc_2_521XPathScannerForSchema8addTokenEPNS_13ValueVectorOfIiEEi] }, align 8, !type !20, !type !21, !type !22, !type !23
@_ZTVN10__cxxabiv121__vmi_class_type_infoE = external global ptr
@_ZTSN11xercesc_2_514XercesNodeTestE = dso_local constant [32 x i8] c"N11xercesc_2_514XercesNodeTestE\00", align 1
@_ZTSN11xercesc_2_513XSerializableE = linkonce_odr dso_local constant [31 x i8] c"N11xercesc_2_513XSerializableE\00", comdat, align 1
@_ZTIN11xercesc_2_513XSerializableE = linkonce_odr dso_local constant { ptr, ptr } { ptr getelementptr inbounds (ptr, ptr @_ZTVN10__cxxabiv117__class_type_infoE, i64 2), ptr @_ZTSN11xercesc_2_513XSerializableE }, comdat, align 8
@_ZTIN11xercesc_2_514XercesNodeTestE = dso_local constant { ptr, ptr, i32, i32, ptr, i64, ptr, i64 } { ptr getelementptr inbounds (ptr, ptr @_ZTVN10__cxxabiv121__vmi_class_type_infoE, i64 2), ptr @_ZTSN11xercesc_2_514XercesNodeTestE, i32 0, i32 2, ptr @_ZTIN11xercesc_2_513XSerializableE, i64 2, ptr @_ZTIN11xercesc_2_57XMemoryE, i64 2 }, align 8
@_ZTSN11xercesc_2_510XercesStepE = dso_local constant [28 x i8] c"N11xercesc_2_510XercesStepE\00", align 1
@_ZTIN11xercesc_2_510XercesStepE = dso_local constant { ptr, ptr, i32, i32, ptr, i64, ptr, i64 } { ptr getelementptr inbounds (ptr, ptr @_ZTVN10__cxxabiv121__vmi_class_type_infoE, i64 2), ptr @_ZTSN11xercesc_2_510XercesStepE, i32 0, i32 2, ptr @_ZTIN11xercesc_2_513XSerializableE, i64 2, ptr @_ZTIN11xercesc_2_57XMemoryE, i64 2 }, align 8
@_ZTSN11xercesc_2_518XercesLocationPathE = dso_local constant [36 x i8] c"N11xercesc_2_518XercesLocationPathE\00", align 1
@_ZTIN11xercesc_2_518XercesLocationPathE = dso_local constant { ptr, ptr, i32, i32, ptr, i64, ptr, i64 } { ptr getelementptr inbounds (ptr, ptr @_ZTVN10__cxxabiv121__vmi_class_type_infoE, i64 2), ptr @_ZTSN11xercesc_2_518XercesLocationPathE, i32 0, i32 2, ptr @_ZTIN11xercesc_2_513XSerializableE, i64 2, ptr @_ZTIN11xercesc_2_57XMemoryE, i64 2 }, align 8
@_ZTSN11xercesc_2_512XPathScannerE = linkonce_odr dso_local constant [30 x i8] c"N11xercesc_2_512XPathScannerE\00", comdat, align 1
@_ZTIN11xercesc_2_512XPathScannerE = linkonce_odr dso_local constant { ptr, ptr, ptr } { ptr getelementptr inbounds (ptr, ptr @_ZTVN10__cxxabiv120__si_class_type_infoE, i64 2), ptr @_ZTSN11xercesc_2_512XPathScannerE, ptr @_ZTIN11xercesc_2_57XMemoryE }, comdat, align 8
@_ZTSN11xercesc_2_521XPathScannerForSchemaE = dso_local constant [39 x i8] c"N11xercesc_2_521XPathScannerForSchemaE\00", align 1
@_ZTIN11xercesc_2_521XPathScannerForSchemaE = dso_local constant { ptr, ptr, ptr } { ptr getelementptr inbounds (ptr, ptr @_ZTVN10__cxxabiv120__si_class_type_infoE, i64 2), ptr @_ZTSN11xercesc_2_521XPathScannerForSchemaE, ptr @_ZTIN11xercesc_2_512XPathScannerE }, align 8
@_ZTSN11xercesc_2_511XercesXPathE = dso_local constant [29 x i8] c"N11xercesc_2_511XercesXPathE\00", align 1
@_ZTIN11xercesc_2_511XercesXPathE = dso_local constant { ptr, ptr, i32, i32, ptr, i64, ptr, i64 } { ptr getelementptr inbounds (ptr, ptr @_ZTVN10__cxxabiv121__vmi_class_type_infoE, i64 2), ptr @_ZTSN11xercesc_2_511XercesXPathE, i32 0, i32 2, ptr @_ZTIN11xercesc_2_513XSerializableE, i64 2, ptr @_ZTIN11xercesc_2_57XMemoryE, i64 2 }, align 8
@_ZN11xercesc_2_55QName10classQNameE = external global %"class.xercesc_2_5::XProtoType", align 8
@_ZTVN11xercesc_2_514XPathExceptionE = linkonce_odr dso_local unnamed_addr constant { [6 x ptr] } { [6 x ptr] [ptr null, ptr @_ZTIN11xercesc_2_514XPathExceptionE, ptr @_ZN11xercesc_2_512XMLExceptionD2Ev, ptr @_ZN11xercesc_2_514XPathExceptionD0Ev, ptr @_ZNK11xercesc_2_514XPathException7getTypeEv, ptr @_ZNK11xercesc_2_514XPathException9duplicateEv] }, comdat, align 8, !type !24, !type !25, !type !26, !type !27, !type !28, !type !29
@_ZN11xercesc_2_56XMLUni21fgXPathException_NameE = external constant [0 x i16], align 2
@_ZN11xercesc_2_510XMLChar1_019fgCharCharsTable1_0E = external local_unnamed_addr global [65536 x i8], align 16
@_ZTVN11xercesc_2_516RuntimeExceptionE = linkonce_odr dso_local unnamed_addr constant { [6 x ptr] } { [6 x ptr] [ptr null, ptr @_ZTIN11xercesc_2_516RuntimeExceptionE, ptr @_ZN11xercesc_2_512XMLExceptionD2Ev, ptr @_ZN11xercesc_2_516RuntimeExceptionD0Ev, ptr @_ZNK11xercesc_2_516RuntimeException7getTypeEv, ptr @_ZNK11xercesc_2_516RuntimeException9duplicateEv] }, comdat, align 8, !type !24, !type !25, !type !26, !type !30, !type !31, !type !32
@_ZN11xercesc_2_56XMLUni23fgRuntimeException_NameE = external constant [0 x i16], align 2
@.str.5 = private unnamed_addr constant [33 x i8] c"./xercesc/util/BaseRefVectorOf.c\00", align 1
@_ZTSN11xercesc_2_530ArrayIndexOutOfBoundsExceptionE = linkonce_odr dso_local constant [48 x i8] c"N11xercesc_2_530ArrayIndexOutOfBoundsExceptionE\00", comdat, align 1
@_ZTIN11xercesc_2_530ArrayIndexOutOfBoundsExceptionE = linkonce_odr dso_local constant { ptr, ptr, ptr } { ptr getelementptr inbounds (ptr, ptr @_ZTVN10__cxxabiv120__si_class_type_infoE, i64 2), ptr @_ZTSN11xercesc_2_530ArrayIndexOutOfBoundsExceptionE, ptr @_ZTIN11xercesc_2_512XMLExceptionE }, comdat, align 8
@_ZTVN11xercesc_2_530ArrayIndexOutOfBoundsExceptionE = linkonce_odr dso_local unnamed_addr constant { [6 x ptr] } { [6 x ptr] [ptr null, ptr @_ZTIN11xercesc_2_530ArrayIndexOutOfBoundsExceptionE, ptr @_ZN11xercesc_2_512XMLExceptionD2Ev, ptr @_ZN11xercesc_2_530ArrayIndexOutOfBoundsExceptionD0Ev, ptr @_ZNK11xercesc_2_530ArrayIndexOutOfBoundsException7getTypeEv, ptr @_ZNK11xercesc_2_530ArrayIndexOutOfBoundsException9duplicateEv] }, comdat, align 8, !type !24, !type !25, !type !26, !type !33, !type !34, !type !35
@_ZN11xercesc_2_56XMLUni37fgArrayIndexOutOfBoundsException_NameE = external constant [0 x i16], align 2
@_ZTVN11xercesc_2_511RefVectorOfINS_10XercesStepEEE = linkonce_odr dso_local unnamed_addr constant { [9 x ptr] } { [9 x ptr] [ptr null, ptr @_ZTIN11xercesc_2_511RefVectorOfINS_10XercesStepEEE, ptr @_ZN11xercesc_2_511RefVectorOfINS_10XercesStepEED2Ev, ptr @_ZN11xercesc_2_511RefVectorOfINS_10XercesStepEED0Ev, ptr @_ZN11xercesc_2_515BaseRefVectorOfINS_10XercesStepEE12setElementAtEPS1_j, ptr @_ZN11xercesc_2_515BaseRefVectorOfINS_10XercesStepEE17removeAllElementsEv, ptr @_ZN11xercesc_2_515BaseRefVectorOfINS_10XercesStepEE15removeElementAtEj, ptr @_ZN11xercesc_2_515BaseRefVectorOfINS_10XercesStepEE17removeLastElementEv, ptr @_ZN11xercesc_2_515BaseRefVectorOfINS_10XercesStepEE7cleanupEv] }, comdat, align 8, !type !36, !type !37, !type !38, !type !39, !type !40, !type !41, !type !42, !type !43, !type !44, !type !45, !type !46, !type !47
@_ZTSN11xercesc_2_511RefVectorOfINS_10XercesStepEEE = linkonce_odr dso_local constant [47 x i8] c"N11xercesc_2_511RefVectorOfINS_10XercesStepEEE\00", comdat, align 1
@_ZTSN11xercesc_2_515BaseRefVectorOfINS_10XercesStepEEE = linkonce_odr dso_local constant [51 x i8] c"N11xercesc_2_515BaseRefVectorOfINS_10XercesStepEEE\00", comdat, align 1
@_ZTIN11xercesc_2_515BaseRefVectorOfINS_10XercesStepEEE = linkonce_odr dso_local constant { ptr, ptr, ptr } { ptr getelementptr inbounds (ptr, ptr @_ZTVN10__cxxabiv120__si_class_type_infoE, i64 2), ptr @_ZTSN11xercesc_2_515BaseRefVectorOfINS_10XercesStepEEE, ptr @_ZTIN11xercesc_2_57XMemoryE }, comdat, align 8
@_ZTIN11xercesc_2_511RefVectorOfINS_10XercesStepEEE = linkonce_odr dso_local constant { ptr, ptr, ptr } { ptr getelementptr inbounds (ptr, ptr @_ZTVN10__cxxabiv120__si_class_type_infoE, i64 2), ptr @_ZTSN11xercesc_2_511RefVectorOfINS_10XercesStepEEE, ptr @_ZTIN11xercesc_2_515BaseRefVectorOfINS_10XercesStepEEE }, comdat, align 8
@_ZTVN11xercesc_2_515BaseRefVectorOfINS_10XercesStepEEE = linkonce_odr dso_local unnamed_addr constant { [9 x ptr] } { [9 x ptr] [ptr null, ptr @_ZTIN11xercesc_2_515BaseRefVectorOfINS_10XercesStepEEE, ptr @_ZN11xercesc_2_515BaseRefVectorOfINS_10XercesStepEED2Ev, ptr @_ZN11xercesc_2_515BaseRefVectorOfINS_10XercesStepEED0Ev, ptr @_ZN11xercesc_2_515BaseRefVectorOfINS_10XercesStepEE12setElementAtEPS1_j, ptr @_ZN11xercesc_2_515BaseRefVectorOfINS_10XercesStepEE17removeAllElementsEv, ptr @_ZN11xercesc_2_515BaseRefVectorOfINS_10XercesStepEE15removeElementAtEj, ptr @_ZN11xercesc_2_515BaseRefVectorOfINS_10XercesStepEE17removeLastElementEv, ptr @_ZN11xercesc_2_515BaseRefVectorOfINS_10XercesStepEE7cleanupEv] }, comdat, align 8, !type !42, !type !43, !type !44, !type !45, !type !46, !type !47
@_ZTVN11xercesc_2_511RefVectorOfINS_18XercesLocationPathEEE = linkonce_odr dso_local unnamed_addr constant { [9 x ptr] } { [9 x ptr] [ptr null, ptr @_ZTIN11xercesc_2_511RefVectorOfINS_18XercesLocationPathEEE, ptr @_ZN11xercesc_2_511RefVectorOfINS_18XercesLocationPathEED2Ev, ptr @_ZN11xercesc_2_511RefVectorOfINS_18XercesLocationPathEED0Ev, ptr @_ZN11xercesc_2_515BaseRefVectorOfINS_18XercesLocationPathEE12setElementAtEPS1_j, ptr @_ZN11xercesc_2_515BaseRefVectorOfINS_18XercesLocationPathEE17removeAllElementsEv, ptr @_ZN11xercesc_2_515BaseRefVectorOfINS_18XercesLocationPathEE15removeElementAtEj, ptr @_ZN11xercesc_2_515BaseRefVectorOfINS_18XercesLocationPathEE17removeLastElementEv, ptr @_ZN11xercesc_2_515BaseRefVectorOfINS_18XercesLocationPathEE7cleanupEv] }, comdat, align 8, !type !48, !type !49, !type !50, !type !51, !type !52, !type !53, !type !54, !type !55, !type !56, !type !57, !type !58, !type !59
@_ZTSN11xercesc_2_511RefVectorOfINS_18XercesLocationPathEEE = linkonce_odr dso_local constant [55 x i8] c"N11xercesc_2_511RefVectorOfINS_18XercesLocationPathEEE\00", comdat, align 1
@_ZTSN11xercesc_2_515BaseRefVectorOfINS_18XercesLocationPathEEE = linkonce_odr dso_local constant [59 x i8] c"N11xercesc_2_515BaseRefVectorOfINS_18XercesLocationPathEEE\00", comdat, align 1
@_ZTIN11xercesc_2_515BaseRefVectorOfINS_18XercesLocationPathEEE = linkonce_odr dso_local constant { ptr, ptr, ptr } { ptr getelementptr inbounds (ptr, ptr @_ZTVN10__cxxabiv120__si_class_type_infoE, i64 2), ptr @_ZTSN11xercesc_2_515BaseRefVectorOfINS_18XercesLocationPathEEE, ptr @_ZTIN11xercesc_2_57XMemoryE }, comdat, align 8
@_ZTIN11xercesc_2_511RefVectorOfINS_18XercesLocationPathEEE = linkonce_odr dso_local constant { ptr, ptr, ptr } { ptr getelementptr inbounds (ptr, ptr @_ZTVN10__cxxabiv120__si_class_type_infoE, i64 2), ptr @_ZTSN11xercesc_2_511RefVectorOfINS_18XercesLocationPathEEE, ptr @_ZTIN11xercesc_2_515BaseRefVectorOfINS_18XercesLocationPathEEE }, comdat, align 8
@_ZTVN11xercesc_2_515BaseRefVectorOfINS_18XercesLocationPathEEE = linkonce_odr dso_local unnamed_addr constant { [9 x ptr] } { [9 x ptr] [ptr null, ptr @_ZTIN11xercesc_2_515BaseRefVectorOfINS_18XercesLocationPathEEE, ptr @_ZN11xercesc_2_515BaseRefVectorOfINS_18XercesLocationPathEED2Ev, ptr @_ZN11xercesc_2_515BaseRefVectorOfINS_18XercesLocationPathEED0Ev, ptr @_ZN11xercesc_2_515BaseRefVectorOfINS_18XercesLocationPathEE12setElementAtEPS1_j, ptr @_ZN11xercesc_2_515BaseRefVectorOfINS_18XercesLocationPathEE17removeAllElementsEv, ptr @_ZN11xercesc_2_515BaseRefVectorOfINS_18XercesLocationPathEE15removeElementAtEj, ptr @_ZN11xercesc_2_515BaseRefVectorOfINS_18XercesLocationPathEE17removeLastElementEv, ptr @_ZN11xercesc_2_515BaseRefVectorOfINS_18XercesLocationPathEE7cleanupEv] }, comdat, align 8, !type !54, !type !55, !type !56, !type !57, !type !58, !type !59
@.str.6 = private unnamed_addr constant [31 x i8] c"./xercesc/util/ValueVectorOf.c\00", align 1

@_ZN11xercesc_2_514XercesNodeTestC1EsPNS_13MemoryManagerE = dso_local unnamed_addr alias void (ptr, i16, ptr), ptr @_ZN11xercesc_2_514XercesNodeTestC2EsPNS_13MemoryManagerE
@_ZN11xercesc_2_514XercesNodeTestC1EPKNS_5QNameE = dso_local unnamed_addr alias void (ptr, ptr), ptr @_ZN11xercesc_2_514XercesNodeTestC2EPKNS_5QNameE
@_ZN11xercesc_2_514XercesNodeTestC1EPKtjPNS_13MemoryManagerE = dso_local unnamed_addr alias void (ptr, ptr, i32, ptr), ptr @_ZN11xercesc_2_514XercesNodeTestC2EPKtjPNS_13MemoryManagerE
@_ZN11xercesc_2_514XercesNodeTestC1ERKS0_ = dso_local unnamed_addr alias void (ptr, ptr), ptr @_ZN11xercesc_2_514XercesNodeTestC2ERKS0_
@_ZN11xercesc_2_514XercesNodeTestC1EPNS_13MemoryManagerE = dso_local unnamed_addr alias void (ptr, ptr), ptr @_ZN11xercesc_2_514XercesNodeTestC2EPNS_13MemoryManagerE
@_ZN11xercesc_2_510XercesStepC1EtPNS_14XercesNodeTestE = dso_local unnamed_addr alias void (ptr, i16, ptr), ptr @_ZN11xercesc_2_510XercesStepC2EtPNS_14XercesNodeTestE
@_ZN11xercesc_2_510XercesStepC1ERKS0_ = dso_local unnamed_addr alias void (ptr, ptr), ptr @_ZN11xercesc_2_510XercesStepC2ERKS0_
@_ZN11xercesc_2_510XercesStepC1EPNS_13MemoryManagerE = dso_local unnamed_addr alias void (ptr, ptr), ptr @_ZN11xercesc_2_510XercesStepC2EPNS_13MemoryManagerE
@_ZN11xercesc_2_518XercesLocationPathC1EPNS_11RefVectorOfINS_10XercesStepEEE = dso_local unnamed_addr alias void (ptr, ptr), ptr @_ZN11xercesc_2_518XercesLocationPathC2EPNS_11RefVectorOfINS_10XercesStepEEE
@_ZN11xercesc_2_518XercesLocationPathC1EPNS_13MemoryManagerE = dso_local unnamed_addr alias void (ptr, ptr), ptr @_ZN11xercesc_2_518XercesLocationPathC2EPNS_13MemoryManagerE
@_ZN11xercesc_2_511XercesXPathC1EPKtPNS_13XMLStringPoolEPNS_14NamespaceScopeEjbPNS_13MemoryManagerE = dso_local unnamed_addr alias void (ptr, ptr, ptr, ptr, i32, i1, ptr), ptr @_ZN11xercesc_2_511XercesXPathC2EPKtPNS_13XMLStringPoolEPNS_14NamespaceScopeEjbPNS_13MemoryManagerE
@_ZN11xercesc_2_511XercesXPathD1Ev = dso_local unnamed_addr alias void (ptr), ptr @_ZN11xercesc_2_511XercesXPathD2Ev
@_ZN11xercesc_2_511XercesXPathC1EPNS_13MemoryManagerE = dso_local unnamed_addr alias void (ptr, ptr), ptr @_ZN11xercesc_2_511XercesXPathC2EPNS_13MemoryManagerE
@_ZN11xercesc_2_512XPathScannerC1EPNS_13XMLStringPoolE = dso_local unnamed_addr alias void (ptr, ptr), ptr @_ZN11xercesc_2_512XPathScannerC2EPNS_13XMLStringPoolE
@_ZN11xercesc_2_521XPathScannerForSchemaC1EPNS_13XMLStringPoolE = dso_local unnamed_addr alias void (ptr, ptr), ptr @_ZN11xercesc_2_521XPathScannerForSchemaC2EPNS_13XMLStringPoolE

declare i32 @__gxx_personality_v0(...)

; Function Attrs: inlinehint uwtable
define linkonce_odr dso_local void @_ZN11xercesc_2_512XPathScanner8addTokenEPNS_13ValueVectorOfIiEEi(ptr noundef nonnull align 8 dereferenceable(104) %0, ptr noundef %1, i32 noundef %2) unnamed_addr #0 comdat align 2 {
  %4 = getelementptr inbounds %"class.xercesc_2_5::ValueVectorOf", ptr %1, i64 0, i32 1
  %5 = load i32, ptr %4, align 4, !tbaa !67
  %6 = add i32 %5, 1
  %7 = getelementptr inbounds %"class.xercesc_2_5::ValueVectorOf", ptr %1, i64 0, i32 2
  %8 = load i32, ptr %7, align 8, !tbaa !74
  %9 = icmp ult i32 %6, %8
  br i1 %9, label %10, label %13

10:                                               ; preds = %3
  %11 = getelementptr inbounds %"class.xercesc_2_5::ValueVectorOf", ptr %1, i64 0, i32 3
  %12 = load ptr, ptr %11, align 8, !tbaa !75
  br label %45

13:                                               ; preds = %3
  %14 = uitofp i32 %5 to double
  %15 = fmul reassoc nnan ninf nsz arcp afn double %14, 1.250000e+00
  %16 = fptoui double %15 to i32
  %17 = tail call i32 @llvm.umax.i32(i32 %6, i32 %16)
  %18 = getelementptr inbounds %"class.xercesc_2_5::ValueVectorOf", ptr %1, i64 0, i32 4
  %19 = load ptr, ptr %18, align 8, !tbaa !76
  %20 = zext i32 %17 to i64
  %21 = shl nuw nsw i64 %20, 2
  %22 = load ptr, ptr %19, align 8, !tbaa !77
  %23 = getelementptr inbounds ptr, ptr %22, i64 2
  %24 = load ptr, ptr %23, align 8
  %25 = tail call noundef ptr %24(ptr noundef nonnull align 8 dereferenceable(8) %19, i64 noundef %21)
  %26 = load i32, ptr %4, align 4, !tbaa !67
  %27 = icmp eq i32 %26, 0
  %28 = getelementptr inbounds %"class.xercesc_2_5::ValueVectorOf", ptr %1, i64 0, i32 3
  %29 = load ptr, ptr %28, align 8, !tbaa !75
  br i1 %27, label %30, label %36

30:                                               ; preds = %36, %13
  %31 = load ptr, ptr %18, align 8, !tbaa !76
  %32 = load ptr, ptr %31, align 8, !tbaa !77
  %33 = getelementptr inbounds ptr, ptr %32, i64 3
  %34 = load ptr, ptr %33, align 8
  tail call void %34(ptr noundef nonnull align 8 dereferenceable(8) %31, ptr noundef %29)
  store ptr %25, ptr %28, align 8, !tbaa !75
  store i32 %17, ptr %7, align 8, !tbaa !74
  %35 = load i32, ptr %4, align 4, !tbaa !67
  br label %45

36:                                               ; preds = %13, %36
  %37 = phi i64 [ %41, %36 ], [ 0, %13 ]
  %38 = getelementptr inbounds i32, ptr %29, i64 %37
  %39 = load i32, ptr %38, align 4, !tbaa !79
  %40 = getelementptr inbounds i32, ptr %25, i64 %37
  store i32 %39, ptr %40, align 4, !tbaa !79
  %41 = add nuw nsw i64 %37, 1
  %42 = load i32, ptr %4, align 4, !tbaa !67
  %43 = zext i32 %42 to i64
  %44 = icmp ult i64 %41, %43
  br i1 %44, label %36, label %30

45:                                               ; preds = %10, %30
  %46 = phi i32 [ %5, %10 ], [ %35, %30 ]
  %47 = phi ptr [ %12, %10 ], [ %25, %30 ]
  %48 = zext i32 %46 to i64
  %49 = getelementptr inbounds i32, ptr %47, i64 %48
  store i32 %2, ptr %49, align 4, !tbaa !79
  %50 = load i32, ptr %4, align 4, !tbaa !67
  %51 = add i32 %50, 1
  store i32 %51, ptr %4, align 4, !tbaa !67
  ret void
}

; Function Attrs: uwtable
define linkonce_odr dso_local void @_ZN11xercesc_2_513ValueVectorOfIiE10addElementERKi(ptr noundef nonnull align 8 dereferenceable(32) %0, ptr noundef nonnull align 4 dereferenceable(4) %1) local_unnamed_addr #1 comdat align 2 {
  %3 = getelementptr inbounds %"class.xercesc_2_5::ValueVectorOf", ptr %0, i64 0, i32 1
  %4 = load i32, ptr %3, align 4, !tbaa !67
  %5 = add i32 %4, 1
  %6 = getelementptr inbounds %"class.xercesc_2_5::ValueVectorOf", ptr %0, i64 0, i32 2
  %7 = load i32, ptr %6, align 8, !tbaa !74
  %8 = icmp ult i32 %5, %7
  br i1 %8, label %9, label %12

9:                                                ; preds = %2
  %10 = getelementptr inbounds %"class.xercesc_2_5::ValueVectorOf", ptr %0, i64 0, i32 3
  %11 = load ptr, ptr %10, align 8, !tbaa !75
  br label %44

12:                                               ; preds = %2
  %13 = uitofp i32 %4 to double
  %14 = fmul reassoc nnan ninf nsz arcp afn double %13, 1.250000e+00
  %15 = fptoui double %14 to i32
  %16 = tail call i32 @llvm.umax.i32(i32 %5, i32 %15)
  %17 = getelementptr inbounds %"class.xercesc_2_5::ValueVectorOf", ptr %0, i64 0, i32 4
  %18 = load ptr, ptr %17, align 8, !tbaa !76
  %19 = zext i32 %16 to i64
  %20 = shl nuw nsw i64 %19, 2
  %21 = load ptr, ptr %18, align 8, !tbaa !77
  %22 = getelementptr inbounds ptr, ptr %21, i64 2
  %23 = load ptr, ptr %22, align 8
  %24 = tail call noundef ptr %23(ptr noundef nonnull align 8 dereferenceable(8) %18, i64 noundef %20)
  %25 = load i32, ptr %3, align 4, !tbaa !67
  %26 = icmp eq i32 %25, 0
  %27 = getelementptr inbounds %"class.xercesc_2_5::ValueVectorOf", ptr %0, i64 0, i32 3
  %28 = load ptr, ptr %27, align 8, !tbaa !75
  br i1 %26, label %29, label %35

29:                                               ; preds = %35, %12
  %30 = load ptr, ptr %17, align 8, !tbaa !76
  %31 = load ptr, ptr %30, align 8, !tbaa !77
  %32 = getelementptr inbounds ptr, ptr %31, i64 3
  %33 = load ptr, ptr %32, align 8
  tail call void %33(ptr noundef nonnull align 8 dereferenceable(8) %30, ptr noundef %28)
  store ptr %24, ptr %27, align 8, !tbaa !75
  store i32 %16, ptr %6, align 8, !tbaa !74
  %34 = load i32, ptr %3, align 4, !tbaa !67
  br label %44

35:                                               ; preds = %12, %35
  %36 = phi i64 [ %40, %35 ], [ 0, %12 ]
  %37 = getelementptr inbounds i32, ptr %28, i64 %36
  %38 = load i32, ptr %37, align 4, !tbaa !79
  %39 = getelementptr inbounds i32, ptr %24, i64 %36
  store i32 %38, ptr %39, align 4, !tbaa !79
  %40 = add nuw nsw i64 %36, 1
  %41 = load i32, ptr %3, align 4, !tbaa !67
  %42 = zext i32 %41 to i64
  %43 = icmp ult i64 %40, %42
  br i1 %43, label %35, label %29

44:                                               ; preds = %9, %29
  %45 = phi i32 [ %4, %9 ], [ %34, %29 ]
  %46 = phi ptr [ %11, %9 ], [ %24, %29 ]
  %47 = load i32, ptr %1, align 4, !tbaa !79
  %48 = zext i32 %45 to i64
  %49 = getelementptr inbounds i32, ptr %46, i64 %48
  store i32 %47, ptr %49, align 4, !tbaa !79
  %50 = load i32, ptr %3, align 4, !tbaa !67
  %51 = add i32 %50, 1
  store i32 %51, ptr %3, align 4, !tbaa !67
  ret void
}

; Function Attrs: noinline noreturn nounwind uwtable
define linkonce_odr hidden void @__clang_call_terminate(ptr noundef %0) local_unnamed_addr #2 comdat {
  %2 = tail call ptr @__cxa_begin_catch(ptr %0) #14
  tail call void @_ZSt9terminatev() #15
  unreachable
}

declare ptr @__cxa_begin_catch(ptr) local_unnamed_addr

declare void @_ZSt9terminatev() local_unnamed_addr

declare void @_ZN11xercesc_2_57XMemorydlEPv(ptr noundef) local_unnamed_addr #3

; Function Attrs: uwtable
define dso_local void @_ZN11xercesc_2_514XercesNodeTestC2EsPNS_13MemoryManagerE(ptr nocapture noundef nonnull writeonly align 8 dereferenceable(24) %0, i16 noundef signext %1, ptr noundef %2) unnamed_addr #1 align 2 personality ptr @__gxx_personality_v0 {
  store ptr getelementptr inbounds ({ [7 x ptr] }, ptr @_ZTVN11xercesc_2_514XercesNodeTestE, i64 0, inrange i32 0, i64 2), ptr %0, align 8, !tbaa !77
  %4 = getelementptr inbounds %"class.xercesc_2_5::XercesNodeTest", ptr %0, i64 0, i32 1
  store i16 %1, ptr %4, align 8, !tbaa !80
  %5 = tail call noundef ptr @_ZN11xercesc_2_57XMemorynwEmPNS_13MemoryManagerE(i64 noundef 64, ptr noundef %2)
  invoke void @_ZN11xercesc_2_55QNameC1EPNS_13MemoryManagerE(ptr noundef nonnull align 8 dereferenceable(64) %5, ptr noundef %2)
          to label %6 unwind label %8

6:                                                ; preds = %3
  %7 = getelementptr inbounds %"class.xercesc_2_5::XercesNodeTest", ptr %0, i64 0, i32 2
  store ptr %5, ptr %7, align 8, !tbaa !84
  ret void

8:                                                ; preds = %3
  %9 = landingpad { ptr, i32 }
          cleanup
  invoke void @_ZN11xercesc_2_57XMemorydlEPvPNS_13MemoryManagerE(ptr noundef %5, ptr noundef %2)
          to label %10 unwind label %11

10:                                               ; preds = %8
  resume { ptr, i32 } %9

11:                                               ; preds = %8
  %12 = landingpad { ptr, i32 }
          catch ptr null
  %13 = extractvalue { ptr, i32 } %12, 0
  tail call void @__clang_call_terminate(ptr %13) #15
  unreachable
}

declare noundef ptr @_ZN11xercesc_2_57XMemorynwEmPNS_13MemoryManagerE(i64 noundef, ptr noundef) local_unnamed_addr #3

declare void @_ZN11xercesc_2_55QNameC1EPNS_13MemoryManagerE(ptr noundef nonnull align 8 dereferenceable(64), ptr noundef) unnamed_addr #3

declare void @_ZN11xercesc_2_57XMemorydlEPvPNS_13MemoryManagerE(ptr noundef, ptr noundef) local_unnamed_addr #3

; Function Attrs: uwtable
define dso_local void @_ZN11xercesc_2_514XercesNodeTestC2EPKNS_5QNameE(ptr nocapture noundef nonnull writeonly align 8 dereferenceable(24) %0, ptr noundef %1) unnamed_addr #1 align 2 personality ptr @__gxx_personality_v0 {
  store ptr getelementptr inbounds ({ [7 x ptr] }, ptr @_ZTVN11xercesc_2_514XercesNodeTestE, i64 0, inrange i32 0, i64 2), ptr %0, align 8, !tbaa !77
  %3 = getelementptr inbounds %"class.xercesc_2_5::XercesNodeTest", ptr %0, i64 0, i32 1
  store i16 1, ptr %3, align 8, !tbaa !80
  %4 = getelementptr inbounds %"class.xercesc_2_5::QName", ptr %1, i64 0, i32 1
  %5 = load ptr, ptr %4, align 8, !tbaa !85
  %6 = tail call noundef ptr @_ZN11xercesc_2_57XMemorynwEmPNS_13MemoryManagerE(i64 noundef 64, ptr noundef %5)
  invoke void @_ZN11xercesc_2_55QNameC1ERKS0_(ptr noundef nonnull align 8 dereferenceable(64) %6, ptr noundef nonnull align 8 dereferenceable(64) %1)
          to label %7 unwind label %9

7:                                                ; preds = %2
  %8 = getelementptr inbounds %"class.xercesc_2_5::XercesNodeTest", ptr %0, i64 0, i32 2
  store ptr %6, ptr %8, align 8, !tbaa !84
  ret void

9:                                                ; preds = %2
  %10 = landingpad { ptr, i32 }
          cleanup
  invoke void @_ZN11xercesc_2_57XMemorydlEPvPNS_13MemoryManagerE(ptr noundef %6, ptr noundef %5)
          to label %11 unwind label %12

11:                                               ; preds = %9
  resume { ptr, i32 } %10

12:                                               ; preds = %9
  %13 = landingpad { ptr, i32 }
          catch ptr null
  %14 = extractvalue { ptr, i32 } %13, 0
  tail call void @__clang_call_terminate(ptr %14) #15
  unreachable
}

declare void @_ZN11xercesc_2_55QNameC1ERKS0_(ptr noundef nonnull align 8 dereferenceable(64), ptr noundef nonnull align 8 dereferenceable(64)) unnamed_addr #3

; Function Attrs: uwtable
define dso_local void @_ZN11xercesc_2_514XercesNodeTestC2EPKtjPNS_13MemoryManagerE(ptr nocapture noundef nonnull writeonly align 8 dereferenceable(24) %0, ptr noundef %1, i32 noundef %2, ptr noundef %3) unnamed_addr #1 align 2 personality ptr @__gxx_personality_v0 {
  store ptr getelementptr inbounds ({ [7 x ptr] }, ptr @_ZTVN11xercesc_2_514XercesNodeTestE, i64 0, inrange i32 0, i64 2), ptr %0, align 8, !tbaa !77
  %5 = getelementptr inbounds %"class.xercesc_2_5::XercesNodeTest", ptr %0, i64 0, i32 1
  store i16 4, ptr %5, align 8, !tbaa !80
  %6 = tail call noundef ptr @_ZN11xercesc_2_57XMemorynwEmPNS_13MemoryManagerE(i64 noundef 64, ptr noundef %3)
  invoke void @_ZN11xercesc_2_55QNameC1EPNS_13MemoryManagerE(ptr noundef nonnull align 8 dereferenceable(64) %6, ptr noundef %3)
          to label %7 unwind label %10

7:                                                ; preds = %4
  %8 = getelementptr inbounds %"class.xercesc_2_5::XercesNodeTest", ptr %0, i64 0, i32 2
  store ptr %6, ptr %8, align 8, !tbaa !84
  %9 = getelementptr inbounds %"class.xercesc_2_5::QName", ptr %6, i64 0, i32 8
  store i32 %2, ptr %9, align 4, !tbaa !87
  tail call void @_ZN11xercesc_2_55QName9setPrefixEPKt(ptr noundef nonnull align 8 dereferenceable(64) %6, ptr noundef %1)
  ret void

10:                                               ; preds = %4
  %11 = landingpad { ptr, i32 }
          cleanup
  invoke void @_ZN11xercesc_2_57XMemorydlEPvPNS_13MemoryManagerE(ptr noundef %6, ptr noundef %3)
          to label %12 unwind label %13

12:                                               ; preds = %10
  resume { ptr, i32 } %11

13:                                               ; preds = %10
  %14 = landingpad { ptr, i32 }
          catch ptr null
  %15 = extractvalue { ptr, i32 } %14, 0
  tail call void @__clang_call_terminate(ptr %15) #15
  unreachable
}

declare void @_ZN11xercesc_2_55QName9setPrefixEPKt(ptr noundef nonnull align 8 dereferenceable(64), ptr noundef) local_unnamed_addr #3

; Function Attrs: uwtable
define dso_local void @_ZN11xercesc_2_514XercesNodeTestC2ERKS0_(ptr nocapture noundef nonnull writeonly align 8 dereferenceable(24) %0, ptr nocapture noundef nonnull readonly align 8 dereferenceable(24) %1) unnamed_addr #1 align 2 personality ptr @__gxx_personality_v0 {
  store ptr getelementptr inbounds ({ [7 x ptr] }, ptr @_ZTVN11xercesc_2_514XercesNodeTestE, i64 0, inrange i32 0, i64 2), ptr %0, align 8, !tbaa !77
  %3 = getelementptr inbounds %"class.xercesc_2_5::XercesNodeTest", ptr %0, i64 0, i32 1
  %4 = getelementptr inbounds %"class.xercesc_2_5::XercesNodeTest", ptr %1, i64 0, i32 1
  %5 = load i16, ptr %4, align 8, !tbaa !80
  store i16 %5, ptr %3, align 8, !tbaa !80
  %6 = getelementptr inbounds %"class.xercesc_2_5::XercesNodeTest", ptr %1, i64 0, i32 2
  %7 = load ptr, ptr %6, align 8, !tbaa !84
  %8 = getelementptr inbounds %"class.xercesc_2_5::QName", ptr %7, i64 0, i32 1
  %9 = load ptr, ptr %8, align 8, !tbaa !85
  %10 = tail call noundef ptr @_ZN11xercesc_2_57XMemorynwEmPNS_13MemoryManagerE(i64 noundef 64, ptr noundef %9)
  %11 = load ptr, ptr %6, align 8, !tbaa !84
  invoke void @_ZN11xercesc_2_55QNameC1ERKS0_(ptr noundef nonnull align 8 dereferenceable(64) %10, ptr noundef nonnull align 8 dereferenceable(64) %11)
          to label %12 unwind label %14

12:                                               ; preds = %2
  %13 = getelementptr inbounds %"class.xercesc_2_5::XercesNodeTest", ptr %0, i64 0, i32 2
  store ptr %10, ptr %13, align 8, !tbaa !84
  ret void

14:                                               ; preds = %2
  %15 = landingpad { ptr, i32 }
          cleanup
  invoke void @_ZN11xercesc_2_57XMemorydlEPvPNS_13MemoryManagerE(ptr noundef %10, ptr noundef %9)
          to label %16 unwind label %17

16:                                               ; preds = %14
  resume { ptr, i32 } %15

17:                                               ; preds = %14
  %18 = landingpad { ptr, i32 }
          catch ptr null
  %19 = extractvalue { ptr, i32 } %18, 0
  tail call void @__clang_call_terminate(ptr %19) #15
  unreachable
}

; Function Attrs: uwtable
define dso_local noundef ptr @_ZN11xercesc_2_514XercesNodeTest12createObjectEPNS_13MemoryManagerE(ptr noundef %0) #1 align 2 personality ptr @__gxx_personality_v0 {
  %2 = tail call noundef ptr @_ZN11xercesc_2_57XMemorynwEmPNS_13MemoryManagerE(i64 noundef 24, ptr noundef %0)
  store ptr getelementptr inbounds ({ [7 x ptr] }, ptr @_ZTVN11xercesc_2_514XercesNodeTestE, i64 0, inrange i32 0, i64 2), ptr %2, align 8, !tbaa !77
  %3 = getelementptr inbounds %"class.xercesc_2_5::XercesNodeTest", ptr %2, i64 0, i32 1
  store i16 5, ptr %3, align 8, !tbaa !80
  %4 = getelementptr inbounds %"class.xercesc_2_5::XercesNodeTest", ptr %2, i64 0, i32 2
  store ptr null, ptr %4, align 8, !tbaa !84
  ret ptr %2
}

; Function Attrs: mustprogress nofree norecurse nosync nounwind willreturn memory(none) uwtable
define dso_local noundef zeroext i1 @_ZNK11xercesc_2_514XercesNodeTest14isSerializableEv(ptr nocapture nonnull readnone align 8 %0) unnamed_addr #4 align 2 {
  ret i1 true
}

; Function Attrs: mustprogress nofree norecurse nosync nounwind willreturn memory(none) uwtable
define dso_local noundef nonnull ptr @_ZNK11xercesc_2_514XercesNodeTest12getProtoTypeEv(ptr nocapture nonnull readnone align 8 %0) unnamed_addr #4 align 2 {
  ret ptr @_ZN11xercesc_2_514XercesNodeTest19classXercesNodeTestE
}

; Function Attrs: uwtable
define dso_local void @_ZN11xercesc_2_514XercesNodeTest9serializeERNS_16XSerializeEngineE(ptr noundef nonnull align 8 dereferenceable(24) %0, ptr noundef nonnull align 8 dereferenceable(92) %1) unnamed_addr #1 align 2 {
  %3 = load i16, ptr %1, align 8, !tbaa !88
  %4 = icmp eq i16 %3, 0
  %5 = getelementptr inbounds %"class.xercesc_2_5::XercesNodeTest", ptr %0, i64 0, i32 1
  br i1 %4, label %6, label %11

6:                                                ; preds = %2
  %7 = load i16, ptr %5, align 8, !tbaa !80
  %8 = tail call noundef nonnull align 8 dereferenceable(92) ptr @_ZN11xercesc_2_516XSerializeEnginelsEs(ptr noundef nonnull align 8 dereferenceable(92) %1, i16 noundef signext %7)
  %9 = getelementptr inbounds %"class.xercesc_2_5::XercesNodeTest", ptr %0, i64 0, i32 2
  %10 = load ptr, ptr %9, align 8, !tbaa !84
  tail call void @_ZN11xercesc_2_516XSerializeEngine5writeEPNS_13XSerializableE(ptr noundef nonnull align 8 dereferenceable(92) %1, ptr noundef %10)
  br label %15

11:                                               ; preds = %2
  %12 = tail call noundef nonnull align 8 dereferenceable(92) ptr @_ZN11xercesc_2_516XSerializeEnginersERs(ptr noundef nonnull align 8 dereferenceable(92) %1, ptr noundef nonnull align 2 dereferenceable(2) %5)
  %13 = getelementptr inbounds %"class.xercesc_2_5::XercesNodeTest", ptr %0, i64 0, i32 2
  %14 = tail call noundef ptr @_ZN11xercesc_2_516XSerializeEngine4readEPNS_10XProtoTypeE(ptr noundef nonnull align 8 dereferenceable(92) %1, ptr noundef nonnull @_ZN11xercesc_2_55QName10classQNameE)
  store ptr %14, ptr %13, align 8, !tbaa !91
  br label %15

15:                                               ; preds = %11, %6
  ret void
}

declare noundef nonnull align 8 dereferenceable(92) ptr @_ZN11xercesc_2_516XSerializeEnginelsEs(ptr noundef nonnull align 8 dereferenceable(92), i16 noundef signext) local_unnamed_addr #3

declare noundef nonnull align 8 dereferenceable(92) ptr @_ZN11xercesc_2_516XSerializeEnginersERs(ptr noundef nonnull align 8 dereferenceable(92), ptr noundef nonnull align 2 dereferenceable(2)) local_unnamed_addr #3

; Function Attrs: mustprogress nofree norecurse nosync nounwind willreturn memory(argmem: write) uwtable
define dso_local void @_ZN11xercesc_2_514XercesNodeTestC2EPNS_13MemoryManagerE(ptr nocapture noundef nonnull writeonly align 8 dereferenceable(24) %0, ptr nocapture readnone %1) unnamed_addr #5 align 2 personality ptr @__gxx_personality_v0 {
  store ptr getelementptr inbounds ({ [7 x ptr] }, ptr @_ZTVN11xercesc_2_514XercesNodeTestE, i64 0, inrange i32 0, i64 2), ptr %0, align 8, !tbaa !77
  %3 = getelementptr inbounds %"class.xercesc_2_5::XercesNodeTest", ptr %0, i64 0, i32 1
  store i16 5, ptr %3, align 8, !tbaa !80
  %4 = getelementptr inbounds %"class.xercesc_2_5::XercesNodeTest", ptr %0, i64 0, i32 2
  store ptr null, ptr %4, align 8, !tbaa !84
  ret void
}

; Function Attrs: uwtable
define dso_local noundef nonnull align 8 dereferenceable(24) ptr @_ZN11xercesc_2_514XercesNodeTestaSERKS0_(ptr noundef nonnull returned align 8 dereferenceable(24) %0, ptr noundef nonnull readonly align 8 dereferenceable(24) %1) local_unnamed_addr #1 align 2 {
  %3 = icmp eq ptr %0, %1
  br i1 %3, label %12, label %4

4:                                                ; preds = %2
  %5 = getelementptr inbounds %"class.xercesc_2_5::XercesNodeTest", ptr %1, i64 0, i32 1
  %6 = load i16, ptr %5, align 8, !tbaa !80
  %7 = getelementptr inbounds %"class.xercesc_2_5::XercesNodeTest", ptr %0, i64 0, i32 1
  store i16 %6, ptr %7, align 8, !tbaa !80
  %8 = getelementptr inbounds %"class.xercesc_2_5::XercesNodeTest", ptr %0, i64 0, i32 2
  %9 = load ptr, ptr %8, align 8, !tbaa !84
  %10 = getelementptr inbounds %"class.xercesc_2_5::XercesNodeTest", ptr %1, i64 0, i32 2
  %11 = load ptr, ptr %10, align 8, !tbaa !84
  tail call void @_ZN11xercesc_2_55QName9setValuesERKS0_(ptr noundef nonnull align 8 dereferenceable(64) %9, ptr noundef nonnull align 8 dereferenceable(64) %11)
  br label %12

12:                                               ; preds = %2, %4
  ret ptr %0
}

declare void @_ZN11xercesc_2_55QName9setValuesERKS0_(ptr noundef nonnull align 8 dereferenceable(64), ptr noundef nonnull align 8 dereferenceable(64)) local_unnamed_addr #3

; Function Attrs: uwtable
define dso_local noundef zeroext i1 @_ZNK11xercesc_2_514XercesNodeTesteqERKS0_(ptr noundef nonnull readonly align 8 dereferenceable(24) %0, ptr noundef nonnull readonly align 8 dereferenceable(24) %1) local_unnamed_addr #1 align 2 {
  %3 = icmp eq ptr %0, %1
  br i1 %3, label %16, label %4

4:                                                ; preds = %2
  %5 = getelementptr inbounds %"class.xercesc_2_5::XercesNodeTest", ptr %0, i64 0, i32 1
  %6 = load i16, ptr %5, align 8, !tbaa !80
  %7 = getelementptr inbounds %"class.xercesc_2_5::XercesNodeTest", ptr %1, i64 0, i32 1
  %8 = load i16, ptr %7, align 8, !tbaa !80
  %9 = icmp eq i16 %6, %8
  br i1 %9, label %10, label %16

10:                                               ; preds = %4
  %11 = getelementptr inbounds %"class.xercesc_2_5::XercesNodeTest", ptr %0, i64 0, i32 2
  %12 = load ptr, ptr %11, align 8, !tbaa !84
  %13 = getelementptr inbounds %"class.xercesc_2_5::XercesNodeTest", ptr %1, i64 0, i32 2
  %14 = load ptr, ptr %13, align 8, !tbaa !84
  %15 = tail call noundef zeroext i1 @_ZNK11xercesc_2_55QNameeqERKS0_(ptr noundef nonnull align 8 dereferenceable(64) %12, ptr noundef nonnull align 8 dereferenceable(64) %14)
  br label %16

16:                                               ; preds = %4, %2, %10
  %17 = phi i1 [ %15, %10 ], [ true, %2 ], [ false, %4 ]
  ret i1 %17
}

declare noundef zeroext i1 @_ZNK11xercesc_2_55QNameeqERKS0_(ptr noundef nonnull align 8 dereferenceable(64), ptr noundef nonnull align 8 dereferenceable(64)) local_unnamed_addr #3

; Function Attrs: uwtable
define dso_local noundef zeroext i1 @_ZNK11xercesc_2_514XercesNodeTestneERKS0_(ptr noundef nonnull readonly align 8 dereferenceable(24) %0, ptr noundef nonnull readonly align 8 dereferenceable(24) %1) local_unnamed_addr #1 align 2 {
  %3 = icmp eq ptr %0, %1
  br i1 %3, label %17, label %4

4:                                                ; preds = %2
  %5 = getelementptr inbounds %"class.xercesc_2_5::XercesNodeTest", ptr %0, i64 0, i32 1
  %6 = load i16, ptr %5, align 8, !tbaa !80
  %7 = getelementptr inbounds %"class.xercesc_2_5::XercesNodeTest", ptr %1, i64 0, i32 1
  %8 = load i16, ptr %7, align 8, !tbaa !80
  %9 = icmp eq i16 %6, %8
  br i1 %9, label %10, label %17

10:                                               ; preds = %4
  %11 = getelementptr inbounds %"class.xercesc_2_5::XercesNodeTest", ptr %0, i64 0, i32 2
  %12 = load ptr, ptr %11, align 8, !tbaa !84
  %13 = getelementptr inbounds %"class.xercesc_2_5::XercesNodeTest", ptr %1, i64 0, i32 2
  %14 = load ptr, ptr %13, align 8, !tbaa !84
  %15 = tail call noundef zeroext i1 @_ZNK11xercesc_2_55QNameeqERKS0_(ptr noundef nonnull align 8 dereferenceable(64) %12, ptr noundef nonnull align 8 dereferenceable(64) %14)
  %16 = xor i1 %15, true
  br label %17

17:                                               ; preds = %2, %4, %10
  %18 = phi i1 [ %16, %10 ], [ false, %2 ], [ true, %4 ]
  ret i1 %18
}

; Function Attrs: mustprogress nofree norecurse nosync nounwind willreturn memory(argmem: write) uwtable
define dso_local void @_ZN11xercesc_2_510XercesStepC2EtPNS_14XercesNodeTestE(ptr nocapture noundef nonnull writeonly align 8 dereferenceable(24) %0, i16 noundef zeroext %1, ptr noundef %2) unnamed_addr #5 align 2 personality ptr @__gxx_personality_v0 {
  store ptr getelementptr inbounds ({ [7 x ptr] }, ptr @_ZTVN11xercesc_2_510XercesStepE, i64 0, inrange i32 0, i64 2), ptr %0, align 8, !tbaa !77
  %4 = getelementptr inbounds %"class.xercesc_2_5::XercesStep", ptr %0, i64 0, i32 1
  store i16 %1, ptr %4, align 8, !tbaa !92
  %5 = getelementptr inbounds %"class.xercesc_2_5::XercesStep", ptr %0, i64 0, i32 2
  store ptr %2, ptr %5, align 8, !tbaa !94
  ret void
}

; Function Attrs: uwtable
define dso_local void @_ZN11xercesc_2_510XercesStepC2ERKS0_(ptr nocapture noundef nonnull writeonly align 8 dereferenceable(24) %0, ptr nocapture noundef nonnull readonly align 8 dereferenceable(24) %1) unnamed_addr #1 align 2 personality ptr @__gxx_personality_v0 {
  store ptr getelementptr inbounds ({ [7 x ptr] }, ptr @_ZTVN11xercesc_2_510XercesStepE, i64 0, inrange i32 0, i64 2), ptr %0, align 8, !tbaa !77
  %3 = getelementptr inbounds %"class.xercesc_2_5::XercesStep", ptr %0, i64 0, i32 1
  %4 = getelementptr inbounds %"class.xercesc_2_5::XercesStep", ptr %1, i64 0, i32 1
  %5 = load i16, ptr %4, align 8, !tbaa !92
  store i16 %5, ptr %3, align 8, !tbaa !92
  %6 = getelementptr inbounds %"class.xercesc_2_5::XercesStep", ptr %0, i64 0, i32 2
  store ptr null, ptr %6, align 8, !tbaa !94
  %7 = getelementptr inbounds %"class.xercesc_2_5::XercesStep", ptr %1, i64 0, i32 2
  %8 = load ptr, ptr %7, align 8, !tbaa !94
  %9 = getelementptr inbounds %"class.xercesc_2_5::XercesNodeTest", ptr %8, i64 0, i32 2
  %10 = load ptr, ptr %9, align 8, !tbaa !84
  %11 = getelementptr inbounds %"class.xercesc_2_5::QName", ptr %10, i64 0, i32 1
  %12 = load ptr, ptr %11, align 8, !tbaa !85
  %13 = tail call noundef ptr @_ZN11xercesc_2_57XMemorynwEmPNS_13MemoryManagerE(i64 noundef 24, ptr noundef %12)
  %14 = load ptr, ptr %7, align 8, !tbaa !94
  store ptr getelementptr inbounds ({ [7 x ptr] }, ptr @_ZTVN11xercesc_2_514XercesNodeTestE, i64 0, inrange i32 0, i64 2), ptr %13, align 8, !tbaa !77
  %15 = getelementptr inbounds %"class.xercesc_2_5::XercesNodeTest", ptr %13, i64 0, i32 1
  %16 = getelementptr inbounds %"class.xercesc_2_5::XercesNodeTest", ptr %14, i64 0, i32 1
  %17 = load i16, ptr %16, align 8, !tbaa !80
  store i16 %17, ptr %15, align 8, !tbaa !80
  %18 = getelementptr inbounds %"class.xercesc_2_5::XercesNodeTest", ptr %14, i64 0, i32 2
  %19 = load ptr, ptr %18, align 8, !tbaa !84
  %20 = getelementptr inbounds %"class.xercesc_2_5::QName", ptr %19, i64 0, i32 1
  %21 = load ptr, ptr %20, align 8, !tbaa !85
  %22 = invoke noundef ptr @_ZN11xercesc_2_57XMemorynwEmPNS_13MemoryManagerE(i64 noundef 64, ptr noundef %21)
          to label %23 unwind label %32

23:                                               ; preds = %2
  %24 = load ptr, ptr %18, align 8, !tbaa !84
  invoke void @_ZN11xercesc_2_55QNameC1ERKS0_(ptr noundef nonnull align 8 dereferenceable(64) %22, ptr noundef nonnull align 8 dereferenceable(64) %24)
          to label %30 unwind label %25

25:                                               ; preds = %23
  %26 = landingpad { ptr, i32 }
          cleanup
  invoke void @_ZN11xercesc_2_57XMemorydlEPvPNS_13MemoryManagerE(ptr noundef %22, ptr noundef %21)
          to label %34 unwind label %27

27:                                               ; preds = %25
  %28 = landingpad { ptr, i32 }
          catch ptr null
  %29 = extractvalue { ptr, i32 } %28, 0
  tail call void @__clang_call_terminate(ptr %29) #15
  unreachable

30:                                               ; preds = %23
  %31 = getelementptr inbounds %"class.xercesc_2_5::XercesNodeTest", ptr %13, i64 0, i32 2
  store ptr %22, ptr %31, align 8, !tbaa !84
  store ptr %13, ptr %6, align 8, !tbaa !94
  ret void

32:                                               ; preds = %2
  %33 = landingpad { ptr, i32 }
          cleanup
  br label %34

34:                                               ; preds = %25, %32
  %35 = phi { ptr, i32 } [ %33, %32 ], [ %26, %25 ]
  invoke void @_ZN11xercesc_2_57XMemorydlEPvPNS_13MemoryManagerE(ptr noundef nonnull %13, ptr noundef %12)
          to label %36 unwind label %37

36:                                               ; preds = %34
  resume { ptr, i32 } %35

37:                                               ; preds = %34
  %38 = landingpad { ptr, i32 }
          catch ptr null
  %39 = extractvalue { ptr, i32 } %38, 0
  tail call void @__clang_call_terminate(ptr %39) #15
  unreachable
}

; Function Attrs: uwtable
define dso_local noundef nonnull align 8 dereferenceable(24) ptr @_ZN11xercesc_2_510XercesStepaSERKS0_(ptr noundef nonnull returned align 8 dereferenceable(24) %0, ptr noundef nonnull readonly align 8 dereferenceable(24) %1) local_unnamed_addr #1 align 2 {
  %3 = icmp eq ptr %0, %1
  br i1 %3, label %21, label %4

4:                                                ; preds = %2
  %5 = getelementptr inbounds %"class.xercesc_2_5::XercesStep", ptr %1, i64 0, i32 1
  %6 = load i16, ptr %5, align 8, !tbaa !92
  %7 = getelementptr inbounds %"class.xercesc_2_5::XercesStep", ptr %0, i64 0, i32 1
  store i16 %6, ptr %7, align 8, !tbaa !92
  %8 = getelementptr inbounds %"class.xercesc_2_5::XercesStep", ptr %1, i64 0, i32 2
  %9 = load ptr, ptr %8, align 8, !tbaa !94
  %10 = getelementptr inbounds %"class.xercesc_2_5::XercesStep", ptr %0, i64 0, i32 2
  %11 = load ptr, ptr %10, align 8, !tbaa !94
  %12 = icmp eq ptr %11, %9
  br i1 %12, label %21, label %13

13:                                               ; preds = %4
  %14 = getelementptr inbounds %"class.xercesc_2_5::XercesNodeTest", ptr %9, i64 0, i32 1
  %15 = load i16, ptr %14, align 8, !tbaa !80
  %16 = getelementptr inbounds %"class.xercesc_2_5::XercesNodeTest", ptr %11, i64 0, i32 1
  store i16 %15, ptr %16, align 8, !tbaa !80
  %17 = getelementptr inbounds %"class.xercesc_2_5::XercesNodeTest", ptr %11, i64 0, i32 2
  %18 = load ptr, ptr %17, align 8, !tbaa !84
  %19 = getelementptr inbounds %"class.xercesc_2_5::XercesNodeTest", ptr %9, i64 0, i32 2
  %20 = load ptr, ptr %19, align 8, !tbaa !84
  tail call void @_ZN11xercesc_2_55QName9setValuesERKS0_(ptr noundef nonnull align 8 dereferenceable(64) %18, ptr noundef nonnull align 8 dereferenceable(64) %20)
  br label %21

21:                                               ; preds = %13, %4, %2
  ret ptr %0
}

; Function Attrs: uwtable
define dso_local noundef zeroext i1 @_ZNK11xercesc_2_510XercesStepeqERKS0_(ptr noundef nonnull readonly align 8 dereferenceable(24) %0, ptr noundef nonnull readonly align 8 dereferenceable(24) %1) local_unnamed_addr #1 align 2 {
  %3 = icmp eq ptr %0, %1
  br i1 %3, label %31, label %4

4:                                                ; preds = %2
  %5 = getelementptr inbounds %"class.xercesc_2_5::XercesStep", ptr %0, i64 0, i32 1
  %6 = load i16, ptr %5, align 8, !tbaa !92
  %7 = getelementptr inbounds %"class.xercesc_2_5::XercesStep", ptr %1, i64 0, i32 1
  %8 = load i16, ptr %7, align 8, !tbaa !92
  %9 = icmp eq i16 %6, %8
  br i1 %9, label %10, label %31

10:                                               ; preds = %4
  %11 = add i16 %6, -1
  %12 = icmp ult i16 %11, 2
  br i1 %12, label %13, label %31

13:                                               ; preds = %10
  %14 = getelementptr inbounds %"class.xercesc_2_5::XercesStep", ptr %0, i64 0, i32 2
  %15 = load ptr, ptr %14, align 8, !tbaa !94
  %16 = getelementptr inbounds %"class.xercesc_2_5::XercesStep", ptr %1, i64 0, i32 2
  %17 = load ptr, ptr %16, align 8, !tbaa !94
  %18 = icmp eq ptr %15, %17
  br i1 %18, label %31, label %19

19:                                               ; preds = %13
  %20 = getelementptr inbounds %"class.xercesc_2_5::XercesNodeTest", ptr %15, i64 0, i32 1
  %21 = load i16, ptr %20, align 8, !tbaa !80
  %22 = getelementptr inbounds %"class.xercesc_2_5::XercesNodeTest", ptr %17, i64 0, i32 1
  %23 = load i16, ptr %22, align 8, !tbaa !80
  %24 = icmp eq i16 %21, %23
  br i1 %24, label %25, label %31

25:                                               ; preds = %19
  %26 = getelementptr inbounds %"class.xercesc_2_5::XercesNodeTest", ptr %15, i64 0, i32 2
  %27 = load ptr, ptr %26, align 8, !tbaa !84
  %28 = getelementptr inbounds %"class.xercesc_2_5::XercesNodeTest", ptr %17, i64 0, i32 2
  %29 = load ptr, ptr %28, align 8, !tbaa !84
  %30 = tail call noundef zeroext i1 @_ZNK11xercesc_2_55QNameeqERKS0_(ptr noundef nonnull align 8 dereferenceable(64) %27, ptr noundef nonnull align 8 dereferenceable(64) %29)
  br label %31

31:                                               ; preds = %25, %19, %13, %10, %4, %2
  %32 = phi i1 [ true, %2 ], [ false, %4 ], [ true, %10 ], [ %30, %25 ], [ true, %13 ], [ false, %19 ]
  ret i1 %32
}

; Function Attrs: uwtable
define dso_local noundef zeroext i1 @_ZNK11xercesc_2_510XercesStepneERKS0_(ptr noundef nonnull readonly align 8 dereferenceable(24) %0, ptr noundef nonnull readonly align 8 dereferenceable(24) %1) local_unnamed_addr #1 align 2 {
  %3 = icmp eq ptr %0, %1
  br i1 %3, label %32, label %4

4:                                                ; preds = %2
  %5 = getelementptr inbounds %"class.xercesc_2_5::XercesStep", ptr %0, i64 0, i32 1
  %6 = load i16, ptr %5, align 8, !tbaa !92
  %7 = getelementptr inbounds %"class.xercesc_2_5::XercesStep", ptr %1, i64 0, i32 1
  %8 = load i16, ptr %7, align 8, !tbaa !92
  %9 = icmp eq i16 %6, %8
  br i1 %9, label %10, label %32

10:                                               ; preds = %4
  %11 = add i16 %6, -1
  %12 = icmp ult i16 %11, 2
  br i1 %12, label %13, label %32

13:                                               ; preds = %10
  %14 = getelementptr inbounds %"class.xercesc_2_5::XercesStep", ptr %0, i64 0, i32 2
  %15 = load ptr, ptr %14, align 8, !tbaa !94
  %16 = getelementptr inbounds %"class.xercesc_2_5::XercesStep", ptr %1, i64 0, i32 2
  %17 = load ptr, ptr %16, align 8, !tbaa !94
  %18 = icmp eq ptr %15, %17
  br i1 %18, label %32, label %19

19:                                               ; preds = %13
  %20 = getelementptr inbounds %"class.xercesc_2_5::XercesNodeTest", ptr %15, i64 0, i32 1
  %21 = load i16, ptr %20, align 8, !tbaa !80
  %22 = getelementptr inbounds %"class.xercesc_2_5::XercesNodeTest", ptr %17, i64 0, i32 1
  %23 = load i16, ptr %22, align 8, !tbaa !80
  %24 = icmp eq i16 %21, %23
  br i1 %24, label %25, label %32

25:                                               ; preds = %19
  %26 = getelementptr inbounds %"class.xercesc_2_5::XercesNodeTest", ptr %15, i64 0, i32 2
  %27 = load ptr, ptr %26, align 8, !tbaa !84
  %28 = getelementptr inbounds %"class.xercesc_2_5::XercesNodeTest", ptr %17, i64 0, i32 2
  %29 = load ptr, ptr %28, align 8, !tbaa !84
  %30 = tail call noundef zeroext i1 @_ZNK11xercesc_2_55QNameeqERKS0_(ptr noundef nonnull align 8 dereferenceable(64) %27, ptr noundef nonnull align 8 dereferenceable(64) %29)
  %31 = xor i1 %30, true
  br label %32

32:                                               ; preds = %2, %4, %10, %13, %19, %25
  %33 = phi i1 [ false, %2 ], [ true, %4 ], [ false, %10 ], [ %31, %25 ], [ false, %13 ], [ true, %19 ]
  ret i1 %33
}

; Function Attrs: uwtable
define dso_local noundef ptr @_ZN11xercesc_2_510XercesStep12createObjectEPNS_13MemoryManagerE(ptr noundef %0) #1 align 2 personality ptr @__gxx_personality_v0 {
  %2 = tail call noundef ptr @_ZN11xercesc_2_57XMemorynwEmPNS_13MemoryManagerE(i64 noundef 24, ptr noundef %0)
  store ptr getelementptr inbounds ({ [7 x ptr] }, ptr @_ZTVN11xercesc_2_510XercesStepE, i64 0, inrange i32 0, i64 2), ptr %2, align 8, !tbaa !77
  %3 = getelementptr inbounds %"class.xercesc_2_5::XercesStep", ptr %2, i64 0, i32 1
  store i16 5, ptr %3, align 8, !tbaa !92
  %4 = getelementptr inbounds %"class.xercesc_2_5::XercesStep", ptr %2, i64 0, i32 2
  store ptr null, ptr %4, align 8, !tbaa !94
  ret ptr %2
}

; Function Attrs: mustprogress nofree norecurse nosync nounwind willreturn memory(none) uwtable
define dso_local noundef zeroext i1 @_ZNK11xercesc_2_510XercesStep14isSerializableEv(ptr nocapture nonnull readnone align 8 %0) unnamed_addr #4 align 2 {
  ret i1 true
}

; Function Attrs: mustprogress nofree norecurse nosync nounwind willreturn memory(none) uwtable
define dso_local noundef nonnull ptr @_ZNK11xercesc_2_510XercesStep12getProtoTypeEv(ptr nocapture nonnull readnone align 8 %0) unnamed_addr #4 align 2 {
  ret ptr @_ZN11xercesc_2_510XercesStep15classXercesStepE
}

; Function Attrs: uwtable
define dso_local void @_ZN11xercesc_2_510XercesStep9serializeERNS_16XSerializeEngineE(ptr noundef nonnull align 8 dereferenceable(24) %0, ptr noundef nonnull align 8 dereferenceable(92) %1) unnamed_addr #1 align 2 {
  %3 = load i16, ptr %1, align 8, !tbaa !88
  %4 = icmp eq i16 %3, 0
  %5 = getelementptr inbounds %"class.xercesc_2_5::XercesStep", ptr %0, i64 0, i32 1
  br i1 %4, label %6, label %11

6:                                                ; preds = %2
  %7 = load i16, ptr %5, align 8, !tbaa !92
  %8 = tail call noundef nonnull align 8 dereferenceable(92) ptr @_ZN11xercesc_2_516XSerializeEnginelsEt(ptr noundef nonnull align 8 dereferenceable(92) %1, i16 noundef zeroext %7)
  %9 = getelementptr inbounds %"class.xercesc_2_5::XercesStep", ptr %0, i64 0, i32 2
  %10 = load ptr, ptr %9, align 8, !tbaa !94
  tail call void @_ZN11xercesc_2_516XSerializeEngine5writeEPNS_13XSerializableE(ptr noundef nonnull align 8 dereferenceable(92) %1, ptr noundef %10)
  br label %15

11:                                               ; preds = %2
  %12 = tail call noundef nonnull align 8 dereferenceable(92) ptr @_ZN11xercesc_2_516XSerializeEnginersERt(ptr noundef nonnull align 8 dereferenceable(92) %1, ptr noundef nonnull align 2 dereferenceable(2) %5)
  %13 = getelementptr inbounds %"class.xercesc_2_5::XercesStep", ptr %0, i64 0, i32 2
  %14 = tail call noundef ptr @_ZN11xercesc_2_516XSerializeEngine4readEPNS_10XProtoTypeE(ptr noundef nonnull align 8 dereferenceable(92) %1, ptr noundef nonnull @_ZN11xercesc_2_514XercesNodeTest19classXercesNodeTestE)
  store ptr %14, ptr %13, align 8, !tbaa !91
  br label %15

15:                                               ; preds = %11, %6
  ret void
}

declare noundef nonnull align 8 dereferenceable(92) ptr @_ZN11xercesc_2_516XSerializeEnginelsEt(ptr noundef nonnull align 8 dereferenceable(92), i16 noundef zeroext) local_unnamed_addr #3

declare noundef nonnull align 8 dereferenceable(92) ptr @_ZN11xercesc_2_516XSerializeEnginersERt(ptr noundef nonnull align 8 dereferenceable(92), ptr noundef nonnull align 2 dereferenceable(2)) local_unnamed_addr #3

; Function Attrs: mustprogress nofree norecurse nosync nounwind willreturn memory(argmem: write) uwtable
define dso_local void @_ZN11xercesc_2_510XercesStepC2EPNS_13MemoryManagerE(ptr nocapture noundef nonnull writeonly align 8 dereferenceable(24) %0, ptr nocapture readnone %1) unnamed_addr #5 align 2 personality ptr @__gxx_personality_v0 {
  store ptr getelementptr inbounds ({ [7 x ptr] }, ptr @_ZTVN11xercesc_2_510XercesStepE, i64 0, inrange i32 0, i64 2), ptr %0, align 8, !tbaa !77
  %3 = getelementptr inbounds %"class.xercesc_2_5::XercesStep", ptr %0, i64 0, i32 1
  store i16 5, ptr %3, align 8, !tbaa !92
  %4 = getelementptr inbounds %"class.xercesc_2_5::XercesStep", ptr %0, i64 0, i32 2
  store ptr null, ptr %4, align 8, !tbaa !94
  ret void
}

; Function Attrs: mustprogress nofree norecurse nosync nounwind willreturn memory(argmem: write) uwtable
define dso_local void @_ZN11xercesc_2_518XercesLocationPathC2EPNS_11RefVectorOfINS_10XercesStepEEE(ptr nocapture noundef nonnull writeonly align 8 dereferenceable(16) %0, ptr noundef %1) unnamed_addr #5 align 2 personality ptr @__gxx_personality_v0 {
  store ptr getelementptr inbounds ({ [7 x ptr] }, ptr @_ZTVN11xercesc_2_518XercesLocationPathE, i64 0, inrange i32 0, i64 2), ptr %0, align 8, !tbaa !77
  %3 = getelementptr inbounds %"class.xercesc_2_5::XercesLocationPath", ptr %0, i64 0, i32 1
  store ptr %1, ptr %3, align 8, !tbaa !95
  ret void
}

; Function Attrs: uwtable
define dso_local noundef zeroext i1 @_ZNK11xercesc_2_518XercesLocationPatheqERKS0_(ptr nocapture noundef nonnull readonly align 8 dereferenceable(16) %0, ptr nocapture noundef nonnull readonly align 8 dereferenceable(16) %1) local_unnamed_addr #1 align 2 personality ptr @__gxx_personality_v0 {
  %3 = getelementptr inbounds %"class.xercesc_2_5::XercesLocationPath", ptr %0, i64 0, i32 1
  %4 = load ptr, ptr %3, align 8, !tbaa !95
  %5 = getelementptr inbounds %"class.xercesc_2_5::BaseRefVectorOf", ptr %4, i64 0, i32 2
  %6 = load i32, ptr %5, align 4, !tbaa !97
  %7 = getelementptr inbounds %"class.xercesc_2_5::XercesLocationPath", ptr %1, i64 0, i32 1
  %8 = load ptr, ptr %7, align 8, !tbaa !95
  %9 = getelementptr inbounds %"class.xercesc_2_5::BaseRefVectorOf", ptr %8, i64 0, i32 2
  %10 = load i32, ptr %9, align 4, !tbaa !97
  %11 = icmp eq i32 %6, %10
  br i1 %11, label %12, label %88

12:                                               ; preds = %2
  %13 = icmp eq i32 %6, 0
  br i1 %13, label %88, label %14

14:                                               ; preds = %12
  %15 = zext i32 %6 to i64
  br label %16

16:                                               ; preds = %14, %84
  %17 = phi i64 [ 0, %14 ], [ %85, %84 ]
  %18 = phi i1 [ false, %14 ], [ %86, %84 ]
  %19 = load ptr, ptr %3, align 8, !tbaa !95
  %20 = getelementptr inbounds %"class.xercesc_2_5::BaseRefVectorOf", ptr %19, i64 0, i32 2
  %21 = load i32, ptr %20, align 4, !tbaa !97
  %22 = zext i32 %21 to i64
  %23 = icmp ult i64 %17, %22
  br i1 %23, label %34, label %24

24:                                               ; preds = %16
  %25 = tail call ptr @__cxa_allocate_exception(i64 48) #14
  %26 = getelementptr inbounds %"class.xercesc_2_5::BaseRefVectorOf", ptr %19, i64 0, i32 5
  %27 = load ptr, ptr %26, align 8, !tbaa !99
  invoke void @_ZN11xercesc_2_530ArrayIndexOutOfBoundsExceptionC2EPKcjNS_10XMLExcepts5CodesEPNS_13MemoryManagerE(ptr noundef nonnull align 8 dereferenceable(48) %25, ptr noundef nonnull @.str.5, i32 noundef 289, i32 noundef 109, ptr noundef %27)
          to label %28 unwind label %32

28:                                               ; preds = %24
  tail call void @__cxa_throw(ptr nonnull %25, ptr nonnull @_ZTIN11xercesc_2_530ArrayIndexOutOfBoundsExceptionE, ptr nonnull @_ZN11xercesc_2_512XMLExceptionD2Ev) #16
  unreachable

29:                                               ; preds = %49, %32
  %30 = phi ptr [ %45, %49 ], [ %25, %32 ]
  %31 = phi { ptr, i32 } [ %50, %49 ], [ %33, %32 ]
  tail call void @__cxa_free_exception(ptr %30) #14
  resume { ptr, i32 } %31

32:                                               ; preds = %24
  %33 = landingpad { ptr, i32 }
          cleanup
  br label %29

34:                                               ; preds = %16
  %35 = getelementptr inbounds %"class.xercesc_2_5::BaseRefVectorOf", ptr %19, i64 0, i32 4
  %36 = load ptr, ptr %35, align 8, !tbaa !100
  %37 = getelementptr inbounds ptr, ptr %36, i64 %17
  %38 = load ptr, ptr %37, align 8, !tbaa !91
  %39 = load ptr, ptr %7, align 8, !tbaa !95
  %40 = getelementptr inbounds %"class.xercesc_2_5::BaseRefVectorOf", ptr %39, i64 0, i32 2
  %41 = load i32, ptr %40, align 4, !tbaa !97
  %42 = zext i32 %41 to i64
  %43 = icmp ult i64 %17, %42
  br i1 %43, label %51, label %44

44:                                               ; preds = %34
  %45 = tail call ptr @__cxa_allocate_exception(i64 48) #14
  %46 = getelementptr inbounds %"class.xercesc_2_5::BaseRefVectorOf", ptr %39, i64 0, i32 5
  %47 = load ptr, ptr %46, align 8, !tbaa !99
  invoke void @_ZN11xercesc_2_530ArrayIndexOutOfBoundsExceptionC2EPKcjNS_10XMLExcepts5CodesEPNS_13MemoryManagerE(ptr noundef nonnull align 8 dereferenceable(48) %45, ptr noundef nonnull @.str.5, i32 noundef 289, i32 noundef 109, ptr noundef %47)
          to label %48 unwind label %49

48:                                               ; preds = %44
  tail call void @__cxa_throw(ptr nonnull %45, ptr nonnull @_ZTIN11xercesc_2_530ArrayIndexOutOfBoundsExceptionE, ptr nonnull @_ZN11xercesc_2_512XMLExceptionD2Ev) #16
  unreachable

49:                                               ; preds = %44
  %50 = landingpad { ptr, i32 }
          cleanup
  br label %29

51:                                               ; preds = %34
  %52 = getelementptr inbounds %"class.xercesc_2_5::BaseRefVectorOf", ptr %39, i64 0, i32 4
  %53 = load ptr, ptr %52, align 8, !tbaa !100
  %54 = getelementptr inbounds ptr, ptr %53, i64 %17
  %55 = load ptr, ptr %54, align 8, !tbaa !91
  %56 = icmp eq ptr %38, %55
  br i1 %56, label %84, label %57

57:                                               ; preds = %51
  %58 = getelementptr inbounds %"class.xercesc_2_5::XercesStep", ptr %38, i64 0, i32 1
  %59 = load i16, ptr %58, align 8, !tbaa !92
  %60 = getelementptr inbounds %"class.xercesc_2_5::XercesStep", ptr %55, i64 0, i32 1
  %61 = load i16, ptr %60, align 8, !tbaa !92
  %62 = icmp eq i16 %59, %61
  br i1 %62, label %63, label %88

63:                                               ; preds = %57
  %64 = add i16 %59, -1
  %65 = icmp ult i16 %64, 2
  br i1 %65, label %66, label %84

66:                                               ; preds = %63
  %67 = getelementptr inbounds %"class.xercesc_2_5::XercesStep", ptr %38, i64 0, i32 2
  %68 = load ptr, ptr %67, align 8, !tbaa !94
  %69 = getelementptr inbounds %"class.xercesc_2_5::XercesStep", ptr %55, i64 0, i32 2
  %70 = load ptr, ptr %69, align 8, !tbaa !94
  %71 = icmp eq ptr %68, %70
  br i1 %71, label %84, label %72

72:                                               ; preds = %66
  %73 = getelementptr inbounds %"class.xercesc_2_5::XercesNodeTest", ptr %68, i64 0, i32 1
  %74 = load i16, ptr %73, align 8, !tbaa !80
  %75 = getelementptr inbounds %"class.xercesc_2_5::XercesNodeTest", ptr %70, i64 0, i32 1
  %76 = load i16, ptr %75, align 8, !tbaa !80
  %77 = icmp eq i16 %74, %76
  br i1 %77, label %78, label %88

78:                                               ; preds = %72
  %79 = getelementptr inbounds %"class.xercesc_2_5::XercesNodeTest", ptr %68, i64 0, i32 2
  %80 = load ptr, ptr %79, align 8, !tbaa !84
  %81 = getelementptr inbounds %"class.xercesc_2_5::XercesNodeTest", ptr %70, i64 0, i32 2
  %82 = load ptr, ptr %81, align 8, !tbaa !84
  %83 = tail call noundef zeroext i1 @_ZNK11xercesc_2_55QNameeqERKS0_(ptr noundef nonnull align 8 dereferenceable(64) %80, ptr noundef nonnull align 8 dereferenceable(64) %82)
  br i1 %83, label %84, label %88

84:                                               ; preds = %66, %63, %51, %78
  %85 = add nuw nsw i64 %17, 1
  %86 = icmp uge i64 %85, %15
  %87 = icmp eq i64 %85, %15
  br i1 %87, label %88, label %16

88:                                               ; preds = %72, %57, %78, %84, %12, %2
  %89 = phi i1 [ false, %2 ], [ true, %12 ], [ %18, %72 ], [ %18, %57 ], [ %18, %78 ], [ %86, %84 ]
  ret i1 %89
}

; Function Attrs: mustprogress nocallback nofree nosync nounwind willreturn memory(argmem: readwrite)
declare void @llvm.lifetime.start.p0(i64 immarg, ptr nocapture) #6

; Function Attrs: mustprogress nocallback nofree nosync nounwind willreturn memory(argmem: readwrite)
declare void @llvm.lifetime.end.p0(i64 immarg, ptr nocapture) #6

; Function Attrs: uwtable
define dso_local noundef zeroext i1 @_ZNK11xercesc_2_518XercesLocationPathneERKS0_(ptr nocapture noundef nonnull readonly align 8 dereferenceable(16) %0, ptr nocapture noundef nonnull readonly align 8 dereferenceable(16) %1) local_unnamed_addr #1 align 2 {
  %3 = tail call noundef zeroext i1 @_ZNK11xercesc_2_518XercesLocationPatheqERKS0_(ptr noundef nonnull align 8 dereferenceable(16) %0, ptr noundef nonnull align 8 dereferenceable(16) %1)
  %4 = xor i1 %3, true
  ret i1 %4
}

; Function Attrs: uwtable
define dso_local noundef ptr @_ZN11xercesc_2_518XercesLocationPath12createObjectEPNS_13MemoryManagerE(ptr noundef %0) #1 align 2 personality ptr @__gxx_personality_v0 {
  %2 = tail call noundef ptr @_ZN11xercesc_2_57XMemorynwEmPNS_13MemoryManagerE(i64 noundef 16, ptr noundef %0)
  store ptr getelementptr inbounds ({ [7 x ptr] }, ptr @_ZTVN11xercesc_2_518XercesLocationPathE, i64 0, inrange i32 0, i64 2), ptr %2, align 8, !tbaa !77
  %3 = getelementptr inbounds %"class.xercesc_2_5::XercesLocationPath", ptr %2, i64 0, i32 1
  store ptr null, ptr %3, align 8, !tbaa !95
  ret ptr %2
}

; Function Attrs: mustprogress nofree norecurse nosync nounwind willreturn memory(none) uwtable
define dso_local noundef zeroext i1 @_ZNK11xercesc_2_518XercesLocationPath14isSerializableEv(ptr nocapture nonnull readnone align 8 %0) unnamed_addr #4 align 2 {
  ret i1 true
}

; Function Attrs: mustprogress nofree norecurse nosync nounwind willreturn memory(none) uwtable
define dso_local noundef nonnull ptr @_ZNK11xercesc_2_518XercesLocationPath12getProtoTypeEv(ptr nocapture nonnull readnone align 8 %0) unnamed_addr #4 align 2 {
  ret ptr @_ZN11xercesc_2_518XercesLocationPath23classXercesLocationPathE
}

; Function Attrs: uwtable
define dso_local void @_ZN11xercesc_2_518XercesLocationPath9serializeERNS_16XSerializeEngineE(ptr noundef nonnull align 8 dereferenceable(16) %0, ptr noundef nonnull align 8 dereferenceable(92) %1) unnamed_addr #1 align 2 {
  %3 = load i16, ptr %1, align 8, !tbaa !88
  %4 = icmp eq i16 %3, 0
  %5 = getelementptr inbounds %"class.xercesc_2_5::XercesLocationPath", ptr %0, i64 0, i32 1
  br i1 %4, label %6, label %8

6:                                                ; preds = %2
  %7 = load ptr, ptr %5, align 8, !tbaa !95
  tail call void @_ZN11xercesc_2_519XTemplateSerializer11storeObjectEPNS_11RefVectorOfINS_10XercesStepEEERNS_16XSerializeEngineE(ptr noundef %7, ptr noundef nonnull align 8 dereferenceable(92) %1)
  br label %9

8:                                                ; preds = %2
  tail call void @_ZN11xercesc_2_519XTemplateSerializer10loadObjectEPPNS_11RefVectorOfINS_10XercesStepEEEibRNS_16XSerializeEngineE(ptr noundef nonnull %5, i32 noundef 8, i1 noundef zeroext true, ptr noundef nonnull align 8 dereferenceable(92) %1)
  br label %9

9:                                                ; preds = %8, %6
  ret void
}

declare void @_ZN11xercesc_2_519XTemplateSerializer11storeObjectEPNS_11RefVectorOfINS_10XercesStepEEERNS_16XSerializeEngineE(ptr noundef, ptr noundef nonnull align 8 dereferenceable(92)) local_unnamed_addr #3

declare void @_ZN11xercesc_2_519XTemplateSerializer10loadObjectEPPNS_11RefVectorOfINS_10XercesStepEEEibRNS_16XSerializeEngineE(ptr noundef, i32 noundef, i1 noundef zeroext, ptr noundef nonnull align 8 dereferenceable(92)) local_unnamed_addr #3

; Function Attrs: mustprogress nofree norecurse nosync nounwind willreturn memory(argmem: write) uwtable
define dso_local void @_ZN11xercesc_2_518XercesLocationPathC2EPNS_13MemoryManagerE(ptr nocapture noundef nonnull writeonly align 8 dereferenceable(16) %0, ptr nocapture readnone %1) unnamed_addr #5 align 2 personality ptr @__gxx_personality_v0 {
  store ptr getelementptr inbounds ({ [7 x ptr] }, ptr @_ZTVN11xercesc_2_518XercesLocationPathE, i64 0, inrange i32 0, i64 2), ptr %0, align 8, !tbaa !77
  %3 = getelementptr inbounds %"class.xercesc_2_5::XercesLocationPath", ptr %0, i64 0, i32 1
  store ptr null, ptr %3, align 8, !tbaa !95
  ret void
}

; Function Attrs: uwtable
define dso_local void @_ZN11xercesc_2_511XercesXPathC2EPKtPNS_13XMLStringPoolEPNS_14NamespaceScopeEjbPNS_13MemoryManagerE(ptr nocapture noundef nonnull align 8 dereferenceable(40) %0, ptr noundef %1, ptr noundef %2, ptr noundef %3, i32 noundef %4, i1 noundef zeroext %5, ptr noundef %6) unnamed_addr #1 align 2 personality ptr @__gxx_personality_v0 {
  store ptr getelementptr inbounds ({ [7 x ptr] }, ptr @_ZTVN11xercesc_2_511XercesXPathE, i64 0, inrange i32 0, i64 2), ptr %0, align 8, !tbaa !77
  %8 = getelementptr inbounds %"class.xercesc_2_5::XercesXPath", ptr %0, i64 0, i32 1
  store i32 %4, ptr %8, align 8, !tbaa !101
  %9 = getelementptr inbounds %"class.xercesc_2_5::XercesXPath", ptr %0, i64 0, i32 2
  %10 = getelementptr inbounds %"class.xercesc_2_5::XercesXPath", ptr %0, i64 0, i32 3
  %11 = getelementptr inbounds %"class.xercesc_2_5::XercesXPath", ptr %0, i64 0, i32 4
  tail call void @llvm.memset.p0.i64(ptr noundef nonnull align 8 dereferenceable(16) %9, i8 0, i64 16, i1 false)
  store ptr %6, ptr %11, align 8, !tbaa !103
  %12 = icmp eq ptr %1, null
  br i1 %12, label %34, label %13

13:                                               ; preds = %7
  %14 = load i16, ptr %1, align 2, !tbaa !104
  %15 = icmp eq i16 %14, 0
  br i1 %15, label %27, label %16

16:                                               ; preds = %13, %16
  %17 = phi ptr [ %18, %16 ], [ %1, %13 ]
  %18 = getelementptr inbounds i16, ptr %17, i64 1
  %19 = load i16, ptr %18, align 2, !tbaa !104
  %20 = icmp eq i16 %19, 0
  br i1 %20, label %21, label %16

21:                                               ; preds = %16
  %22 = ptrtoint ptr %18 to i64
  %23 = ptrtoint ptr %1 to i64
  %24 = sub i64 %22, %23
  %25 = add i64 %24, 2
  %26 = and i64 %25, 8589934590
  br label %27

27:                                               ; preds = %21, %13
  %28 = phi i64 [ %26, %21 ], [ 2, %13 ]
  %29 = load ptr, ptr %6, align 8, !tbaa !77
  %30 = getelementptr inbounds ptr, ptr %29, i64 2
  %31 = load ptr, ptr %30, align 8
  %32 = invoke noundef ptr %31(ptr noundef nonnull align 8 dereferenceable(8) %6, i64 noundef %28)
          to label %33 unwind label %38

33:                                               ; preds = %27
  tail call void @llvm.memcpy.p0.p0.i64(ptr align 2 %32, ptr nonnull align 2 %1, i64 %28, i1 false)
  br label %34

34:                                               ; preds = %33, %7
  %35 = phi ptr [ %32, %33 ], [ null, %7 ]
  store ptr %35, ptr %9, align 8, !tbaa !105
  invoke void @_ZN11xercesc_2_511XercesXPath15parseExpressionEPNS_13XMLStringPoolEPNS_14NamespaceScopeE(ptr noundef nonnull align 8 dereferenceable(40) %0, ptr noundef %2, ptr noundef %3)
          to label %36 unwind label %38

36:                                               ; preds = %34
  br i1 %5, label %37, label %64

37:                                               ; preds = %36
  invoke void @_ZN11xercesc_2_511XercesXPath26checkForSelectedAttributesEv(ptr noundef nonnull align 8 dereferenceable(40) %0)
          to label %64 unwind label %38

38:                                               ; preds = %27, %37, %34
  %39 = landingpad { ptr, i32 }
          catch ptr @_ZTIN11xercesc_2_520OutOfMemoryExceptionE
          catch ptr null
  %40 = extractvalue { ptr, i32 } %39, 0
  %41 = extractvalue { ptr, i32 } %39, 1
  %42 = tail call i32 @llvm.eh.typeid.for(ptr nonnull @_ZTIN11xercesc_2_520OutOfMemoryExceptionE) #14
  %43 = icmp eq i32 %41, %42
  %44 = tail call ptr @__cxa_begin_catch(ptr %40) #14
  br i1 %43, label %45, label %46

45:                                               ; preds = %38
  invoke void @__cxa_rethrow() #16
          to label %70 unwind label %62

46:                                               ; preds = %38
  %47 = load ptr, ptr %11, align 8, !tbaa !103
  %48 = load ptr, ptr %9, align 8, !tbaa !105
  %49 = load ptr, ptr %47, align 8, !tbaa !77
  %50 = getelementptr inbounds ptr, ptr %49, i64 3
  %51 = load ptr, ptr %50, align 8
  invoke void %51(ptr noundef nonnull align 8 dereferenceable(8) %47, ptr noundef %48)
          to label %52 unwind label %60

52:                                               ; preds = %46
  %53 = load ptr, ptr %10, align 8, !tbaa !106
  %54 = icmp eq ptr %53, null
  br i1 %54, label %59, label %55

55:                                               ; preds = %52
  %56 = load ptr, ptr %53, align 8, !tbaa !77
  %57 = getelementptr inbounds ptr, ptr %56, i64 1
  %58 = load ptr, ptr %57, align 8
  invoke void %58(ptr noundef nonnull align 8 dereferenceable(40) %53)
          to label %59 unwind label %60

59:                                               ; preds = %52, %55
  invoke void @__cxa_rethrow() #16
          to label %70 unwind label %60

60:                                               ; preds = %55, %46, %59
  %61 = landingpad { ptr, i32 }
          cleanup
  invoke void @__cxa_end_catch()
          to label %65 unwind label %67

62:                                               ; preds = %45
  %63 = landingpad { ptr, i32 }
          cleanup
  invoke void @__cxa_end_catch()
          to label %65 unwind label %67

64:                                               ; preds = %36, %37
  ret void

65:                                               ; preds = %62, %60
  %66 = phi { ptr, i32 } [ %61, %60 ], [ %63, %62 ]
  resume { ptr, i32 } %66

67:                                               ; preds = %62, %60
  %68 = landingpad { ptr, i32 }
          catch ptr null
  %69 = extractvalue { ptr, i32 } %68, 0
  tail call void @__clang_call_terminate(ptr %69) #15
  unreachable

70:                                               ; preds = %45, %59
  unreachable
}

; Function Attrs: uwtable
define dso_local void @_ZN11xercesc_2_511XercesXPath15parseExpressionEPNS_13XMLStringPoolEPNS_14NamespaceScopeE(ptr nocapture noundef nonnull align 8 dereferenceable(40) %0, ptr noundef %1, ptr noundef %2) local_unnamed_addr #1 align 2 personality ptr @__gxx_personality_v0 {
  %4 = alloca %"class.xercesc_2_5::ValueVectorOf", align 8
  %5 = alloca %"class.xercesc_2_5::XPathScannerForSchema", align 8
  %6 = alloca %"class.xercesc_2_5::QName", align 8
  %7 = alloca %"class.xercesc_2_5::QName", align 8
  %8 = getelementptr inbounds %"class.xercesc_2_5::XercesXPath", ptr %0, i64 0, i32 2
  %9 = load ptr, ptr %8, align 8, !tbaa !105
  %10 = icmp eq ptr %9, null
  br i1 %10, label %1398, label %11

11:                                               ; preds = %3
  %12 = load i16, ptr %9, align 2, !tbaa !104
  %13 = icmp eq i16 %12, 0
  br i1 %13, label %1398, label %14

14:                                               ; preds = %11, %14
  %15 = phi ptr [ %16, %14 ], [ %9, %11 ]
  %16 = getelementptr inbounds i16, ptr %15, i64 1
  %17 = load i16, ptr %16, align 2, !tbaa !104
  %18 = icmp eq i16 %17, 0
  br i1 %18, label %19, label %14

19:                                               ; preds = %14
  %20 = ptrtoint ptr %16 to i64
  %21 = ptrtoint ptr %9 to i64
  %22 = sub i64 %20, %21
  %23 = lshr exact i64 %22, 1
  %24 = trunc i64 %23 to i32
  %25 = icmp eq i32 %24, 0
  br i1 %25, label %1398, label %26

26:                                               ; preds = %19
  call void @llvm.lifetime.start.p0(i64 32, ptr nonnull %4) #14
  %27 = getelementptr inbounds %"class.xercesc_2_5::XercesXPath", ptr %0, i64 0, i32 4
  %28 = load ptr, ptr %27, align 8, !tbaa !103
  store i8 0, ptr %4, align 8, !tbaa !107
  %29 = getelementptr inbounds %"class.xercesc_2_5::ValueVectorOf", ptr %4, i64 0, i32 1
  store i32 0, ptr %29, align 4, !tbaa !67
  %30 = getelementptr inbounds %"class.xercesc_2_5::ValueVectorOf", ptr %4, i64 0, i32 2
  store i32 16, ptr %30, align 8, !tbaa !74
  %31 = getelementptr inbounds %"class.xercesc_2_5::ValueVectorOf", ptr %4, i64 0, i32 3
  store ptr null, ptr %31, align 8, !tbaa !75
  %32 = getelementptr inbounds %"class.xercesc_2_5::ValueVectorOf", ptr %4, i64 0, i32 4
  store ptr %28, ptr %32, align 8, !tbaa !76
  %33 = load ptr, ptr %28, align 8, !tbaa !77
  %34 = getelementptr inbounds ptr, ptr %33, i64 2
  %35 = load ptr, ptr %34, align 8
  %36 = tail call noundef ptr %35(ptr noundef nonnull align 8 dereferenceable(8) %28, i64 noundef 64)
  store ptr %36, ptr %31, align 8, !tbaa !75
  tail call void @llvm.memset.p0.i64(ptr noundef nonnull align 4 dereferenceable(64) %36, i8 0, i64 64, i1 false)
  call void @llvm.lifetime.start.p0(i64 104, ptr nonnull %5) #14
  store ptr getelementptr inbounds ({ [5 x ptr] }, ptr @_ZTVN11xercesc_2_512XPathScannerE, i64 0, inrange i32 0, i64 2), ptr %5, align 8, !tbaa !77
  %37 = getelementptr inbounds %"class.xercesc_2_5::XPathScanner", ptr %5, i64 0, i32 1
  %38 = getelementptr inbounds %"class.xercesc_2_5::XPathScanner", ptr %5, i64 0, i32 22
  call void @llvm.memset.p0.i64(ptr noundef nonnull align 8 dereferenceable(84) %37, i8 0, i64 84, i1 false)
  store ptr %1, ptr %38, align 8, !tbaa !108
  invoke void @_ZN11xercesc_2_512XPathScanner4initEv(ptr noundef nonnull align 8 dereferenceable(104) %5)
          to label %39 unwind label %103

39:                                               ; preds = %26
  store ptr getelementptr inbounds ({ [5 x ptr] }, ptr @_ZTVN11xercesc_2_521XPathScannerForSchemaE, i64 0, inrange i32 0, i64 2), ptr %5, align 8, !tbaa !77
  %40 = load ptr, ptr %8, align 8, !tbaa !105
  %41 = invoke noundef zeroext i1 @_ZN11xercesc_2_512XPathScanner14scanExpressionEPKtiiPNS_13ValueVectorOfIiEE(ptr noundef nonnull align 8 dereferenceable(104) %5, ptr noundef %40, i32 noundef 0, i32 noundef %24, ptr noundef nonnull %4)
          to label %42 unwind label %105

42:                                               ; preds = %39
  %43 = load i32, ptr %29, align 4, !tbaa !67
  %44 = load ptr, ptr %27, align 8, !tbaa !103
  %45 = invoke noundef ptr @_ZN11xercesc_2_57XMemorynwEmPNS_13MemoryManagerE(i64 noundef 40, ptr noundef %44)
          to label %46 unwind label %107

46:                                               ; preds = %42
  %47 = load ptr, ptr %27, align 8, !tbaa !103
  store ptr getelementptr inbounds ({ [9 x ptr] }, ptr @_ZTVN11xercesc_2_515BaseRefVectorOfINS_10XercesStepEEE, i64 0, inrange i32 0, i64 2), ptr %45, align 8, !tbaa !77
  %48 = getelementptr inbounds %"class.xercesc_2_5::BaseRefVectorOf", ptr %45, i64 0, i32 1
  store i8 1, ptr %48, align 8, !tbaa !110
  %49 = getelementptr inbounds %"class.xercesc_2_5::BaseRefVectorOf", ptr %45, i64 0, i32 2
  store i32 0, ptr %49, align 4, !tbaa !97
  %50 = getelementptr inbounds %"class.xercesc_2_5::BaseRefVectorOf", ptr %45, i64 0, i32 3
  store i32 16, ptr %50, align 8, !tbaa !111
  %51 = getelementptr inbounds %"class.xercesc_2_5::BaseRefVectorOf", ptr %45, i64 0, i32 4
  store ptr null, ptr %51, align 8, !tbaa !100
  %52 = getelementptr inbounds %"class.xercesc_2_5::BaseRefVectorOf", ptr %45, i64 0, i32 5
  store ptr %47, ptr %52, align 8, !tbaa !99
  %53 = load ptr, ptr %47, align 8, !tbaa !77
  %54 = getelementptr inbounds ptr, ptr %53, i64 2
  %55 = load ptr, ptr %54, align 8
  %56 = invoke noundef ptr %55(ptr noundef nonnull align 8 dereferenceable(8) %47, i64 noundef 128)
          to label %57 unwind label %109

57:                                               ; preds = %46
  store ptr %56, ptr %51, align 8, !tbaa !100
  store ptr null, ptr %56, align 8, !tbaa !91
  %58 = load ptr, ptr %51, align 8, !tbaa !100
  %59 = getelementptr inbounds ptr, ptr %58, i64 1
  store ptr null, ptr %59, align 8, !tbaa !91
  %60 = load ptr, ptr %51, align 8, !tbaa !100
  %61 = getelementptr inbounds ptr, ptr %60, i64 2
  store ptr null, ptr %61, align 8, !tbaa !91
  %62 = load ptr, ptr %51, align 8, !tbaa !100
  %63 = getelementptr inbounds ptr, ptr %62, i64 3
  store ptr null, ptr %63, align 8, !tbaa !91
  %64 = load ptr, ptr %51, align 8, !tbaa !100
  %65 = getelementptr inbounds ptr, ptr %64, i64 4
  store ptr null, ptr %65, align 8, !tbaa !91
  %66 = load ptr, ptr %51, align 8, !tbaa !100
  %67 = getelementptr inbounds ptr, ptr %66, i64 5
  store ptr null, ptr %67, align 8, !tbaa !91
  %68 = load ptr, ptr %51, align 8, !tbaa !100
  %69 = getelementptr inbounds ptr, ptr %68, i64 6
  store ptr null, ptr %69, align 8, !tbaa !91
  %70 = load ptr, ptr %51, align 8, !tbaa !100
  %71 = getelementptr inbounds ptr, ptr %70, i64 7
  store ptr null, ptr %71, align 8, !tbaa !91
  %72 = load ptr, ptr %51, align 8, !tbaa !100
  %73 = getelementptr inbounds ptr, ptr %72, i64 8
  store ptr null, ptr %73, align 8, !tbaa !91
  %74 = load ptr, ptr %51, align 8, !tbaa !100
  %75 = getelementptr inbounds ptr, ptr %74, i64 9
  store ptr null, ptr %75, align 8, !tbaa !91
  %76 = load ptr, ptr %51, align 8, !tbaa !100
  %77 = getelementptr inbounds ptr, ptr %76, i64 10
  store ptr null, ptr %77, align 8, !tbaa !91
  %78 = load ptr, ptr %51, align 8, !tbaa !100
  %79 = getelementptr inbounds ptr, ptr %78, i64 11
  store ptr null, ptr %79, align 8, !tbaa !91
  %80 = load ptr, ptr %51, align 8, !tbaa !100
  %81 = getelementptr inbounds ptr, ptr %80, i64 12
  store ptr null, ptr %81, align 8, !tbaa !91
  %82 = load ptr, ptr %51, align 8, !tbaa !100
  %83 = getelementptr inbounds ptr, ptr %82, i64 13
  store ptr null, ptr %83, align 8, !tbaa !91
  %84 = load ptr, ptr %51, align 8, !tbaa !100
  %85 = getelementptr inbounds ptr, ptr %84, i64 14
  store ptr null, ptr %85, align 8, !tbaa !91
  %86 = load ptr, ptr %51, align 8, !tbaa !100
  %87 = getelementptr inbounds ptr, ptr %86, i64 15
  store ptr null, ptr %87, align 8, !tbaa !91
  store ptr getelementptr inbounds ({ [9 x ptr] }, ptr @_ZTVN11xercesc_2_511RefVectorOfINS_10XercesStepEEE, i64 0, inrange i32 0, i64 2), ptr %45, align 8, !tbaa !77
  %88 = icmp eq i32 %43, 0
  br i1 %88, label %139, label %89

89:                                               ; preds = %57
  %90 = load ptr, ptr %27, align 8, !tbaa !103
  %91 = invoke noundef ptr @_ZN11xercesc_2_57XMemorynwEmPNS_13MemoryManagerE(i64 noundef 40, ptr noundef %90)
          to label %92 unwind label %111

92:                                               ; preds = %89
  %93 = load ptr, ptr %27, align 8, !tbaa !103
  store ptr getelementptr inbounds ({ [9 x ptr] }, ptr @_ZTVN11xercesc_2_515BaseRefVectorOfINS_18XercesLocationPathEEE, i64 0, inrange i32 0, i64 2), ptr %91, align 8, !tbaa !77
  %94 = getelementptr inbounds %"class.xercesc_2_5::BaseRefVectorOf.1", ptr %91, i64 0, i32 1
  store i8 1, ptr %94, align 8, !tbaa !112
  %95 = getelementptr inbounds %"class.xercesc_2_5::BaseRefVectorOf.1", ptr %91, i64 0, i32 2
  store i32 0, ptr %95, align 4, !tbaa !114
  %96 = getelementptr inbounds %"class.xercesc_2_5::BaseRefVectorOf.1", ptr %91, i64 0, i32 3
  store i32 8, ptr %96, align 8, !tbaa !115
  %97 = getelementptr inbounds %"class.xercesc_2_5::BaseRefVectorOf.1", ptr %91, i64 0, i32 4
  store ptr null, ptr %97, align 8, !tbaa !116
  %98 = getelementptr inbounds %"class.xercesc_2_5::BaseRefVectorOf.1", ptr %91, i64 0, i32 5
  store ptr %93, ptr %98, align 8, !tbaa !117
  %99 = load ptr, ptr %93, align 8, !tbaa !77
  %100 = getelementptr inbounds ptr, ptr %99, i64 2
  %101 = load ptr, ptr %100, align 8
  %102 = invoke noundef ptr %101(ptr noundef nonnull align 8 dereferenceable(8) %93, i64 noundef 64)
          to label %115 unwind label %113

103:                                              ; preds = %26
  %104 = landingpad { ptr, i32 }
          cleanup
  br label %1409

105:                                              ; preds = %39
  %106 = landingpad { ptr, i32 }
          cleanup
  br label %1409

107:                                              ; preds = %42
  %108 = landingpad { ptr, i32 }
          cleanup
  br label %1409

109:                                              ; preds = %46
  %110 = landingpad { ptr, i32 }
          cleanup
  invoke void @_ZN11xercesc_2_57XMemorydlEPvPNS_13MemoryManagerE(ptr noundef nonnull %45, ptr noundef %44)
          to label %1409 unwind label %1417

111:                                              ; preds = %89
  %112 = landingpad { ptr, i32 }
          cleanup
  br label %1403

113:                                              ; preds = %92
  %114 = landingpad { ptr, i32 }
          cleanup
  invoke void @_ZN11xercesc_2_57XMemorydlEPvPNS_13MemoryManagerE(ptr noundef nonnull %91, ptr noundef %90)
          to label %1403 unwind label %1417

115:                                              ; preds = %92
  store ptr %102, ptr %97, align 8, !tbaa !116
  store ptr null, ptr %102, align 8, !tbaa !91
  %116 = load ptr, ptr %97, align 8, !tbaa !116
  %117 = getelementptr inbounds ptr, ptr %116, i64 1
  store ptr null, ptr %117, align 8, !tbaa !91
  %118 = load ptr, ptr %97, align 8, !tbaa !116
  %119 = getelementptr inbounds ptr, ptr %118, i64 2
  store ptr null, ptr %119, align 8, !tbaa !91
  %120 = load ptr, ptr %97, align 8, !tbaa !116
  %121 = getelementptr inbounds ptr, ptr %120, i64 3
  store ptr null, ptr %121, align 8, !tbaa !91
  %122 = load ptr, ptr %97, align 8, !tbaa !116
  %123 = getelementptr inbounds ptr, ptr %122, i64 4
  store ptr null, ptr %123, align 8, !tbaa !91
  %124 = load ptr, ptr %97, align 8, !tbaa !116
  %125 = getelementptr inbounds ptr, ptr %124, i64 5
  store ptr null, ptr %125, align 8, !tbaa !91
  %126 = load ptr, ptr %97, align 8, !tbaa !116
  %127 = getelementptr inbounds ptr, ptr %126, i64 6
  store ptr null, ptr %127, align 8, !tbaa !91
  %128 = load ptr, ptr %97, align 8, !tbaa !116
  %129 = getelementptr inbounds ptr, ptr %128, i64 7
  store ptr null, ptr %129, align 8, !tbaa !91
  store ptr getelementptr inbounds ({ [9 x ptr] }, ptr @_ZTVN11xercesc_2_511RefVectorOfINS_18XercesLocationPathEEE, i64 0, inrange i32 0, i64 2), ptr %91, align 8, !tbaa !77
  %130 = getelementptr inbounds %"class.xercesc_2_5::XercesXPath", ptr %0, i64 0, i32 3
  store ptr %91, ptr %130, align 8, !tbaa !106
  %131 = add i32 %43, -1
  %132 = add i32 %43, -2
  %133 = getelementptr inbounds %"class.xercesc_2_5::XercesXPath", ptr %0, i64 0, i32 1
  %134 = icmp ne ptr %2, null
  %135 = getelementptr inbounds %"class.xercesc_2_5::NamespaceScope", ptr %2, i64 0, i32 2
  %136 = getelementptr inbounds %"class.xercesc_2_5::QName", ptr %7, i64 0, i32 1
  %137 = getelementptr inbounds %"class.xercesc_2_5::QName", ptr %6, i64 0, i32 1
  %138 = getelementptr inbounds %"class.xercesc_2_5::XercesXPath", ptr %0, i64 0, i32 3
  br label %147

139:                                              ; preds = %1299, %57
  %140 = phi ptr [ %45, %57 ], [ %1300, %1299 ]
  %141 = phi ptr [ %45, %57 ], [ %1302, %1299 ]
  %142 = getelementptr inbounds %"class.xercesc_2_5::BaseRefVectorOf", ptr %141, i64 0, i32 2
  %143 = load i32, ptr %142, align 4, !tbaa !97
  %144 = icmp eq i32 %143, 0
  %145 = getelementptr inbounds %"class.xercesc_2_5::XercesXPath", ptr %0, i64 0, i32 3
  %146 = load ptr, ptr %145, align 8, !tbaa !106
  br i1 %144, label %1306, label %1327

147:                                              ; preds = %115, %1299
  %148 = phi i8 [ 1, %115 ], [ %1303, %1299 ]
  %149 = phi ptr [ %45, %115 ], [ %1302, %1299 ]
  %150 = phi i32 [ 0, %115 ], [ %1304, %1299 ]
  %151 = phi ptr [ %45, %115 ], [ %1300, %1299 ]
  %152 = load i32, ptr %29, align 4, !tbaa !67
  %153 = icmp ugt i32 %152, %150
  br i1 %153, label %161, label %154

154:                                              ; preds = %147
  %155 = call ptr @__cxa_allocate_exception(i64 48) #14
  %156 = load ptr, ptr %32, align 8, !tbaa !76
  invoke void @_ZN11xercesc_2_530ArrayIndexOutOfBoundsExceptionC2EPKcjNS_10XMLExcepts5CodesEPNS_13MemoryManagerE(ptr noundef nonnull align 8 dereferenceable(48) %155, ptr noundef nonnull @.str.6, i32 noundef 293, i32 noundef 109, ptr noundef %156)
          to label %157 unwind label %159

157:                                              ; preds = %154
  invoke void @__cxa_throw(ptr nonnull %155, ptr nonnull @_ZTIN11xercesc_2_530ArrayIndexOutOfBoundsExceptionE, ptr nonnull @_ZN11xercesc_2_512XMLExceptionD2Ev) #16
          to label %158 unwind label %166

158:                                              ; preds = %157
  unreachable

159:                                              ; preds = %154
  %160 = landingpad { ptr, i32 }
          cleanup
  call void @__cxa_free_exception(ptr %155) #14
  br label %1399

161:                                              ; preds = %147
  %162 = load ptr, ptr %31, align 8, !tbaa !75
  %163 = zext i32 %150 to i64
  %164 = getelementptr inbounds i32, ptr %162, i64 %163
  %165 = load i32, ptr %164, align 4, !tbaa !79
  switch i32 %165, label %1299 [
    i32 23, label %168
    i32 35, label %305
    i32 6, label %307
    i32 8, label %683
    i32 36, label %688
    i32 9, label %697
    i32 10, label %786
    i32 11, label %787
    i32 4, label %1048
    i32 22, label %1272
    i32 21, label %1277
  ]

166:                                              ; preds = %157
  %167 = landingpad { ptr, i32 }
          cleanup
  br label %1399

168:                                              ; preds = %161
  %169 = icmp eq i32 %150, 0
  br i1 %169, label %170, label %177

170:                                              ; preds = %168
  %171 = call ptr @__cxa_allocate_exception(i64 48) #14
  %172 = load ptr, ptr %27, align 8, !tbaa !103
  invoke void @_ZN11xercesc_2_514XPathExceptionC2EPKcjNS_10XMLExcepts5CodesEPNS_13MemoryManagerE(ptr noundef nonnull align 8 dereferenceable(48) %171, ptr noundef nonnull @.str.3, i32 noundef 489, i32 noundef 296, ptr noundef %172)
          to label %794 unwind label %173

173:                                              ; preds = %170
  %174 = landingpad { ptr, i32 }
          cleanup
  call void @__cxa_free_exception(ptr %171) #14
  br label %1399

175:                                              ; preds = %794
  %176 = landingpad { ptr, i32 }
          cleanup
  br label %1399

177:                                              ; preds = %168
  %178 = getelementptr inbounds %"class.xercesc_2_5::BaseRefVectorOf", ptr %149, i64 0, i32 2
  %179 = load i32, ptr %178, align 4, !tbaa !97
  %180 = icmp eq i32 %179, 0
  br i1 %180, label %181, label %192

181:                                              ; preds = %177
  %182 = call ptr @__cxa_allocate_exception(i64 48) #14
  %183 = load ptr, ptr %27, align 8, !tbaa !103
  invoke void @_ZN11xercesc_2_514XPathExceptionC2EPKcjNS_10XMLExcepts5CodesEPNS_13MemoryManagerE(ptr noundef nonnull align 8 dereferenceable(48) %182, ptr noundef nonnull @.str.3, i32 noundef 495, i32 noundef 297, ptr noundef %183)
          to label %184 unwind label %190

184:                                              ; preds = %181
  invoke void @__cxa_throw(ptr nonnull %182, ptr nonnull @_ZTIN11xercesc_2_514XPathExceptionE, ptr nonnull @_ZN11xercesc_2_512XMLExceptionD2Ev) #16
          to label %1420 unwind label %188

185:                                              ; preds = %192, %253, %207, %243
  %186 = phi ptr [ %151, %192 ], [ %151, %207 ], [ %151, %243 ], [ null, %253 ]
  %187 = landingpad { ptr, i32 }
          cleanup
  br label %1399

188:                                              ; preds = %184
  %189 = landingpad { ptr, i32 }
          cleanup
  br label %1399

190:                                              ; preds = %181
  %191 = landingpad { ptr, i32 }
          cleanup
  call void @__cxa_free_exception(ptr %182) #14
  br label %1399

192:                                              ; preds = %177
  %193 = load ptr, ptr %138, align 8, !tbaa !106
  %194 = load ptr, ptr %27, align 8, !tbaa !103
  %195 = invoke noundef ptr @_ZN11xercesc_2_57XMemorynwEmPNS_13MemoryManagerE(i64 noundef 16, ptr noundef %194)
          to label %196 unwind label %185

196:                                              ; preds = %192
  store ptr getelementptr inbounds ({ [7 x ptr] }, ptr @_ZTVN11xercesc_2_518XercesLocationPathE, i64 0, inrange i32 0, i64 2), ptr %195, align 8, !tbaa !77
  %197 = getelementptr inbounds %"class.xercesc_2_5::XercesLocationPath", ptr %195, i64 0, i32 1
  store ptr %149, ptr %197, align 8, !tbaa !95
  %198 = getelementptr inbounds %"class.xercesc_2_5::BaseRefVectorOf.1", ptr %193, i64 0, i32 2
  %199 = load i32, ptr %198, align 4, !tbaa !114
  %200 = add i32 %199, 1
  %201 = getelementptr inbounds %"class.xercesc_2_5::BaseRefVectorOf.1", ptr %193, i64 0, i32 3
  %202 = load i32, ptr %201, align 8, !tbaa !115
  %203 = icmp ult i32 %200, %202
  br i1 %203, label %204, label %207

204:                                              ; preds = %196
  %205 = getelementptr inbounds %"class.xercesc_2_5::BaseRefVectorOf.1", ptr %193, i64 0, i32 4
  %206 = load ptr, ptr %205, align 8, !tbaa !116
  br label %253

207:                                              ; preds = %196
  %208 = add i32 %202, 32
  %209 = call i32 @llvm.umax.i32(i32 %200, i32 %208)
  %210 = getelementptr inbounds %"class.xercesc_2_5::BaseRefVectorOf.1", ptr %193, i64 0, i32 5
  %211 = load ptr, ptr %210, align 8, !tbaa !117
  %212 = zext i32 %209 to i64
  %213 = shl nuw nsw i64 %212, 3
  %214 = load ptr, ptr %211, align 8, !tbaa !77
  %215 = getelementptr inbounds ptr, ptr %214, i64 2
  %216 = load ptr, ptr %215, align 8
  %217 = invoke noundef ptr %216(ptr noundef nonnull align 8 dereferenceable(8) %211, i64 noundef %213)
          to label %218 unwind label %185

218:                                              ; preds = %207
  %219 = load i32, ptr %198, align 4, !tbaa !114
  %220 = icmp eq i32 %219, 0
  br i1 %220, label %224, label %221

221:                                              ; preds = %218
  %222 = getelementptr inbounds %"class.xercesc_2_5::BaseRefVectorOf.1", ptr %193, i64 0, i32 4
  %223 = zext i32 %219 to i64
  br label %235

224:                                              ; preds = %235, %218
  %225 = icmp ult i32 %219, %209
  br i1 %225, label %226, label %243

226:                                              ; preds = %224
  %227 = zext i32 %219 to i64
  %228 = shl nuw nsw i64 %227, 3
  %229 = getelementptr i8, ptr %217, i64 %228
  %230 = xor i32 %219, -1
  %231 = add i32 %209, %230
  %232 = zext i32 %231 to i64
  %233 = shl nuw nsw i64 %232, 3
  %234 = add nuw nsw i64 %233, 8
  call void @llvm.memset.p0.i64(ptr noundef nonnull align 8 dereferenceable(1) %229, i8 0, i64 %234, i1 false), !tbaa !91
  br label %243

235:                                              ; preds = %235, %221
  %236 = phi i64 [ 0, %221 ], [ %241, %235 ]
  %237 = load ptr, ptr %222, align 8, !tbaa !116
  %238 = getelementptr inbounds ptr, ptr %237, i64 %236
  %239 = load ptr, ptr %238, align 8, !tbaa !91
  %240 = getelementptr inbounds ptr, ptr %217, i64 %236
  store ptr %239, ptr %240, align 8, !tbaa !91
  %241 = add nuw nsw i64 %236, 1
  %242 = icmp eq i64 %241, %223
  br i1 %242, label %224, label %235

243:                                              ; preds = %226, %224
  %244 = load ptr, ptr %210, align 8, !tbaa !117
  %245 = getelementptr inbounds %"class.xercesc_2_5::BaseRefVectorOf.1", ptr %193, i64 0, i32 4
  %246 = load ptr, ptr %245, align 8, !tbaa !116
  %247 = load ptr, ptr %244, align 8, !tbaa !77
  %248 = getelementptr inbounds ptr, ptr %247, i64 3
  %249 = load ptr, ptr %248, align 8
  invoke void %249(ptr noundef nonnull align 8 dereferenceable(8) %244, ptr noundef %246)
          to label %250 unwind label %185

250:                                              ; preds = %243
  store ptr %217, ptr %245, align 8, !tbaa !116
  store i32 %209, ptr %201, align 8, !tbaa !115
  %251 = load i32, ptr %198, align 4, !tbaa !114
  %252 = add i32 %251, 1
  br label %253

253:                                              ; preds = %204, %250
  %254 = phi i32 [ %200, %204 ], [ %252, %250 ]
  %255 = phi i32 [ %199, %204 ], [ %251, %250 ]
  %256 = phi ptr [ %206, %204 ], [ %217, %250 ]
  %257 = zext i32 %255 to i64
  %258 = getelementptr inbounds ptr, ptr %256, i64 %257
  store ptr %195, ptr %258, align 8, !tbaa !91
  store i32 %254, ptr %198, align 4, !tbaa !114
  %259 = load ptr, ptr %27, align 8, !tbaa !103
  %260 = invoke noundef ptr @_ZN11xercesc_2_57XMemorynwEmPNS_13MemoryManagerE(i64 noundef 40, ptr noundef %259)
          to label %261 unwind label %185

261:                                              ; preds = %253
  %262 = load ptr, ptr %27, align 8, !tbaa !103
  store ptr getelementptr inbounds ({ [9 x ptr] }, ptr @_ZTVN11xercesc_2_515BaseRefVectorOfINS_10XercesStepEEE, i64 0, inrange i32 0, i64 2), ptr %260, align 8, !tbaa !77
  %263 = getelementptr inbounds %"class.xercesc_2_5::BaseRefVectorOf", ptr %260, i64 0, i32 1
  store i8 1, ptr %263, align 8, !tbaa !110
  %264 = getelementptr inbounds %"class.xercesc_2_5::BaseRefVectorOf", ptr %260, i64 0, i32 2
  store i32 0, ptr %264, align 4, !tbaa !97
  %265 = getelementptr inbounds %"class.xercesc_2_5::BaseRefVectorOf", ptr %260, i64 0, i32 3
  store i32 16, ptr %265, align 8, !tbaa !111
  %266 = getelementptr inbounds %"class.xercesc_2_5::BaseRefVectorOf", ptr %260, i64 0, i32 4
  store ptr null, ptr %266, align 8, !tbaa !100
  %267 = getelementptr inbounds %"class.xercesc_2_5::BaseRefVectorOf", ptr %260, i64 0, i32 5
  store ptr %262, ptr %267, align 8, !tbaa !99
  %268 = load ptr, ptr %262, align 8, !tbaa !77
  %269 = getelementptr inbounds ptr, ptr %268, i64 2
  %270 = load ptr, ptr %269, align 8
  %271 = invoke noundef ptr %270(ptr noundef nonnull align 8 dereferenceable(8) %262, i64 noundef 128)
          to label %272 unwind label %303

272:                                              ; preds = %261
  store ptr %271, ptr %266, align 8, !tbaa !100
  store ptr null, ptr %271, align 8, !tbaa !91
  %273 = load ptr, ptr %266, align 8, !tbaa !100
  %274 = getelementptr inbounds ptr, ptr %273, i64 1
  store ptr null, ptr %274, align 8, !tbaa !91
  %275 = load ptr, ptr %266, align 8, !tbaa !100
  %276 = getelementptr inbounds ptr, ptr %275, i64 2
  store ptr null, ptr %276, align 8, !tbaa !91
  %277 = load ptr, ptr %266, align 8, !tbaa !100
  %278 = getelementptr inbounds ptr, ptr %277, i64 3
  store ptr null, ptr %278, align 8, !tbaa !91
  %279 = load ptr, ptr %266, align 8, !tbaa !100
  %280 = getelementptr inbounds ptr, ptr %279, i64 4
  store ptr null, ptr %280, align 8, !tbaa !91
  %281 = load ptr, ptr %266, align 8, !tbaa !100
  %282 = getelementptr inbounds ptr, ptr %281, i64 5
  store ptr null, ptr %282, align 8, !tbaa !91
  %283 = load ptr, ptr %266, align 8, !tbaa !100
  %284 = getelementptr inbounds ptr, ptr %283, i64 6
  store ptr null, ptr %284, align 8, !tbaa !91
  %285 = load ptr, ptr %266, align 8, !tbaa !100
  %286 = getelementptr inbounds ptr, ptr %285, i64 7
  store ptr null, ptr %286, align 8, !tbaa !91
  %287 = load ptr, ptr %266, align 8, !tbaa !100
  %288 = getelementptr inbounds ptr, ptr %287, i64 8
  store ptr null, ptr %288, align 8, !tbaa !91
  %289 = load ptr, ptr %266, align 8, !tbaa !100
  %290 = getelementptr inbounds ptr, ptr %289, i64 9
  store ptr null, ptr %290, align 8, !tbaa !91
  %291 = load ptr, ptr %266, align 8, !tbaa !100
  %292 = getelementptr inbounds ptr, ptr %291, i64 10
  store ptr null, ptr %292, align 8, !tbaa !91
  %293 = load ptr, ptr %266, align 8, !tbaa !100
  %294 = getelementptr inbounds ptr, ptr %293, i64 11
  store ptr null, ptr %294, align 8, !tbaa !91
  %295 = load ptr, ptr %266, align 8, !tbaa !100
  %296 = getelementptr inbounds ptr, ptr %295, i64 12
  store ptr null, ptr %296, align 8, !tbaa !91
  %297 = load ptr, ptr %266, align 8, !tbaa !100
  %298 = getelementptr inbounds ptr, ptr %297, i64 13
  store ptr null, ptr %298, align 8, !tbaa !91
  %299 = load ptr, ptr %266, align 8, !tbaa !100
  %300 = getelementptr inbounds ptr, ptr %299, i64 14
  store ptr null, ptr %300, align 8, !tbaa !91
  %301 = load ptr, ptr %266, align 8, !tbaa !100
  %302 = getelementptr inbounds ptr, ptr %301, i64 15
  store ptr null, ptr %302, align 8, !tbaa !91
  store ptr getelementptr inbounds ({ [9 x ptr] }, ptr @_ZTVN11xercesc_2_511RefVectorOfINS_10XercesStepEEE, i64 0, inrange i32 0, i64 2), ptr %260, align 8, !tbaa !77
  br label %1299

303:                                              ; preds = %261
  %304 = landingpad { ptr, i32 }
          cleanup
  invoke void @_ZN11xercesc_2_57XMemorydlEPvPNS_13MemoryManagerE(ptr noundef nonnull %260, ptr noundef %259)
          to label %1409 unwind label %1417

305:                                              ; preds = %161
  %306 = add nuw i32 %150, 1
  br label %307

307:                                              ; preds = %161, %305
  %308 = phi i32 [ %150, %161 ], [ %306, %305 ]
  %309 = icmp eq i32 %308, %131
  br i1 %309, label %310, label %315

310:                                              ; preds = %307
  %311 = call ptr @__cxa_allocate_exception(i64 48) #14
  %312 = load ptr, ptr %27, align 8, !tbaa !103
  invoke void @_ZN11xercesc_2_514XPathExceptionC2EPKcjNS_10XMLExcepts5CodesEPNS_13MemoryManagerE(ptr noundef nonnull align 8 dereferenceable(48) %311, ptr noundef nonnull @.str.3, i32 noundef 514, i32 noundef 298, ptr noundef %312)
          to label %794 unwind label %313

313:                                              ; preds = %310
  %314 = landingpad { ptr, i32 }
          cleanup
  call void @__cxa_free_exception(ptr %311) #14
  br label %1399

315:                                              ; preds = %307
  %316 = add i32 %308, 1
  %317 = icmp ugt i32 %152, %316
  br i1 %317, label %323, label %318

318:                                              ; preds = %315
  %319 = call ptr @__cxa_allocate_exception(i64 48) #14
  %320 = load ptr, ptr %32, align 8, !tbaa !76
  invoke void @_ZN11xercesc_2_530ArrayIndexOutOfBoundsExceptionC2EPKcjNS_10XMLExcepts5CodesEPNS_13MemoryManagerE(ptr noundef nonnull align 8 dereferenceable(48) %319, ptr noundef nonnull @.str.6, i32 noundef 293, i32 noundef 109, ptr noundef %320)
          to label %794 unwind label %321

321:                                              ; preds = %318
  %322 = landingpad { ptr, i32 }
          cleanup
  call void @__cxa_free_exception(ptr %319) #14
  br label %1399

323:                                              ; preds = %315
  %324 = zext i32 %316 to i64
  %325 = getelementptr inbounds i32, ptr %162, i64 %324
  %326 = load i32, ptr %325, align 4, !tbaa !79
  switch i32 %326, label %327 [
    i32 9, label %332
    i32 10, label %421
    i32 11, label %422
  ]

327:                                              ; preds = %323
  %328 = call ptr @__cxa_allocate_exception(i64 48) #14
  %329 = load ptr, ptr %27, align 8, !tbaa !103
  invoke void @_ZN11xercesc_2_514XPathExceptionC2EPKcjNS_10XMLExcepts5CodesEPNS_13MemoryManagerE(ptr noundef nonnull align 8 dereferenceable(48) %328, ptr noundef nonnull @.str.3, i32 noundef 522, i32 noundef 299, ptr noundef %329)
          to label %794 unwind label %330

330:                                              ; preds = %327
  %331 = landingpad { ptr, i32 }
          cleanup
  call void @__cxa_free_exception(ptr %328) #14
  br label %1399

332:                                              ; preds = %323
  %333 = load ptr, ptr %27, align 8, !tbaa !103
  %334 = invoke noundef ptr @_ZN11xercesc_2_57XMemorynwEmPNS_13MemoryManagerE(i64 noundef 24, ptr noundef %333)
          to label %335 unwind label %413

335:                                              ; preds = %332
  %336 = load ptr, ptr %27, align 8, !tbaa !103
  store ptr getelementptr inbounds ({ [7 x ptr] }, ptr @_ZTVN11xercesc_2_514XercesNodeTestE, i64 0, inrange i32 0, i64 2), ptr %334, align 8, !tbaa !77
  %337 = getelementptr inbounds %"class.xercesc_2_5::XercesNodeTest", ptr %334, i64 0, i32 1
  store i16 2, ptr %337, align 8, !tbaa !80
  %338 = invoke noundef ptr @_ZN11xercesc_2_57XMemorynwEmPNS_13MemoryManagerE(i64 noundef 64, ptr noundef %336)
          to label %339 unwind label %415

339:                                              ; preds = %335
  invoke void @_ZN11xercesc_2_55QNameC1EPNS_13MemoryManagerE(ptr noundef nonnull align 8 dereferenceable(64) %338, ptr noundef %336)
          to label %345 unwind label %340

340:                                              ; preds = %339
  %341 = landingpad { ptr, i32 }
          cleanup
  invoke void @_ZN11xercesc_2_57XMemorydlEPvPNS_13MemoryManagerE(ptr noundef %338, ptr noundef %336)
          to label %417 unwind label %342

342:                                              ; preds = %340
  %343 = landingpad { ptr, i32 }
          catch ptr null
  %344 = extractvalue { ptr, i32 } %343, 0
  call void @__clang_call_terminate(ptr %344) #15
  unreachable

345:                                              ; preds = %339
  %346 = getelementptr inbounds %"class.xercesc_2_5::XercesNodeTest", ptr %334, i64 0, i32 2
  store ptr %338, ptr %346, align 8, !tbaa !84
  %347 = load ptr, ptr %27, align 8, !tbaa !103
  %348 = invoke noundef ptr @_ZN11xercesc_2_57XMemorynwEmPNS_13MemoryManagerE(i64 noundef 24, ptr noundef %347)
          to label %349 unwind label %419

349:                                              ; preds = %345
  store ptr getelementptr inbounds ({ [7 x ptr] }, ptr @_ZTVN11xercesc_2_510XercesStepE, i64 0, inrange i32 0, i64 2), ptr %348, align 8, !tbaa !77
  %350 = getelementptr inbounds %"class.xercesc_2_5::XercesStep", ptr %348, i64 0, i32 1
  store i16 2, ptr %350, align 8, !tbaa !92
  %351 = getelementptr inbounds %"class.xercesc_2_5::XercesStep", ptr %348, i64 0, i32 2
  store ptr %334, ptr %351, align 8, !tbaa !94
  %352 = getelementptr inbounds %"class.xercesc_2_5::BaseRefVectorOf", ptr %149, i64 0, i32 2
  %353 = load i32, ptr %352, align 4, !tbaa !97
  %354 = add i32 %353, 1
  %355 = getelementptr inbounds %"class.xercesc_2_5::BaseRefVectorOf", ptr %149, i64 0, i32 3
  %356 = load i32, ptr %355, align 8, !tbaa !111
  %357 = icmp ult i32 %354, %356
  br i1 %357, label %358, label %361

358:                                              ; preds = %349
  %359 = getelementptr inbounds %"class.xercesc_2_5::BaseRefVectorOf", ptr %149, i64 0, i32 4
  %360 = load ptr, ptr %359, align 8, !tbaa !100
  br label %407

361:                                              ; preds = %349
  %362 = add i32 %356, 32
  %363 = call i32 @llvm.umax.i32(i32 %354, i32 %362)
  %364 = getelementptr inbounds %"class.xercesc_2_5::BaseRefVectorOf", ptr %149, i64 0, i32 5
  %365 = load ptr, ptr %364, align 8, !tbaa !99
  %366 = zext i32 %363 to i64
  %367 = shl nuw nsw i64 %366, 3
  %368 = load ptr, ptr %365, align 8, !tbaa !77
  %369 = getelementptr inbounds ptr, ptr %368, i64 2
  %370 = load ptr, ptr %369, align 8
  %371 = invoke noundef ptr %370(ptr noundef nonnull align 8 dereferenceable(8) %365, i64 noundef %367)
          to label %372 unwind label %419

372:                                              ; preds = %361
  %373 = load i32, ptr %352, align 4, !tbaa !97
  %374 = icmp eq i32 %373, 0
  br i1 %374, label %378, label %375

375:                                              ; preds = %372
  %376 = getelementptr inbounds %"class.xercesc_2_5::BaseRefVectorOf", ptr %149, i64 0, i32 4
  %377 = zext i32 %373 to i64
  br label %389

378:                                              ; preds = %389, %372
  %379 = icmp ult i32 %373, %363
  br i1 %379, label %380, label %397

380:                                              ; preds = %378
  %381 = zext i32 %373 to i64
  %382 = shl nuw nsw i64 %381, 3
  %383 = getelementptr i8, ptr %371, i64 %382
  %384 = xor i32 %373, -1
  %385 = add i32 %363, %384
  %386 = zext i32 %385 to i64
  %387 = shl nuw nsw i64 %386, 3
  %388 = add nuw nsw i64 %387, 8
  call void @llvm.memset.p0.i64(ptr noundef nonnull align 8 dereferenceable(1) %383, i8 0, i64 %388, i1 false), !tbaa !91
  br label %397

389:                                              ; preds = %389, %375
  %390 = phi i64 [ 0, %375 ], [ %395, %389 ]
  %391 = load ptr, ptr %376, align 8, !tbaa !100
  %392 = getelementptr inbounds ptr, ptr %391, i64 %390
  %393 = load ptr, ptr %392, align 8, !tbaa !91
  %394 = getelementptr inbounds ptr, ptr %371, i64 %390
  store ptr %393, ptr %394, align 8, !tbaa !91
  %395 = add nuw nsw i64 %390, 1
  %396 = icmp eq i64 %395, %377
  br i1 %396, label %378, label %389

397:                                              ; preds = %380, %378
  %398 = load ptr, ptr %364, align 8, !tbaa !99
  %399 = getelementptr inbounds %"class.xercesc_2_5::BaseRefVectorOf", ptr %149, i64 0, i32 4
  %400 = load ptr, ptr %399, align 8, !tbaa !100
  %401 = load ptr, ptr %398, align 8, !tbaa !77
  %402 = getelementptr inbounds ptr, ptr %401, i64 3
  %403 = load ptr, ptr %402, align 8
  invoke void %403(ptr noundef nonnull align 8 dereferenceable(8) %398, ptr noundef %400)
          to label %404 unwind label %419

404:                                              ; preds = %397
  store ptr %371, ptr %399, align 8, !tbaa !100
  store i32 %363, ptr %355, align 8, !tbaa !111
  %405 = load i32, ptr %352, align 4, !tbaa !97
  %406 = add i32 %405, 1
  br label %407

407:                                              ; preds = %358, %404
  %408 = phi i32 [ %354, %358 ], [ %406, %404 ]
  %409 = phi i32 [ %353, %358 ], [ %405, %404 ]
  %410 = phi ptr [ %360, %358 ], [ %371, %404 ]
  %411 = zext i32 %409 to i64
  %412 = getelementptr inbounds ptr, ptr %410, i64 %411
  store ptr %348, ptr %412, align 8, !tbaa !91
  store i32 %408, ptr %352, align 4, !tbaa !97
  br label %1299

413:                                              ; preds = %332
  %414 = landingpad { ptr, i32 }
          cleanup
  br label %1399

415:                                              ; preds = %335
  %416 = landingpad { ptr, i32 }
          cleanup
  br label %417

417:                                              ; preds = %340, %415
  %418 = phi { ptr, i32 } [ %416, %415 ], [ %341, %340 ]
  invoke void @_ZN11xercesc_2_57XMemorydlEPvPNS_13MemoryManagerE(ptr noundef nonnull %334, ptr noundef %333)
          to label %1399 unwind label %1417

419:                                              ; preds = %397, %361, %345
  %420 = landingpad { ptr, i32 }
          cleanup
  br label %1399

421:                                              ; preds = %323
  br label %422

422:                                              ; preds = %323, %421
  %423 = phi i1 [ true, %421 ], [ false, %323 ]
  %424 = add i32 %308, 2
  %425 = icmp ugt i32 %152, %424
  br i1 %425, label %433, label %426

426:                                              ; preds = %422
  %427 = call ptr @__cxa_allocate_exception(i64 48) #14
  %428 = load ptr, ptr %32, align 8, !tbaa !76
  invoke void @_ZN11xercesc_2_530ArrayIndexOutOfBoundsExceptionC2EPKcjNS_10XMLExcepts5CodesEPNS_13MemoryManagerE(ptr noundef nonnull align 8 dereferenceable(48) %427, ptr noundef nonnull @.str.6, i32 noundef 293, i32 noundef 109, ptr noundef %428)
          to label %429 unwind label %431

429:                                              ; preds = %426
  invoke void @__cxa_throw(ptr nonnull %427, ptr nonnull @_ZTIN11xercesc_2_530ArrayIndexOutOfBoundsExceptionE, ptr nonnull @_ZN11xercesc_2_512XMLExceptionD2Ev) #16
          to label %430 unwind label %451

430:                                              ; preds = %429
  unreachable

431:                                              ; preds = %426
  %432 = landingpad { ptr, i32 }
          cleanup
  call void @__cxa_free_exception(ptr %427) #14
  br label %1399

433:                                              ; preds = %422
  %434 = zext i32 %424 to i64
  %435 = getelementptr inbounds i32, ptr %162, i64 %434
  %436 = load i32, ptr %435, align 4, !tbaa !79
  %437 = load i32, ptr %133, align 8
  %438 = icmp ne i32 %436, -1
  %439 = select i1 %134, i1 %438, i1 false
  br i1 %439, label %440, label %457

440:                                              ; preds = %433
  %441 = load ptr, ptr %1, align 8, !tbaa !77
  %442 = getelementptr inbounds ptr, ptr %441, i64 10
  %443 = load ptr, ptr %442, align 8
  %444 = invoke noundef ptr %443(ptr noundef nonnull align 8 dereferenceable(40) %1, i32 noundef %436)
          to label %445 unwind label %453

445:                                              ; preds = %440
  %446 = load i32, ptr %135, align 8, !tbaa !118
  %447 = add i32 %446, -1
  %448 = invoke noundef i32 @_ZNK11xercesc_2_514NamespaceScope21getNamespaceForPrefixEPKti(ptr noundef nonnull align 8 dereferenceable(72) %2, ptr noundef %444, i32 noundef %447)
          to label %449 unwind label %453

449:                                              ; preds = %445
  %450 = load i32, ptr %133, align 8
  br label %457

451:                                              ; preds = %429
  %452 = landingpad { ptr, i32 }
          cleanup
  br label %1399

453:                                              ; preds = %440, %445
  %454 = landingpad { ptr, i32 }
          cleanup
  br label %1399

455:                                              ; preds = %467
  %456 = landingpad { ptr, i32 }
          cleanup
  br label %1399

457:                                              ; preds = %449, %433
  %458 = phi i32 [ %437, %433 ], [ %450, %449 ]
  %459 = phi i32 [ %437, %433 ], [ %448, %449 ]
  %460 = phi ptr [ @_ZN11xercesc_2_56XMLUni15fgZeroLenStringE, %433 ], [ %444, %449 ]
  %461 = and i1 %134, %438
  %462 = icmp eq i32 %459, %458
  %463 = select i1 %461, i1 %462, i1 false
  br i1 %463, label %464, label %473

464:                                              ; preds = %457
  %465 = call ptr @__cxa_allocate_exception(i64 48) #14
  %466 = load ptr, ptr %27, align 8, !tbaa !103
  invoke void @_ZN11xercesc_2_514XPathExceptionC2EPKcjNS_10XMLExcepts5CodesEPKtS6_S6_S6_PNS_13MemoryManagerE(ptr noundef nonnull align 8 dereferenceable(48) %465, ptr noundef nonnull @.str.3, i32 noundef 554, i32 noundef 300, ptr noundef %460, ptr noundef null, ptr noundef null, ptr noundef null, ptr noundef %466)
          to label %467 unwind label %471

467:                                              ; preds = %569, %464
  %468 = phi ptr [ %465, %464 ], [ %570, %569 ]
  %469 = phi ptr [ @_ZTIN11xercesc_2_514XPathExceptionE, %464 ], [ @_ZTIN11xercesc_2_530ArrayIndexOutOfBoundsExceptionE, %569 ]
  invoke void @__cxa_throw(ptr nonnull %468, ptr nonnull %469, ptr nonnull @_ZN11xercesc_2_512XMLExceptionD2Ev) #16
          to label %470 unwind label %455

470:                                              ; preds = %467
  unreachable

471:                                              ; preds = %464
  %472 = landingpad { ptr, i32 }
          cleanup
  call void @__cxa_free_exception(ptr %465) #14
  br label %1399

473:                                              ; preds = %457
  br i1 %423, label %474, label %565

474:                                              ; preds = %473
  %475 = load ptr, ptr %27, align 8, !tbaa !103
  %476 = invoke noundef ptr @_ZN11xercesc_2_57XMemorynwEmPNS_13MemoryManagerE(i64 noundef 24, ptr noundef %475)
          to label %477 unwind label %557

477:                                              ; preds = %474
  %478 = load ptr, ptr %27, align 8, !tbaa !103
  store ptr getelementptr inbounds ({ [7 x ptr] }, ptr @_ZTVN11xercesc_2_514XercesNodeTestE, i64 0, inrange i32 0, i64 2), ptr %476, align 8, !tbaa !77
  %479 = getelementptr inbounds %"class.xercesc_2_5::XercesNodeTest", ptr %476, i64 0, i32 1
  store i16 4, ptr %479, align 8, !tbaa !80
  %480 = invoke noundef ptr @_ZN11xercesc_2_57XMemorynwEmPNS_13MemoryManagerE(i64 noundef 64, ptr noundef %478)
          to label %481 unwind label %559

481:                                              ; preds = %477
  invoke void @_ZN11xercesc_2_55QNameC1EPNS_13MemoryManagerE(ptr noundef nonnull align 8 dereferenceable(64) %480, ptr noundef %478)
          to label %482 unwind label %485

482:                                              ; preds = %481
  %483 = getelementptr inbounds %"class.xercesc_2_5::XercesNodeTest", ptr %476, i64 0, i32 2
  store ptr %480, ptr %483, align 8, !tbaa !84
  %484 = getelementptr inbounds %"class.xercesc_2_5::QName", ptr %480, i64 0, i32 8
  store i32 %459, ptr %484, align 4, !tbaa !87
  invoke void @_ZN11xercesc_2_55QName9setPrefixEPKt(ptr noundef nonnull align 8 dereferenceable(64) %480, ptr noundef %460)
          to label %490 unwind label %559

485:                                              ; preds = %481
  %486 = landingpad { ptr, i32 }
          cleanup
  invoke void @_ZN11xercesc_2_57XMemorydlEPvPNS_13MemoryManagerE(ptr noundef %480, ptr noundef %478)
          to label %561 unwind label %487

487:                                              ; preds = %485
  %488 = landingpad { ptr, i32 }
          catch ptr null
  %489 = extractvalue { ptr, i32 } %488, 0
  call void @__clang_call_terminate(ptr %489) #15
  unreachable

490:                                              ; preds = %482
  %491 = load ptr, ptr %27, align 8, !tbaa !103
  %492 = invoke noundef ptr @_ZN11xercesc_2_57XMemorynwEmPNS_13MemoryManagerE(i64 noundef 24, ptr noundef %491)
          to label %493 unwind label %563

493:                                              ; preds = %490
  store ptr getelementptr inbounds ({ [7 x ptr] }, ptr @_ZTVN11xercesc_2_510XercesStepE, i64 0, inrange i32 0, i64 2), ptr %492, align 8, !tbaa !77
  %494 = getelementptr inbounds %"class.xercesc_2_5::XercesStep", ptr %492, i64 0, i32 1
  store i16 2, ptr %494, align 8, !tbaa !92
  %495 = getelementptr inbounds %"class.xercesc_2_5::XercesStep", ptr %492, i64 0, i32 2
  store ptr %476, ptr %495, align 8, !tbaa !94
  %496 = getelementptr inbounds %"class.xercesc_2_5::BaseRefVectorOf", ptr %149, i64 0, i32 2
  %497 = load i32, ptr %496, align 4, !tbaa !97
  %498 = add i32 %497, 1
  %499 = getelementptr inbounds %"class.xercesc_2_5::BaseRefVectorOf", ptr %149, i64 0, i32 3
  %500 = load i32, ptr %499, align 8, !tbaa !111
  %501 = icmp ult i32 %498, %500
  br i1 %501, label %502, label %505

502:                                              ; preds = %493
  %503 = getelementptr inbounds %"class.xercesc_2_5::BaseRefVectorOf", ptr %149, i64 0, i32 4
  %504 = load ptr, ptr %503, align 8, !tbaa !100
  br label %551

505:                                              ; preds = %493
  %506 = add i32 %500, 32
  %507 = call i32 @llvm.umax.i32(i32 %498, i32 %506)
  %508 = getelementptr inbounds %"class.xercesc_2_5::BaseRefVectorOf", ptr %149, i64 0, i32 5
  %509 = load ptr, ptr %508, align 8, !tbaa !99
  %510 = zext i32 %507 to i64
  %511 = shl nuw nsw i64 %510, 3
  %512 = load ptr, ptr %509, align 8, !tbaa !77
  %513 = getelementptr inbounds ptr, ptr %512, i64 2
  %514 = load ptr, ptr %513, align 8
  %515 = invoke noundef ptr %514(ptr noundef nonnull align 8 dereferenceable(8) %509, i64 noundef %511)
          to label %516 unwind label %563

516:                                              ; preds = %505
  %517 = load i32, ptr %496, align 4, !tbaa !97
  %518 = icmp eq i32 %517, 0
  br i1 %518, label %522, label %519

519:                                              ; preds = %516
  %520 = getelementptr inbounds %"class.xercesc_2_5::BaseRefVectorOf", ptr %149, i64 0, i32 4
  %521 = zext i32 %517 to i64
  br label %533

522:                                              ; preds = %533, %516
  %523 = icmp ult i32 %517, %507
  br i1 %523, label %524, label %541

524:                                              ; preds = %522
  %525 = zext i32 %517 to i64
  %526 = shl nuw nsw i64 %525, 3
  %527 = getelementptr i8, ptr %515, i64 %526
  %528 = xor i32 %517, -1
  %529 = add i32 %507, %528
  %530 = zext i32 %529 to i64
  %531 = shl nuw nsw i64 %530, 3
  %532 = add nuw nsw i64 %531, 8
  call void @llvm.memset.p0.i64(ptr noundef nonnull align 8 dereferenceable(1) %527, i8 0, i64 %532, i1 false), !tbaa !91
  br label %541

533:                                              ; preds = %533, %519
  %534 = phi i64 [ 0, %519 ], [ %539, %533 ]
  %535 = load ptr, ptr %520, align 8, !tbaa !100
  %536 = getelementptr inbounds ptr, ptr %535, i64 %534
  %537 = load ptr, ptr %536, align 8, !tbaa !91
  %538 = getelementptr inbounds ptr, ptr %515, i64 %534
  store ptr %537, ptr %538, align 8, !tbaa !91
  %539 = add nuw nsw i64 %534, 1
  %540 = icmp eq i64 %539, %521
  br i1 %540, label %522, label %533

541:                                              ; preds = %524, %522
  %542 = load ptr, ptr %508, align 8, !tbaa !99
  %543 = getelementptr inbounds %"class.xercesc_2_5::BaseRefVectorOf", ptr %149, i64 0, i32 4
  %544 = load ptr, ptr %543, align 8, !tbaa !100
  %545 = load ptr, ptr %542, align 8, !tbaa !77
  %546 = getelementptr inbounds ptr, ptr %545, i64 3
  %547 = load ptr, ptr %546, align 8
  invoke void %547(ptr noundef nonnull align 8 dereferenceable(8) %542, ptr noundef %544)
          to label %548 unwind label %563

548:                                              ; preds = %541
  store ptr %515, ptr %543, align 8, !tbaa !100
  store i32 %507, ptr %499, align 8, !tbaa !111
  %549 = load i32, ptr %496, align 4, !tbaa !97
  %550 = add i32 %549, 1
  br label %551

551:                                              ; preds = %502, %548
  %552 = phi i32 [ %498, %502 ], [ %550, %548 ]
  %553 = phi i32 [ %497, %502 ], [ %549, %548 ]
  %554 = phi ptr [ %504, %502 ], [ %515, %548 ]
  %555 = zext i32 %553 to i64
  %556 = getelementptr inbounds ptr, ptr %554, i64 %555
  store ptr %492, ptr %556, align 8, !tbaa !91
  store i32 %552, ptr %496, align 4, !tbaa !97
  br label %1299

557:                                              ; preds = %474
  %558 = landingpad { ptr, i32 }
          cleanup
  br label %1399

559:                                              ; preds = %482, %477
  %560 = landingpad { ptr, i32 }
          cleanup
  br label %561

561:                                              ; preds = %485, %559
  %562 = phi { ptr, i32 } [ %560, %559 ], [ %486, %485 ]
  invoke void @_ZN11xercesc_2_57XMemorydlEPvPNS_13MemoryManagerE(ptr noundef nonnull %476, ptr noundef %475)
          to label %1399 unwind label %1417

563:                                              ; preds = %541, %505, %490
  %564 = landingpad { ptr, i32 }
          cleanup
  br label %1399

565:                                              ; preds = %473
  %566 = add i32 %308, 3
  %567 = load i32, ptr %29, align 4, !tbaa !67
  %568 = icmp ugt i32 %567, %566
  br i1 %568, label %574, label %569

569:                                              ; preds = %565
  %570 = call ptr @__cxa_allocate_exception(i64 48) #14
  %571 = load ptr, ptr %32, align 8, !tbaa !76
  invoke void @_ZN11xercesc_2_530ArrayIndexOutOfBoundsExceptionC2EPKcjNS_10XMLExcepts5CodesEPNS_13MemoryManagerE(ptr noundef nonnull align 8 dereferenceable(48) %570, ptr noundef nonnull @.str.6, i32 noundef 293, i32 noundef 109, ptr noundef %571)
          to label %467 unwind label %572

572:                                              ; preds = %569
  %573 = landingpad { ptr, i32 }
          cleanup
  call void @__cxa_free_exception(ptr %570) #14
  br label %1399

574:                                              ; preds = %565
  %575 = load ptr, ptr %31, align 8, !tbaa !75
  %576 = zext i32 %566 to i64
  %577 = getelementptr inbounds i32, ptr %575, i64 %576
  %578 = load i32, ptr %577, align 4, !tbaa !79
  %579 = load ptr, ptr %1, align 8, !tbaa !77
  %580 = getelementptr inbounds ptr, ptr %579, i64 10
  %581 = load ptr, ptr %580, align 8
  %582 = invoke noundef ptr %581(ptr noundef nonnull align 8 dereferenceable(40) %1, i32 noundef %578)
          to label %583 unwind label %666

583:                                              ; preds = %574
  call void @llvm.lifetime.start.p0(i64 64, ptr nonnull %6) #14
  %584 = load ptr, ptr %27, align 8, !tbaa !103
  invoke void @_ZN11xercesc_2_55QNameC1EPKtS2_jPNS_13MemoryManagerE(ptr noundef nonnull align 8 dereferenceable(64) %6, ptr noundef %460, ptr noundef %582, i32 noundef %459, ptr noundef %584)
          to label %585 unwind label %668

585:                                              ; preds = %583
  %586 = load ptr, ptr %27, align 8, !tbaa !103
  %587 = invoke noundef ptr @_ZN11xercesc_2_57XMemorynwEmPNS_13MemoryManagerE(i64 noundef 24, ptr noundef %586)
          to label %588 unwind label %670

588:                                              ; preds = %585
  store ptr getelementptr inbounds ({ [7 x ptr] }, ptr @_ZTVN11xercesc_2_514XercesNodeTestE, i64 0, inrange i32 0, i64 2), ptr %587, align 8, !tbaa !77
  %589 = getelementptr inbounds %"class.xercesc_2_5::XercesNodeTest", ptr %587, i64 0, i32 1
  store i16 1, ptr %589, align 8, !tbaa !80
  %590 = load ptr, ptr %137, align 8, !tbaa !85
  %591 = invoke noundef ptr @_ZN11xercesc_2_57XMemorynwEmPNS_13MemoryManagerE(i64 noundef 64, ptr noundef %590)
          to label %592 unwind label %672

592:                                              ; preds = %588
  invoke void @_ZN11xercesc_2_55QNameC1ERKS0_(ptr noundef nonnull align 8 dereferenceable(64) %591, ptr noundef nonnull align 8 dereferenceable(64) %6)
          to label %598 unwind label %593

593:                                              ; preds = %592
  %594 = landingpad { ptr, i32 }
          cleanup
  invoke void @_ZN11xercesc_2_57XMemorydlEPvPNS_13MemoryManagerE(ptr noundef %591, ptr noundef %590)
          to label %674 unwind label %595

595:                                              ; preds = %593
  %596 = landingpad { ptr, i32 }
          catch ptr null
  %597 = extractvalue { ptr, i32 } %596, 0
  call void @__clang_call_terminate(ptr %597) #15
  unreachable

598:                                              ; preds = %592
  %599 = getelementptr inbounds %"class.xercesc_2_5::XercesNodeTest", ptr %587, i64 0, i32 2
  store ptr %591, ptr %599, align 8, !tbaa !84
  %600 = load ptr, ptr %27, align 8, !tbaa !103
  %601 = invoke noundef ptr @_ZN11xercesc_2_57XMemorynwEmPNS_13MemoryManagerE(i64 noundef 24, ptr noundef %600)
          to label %602 unwind label %676

602:                                              ; preds = %598
  store ptr getelementptr inbounds ({ [7 x ptr] }, ptr @_ZTVN11xercesc_2_510XercesStepE, i64 0, inrange i32 0, i64 2), ptr %601, align 8, !tbaa !77
  %603 = getelementptr inbounds %"class.xercesc_2_5::XercesStep", ptr %601, i64 0, i32 1
  store i16 2, ptr %603, align 8, !tbaa !92
  %604 = getelementptr inbounds %"class.xercesc_2_5::XercesStep", ptr %601, i64 0, i32 2
  store ptr %587, ptr %604, align 8, !tbaa !94
  %605 = getelementptr inbounds %"class.xercesc_2_5::BaseRefVectorOf", ptr %149, i64 0, i32 2
  %606 = load i32, ptr %605, align 4, !tbaa !97
  %607 = add i32 %606, 1
  %608 = getelementptr inbounds %"class.xercesc_2_5::BaseRefVectorOf", ptr %149, i64 0, i32 3
  %609 = load i32, ptr %608, align 8, !tbaa !111
  %610 = icmp ult i32 %607, %609
  br i1 %610, label %611, label %614

611:                                              ; preds = %602
  %612 = getelementptr inbounds %"class.xercesc_2_5::BaseRefVectorOf", ptr %149, i64 0, i32 4
  %613 = load ptr, ptr %612, align 8, !tbaa !100
  br label %660

614:                                              ; preds = %602
  %615 = add i32 %609, 32
  %616 = call i32 @llvm.umax.i32(i32 %607, i32 %615)
  %617 = getelementptr inbounds %"class.xercesc_2_5::BaseRefVectorOf", ptr %149, i64 0, i32 5
  %618 = load ptr, ptr %617, align 8, !tbaa !99
  %619 = zext i32 %616 to i64
  %620 = shl nuw nsw i64 %619, 3
  %621 = load ptr, ptr %618, align 8, !tbaa !77
  %622 = getelementptr inbounds ptr, ptr %621, i64 2
  %623 = load ptr, ptr %622, align 8
  %624 = invoke noundef ptr %623(ptr noundef nonnull align 8 dereferenceable(8) %618, i64 noundef %620)
          to label %625 unwind label %676

625:                                              ; preds = %614
  %626 = load i32, ptr %605, align 4, !tbaa !97
  %627 = icmp eq i32 %626, 0
  br i1 %627, label %631, label %628

628:                                              ; preds = %625
  %629 = getelementptr inbounds %"class.xercesc_2_5::BaseRefVectorOf", ptr %149, i64 0, i32 4
  %630 = zext i32 %626 to i64
  br label %642

631:                                              ; preds = %642, %625
  %632 = icmp ult i32 %626, %616
  br i1 %632, label %633, label %650

633:                                              ; preds = %631
  %634 = zext i32 %626 to i64
  %635 = shl nuw nsw i64 %634, 3
  %636 = getelementptr i8, ptr %624, i64 %635
  %637 = xor i32 %626, -1
  %638 = add i32 %616, %637
  %639 = zext i32 %638 to i64
  %640 = shl nuw nsw i64 %639, 3
  %641 = add nuw nsw i64 %640, 8
  call void @llvm.memset.p0.i64(ptr noundef nonnull align 8 dereferenceable(1) %636, i8 0, i64 %641, i1 false), !tbaa !91
  br label %650

642:                                              ; preds = %642, %628
  %643 = phi i64 [ 0, %628 ], [ %648, %642 ]
  %644 = load ptr, ptr %629, align 8, !tbaa !100
  %645 = getelementptr inbounds ptr, ptr %644, i64 %643
  %646 = load ptr, ptr %645, align 8, !tbaa !91
  %647 = getelementptr inbounds ptr, ptr %624, i64 %643
  store ptr %646, ptr %647, align 8, !tbaa !91
  %648 = add nuw nsw i64 %643, 1
  %649 = icmp eq i64 %648, %630
  br i1 %649, label %631, label %642

650:                                              ; preds = %633, %631
  %651 = load ptr, ptr %617, align 8, !tbaa !99
  %652 = getelementptr inbounds %"class.xercesc_2_5::BaseRefVectorOf", ptr %149, i64 0, i32 4
  %653 = load ptr, ptr %652, align 8, !tbaa !100
  %654 = load ptr, ptr %651, align 8, !tbaa !77
  %655 = getelementptr inbounds ptr, ptr %654, i64 3
  %656 = load ptr, ptr %655, align 8
  invoke void %656(ptr noundef nonnull align 8 dereferenceable(8) %651, ptr noundef %653)
          to label %657 unwind label %676

657:                                              ; preds = %650
  store ptr %624, ptr %652, align 8, !tbaa !100
  store i32 %616, ptr %608, align 8, !tbaa !111
  %658 = load i32, ptr %605, align 4, !tbaa !97
  %659 = add i32 %658, 1
  br label %660

660:                                              ; preds = %657, %611
  %661 = phi i32 [ %607, %611 ], [ %659, %657 ]
  %662 = phi i32 [ %606, %611 ], [ %658, %657 ]
  %663 = phi ptr [ %613, %611 ], [ %624, %657 ]
  %664 = zext i32 %662 to i64
  %665 = getelementptr inbounds ptr, ptr %663, i64 %664
  store ptr %601, ptr %665, align 8, !tbaa !91
  store i32 %661, ptr %605, align 4, !tbaa !97
  invoke void @_ZN11xercesc_2_55QNameD1Ev(ptr noundef nonnull align 8 dereferenceable(64) %6)
          to label %680 unwind label %668

666:                                              ; preds = %574
  %667 = landingpad { ptr, i32 }
          cleanup
  br label %1399

668:                                              ; preds = %660, %583
  %669 = landingpad { ptr, i32 }
          cleanup
  br label %681

670:                                              ; preds = %585
  %671 = landingpad { ptr, i32 }
          cleanup
  br label %678

672:                                              ; preds = %588
  %673 = landingpad { ptr, i32 }
          cleanup
  br label %674

674:                                              ; preds = %593, %672
  %675 = phi { ptr, i32 } [ %673, %672 ], [ %594, %593 ]
  invoke void @_ZN11xercesc_2_57XMemorydlEPvPNS_13MemoryManagerE(ptr noundef nonnull %587, ptr noundef %586)
          to label %678 unwind label %1417

676:                                              ; preds = %650, %614, %598
  %677 = landingpad { ptr, i32 }
          cleanup
  br label %678

678:                                              ; preds = %676, %674, %670
  %679 = phi { ptr, i32 } [ %675, %674 ], [ %671, %670 ], [ %677, %676 ]
  invoke void @_ZN11xercesc_2_55QNameD1Ev(ptr noundef nonnull align 8 dereferenceable(64) %6)
          to label %681 unwind label %1417

680:                                              ; preds = %660
  call void @llvm.lifetime.end.p0(i64 64, ptr nonnull %6) #14
  br label %1299

681:                                              ; preds = %678, %668
  %682 = phi { ptr, i32 } [ %669, %668 ], [ %679, %678 ]
  call void @llvm.lifetime.end.p0(i64 64, ptr nonnull %6) #14
  br label %1399

683:                                              ; preds = %161
  %684 = call ptr @__cxa_allocate_exception(i64 48) #14
  %685 = load ptr, ptr %27, align 8, !tbaa !103
  invoke void @_ZN11xercesc_2_514XPathExceptionC2EPKcjNS_10XMLExcepts5CodesEPNS_13MemoryManagerE(ptr noundef nonnull align 8 dereferenceable(48) %684, ptr noundef nonnull @.str.3, i32 noundef 585, i32 noundef 301, ptr noundef %685)
          to label %794 unwind label %686

686:                                              ; preds = %683
  %687 = landingpad { ptr, i32 }
          cleanup
  call void @__cxa_free_exception(ptr %684) #14
  br label %1399

688:                                              ; preds = %161
  %689 = icmp eq i32 %150, %132
  br i1 %689, label %690, label %695

690:                                              ; preds = %688
  %691 = call ptr @__cxa_allocate_exception(i64 48) #14
  %692 = load ptr, ptr %27, align 8, !tbaa !103
  invoke void @_ZN11xercesc_2_514XPathExceptionC2EPKcjNS_10XMLExcepts5CodesEPNS_13MemoryManagerE(ptr noundef nonnull align 8 dereferenceable(48) %691, ptr noundef nonnull @.str.3, i32 noundef 593, i32 noundef 302, ptr noundef %692)
          to label %794 unwind label %693

693:                                              ; preds = %690
  %694 = landingpad { ptr, i32 }
          cleanup
  call void @__cxa_free_exception(ptr %691) #14
  br label %1399

695:                                              ; preds = %688
  %696 = add nuw i32 %150, 1
  br label %1299

697:                                              ; preds = %161
  %698 = load ptr, ptr %27, align 8, !tbaa !103
  %699 = invoke noundef ptr @_ZN11xercesc_2_57XMemorynwEmPNS_13MemoryManagerE(i64 noundef 24, ptr noundef %698)
          to label %700 unwind label %778

700:                                              ; preds = %697
  %701 = load ptr, ptr %27, align 8, !tbaa !103
  store ptr getelementptr inbounds ({ [7 x ptr] }, ptr @_ZTVN11xercesc_2_514XercesNodeTestE, i64 0, inrange i32 0, i64 2), ptr %699, align 8, !tbaa !77
  %702 = getelementptr inbounds %"class.xercesc_2_5::XercesNodeTest", ptr %699, i64 0, i32 1
  store i16 2, ptr %702, align 8, !tbaa !80
  %703 = invoke noundef ptr @_ZN11xercesc_2_57XMemorynwEmPNS_13MemoryManagerE(i64 noundef 64, ptr noundef %701)
          to label %704 unwind label %780

704:                                              ; preds = %700
  invoke void @_ZN11xercesc_2_55QNameC1EPNS_13MemoryManagerE(ptr noundef nonnull align 8 dereferenceable(64) %703, ptr noundef %701)
          to label %710 unwind label %705

705:                                              ; preds = %704
  %706 = landingpad { ptr, i32 }
          cleanup
  invoke void @_ZN11xercesc_2_57XMemorydlEPvPNS_13MemoryManagerE(ptr noundef %703, ptr noundef %701)
          to label %782 unwind label %707

707:                                              ; preds = %705
  %708 = landingpad { ptr, i32 }
          catch ptr null
  %709 = extractvalue { ptr, i32 } %708, 0
  call void @__clang_call_terminate(ptr %709) #15
  unreachable

710:                                              ; preds = %704
  %711 = getelementptr inbounds %"class.xercesc_2_5::XercesNodeTest", ptr %699, i64 0, i32 2
  store ptr %703, ptr %711, align 8, !tbaa !84
  %712 = load ptr, ptr %27, align 8, !tbaa !103
  %713 = invoke noundef ptr @_ZN11xercesc_2_57XMemorynwEmPNS_13MemoryManagerE(i64 noundef 24, ptr noundef %712)
          to label %714 unwind label %784

714:                                              ; preds = %710
  store ptr getelementptr inbounds ({ [7 x ptr] }, ptr @_ZTVN11xercesc_2_510XercesStepE, i64 0, inrange i32 0, i64 2), ptr %713, align 8, !tbaa !77
  %715 = getelementptr inbounds %"class.xercesc_2_5::XercesStep", ptr %713, i64 0, i32 1
  store i16 1, ptr %715, align 8, !tbaa !92
  %716 = getelementptr inbounds %"class.xercesc_2_5::XercesStep", ptr %713, i64 0, i32 2
  store ptr %699, ptr %716, align 8, !tbaa !94
  %717 = getelementptr inbounds %"class.xercesc_2_5::BaseRefVectorOf", ptr %149, i64 0, i32 2
  %718 = load i32, ptr %717, align 4, !tbaa !97
  %719 = add i32 %718, 1
  %720 = getelementptr inbounds %"class.xercesc_2_5::BaseRefVectorOf", ptr %149, i64 0, i32 3
  %721 = load i32, ptr %720, align 8, !tbaa !111
  %722 = icmp ult i32 %719, %721
  br i1 %722, label %723, label %726

723:                                              ; preds = %714
  %724 = getelementptr inbounds %"class.xercesc_2_5::BaseRefVectorOf", ptr %149, i64 0, i32 4
  %725 = load ptr, ptr %724, align 8, !tbaa !100
  br label %772

726:                                              ; preds = %714
  %727 = add i32 %721, 32
  %728 = call i32 @llvm.umax.i32(i32 %719, i32 %727)
  %729 = getelementptr inbounds %"class.xercesc_2_5::BaseRefVectorOf", ptr %149, i64 0, i32 5
  %730 = load ptr, ptr %729, align 8, !tbaa !99
  %731 = zext i32 %728 to i64
  %732 = shl nuw nsw i64 %731, 3
  %733 = load ptr, ptr %730, align 8, !tbaa !77
  %734 = getelementptr inbounds ptr, ptr %733, i64 2
  %735 = load ptr, ptr %734, align 8
  %736 = invoke noundef ptr %735(ptr noundef nonnull align 8 dereferenceable(8) %730, i64 noundef %732)
          to label %737 unwind label %784

737:                                              ; preds = %726
  %738 = load i32, ptr %717, align 4, !tbaa !97
  %739 = icmp eq i32 %738, 0
  br i1 %739, label %743, label %740

740:                                              ; preds = %737
  %741 = getelementptr inbounds %"class.xercesc_2_5::BaseRefVectorOf", ptr %149, i64 0, i32 4
  %742 = zext i32 %738 to i64
  br label %754

743:                                              ; preds = %754, %737
  %744 = icmp ult i32 %738, %728
  br i1 %744, label %745, label %762

745:                                              ; preds = %743
  %746 = zext i32 %738 to i64
  %747 = shl nuw nsw i64 %746, 3
  %748 = getelementptr i8, ptr %736, i64 %747
  %749 = xor i32 %738, -1
  %750 = add i32 %728, %749
  %751 = zext i32 %750 to i64
  %752 = shl nuw nsw i64 %751, 3
  %753 = add nuw nsw i64 %752, 8
  call void @llvm.memset.p0.i64(ptr noundef nonnull align 8 dereferenceable(1) %748, i8 0, i64 %753, i1 false), !tbaa !91
  br label %762

754:                                              ; preds = %754, %740
  %755 = phi i64 [ 0, %740 ], [ %760, %754 ]
  %756 = load ptr, ptr %741, align 8, !tbaa !100
  %757 = getelementptr inbounds ptr, ptr %756, i64 %755
  %758 = load ptr, ptr %757, align 8, !tbaa !91
  %759 = getelementptr inbounds ptr, ptr %736, i64 %755
  store ptr %758, ptr %759, align 8, !tbaa !91
  %760 = add nuw nsw i64 %755, 1
  %761 = icmp eq i64 %760, %742
  br i1 %761, label %743, label %754

762:                                              ; preds = %745, %743
  %763 = load ptr, ptr %729, align 8, !tbaa !99
  %764 = getelementptr inbounds %"class.xercesc_2_5::BaseRefVectorOf", ptr %149, i64 0, i32 4
  %765 = load ptr, ptr %764, align 8, !tbaa !100
  %766 = load ptr, ptr %763, align 8, !tbaa !77
  %767 = getelementptr inbounds ptr, ptr %766, i64 3
  %768 = load ptr, ptr %767, align 8
  invoke void %768(ptr noundef nonnull align 8 dereferenceable(8) %763, ptr noundef %765)
          to label %769 unwind label %784

769:                                              ; preds = %762
  store ptr %736, ptr %764, align 8, !tbaa !100
  store i32 %728, ptr %720, align 8, !tbaa !111
  %770 = load i32, ptr %717, align 4, !tbaa !97
  %771 = add i32 %770, 1
  br label %772

772:                                              ; preds = %723, %769
  %773 = phi i32 [ %719, %723 ], [ %771, %769 ]
  %774 = phi i32 [ %718, %723 ], [ %770, %769 ]
  %775 = phi ptr [ %725, %723 ], [ %736, %769 ]
  %776 = zext i32 %774 to i64
  %777 = getelementptr inbounds ptr, ptr %775, i64 %776
  store ptr %713, ptr %777, align 8, !tbaa !91
  store i32 %773, ptr %717, align 4, !tbaa !97
  br label %1299

778:                                              ; preds = %697
  %779 = landingpad { ptr, i32 }
          cleanup
  br label %1399

780:                                              ; preds = %700
  %781 = landingpad { ptr, i32 }
          cleanup
  br label %782

782:                                              ; preds = %705, %780
  %783 = phi { ptr, i32 } [ %781, %780 ], [ %706, %705 ]
  invoke void @_ZN11xercesc_2_57XMemorydlEPvPNS_13MemoryManagerE(ptr noundef nonnull %699, ptr noundef %698)
          to label %1399 unwind label %1417

784:                                              ; preds = %762, %726, %710
  %785 = landingpad { ptr, i32 }
          cleanup
  br label %1399

786:                                              ; preds = %161
  br label %787

787:                                              ; preds = %161, %786
  %788 = phi i1 [ false, %161 ], [ true, %786 ]
  %789 = add nuw i32 %150, 1
  %790 = icmp ugt i32 %152, %789
  br i1 %790, label %800, label %791

791:                                              ; preds = %787
  %792 = call ptr @__cxa_allocate_exception(i64 48) #14
  %793 = load ptr, ptr %32, align 8, !tbaa !76
  invoke void @_ZN11xercesc_2_530ArrayIndexOutOfBoundsExceptionC2EPKcjNS_10XMLExcepts5CodesEPNS_13MemoryManagerE(ptr noundef nonnull align 8 dereferenceable(48) %792, ptr noundef nonnull @.str.6, i32 noundef 293, i32 noundef 109, ptr noundef %793)
          to label %794 unwind label %798

794:                                              ; preds = %170, %1294, %1287, %1279, %1272, %791, %690, %683, %327, %318, %310
  %795 = phi ptr [ %311, %310 ], [ %319, %318 ], [ %328, %327 ], [ %684, %683 ], [ %691, %690 ], [ %792, %791 ], [ %1273, %1272 ], [ %1280, %1279 ], [ %1288, %1287 ], [ %1295, %1294 ], [ %171, %170 ]
  %796 = phi ptr [ @_ZTIN11xercesc_2_514XPathExceptionE, %310 ], [ @_ZTIN11xercesc_2_530ArrayIndexOutOfBoundsExceptionE, %318 ], [ @_ZTIN11xercesc_2_514XPathExceptionE, %327 ], [ @_ZTIN11xercesc_2_514XPathExceptionE, %683 ], [ @_ZTIN11xercesc_2_514XPathExceptionE, %690 ], [ @_ZTIN11xercesc_2_530ArrayIndexOutOfBoundsExceptionE, %791 ], [ @_ZTIN11xercesc_2_514XPathExceptionE, %1272 ], [ @_ZTIN11xercesc_2_514XPathExceptionE, %1279 ], [ @_ZTIN11xercesc_2_514XPathExceptionE, %1287 ], [ @_ZTIN11xercesc_2_514XPathExceptionE, %1294 ], [ @_ZTIN11xercesc_2_514XPathExceptionE, %170 ]
  invoke void @__cxa_throw(ptr nonnull %795, ptr nonnull %796, ptr nonnull @_ZN11xercesc_2_512XMLExceptionD2Ev) #16
          to label %797 unwind label %175

797:                                              ; preds = %794
  unreachable

798:                                              ; preds = %791
  %799 = landingpad { ptr, i32 }
          cleanup
  call void @__cxa_free_exception(ptr %792) #14
  br label %1399

800:                                              ; preds = %787
  %801 = zext i32 %789 to i64
  %802 = getelementptr inbounds i32, ptr %162, i64 %801
  %803 = load i32, ptr %802, align 4, !tbaa !79
  %804 = load i32, ptr %133, align 8
  %805 = icmp ne i32 %803, -1
  %806 = select i1 %134, i1 %805, i1 false
  br i1 %806, label %807, label %822

807:                                              ; preds = %800
  %808 = load ptr, ptr %1, align 8, !tbaa !77
  %809 = getelementptr inbounds ptr, ptr %808, i64 10
  %810 = load ptr, ptr %809, align 8
  %811 = invoke noundef ptr %810(ptr noundef nonnull align 8 dereferenceable(40) %1, i32 noundef %803)
          to label %812 unwind label %818

812:                                              ; preds = %807
  %813 = load i32, ptr %135, align 8, !tbaa !118
  %814 = add i32 %813, -1
  %815 = invoke noundef i32 @_ZNK11xercesc_2_514NamespaceScope21getNamespaceForPrefixEPKti(ptr noundef nonnull align 8 dereferenceable(72) %2, ptr noundef %811, i32 noundef %814)
          to label %816 unwind label %818

816:                                              ; preds = %812
  %817 = load i32, ptr %133, align 8
  br label %822

818:                                              ; preds = %807, %812
  %819 = landingpad { ptr, i32 }
          cleanup
  br label %1399

820:                                              ; preds = %832
  %821 = landingpad { ptr, i32 }
          cleanup
  br label %1399

822:                                              ; preds = %816, %800
  %823 = phi i32 [ %804, %800 ], [ %817, %816 ]
  %824 = phi ptr [ @_ZN11xercesc_2_56XMLUni15fgZeroLenStringE, %800 ], [ %811, %816 ]
  %825 = phi i32 [ %804, %800 ], [ %815, %816 ]
  %826 = and i1 %134, %805
  %827 = icmp eq i32 %825, %823
  %828 = select i1 %826, i1 %827, i1 false
  br i1 %828, label %829, label %838

829:                                              ; preds = %822
  %830 = call ptr @__cxa_allocate_exception(i64 48) #14
  %831 = load ptr, ptr %27, align 8, !tbaa !103
  invoke void @_ZN11xercesc_2_514XPathExceptionC2EPKcjNS_10XMLExcepts5CodesEPKtS6_S6_S6_PNS_13MemoryManagerE(ptr noundef nonnull align 8 dereferenceable(48) %830, ptr noundef nonnull @.str.3, i32 noundef 626, i32 noundef 300, ptr noundef %824, ptr noundef null, ptr noundef null, ptr noundef null, ptr noundef %831)
          to label %832 unwind label %836

832:                                              ; preds = %934, %829
  %833 = phi ptr [ %830, %829 ], [ %935, %934 ]
  %834 = phi ptr [ @_ZTIN11xercesc_2_514XPathExceptionE, %829 ], [ @_ZTIN11xercesc_2_530ArrayIndexOutOfBoundsExceptionE, %934 ]
  invoke void @__cxa_throw(ptr nonnull %833, ptr nonnull %834, ptr nonnull @_ZN11xercesc_2_512XMLExceptionD2Ev) #16
          to label %835 unwind label %820

835:                                              ; preds = %832
  unreachable

836:                                              ; preds = %829
  %837 = landingpad { ptr, i32 }
          cleanup
  call void @__cxa_free_exception(ptr %830) #14
  br label %1399

838:                                              ; preds = %822
  br i1 %788, label %839, label %930

839:                                              ; preds = %838
  %840 = load ptr, ptr %27, align 8, !tbaa !103
  %841 = invoke noundef ptr @_ZN11xercesc_2_57XMemorynwEmPNS_13MemoryManagerE(i64 noundef 24, ptr noundef %840)
          to label %842 unwind label %922

842:                                              ; preds = %839
  %843 = load ptr, ptr %27, align 8, !tbaa !103
  store ptr getelementptr inbounds ({ [7 x ptr] }, ptr @_ZTVN11xercesc_2_514XercesNodeTestE, i64 0, inrange i32 0, i64 2), ptr %841, align 8, !tbaa !77
  %844 = getelementptr inbounds %"class.xercesc_2_5::XercesNodeTest", ptr %841, i64 0, i32 1
  store i16 4, ptr %844, align 8, !tbaa !80
  %845 = invoke noundef ptr @_ZN11xercesc_2_57XMemorynwEmPNS_13MemoryManagerE(i64 noundef 64, ptr noundef %843)
          to label %846 unwind label %924

846:                                              ; preds = %842
  invoke void @_ZN11xercesc_2_55QNameC1EPNS_13MemoryManagerE(ptr noundef nonnull align 8 dereferenceable(64) %845, ptr noundef %843)
          to label %847 unwind label %850

847:                                              ; preds = %846
  %848 = getelementptr inbounds %"class.xercesc_2_5::XercesNodeTest", ptr %841, i64 0, i32 2
  store ptr %845, ptr %848, align 8, !tbaa !84
  %849 = getelementptr inbounds %"class.xercesc_2_5::QName", ptr %845, i64 0, i32 8
  store i32 %825, ptr %849, align 4, !tbaa !87
  invoke void @_ZN11xercesc_2_55QName9setPrefixEPKt(ptr noundef nonnull align 8 dereferenceable(64) %845, ptr noundef %824)
          to label %855 unwind label %924

850:                                              ; preds = %846
  %851 = landingpad { ptr, i32 }
          cleanup
  invoke void @_ZN11xercesc_2_57XMemorydlEPvPNS_13MemoryManagerE(ptr noundef %845, ptr noundef %843)
          to label %926 unwind label %852

852:                                              ; preds = %850
  %853 = landingpad { ptr, i32 }
          catch ptr null
  %854 = extractvalue { ptr, i32 } %853, 0
  call void @__clang_call_terminate(ptr %854) #15
  unreachable

855:                                              ; preds = %847
  %856 = load ptr, ptr %27, align 8, !tbaa !103
  %857 = invoke noundef ptr @_ZN11xercesc_2_57XMemorynwEmPNS_13MemoryManagerE(i64 noundef 24, ptr noundef %856)
          to label %858 unwind label %928

858:                                              ; preds = %855
  store ptr getelementptr inbounds ({ [7 x ptr] }, ptr @_ZTVN11xercesc_2_510XercesStepE, i64 0, inrange i32 0, i64 2), ptr %857, align 8, !tbaa !77
  %859 = getelementptr inbounds %"class.xercesc_2_5::XercesStep", ptr %857, i64 0, i32 1
  store i16 1, ptr %859, align 8, !tbaa !92
  %860 = getelementptr inbounds %"class.xercesc_2_5::XercesStep", ptr %857, i64 0, i32 2
  store ptr %841, ptr %860, align 8, !tbaa !94
  %861 = getelementptr inbounds %"class.xercesc_2_5::BaseRefVectorOf", ptr %149, i64 0, i32 2
  %862 = load i32, ptr %861, align 4, !tbaa !97
  %863 = add i32 %862, 1
  %864 = getelementptr inbounds %"class.xercesc_2_5::BaseRefVectorOf", ptr %149, i64 0, i32 3
  %865 = load i32, ptr %864, align 8, !tbaa !111
  %866 = icmp ult i32 %863, %865
  br i1 %866, label %867, label %870

867:                                              ; preds = %858
  %868 = getelementptr inbounds %"class.xercesc_2_5::BaseRefVectorOf", ptr %149, i64 0, i32 4
  %869 = load ptr, ptr %868, align 8, !tbaa !100
  br label %916

870:                                              ; preds = %858
  %871 = add i32 %865, 32
  %872 = call i32 @llvm.umax.i32(i32 %863, i32 %871)
  %873 = getelementptr inbounds %"class.xercesc_2_5::BaseRefVectorOf", ptr %149, i64 0, i32 5
  %874 = load ptr, ptr %873, align 8, !tbaa !99
  %875 = zext i32 %872 to i64
  %876 = shl nuw nsw i64 %875, 3
  %877 = load ptr, ptr %874, align 8, !tbaa !77
  %878 = getelementptr inbounds ptr, ptr %877, i64 2
  %879 = load ptr, ptr %878, align 8
  %880 = invoke noundef ptr %879(ptr noundef nonnull align 8 dereferenceable(8) %874, i64 noundef %876)
          to label %881 unwind label %928

881:                                              ; preds = %870
  %882 = load i32, ptr %861, align 4, !tbaa !97
  %883 = icmp eq i32 %882, 0
  br i1 %883, label %887, label %884

884:                                              ; preds = %881
  %885 = getelementptr inbounds %"class.xercesc_2_5::BaseRefVectorOf", ptr %149, i64 0, i32 4
  %886 = zext i32 %882 to i64
  br label %898

887:                                              ; preds = %898, %881
  %888 = icmp ult i32 %882, %872
  br i1 %888, label %889, label %906

889:                                              ; preds = %887
  %890 = zext i32 %882 to i64
  %891 = shl nuw nsw i64 %890, 3
  %892 = getelementptr i8, ptr %880, i64 %891
  %893 = xor i32 %882, -1
  %894 = add i32 %872, %893
  %895 = zext i32 %894 to i64
  %896 = shl nuw nsw i64 %895, 3
  %897 = add nuw nsw i64 %896, 8
  call void @llvm.memset.p0.i64(ptr noundef nonnull align 8 dereferenceable(1) %892, i8 0, i64 %897, i1 false), !tbaa !91
  br label %906

898:                                              ; preds = %898, %884
  %899 = phi i64 [ 0, %884 ], [ %904, %898 ]
  %900 = load ptr, ptr %885, align 8, !tbaa !100
  %901 = getelementptr inbounds ptr, ptr %900, i64 %899
  %902 = load ptr, ptr %901, align 8, !tbaa !91
  %903 = getelementptr inbounds ptr, ptr %880, i64 %899
  store ptr %902, ptr %903, align 8, !tbaa !91
  %904 = add nuw nsw i64 %899, 1
  %905 = icmp eq i64 %904, %886
  br i1 %905, label %887, label %898

906:                                              ; preds = %889, %887
  %907 = load ptr, ptr %873, align 8, !tbaa !99
  %908 = getelementptr inbounds %"class.xercesc_2_5::BaseRefVectorOf", ptr %149, i64 0, i32 4
  %909 = load ptr, ptr %908, align 8, !tbaa !100
  %910 = load ptr, ptr %907, align 8, !tbaa !77
  %911 = getelementptr inbounds ptr, ptr %910, i64 3
  %912 = load ptr, ptr %911, align 8
  invoke void %912(ptr noundef nonnull align 8 dereferenceable(8) %907, ptr noundef %909)
          to label %913 unwind label %928

913:                                              ; preds = %906
  store ptr %880, ptr %908, align 8, !tbaa !100
  store i32 %872, ptr %864, align 8, !tbaa !111
  %914 = load i32, ptr %861, align 4, !tbaa !97
  %915 = add i32 %914, 1
  br label %916

916:                                              ; preds = %867, %913
  %917 = phi i32 [ %863, %867 ], [ %915, %913 ]
  %918 = phi i32 [ %862, %867 ], [ %914, %913 ]
  %919 = phi ptr [ %869, %867 ], [ %880, %913 ]
  %920 = zext i32 %918 to i64
  %921 = getelementptr inbounds ptr, ptr %919, i64 %920
  store ptr %857, ptr %921, align 8, !tbaa !91
  store i32 %917, ptr %861, align 4, !tbaa !97
  br label %1299

922:                                              ; preds = %839
  %923 = landingpad { ptr, i32 }
          cleanup
  br label %1399

924:                                              ; preds = %847, %842
  %925 = landingpad { ptr, i32 }
          cleanup
  br label %926

926:                                              ; preds = %850, %924
  %927 = phi { ptr, i32 } [ %925, %924 ], [ %851, %850 ]
  invoke void @_ZN11xercesc_2_57XMemorydlEPvPNS_13MemoryManagerE(ptr noundef nonnull %841, ptr noundef %840)
          to label %1399 unwind label %1417

928:                                              ; preds = %906, %870, %855
  %929 = landingpad { ptr, i32 }
          cleanup
  br label %1399

930:                                              ; preds = %838
  %931 = add nuw i32 %150, 2
  %932 = load i32, ptr %29, align 4, !tbaa !67
  %933 = icmp ugt i32 %932, %931
  br i1 %933, label %939, label %934

934:                                              ; preds = %930
  %935 = call ptr @__cxa_allocate_exception(i64 48) #14
  %936 = load ptr, ptr %32, align 8, !tbaa !76
  invoke void @_ZN11xercesc_2_530ArrayIndexOutOfBoundsExceptionC2EPKcjNS_10XMLExcepts5CodesEPNS_13MemoryManagerE(ptr noundef nonnull align 8 dereferenceable(48) %935, ptr noundef nonnull @.str.6, i32 noundef 293, i32 noundef 109, ptr noundef %936)
          to label %832 unwind label %937

937:                                              ; preds = %934
  %938 = landingpad { ptr, i32 }
          cleanup
  call void @__cxa_free_exception(ptr %935) #14
  br label %1399

939:                                              ; preds = %930
  %940 = load ptr, ptr %31, align 8, !tbaa !75
  %941 = zext i32 %931 to i64
  %942 = getelementptr inbounds i32, ptr %940, i64 %941
  %943 = load i32, ptr %942, align 4, !tbaa !79
  %944 = load ptr, ptr %1, align 8, !tbaa !77
  %945 = getelementptr inbounds ptr, ptr %944, i64 10
  %946 = load ptr, ptr %945, align 8
  %947 = invoke noundef ptr %946(ptr noundef nonnull align 8 dereferenceable(40) %1, i32 noundef %943)
          to label %948 unwind label %1031

948:                                              ; preds = %939
  call void @llvm.lifetime.start.p0(i64 64, ptr nonnull %7) #14
  %949 = load ptr, ptr %27, align 8, !tbaa !103
  invoke void @_ZN11xercesc_2_55QNameC1EPKtS2_jPNS_13MemoryManagerE(ptr noundef nonnull align 8 dereferenceable(64) %7, ptr noundef %824, ptr noundef %947, i32 noundef %825, ptr noundef %949)
          to label %950 unwind label %1033

950:                                              ; preds = %948
  %951 = load ptr, ptr %27, align 8, !tbaa !103
  %952 = invoke noundef ptr @_ZN11xercesc_2_57XMemorynwEmPNS_13MemoryManagerE(i64 noundef 24, ptr noundef %951)
          to label %953 unwind label %1035

953:                                              ; preds = %950
  store ptr getelementptr inbounds ({ [7 x ptr] }, ptr @_ZTVN11xercesc_2_514XercesNodeTestE, i64 0, inrange i32 0, i64 2), ptr %952, align 8, !tbaa !77
  %954 = getelementptr inbounds %"class.xercesc_2_5::XercesNodeTest", ptr %952, i64 0, i32 1
  store i16 1, ptr %954, align 8, !tbaa !80
  %955 = load ptr, ptr %136, align 8, !tbaa !85
  %956 = invoke noundef ptr @_ZN11xercesc_2_57XMemorynwEmPNS_13MemoryManagerE(i64 noundef 64, ptr noundef %955)
          to label %957 unwind label %1037

957:                                              ; preds = %953
  invoke void @_ZN11xercesc_2_55QNameC1ERKS0_(ptr noundef nonnull align 8 dereferenceable(64) %956, ptr noundef nonnull align 8 dereferenceable(64) %7)
          to label %963 unwind label %958

958:                                              ; preds = %957
  %959 = landingpad { ptr, i32 }
          cleanup
  invoke void @_ZN11xercesc_2_57XMemorydlEPvPNS_13MemoryManagerE(ptr noundef %956, ptr noundef %955)
          to label %1039 unwind label %960

960:                                              ; preds = %958
  %961 = landingpad { ptr, i32 }
          catch ptr null
  %962 = extractvalue { ptr, i32 } %961, 0
  call void @__clang_call_terminate(ptr %962) #15
  unreachable

963:                                              ; preds = %957
  %964 = getelementptr inbounds %"class.xercesc_2_5::XercesNodeTest", ptr %952, i64 0, i32 2
  store ptr %956, ptr %964, align 8, !tbaa !84
  %965 = load ptr, ptr %27, align 8, !tbaa !103
  %966 = invoke noundef ptr @_ZN11xercesc_2_57XMemorynwEmPNS_13MemoryManagerE(i64 noundef 24, ptr noundef %965)
          to label %967 unwind label %1041

967:                                              ; preds = %963
  store ptr getelementptr inbounds ({ [7 x ptr] }, ptr @_ZTVN11xercesc_2_510XercesStepE, i64 0, inrange i32 0, i64 2), ptr %966, align 8, !tbaa !77
  %968 = getelementptr inbounds %"class.xercesc_2_5::XercesStep", ptr %966, i64 0, i32 1
  store i16 1, ptr %968, align 8, !tbaa !92
  %969 = getelementptr inbounds %"class.xercesc_2_5::XercesStep", ptr %966, i64 0, i32 2
  store ptr %952, ptr %969, align 8, !tbaa !94
  %970 = getelementptr inbounds %"class.xercesc_2_5::BaseRefVectorOf", ptr %149, i64 0, i32 2
  %971 = load i32, ptr %970, align 4, !tbaa !97
  %972 = add i32 %971, 1
  %973 = getelementptr inbounds %"class.xercesc_2_5::BaseRefVectorOf", ptr %149, i64 0, i32 3
  %974 = load i32, ptr %973, align 8, !tbaa !111
  %975 = icmp ult i32 %972, %974
  br i1 %975, label %976, label %979

976:                                              ; preds = %967
  %977 = getelementptr inbounds %"class.xercesc_2_5::BaseRefVectorOf", ptr %149, i64 0, i32 4
  %978 = load ptr, ptr %977, align 8, !tbaa !100
  br label %1025

979:                                              ; preds = %967
  %980 = add i32 %974, 32
  %981 = call i32 @llvm.umax.i32(i32 %972, i32 %980)
  %982 = getelementptr inbounds %"class.xercesc_2_5::BaseRefVectorOf", ptr %149, i64 0, i32 5
  %983 = load ptr, ptr %982, align 8, !tbaa !99
  %984 = zext i32 %981 to i64
  %985 = shl nuw nsw i64 %984, 3
  %986 = load ptr, ptr %983, align 8, !tbaa !77
  %987 = getelementptr inbounds ptr, ptr %986, i64 2
  %988 = load ptr, ptr %987, align 8
  %989 = invoke noundef ptr %988(ptr noundef nonnull align 8 dereferenceable(8) %983, i64 noundef %985)
          to label %990 unwind label %1041

990:                                              ; preds = %979
  %991 = load i32, ptr %970, align 4, !tbaa !97
  %992 = icmp eq i32 %991, 0
  br i1 %992, label %996, label %993

993:                                              ; preds = %990
  %994 = getelementptr inbounds %"class.xercesc_2_5::BaseRefVectorOf", ptr %149, i64 0, i32 4
  %995 = zext i32 %991 to i64
  br label %1007

996:                                              ; preds = %1007, %990
  %997 = icmp ult i32 %991, %981
  br i1 %997, label %998, label %1015

998:                                              ; preds = %996
  %999 = zext i32 %991 to i64
  %1000 = shl nuw nsw i64 %999, 3
  %1001 = getelementptr i8, ptr %989, i64 %1000
  %1002 = xor i32 %991, -1
  %1003 = add i32 %981, %1002
  %1004 = zext i32 %1003 to i64
  %1005 = shl nuw nsw i64 %1004, 3
  %1006 = add nuw nsw i64 %1005, 8
  call void @llvm.memset.p0.i64(ptr noundef nonnull align 8 dereferenceable(1) %1001, i8 0, i64 %1006, i1 false), !tbaa !91
  br label %1015

1007:                                             ; preds = %1007, %993
  %1008 = phi i64 [ 0, %993 ], [ %1013, %1007 ]
  %1009 = load ptr, ptr %994, align 8, !tbaa !100
  %1010 = getelementptr inbounds ptr, ptr %1009, i64 %1008
  %1011 = load ptr, ptr %1010, align 8, !tbaa !91
  %1012 = getelementptr inbounds ptr, ptr %989, i64 %1008
  store ptr %1011, ptr %1012, align 8, !tbaa !91
  %1013 = add nuw nsw i64 %1008, 1
  %1014 = icmp eq i64 %1013, %995
  br i1 %1014, label %996, label %1007

1015:                                             ; preds = %998, %996
  %1016 = load ptr, ptr %982, align 8, !tbaa !99
  %1017 = getelementptr inbounds %"class.xercesc_2_5::BaseRefVectorOf", ptr %149, i64 0, i32 4
  %1018 = load ptr, ptr %1017, align 8, !tbaa !100
  %1019 = load ptr, ptr %1016, align 8, !tbaa !77
  %1020 = getelementptr inbounds ptr, ptr %1019, i64 3
  %1021 = load ptr, ptr %1020, align 8
  invoke void %1021(ptr noundef nonnull align 8 dereferenceable(8) %1016, ptr noundef %1018)
          to label %1022 unwind label %1041

1022:                                             ; preds = %1015
  store ptr %989, ptr %1017, align 8, !tbaa !100
  store i32 %981, ptr %973, align 8, !tbaa !111
  %1023 = load i32, ptr %970, align 4, !tbaa !97
  %1024 = add i32 %1023, 1
  br label %1025

1025:                                             ; preds = %1022, %976
  %1026 = phi i32 [ %972, %976 ], [ %1024, %1022 ]
  %1027 = phi i32 [ %971, %976 ], [ %1023, %1022 ]
  %1028 = phi ptr [ %978, %976 ], [ %989, %1022 ]
  %1029 = zext i32 %1027 to i64
  %1030 = getelementptr inbounds ptr, ptr %1028, i64 %1029
  store ptr %966, ptr %1030, align 8, !tbaa !91
  store i32 %1026, ptr %970, align 4, !tbaa !97
  invoke void @_ZN11xercesc_2_55QNameD1Ev(ptr noundef nonnull align 8 dereferenceable(64) %7)
          to label %1045 unwind label %1033

1031:                                             ; preds = %939
  %1032 = landingpad { ptr, i32 }
          cleanup
  br label %1399

1033:                                             ; preds = %1025, %948
  %1034 = landingpad { ptr, i32 }
          cleanup
  br label %1046

1035:                                             ; preds = %950
  %1036 = landingpad { ptr, i32 }
          cleanup
  br label %1043

1037:                                             ; preds = %953
  %1038 = landingpad { ptr, i32 }
          cleanup
  br label %1039

1039:                                             ; preds = %958, %1037
  %1040 = phi { ptr, i32 } [ %1038, %1037 ], [ %959, %958 ]
  invoke void @_ZN11xercesc_2_57XMemorydlEPvPNS_13MemoryManagerE(ptr noundef nonnull %952, ptr noundef %951)
          to label %1043 unwind label %1417

1041:                                             ; preds = %1015, %979, %963
  %1042 = landingpad { ptr, i32 }
          cleanup
  br label %1043

1043:                                             ; preds = %1041, %1039, %1035
  %1044 = phi { ptr, i32 } [ %1040, %1039 ], [ %1036, %1035 ], [ %1042, %1041 ]
  invoke void @_ZN11xercesc_2_55QNameD1Ev(ptr noundef nonnull align 8 dereferenceable(64) %7)
          to label %1046 unwind label %1417

1045:                                             ; preds = %1025
  call void @llvm.lifetime.end.p0(i64 64, ptr nonnull %7) #14
  br label %1299

1046:                                             ; preds = %1043, %1033
  %1047 = phi { ptr, i32 } [ %1034, %1033 ], [ %1044, %1043 ]
  call void @llvm.lifetime.end.p0(i64 64, ptr nonnull %7) #14
  br label %1399

1048:                                             ; preds = %161
  %1049 = load ptr, ptr %27, align 8, !tbaa !103
  %1050 = invoke noundef ptr @_ZN11xercesc_2_57XMemorynwEmPNS_13MemoryManagerE(i64 noundef 24, ptr noundef %1049)
          to label %1051 unwind label %1157

1051:                                             ; preds = %1048
  %1052 = load ptr, ptr %27, align 8, !tbaa !103
  store ptr getelementptr inbounds ({ [7 x ptr] }, ptr @_ZTVN11xercesc_2_514XercesNodeTestE, i64 0, inrange i32 0, i64 2), ptr %1050, align 8, !tbaa !77
  %1053 = getelementptr inbounds %"class.xercesc_2_5::XercesNodeTest", ptr %1050, i64 0, i32 1
  store i16 3, ptr %1053, align 8, !tbaa !80
  %1054 = invoke noundef ptr @_ZN11xercesc_2_57XMemorynwEmPNS_13MemoryManagerE(i64 noundef 64, ptr noundef %1052)
          to label %1055 unwind label %1159

1055:                                             ; preds = %1051
  invoke void @_ZN11xercesc_2_55QNameC1EPNS_13MemoryManagerE(ptr noundef nonnull align 8 dereferenceable(64) %1054, ptr noundef %1052)
          to label %1061 unwind label %1056

1056:                                             ; preds = %1055
  %1057 = landingpad { ptr, i32 }
          cleanup
  invoke void @_ZN11xercesc_2_57XMemorydlEPvPNS_13MemoryManagerE(ptr noundef %1054, ptr noundef %1052)
          to label %1161 unwind label %1058

1058:                                             ; preds = %1056
  %1059 = landingpad { ptr, i32 }
          catch ptr null
  %1060 = extractvalue { ptr, i32 } %1059, 0
  call void @__clang_call_terminate(ptr %1060) #15
  unreachable

1061:                                             ; preds = %1055
  %1062 = getelementptr inbounds %"class.xercesc_2_5::XercesNodeTest", ptr %1050, i64 0, i32 2
  store ptr %1054, ptr %1062, align 8, !tbaa !84
  %1063 = load ptr, ptr %27, align 8, !tbaa !103
  %1064 = invoke noundef ptr @_ZN11xercesc_2_57XMemorynwEmPNS_13MemoryManagerE(i64 noundef 24, ptr noundef %1063)
          to label %1065 unwind label %1163

1065:                                             ; preds = %1061
  store ptr getelementptr inbounds ({ [7 x ptr] }, ptr @_ZTVN11xercesc_2_510XercesStepE, i64 0, inrange i32 0, i64 2), ptr %1064, align 8, !tbaa !77
  %1066 = getelementptr inbounds %"class.xercesc_2_5::XercesStep", ptr %1064, i64 0, i32 1
  store i16 3, ptr %1066, align 8, !tbaa !92
  %1067 = getelementptr inbounds %"class.xercesc_2_5::XercesStep", ptr %1064, i64 0, i32 2
  store ptr %1050, ptr %1067, align 8, !tbaa !94
  %1068 = getelementptr inbounds %"class.xercesc_2_5::BaseRefVectorOf", ptr %149, i64 0, i32 2
  %1069 = load i32, ptr %1068, align 4, !tbaa !97
  %1070 = add i32 %1069, 1
  %1071 = getelementptr inbounds %"class.xercesc_2_5::BaseRefVectorOf", ptr %149, i64 0, i32 3
  %1072 = load i32, ptr %1071, align 8, !tbaa !111
  %1073 = icmp ult i32 %1070, %1072
  br i1 %1073, label %1074, label %1077

1074:                                             ; preds = %1065
  %1075 = getelementptr inbounds %"class.xercesc_2_5::BaseRefVectorOf", ptr %149, i64 0, i32 4
  %1076 = load ptr, ptr %1075, align 8, !tbaa !100
  br label %1123

1077:                                             ; preds = %1065
  %1078 = add i32 %1072, 32
  %1079 = call i32 @llvm.umax.i32(i32 %1070, i32 %1078)
  %1080 = getelementptr inbounds %"class.xercesc_2_5::BaseRefVectorOf", ptr %149, i64 0, i32 5
  %1081 = load ptr, ptr %1080, align 8, !tbaa !99
  %1082 = zext i32 %1079 to i64
  %1083 = shl nuw nsw i64 %1082, 3
  %1084 = load ptr, ptr %1081, align 8, !tbaa !77
  %1085 = getelementptr inbounds ptr, ptr %1084, i64 2
  %1086 = load ptr, ptr %1085, align 8
  %1087 = invoke noundef ptr %1086(ptr noundef nonnull align 8 dereferenceable(8) %1081, i64 noundef %1083)
          to label %1088 unwind label %1163

1088:                                             ; preds = %1077
  %1089 = load i32, ptr %1068, align 4, !tbaa !97
  %1090 = icmp eq i32 %1089, 0
  br i1 %1090, label %1094, label %1091

1091:                                             ; preds = %1088
  %1092 = getelementptr inbounds %"class.xercesc_2_5::BaseRefVectorOf", ptr %149, i64 0, i32 4
  %1093 = zext i32 %1089 to i64
  br label %1105

1094:                                             ; preds = %1105, %1088
  %1095 = icmp ult i32 %1089, %1079
  br i1 %1095, label %1096, label %1113

1096:                                             ; preds = %1094
  %1097 = zext i32 %1089 to i64
  %1098 = shl nuw nsw i64 %1097, 3
  %1099 = getelementptr i8, ptr %1087, i64 %1098
  %1100 = xor i32 %1089, -1
  %1101 = add i32 %1079, %1100
  %1102 = zext i32 %1101 to i64
  %1103 = shl nuw nsw i64 %1102, 3
  %1104 = add nuw nsw i64 %1103, 8
  call void @llvm.memset.p0.i64(ptr noundef nonnull align 8 dereferenceable(1) %1099, i8 0, i64 %1104, i1 false), !tbaa !91
  br label %1113

1105:                                             ; preds = %1105, %1091
  %1106 = phi i64 [ 0, %1091 ], [ %1111, %1105 ]
  %1107 = load ptr, ptr %1092, align 8, !tbaa !100
  %1108 = getelementptr inbounds ptr, ptr %1107, i64 %1106
  %1109 = load ptr, ptr %1108, align 8, !tbaa !91
  %1110 = getelementptr inbounds ptr, ptr %1087, i64 %1106
  store ptr %1109, ptr %1110, align 8, !tbaa !91
  %1111 = add nuw nsw i64 %1106, 1
  %1112 = icmp eq i64 %1111, %1093
  br i1 %1112, label %1094, label %1105

1113:                                             ; preds = %1096, %1094
  %1114 = load ptr, ptr %1080, align 8, !tbaa !99
  %1115 = getelementptr inbounds %"class.xercesc_2_5::BaseRefVectorOf", ptr %149, i64 0, i32 4
  %1116 = load ptr, ptr %1115, align 8, !tbaa !100
  %1117 = load ptr, ptr %1114, align 8, !tbaa !77
  %1118 = getelementptr inbounds ptr, ptr %1117, i64 3
  %1119 = load ptr, ptr %1118, align 8
  invoke void %1119(ptr noundef nonnull align 8 dereferenceable(8) %1114, ptr noundef %1116)
          to label %1120 unwind label %1163

1120:                                             ; preds = %1113
  store ptr %1087, ptr %1115, align 8, !tbaa !100
  store i32 %1079, ptr %1071, align 8, !tbaa !111
  %1121 = load i32, ptr %1068, align 4, !tbaa !97
  %1122 = add i32 %1121, 1
  br label %1123

1123:                                             ; preds = %1120, %1074
  %1124 = phi i32 [ %1070, %1074 ], [ %1122, %1120 ]
  %1125 = phi i32 [ %1069, %1074 ], [ %1121, %1120 ]
  %1126 = phi ptr [ %1076, %1074 ], [ %1087, %1120 ]
  %1127 = zext i32 %1125 to i64
  %1128 = getelementptr inbounds ptr, ptr %1126, i64 %1127
  store ptr %1064, ptr %1128, align 8, !tbaa !91
  store i32 %1124, ptr %1068, align 4, !tbaa !97
  %1129 = and i8 %148, 1
  %1130 = icmp eq i8 %1129, 0
  br i1 %1130, label %1299, label %1131

1131:                                             ; preds = %1123
  %1132 = add i32 %150, 1
  %1133 = icmp ult i32 %1132, %43
  br i1 %1133, label %1134, label %1299

1134:                                             ; preds = %1131
  %1135 = load i32, ptr %29, align 4, !tbaa !67
  %1136 = icmp ugt i32 %1135, %1132
  br i1 %1136, label %1142, label %1137

1137:                                             ; preds = %1134
  %1138 = call ptr @__cxa_allocate_exception(i64 48) #14
  %1139 = load ptr, ptr %32, align 8, !tbaa !76
  invoke void @_ZN11xercesc_2_530ArrayIndexOutOfBoundsExceptionC2EPKcjNS_10XMLExcepts5CodesEPNS_13MemoryManagerE(ptr noundef nonnull align 8 dereferenceable(48) %1138, ptr noundef nonnull @.str.6, i32 noundef 293, i32 noundef 109, ptr noundef %1139)
          to label %1153 unwind label %1140

1140:                                             ; preds = %1137
  %1141 = landingpad { ptr, i32 }
          cleanup
  call void @__cxa_free_exception(ptr %1138) #14
  br label %1399

1142:                                             ; preds = %1134
  %1143 = load ptr, ptr %31, align 8, !tbaa !75
  %1144 = zext i32 %1132 to i64
  %1145 = getelementptr inbounds i32, ptr %1143, i64 %1144
  %1146 = load i32, ptr %1145, align 4, !tbaa !79
  %1147 = icmp eq i32 %1146, 22
  br i1 %1147, label %1148, label %1299

1148:                                             ; preds = %1142
  %1149 = icmp eq i32 %150, %132
  br i1 %1149, label %1150, label %1169

1150:                                             ; preds = %1148
  %1151 = call ptr @__cxa_allocate_exception(i64 48) #14
  %1152 = load ptr, ptr %27, align 8, !tbaa !103
  invoke void @_ZN11xercesc_2_514XPathExceptionC2EPKcjNS_10XMLExcepts5CodesEPNS_13MemoryManagerE(ptr noundef nonnull align 8 dereferenceable(48) %1151, ptr noundef nonnull @.str.3, i32 noundef 663, i32 noundef 303, ptr noundef %1152)
          to label %1153 unwind label %1167

1153:                                             ; preds = %1150, %1137, %1184, %1174
  %1154 = phi ptr [ %1175, %1174 ], [ %1185, %1184 ], [ %1138, %1137 ], [ %1151, %1150 ]
  %1155 = phi ptr [ @_ZTIN11xercesc_2_530ArrayIndexOutOfBoundsExceptionE, %1174 ], [ @_ZTIN11xercesc_2_514XPathExceptionE, %1184 ], [ @_ZTIN11xercesc_2_530ArrayIndexOutOfBoundsExceptionE, %1137 ], [ @_ZTIN11xercesc_2_514XPathExceptionE, %1150 ]
  invoke void @__cxa_throw(ptr nonnull %1154, ptr nonnull %1155, ptr nonnull @_ZN11xercesc_2_512XMLExceptionD2Ev) #16
          to label %1156 unwind label %1165

1156:                                             ; preds = %1153
  unreachable

1157:                                             ; preds = %1048
  %1158 = landingpad { ptr, i32 }
          cleanup
  br label %1399

1159:                                             ; preds = %1051
  %1160 = landingpad { ptr, i32 }
          cleanup
  br label %1161

1161:                                             ; preds = %1056, %1159
  %1162 = phi { ptr, i32 } [ %1160, %1159 ], [ %1057, %1056 ]
  invoke void @_ZN11xercesc_2_57XMemorydlEPvPNS_13MemoryManagerE(ptr noundef nonnull %1050, ptr noundef %1049)
          to label %1399 unwind label %1417

1163:                                             ; preds = %1061, %1189, %1202, %1077, %1113, %1216, %1252
  %1164 = landingpad { ptr, i32 }
          cleanup
  br label %1399

1165:                                             ; preds = %1153
  %1166 = landingpad { ptr, i32 }
          cleanup
  br label %1399

1167:                                             ; preds = %1150
  %1168 = landingpad { ptr, i32 }
          cleanup
  call void @__cxa_free_exception(ptr %1151) #14
  br label %1399

1169:                                             ; preds = %1148
  %1170 = add i32 %150, 2
  %1171 = icmp ult i32 %1170, %43
  br i1 %1171, label %1172, label %1189

1172:                                             ; preds = %1169
  %1173 = icmp ugt i32 %1135, %1170
  br i1 %1173, label %1179, label %1174

1174:                                             ; preds = %1172
  %1175 = call ptr @__cxa_allocate_exception(i64 48) #14
  %1176 = load ptr, ptr %32, align 8, !tbaa !76
  invoke void @_ZN11xercesc_2_530ArrayIndexOutOfBoundsExceptionC2EPKcjNS_10XMLExcepts5CodesEPNS_13MemoryManagerE(ptr noundef nonnull align 8 dereferenceable(48) %1175, ptr noundef nonnull @.str.6, i32 noundef 293, i32 noundef 109, ptr noundef %1176)
          to label %1153 unwind label %1177

1177:                                             ; preds = %1174
  %1178 = landingpad { ptr, i32 }
          cleanup
  call void @__cxa_free_exception(ptr %1175) #14
  br label %1399

1179:                                             ; preds = %1172
  %1180 = zext i32 %1170 to i64
  %1181 = getelementptr inbounds i32, ptr %1143, i64 %1180
  %1182 = load i32, ptr %1181, align 4, !tbaa !79
  %1183 = icmp eq i32 %1182, 21
  br i1 %1183, label %1184, label %1189

1184:                                             ; preds = %1179
  %1185 = call ptr @__cxa_allocate_exception(i64 48) #14
  %1186 = load ptr, ptr %27, align 8, !tbaa !103
  invoke void @_ZN11xercesc_2_514XPathExceptionC2EPKcjNS_10XMLExcepts5CodesEPNS_13MemoryManagerE(ptr noundef nonnull align 8 dereferenceable(48) %1185, ptr noundef nonnull @.str.3, i32 noundef 671, i32 noundef 305, ptr noundef %1186)
          to label %1153 unwind label %1187

1187:                                             ; preds = %1184
  %1188 = landingpad { ptr, i32 }
          cleanup
  call void @__cxa_free_exception(ptr %1185) #14
  br label %1399

1189:                                             ; preds = %1179, %1169
  %1190 = load ptr, ptr %27, align 8, !tbaa !103
  %1191 = invoke noundef ptr @_ZN11xercesc_2_57XMemorynwEmPNS_13MemoryManagerE(i64 noundef 24, ptr noundef %1190)
          to label %1192 unwind label %1163

1192:                                             ; preds = %1189
  %1193 = load ptr, ptr %27, align 8, !tbaa !103
  store ptr getelementptr inbounds ({ [7 x ptr] }, ptr @_ZTVN11xercesc_2_514XercesNodeTestE, i64 0, inrange i32 0, i64 2), ptr %1191, align 8, !tbaa !77
  %1194 = getelementptr inbounds %"class.xercesc_2_5::XercesNodeTest", ptr %1191, i64 0, i32 1
  store i16 3, ptr %1194, align 8, !tbaa !80
  %1195 = invoke noundef ptr @_ZN11xercesc_2_57XMemorynwEmPNS_13MemoryManagerE(i64 noundef 64, ptr noundef %1193)
          to label %1196 unwind label %1268

1196:                                             ; preds = %1192
  invoke void @_ZN11xercesc_2_55QNameC1EPNS_13MemoryManagerE(ptr noundef nonnull align 8 dereferenceable(64) %1195, ptr noundef %1193)
          to label %1202 unwind label %1197

1197:                                             ; preds = %1196
  %1198 = landingpad { ptr, i32 }
          cleanup
  invoke void @_ZN11xercesc_2_57XMemorydlEPvPNS_13MemoryManagerE(ptr noundef %1195, ptr noundef %1193)
          to label %1270 unwind label %1199

1199:                                             ; preds = %1197
  %1200 = landingpad { ptr, i32 }
          catch ptr null
  %1201 = extractvalue { ptr, i32 } %1200, 0
  call void @__clang_call_terminate(ptr %1201) #15
  unreachable

1202:                                             ; preds = %1196
  %1203 = getelementptr inbounds %"class.xercesc_2_5::XercesNodeTest", ptr %1191, i64 0, i32 2
  store ptr %1195, ptr %1203, align 8, !tbaa !84
  %1204 = load ptr, ptr %27, align 8, !tbaa !103
  %1205 = invoke noundef ptr @_ZN11xercesc_2_57XMemorynwEmPNS_13MemoryManagerE(i64 noundef 24, ptr noundef %1204)
          to label %1206 unwind label %1163

1206:                                             ; preds = %1202
  store ptr getelementptr inbounds ({ [7 x ptr] }, ptr @_ZTVN11xercesc_2_510XercesStepE, i64 0, inrange i32 0, i64 2), ptr %1205, align 8, !tbaa !77
  %1207 = getelementptr inbounds %"class.xercesc_2_5::XercesStep", ptr %1205, i64 0, i32 1
  store i16 4, ptr %1207, align 8, !tbaa !92
  %1208 = getelementptr inbounds %"class.xercesc_2_5::XercesStep", ptr %1205, i64 0, i32 2
  store ptr %1191, ptr %1208, align 8, !tbaa !94
  %1209 = load i32, ptr %1068, align 4, !tbaa !97
  %1210 = add i32 %1209, 1
  %1211 = load i32, ptr %1071, align 8, !tbaa !111
  %1212 = icmp ult i32 %1210, %1211
  br i1 %1212, label %1213, label %1216

1213:                                             ; preds = %1206
  %1214 = getelementptr inbounds %"class.xercesc_2_5::BaseRefVectorOf", ptr %149, i64 0, i32 4
  %1215 = load ptr, ptr %1214, align 8, !tbaa !100
  br label %1262

1216:                                             ; preds = %1206
  %1217 = add i32 %1211, 32
  %1218 = call i32 @llvm.umax.i32(i32 %1210, i32 %1217)
  %1219 = getelementptr inbounds %"class.xercesc_2_5::BaseRefVectorOf", ptr %149, i64 0, i32 5
  %1220 = load ptr, ptr %1219, align 8, !tbaa !99
  %1221 = zext i32 %1218 to i64
  %1222 = shl nuw nsw i64 %1221, 3
  %1223 = load ptr, ptr %1220, align 8, !tbaa !77
  %1224 = getelementptr inbounds ptr, ptr %1223, i64 2
  %1225 = load ptr, ptr %1224, align 8
  %1226 = invoke noundef ptr %1225(ptr noundef nonnull align 8 dereferenceable(8) %1220, i64 noundef %1222)
          to label %1227 unwind label %1163

1227:                                             ; preds = %1216
  %1228 = load i32, ptr %1068, align 4, !tbaa !97
  %1229 = icmp eq i32 %1228, 0
  br i1 %1229, label %1233, label %1230

1230:                                             ; preds = %1227
  %1231 = getelementptr inbounds %"class.xercesc_2_5::BaseRefVectorOf", ptr %149, i64 0, i32 4
  %1232 = zext i32 %1228 to i64
  br label %1244

1233:                                             ; preds = %1244, %1227
  %1234 = icmp ult i32 %1228, %1218
  br i1 %1234, label %1235, label %1252

1235:                                             ; preds = %1233
  %1236 = zext i32 %1228 to i64
  %1237 = shl nuw nsw i64 %1236, 3
  %1238 = getelementptr i8, ptr %1226, i64 %1237
  %1239 = xor i32 %1228, -1
  %1240 = add i32 %1218, %1239
  %1241 = zext i32 %1240 to i64
  %1242 = shl nuw nsw i64 %1241, 3
  %1243 = add nuw nsw i64 %1242, 8
  call void @llvm.memset.p0.i64(ptr noundef nonnull align 8 dereferenceable(1) %1238, i8 0, i64 %1243, i1 false), !tbaa !91
  br label %1252

1244:                                             ; preds = %1244, %1230
  %1245 = phi i64 [ 0, %1230 ], [ %1250, %1244 ]
  %1246 = load ptr, ptr %1231, align 8, !tbaa !100
  %1247 = getelementptr inbounds ptr, ptr %1246, i64 %1245
  %1248 = load ptr, ptr %1247, align 8, !tbaa !91
  %1249 = getelementptr inbounds ptr, ptr %1226, i64 %1245
  store ptr %1248, ptr %1249, align 8, !tbaa !91
  %1250 = add nuw nsw i64 %1245, 1
  %1251 = icmp eq i64 %1250, %1232
  br i1 %1251, label %1233, label %1244

1252:                                             ; preds = %1235, %1233
  %1253 = load ptr, ptr %1219, align 8, !tbaa !99
  %1254 = getelementptr inbounds %"class.xercesc_2_5::BaseRefVectorOf", ptr %149, i64 0, i32 4
  %1255 = load ptr, ptr %1254, align 8, !tbaa !100
  %1256 = load ptr, ptr %1253, align 8, !tbaa !77
  %1257 = getelementptr inbounds ptr, ptr %1256, i64 3
  %1258 = load ptr, ptr %1257, align 8
  invoke void %1258(ptr noundef nonnull align 8 dereferenceable(8) %1253, ptr noundef %1255)
          to label %1259 unwind label %1163

1259:                                             ; preds = %1252
  store ptr %1226, ptr %1254, align 8, !tbaa !100
  store i32 %1218, ptr %1071, align 8, !tbaa !111
  %1260 = load i32, ptr %1068, align 4, !tbaa !97
  %1261 = add i32 %1260, 1
  br label %1262

1262:                                             ; preds = %1213, %1259
  %1263 = phi i32 [ %1210, %1213 ], [ %1261, %1259 ]
  %1264 = phi i32 [ %1209, %1213 ], [ %1260, %1259 ]
  %1265 = phi ptr [ %1215, %1213 ], [ %1226, %1259 ]
  %1266 = zext i32 %1264 to i64
  %1267 = getelementptr inbounds ptr, ptr %1265, i64 %1266
  store ptr %1205, ptr %1267, align 8, !tbaa !91
  store i32 %1263, ptr %1068, align 4, !tbaa !97
  br label %1299

1268:                                             ; preds = %1192
  %1269 = landingpad { ptr, i32 }
          cleanup
  br label %1270

1270:                                             ; preds = %1197, %1268
  %1271 = phi { ptr, i32 } [ %1269, %1268 ], [ %1198, %1197 ]
  invoke void @_ZN11xercesc_2_57XMemorydlEPvPNS_13MemoryManagerE(ptr noundef nonnull %1191, ptr noundef %1190)
          to label %1399 unwind label %1417

1272:                                             ; preds = %161
  %1273 = call ptr @__cxa_allocate_exception(i64 48) #14
  %1274 = load ptr, ptr %27, align 8, !tbaa !103
  invoke void @_ZN11xercesc_2_514XPathExceptionC2EPKcjNS_10XMLExcepts5CodesEPNS_13MemoryManagerE(ptr noundef nonnull align 8 dereferenceable(48) %1273, ptr noundef nonnull @.str.3, i32 noundef 685, i32 noundef 306, ptr noundef %1274)
          to label %794 unwind label %1275

1275:                                             ; preds = %1272
  %1276 = landingpad { ptr, i32 }
          cleanup
  call void @__cxa_free_exception(ptr %1273) #14
  br label %1399

1277:                                             ; preds = %161
  %1278 = icmp eq i32 %150, 0
  br i1 %1278, label %1279, label %1284

1279:                                             ; preds = %1277
  %1280 = call ptr @__cxa_allocate_exception(i64 48) #14
  %1281 = load ptr, ptr %27, align 8, !tbaa !103
  invoke void @_ZN11xercesc_2_514XPathExceptionC2EPKcjNS_10XMLExcepts5CodesEPNS_13MemoryManagerE(ptr noundef nonnull align 8 dereferenceable(48) %1280, ptr noundef nonnull @.str.3, i32 noundef 690, i32 noundef 307, ptr noundef %1281)
          to label %794 unwind label %1282

1282:                                             ; preds = %1279
  %1283 = landingpad { ptr, i32 }
          cleanup
  call void @__cxa_free_exception(ptr %1280) #14
  br label %1399

1284:                                             ; preds = %1277
  %1285 = and i8 %148, 1
  %1286 = icmp eq i8 %1285, 0
  br i1 %1286, label %1292, label %1287

1287:                                             ; preds = %1284
  %1288 = call ptr @__cxa_allocate_exception(i64 48) #14
  %1289 = load ptr, ptr %27, align 8, !tbaa !103
  invoke void @_ZN11xercesc_2_514XPathExceptionC2EPKcjNS_10XMLExcepts5CodesEPNS_13MemoryManagerE(ptr noundef nonnull align 8 dereferenceable(48) %1288, ptr noundef nonnull @.str.3, i32 noundef 695, i32 noundef 308, ptr noundef %1289)
          to label %794 unwind label %1290

1290:                                             ; preds = %1287
  %1291 = landingpad { ptr, i32 }
          cleanup
  call void @__cxa_free_exception(ptr %1288) #14
  br label %1399

1292:                                             ; preds = %1284
  %1293 = icmp eq i32 %150, %131
  br i1 %1293, label %1294, label %1299

1294:                                             ; preds = %1292
  %1295 = call ptr @__cxa_allocate_exception(i64 48) #14
  %1296 = load ptr, ptr %27, align 8, !tbaa !103
  invoke void @_ZN11xercesc_2_514XPathExceptionC2EPKcjNS_10XMLExcepts5CodesEPNS_13MemoryManagerE(ptr noundef nonnull align 8 dereferenceable(48) %1295, ptr noundef nonnull @.str.3, i32 noundef 699, i32 noundef 304, ptr noundef %1296)
          to label %794 unwind label %1297

1297:                                             ; preds = %1294
  %1298 = landingpad { ptr, i32 }
          cleanup
  call void @__cxa_free_exception(ptr %1295) #14
  br label %1399

1299:                                             ; preds = %1262, %916, %772, %551, %407, %272, %161, %1292, %1123, %1131, %1142, %1045, %680, %695
  %1300 = phi ptr [ %151, %161 ], [ %151, %1292 ], [ %151, %1123 ], [ %151, %1262 ], [ %151, %1142 ], [ %151, %1131 ], [ %151, %916 ], [ %151, %1045 ], [ %151, %772 ], [ %151, %695 ], [ %151, %551 ], [ %151, %680 ], [ %151, %407 ], [ %260, %272 ]
  %1301 = phi i32 [ %150, %161 ], [ %150, %1292 ], [ %150, %1123 ], [ %1132, %1262 ], [ %150, %1142 ], [ %150, %1131 ], [ %789, %916 ], [ %931, %1045 ], [ %150, %772 ], [ %696, %695 ], [ %424, %551 ], [ %566, %680 ], [ %316, %407 ], [ %150, %272 ]
  %1302 = phi ptr [ %149, %161 ], [ %149, %1292 ], [ %149, %1123 ], [ %149, %1262 ], [ %149, %1142 ], [ %149, %1131 ], [ %149, %916 ], [ %149, %1045 ], [ %149, %772 ], [ %149, %695 ], [ %149, %551 ], [ %149, %680 ], [ %149, %407 ], [ %260, %272 ]
  %1303 = phi i8 [ 0, %161 ], [ 0, %1292 ], [ 0, %1123 ], [ 0, %1262 ], [ 0, %1142 ], [ 0, %1131 ], [ %148, %916 ], [ 0, %1045 ], [ 0, %772 ], [ 0, %695 ], [ 0, %551 ], [ 0, %680 ], [ 0, %407 ], [ 1, %272 ]
  %1304 = add i32 %1301, 1
  %1305 = icmp ult i32 %1304, %43
  br i1 %1305, label %147, label %139

1306:                                             ; preds = %139
  %1307 = icmp eq ptr %146, null
  br i1 %1307, label %1312, label %1308

1308:                                             ; preds = %1306
  %1309 = getelementptr inbounds %"class.xercesc_2_5::BaseRefVectorOf.1", ptr %146, i64 0, i32 2
  %1310 = load i32, ptr %1309, align 4, !tbaa !114
  %1311 = icmp eq i32 %1310, 0
  br i1 %1311, label %1312, label %1319

1312:                                             ; preds = %1308, %1306
  %1313 = call ptr @__cxa_allocate_exception(i64 48) #14
  %1314 = load ptr, ptr %27, align 8, !tbaa !103
  invoke void @_ZN11xercesc_2_514XPathExceptionC2EPKcjNS_10XMLExcepts5CodesEPNS_13MemoryManagerE(ptr noundef nonnull align 8 dereferenceable(48) %1313, ptr noundef nonnull @.str.3, i32 noundef 714, i32 noundef 309, ptr noundef %1314)
          to label %1322 unwind label %1317

1315:                                             ; preds = %1322, %1377, %1341, %1327
  %1316 = landingpad { ptr, i32 }
          cleanup
  br label %1399

1317:                                             ; preds = %1312
  %1318 = landingpad { ptr, i32 }
          cleanup
  call void @__cxa_free_exception(ptr %1313) #14
  br label %1399

1319:                                             ; preds = %1308
  %1320 = call ptr @__cxa_allocate_exception(i64 48) #14
  %1321 = load ptr, ptr %27, align 8, !tbaa !103
  invoke void @_ZN11xercesc_2_514XPathExceptionC2EPKcjNS_10XMLExcepts5CodesEPNS_13MemoryManagerE(ptr noundef nonnull align 8 dereferenceable(48) %1320, ptr noundef nonnull @.str.3, i32 noundef 717, i32 noundef 310, ptr noundef %1321)
          to label %1322 unwind label %1325

1322:                                             ; preds = %1312, %1319
  %1323 = phi ptr [ %1320, %1319 ], [ %1313, %1312 ]
  invoke void @__cxa_throw(ptr nonnull %1323, ptr nonnull @_ZTIN11xercesc_2_514XPathExceptionE, ptr nonnull @_ZN11xercesc_2_512XMLExceptionD2Ev) #16
          to label %1324 unwind label %1315

1324:                                             ; preds = %1322
  unreachable

1325:                                             ; preds = %1319
  %1326 = landingpad { ptr, i32 }
          cleanup
  call void @__cxa_free_exception(ptr %1320) #14
  br label %1399

1327:                                             ; preds = %139
  %1328 = load ptr, ptr %27, align 8, !tbaa !103
  %1329 = invoke noundef ptr @_ZN11xercesc_2_57XMemorynwEmPNS_13MemoryManagerE(i64 noundef 16, ptr noundef %1328)
          to label %1330 unwind label %1315

1330:                                             ; preds = %1327
  store ptr getelementptr inbounds ({ [7 x ptr] }, ptr @_ZTVN11xercesc_2_518XercesLocationPathE, i64 0, inrange i32 0, i64 2), ptr %1329, align 8, !tbaa !77
  %1331 = getelementptr inbounds %"class.xercesc_2_5::XercesLocationPath", ptr %1329, i64 0, i32 1
  store ptr %141, ptr %1331, align 8, !tbaa !95
  %1332 = getelementptr inbounds %"class.xercesc_2_5::BaseRefVectorOf.1", ptr %146, i64 0, i32 2
  %1333 = load i32, ptr %1332, align 4, !tbaa !114
  %1334 = add i32 %1333, 1
  %1335 = getelementptr inbounds %"class.xercesc_2_5::BaseRefVectorOf.1", ptr %146, i64 0, i32 3
  %1336 = load i32, ptr %1335, align 8, !tbaa !115
  %1337 = icmp ult i32 %1334, %1336
  br i1 %1337, label %1338, label %1341

1338:                                             ; preds = %1330
  %1339 = getelementptr inbounds %"class.xercesc_2_5::BaseRefVectorOf.1", ptr %146, i64 0, i32 4
  %1340 = load ptr, ptr %1339, align 8, !tbaa !116
  br label %1387

1341:                                             ; preds = %1330
  %1342 = add i32 %1336, 32
  %1343 = call i32 @llvm.umax.i32(i32 %1334, i32 %1342)
  %1344 = getelementptr inbounds %"class.xercesc_2_5::BaseRefVectorOf.1", ptr %146, i64 0, i32 5
  %1345 = load ptr, ptr %1344, align 8, !tbaa !117
  %1346 = zext i32 %1343 to i64
  %1347 = shl nuw nsw i64 %1346, 3
  %1348 = load ptr, ptr %1345, align 8, !tbaa !77
  %1349 = getelementptr inbounds ptr, ptr %1348, i64 2
  %1350 = load ptr, ptr %1349, align 8
  %1351 = invoke noundef ptr %1350(ptr noundef nonnull align 8 dereferenceable(8) %1345, i64 noundef %1347)
          to label %1352 unwind label %1315

1352:                                             ; preds = %1341
  %1353 = load i32, ptr %1332, align 4, !tbaa !114
  %1354 = icmp eq i32 %1353, 0
  br i1 %1354, label %1358, label %1355

1355:                                             ; preds = %1352
  %1356 = getelementptr inbounds %"class.xercesc_2_5::BaseRefVectorOf.1", ptr %146, i64 0, i32 4
  %1357 = zext i32 %1353 to i64
  br label %1369

1358:                                             ; preds = %1369, %1352
  %1359 = icmp ult i32 %1353, %1343
  br i1 %1359, label %1360, label %1377

1360:                                             ; preds = %1358
  %1361 = zext i32 %1353 to i64
  %1362 = shl nuw nsw i64 %1361, 3
  %1363 = getelementptr i8, ptr %1351, i64 %1362
  %1364 = xor i32 %1353, -1
  %1365 = add i32 %1343, %1364
  %1366 = zext i32 %1365 to i64
  %1367 = shl nuw nsw i64 %1366, 3
  %1368 = add nuw nsw i64 %1367, 8
  call void @llvm.memset.p0.i64(ptr noundef nonnull align 8 dereferenceable(1) %1363, i8 0, i64 %1368, i1 false), !tbaa !91
  br label %1377

1369:                                             ; preds = %1369, %1355
  %1370 = phi i64 [ 0, %1355 ], [ %1375, %1369 ]
  %1371 = load ptr, ptr %1356, align 8, !tbaa !116
  %1372 = getelementptr inbounds ptr, ptr %1371, i64 %1370
  %1373 = load ptr, ptr %1372, align 8, !tbaa !91
  %1374 = getelementptr inbounds ptr, ptr %1351, i64 %1370
  store ptr %1373, ptr %1374, align 8, !tbaa !91
  %1375 = add nuw nsw i64 %1370, 1
  %1376 = icmp eq i64 %1375, %1357
  br i1 %1376, label %1358, label %1369

1377:                                             ; preds = %1360, %1358
  %1378 = load ptr, ptr %1344, align 8, !tbaa !117
  %1379 = getelementptr inbounds %"class.xercesc_2_5::BaseRefVectorOf.1", ptr %146, i64 0, i32 4
  %1380 = load ptr, ptr %1379, align 8, !tbaa !116
  %1381 = load ptr, ptr %1378, align 8, !tbaa !77
  %1382 = getelementptr inbounds ptr, ptr %1381, i64 3
  %1383 = load ptr, ptr %1382, align 8
  invoke void %1383(ptr noundef nonnull align 8 dereferenceable(8) %1378, ptr noundef %1380)
          to label %1384 unwind label %1315

1384:                                             ; preds = %1377
  store ptr %1351, ptr %1379, align 8, !tbaa !116
  store i32 %1343, ptr %1335, align 8, !tbaa !115
  %1385 = load i32, ptr %1332, align 4, !tbaa !114
  %1386 = add i32 %1385, 1
  br label %1387

1387:                                             ; preds = %1338, %1384
  %1388 = phi i32 [ %1334, %1338 ], [ %1386, %1384 ]
  %1389 = phi i32 [ %1333, %1338 ], [ %1385, %1384 ]
  %1390 = phi ptr [ %1340, %1338 ], [ %1351, %1384 ]
  %1391 = zext i32 %1389 to i64
  %1392 = getelementptr inbounds ptr, ptr %1390, i64 %1391
  store ptr %1329, ptr %1392, align 8, !tbaa !91
  store i32 %1388, ptr %1332, align 4, !tbaa !114
  call void @llvm.lifetime.end.p0(i64 104, ptr nonnull %5) #14
  %1393 = load ptr, ptr %32, align 8, !tbaa !76
  %1394 = load ptr, ptr %31, align 8, !tbaa !75
  %1395 = load ptr, ptr %1393, align 8, !tbaa !77
  %1396 = getelementptr inbounds ptr, ptr %1395, i64 3
  %1397 = load ptr, ptr %1396, align 8
  call void %1397(ptr noundef nonnull align 8 dereferenceable(8) %1393, ptr noundef %1394)
  call void @llvm.lifetime.end.p0(i64 32, ptr nonnull %4) #14
  br label %1398

1398:                                             ; preds = %3, %11, %19, %1387
  ret void

1399:                                             ; preds = %1163, %1165, %818, %820, %453, %455, %185, %188, %1140, %1177, %937, %572, %451, %431, %321, %798, %175, %166, %159, %1315, %1317, %1325, %1157, %1161, %1270, %1187, %1167, %836, %928, %926, %922, %1046, %1031, %778, %782, %784, %419, %417, %413, %666, %681, %557, %561, %563, %471, %190, %1297, %1290, %1282, %1275, %693, %686, %330, %313, %173
  %1400 = phi ptr [ %151, %1282 ], [ %151, %1297 ], [ %151, %1290 ], [ %151, %1275 ], [ %151, %1167 ], [ %151, %1187 ], [ %151, %1270 ], [ %151, %1161 ], [ %151, %1157 ], [ %151, %836 ], [ %151, %928 ], [ %151, %926 ], [ %151, %922 ], [ %151, %1046 ], [ %151, %1031 ], [ %151, %784 ], [ %151, %782 ], [ %151, %778 ], [ %151, %693 ], [ %151, %686 ], [ %151, %313 ], [ %151, %330 ], [ %151, %471 ], [ %151, %563 ], [ %151, %561 ], [ %151, %557 ], [ %151, %681 ], [ %151, %666 ], [ %151, %419 ], [ %151, %417 ], [ %151, %413 ], [ %151, %173 ], [ %151, %190 ], [ %140, %1315 ], [ %140, %1317 ], [ %140, %1325 ], [ %151, %159 ], [ %151, %166 ], [ %151, %175 ], [ %151, %798 ], [ %151, %321 ], [ %151, %431 ], [ %151, %451 ], [ %151, %572 ], [ %151, %937 ], [ %151, %1177 ], [ %151, %1140 ], [ %186, %185 ], [ %151, %188 ], [ %151, %453 ], [ %151, %455 ], [ %151, %818 ], [ %151, %820 ], [ %151, %1163 ], [ %151, %1165 ]
  %1401 = phi { ptr, i32 } [ %1283, %1282 ], [ %1298, %1297 ], [ %1291, %1290 ], [ %1276, %1275 ], [ %1168, %1167 ], [ %1188, %1187 ], [ %1271, %1270 ], [ %1162, %1161 ], [ %1158, %1157 ], [ %837, %836 ], [ %929, %928 ], [ %927, %926 ], [ %923, %922 ], [ %1047, %1046 ], [ %1032, %1031 ], [ %785, %784 ], [ %783, %782 ], [ %779, %778 ], [ %694, %693 ], [ %687, %686 ], [ %314, %313 ], [ %331, %330 ], [ %472, %471 ], [ %564, %563 ], [ %562, %561 ], [ %558, %557 ], [ %682, %681 ], [ %667, %666 ], [ %420, %419 ], [ %418, %417 ], [ %414, %413 ], [ %174, %173 ], [ %191, %190 ], [ %1316, %1315 ], [ %1318, %1317 ], [ %1326, %1325 ], [ %160, %159 ], [ %167, %166 ], [ %176, %175 ], [ %799, %798 ], [ %322, %321 ], [ %432, %431 ], [ %452, %451 ], [ %573, %572 ], [ %938, %937 ], [ %1178, %1177 ], [ %1141, %1140 ], [ %187, %185 ], [ %189, %188 ], [ %454, %453 ], [ %456, %455 ], [ %819, %818 ], [ %821, %820 ], [ %1164, %1163 ], [ %1166, %1165 ]
  %1402 = icmp eq ptr %1400, null
  br i1 %1402, label %1409, label %1403

1403:                                             ; preds = %111, %113, %1399
  %1404 = phi { ptr, i32 } [ %1401, %1399 ], [ %112, %111 ], [ %114, %113 ]
  %1405 = phi ptr [ %1400, %1399 ], [ %45, %111 ], [ %45, %113 ]
  %1406 = load ptr, ptr %1405, align 8, !tbaa !77
  %1407 = getelementptr inbounds ptr, ptr %1406, i64 1
  %1408 = load ptr, ptr %1407, align 8
  invoke void %1408(ptr noundef nonnull align 8 dereferenceable(40) %1405)
          to label %1409 unwind label %1417

1409:                                             ; preds = %303, %105, %109, %107, %1399, %1403, %103
  %1410 = phi { ptr, i32 } [ %104, %103 ], [ %106, %105 ], [ %110, %109 ], [ %108, %107 ], [ %1401, %1399 ], [ %1404, %1403 ], [ %304, %303 ]
  call void @llvm.lifetime.end.p0(i64 104, ptr nonnull %5) #14
  %1411 = load ptr, ptr %32, align 8, !tbaa !76
  %1412 = load ptr, ptr %31, align 8, !tbaa !75
  %1413 = load ptr, ptr %1411, align 8, !tbaa !77
  %1414 = getelementptr inbounds ptr, ptr %1413, i64 3
  %1415 = load ptr, ptr %1414, align 8
  invoke void %1415(ptr noundef nonnull align 8 dereferenceable(8) %1411, ptr noundef %1412)
          to label %1416 unwind label %1417

1416:                                             ; preds = %1409
  call void @llvm.lifetime.end.p0(i64 32, ptr nonnull %4) #14
  resume { ptr, i32 } %1410

1417:                                             ; preds = %1409, %1403, %1270, %1161, %1043, %1039, %926, %782, %678, %674, %561, %417, %303, %113, %109
  %1418 = landingpad { ptr, i32 }
          catch ptr null
  %1419 = extractvalue { ptr, i32 } %1418, 0
  call void @__clang_call_terminate(ptr %1419) #15
  unreachable

1420:                                             ; preds = %184
  unreachable
}

; Function Attrs: uwtable
define dso_local void @_ZN11xercesc_2_511XercesXPath26checkForSelectedAttributesEv(ptr nocapture noundef nonnull readonly align 8 dereferenceable(40) %0) local_unnamed_addr #1 align 2 personality ptr @__gxx_personality_v0 {
  %2 = getelementptr inbounds %"class.xercesc_2_5::XercesXPath", ptr %0, i64 0, i32 3
  %3 = load ptr, ptr %2, align 8, !tbaa !106
  %4 = icmp eq ptr %3, null
  br i1 %4, label %15, label %5

5:                                                ; preds = %1
  %6 = getelementptr inbounds %"class.xercesc_2_5::BaseRefVectorOf.1", ptr %3, i64 0, i32 2
  %7 = load i32, ptr %6, align 4, !tbaa !114
  %8 = icmp eq i32 %7, 0
  br i1 %8, label %15, label %9

9:                                                ; preds = %5
  %10 = getelementptr inbounds %"class.xercesc_2_5::BaseRefVectorOf.1", ptr %3, i64 0, i32 2
  %11 = load i32, ptr %10, align 4, !tbaa !114
  %12 = getelementptr inbounds %"class.xercesc_2_5::BaseRefVectorOf.1", ptr %3, i64 0, i32 4
  %13 = zext i32 %11 to i64
  %14 = zext i32 %7 to i64
  br label %16

15:                                               ; preds = %57, %1, %5
  ret void

16:                                               ; preds = %9, %57
  %17 = phi i64 [ 0, %9 ], [ %58, %57 ]
  %18 = icmp eq i64 %17, %13
  br i1 %18, label %19, label %29

19:                                               ; preds = %16
  %20 = tail call ptr @__cxa_allocate_exception(i64 48) #14
  %21 = getelementptr inbounds %"class.xercesc_2_5::BaseRefVectorOf.1", ptr %3, i64 0, i32 5
  %22 = load ptr, ptr %21, align 8, !tbaa !117
  invoke void @_ZN11xercesc_2_530ArrayIndexOutOfBoundsExceptionC2EPKcjNS_10XMLExcepts5CodesEPNS_13MemoryManagerE(ptr noundef nonnull align 8 dereferenceable(48) %20, ptr noundef nonnull @.str.5, i32 noundef 289, i32 noundef 109, ptr noundef %22)
          to label %23 unwind label %27

23:                                               ; preds = %19
  tail call void @__cxa_throw(ptr nonnull %20, ptr nonnull @_ZTIN11xercesc_2_530ArrayIndexOutOfBoundsExceptionE, ptr nonnull @_ZN11xercesc_2_512XMLExceptionD2Ev) #16
  unreachable

24:                                               ; preds = %55, %27
  %25 = phi ptr [ %51, %55 ], [ %20, %27 ]
  %26 = phi { ptr, i32 } [ %56, %55 ], [ %28, %27 ]
  tail call void @__cxa_free_exception(ptr %25) #14
  resume { ptr, i32 } %26

27:                                               ; preds = %19
  %28 = landingpad { ptr, i32 }
          cleanup
  br label %24

29:                                               ; preds = %16
  %30 = load ptr, ptr %12, align 8, !tbaa !116
  %31 = getelementptr inbounds ptr, ptr %30, i64 %17
  %32 = load ptr, ptr %31, align 8, !tbaa !91
  %33 = getelementptr inbounds %"class.xercesc_2_5::XercesLocationPath", ptr %32, i64 0, i32 1
  %34 = load ptr, ptr %33, align 8, !tbaa !95
  %35 = icmp eq ptr %34, null
  br i1 %35, label %57, label %36

36:                                               ; preds = %29
  %37 = getelementptr inbounds %"class.xercesc_2_5::BaseRefVectorOf", ptr %34, i64 0, i32 2
  %38 = load i32, ptr %37, align 4, !tbaa !97
  %39 = icmp eq i32 %38, 0
  br i1 %39, label %57, label %40

40:                                               ; preds = %36
  %41 = add i32 %38, -1
  %42 = getelementptr inbounds %"class.xercesc_2_5::BaseRefVectorOf", ptr %34, i64 0, i32 4
  %43 = load ptr, ptr %42, align 8, !tbaa !100
  %44 = zext i32 %41 to i64
  %45 = getelementptr inbounds ptr, ptr %43, i64 %44
  %46 = load ptr, ptr %45, align 8, !tbaa !91
  %47 = getelementptr inbounds %"class.xercesc_2_5::XercesStep", ptr %46, i64 0, i32 1
  %48 = load i16, ptr %47, align 8, !tbaa !92
  %49 = icmp eq i16 %48, 2
  br i1 %49, label %50, label %57

50:                                               ; preds = %40
  %51 = tail call ptr @__cxa_allocate_exception(i64 48) #14
  %52 = getelementptr inbounds %"class.xercesc_2_5::XercesXPath", ptr %0, i64 0, i32 4
  %53 = load ptr, ptr %52, align 8, !tbaa !103
  invoke void @_ZN11xercesc_2_514XPathExceptionC2EPKcjNS_10XMLExcepts5CodesEPNS_13MemoryManagerE(ptr noundef nonnull align 8 dereferenceable(48) %51, ptr noundef nonnull @.str.3, i32 noundef 453, i32 noundef 295, ptr noundef %53)
          to label %54 unwind label %55

54:                                               ; preds = %50
  tail call void @__cxa_throw(ptr nonnull %51, ptr nonnull @_ZTIN11xercesc_2_514XPathExceptionE, ptr nonnull @_ZN11xercesc_2_512XMLExceptionD2Ev) #16
  unreachable

55:                                               ; preds = %50
  %56 = landingpad { ptr, i32 }
          cleanup
  br label %24

57:                                               ; preds = %29, %40, %36
  %58 = add nuw nsw i64 %17, 1
  %59 = icmp eq i64 %58, %14
  br i1 %59, label %15, label %16
}

; Function Attrs: nofree nosync nounwind memory(none)
declare i32 @llvm.eh.typeid.for(ptr) #7

; Function Attrs: uwtable
define dso_local void @_ZN11xercesc_2_511XercesXPath7cleanUpEv(ptr nocapture noundef nonnull readonly align 8 dereferenceable(40) %0) local_unnamed_addr #1 align 2 {
  %2 = getelementptr inbounds %"class.xercesc_2_5::XercesXPath", ptr %0, i64 0, i32 4
  %3 = load ptr, ptr %2, align 8, !tbaa !103
  %4 = getelementptr inbounds %"class.xercesc_2_5::XercesXPath", ptr %0, i64 0, i32 2
  %5 = load ptr, ptr %4, align 8, !tbaa !105
  %6 = load ptr, ptr %3, align 8, !tbaa !77
  %7 = getelementptr inbounds ptr, ptr %6, i64 3
  %8 = load ptr, ptr %7, align 8
  tail call void %8(ptr noundef nonnull align 8 dereferenceable(8) %3, ptr noundef %5)
  %9 = getelementptr inbounds %"class.xercesc_2_5::XercesXPath", ptr %0, i64 0, i32 3
  %10 = load ptr, ptr %9, align 8, !tbaa !106
  %11 = icmp eq ptr %10, null
  br i1 %11, label %16, label %12

12:                                               ; preds = %1
  %13 = load ptr, ptr %10, align 8, !tbaa !77
  %14 = getelementptr inbounds ptr, ptr %13, i64 1
  %15 = load ptr, ptr %14, align 8
  tail call void %15(ptr noundef nonnull align 8 dereferenceable(40) %10)
  br label %16

16:                                               ; preds = %12, %1
  ret void
}

declare void @__cxa_rethrow() local_unnamed_addr

declare void @__cxa_end_catch() local_unnamed_addr

; Function Attrs: uwtable
define dso_local void @_ZN11xercesc_2_511XercesXPathD2Ev(ptr nocapture noundef nonnull align 8 dereferenceable(40) %0) unnamed_addr #1 align 2 personality ptr @__gxx_personality_v0 {
  store ptr getelementptr inbounds ({ [7 x ptr] }, ptr @_ZTVN11xercesc_2_511XercesXPathE, i64 0, inrange i32 0, i64 2), ptr %0, align 8, !tbaa !77
  %2 = getelementptr inbounds %"class.xercesc_2_5::XercesXPath", ptr %0, i64 0, i32 4
  %3 = load ptr, ptr %2, align 8, !tbaa !103
  %4 = getelementptr inbounds %"class.xercesc_2_5::XercesXPath", ptr %0, i64 0, i32 2
  %5 = load ptr, ptr %4, align 8, !tbaa !105
  %6 = load ptr, ptr %3, align 8, !tbaa !77
  %7 = getelementptr inbounds ptr, ptr %6, i64 3
  %8 = load ptr, ptr %7, align 8
  tail call void %8(ptr noundef nonnull align 8 dereferenceable(8) %3, ptr noundef %5)
  %9 = getelementptr inbounds %"class.xercesc_2_5::XercesXPath", ptr %0, i64 0, i32 3
  %10 = load ptr, ptr %9, align 8, !tbaa !106
  %11 = icmp eq ptr %10, null
  br i1 %11, label %16, label %12

12:                                               ; preds = %1
  %13 = load ptr, ptr %10, align 8, !tbaa !77
  %14 = getelementptr inbounds ptr, ptr %13, i64 1
  %15 = load ptr, ptr %14, align 8
  tail call void %15(ptr noundef nonnull align 8 dereferenceable(40) %10)
  br label %16

16:                                               ; preds = %12, %1
  ret void
}

; Function Attrs: uwtable
define dso_local void @_ZN11xercesc_2_511XercesXPathD0Ev(ptr noundef nonnull align 8 dereferenceable(40) %0) unnamed_addr #1 align 2 personality ptr @__gxx_personality_v0 {
  store ptr getelementptr inbounds ({ [7 x ptr] }, ptr @_ZTVN11xercesc_2_511XercesXPathE, i64 0, inrange i32 0, i64 2), ptr %0, align 8, !tbaa !77
  %2 = getelementptr inbounds %"class.xercesc_2_5::XercesXPath", ptr %0, i64 0, i32 4
  %3 = load ptr, ptr %2, align 8, !tbaa !103
  %4 = getelementptr inbounds %"class.xercesc_2_5::XercesXPath", ptr %0, i64 0, i32 2
  %5 = load ptr, ptr %4, align 8, !tbaa !105
  %6 = load ptr, ptr %3, align 8, !tbaa !77
  %7 = getelementptr inbounds ptr, ptr %6, i64 3
  %8 = load ptr, ptr %7, align 8
  invoke void %8(ptr noundef nonnull align 8 dereferenceable(8) %3, ptr noundef %5)
          to label %9 unwind label %18

9:                                                ; preds = %1
  %10 = getelementptr inbounds %"class.xercesc_2_5::XercesXPath", ptr %0, i64 0, i32 3
  %11 = load ptr, ptr %10, align 8, !tbaa !106
  %12 = icmp eq ptr %11, null
  br i1 %12, label %17, label %13

13:                                               ; preds = %9
  %14 = load ptr, ptr %11, align 8, !tbaa !77
  %15 = getelementptr inbounds ptr, ptr %14, i64 1
  %16 = load ptr, ptr %15, align 8
  invoke void %16(ptr noundef nonnull align 8 dereferenceable(40) %11)
          to label %17 unwind label %18

17:                                               ; preds = %9, %13
  tail call void @_ZN11xercesc_2_57XMemorydlEPv(ptr noundef nonnull %0)
  ret void

18:                                               ; preds = %13, %1
  %19 = landingpad { ptr, i32 }
          cleanup
  invoke void @_ZN11xercesc_2_57XMemorydlEPv(ptr noundef nonnull %0)
          to label %20 unwind label %21

20:                                               ; preds = %18
  resume { ptr, i32 } %19

21:                                               ; preds = %18
  %22 = landingpad { ptr, i32 }
          catch ptr null
  %23 = extractvalue { ptr, i32 } %22, 0
  tail call void @__clang_call_terminate(ptr %23) #15
  unreachable
}

; Function Attrs: uwtable
define dso_local noundef zeroext i1 @_ZNK11xercesc_2_511XercesXPatheqERKS0_(ptr nocapture noundef nonnull readonly align 8 dereferenceable(40) %0, ptr nocapture noundef nonnull readonly align 8 dereferenceable(40) %1) local_unnamed_addr #1 align 2 personality ptr @__gxx_personality_v0 {
  %3 = getelementptr inbounds %"class.xercesc_2_5::XercesXPath", ptr %0, i64 0, i32 3
  %4 = load ptr, ptr %3, align 8, !tbaa !106
  %5 = getelementptr inbounds %"class.xercesc_2_5::BaseRefVectorOf.1", ptr %4, i64 0, i32 2
  %6 = load i32, ptr %5, align 4, !tbaa !114
  %7 = getelementptr inbounds %"class.xercesc_2_5::XercesXPath", ptr %1, i64 0, i32 3
  %8 = load ptr, ptr %7, align 8, !tbaa !106
  %9 = getelementptr inbounds %"class.xercesc_2_5::BaseRefVectorOf.1", ptr %8, i64 0, i32 2
  %10 = load i32, ptr %9, align 4, !tbaa !114
  %11 = icmp eq i32 %6, %10
  br i1 %11, label %12, label %61

12:                                               ; preds = %2
  %13 = icmp eq i32 %6, 0
  br i1 %13, label %61, label %14

14:                                               ; preds = %12
  %15 = zext i32 %6 to i64
  br label %20

16:                                               ; preds = %51
  %17 = add nuw nsw i64 %21, 1
  %18 = icmp uge i64 %17, %15
  %19 = icmp eq i64 %17, %15
  br i1 %19, label %61, label %20

20:                                               ; preds = %14, %16
  %21 = phi i64 [ 0, %14 ], [ %17, %16 ]
  %22 = phi i1 [ false, %14 ], [ %18, %16 ]
  %23 = load ptr, ptr %3, align 8, !tbaa !106
  %24 = getelementptr inbounds %"class.xercesc_2_5::BaseRefVectorOf.1", ptr %23, i64 0, i32 2
  %25 = load i32, ptr %24, align 4, !tbaa !114
  %26 = zext i32 %25 to i64
  %27 = icmp ult i64 %21, %26
  br i1 %27, label %38, label %28

28:                                               ; preds = %20
  %29 = tail call ptr @__cxa_allocate_exception(i64 48) #14
  %30 = getelementptr inbounds %"class.xercesc_2_5::BaseRefVectorOf.1", ptr %23, i64 0, i32 5
  %31 = load ptr, ptr %30, align 8, !tbaa !117
  invoke void @_ZN11xercesc_2_530ArrayIndexOutOfBoundsExceptionC2EPKcjNS_10XMLExcepts5CodesEPNS_13MemoryManagerE(ptr noundef nonnull align 8 dereferenceable(48) %29, ptr noundef nonnull @.str.5, i32 noundef 289, i32 noundef 109, ptr noundef %31)
          to label %32 unwind label %36

32:                                               ; preds = %28
  tail call void @__cxa_throw(ptr nonnull %29, ptr nonnull @_ZTIN11xercesc_2_530ArrayIndexOutOfBoundsExceptionE, ptr nonnull @_ZN11xercesc_2_512XMLExceptionD2Ev) #16
  unreachable

33:                                               ; preds = %49, %36
  %34 = phi ptr [ %45, %49 ], [ %29, %36 ]
  %35 = phi { ptr, i32 } [ %50, %49 ], [ %37, %36 ]
  tail call void @__cxa_free_exception(ptr %34) #14
  resume { ptr, i32 } %35

36:                                               ; preds = %28
  %37 = landingpad { ptr, i32 }
          cleanup
  br label %33

38:                                               ; preds = %20
  %39 = load ptr, ptr %7, align 8, !tbaa !106
  %40 = getelementptr inbounds %"class.xercesc_2_5::BaseRefVectorOf.1", ptr %39, i64 0, i32 2
  %41 = load i32, ptr %40, align 4, !tbaa !114
  %42 = zext i32 %41 to i64
  %43 = icmp ult i64 %21, %42
  br i1 %43, label %51, label %44

44:                                               ; preds = %38
  %45 = tail call ptr @__cxa_allocate_exception(i64 48) #14
  %46 = getelementptr inbounds %"class.xercesc_2_5::BaseRefVectorOf.1", ptr %39, i64 0, i32 5
  %47 = load ptr, ptr %46, align 8, !tbaa !117
  invoke void @_ZN11xercesc_2_530ArrayIndexOutOfBoundsExceptionC2EPKcjNS_10XMLExcepts5CodesEPNS_13MemoryManagerE(ptr noundef nonnull align 8 dereferenceable(48) %45, ptr noundef nonnull @.str.5, i32 noundef 289, i32 noundef 109, ptr noundef %47)
          to label %48 unwind label %49

48:                                               ; preds = %44
  tail call void @__cxa_throw(ptr nonnull %45, ptr nonnull @_ZTIN11xercesc_2_530ArrayIndexOutOfBoundsExceptionE, ptr nonnull @_ZN11xercesc_2_512XMLExceptionD2Ev) #16
  unreachable

49:                                               ; preds = %44
  %50 = landingpad { ptr, i32 }
          cleanup
  br label %33

51:                                               ; preds = %38
  %52 = getelementptr inbounds %"class.xercesc_2_5::BaseRefVectorOf.1", ptr %23, i64 0, i32 4
  %53 = load ptr, ptr %52, align 8, !tbaa !116
  %54 = getelementptr inbounds ptr, ptr %53, i64 %21
  %55 = load ptr, ptr %54, align 8, !tbaa !91
  %56 = getelementptr inbounds %"class.xercesc_2_5::BaseRefVectorOf.1", ptr %39, i64 0, i32 4
  %57 = load ptr, ptr %56, align 8, !tbaa !116
  %58 = getelementptr inbounds ptr, ptr %57, i64 %21
  %59 = load ptr, ptr %58, align 8, !tbaa !91
  %60 = tail call noundef zeroext i1 @_ZNK11xercesc_2_518XercesLocationPatheqERKS0_(ptr noundef nonnull align 8 dereferenceable(16) %55, ptr noundef nonnull align 8 dereferenceable(16) %59)
  br i1 %60, label %16, label %61

61:                                               ; preds = %51, %16, %12, %2
  %62 = phi i1 [ false, %2 ], [ true, %12 ], [ %22, %51 ], [ %18, %16 ]
  ret i1 %62
}

; Function Attrs: uwtable
define dso_local noundef zeroext i1 @_ZNK11xercesc_2_511XercesXPathneERKS0_(ptr nocapture noundef nonnull readonly align 8 dereferenceable(40) %0, ptr nocapture noundef nonnull readonly align 8 dereferenceable(40) %1) local_unnamed_addr #1 align 2 {
  %3 = tail call noundef zeroext i1 @_ZNK11xercesc_2_511XercesXPatheqERKS0_(ptr noundef nonnull align 8 dereferenceable(40) %0, ptr noundef nonnull align 8 dereferenceable(40) %1)
  %4 = xor i1 %3, true
  ret i1 %4
}

declare ptr @__cxa_allocate_exception(i64) local_unnamed_addr

; Function Attrs: uwtable
define linkonce_odr dso_local void @_ZN11xercesc_2_514XPathExceptionC2EPKcjNS_10XMLExcepts5CodesEPNS_13MemoryManagerE(ptr noundef nonnull align 8 dereferenceable(48) %0, ptr noundef %1, i32 noundef %2, i32 noundef %3, ptr noundef %4) unnamed_addr #1 comdat align 2 personality ptr @__gxx_personality_v0 {
  tail call void @_ZN11xercesc_2_512XMLExceptionC2EPKcjPNS_13MemoryManagerE(ptr noundef nonnull align 8 dereferenceable(48) %0, ptr noundef %1, i32 noundef %2, ptr noundef %4)
  store ptr getelementptr inbounds ({ [6 x ptr] }, ptr @_ZTVN11xercesc_2_514XPathExceptionE, i64 0, inrange i32 0, i64 2), ptr %0, align 8, !tbaa !77
  invoke void @_ZN11xercesc_2_512XMLException14loadExceptTextENS_10XMLExcepts5CodesE(ptr noundef nonnull align 8 dereferenceable(48) %0, i32 noundef %3)
          to label %6 unwind label %7

6:                                                ; preds = %5
  ret void

7:                                                ; preds = %5
  %8 = landingpad { ptr, i32 }
          cleanup
  invoke void @_ZN11xercesc_2_512XMLExceptionD2Ev(ptr noundef nonnull align 8 dereferenceable(48) %0)
          to label %9 unwind label %10

9:                                                ; preds = %7
  resume { ptr, i32 } %8

10:                                               ; preds = %7
  %11 = landingpad { ptr, i32 }
          catch ptr null
  %12 = extractvalue { ptr, i32 } %11, 0
  tail call void @__clang_call_terminate(ptr %12) #15
  unreachable
}

declare void @__cxa_free_exception(ptr) local_unnamed_addr

declare void @__cxa_throw(ptr, ptr, ptr) local_unnamed_addr

; Function Attrs: uwtable
define dso_local noundef zeroext i1 @_ZN11xercesc_2_512XPathScanner14scanExpressionEPKtiiPNS_13ValueVectorOfIiEE(ptr noundef nonnull align 8 dereferenceable(104) %0, ptr noundef %1, i32 noundef %2, i32 noundef %3, ptr noundef %4) local_unnamed_addr #1 align 2 personality ptr @__gxx_personality_v0 {
  %6 = alloca i32, align 4
  %7 = alloca i32, align 4
  %8 = alloca %"class.xercesc_2_5::XMLBuffer", align 8
  call void @llvm.lifetime.start.p0(i64 4, ptr nonnull %6) #14
  store i32 -1, ptr %6, align 4, !tbaa !79
  call void @llvm.lifetime.start.p0(i64 4, ptr nonnull %7) #14
  store i32 -1, ptr %7, align 4, !tbaa !79
  call void @llvm.lifetime.start.p0(i64 32, ptr nonnull %8) #14
  %9 = getelementptr inbounds %"class.xercesc_2_5::ValueVectorOf", ptr %4, i64 0, i32 4
  %10 = load ptr, ptr %9, align 8, !tbaa !76
  store i8 0, ptr %8, align 8, !tbaa !121
  %11 = getelementptr inbounds %"class.xercesc_2_5::XMLBuffer", ptr %8, i64 0, i32 1
  store i32 0, ptr %11, align 4, !tbaa !123
  %12 = getelementptr inbounds %"class.xercesc_2_5::XMLBuffer", ptr %8, i64 0, i32 2
  store i32 128, ptr %12, align 8, !tbaa !124
  %13 = getelementptr inbounds %"class.xercesc_2_5::XMLBuffer", ptr %8, i64 0, i32 3
  store ptr %10, ptr %13, align 8, !tbaa !125
  %14 = getelementptr inbounds %"class.xercesc_2_5::XMLBuffer", ptr %8, i64 0, i32 4
  %15 = load ptr, ptr %10, align 8, !tbaa !77
  %16 = getelementptr inbounds ptr, ptr %15, i64 2
  %17 = load ptr, ptr %16, align 8
  %18 = tail call noundef ptr %17(ptr noundef nonnull align 8 dereferenceable(8) %10, i64 noundef 258)
  store ptr %18, ptr %14, align 8, !tbaa !126
  store i16 0, ptr %18, align 2, !tbaa !104
  %19 = icmp eq i32 %2, %3
  br i1 %19, label %1013, label %20

20:                                               ; preds = %5
  %21 = sext i32 %3 to i64
  %22 = getelementptr inbounds %"class.xercesc_2_5::XPathScanner", ptr %0, i64 0, i32 22
  %23 = getelementptr inbounds %"class.xercesc_2_5::ValueVectorOf", ptr %4, i64 0, i32 1
  %24 = getelementptr inbounds %"class.xercesc_2_5::ValueVectorOf", ptr %4, i64 0, i32 2
  %25 = getelementptr inbounds %"class.xercesc_2_5::ValueVectorOf", ptr %4, i64 0, i32 3
  %26 = getelementptr inbounds %"class.xercesc_2_5::XPathScanner", ptr %0, i64 0, i32 1
  %27 = getelementptr inbounds %"class.xercesc_2_5::XPathScanner", ptr %0, i64 0, i32 2
  %28 = getelementptr inbounds %"class.xercesc_2_5::XPathScanner", ptr %0, i64 0, i32 3
  %29 = getelementptr inbounds %"class.xercesc_2_5::XPathScanner", ptr %0, i64 0, i32 4
  %30 = getelementptr inbounds %"class.xercesc_2_5::XPathScanner", ptr %0, i64 0, i32 5
  %31 = getelementptr inbounds %"class.xercesc_2_5::XPathScanner", ptr %0, i64 0, i32 6
  %32 = getelementptr inbounds %"class.xercesc_2_5::XPathScanner", ptr %0, i64 0, i32 7
  %33 = getelementptr inbounds %"class.xercesc_2_5::XPathScanner", ptr %0, i64 0, i32 8
  %34 = getelementptr inbounds %"class.xercesc_2_5::XPathScanner", ptr %0, i64 0, i32 9
  %35 = getelementptr inbounds %"class.xercesc_2_5::XPathScanner", ptr %0, i64 0, i32 10
  %36 = getelementptr inbounds %"class.xercesc_2_5::XPathScanner", ptr %0, i64 0, i32 11
  %37 = getelementptr inbounds %"class.xercesc_2_5::XPathScanner", ptr %0, i64 0, i32 12
  %38 = getelementptr inbounds %"class.xercesc_2_5::XPathScanner", ptr %0, i64 0, i32 13
  %39 = getelementptr inbounds %"class.xercesc_2_5::XPathScanner", ptr %0, i64 0, i32 14
  %40 = getelementptr inbounds %"class.xercesc_2_5::XPathScanner", ptr %0, i64 0, i32 15
  %41 = getelementptr inbounds %"class.xercesc_2_5::XPathScanner", ptr %0, i64 0, i32 16
  %42 = getelementptr inbounds %"class.xercesc_2_5::XPathScanner", ptr %0, i64 0, i32 17
  %43 = getelementptr inbounds %"class.xercesc_2_5::XPathScanner", ptr %0, i64 0, i32 18
  %44 = getelementptr inbounds %"class.xercesc_2_5::XPathScanner", ptr %0, i64 0, i32 19
  %45 = getelementptr inbounds %"class.xercesc_2_5::XPathScanner", ptr %0, i64 0, i32 20
  %46 = getelementptr inbounds %"class.xercesc_2_5::XPathScanner", ptr %0, i64 0, i32 21
  br label %47

47:                                               ; preds = %20, %1002
  %48 = phi i32 [ %2, %20 ], [ %1004, %1002 ]
  %49 = phi i8 [ 0, %20 ], [ %1003, %1002 ]
  %50 = sext i32 %48 to i64
  br label %51

51:                                               ; preds = %47, %59
  %52 = phi i64 [ %50, %47 ], [ %60, %59 ]
  %53 = getelementptr inbounds i16, ptr %1, i64 %52
  %54 = load i16, ptr %53, align 2, !tbaa !104
  %55 = zext i16 %54 to i64
  %56 = getelementptr inbounds [65536 x i8], ptr @_ZN11xercesc_2_510XMLChar1_019fgCharCharsTable1_0E, i64 0, i64 %55
  %57 = load i8, ptr %56, align 1, !tbaa !127
  %58 = icmp slt i8 %57, 0
  br i1 %58, label %59, label %63

59:                                               ; preds = %51
  %60 = add nsw i64 %52, 1
  %61 = trunc i64 %60 to i32
  %62 = icmp eq i32 %61, %3
  br i1 %62, label %1013, label %51

63:                                               ; preds = %51
  %64 = trunc i64 %52 to i32
  %65 = icmp eq i32 %64, %3
  br i1 %65, label %1013, label %66

66:                                               ; preds = %63
  %67 = icmp ugt i16 %54, 127
  br i1 %67, label %576, label %68

68:                                               ; preds = %66
  %69 = getelementptr inbounds [128 x i8], ptr @_ZN11xercesc_2_512XPathScanner13fASCIICharMapE, i64 0, i64 %55
  %70 = load i8, ptr %69, align 1, !tbaa !127
  switch i8 %70, label %1002 [
    i8 6, label %71
    i8 7, label %83
    i8 21, label %89
    i8 22, label %95
    i8 12, label %101
    i8 19, label %155
    i8 10, label %161
    i8 15, label %167
    i8 13, label %181
    i8 24, label %196
    i8 9, label %202
    i8 11, label %208
    i8 17, label %214
    i8 3, label %220
    i8 16, label %234
    i8 18, label %249
    i8 4, label %269
    i8 14, label %354
    i8 5, label %360
    i8 8, label %565
    i8 25, label %576
    i8 20, label %576
    i8 23, label %576
  ]

71:                                               ; preds = %68
  %72 = load ptr, ptr %0, align 8, !tbaa !77
  %73 = getelementptr inbounds ptr, ptr %72, i64 2
  %74 = load ptr, ptr %73, align 8
  invoke void %74(ptr noundef nonnull align 8 dereferenceable(104) %0, ptr noundef nonnull %4, i32 noundef 0)
          to label %75 unwind label %77

75:                                               ; preds = %71
  %76 = add nsw i32 %64, 1
  br label %1002

77:                                               ; preds = %354, %119, %358, %541, %525, %498, %482, %621, %618, %572, %571, %470, %459, %457, %407, %404, %268, %265, %248, %245, %228, %214, %208, %202, %196, %195, %192, %175, %161, %155, %145, %109, %95, %89, %83, %71
  %78 = landingpad { ptr, i32 }
          cleanup
  br label %1006

79:                                               ; preds = %252
  %80 = landingpad { ptr, i32 }
          cleanup
  br label %1006

81:                                               ; preds = %152
  %82 = landingpad { ptr, i32 }
          cleanup
  br label %1006

83:                                               ; preds = %68
  %84 = load ptr, ptr %0, align 8, !tbaa !77
  %85 = getelementptr inbounds ptr, ptr %84, i64 2
  %86 = load ptr, ptr %85, align 8
  invoke void %86(ptr noundef nonnull align 8 dereferenceable(104) %0, ptr noundef nonnull %4, i32 noundef 1)
          to label %87 unwind label %77

87:                                               ; preds = %83
  %88 = add nsw i32 %64, 1
  br label %1002

89:                                               ; preds = %68
  %90 = load ptr, ptr %0, align 8, !tbaa !77
  %91 = getelementptr inbounds ptr, ptr %90, i64 2
  %92 = load ptr, ptr %91, align 8
  invoke void %92(ptr noundef nonnull align 8 dereferenceable(104) %0, ptr noundef nonnull %4, i32 noundef 2)
          to label %93 unwind label %77

93:                                               ; preds = %89
  %94 = add nsw i32 %64, 1
  br label %1002

95:                                               ; preds = %68
  %96 = load ptr, ptr %0, align 8, !tbaa !77
  %97 = getelementptr inbounds ptr, ptr %96, i64 2
  %98 = load ptr, ptr %97, align 8
  invoke void %98(ptr noundef nonnull align 8 dereferenceable(104) %0, ptr noundef nonnull %4, i32 noundef 3)
          to label %99 unwind label %77

99:                                               ; preds = %95
  %100 = add nsw i32 %64, 1
  br label %1002

101:                                              ; preds = %68
  %102 = add nsw i32 %64, 1
  %103 = icmp eq i32 %102, %3
  br i1 %103, label %252, label %104

104:                                              ; preds = %101
  %105 = sext i32 %102 to i64
  %106 = getelementptr inbounds i16, ptr %1, i64 %105
  %107 = load i16, ptr %106, align 2, !tbaa !104
  %108 = icmp eq i16 %107, 46
  br i1 %108, label %109, label %115

109:                                              ; preds = %104
  %110 = load ptr, ptr %0, align 8, !tbaa !77
  %111 = getelementptr inbounds ptr, ptr %110, i64 2
  %112 = load ptr, ptr %111, align 8
  invoke void %112(ptr noundef nonnull align 8 dereferenceable(104) %0, ptr noundef nonnull %4, i32 noundef 5)
          to label %113 unwind label %77

113:                                              ; preds = %109
  %114 = add nsw i32 %64, 2
  br label %1002

115:                                              ; preds = %104
  %116 = add i16 %107, -48
  %117 = icmp ult i16 %116, 10
  br i1 %117, label %354, label %118

118:                                              ; preds = %115
  switch i16 %107, label %123 [
    i16 47, label %119
    i16 124, label %119
  ]

119:                                              ; preds = %118, %118
  %120 = load ptr, ptr %0, align 8, !tbaa !77
  %121 = getelementptr inbounds ptr, ptr %120, i64 2
  %122 = load ptr, ptr %121, align 8
  invoke void %122(ptr noundef nonnull align 8 dereferenceable(104) %0, ptr noundef nonnull %4, i32 noundef 4)
          to label %1002 unwind label %77

123:                                              ; preds = %118
  %124 = zext i16 %107 to i64
  %125 = getelementptr inbounds [65536 x i8], ptr @_ZN11xercesc_2_510XMLChar1_019fgCharCharsTable1_0E, i64 0, i64 %124
  %126 = load i8, ptr %125, align 1, !tbaa !127
  %127 = icmp slt i8 %126, 0
  br i1 %127, label %128, label %149

128:                                              ; preds = %123
  %129 = shl i64 %52, 32
  %130 = ashr exact i64 %129, 32
  br label %131

131:                                              ; preds = %128, %136
  %132 = phi i64 [ %130, %128 ], [ %133, %136 ]
  %133 = add nsw i64 %132, 1
  %134 = trunc i64 %133 to i32
  %135 = icmp eq i32 %134, %3
  br i1 %135, label %145, label %136

136:                                              ; preds = %131
  %137 = getelementptr inbounds i16, ptr %1, i64 %133
  %138 = load i16, ptr %137, align 2, !tbaa !104
  %139 = zext i16 %138 to i64
  %140 = getelementptr inbounds [65536 x i8], ptr @_ZN11xercesc_2_510XMLChar1_019fgCharCharsTable1_0E, i64 0, i64 %139
  %141 = load i8, ptr %140, align 1, !tbaa !127
  %142 = icmp slt i8 %141, 0
  br i1 %142, label %131, label %143

143:                                              ; preds = %136
  %144 = icmp eq i16 %138, 124
  br i1 %144, label %145, label %1002

145:                                              ; preds = %131, %143
  %146 = load ptr, ptr %0, align 8, !tbaa !77
  %147 = getelementptr inbounds ptr, ptr %146, i64 2
  %148 = load ptr, ptr %147, align 8
  invoke void %148(ptr noundef nonnull align 8 dereferenceable(104) %0, ptr noundef nonnull %4, i32 noundef 4)
          to label %1002 unwind label %77

149:                                              ; preds = %123
  %150 = call ptr @__cxa_allocate_exception(i64 48) #14
  %151 = load ptr, ptr %9, align 8, !tbaa !76
  invoke void @_ZN11xercesc_2_514XPathExceptionC2EPKcjNS_10XMLExcepts5CodesEPNS_13MemoryManagerE(ptr noundef nonnull align 8 dereferenceable(48) %150, ptr noundef nonnull @.str.3, i32 noundef 930, i32 noundef 311, ptr noundef %151)
          to label %152 unwind label %153

152:                                              ; preds = %149
  invoke void @__cxa_throw(ptr nonnull %150, ptr nonnull @_ZTIN11xercesc_2_514XPathExceptionE, ptr nonnull @_ZN11xercesc_2_512XMLExceptionD2Ev) #16
          to label %1024 unwind label %81

153:                                              ; preds = %149
  %154 = landingpad { ptr, i32 }
          cleanup
  call void @__cxa_free_exception(ptr %150) #14
  br label %1006

155:                                              ; preds = %68
  %156 = load ptr, ptr %0, align 8, !tbaa !77
  %157 = getelementptr inbounds ptr, ptr %156, i64 2
  %158 = load ptr, ptr %157, align 8
  invoke void %158(ptr noundef nonnull align 8 dereferenceable(104) %0, ptr noundef nonnull %4, i32 noundef 6)
          to label %159 unwind label %77

159:                                              ; preds = %155
  %160 = add nsw i32 %64, 1
  br label %1002

161:                                              ; preds = %68
  %162 = load ptr, ptr %0, align 8, !tbaa !77
  %163 = getelementptr inbounds ptr, ptr %162, i64 2
  %164 = load ptr, ptr %163, align 8
  invoke void %164(ptr noundef nonnull align 8 dereferenceable(104) %0, ptr noundef nonnull %4, i32 noundef 7)
          to label %165 unwind label %77

165:                                              ; preds = %161
  %166 = add nsw i32 %64, 1
  br label %1002

167:                                              ; preds = %68
  %168 = add nsw i32 %64, 1
  %169 = icmp eq i32 %168, %3
  br i1 %169, label %1013, label %170

170:                                              ; preds = %167
  %171 = sext i32 %168 to i64
  %172 = getelementptr inbounds i16, ptr %1, i64 %171
  %173 = load i16, ptr %172, align 2, !tbaa !104
  %174 = icmp eq i16 %173, 58
  br i1 %174, label %175, label %1013

175:                                              ; preds = %170
  %176 = load ptr, ptr %0, align 8, !tbaa !77
  %177 = getelementptr inbounds ptr, ptr %176, i64 2
  %178 = load ptr, ptr %177, align 8
  invoke void %178(ptr noundef nonnull align 8 dereferenceable(104) %0, ptr noundef nonnull %4, i32 noundef 8)
          to label %179 unwind label %77

179:                                              ; preds = %175
  %180 = add nsw i32 %64, 2
  br label %1002

181:                                              ; preds = %68
  %182 = add nsw i32 %64, 1
  %183 = icmp eq i32 %182, %3
  br i1 %183, label %252, label %184

184:                                              ; preds = %181
  %185 = sext i32 %182 to i64
  %186 = getelementptr inbounds i16, ptr %1, i64 %185
  %187 = load i16, ptr %186, align 2, !tbaa !104
  %188 = icmp eq i16 %187, 47
  %189 = load ptr, ptr %0, align 8, !tbaa !77
  %190 = getelementptr inbounds ptr, ptr %189, i64 2
  %191 = load ptr, ptr %190, align 8
  br i1 %188, label %192, label %195

192:                                              ; preds = %184
  invoke void %191(ptr noundef nonnull align 8 dereferenceable(104) %0, ptr noundef nonnull %4, i32 noundef 22)
          to label %193 unwind label %77

193:                                              ; preds = %192
  %194 = add nsw i32 %64, 2
  br label %1002

195:                                              ; preds = %184
  invoke void %191(ptr noundef nonnull align 8 dereferenceable(104) %0, ptr noundef nonnull %4, i32 noundef 21)
          to label %1002 unwind label %77

196:                                              ; preds = %68
  %197 = load ptr, ptr %0, align 8, !tbaa !77
  %198 = getelementptr inbounds ptr, ptr %197, i64 2
  %199 = load ptr, ptr %198, align 8
  invoke void %199(ptr noundef nonnull align 8 dereferenceable(104) %0, ptr noundef nonnull %4, i32 noundef 23)
          to label %200 unwind label %77

200:                                              ; preds = %196
  %201 = add nsw i32 %64, 1
  br label %1002

202:                                              ; preds = %68
  %203 = load ptr, ptr %0, align 8, !tbaa !77
  %204 = getelementptr inbounds ptr, ptr %203, i64 2
  %205 = load ptr, ptr %204, align 8
  invoke void %205(ptr noundef nonnull align 8 dereferenceable(104) %0, ptr noundef nonnull %4, i32 noundef 24)
          to label %206 unwind label %77

206:                                              ; preds = %202
  %207 = add nsw i32 %64, 1
  br label %1002

208:                                              ; preds = %68
  %209 = load ptr, ptr %0, align 8, !tbaa !77
  %210 = getelementptr inbounds ptr, ptr %209, i64 2
  %211 = load ptr, ptr %210, align 8
  invoke void %211(ptr noundef nonnull align 8 dereferenceable(104) %0, ptr noundef nonnull %4, i32 noundef 25)
          to label %212 unwind label %77

212:                                              ; preds = %208
  %213 = add nsw i32 %64, 1
  br label %1002

214:                                              ; preds = %68
  %215 = load ptr, ptr %0, align 8, !tbaa !77
  %216 = getelementptr inbounds ptr, ptr %215, i64 2
  %217 = load ptr, ptr %216, align 8
  invoke void %217(ptr noundef nonnull align 8 dereferenceable(104) %0, ptr noundef nonnull %4, i32 noundef 26)
          to label %218 unwind label %77

218:                                              ; preds = %214
  %219 = add nsw i32 %64, 1
  br label %1002

220:                                              ; preds = %68
  %221 = add nsw i32 %64, 1
  %222 = icmp eq i32 %221, %3
  br i1 %222, label %1013, label %223

223:                                              ; preds = %220
  %224 = sext i32 %221 to i64
  %225 = getelementptr inbounds i16, ptr %1, i64 %224
  %226 = load i16, ptr %225, align 2, !tbaa !104
  %227 = icmp eq i16 %226, 61
  br i1 %227, label %228, label %1013

228:                                              ; preds = %223
  %229 = load ptr, ptr %0, align 8, !tbaa !77
  %230 = getelementptr inbounds ptr, ptr %229, i64 2
  %231 = load ptr, ptr %230, align 8
  invoke void %231(ptr noundef nonnull align 8 dereferenceable(104) %0, ptr noundef nonnull %4, i32 noundef 27)
          to label %232 unwind label %77

232:                                              ; preds = %228
  %233 = add nsw i32 %64, 2
  br label %1002

234:                                              ; preds = %68
  %235 = add nsw i32 %64, 1
  %236 = icmp eq i32 %235, %3
  br i1 %236, label %252, label %237

237:                                              ; preds = %234
  %238 = sext i32 %235 to i64
  %239 = getelementptr inbounds i16, ptr %1, i64 %238
  %240 = load i16, ptr %239, align 2, !tbaa !104
  %241 = icmp eq i16 %240, 61
  %242 = load ptr, ptr %0, align 8, !tbaa !77
  %243 = getelementptr inbounds ptr, ptr %242, i64 2
  %244 = load ptr, ptr %243, align 8
  br i1 %241, label %245, label %248

245:                                              ; preds = %237
  invoke void %244(ptr noundef nonnull align 8 dereferenceable(104) %0, ptr noundef nonnull %4, i32 noundef 29)
          to label %246 unwind label %77

246:                                              ; preds = %245
  %247 = add nsw i32 %64, 2
  br label %1002

248:                                              ; preds = %237
  invoke void %244(ptr noundef nonnull align 8 dereferenceable(104) %0, ptr noundef nonnull %4, i32 noundef 28)
          to label %1002 unwind label %77

249:                                              ; preds = %68
  %250 = add nsw i32 %64, 1
  %251 = icmp eq i32 %250, %3
  br i1 %251, label %252, label %257

252:                                              ; preds = %249, %234, %181, %101
  %253 = phi i32 [ 4, %101 ], [ 21, %181 ], [ 28, %234 ], [ 30, %249 ]
  %254 = load ptr, ptr %0, align 8, !tbaa !77
  %255 = getelementptr inbounds ptr, ptr %254, i64 2
  %256 = load ptr, ptr %255, align 8
  invoke void %256(ptr noundef nonnull align 8 dereferenceable(104) %0, ptr noundef nonnull %4, i32 noundef %253)
          to label %1013 unwind label %79

257:                                              ; preds = %249
  %258 = sext i32 %250 to i64
  %259 = getelementptr inbounds i16, ptr %1, i64 %258
  %260 = load i16, ptr %259, align 2, !tbaa !104
  %261 = icmp eq i16 %260, 61
  %262 = load ptr, ptr %0, align 8, !tbaa !77
  %263 = getelementptr inbounds ptr, ptr %262, i64 2
  %264 = load ptr, ptr %263, align 8
  br i1 %261, label %265, label %268

265:                                              ; preds = %257
  invoke void %264(ptr noundef nonnull align 8 dereferenceable(104) %0, ptr noundef nonnull %4, i32 noundef 31)
          to label %266 unwind label %77

266:                                              ; preds = %265
  %267 = add nsw i32 %64, 2
  br label %1002

268:                                              ; preds = %257
  invoke void %264(ptr noundef nonnull align 8 dereferenceable(104) %0, ptr noundef nonnull %4, i32 noundef 30)
          to label %1002 unwind label %77

269:                                              ; preds = %68
  %270 = add nsw i32 %64, 1
  %271 = icmp eq i32 %270, %3
  br i1 %271, label %1013, label %272

272:                                              ; preds = %269
  %273 = sext i32 %270 to i64
  %274 = getelementptr inbounds i16, ptr %1, i64 %273
  %275 = load i16, ptr %274, align 2, !tbaa !104
  %276 = icmp eq i16 %275, %54
  br i1 %276, label %286, label %277

277:                                              ; preds = %272, %282
  %278 = phi i64 [ %279, %282 ], [ %273, %272 ]
  %279 = add nsw i64 %278, 1
  %280 = trunc i64 %279 to i32
  %281 = icmp eq i32 %280, %3
  br i1 %281, label %1013, label %282

282:                                              ; preds = %277
  %283 = getelementptr inbounds i16, ptr %1, i64 %279
  %284 = load i16, ptr %283, align 2, !tbaa !104
  %285 = icmp eq i16 %284, %54
  br i1 %285, label %286, label %277

286:                                              ; preds = %282, %272
  %287 = phi i32 [ %270, %272 ], [ %280, %282 ]
  %288 = load ptr, ptr %0, align 8, !tbaa !77
  %289 = getelementptr inbounds ptr, ptr %288, i64 2
  %290 = load ptr, ptr %289, align 8
  invoke void %290(ptr noundef nonnull align 8 dereferenceable(104) %0, ptr noundef nonnull %4, i32 noundef 46)
          to label %291 unwind label %342

291:                                              ; preds = %286
  %292 = sub nsw i32 %287, %270
  invoke void @_ZN11xercesc_2_59XMLBuffer3setEPKtj(ptr noundef nonnull align 8 dereferenceable(32) %8, ptr noundef nonnull %274, i32 noundef %292)
          to label %293 unwind label %342

293:                                              ; preds = %291
  %294 = load ptr, ptr %22, align 8, !tbaa !108
  %295 = load ptr, ptr %14, align 8, !tbaa !126
  %296 = load i32, ptr %11, align 4, !tbaa !123
  %297 = zext i32 %296 to i64
  %298 = getelementptr inbounds i16, ptr %295, i64 %297
  store i16 0, ptr %298, align 2, !tbaa !104
  %299 = load ptr, ptr %294, align 8, !tbaa !77
  %300 = getelementptr inbounds ptr, ptr %299, i64 5
  %301 = load ptr, ptr %300, align 8
  %302 = invoke noundef i32 %301(ptr noundef nonnull align 8 dereferenceable(40) %294, ptr noundef nonnull %295)
          to label %303 unwind label %344

303:                                              ; preds = %293
  %304 = load i32, ptr %23, align 4, !tbaa !67
  %305 = add i32 %304, 1
  %306 = load i32, ptr %24, align 8, !tbaa !74
  %307 = icmp ult i32 %305, %306
  br i1 %307, label %308, label %310

308:                                              ; preds = %303
  %309 = load ptr, ptr %25, align 8, !tbaa !75
  br label %346

310:                                              ; preds = %303
  %311 = uitofp i32 %304 to double
  %312 = fmul reassoc nnan ninf nsz arcp afn double %311, 1.250000e+00
  %313 = fptoui double %312 to i32
