; ModuleID = 'XPathParserException.cpp'
source_filename = "XPathParserException.cpp"
target datalayout = "e-m:e-p270:32:32-p271:32:32-p272:64:64-i64:64-f80:128-n8:16:32:64-S128"
target triple = "x86_64-unknown-linux-gnu"

@_ZTVN10xalanc_1_820XPathParserExceptionE = dso_local unnamed_addr constant { [4 x ptr] } { [4 x ptr] [ptr null, ptr @_ZTIN10xalanc_1_820XPathParserExceptionE, ptr @_ZN10xalanc_1_820XPathParserExceptionD2Ev, ptr @_ZN10xalanc_1_820XPathParserExceptionD0Ev] }, align 8, !type !0, !type !1, !type !2
@_ZTVN10__cxxabiv120__si_class_type_infoE = external global ptr
@_ZTSN10xalanc_1_820XPathParserExceptionE = dso_local constant [37 x i8] c"N10xalanc_1_820XPathParserExceptionE\00", align 1
@_ZTIN10xalanc_1_819XalanXPathExceptionE = external constant ptr
@_ZTIN10xalanc_1_820XPathParserExceptionE = dso_local constant { ptr, ptr, ptr } { ptr getelementptr inbounds (ptr, ptr @_ZTVN10__cxxabiv120__si_class_type_infoE, i64 2), ptr @_ZTSN10xalanc_1_820XPathParserExceptionE, ptr @_ZTIN10xalanc_1_819XalanXPathExceptionE }, align 8

@_ZN10xalanc_1_820XPathParserExceptionC1ERKNS_14XalanDOMStringES3_iiS3_ = dso_local unnamed_addr alias void (ptr, ptr, ptr, i32, i32, ptr), ptr @_ZN10xalanc_1_820XPathParserExceptionC2ERKNS_14XalanDOMStringES3_iiS3_
@_ZN10xalanc_1_820XPathParserExceptionC1ERKN11xercesc_2_57LocatorERKNS_14XalanDOMStringES7_ = dso_local unnamed_addr alias void (ptr, ptr, ptr, ptr), ptr @_ZN10xalanc_1_820XPathParserExceptionC2ERKN11xercesc_2_57LocatorERKNS_14XalanDOMStringES7_
@_ZN10xalanc_1_820XPathParserExceptionC1ERKNS_14XalanDOMStringES3_ = dso_local unnamed_addr alias void (ptr, ptr, ptr), ptr @_ZN10xalanc_1_820XPathParserExceptionC2ERKNS_14XalanDOMStringES3_
@_ZN10xalanc_1_820XPathParserExceptionD1Ev = dso_local unnamed_addr alias void (ptr), ptr @_ZN10xalanc_1_820XPathParserExceptionD2Ev

; Function Attrs: uwtable
define dso_local void @_ZN10xalanc_1_820XPathParserExceptionC2ERKNS_14XalanDOMStringES3_iiS3_(ptr noundef nonnull align 8 dereferenceable(128) %0, ptr noundef nonnull align 8 dereferenceable(28) %1, ptr noundef nonnull align 8 dereferenceable(28) %2, i32 noundef %3, i32 noundef %4, ptr noundef nonnull align 8 dereferenceable(28) %5) unnamed_addr #0 align 2 {
  tail call void @_ZN10xalanc_1_819XalanXPathExceptionC2ERKNS_14XalanDOMStringES3_iiS3_(ptr noundef nonnull align 8 dereferenceable(128) %0, ptr noundef nonnull align 8 dereferenceable(28) %1, ptr noundef nonnull align 8 dereferenceable(28) %2, i32 noundef %3, i32 noundef %4, ptr noundef nonnull align 8 dereferenceable(28) %5)
  store ptr getelementptr inbounds ({ [4 x ptr] }, ptr @_ZTVN10xalanc_1_820XPathParserExceptionE, i64 0, inrange i32 0, i64 2), ptr %0, align 8, !tbaa !10
  ret void
}

declare void @_ZN10xalanc_1_819XalanXPathExceptionC2ERKNS_14XalanDOMStringES3_iiS3_(ptr noundef nonnull align 8 dereferenceable(128), ptr noundef nonnull align 8 dereferenceable(28), ptr noundef nonnull align 8 dereferenceable(28), i32 noundef, i32 noundef, ptr noundef nonnull align 8 dereferenceable(28)) unnamed_addr #1

; Function Attrs: uwtable
define dso_local void @_ZN10xalanc_1_820XPathParserExceptionC2ERKN11xercesc_2_57LocatorERKNS_14XalanDOMStringES7_(ptr noundef nonnull align 8 dereferenceable(128) %0, ptr noundef nonnull align 8 dereferenceable(8) %1, ptr noundef nonnull align 8 dereferenceable(28) %2, ptr noundef nonnull align 8 dereferenceable(28) %3) unnamed_addr #0 align 2 {
  tail call void @_ZN10xalanc_1_819XalanXPathExceptionC2ERKN11xercesc_2_57LocatorERKNS_14XalanDOMStringES7_(ptr noundef nonnull align 8 dereferenceable(128) %0, ptr noundef nonnull align 8 dereferenceable(8) %1, ptr noundef nonnull align 8 dereferenceable(28) %2, ptr noundef nonnull align 8 dereferenceable(28) %3)
  store ptr getelementptr inbounds ({ [4 x ptr] }, ptr @_ZTVN10xalanc_1_820XPathParserExceptionE, i64 0, inrange i32 0, i64 2), ptr %0, align 8, !tbaa !10
  ret void
}

declare void @_ZN10xalanc_1_819XalanXPathExceptionC2ERKN11xercesc_2_57LocatorERKNS_14XalanDOMStringES7_(ptr noundef nonnull align 8 dereferenceable(128), ptr noundef nonnull align 8 dereferenceable(8), ptr noundef nonnull align 8 dereferenceable(28), ptr noundef nonnull align 8 dereferenceable(28)) unnamed_addr #1

; Function Attrs: uwtable
define dso_local void @_ZN10xalanc_1_820XPathParserExceptionC2ERKNS_14XalanDOMStringES3_(ptr noundef nonnull align 8 dereferenceable(128) %0, ptr noundef nonnull align 8 dereferenceable(28) %1, ptr noundef nonnull align 8 dereferenceable(28) %2) unnamed_addr #0 align 2 {
  tail call void @_ZN10xalanc_1_819XalanXPathExceptionC2ERKNS_14XalanDOMStringES3_(ptr noundef nonnull align 8 dereferenceable(128) %0, ptr noundef nonnull align 8 dereferenceable(28) %1, ptr noundef nonnull align 8 dereferenceable(28) %2)
  store ptr getelementptr inbounds ({ [4 x ptr] }, ptr @_ZTVN10xalanc_1_820XPathParserExceptionE, i64 0, inrange i32 0, i64 2), ptr %0, align 8, !tbaa !10
  ret void
}

declare void @_ZN10xalanc_1_819XalanXPathExceptionC2ERKNS_14XalanDOMStringES3_(ptr noundef nonnull align 8 dereferenceable(128), ptr noundef nonnull align 8 dereferenceable(28), ptr noundef nonnull align 8 dereferenceable(28)) unnamed_addr #1

declare void @_ZN10xalanc_1_819XalanXPathExceptionD2Ev(ptr noundef nonnull align 8 dereferenceable(128)) unnamed_addr #1

; Function Attrs: uwtable
define dso_local void @_ZN10xalanc_1_820XPathParserExceptionD2Ev(ptr noundef nonnull align 8 dereferenceable(128) %0) unnamed_addr #0 align 2 {
  tail call void @_ZN10xalanc_1_819XalanXPathExceptionD2Ev(ptr noundef nonnull align 8 dereferenceable(128) %0)
  ret void
}

; Function Attrs: uwtable
define dso_local void @_ZN10xalanc_1_820XPathParserExceptionD0Ev(ptr noundef nonnull align 8 dereferenceable(128) %0) unnamed_addr #0 align 2 personality ptr @__gxx_personality_v0 {
  invoke void @_ZN10xalanc_1_819XalanXPathExceptionD2Ev(ptr noundef nonnull align 8 dereferenceable(128) %0)
          to label %2 unwind label %3

2:                                                ; preds = %1
  tail call void @_ZdlPv(ptr noundef nonnull %0) #3
  ret void

3:                                                ; preds = %1
  %4 = landingpad { ptr, i32 }
          cleanup
  tail call void @_ZdlPv(ptr noundef nonnull %0) #3
  resume { ptr, i32 } %4
}

declare i32 @__gxx_personality_v0(...)

; Function Attrs: nobuiltin nounwind
declare void @_ZdlPv(ptr noundef) local_unnamed_addr #2

attributes #0 = { uwtable "approx-func-fp-math"="true" "denormal-fp-math"="preserve-sign,preserve-sign" "min-legal-vector-width"="0" "no-infs-fp-math"="true" "no-nans-fp-math"="true" "no-signed-zeros-fp-math"="true" "no-trapping-math"="true" "stack-protector-buffer-size"="8" "target-cpu"="znver2" "target-features"="+adx,+aes,+avx,+avx2,+bmi,+bmi2,+clflushopt,+clwb,+clzero,+crc32,+cx16,+cx8,+f16c,+fma,+fsgsbase,+fxsr,+lzcnt,+mmx,+movbe,+mwaitx,+pclmul,+popcnt,+prfchw,+rdpid,+rdpru,+rdrnd,+rdseed,+sahf,+sha,+sse,+sse2,+sse3,+sse4.1,+sse4.2,+sse4a,+ssse3,+wbnoinvd,+x87,+xsave,+xsavec,+xsaveopt,+xsaves" }
attributes #1 = { "approx-func-fp-math"="true" "denormal-fp-math"="preserve-sign,preserve-sign" "no-infs-fp-math"="true" "no-nans-fp-math"="true" "no-signed-zeros-fp-math"="true" "no-trapping-math"="true" "stack-protector-buffer-size"="8" "target-cpu"="znver2" "target-features"="+adx,+aes,+avx,+avx2,+bmi,+bmi2,+clflushopt,+clwb,+clzero,+crc32,+cx16,+cx8,+f16c,+fma,+fsgsbase,+fxsr,+lzcnt,+mmx,+movbe,+mwaitx,+pclmul,+popcnt,+prfchw,+rdpid,+rdpru,+rdrnd,+rdseed,+sahf,+sha,+sse,+sse2,+sse3,+sse4.1,+sse4.2,+sse4a,+ssse3,+wbnoinvd,+x87,+xsave,+xsavec,+xsaveopt,+xsaves" }
attributes #2 = { nobuiltin nounwind "approx-func-fp-math"="true" "denormal-fp-math"="preserve-sign,preserve-sign" "no-infs-fp-math"="true" "no-nans-fp-math"="true" "no-signed-zeros-fp-math"="true" "no-trapping-math"="true" "stack-protector-buffer-size"="8" "target-cpu"="znver2" "target-features"="+adx,+aes,+avx,+avx2,+bmi,+bmi2,+clflushopt,+clwb,+clzero,+crc32,+cx16,+cx8,+f16c,+fma,+fsgsbase,+fxsr,+lzcnt,+mmx,+movbe,+mwaitx,+pclmul,+popcnt,+prfchw,+rdpid,+rdpru,+rdrnd,+rdseed,+sahf,+sha,+sse,+sse2,+sse3,+sse4.1,+sse4.2,+sse4a,+ssse3,+wbnoinvd,+x87,+xsave,+xsavec,+xsaveopt,+xsaves" }
attributes #3 = { builtin nounwind }

!llvm.module.flags = !{!3, !4, !5, !6, !7, !8}
!llvm.ident = !{!9}

!0 = !{i64 16, !"_ZTSN10xalanc_1_812XSLExceptionE"}
!1 = !{i64 16, !"_ZTSN10xalanc_1_819XalanXPathExceptionE"}
!2 = !{i64 16, !"_ZTSN10xalanc_1_820XPathParserExceptionE"}
!3 = !{i32 1, !"wchar_size", i32 4}
!4 = !{i32 8, !"PIC Level", i32 2}
!5 = !{i32 7, !"PIE Level", i32 2}
!6 = !{i32 7, !"uwtable", i32 2}
!7 = !{i32 1, !"ThinLTO", i32 0}
!8 = !{i32 1, !"EnableSplitLTOUnit", i32 1}
!9 = !{!"clang version 17.0.0 (git@github.com:llvm/llvm-project.git cff7a7747db02d1214b20e98677e5ddcb402ffe0)"}
!10 = !{!11, !11, i64 0}
!11 = !{!"vtable pointer", !12, i64 0}
!12 = !{!"Simple C++ TBAA"}

^0 = module: (path: "", hash: (0, 0, 0, 0, 0))
^1 = gv: (name: "_ZN10xalanc_1_820XPathParserExceptionD1Ev", summaries: (alias: (module: ^0, flags: (linkage: external, visibility: default, notEligibleToImport: 1, live: 0, dsoLocal: 1, canAutoHide: 0), aliasee: ^15))) ; guid = 603224064453139560
^2 = gv: (name: "_ZTSN10xalanc_1_820XPathParserExceptionE", summaries: (variable: (module: ^0, flags: (linkage: external, visibility: default, notEligibleToImport: 1, live: 0, dsoLocal: 1, canAutoHide: 0), varFlags: (readonly: 1, writeonly: 0, constant: 1)))) ; guid = 848384979828396973
^3 = gv: (name: "_ZdlPv") ; guid = 950067649961216671
^4 = gv: (name: "__gxx_personality_v0") ; guid = 1233668236132380018
^5 = gv: (name: "_ZN10xalanc_1_819XalanXPathExceptionD2Ev") ; guid = 1811476425475449199
^6 = gv: (name: "_ZN10xalanc_1_820XPathParserExceptionC2ERKNS_14XalanDOMStringES3_", summaries: (function: (module: ^0, flags: (linkage: external, visibility: default, notEligibleToImport: 1, live: 0, dsoLocal: 1, canAutoHide: 0), insts: 3, calls: ((callee: ^18, relbf: 256)), refs: (^17)))) ; guid = 2619231708597210234
^7 = gv: (name: "_ZN10xalanc_1_820XPathParserExceptionC1ERKNS_14XalanDOMStringES3_", summaries: (alias: (module: ^0, flags: (linkage: external, visibility: default, notEligibleToImport: 1, live: 0, dsoLocal: 1, canAutoHide: 0), aliasee: ^6))) ; guid = 3467473124216334973
^8 = gv: (name: "_ZN10xalanc_1_820XPathParserExceptionC2ERKN11xercesc_2_57LocatorERKNS_14XalanDOMStringES7_", summaries: (function: (module: ^0, flags: (linkage: external, visibility: default, notEligibleToImport: 1, live: 0, dsoLocal: 1, canAutoHide: 0), insts: 3, calls: ((callee: ^11, relbf: 256)), refs: (^17)))) ; guid = 4395038492984611990
^9 = gv: (name: "_ZN10xalanc_1_820XPathParserExceptionC1ERKNS_14XalanDOMStringES3_iiS3_", summaries: (alias: (module: ^0, flags: (linkage: external, visibility: default, notEligibleToImport: 1, live: 0, dsoLocal: 1, canAutoHide: 0), aliasee: ^16))) ; guid = 4863898840553715773
^10 = gv: (name: "_ZTIN10xalanc_1_820XPathParserExceptionE", summaries: (variable: (module: ^0, flags: (linkage: external, visibility: default, notEligibleToImport: 1, live: 0, dsoLocal: 1, canAutoHide: 0), varFlags: (readonly: 1, writeonly: 0, constant: 1), refs: (^2, ^14, ^13)))) ; guid = 8261646586901302885
^11 = gv: (name: "_ZN10xalanc_1_819XalanXPathExceptionC2ERKN11xercesc_2_57LocatorERKNS_14XalanDOMStringES7_") ; guid = 9469447427390934343
^12 = gv: (name: "_ZN10xalanc_1_819XalanXPathExceptionC2ERKNS_14XalanDOMStringES3_iiS3_") ; guid = 10739356804042058725
^13 = gv: (name: "_ZTVN10__cxxabiv120__si_class_type_infoE") ; guid = 10873349890511596996
^14 = gv: (name: "_ZTIN10xalanc_1_819XalanXPathExceptionE") ; guid = 11443924762790503325
^15 = gv: (name: "_ZN10xalanc_1_820XPathParserExceptionD2Ev", summaries: (function: (module: ^0, flags: (linkage: external, visibility: default, notEligibleToImport: 1, live: 0, dsoLocal: 1, canAutoHide: 0), insts: 2, calls: ((callee: ^5, relbf: 256))))) ; guid = 12065255212841815825
^16 = gv: (name: "_ZN10xalanc_1_820XPathParserExceptionC2ERKNS_14XalanDOMStringES3_iiS3_", summaries: (function: (module: ^0, flags: (linkage: external, visibility: default, notEligibleToImport: 1, live: 0, dsoLocal: 1, canAutoHide: 0), insts: 3, calls: ((callee: ^12, relbf: 256)), refs: (^17)))) ; guid = 12178576225996260323
^17 = gv: (name: "_ZTVN10xalanc_1_820XPathParserExceptionE", summaries: (variable: (module: ^0, flags: (linkage: external, visibility: default, notEligibleToImport: 1, live: 0, dsoLocal: 1, canAutoHide: 0), varFlags: (readonly: 1, writeonly: 0, constant: 1), refs: (^10, ^15, ^19)))) ; guid = 14163377616940031980
^18 = gv: (name: "_ZN10xalanc_1_819XalanXPathExceptionC2ERKNS_14XalanDOMStringES3_") ; guid = 14523146046081215346
^19 = gv: (name: "_ZN10xalanc_1_820XPathParserExceptionD0Ev", summaries: (function: (module: ^0, flags: (linkage: external, visibility: default, notEligibleToImport: 1, live: 0, dsoLocal: 1, canAutoHide: 0), insts: 6, funcFlags: (readNone: 0, readOnly: 0, noRecurse: 0, returnDoesNotAlias: 0, noInline: 0, alwaysInline: 0, noUnwind: 0, mayThrow: 1, hasUnknownCall: 0, mustBeUnreachable: 0), calls: ((callee: ^5, relbf: 256), (callee: ^3, relbf: 255)), refs: (^4)))) ; guid = 15332220974875319872
^20 = gv: (name: "_ZN10xalanc_1_820XPathParserExceptionC1ERKN11xercesc_2_57LocatorERKNS_14XalanDOMStringES7_", summaries: (alias: (module: ^0, flags: (linkage: external, visibility: default, notEligibleToImport: 1, live: 0, dsoLocal: 1, canAutoHide: 0), aliasee: ^8))) ; guid = 15827367357650522689
^21 = flags: 8
^22 = blockcount: 0
