; ModuleID = 'XPath.cpp'
source_filename = "XPath.cpp"
target datalayout = "e-m:e-p270:32:32-p271:32:32-p272:64:64-i64:64-f80:128-n8:16:32:64-S128"
target triple = "x86_64-unknown-linux-gnu"

%"class.xalanc_1_8::XalanDOMString" = type <{ %"class.std::vector", i32, [4 x i8] }>
%"class.std::vector" = type { %"struct.std::_Vector_base" }
%"struct.std::_Vector_base" = type { %"struct.std::_Vector_base<unsigned short, std::allocator<unsigned short> >::_Vector_impl" }
%"struct.std::_Vector_base<unsigned short, std::allocator<unsigned short> >::_Vector_impl" = type { %"struct.std::_Vector_base<unsigned short, std::allocator<unsigned short> >::_Vector_impl_data" }
%"struct.std::_Vector_base<unsigned short, std::allocator<unsigned short> >::_Vector_impl_data" = type { ptr, ptr, ptr }
%"class.xalanc_1_8::XPathFunctionTable" = type { [36 x ptr], ptr }
%"union.xalanc_1_8::DoubleSupport::NumberUnion" = type { double }
%"class.xalanc_1_8::XPath" = type <{ %"class.xalanc_1_8::XPathExpression", ptr, i8, [7 x i8] }>
%"class.xalanc_1_8::XPathExpression" = type { %"class.std::vector.0", i32, %"class.std::vector.5", i32, ptr, %"class.std::vector.10" }
%"class.std::vector.0" = type { %"struct.std::_Vector_base.1" }
%"struct.std::_Vector_base.1" = type { %"struct.std::_Vector_base<int, std::allocator<int> >::_Vector_impl" }
%"struct.std::_Vector_base<int, std::allocator<int> >::_Vector_impl" = type { %"struct.std::_Vector_base<int, std::allocator<int> >::_Vector_impl_data" }
%"struct.std::_Vector_base<int, std::allocator<int> >::_Vector_impl_data" = type { ptr, ptr, ptr }
%"class.std::vector.5" = type { %"struct.std::_Vector_base.6" }
%"struct.std::_Vector_base.6" = type { %"struct.std::_Vector_base<xalanc_1_8::XToken, std::allocator<xalanc_1_8::XToken> >::_Vector_impl" }
%"struct.std::_Vector_base<xalanc_1_8::XToken, std::allocator<xalanc_1_8::XToken> >::_Vector_impl" = type { %"struct.std::_Vector_base<xalanc_1_8::XToken, std::allocator<xalanc_1_8::XToken> >::_Vector_impl_data" }
%"struct.std::_Vector_base<xalanc_1_8::XToken, std::allocator<xalanc_1_8::XToken> >::_Vector_impl_data" = type { ptr, ptr, ptr }
%"class.std::vector.10" = type { %"struct.std::_Vector_base.11" }
%"struct.std::_Vector_base.11" = type { %"struct.std::_Vector_base<double, std::allocator<double> >::_Vector_impl" }
%"struct.std::_Vector_base<double, std::allocator<double> >::_Vector_impl" = type { %"struct.std::_Vector_base<double, std::allocator<double> >::_Vector_impl_data" }
%"struct.std::_Vector_base<double, std::allocator<double> >::_Vector_impl_data" = type { ptr, ptr, ptr }
%"class.xalanc_1_8::XObjectPtr" = type { ptr }
%"class.xalanc_1_8::FormatterStringLengthCounter" = type { %"class.xalanc_1_8::FormatterListener.base", i64 }
%"class.xalanc_1_8::FormatterListener.base" = type <{ %"class.xercesc_2_5::DocumentHandler", ptr, i32 }>
%"class.xercesc_2_5::DocumentHandler" = type { ptr }
%"class.xalanc_1_8::XPathExecutionContext::BorrowReturnMutableNodeRefList" = type { ptr, ptr }
%"class.xalanc_1_8::XalanQNameByReference" = type { %"class.xalanc_1_8::XalanQName", ptr, ptr }
%"class.xalanc_1_8::XalanQName" = type { ptr }
%"class.xalanc_1_8::XPathExecutionContext" = type { %"class.xalanc_1_8::ExecutionContext", ptr }
%"class.xalanc_1_8::ExecutionContext" = type { ptr }
%"class.xalanc_1_8::XToken" = type <{ %"class.xalanc_1_8::XObject", ptr, double, i8, [7 x i8] }>
%"class.xalanc_1_8::XObject" = type { %"class.xalanc_1_8::XalanReferenceCountedObject.base", i32, ptr }
%"class.xalanc_1_8::XalanReferenceCountedObject.base" = type <{ ptr, i32 }>
%struct.anon = type { i32, i32 }
%"class.std::vector.25" = type { %"struct.std::_Vector_base.26" }
%"struct.std::_Vector_base.26" = type { %"struct.std::_Vector_base<xalanc_1_8::XObjectPtr, std::allocator<xalanc_1_8::XObjectPtr> >::_Vector_impl" }
%"struct.std::_Vector_base<xalanc_1_8::XObjectPtr, std::allocator<xalanc_1_8::XObjectPtr> >::_Vector_impl" = type { %"struct.std::_Vector_base<xalanc_1_8::XObjectPtr, std::allocator<xalanc_1_8::XObjectPtr> >::_Vector_impl_data" }
%"struct.std::_Vector_base<xalanc_1_8::XObjectPtr, std::allocator<xalanc_1_8::XObjectPtr> >::_Vector_impl_data" = type { ptr, ptr, ptr }
%"class.xalanc_1_8::MutableNodeRefList" = type <{ %"class.xalanc_1_8::NodeRefList", i32, [4 x i8] }>
%"class.xalanc_1_8::NodeRefList" = type { %"class.xalanc_1_8::NodeRefListBase", %"class.std::vector.15" }
%"class.xalanc_1_8::NodeRefListBase" = type { ptr }
%"class.std::vector.15" = type { %"struct.std::_Vector_base.16" }
%"struct.std::_Vector_base.16" = type { %"struct.std::_Vector_base<xalanc_1_8::XalanNode *, std::allocator<xalanc_1_8::XalanNode *> >::_Vector_impl" }
%"struct.std::_Vector_base<xalanc_1_8::XalanNode *, std::allocator<xalanc_1_8::XalanNode *> >::_Vector_impl" = type { %"struct.std::_Vector_base<xalanc_1_8::XalanNode *, std::allocator<xalanc_1_8::XalanNode *> >::_Vector_impl_data" }
%"struct.std::_Vector_base<xalanc_1_8::XalanNode *, std::allocator<xalanc_1_8::XalanNode *> >::_Vector_impl_data" = type { ptr, ptr, ptr }
%"struct.std::_Vector_base<xalanc_1_8::XPath::TargetData, std::allocator<xalanc_1_8::XPath::TargetData> >::_Vector_impl_data" = type { ptr, ptr, ptr }
%"class.xalanc_1_8::XPath::TargetData" = type { ptr, i32, i32 }
%"class.xalanc_1_8::XPath::NodeTester" = type { ptr, ptr, ptr, { i64, i64 }, { i64, i64 } }

$_ZN10xalanc_1_814XalanDOMStringD2Ev = comdat any

$__clang_call_terminate = comdat any

$_ZNSt6vectorIN10xalanc_1_810XObjectPtrESaIS1_EED2Ev = comdat any

$_ZNSt6vectorIN10xalanc_1_810XObjectPtrESaIS1_EE17_M_realloc_insertEN9__gnu_cxx17__normal_iteratorIPS1_S3_EERKS1_ = comdat any

@_ZN10xalanc_1_85XPath13s_emptyStringE = dso_local global %"class.xalanc_1_8::XalanDOMString" zeroinitializer, align 8
@__dso_handle = external hidden global i8
@_ZN10xalanc_1_85XPath11s_functionsE = dso_local global %"class.xalanc_1_8::XPathFunctionTable" zeroinitializer, align 8
@_ZN10xalanc_1_811DOMServices14s_XMLNamespaceE = external local_unnamed_addr constant ptr, align 8
@_ZN10xalanc_1_811DOMServices27s_XMLNamespaceWithSeparatorE = external local_unnamed_addr constant ptr, align 8
@_ZN10xalanc_1_811DOMServices13s_emptyStringE = external global %"class.xalanc_1_8::XalanDOMString", align 8
@.str = private unnamed_addr constant [25 x i8] c"processing-instruction()\00", align 1
@_ZN10xalanc_1_85XPath14PSEUDONAME_ANYE = dso_local constant [2 x i16] [i16 42, i16 0], align 2
@_ZN10xalanc_1_85XPath15PSEUDONAME_ROOTE = dso_local constant [2 x i16] [i16 47, i16 0], align 2
@_ZN10xalanc_1_85XPath15PSEUDONAME_TEXTE = dso_local constant [6 x i16] [i16 35, i16 116, i16 101, i16 120, i16 116, i16 0], align 2
@_ZN10xalanc_1_85XPath18PSEUDONAME_COMMENTE = dso_local constant [9 x i16] [i16 35, i16 99, i16 111, i16 109, i16 109, i16 101, i16 110, i16 116, i16 0], align 16
@_ZN10xalanc_1_85XPath13PSEUDONAME_PIE = dso_local constant [4 x i16] [i16 35, i16 112, i16 105, i16 0], align 2
@_ZN10xalanc_1_85XPath16PSEUDONAME_OTHERE = dso_local local_unnamed_addr constant [2 x i16] [i16 42, i16 0], align 2
@_ZN10xalanc_1_85XPath15PSEUDONAME_NODEE = dso_local constant [6 x i16] [i16 35, i16 110, i16 111, i16 100, i16 101, i16 0], align 2
@_ZN10xalanc_1_813DoubleSupport5s_NaNE = external local_unnamed_addr global %"union.xalanc_1_8::DoubleSupport::NumberUnion", align 8
@_ZN10xalanc_1_87XObject12s_trueStringE = external local_unnamed_addr global %"class.xalanc_1_8::XalanDOMString", align 8
@_ZN10xalanc_1_87XObject13s_falseStringE = external local_unnamed_addr global %"class.xalanc_1_8::XalanDOMString", align 8
@_ZN10xalanc_1_814XalanDOMString7s_emptyE = external constant i16, align 2
@.str.8 = private unnamed_addr constant [16 x i8] c"vector::reserve\00", align 1
@.str.9 = private unnamed_addr constant [26 x i8] c"vector::_M_realloc_insert\00", align 1
@llvm.global_ctors = appending global [1 x { i32, ptr, ptr }] [{ i32, ptr, ptr } { i32 65535, ptr @_GLOBAL__sub_I_XPath.cpp, ptr null }]

@_ZN10xalanc_1_85XPathC1EPKN11xercesc_2_57LocatorE = dso_local unnamed_addr alias void (ptr, ptr), ptr @_ZN10xalanc_1_85XPathC2EPKN11xercesc_2_57LocatorE
@_ZN10xalanc_1_85XPathD1Ev = dso_local unnamed_addr alias void (ptr), ptr @_ZN10xalanc_1_85XPathD2Ev
@_ZN10xalanc_1_85XPath10NodeTesterC1ERKS1_ = dso_local unnamed_addr alias void (ptr, ptr), ptr @_ZN10xalanc_1_85XPath10NodeTesterC2ERKS1_
@_ZN10xalanc_1_85XPath10NodeTesterC1ERKS0_RNS_21XPathExecutionContextEN9__gnu_cxx17__normal_iteratorIPKiSt6vectorIiSaIiEEEEii = dso_local unnamed_addr alias void (ptr, ptr, ptr, ptr, i32, i32), ptr @_ZN10xalanc_1_85XPath10NodeTesterC2ERKS0_RNS_21XPathExecutionContextEN9__gnu_cxx17__normal_iteratorIPKiSt6vectorIiSaIiEEEEii
@_ZN10xalanc_1_85XPath10NodeTesterC1Ev = dso_local unnamed_addr alias void (ptr), ptr @_ZN10xalanc_1_85XPath10NodeTesterC2Ev
@_ZN10xalanc_1_85XPath10NodeTesterC1ERNS_24XPathConstructionContextERKNS_14XalanDOMStringERKNS_14PrefixResolverEPKN11xercesc_2_57LocatorEPNS0_11eMatchScoreE = dso_local unnamed_addr alias void (ptr, ptr, ptr, ptr, ptr, ptr), ptr @_ZN10xalanc_1_85XPath10NodeTesterC2ERNS_24XPathConstructionContextERKNS_14XalanDOMStringERKNS_14PrefixResolverEPKN11xercesc_2_57LocatorEPNS0_11eMatchScoreE
@_ZN10xalanc_1_85XPath10NodeTesterC1ERKNS_14XalanDOMStringES4_PNS0_11eMatchScoreE = dso_local unnamed_addr alias void (ptr, ptr, ptr, ptr), ptr @_ZN10xalanc_1_85XPath10NodeTesterC2ERKNS_14XalanDOMStringES4_PNS0_11eMatchScoreE

declare void @_ZN10xalanc_1_814XalanDOMStringC1Ev(ptr noundef nonnull align 8 dereferenceable(28)) unnamed_addr #0

; Function Attrs: uwtable
define linkonce_odr dso_local void @_ZN10xalanc_1_814XalanDOMStringD2Ev(ptr noundef nonnull align 8 dereferenceable(28) %0) unnamed_addr #1 comdat align 2 personality ptr @__gxx_personality_v0 {
  %2 = load ptr, ptr %0, align 8, !tbaa !7
  %3 = icmp eq ptr %2, null
  br i1 %3, label %5, label %4

4:                                                ; preds = %1
  tail call void @_ZdlPv(ptr noundef nonnull %2) #16
  br label %5

5:                                                ; preds = %1, %4
  ret void
}

; Function Attrs: nofree nounwind
declare i32 @__cxa_atexit(ptr, ptr, ptr) local_unnamed_addr #2

; Function Attrs: uwtable
define dso_local void @_ZN10xalanc_1_85XPathC2EPKN11xercesc_2_57LocatorE(ptr noundef nonnull align 8 dereferenceable(105) %0, ptr noundef %1) unnamed_addr #1 align 2 {
  tail call void @_ZN10xalanc_1_815XPathExpressionC1Ev(ptr noundef nonnull align 8 dereferenceable(96) %0)
  %3 = getelementptr inbounds %"class.xalanc_1_8::XPath", ptr %0, i64 0, i32 1
  store ptr %1, ptr %3, align 8, !tbaa !12
  %4 = getelementptr inbounds %"class.xalanc_1_8::XPath", ptr %0, i64 0, i32 2
  store i8 0, ptr %4, align 8, !tbaa !29
  ret void
}

declare void @_ZN10xalanc_1_815XPathExpressionC1Ev(ptr noundef nonnull align 8 dereferenceable(96)) unnamed_addr #0

; Function Attrs: uwtable
define dso_local void @_ZN10xalanc_1_85XPathD2Ev(ptr noundef nonnull align 8 dereferenceable(105) %0) unnamed_addr #1 align 2 {
  tail call void @_ZN10xalanc_1_815XPathExpressionD1Ev(ptr noundef nonnull align 8 dereferenceable(96) %0)
  ret void
}

declare void @_ZN10xalanc_1_815XPathExpressionD1Ev(ptr noundef nonnull align 8 dereferenceable(96)) unnamed_addr #0

; Function Attrs: uwtable
define dso_local void @_ZNK10xalanc_1_85XPath18unknownOpCodeErrorEPNS_9XalanNodeERNS_21XPathExecutionContextEN9__gnu_cxx17__normal_iteratorIPKiSt6vectorIiSaIiEEEE(ptr nocapture noundef nonnull readonly align 8 dereferenceable(105) %0, ptr noundef %1, ptr noundef nonnull align 8 dereferenceable(16) %2, ptr nocapture readonly %3) local_unnamed_addr #1 align 2 personality ptr @__gxx_personality_v0 {
  %5 = alloca %"class.xalanc_1_8::XalanDOMString", align 8
  %6 = alloca %"class.xalanc_1_8::XalanDOMString", align 8
  call void @llvm.lifetime.start.p0(i64 32, ptr nonnull %5) #16
  call void @_ZN10xalanc_1_814XalanDOMStringC1Ev(ptr noundef nonnull align 8 dereferenceable(28) %5)
  %7 = load i32, ptr %3, align 4, !tbaa !30
  %8 = sext i32 %7 to i64
  %9 = invoke noundef nonnull align 8 dereferenceable(28) ptr @_ZN10xalanc_1_815LongToDOMStringElRNS_14XalanDOMStringE(i64 noundef %8, ptr noundef nonnull align 8 dereferenceable(28) %5)
          to label %10 unwind label %26

10:                                               ; preds = %4
  call void @llvm.lifetime.start.p0(i64 32, ptr nonnull %6) #16
  invoke void @_ZN10xalanc_1_818XalanMessageLoader10getMessageENS_13XalanMessages5CodesERKNS_14XalanDOMStringE(ptr nonnull sret(%"class.xalanc_1_8::XalanDOMString") align 8 %6, i32 noundef 11, ptr noundef nonnull align 8 dereferenceable(28) %5)
          to label %11 unwind label %28

11:                                               ; preds = %10
  %12 = getelementptr inbounds %"class.xalanc_1_8::XPath", ptr %0, i64 0, i32 1
  %13 = load ptr, ptr %12, align 8, !tbaa !12
  %14 = load ptr, ptr %2, align 8, !tbaa !31
  %15 = getelementptr inbounds ptr, ptr %14, i64 2
  %16 = load ptr, ptr %15, align 8
  invoke void %16(ptr noundef nonnull align 8 dereferenceable(16) %2, ptr noundef nonnull align 8 dereferenceable(28) %6, ptr noundef %1, ptr noundef %13)
          to label %17 unwind label %30

17:                                               ; preds = %11
  %18 = load ptr, ptr %6, align 8, !tbaa !7
  %19 = icmp eq ptr %18, null
  br i1 %19, label %21, label %20

20:                                               ; preds = %17
  call void @_ZdlPv(ptr noundef nonnull %18) #16
  br label %21

21:                                               ; preds = %20, %17
  call void @llvm.lifetime.end.p0(i64 32, ptr nonnull %6) #16
  %22 = load ptr, ptr %5, align 8, !tbaa !7
  %23 = icmp eq ptr %22, null
  br i1 %23, label %25, label %24

24:                                               ; preds = %21
  call void @_ZdlPv(ptr noundef nonnull %22) #16
  br label %25

25:                                               ; preds = %21, %24
  call void @llvm.lifetime.end.p0(i64 32, ptr nonnull %5) #16
  ret void

26:                                               ; preds = %4
  %27 = landingpad { ptr, i32 }
          cleanup
  br label %37

28:                                               ; preds = %10
  %29 = landingpad { ptr, i32 }
          cleanup
  br label %35

30:                                               ; preds = %11
  %31 = landingpad { ptr, i32 }
          cleanup
  %32 = load ptr, ptr %6, align 8, !tbaa !7
  %33 = icmp eq ptr %32, null
  br i1 %33, label %35, label %34

34:                                               ; preds = %30
  call void @_ZdlPv(ptr noundef nonnull %32) #16
  br label %35

35:                                               ; preds = %34, %30, %28
  %36 = phi { ptr, i32 } [ %29, %28 ], [ %31, %30 ], [ %31, %34 ]
  call void @llvm.lifetime.end.p0(i64 32, ptr nonnull %6) #16
  br label %37

37:                                               ; preds = %35, %26
  %38 = phi { ptr, i32 } [ %36, %35 ], [ %27, %26 ]
  %39 = load ptr, ptr %5, align 8, !tbaa !7
  %40 = icmp eq ptr %39, null
  br i1 %40, label %42, label %41

41:                                               ; preds = %37
  call void @_ZdlPv(ptr noundef nonnull %39) #16
  br label %42

42:                                               ; preds = %41, %37
  call void @llvm.lifetime.end.p0(i64 32, ptr nonnull %5) #16
  resume { ptr, i32 } %38
}

; Function Attrs: mustprogress nocallback nofree nosync nounwind willreturn memory(argmem: readwrite)
declare void @llvm.lifetime.start.p0(i64 immarg, ptr nocapture) #3

declare noundef nonnull align 8 dereferenceable(28) ptr @_ZN10xalanc_1_815LongToDOMStringElRNS_14XalanDOMStringE(i64 noundef, ptr noundef nonnull align 8 dereferenceable(28)) local_unnamed_addr #0

; Function Attrs: mustprogress nocallback nofree nounwind willreturn memory(argmem: readwrite)
declare void @llvm.memcpy.p0.p0.i64(ptr noalias nocapture writeonly, ptr noalias nocapture readonly, i64, i1 immarg) #4

declare i32 @__gxx_personality_v0(...)

declare void @_ZN10xalanc_1_818XalanMessageLoader10getMessageENS_13XalanMessages5CodesERKNS_14XalanDOMStringE(ptr sret(%"class.xalanc_1_8::XalanDOMString") align 8, i32 noundef, ptr noundef nonnull align 8 dereferenceable(28)) local_unnamed_addr #0

; Function Attrs: noinline noreturn nounwind uwtable
define linkonce_odr hidden void @__clang_call_terminate(ptr noundef %0) local_unnamed_addr #5 comdat {
  %2 = tail call ptr @__cxa_begin_catch(ptr %0) #16
  tail call void @_ZSt9terminatev() #17
  unreachable
}

declare ptr @__cxa_begin_catch(ptr) local_unnamed_addr

declare void @_ZSt9terminatev() local_unnamed_addr

; Function Attrs: mustprogress nocallback nofree nosync nounwind willreturn memory(argmem: readwrite)
declare void @llvm.lifetime.end.p0(i64 immarg, ptr nocapture) #3

; Function Attrs: uwtable
define dso_local void @_ZNK10xalanc_1_85XPath15notNodeSetErrorEPNS_9XalanNodeERNS_21XPathExecutionContextE(ptr nocapture noundef nonnull readonly align 8 dereferenceable(105) %0, ptr noundef %1, ptr noundef nonnull align 8 dereferenceable(16) %2) local_unnamed_addr #1 align 2 personality ptr @__gxx_personality_v0 {
  %4 = alloca %"class.xalanc_1_8::XalanDOMString", align 8
  call void @llvm.lifetime.start.p0(i64 32, ptr nonnull %4) #16
  call void @_ZN10xalanc_1_818XalanMessageLoader10getMessageENS_13XalanMessages5CodesE(ptr nonnull sret(%"class.xalanc_1_8::XalanDOMString") align 8 %4, i32 noundef 12)
  %5 = getelementptr inbounds %"class.xalanc_1_8::XPath", ptr %0, i64 0, i32 1
  %6 = load ptr, ptr %5, align 8, !tbaa !12
  %7 = load ptr, ptr %2, align 8, !tbaa !31
  %8 = getelementptr inbounds ptr, ptr %7, i64 2
  %9 = load ptr, ptr %8, align 8
  invoke void %9(ptr noundef nonnull align 8 dereferenceable(16) %2, ptr noundef nonnull align 8 dereferenceable(28) %4, ptr noundef %1, ptr noundef %6)
          to label %10 unwind label %15

10:                                               ; preds = %3
  %11 = load ptr, ptr %4, align 8, !tbaa !7
  %12 = icmp eq ptr %11, null
  br i1 %12, label %14, label %13

13:                                               ; preds = %10
  call void @_ZdlPv(ptr noundef nonnull %11) #16
  br label %14

14:                                               ; preds = %10, %13
  call void @llvm.lifetime.end.p0(i64 32, ptr nonnull %4) #16
  ret void

15:                                               ; preds = %3
  %16 = landingpad { ptr, i32 }
          cleanup
  %17 = load ptr, ptr %4, align 8, !tbaa !7
  %18 = icmp eq ptr %17, null
  br i1 %18, label %20, label %19

19:                                               ; preds = %15
  call void @_ZdlPv(ptr noundef nonnull %17) #16
  br label %20

20:                                               ; preds = %19, %15
  call void @llvm.lifetime.end.p0(i64 32, ptr nonnull %4) #16
  resume { ptr, i32 } %16
}

declare void @_ZN10xalanc_1_818XalanMessageLoader10getMessageENS_13XalanMessages5CodesE(ptr sret(%"class.xalanc_1_8::XalanDOMString") align 8, i32 noundef) local_unnamed_addr #0

; Function Attrs: uwtable
define dso_local void @_ZNK10xalanc_1_85XPath7executeEPNS_9XalanNodeERKNS_14PrefixResolverERNS_21XPathExecutionContextE(ptr noalias sret(%"class.xalanc_1_8::XObjectPtr") align 8 %0, ptr noundef nonnull align 8 dereferenceable(105) %1, ptr noundef %2, ptr noundef nonnull align 8 dereferenceable(8) %3, ptr noundef nonnull align 8 dereferenceable(16) %4) local_unnamed_addr #1 align 2 personality ptr @__gxx_personality_v0 {
  %6 = load ptr, ptr %4, align 8, !tbaa !31
  %7 = getelementptr inbounds ptr, ptr %6, i64 32
  %8 = load ptr, ptr %7, align 8
  %9 = tail call noundef ptr %8(ptr noundef nonnull align 8 dereferenceable(16) %4)
  %10 = load ptr, ptr %4, align 8, !tbaa !31
  %11 = getelementptr inbounds ptr, ptr %10, i64 33
  %12 = load ptr, ptr %11, align 8
  tail call void %12(ptr noundef nonnull align 8 dereferenceable(16) %4, ptr noundef nonnull %3)
  %13 = load ptr, ptr %4, align 8, !tbaa !31
  %14 = getelementptr inbounds ptr, ptr %13, i64 10
  %15 = load ptr, ptr %14, align 8
  invoke void %15(ptr noundef nonnull align 8 dereferenceable(16) %4, ptr noundef %2)
          to label %16 unwind label %22

16:                                               ; preds = %5
  %17 = load ptr, ptr %1, align 8, !tbaa !33
  invoke void @_ZNK10xalanc_1_85XPath11executeMoreEPNS_9XalanNodeEN9__gnu_cxx17__normal_iteratorIPKiSt6vectorIiSaIiEEEERNS_21XPathExecutionContextE(ptr sret(%"class.xalanc_1_8::XObjectPtr") align 8 %0, ptr noundef nonnull align 8 dereferenceable(105) %1, ptr noundef %2, ptr %17, ptr noundef nonnull align 8 dereferenceable(16) %4)
          to label %18 unwind label %24

18:                                               ; preds = %16
  %19 = load ptr, ptr %4, align 8, !tbaa !31
  %20 = getelementptr inbounds ptr, ptr %19, i64 11
  %21 = load ptr, ptr %20, align 8
  invoke void %21(ptr noundef nonnull align 8 dereferenceable(16) %4)
          to label %29 unwind label %22

22:                                               ; preds = %18, %5
  %23 = landingpad { ptr, i32 }
          cleanup
  br label %33

24:                                               ; preds = %16
  %25 = landingpad { ptr, i32 }
          cleanup
  %26 = load ptr, ptr %4, align 8, !tbaa !31
  %27 = getelementptr inbounds ptr, ptr %26, i64 11
  %28 = load ptr, ptr %27, align 8
  invoke void %28(ptr noundef nonnull align 8 dereferenceable(16) %4)
          to label %33 unwind label %39

29:                                               ; preds = %18
  %30 = load ptr, ptr %4, align 8, !tbaa !31
  %31 = getelementptr inbounds ptr, ptr %30, i64 33
  %32 = load ptr, ptr %31, align 8
  tail call void %32(ptr noundef nonnull align 8 dereferenceable(16) %4, ptr noundef %9)
  ret void

33:                                               ; preds = %24, %22
  %34 = phi { ptr, i32 } [ %23, %22 ], [ %25, %24 ]
  %35 = load ptr, ptr %4, align 8, !tbaa !31
  %36 = getelementptr inbounds ptr, ptr %35, i64 33
  %37 = load ptr, ptr %36, align 8
  invoke void %37(ptr noundef nonnull align 8 dereferenceable(16) %4, ptr noundef %9)
          to label %38 unwind label %39

38:                                               ; preds = %33
  resume { ptr, i32 } %34

39:                                               ; preds = %33, %24
  %40 = landingpad { ptr, i32 }
          catch ptr null
  %41 = extractvalue { ptr, i32 } %40, 0
  tail call void @__clang_call_terminate(ptr %41) #17
  unreachable
}

; Function Attrs: uwtable
define dso_local void @_ZNK10xalanc_1_85XPath11executeMoreEPNS_9XalanNodeEN9__gnu_cxx17__normal_iteratorIPKiSt6vectorIiSaIiEEEERNS_21XPathExecutionContextE(ptr noalias sret(%"class.xalanc_1_8::XObjectPtr") align 8 %0, ptr noundef nonnull align 8 dereferenceable(105) %1, ptr noundef %2, ptr %3, ptr noundef nonnull align 8 dereferenceable(16) %4) local_unnamed_addr #1 align 2 personality ptr @__gxx_personality_v0 {
  %6 = alloca %"class.xalanc_1_8::FormatterStringLengthCounter", align 8
  %7 = alloca { i64, i64 }, align 8
  %8 = alloca %"class.xalanc_1_8::XPathExecutionContext::BorrowReturnMutableNodeRefList", align 8
  %9 = alloca %"class.xalanc_1_8::XPathExecutionContext::BorrowReturnMutableNodeRefList", align 8
  %10 = alloca double, align 8
  %11 = alloca double, align 8
  %12 = alloca double, align 8
  %13 = alloca i8, align 1
  %14 = alloca double, align 8
  %15 = alloca double, align 8
  %16 = alloca double, align 8
  %17 = alloca double, align 8
  %18 = alloca double, align 8
  %19 = alloca double, align 8
  %20 = alloca double, align 8
  %21 = alloca double, align 8
  %22 = alloca double, align 8
  %23 = alloca double, align 8
  %24 = alloca double, align 8
  %25 = alloca %"class.xalanc_1_8::FormatterStringLengthCounter", align 8
  %26 = alloca double, align 8
  %27 = alloca i8, align 1
  %28 = alloca %"class.xalanc_1_8::XalanQNameByReference", align 8
  %29 = alloca i8, align 1
  %30 = alloca i8, align 1
  br label %31

31:                                               ; preds = %34, %5
  %32 = phi ptr [ %3, %5 ], [ %35, %34 ]
  %33 = load i32, ptr %32, align 4, !tbaa !30
  switch i32 %33, label %698 [
    i32 1, label %34
    i32 2, label %36
    i32 3, label %54
    i32 4, label %72
    i32 5, label %79
    i32 6, label %86
    i32 7, label %93
    i32 8, label %100
    i32 9, label %107
    i32 10, label %114
    i32 11, label %154
    i32 12, label %194
    i32 13, label %234
    i32 14, label %274
    i32 15, label %314
    i32 17, label %336
    i32 18, label %374
    i32 19, label %398
    i32 20, label %34
    i32 21, label %429
    i32 23, label %453
    i32 24, label %454
    i32 25, label %455
    i32 56, label %492
    i32 57, label %503
    i32 58, label %514
    i32 59, label %521
    i32 60, label %530
    i32 61, label %536
    i32 62, label %542
    i32 63, label %551
    i32 64, label %558
    i32 65, label %565
    i32 66, label %608
    i32 67, label %615
    i32 68, label %624
    i32 69, label %633
    i32 70, label %642
    i32 71, label %649
    i32 74, label %657
    i32 75, label %673
    i32 78, label %691
  ]

34:                                               ; preds = %31, %31
  %35 = getelementptr inbounds i32, ptr %32, i64 2
  br label %31

36:                                               ; preds = %31
  %37 = getelementptr inbounds %"class.xalanc_1_8::XPathExecutionContext", ptr %4, i64 0, i32 1
  %38 = load ptr, ptr %37, align 8, !tbaa !34
  %39 = getelementptr inbounds i32, ptr %32, i64 2
  call void @llvm.lifetime.start.p0(i64 1, ptr nonnull %30) #16
  call void @_ZNK10xalanc_1_85XPath11executeMoreEPNS_9XalanNodeEN9__gnu_cxx17__normal_iteratorIPKiSt6vectorIiSaIiEEEERNS_21XPathExecutionContextERb(ptr noundef nonnull align 8 dereferenceable(105) %1, ptr noundef %2, ptr nonnull %39, ptr noundef nonnull align 8 dereferenceable(16) %4, ptr noundef nonnull align 1 dereferenceable(1) %30)
  %40 = load i8, ptr %30, align 1, !tbaa !37, !range !38, !noundef !39
  %41 = icmp eq i8 %40, 0
  br i1 %41, label %42, label %49

42:                                               ; preds = %36
  %43 = getelementptr inbounds i32, ptr %32, i64 3
  %44 = load i32, ptr %43, align 4, !tbaa !30
  %45 = sext i32 %44 to i64
  %46 = getelementptr inbounds i32, ptr %39, i64 %45
  call void @_ZNK10xalanc_1_85XPath11executeMoreEPNS_9XalanNodeEN9__gnu_cxx17__normal_iteratorIPKiSt6vectorIiSaIiEEEERNS_21XPathExecutionContextERb(ptr noundef nonnull align 8 dereferenceable(105) %1, ptr noundef %2, ptr nonnull %46, ptr noundef nonnull align 8 dereferenceable(16) %4, ptr noundef nonnull align 1 dereferenceable(1) %30)
  %47 = load i8, ptr %30, align 1, !tbaa !37, !range !38
  %48 = icmp ne i8 %47, 0
  br label %49

49:                                               ; preds = %36, %42
  %50 = phi i1 [ true, %36 ], [ %48, %42 ]
  call void @llvm.lifetime.end.p0(i64 1, ptr nonnull %30) #16
  %51 = load ptr, ptr %38, align 8, !tbaa !31
  %52 = getelementptr inbounds ptr, ptr %51, i64 3
  %53 = load ptr, ptr %52, align 8
  tail call void %53(ptr sret(%"class.xalanc_1_8::XObjectPtr") align 8 %0, ptr noundef nonnull align 8 dereferenceable(8) %38, i1 noundef zeroext %50)
  br label %699

54:                                               ; preds = %31
  %55 = getelementptr inbounds %"class.xalanc_1_8::XPathExecutionContext", ptr %4, i64 0, i32 1
  %56 = load ptr, ptr %55, align 8, !tbaa !34
  %57 = getelementptr inbounds i32, ptr %32, i64 2
  call void @llvm.lifetime.start.p0(i64 1, ptr nonnull %29) #16
  call void @_ZNK10xalanc_1_85XPath11executeMoreEPNS_9XalanNodeEN9__gnu_cxx17__normal_iteratorIPKiSt6vectorIiSaIiEEEERNS_21XPathExecutionContextERb(ptr noundef nonnull align 8 dereferenceable(105) %1, ptr noundef %2, ptr nonnull %57, ptr noundef nonnull align 8 dereferenceable(16) %4, ptr noundef nonnull align 1 dereferenceable(1) %29)
  %58 = load i8, ptr %29, align 1, !tbaa !37, !range !38, !noundef !39
  %59 = icmp eq i8 %58, 0
  br i1 %59, label %67, label %60

60:                                               ; preds = %54
  %61 = getelementptr inbounds i32, ptr %32, i64 3
  %62 = load i32, ptr %61, align 4, !tbaa !30
  %63 = sext i32 %62 to i64
  %64 = getelementptr inbounds i32, ptr %57, i64 %63
  call void @_ZNK10xalanc_1_85XPath11executeMoreEPNS_9XalanNodeEN9__gnu_cxx17__normal_iteratorIPKiSt6vectorIiSaIiEEEERNS_21XPathExecutionContextERb(ptr noundef nonnull align 8 dereferenceable(105) %1, ptr noundef %2, ptr nonnull %64, ptr noundef nonnull align 8 dereferenceable(16) %4, ptr noundef nonnull align 1 dereferenceable(1) %29)
  %65 = load i8, ptr %29, align 1, !tbaa !37, !range !38
  %66 = icmp ne i8 %65, 0
  br label %67

67:                                               ; preds = %54, %60
  %68 = phi i1 [ false, %54 ], [ %66, %60 ]
  call void @llvm.lifetime.end.p0(i64 1, ptr nonnull %29) #16
  %69 = load ptr, ptr %56, align 8, !tbaa !31
  %70 = getelementptr inbounds ptr, ptr %69, i64 3
  %71 = load ptr, ptr %70, align 8
  tail call void %71(ptr sret(%"class.xalanc_1_8::XObjectPtr") align 8 %0, ptr noundef nonnull align 8 dereferenceable(8) %56, i1 noundef zeroext %68)
  br label %699

72:                                               ; preds = %31
  %73 = getelementptr inbounds %"class.xalanc_1_8::XPathExecutionContext", ptr %4, i64 0, i32 1
  %74 = load ptr, ptr %73, align 8, !tbaa !34
  %75 = tail call noundef zeroext i1 @_ZNK10xalanc_1_85XPath9notequalsEPNS_9XalanNodeEN9__gnu_cxx17__normal_iteratorIPKiSt6vectorIiSaIiEEEERNS_21XPathExecutionContextE(ptr noundef nonnull align 8 dereferenceable(105) %1, ptr noundef %2, ptr nonnull %32, ptr noundef nonnull align 8 dereferenceable(16) %4)
  %76 = load ptr, ptr %74, align 8, !tbaa !31
  %77 = getelementptr inbounds ptr, ptr %76, i64 3
  %78 = load ptr, ptr %77, align 8
  tail call void %78(ptr sret(%"class.xalanc_1_8::XObjectPtr") align 8 %0, ptr noundef nonnull align 8 dereferenceable(8) %74, i1 noundef zeroext %75)
  br label %699

79:                                               ; preds = %31
  %80 = getelementptr inbounds %"class.xalanc_1_8::XPathExecutionContext", ptr %4, i64 0, i32 1
  %81 = load ptr, ptr %80, align 8, !tbaa !34
  %82 = tail call noundef zeroext i1 @_ZNK10xalanc_1_85XPath6equalsEPNS_9XalanNodeEN9__gnu_cxx17__normal_iteratorIPKiSt6vectorIiSaIiEEEERNS_21XPathExecutionContextE(ptr noundef nonnull align 8 dereferenceable(105) %1, ptr noundef %2, ptr nonnull %32, ptr noundef nonnull align 8 dereferenceable(16) %4)
  %83 = load ptr, ptr %81, align 8, !tbaa !31
  %84 = getelementptr inbounds ptr, ptr %83, i64 3
  %85 = load ptr, ptr %84, align 8
  tail call void %85(ptr sret(%"class.xalanc_1_8::XObjectPtr") align 8 %0, ptr noundef nonnull align 8 dereferenceable(8) %81, i1 noundef zeroext %82)
  br label %699

86:                                               ; preds = %31
  %87 = getelementptr inbounds %"class.xalanc_1_8::XPathExecutionContext", ptr %4, i64 0, i32 1
  %88 = load ptr, ptr %87, align 8, !tbaa !34
  %89 = tail call noundef zeroext i1 @_ZNK10xalanc_1_85XPath3lteEPNS_9XalanNodeEN9__gnu_cxx17__normal_iteratorIPKiSt6vectorIiSaIiEEEERNS_21XPathExecutionContextE(ptr noundef nonnull align 8 dereferenceable(105) %1, ptr noundef %2, ptr nonnull %32, ptr noundef nonnull align 8 dereferenceable(16) %4)
  %90 = load ptr, ptr %88, align 8, !tbaa !31
  %91 = getelementptr inbounds ptr, ptr %90, i64 3
  %92 = load ptr, ptr %91, align 8
  tail call void %92(ptr sret(%"class.xalanc_1_8::XObjectPtr") align 8 %0, ptr noundef nonnull align 8 dereferenceable(8) %88, i1 noundef zeroext %89)
  br label %699

93:                                               ; preds = %31
  %94 = getelementptr inbounds %"class.xalanc_1_8::XPathExecutionContext", ptr %4, i64 0, i32 1
  %95 = load ptr, ptr %94, align 8, !tbaa !34
  %96 = tail call noundef zeroext i1 @_ZNK10xalanc_1_85XPath2ltEPNS_9XalanNodeEN9__gnu_cxx17__normal_iteratorIPKiSt6vectorIiSaIiEEEERNS_21XPathExecutionContextE(ptr noundef nonnull align 8 dereferenceable(105) %1, ptr noundef %2, ptr nonnull %32, ptr noundef nonnull align 8 dereferenceable(16) %4)
  %97 = load ptr, ptr %95, align 8, !tbaa !31
  %98 = getelementptr inbounds ptr, ptr %97, i64 3
  %99 = load ptr, ptr %98, align 8
  tail call void %99(ptr sret(%"class.xalanc_1_8::XObjectPtr") align 8 %0, ptr noundef nonnull align 8 dereferenceable(8) %95, i1 noundef zeroext %96)
  br label %699

100:                                              ; preds = %31
  %101 = getelementptr inbounds %"class.xalanc_1_8::XPathExecutionContext", ptr %4, i64 0, i32 1
  %102 = load ptr, ptr %101, align 8, !tbaa !34
  %103 = tail call noundef zeroext i1 @_ZNK10xalanc_1_85XPath3gteEPNS_9XalanNodeEN9__gnu_cxx17__normal_iteratorIPKiSt6vectorIiSaIiEEEERNS_21XPathExecutionContextE(ptr noundef nonnull align 8 dereferenceable(105) %1, ptr noundef %2, ptr nonnull %32, ptr noundef nonnull align 8 dereferenceable(16) %4)
  %104 = load ptr, ptr %102, align 8, !tbaa !31
  %105 = getelementptr inbounds ptr, ptr %104, i64 3
  %106 = load ptr, ptr %105, align 8
  tail call void %106(ptr sret(%"class.xalanc_1_8::XObjectPtr") align 8 %0, ptr noundef nonnull align 8 dereferenceable(8) %102, i1 noundef zeroext %103)
  br label %699

107:                                              ; preds = %31
  %108 = getelementptr inbounds %"class.xalanc_1_8::XPathExecutionContext", ptr %4, i64 0, i32 1
  %109 = load ptr, ptr %108, align 8, !tbaa !34
  %110 = tail call noundef zeroext i1 @_ZNK10xalanc_1_85XPath2gtEPNS_9XalanNodeEN9__gnu_cxx17__normal_iteratorIPKiSt6vectorIiSaIiEEEERNS_21XPathExecutionContextE(ptr noundef nonnull align 8 dereferenceable(105) %1, ptr noundef %2, ptr nonnull %32, ptr noundef nonnull align 8 dereferenceable(16) %4)
  %111 = load ptr, ptr %109, align 8, !tbaa !31
  %112 = getelementptr inbounds ptr, ptr %111, i64 3
  %113 = load ptr, ptr %112, align 8
  tail call void %113(ptr sret(%"class.xalanc_1_8::XObjectPtr") align 8 %0, ptr noundef nonnull align 8 dereferenceable(8) %109, i1 noundef zeroext %110)
  br label %699

114:                                              ; preds = %31
  %115 = getelementptr inbounds %"class.xalanc_1_8::XPathExecutionContext", ptr %4, i64 0, i32 1
  %116 = load ptr, ptr %115, align 8, !tbaa !34
  %117 = getelementptr inbounds i32, ptr %32, i64 2
  %118 = load i32, ptr %117, align 4, !tbaa !30
  %119 = icmp eq i32 %118, 21
  br i1 %119, label %120, label %128

120:                                              ; preds = %114
  %121 = getelementptr inbounds i32, ptr %32, i64 4
  %122 = load i32, ptr %121, align 4, !tbaa !30
  %123 = getelementptr inbounds %"class.xalanc_1_8::XPathExpression", ptr %1, i64 0, i32 5
  %124 = sext i32 %122 to i64
  %125 = load ptr, ptr %123, align 8, !tbaa !40
  %126 = getelementptr inbounds double, ptr %125, i64 %124
  %127 = load double, ptr %126, align 8, !tbaa !41
  br label %130

128:                                              ; preds = %114
  call void @llvm.lifetime.start.p0(i64 8, ptr nonnull %23) #16
  call void @_ZNK10xalanc_1_85XPath11executeMoreEPNS_9XalanNodeEN9__gnu_cxx17__normal_iteratorIPKiSt6vectorIiSaIiEEEERNS_21XPathExecutionContextERd(ptr noundef nonnull align 8 dereferenceable(105) %1, ptr noundef %2, ptr nonnull %117, ptr noundef nonnull align 8 dereferenceable(16) %4, ptr noundef nonnull align 8 dereferenceable(8) %23)
  %129 = load double, ptr %23, align 8, !tbaa !41
  call void @llvm.lifetime.end.p0(i64 8, ptr nonnull %23) #16
  br label %130

130:                                              ; preds = %120, %128
  %131 = phi double [ %127, %120 ], [ %129, %128 ]
  %132 = getelementptr inbounds i32, ptr %32, i64 3
  %133 = load i32, ptr %132, align 4, !tbaa !30
  %134 = sext i32 %133 to i64
  %135 = getelementptr inbounds i32, ptr %117, i64 %134
  %136 = load i32, ptr %135, align 4, !tbaa !30
  %137 = icmp eq i32 %136, 21
  br i1 %137, label %138, label %146

138:                                              ; preds = %130
  %139 = getelementptr inbounds i32, ptr %135, i64 2
  %140 = load i32, ptr %139, align 4, !tbaa !30
  %141 = getelementptr inbounds %"class.xalanc_1_8::XPathExpression", ptr %1, i64 0, i32 5
  %142 = sext i32 %140 to i64
  %143 = load ptr, ptr %141, align 8, !tbaa !40
  %144 = getelementptr inbounds double, ptr %143, i64 %142
  %145 = load double, ptr %144, align 8, !tbaa !41
  br label %148

146:                                              ; preds = %130
  call void @llvm.lifetime.start.p0(i64 8, ptr nonnull %24) #16
  call void @_ZNK10xalanc_1_85XPath11executeMoreEPNS_9XalanNodeEN9__gnu_cxx17__normal_iteratorIPKiSt6vectorIiSaIiEEEERNS_21XPathExecutionContextERd(ptr noundef nonnull align 8 dereferenceable(105) %1, ptr noundef %2, ptr nonnull %135, ptr noundef nonnull align 8 dereferenceable(16) %4, ptr noundef nonnull align 8 dereferenceable(8) %24)
  %147 = load double, ptr %24, align 8, !tbaa !41
  call void @llvm.lifetime.end.p0(i64 8, ptr nonnull %24) #16
  br label %148

148:                                              ; preds = %138, %146
  %149 = phi double [ %145, %138 ], [ %147, %146 ]
  %150 = tail call reassoc nnan ninf nsz arcp afn noundef nofpclass(nan inf) double @_ZN10xalanc_1_813DoubleSupport3addEdd(double noundef nofpclass(nan inf) %131, double noundef nofpclass(nan inf) %149)
  %151 = load ptr, ptr %116, align 8, !tbaa !31
  %152 = getelementptr inbounds ptr, ptr %151, i64 7
  %153 = load ptr, ptr %152, align 8
  tail call void %153(ptr sret(%"class.xalanc_1_8::XObjectPtr") align 8 %0, ptr noundef nonnull align 8 dereferenceable(8) %116, double noundef nofpclass(nan inf) %150)
  br label %699

154:                                              ; preds = %31
  %155 = getelementptr inbounds %"class.xalanc_1_8::XPathExecutionContext", ptr %4, i64 0, i32 1
  %156 = load ptr, ptr %155, align 8, !tbaa !34
  %157 = getelementptr inbounds i32, ptr %32, i64 2
  %158 = load i32, ptr %157, align 4, !tbaa !30
  %159 = icmp eq i32 %158, 21
  br i1 %159, label %160, label %168

160:                                              ; preds = %154
  %161 = getelementptr inbounds i32, ptr %32, i64 4
  %162 = load i32, ptr %161, align 4, !tbaa !30
  %163 = getelementptr inbounds %"class.xalanc_1_8::XPathExpression", ptr %1, i64 0, i32 5
  %164 = sext i32 %162 to i64
  %165 = load ptr, ptr %163, align 8, !tbaa !40
  %166 = getelementptr inbounds double, ptr %165, i64 %164
  %167 = load double, ptr %166, align 8, !tbaa !41
  br label %170

168:                                              ; preds = %154
  call void @llvm.lifetime.start.p0(i64 8, ptr nonnull %21) #16
  call void @_ZNK10xalanc_1_85XPath11executeMoreEPNS_9XalanNodeEN9__gnu_cxx17__normal_iteratorIPKiSt6vectorIiSaIiEEEERNS_21XPathExecutionContextERd(ptr noundef nonnull align 8 dereferenceable(105) %1, ptr noundef %2, ptr nonnull %157, ptr noundef nonnull align 8 dereferenceable(16) %4, ptr noundef nonnull align 8 dereferenceable(8) %21)
  %169 = load double, ptr %21, align 8, !tbaa !41
  call void @llvm.lifetime.end.p0(i64 8, ptr nonnull %21) #16
  br label %170

170:                                              ; preds = %160, %168
  %171 = phi double [ %167, %160 ], [ %169, %168 ]
  %172 = getelementptr inbounds i32, ptr %32, i64 3
  %173 = load i32, ptr %172, align 4, !tbaa !30
  %174 = sext i32 %173 to i64
  %175 = getelementptr inbounds i32, ptr %157, i64 %174
  %176 = load i32, ptr %175, align 4, !tbaa !30
  %177 = icmp eq i32 %176, 21
  br i1 %177, label %178, label %186

178:                                              ; preds = %170
  %179 = getelementptr inbounds i32, ptr %175, i64 2
  %180 = load i32, ptr %179, align 4, !tbaa !30
  %181 = getelementptr inbounds %"class.xalanc_1_8::XPathExpression", ptr %1, i64 0, i32 5
  %182 = sext i32 %180 to i64
  %183 = load ptr, ptr %181, align 8, !tbaa !40
  %184 = getelementptr inbounds double, ptr %183, i64 %182
  %185 = load double, ptr %184, align 8, !tbaa !41
  br label %188

186:                                              ; preds = %170
  call void @llvm.lifetime.start.p0(i64 8, ptr nonnull %22) #16
  call void @_ZNK10xalanc_1_85XPath11executeMoreEPNS_9XalanNodeEN9__gnu_cxx17__normal_iteratorIPKiSt6vectorIiSaIiEEEERNS_21XPathExecutionContextERd(ptr noundef nonnull align 8 dereferenceable(105) %1, ptr noundef %2, ptr nonnull %175, ptr noundef nonnull align 8 dereferenceable(16) %4, ptr noundef nonnull align 8 dereferenceable(8) %22)
  %187 = load double, ptr %22, align 8, !tbaa !41
  call void @llvm.lifetime.end.p0(i64 8, ptr nonnull %22) #16
  br label %188

188:                                              ; preds = %178, %186
  %189 = phi double [ %185, %178 ], [ %187, %186 ]
  %190 = tail call reassoc nnan ninf nsz arcp afn noundef nofpclass(nan inf) double @_ZN10xalanc_1_813DoubleSupport8subtractEdd(double noundef nofpclass(nan inf) %171, double noundef nofpclass(nan inf) %189)
  %191 = load ptr, ptr %156, align 8, !tbaa !31
  %192 = getelementptr inbounds ptr, ptr %191, i64 7
  %193 = load ptr, ptr %192, align 8
  tail call void %193(ptr sret(%"class.xalanc_1_8::XObjectPtr") align 8 %0, ptr noundef nonnull align 8 dereferenceable(8) %156, double noundef nofpclass(nan inf) %190)
  br label %699

194:                                              ; preds = %31
  %195 = getelementptr inbounds %"class.xalanc_1_8::XPathExecutionContext", ptr %4, i64 0, i32 1
  %196 = load ptr, ptr %195, align 8, !tbaa !34
  %197 = getelementptr inbounds i32, ptr %32, i64 2
  %198 = load i32, ptr %197, align 4, !tbaa !30
  %199 = icmp eq i32 %198, 21
  br i1 %199, label %200, label %208

200:                                              ; preds = %194
  %201 = getelementptr inbounds i32, ptr %32, i64 4
  %202 = load i32, ptr %201, align 4, !tbaa !30
  %203 = getelementptr inbounds %"class.xalanc_1_8::XPathExpression", ptr %1, i64 0, i32 5
  %204 = sext i32 %202 to i64
  %205 = load ptr, ptr %203, align 8, !tbaa !40
  %206 = getelementptr inbounds double, ptr %205, i64 %204
  %207 = load double, ptr %206, align 8, !tbaa !41
  br label %210

208:                                              ; preds = %194
  call void @llvm.lifetime.start.p0(i64 8, ptr nonnull %19) #16
  call void @_ZNK10xalanc_1_85XPath11executeMoreEPNS_9XalanNodeEN9__gnu_cxx17__normal_iteratorIPKiSt6vectorIiSaIiEEEERNS_21XPathExecutionContextERd(ptr noundef nonnull align 8 dereferenceable(105) %1, ptr noundef %2, ptr nonnull %197, ptr noundef nonnull align 8 dereferenceable(16) %4, ptr noundef nonnull align 8 dereferenceable(8) %19)
  %209 = load double, ptr %19, align 8, !tbaa !41
  call void @llvm.lifetime.end.p0(i64 8, ptr nonnull %19) #16
  br label %210

210:                                              ; preds = %200, %208
  %211 = phi double [ %207, %200 ], [ %209, %208 ]
  %212 = getelementptr inbounds i32, ptr %32, i64 3
  %213 = load i32, ptr %212, align 4, !tbaa !30
  %214 = sext i32 %213 to i64
  %215 = getelementptr inbounds i32, ptr %197, i64 %214
  %216 = load i32, ptr %215, align 4, !tbaa !30
  %217 = icmp eq i32 %216, 21
  br i1 %217, label %218, label %226

218:                                              ; preds = %210
  %219 = getelementptr inbounds i32, ptr %215, i64 2
  %220 = load i32, ptr %219, align 4, !tbaa !30
  %221 = getelementptr inbounds %"class.xalanc_1_8::XPathExpression", ptr %1, i64 0, i32 5
  %222 = sext i32 %220 to i64
  %223 = load ptr, ptr %221, align 8, !tbaa !40
  %224 = getelementptr inbounds double, ptr %223, i64 %222
  %225 = load double, ptr %224, align 8, !tbaa !41
  br label %228

226:                                              ; preds = %210
  call void @llvm.lifetime.start.p0(i64 8, ptr nonnull %20) #16
  call void @_ZNK10xalanc_1_85XPath11executeMoreEPNS_9XalanNodeEN9__gnu_cxx17__normal_iteratorIPKiSt6vectorIiSaIiEEEERNS_21XPathExecutionContextERd(ptr noundef nonnull align 8 dereferenceable(105) %1, ptr noundef %2, ptr nonnull %215, ptr noundef nonnull align 8 dereferenceable(16) %4, ptr noundef nonnull align 8 dereferenceable(8) %20)
  %227 = load double, ptr %20, align 8, !tbaa !41
  call void @llvm.lifetime.end.p0(i64 8, ptr nonnull %20) #16
  br label %228

228:                                              ; preds = %218, %226
  %229 = phi double [ %225, %218 ], [ %227, %226 ]
  %230 = tail call reassoc nnan ninf nsz arcp afn noundef nofpclass(nan inf) double @_ZN10xalanc_1_813DoubleSupport8multiplyEdd(double noundef nofpclass(nan inf) %211, double noundef nofpclass(nan inf) %229)
  %231 = load ptr, ptr %196, align 8, !tbaa !31
  %232 = getelementptr inbounds ptr, ptr %231, i64 7
  %233 = load ptr, ptr %232, align 8
  tail call void %233(ptr sret(%"class.xalanc_1_8::XObjectPtr") align 8 %0, ptr noundef nonnull align 8 dereferenceable(8) %196, double noundef nofpclass(nan inf) %230)
  br label %699

234:                                              ; preds = %31
  %235 = getelementptr inbounds %"class.xalanc_1_8::XPathExecutionContext", ptr %4, i64 0, i32 1
  %236 = load ptr, ptr %235, align 8, !tbaa !34
  %237 = getelementptr inbounds i32, ptr %32, i64 2
  %238 = load i32, ptr %237, align 4, !tbaa !30
  %239 = icmp eq i32 %238, 21
  br i1 %239, label %240, label %248

240:                                              ; preds = %234
  %241 = getelementptr inbounds i32, ptr %32, i64 4
  %242 = load i32, ptr %241, align 4, !tbaa !30
  %243 = getelementptr inbounds %"class.xalanc_1_8::XPathExpression", ptr %1, i64 0, i32 5
  %244 = sext i32 %242 to i64
  %245 = load ptr, ptr %243, align 8, !tbaa !40
  %246 = getelementptr inbounds double, ptr %245, i64 %244
  %247 = load double, ptr %246, align 8, !tbaa !41
  br label %250

248:                                              ; preds = %234
  call void @llvm.lifetime.start.p0(i64 8, ptr nonnull %17) #16
  call void @_ZNK10xalanc_1_85XPath11executeMoreEPNS_9XalanNodeEN9__gnu_cxx17__normal_iteratorIPKiSt6vectorIiSaIiEEEERNS_21XPathExecutionContextERd(ptr noundef nonnull align 8 dereferenceable(105) %1, ptr noundef %2, ptr nonnull %237, ptr noundef nonnull align 8 dereferenceable(16) %4, ptr noundef nonnull align 8 dereferenceable(8) %17)
  %249 = load double, ptr %17, align 8, !tbaa !41
  call void @llvm.lifetime.end.p0(i64 8, ptr nonnull %17) #16
  br label %250

250:                                              ; preds = %240, %248
  %251 = phi double [ %247, %240 ], [ %249, %248 ]
  %252 = getelementptr inbounds i32, ptr %32, i64 3
  %253 = load i32, ptr %252, align 4, !tbaa !30
  %254 = sext i32 %253 to i64
  %255 = getelementptr inbounds i32, ptr %237, i64 %254
  %256 = load i32, ptr %255, align 4, !tbaa !30
  %257 = icmp eq i32 %256, 21
  br i1 %257, label %258, label %266

258:                                              ; preds = %250
  %259 = getelementptr inbounds i32, ptr %255, i64 2
  %260 = load i32, ptr %259, align 4, !tbaa !30
  %261 = getelementptr inbounds %"class.xalanc_1_8::XPathExpression", ptr %1, i64 0, i32 5
  %262 = sext i32 %260 to i64
  %263 = load ptr, ptr %261, align 8, !tbaa !40
  %264 = getelementptr inbounds double, ptr %263, i64 %262
  %265 = load double, ptr %264, align 8, !tbaa !41
  br label %268

266:                                              ; preds = %250
  call void @llvm.lifetime.start.p0(i64 8, ptr nonnull %18) #16
  call void @_ZNK10xalanc_1_85XPath11executeMoreEPNS_9XalanNodeEN9__gnu_cxx17__normal_iteratorIPKiSt6vectorIiSaIiEEEERNS_21XPathExecutionContextERd(ptr noundef nonnull align 8 dereferenceable(105) %1, ptr noundef %2, ptr nonnull %255, ptr noundef nonnull align 8 dereferenceable(16) %4, ptr noundef nonnull align 8 dereferenceable(8) %18)
  %267 = load double, ptr %18, align 8, !tbaa !41
  call void @llvm.lifetime.end.p0(i64 8, ptr nonnull %18) #16
  br label %268

268:                                              ; preds = %258, %266
  %269 = phi double [ %265, %258 ], [ %267, %266 ]
  %270 = tail call reassoc nnan ninf nsz arcp afn noundef nofpclass(nan inf) double @_ZN10xalanc_1_813DoubleSupport6divideEdd(double noundef nofpclass(nan inf) %251, double noundef nofpclass(nan inf) %269)
  %271 = load ptr, ptr %236, align 8, !tbaa !31
  %272 = getelementptr inbounds ptr, ptr %271, i64 7
  %273 = load ptr, ptr %272, align 8
  tail call void %273(ptr sret(%"class.xalanc_1_8::XObjectPtr") align 8 %0, ptr noundef nonnull align 8 dereferenceable(8) %236, double noundef nofpclass(nan inf) %270)
  br label %699

274:                                              ; preds = %31
  %275 = getelementptr inbounds %"class.xalanc_1_8::XPathExecutionContext", ptr %4, i64 0, i32 1
  %276 = load ptr, ptr %275, align 8, !tbaa !34
  %277 = getelementptr inbounds i32, ptr %32, i64 2
  %278 = load i32, ptr %277, align 4, !tbaa !30
  %279 = icmp eq i32 %278, 21
  br i1 %279, label %280, label %288

280:                                              ; preds = %274
  %281 = getelementptr inbounds i32, ptr %32, i64 4
  %282 = load i32, ptr %281, align 4, !tbaa !30
  %283 = getelementptr inbounds %"class.xalanc_1_8::XPathExpression", ptr %1, i64 0, i32 5
  %284 = sext i32 %282 to i64
  %285 = load ptr, ptr %283, align 8, !tbaa !40
  %286 = getelementptr inbounds double, ptr %285, i64 %284
  %287 = load double, ptr %286, align 8, !tbaa !41
  br label %290

288:                                              ; preds = %274
  call void @llvm.lifetime.start.p0(i64 8, ptr nonnull %15) #16
  call void @_ZNK10xalanc_1_85XPath11executeMoreEPNS_9XalanNodeEN9__gnu_cxx17__normal_iteratorIPKiSt6vectorIiSaIiEEEERNS_21XPathExecutionContextERd(ptr noundef nonnull align 8 dereferenceable(105) %1, ptr noundef %2, ptr nonnull %277, ptr noundef nonnull align 8 dereferenceable(16) %4, ptr noundef nonnull align 8 dereferenceable(8) %15)
  %289 = load double, ptr %15, align 8, !tbaa !41
  call void @llvm.lifetime.end.p0(i64 8, ptr nonnull %15) #16
  br label %290

290:                                              ; preds = %280, %288
  %291 = phi double [ %287, %280 ], [ %289, %288 ]
  %292 = getelementptr inbounds i32, ptr %32, i64 3
  %293 = load i32, ptr %292, align 4, !tbaa !30
  %294 = sext i32 %293 to i64
  %295 = getelementptr inbounds i32, ptr %277, i64 %294
  %296 = load i32, ptr %295, align 4, !tbaa !30
  %297 = icmp eq i32 %296, 21
  br i1 %297, label %298, label %306

298:                                              ; preds = %290
  %299 = getelementptr inbounds i32, ptr %295, i64 2
  %300 = load i32, ptr %299, align 4, !tbaa !30
  %301 = getelementptr inbounds %"class.xalanc_1_8::XPathExpression", ptr %1, i64 0, i32 5
  %302 = sext i32 %300 to i64
  %303 = load ptr, ptr %301, align 8, !tbaa !40
  %304 = getelementptr inbounds double, ptr %303, i64 %302
  %305 = load double, ptr %304, align 8, !tbaa !41
  br label %308

306:                                              ; preds = %290
  call void @llvm.lifetime.start.p0(i64 8, ptr nonnull %16) #16
  call void @_ZNK10xalanc_1_85XPath11executeMoreEPNS_9XalanNodeEN9__gnu_cxx17__normal_iteratorIPKiSt6vectorIiSaIiEEEERNS_21XPathExecutionContextERd(ptr noundef nonnull align 8 dereferenceable(105) %1, ptr noundef %2, ptr nonnull %295, ptr noundef nonnull align 8 dereferenceable(16) %4, ptr noundef nonnull align 8 dereferenceable(8) %16)
  %307 = load double, ptr %16, align 8, !tbaa !41
  call void @llvm.lifetime.end.p0(i64 8, ptr nonnull %16) #16
  br label %308

308:                                              ; preds = %298, %306
  %309 = phi double [ %305, %298 ], [ %307, %306 ]
  %310 = tail call reassoc nnan ninf nsz arcp afn noundef nofpclass(nan inf) double @_ZN10xalanc_1_813DoubleSupport7modulusEdd(double noundef nofpclass(nan inf) %291, double noundef nofpclass(nan inf) %309)
  %311 = load ptr, ptr %276, align 8, !tbaa !31
  %312 = getelementptr inbounds ptr, ptr %311, i64 7
  %313 = load ptr, ptr %312, align 8
  tail call void %313(ptr sret(%"class.xalanc_1_8::XObjectPtr") align 8 %0, ptr noundef nonnull align 8 dereferenceable(8) %276, double noundef nofpclass(nan inf) %310)
  br label %699

314:                                              ; preds = %31
  %315 = getelementptr inbounds %"class.xalanc_1_8::XPathExecutionContext", ptr %4, i64 0, i32 1
  %316 = load ptr, ptr %315, align 8, !tbaa !34
  %317 = getelementptr inbounds i32, ptr %32, i64 2
  %318 = load i32, ptr %317, align 4, !tbaa !30
  %319 = icmp eq i32 %318, 21
  br i1 %319, label %320, label %328

320:                                              ; preds = %314
  %321 = getelementptr inbounds i32, ptr %32, i64 4
  %322 = load i32, ptr %321, align 4, !tbaa !30
  %323 = getelementptr inbounds %"class.xalanc_1_8::XPathExpression", ptr %1, i64 0, i32 5
  %324 = sext i32 %322 to i64
  %325 = load ptr, ptr %323, align 8, !tbaa !40
  %326 = getelementptr inbounds double, ptr %325, i64 %324
  %327 = load double, ptr %326, align 8, !tbaa !41
  br label %330

328:                                              ; preds = %314
  call void @llvm.lifetime.start.p0(i64 8, ptr nonnull %14) #16
  call void @_ZNK10xalanc_1_85XPath11executeMoreEPNS_9XalanNodeEN9__gnu_cxx17__normal_iteratorIPKiSt6vectorIiSaIiEEEERNS_21XPathExecutionContextERd(ptr noundef nonnull align 8 dereferenceable(105) %1, ptr noundef %2, ptr nonnull %317, ptr noundef nonnull align 8 dereferenceable(16) %4, ptr noundef nonnull align 8 dereferenceable(8) %14)
  %329 = load double, ptr %14, align 8, !tbaa !41
  call void @llvm.lifetime.end.p0(i64 8, ptr nonnull %14) #16
  br label %330

330:                                              ; preds = %320, %328
  %331 = phi double [ %327, %320 ], [ %329, %328 ]
  %332 = tail call reassoc nnan ninf nsz arcp afn noundef nofpclass(nan inf) double @_ZN10xalanc_1_813DoubleSupport8negativeEd(double noundef nofpclass(nan inf) %331)
  %333 = load ptr, ptr %316, align 8, !tbaa !31
  %334 = getelementptr inbounds ptr, ptr %333, i64 7
  %335 = load ptr, ptr %334, align 8
  tail call void %335(ptr sret(%"class.xalanc_1_8::XObjectPtr") align 8 %0, ptr noundef nonnull align 8 dereferenceable(8) %316, double noundef nofpclass(nan inf) %332)
  br label %699

336:                                              ; preds = %31
  call void @llvm.lifetime.start.p0(i64 16, ptr nonnull %9) #16, !noalias !43
  store ptr %4, ptr %9, align 8, !tbaa !46, !noalias !43
  %337 = getelementptr inbounds %"class.xalanc_1_8::XPathExecutionContext::BorrowReturnMutableNodeRefList", ptr %9, i64 0, i32 1
  %338 = load ptr, ptr %4, align 8, !tbaa !31, !noalias !43
  %339 = getelementptr inbounds ptr, ptr %338, i64 24
  %340 = load ptr, ptr %339, align 8, !noalias !43
  %341 = tail call noundef ptr %340(ptr noundef nonnull align 8 dereferenceable(16) %4), !noalias !43
  store ptr %341, ptr %337, align 8, !tbaa !48, !noalias !43
  invoke void @_ZNK10xalanc_1_85XPath5UnionEPNS_9XalanNodeEN9__gnu_cxx17__normal_iteratorIPKiSt6vectorIiSaIiEEEERNS_21XPathExecutionContextERNS_18MutableNodeRefListE(ptr noundef nonnull align 8 dereferenceable(105) %1, ptr noundef %2, ptr nonnull %32, ptr noundef nonnull align 8 dereferenceable(16) %4, ptr noundef nonnull align 8 dereferenceable(36) %341)
          to label %342 unwind label %357, !noalias !43

342:                                              ; preds = %336
  %343 = getelementptr inbounds %"class.xalanc_1_8::XPathExecutionContext", ptr %4, i64 0, i32 1
  %344 = load ptr, ptr %343, align 8, !tbaa !34, !noalias !43
  %345 = load ptr, ptr %344, align 8, !tbaa !31, !noalias !43
  %346 = getelementptr inbounds ptr, ptr %345, i64 4
  %347 = load ptr, ptr %346, align 8, !noalias !43
  invoke void %347(ptr sret(%"class.xalanc_1_8::XObjectPtr") align 8 %0, ptr noundef nonnull align 8 dereferenceable(8) %344, ptr noundef nonnull align 8 dereferenceable(16) %9)
          to label %348 unwind label %357

348:                                              ; preds = %342
  %349 = load ptr, ptr %337, align 8, !tbaa !48, !noalias !43
  %350 = icmp eq ptr %349, null
  br i1 %350, label %373, label %351

351:                                              ; preds = %348
  %352 = load ptr, ptr %9, align 8, !tbaa !46, !noalias !43
  %353 = load ptr, ptr %352, align 8, !tbaa !31
  %354 = getelementptr inbounds ptr, ptr %353, i64 25
  %355 = load ptr, ptr %354, align 8
  %356 = call noundef zeroext i1 %355(ptr noundef nonnull align 8 dereferenceable(16) %352, ptr noundef nonnull %349)
  br label %373

357:                                              ; preds = %342, %336
  %358 = landingpad { ptr, i32 }
          cleanup
  %359 = load ptr, ptr %337, align 8, !tbaa !48, !noalias !43
  %360 = icmp eq ptr %359, null
  br i1 %360, label %369, label %361

361:                                              ; preds = %357
  %362 = load ptr, ptr %9, align 8, !tbaa !46, !noalias !43
  %363 = load ptr, ptr %362, align 8, !tbaa !31
  %364 = getelementptr inbounds ptr, ptr %363, i64 25
  %365 = load ptr, ptr %364, align 8
  %366 = invoke noundef zeroext i1 %365(ptr noundef nonnull align 8 dereferenceable(16) %362, ptr noundef nonnull %359)
          to label %369 unwind label %370

367:                                              ; preds = %424, %662, %680, %487, %369
  %368 = phi { ptr, i32 } [ %358, %369 ], [ %478, %487 ], [ %679, %680 ], [ %423, %424 ], [ %661, %662 ]
  resume { ptr, i32 } %368

369:                                              ; preds = %361, %357
  call void @llvm.lifetime.end.p0(i64 16, ptr nonnull %9) #16, !noalias !43
  br label %367

370:                                              ; preds = %361
  %371 = landingpad { ptr, i32 }
          catch ptr null
  %372 = extractvalue { ptr, i32 } %371, 0
  call void @__clang_call_terminate(ptr %372) #17
  unreachable

373:                                              ; preds = %348, %351
  call void @llvm.lifetime.end.p0(i64 16, ptr nonnull %9) #16, !noalias !43
  br label %699

374:                                              ; preds = %31
  %375 = getelementptr inbounds i32, ptr %32, i64 2
  %376 = load i32, ptr %375, align 4, !tbaa !30, !noalias !49
  %377 = getelementptr inbounds %"class.xalanc_1_8::XPathExpression", ptr %1, i64 0, i32 2
  %378 = sext i32 %376 to i64
  %379 = load ptr, ptr %377, align 8, !tbaa !52, !noalias !49
  %380 = getelementptr inbounds %"class.xalanc_1_8::XToken", ptr %379, i64 %378
  %381 = getelementptr inbounds %"class.xalanc_1_8::XPath", ptr %1, i64 0, i32 2
  %382 = load i8, ptr %381, align 8, !tbaa !29, !range !38, !noalias !49, !noundef !39
  %383 = icmp eq i8 %382, 0
  %384 = getelementptr inbounds %"class.xalanc_1_8::XPathExecutionContext", ptr %4, i64 0, i32 1
  %385 = load ptr, ptr %384, align 8, !tbaa !34, !noalias !49
  br i1 %383, label %390, label %386

386:                                              ; preds = %374
  %387 = load ptr, ptr %385, align 8, !tbaa !31, !noalias !49
  %388 = getelementptr inbounds ptr, ptr %387, i64 12
  %389 = load ptr, ptr %388, align 8, !noalias !49
  tail call void %389(ptr sret(%"class.xalanc_1_8::XObjectPtr") align 8 %0, ptr noundef nonnull align 8 dereferenceable(8) %385, ptr noundef nonnull align 8 dereferenceable(41) %380)
  br label %699

390:                                              ; preds = %374
  %391 = load ptr, ptr %380, align 8, !tbaa !31, !noalias !49
  %392 = getelementptr inbounds ptr, ptr %391, i64 9
  %393 = load ptr, ptr %392, align 8, !noalias !49
  %394 = tail call noundef nonnull align 8 dereferenceable(28) ptr %393(ptr noundef nonnull align 8 dereferenceable(41) %380), !noalias !49
  %395 = load ptr, ptr %385, align 8, !tbaa !31, !noalias !49
  %396 = getelementptr inbounds ptr, ptr %395, i64 9
  %397 = load ptr, ptr %396, align 8, !noalias !49
  tail call void %397(ptr sret(%"class.xalanc_1_8::XObjectPtr") align 8 %0, ptr noundef nonnull align 8 dereferenceable(8) %385, ptr noundef nonnull align 8 dereferenceable(28) %394)
  br label %699

398:                                              ; preds = %31
  %399 = getelementptr inbounds i32, ptr %32, i64 2
  %400 = load i32, ptr %399, align 4, !tbaa !30, !noalias !53
  %401 = getelementptr inbounds %"class.xalanc_1_8::XPathExpression", ptr %1, i64 0, i32 2
  %402 = sext i32 %400 to i64
  %403 = load ptr, ptr %401, align 8, !tbaa !52, !noalias !53
  %404 = getelementptr inbounds %"class.xalanc_1_8::XToken", ptr %403, i64 %402
  %405 = getelementptr inbounds i32, ptr %32, i64 3
  %406 = load i32, ptr %405, align 4, !tbaa !30, !noalias !53
  %407 = sext i32 %406 to i64
  %408 = getelementptr inbounds %"class.xalanc_1_8::XToken", ptr %403, i64 %407
  call void @llvm.lifetime.start.p0(i64 24, ptr nonnull %28) #16, !noalias !53
  %409 = load ptr, ptr %404, align 8, !tbaa !31, !noalias !53
  %410 = getelementptr inbounds ptr, ptr %409, i64 9
  %411 = load ptr, ptr %410, align 8, !noalias !53
  %412 = tail call noundef nonnull align 8 dereferenceable(28) ptr %411(ptr noundef nonnull align 8 dereferenceable(41) %404), !noalias !53
  %413 = load ptr, ptr %408, align 8, !tbaa !31, !noalias !53
  %414 = getelementptr inbounds ptr, ptr %413, i64 9
  %415 = load ptr, ptr %414, align 8, !noalias !53
  %416 = tail call noundef nonnull align 8 dereferenceable(28) ptr %415(ptr noundef nonnull align 8 dereferenceable(41) %408), !noalias !53
  call void @_ZN10xalanc_1_821XalanQNameByReferenceC1ERKNS_14XalanDOMStringES3_(ptr noundef nonnull align 8 dereferenceable(24) %28, ptr noundef nonnull align 8 dereferenceable(28) %412, ptr noundef nonnull align 8 dereferenceable(28) %416), !noalias !53
  %417 = getelementptr inbounds %"class.xalanc_1_8::XPath", ptr %1, i64 0, i32 1
  %418 = load ptr, ptr %417, align 8, !tbaa !12, !noalias !53
  %419 = load ptr, ptr %4, align 8, !tbaa !31, !noalias !53
  %420 = getelementptr inbounds ptr, ptr %419, i64 31
  %421 = load ptr, ptr %420, align 8, !noalias !53
  invoke void %421(ptr sret(%"class.xalanc_1_8::XObjectPtr") align 8 %0, ptr noundef nonnull align 8 dereferenceable(16) %4, ptr noundef nonnull align 8 dereferenceable(8) %28, ptr noundef %418)
          to label %428 unwind label %422

422:                                              ; preds = %398
  %423 = landingpad { ptr, i32 }
          cleanup
  invoke void @_ZN10xalanc_1_821XalanQNameByReferenceD1Ev(ptr noundef nonnull align 8 dereferenceable(24) %28)
          to label %424 unwind label %425

424:                                              ; preds = %422
  call void @llvm.lifetime.end.p0(i64 24, ptr nonnull %28) #16, !noalias !53
  br label %367

425:                                              ; preds = %422
  %426 = landingpad { ptr, i32 }
          catch ptr null
  %427 = extractvalue { ptr, i32 } %426, 0
  call void @__clang_call_terminate(ptr %427) #17
  unreachable

428:                                              ; preds = %398
  call void @_ZN10xalanc_1_821XalanQNameByReferenceD1Ev(ptr noundef nonnull align 8 dereferenceable(24) %28)
  call void @llvm.lifetime.end.p0(i64 24, ptr nonnull %28) #16, !noalias !53
  br label %699

429:                                              ; preds = %31
  %430 = getelementptr inbounds i32, ptr %32, i64 3
  %431 = load i32, ptr %430, align 4, !tbaa !30, !noalias !56
  %432 = getelementptr inbounds %"class.xalanc_1_8::XPathExpression", ptr %1, i64 0, i32 2
  %433 = sext i32 %431 to i64
  %434 = load ptr, ptr %432, align 8, !tbaa !52, !noalias !56
  %435 = getelementptr inbounds %"class.xalanc_1_8::XToken", ptr %434, i64 %433
  %436 = getelementptr inbounds %"class.xalanc_1_8::XPath", ptr %1, i64 0, i32 2
  %437 = load i8, ptr %436, align 8, !tbaa !29, !range !38, !noalias !56, !noundef !39
  %438 = icmp eq i8 %437, 0
  %439 = getelementptr inbounds %"class.xalanc_1_8::XPathExecutionContext", ptr %4, i64 0, i32 1
  %440 = load ptr, ptr %439, align 8, !tbaa !34, !noalias !56
  br i1 %438, label %445, label %441

441:                                              ; preds = %429
  %442 = load ptr, ptr %440, align 8, !tbaa !31, !noalias !56
  %443 = getelementptr inbounds ptr, ptr %442, i64 8
  %444 = load ptr, ptr %443, align 8, !noalias !56
  tail call void %444(ptr sret(%"class.xalanc_1_8::XObjectPtr") align 8 %0, ptr noundef nonnull align 8 dereferenceable(8) %440, ptr noundef nonnull align 8 dereferenceable(41) %435)
  br label %699

445:                                              ; preds = %429
  %446 = load ptr, ptr %435, align 8, !tbaa !31, !noalias !56
  %447 = getelementptr inbounds ptr, ptr %446, i64 7
  %448 = load ptr, ptr %447, align 8, !noalias !56
  %449 = tail call reassoc nnan ninf nsz arcp afn noundef nofpclass(nan inf) double %448(ptr noundef nonnull align 8 dereferenceable(41) %435), !noalias !56
  %450 = load ptr, ptr %440, align 8, !tbaa !31, !noalias !56
  %451 = getelementptr inbounds ptr, ptr %450, i64 7
  %452 = load ptr, ptr %451, align 8, !noalias !56
  tail call void %452(ptr sret(%"class.xalanc_1_8::XObjectPtr") align 8 %0, ptr noundef nonnull align 8 dereferenceable(8) %440, double noundef nofpclass(nan inf) %449)
  br label %699

453:                                              ; preds = %31
  tail call void @_ZNK10xalanc_1_85XPath14runExtFunctionEPNS_9XalanNodeEN9__gnu_cxx17__normal_iteratorIPKiSt6vectorIiSaIiEEEERNS_21XPathExecutionContextE(ptr sret(%"class.xalanc_1_8::XObjectPtr") align 8 %0, ptr noundef nonnull align 8 dereferenceable(105) %1, ptr noundef %2, ptr nonnull %32, ptr noundef nonnull align 8 dereferenceable(16) %4)
  br label %699

454:                                              ; preds = %31
  tail call void @_ZNK10xalanc_1_85XPath11runFunctionEPNS_9XalanNodeEN9__gnu_cxx17__normal_iteratorIPKiSt6vectorIiSaIiEEEERNS_21XPathExecutionContextE(ptr sret(%"class.xalanc_1_8::XObjectPtr") align 8 %0, ptr noundef nonnull align 8 dereferenceable(105) %1, ptr noundef %2, ptr nonnull %32, ptr noundef nonnull align 8 dereferenceable(16) %4)
  br label %699

455:                                              ; preds = %31
  call void @llvm.lifetime.start.p0(i64 16, ptr nonnull %8) #16, !noalias !59
  store ptr %4, ptr %8, align 8, !tbaa !46, !noalias !59
  %456 = getelementptr inbounds %"class.xalanc_1_8::XPathExecutionContext::BorrowReturnMutableNodeRefList", ptr %8, i64 0, i32 1
  %457 = load ptr, ptr %4, align 8, !tbaa !31, !noalias !59
  %458 = getelementptr inbounds ptr, ptr %457, i64 24
  %459 = load ptr, ptr %458, align 8, !noalias !59
  %460 = tail call noundef ptr %459(ptr noundef nonnull align 8 dereferenceable(16) %4), !noalias !59
  store ptr %460, ptr %456, align 8, !tbaa !48, !noalias !59
  %461 = getelementptr inbounds i32, ptr %32, i64 2
  invoke void @_ZNK10xalanc_1_85XPath4stepERNS_21XPathExecutionContextEPNS_9XalanNodeEN9__gnu_cxx17__normal_iteratorIPKiSt6vectorIiSaIiEEEERNS_18MutableNodeRefListE(ptr noundef nonnull align 8 dereferenceable(105) %1, ptr noundef nonnull align 8 dereferenceable(16) %4, ptr noundef %2, ptr nonnull %461, ptr noundef nonnull align 8 dereferenceable(36) %460)
          to label %462 unwind label %477, !noalias !59

462:                                              ; preds = %455
  %463 = getelementptr inbounds %"class.xalanc_1_8::XPathExecutionContext", ptr %4, i64 0, i32 1
  %464 = load ptr, ptr %463, align 8, !tbaa !34, !noalias !59
  %465 = load ptr, ptr %464, align 8, !tbaa !31, !noalias !59
  %466 = getelementptr inbounds ptr, ptr %465, i64 4
  %467 = load ptr, ptr %466, align 8, !noalias !59
  invoke void %467(ptr sret(%"class.xalanc_1_8::XObjectPtr") align 8 %0, ptr noundef nonnull align 8 dereferenceable(8) %464, ptr noundef nonnull align 8 dereferenceable(16) %8)
          to label %468 unwind label %477

468:                                              ; preds = %462
  %469 = load ptr, ptr %456, align 8, !tbaa !48, !noalias !59
  %470 = icmp eq ptr %469, null
  br i1 %470, label %491, label %471

471:                                              ; preds = %468
  %472 = load ptr, ptr %8, align 8, !tbaa !46, !noalias !59
  %473 = load ptr, ptr %472, align 8, !tbaa !31
  %474 = getelementptr inbounds ptr, ptr %473, i64 25
  %475 = load ptr, ptr %474, align 8
  %476 = call noundef zeroext i1 %475(ptr noundef nonnull align 8 dereferenceable(16) %472, ptr noundef nonnull %469)
  br label %491

477:                                              ; preds = %462, %455
  %478 = landingpad { ptr, i32 }
          cleanup
  %479 = load ptr, ptr %456, align 8, !tbaa !48, !noalias !59
  %480 = icmp eq ptr %479, null
  br i1 %480, label %487, label %481

481:                                              ; preds = %477
  %482 = load ptr, ptr %8, align 8, !tbaa !46, !noalias !59
  %483 = load ptr, ptr %482, align 8, !tbaa !31
  %484 = getelementptr inbounds ptr, ptr %483, i64 25
  %485 = load ptr, ptr %484, align 8
  %486 = invoke noundef zeroext i1 %485(ptr noundef nonnull align 8 dereferenceable(16) %482, ptr noundef nonnull %479)
          to label %487 unwind label %488

487:                                              ; preds = %481, %477
  call void @llvm.lifetime.end.p0(i64 16, ptr nonnull %8) #16, !noalias !59
  br label %367

488:                                              ; preds = %481
  %489 = landingpad { ptr, i32 }
          catch ptr null
  %490 = extractvalue { ptr, i32 } %489, 0
  call void @__clang_call_terminate(ptr %490) #17
  unreachable

491:                                              ; preds = %468, %471
  call void @llvm.lifetime.end.p0(i64 16, ptr nonnull %8) #16, !noalias !59
  br label %699

492:                                              ; preds = %31
  %493 = getelementptr inbounds %"class.xalanc_1_8::XPathExecutionContext", ptr %4, i64 0, i32 1
  %494 = load ptr, ptr %493, align 8, !tbaa !34
  %495 = load ptr, ptr %4, align 8, !tbaa !31
  %496 = getelementptr inbounds ptr, ptr %495, i64 17
  %497 = load ptr, ptr %496, align 8
  %498 = tail call noundef i32 %497(ptr noundef nonnull align 8 dereferenceable(16) %4, ptr noundef nonnull align 8 dereferenceable(8) %2)
  %499 = uitofp i32 %498 to double
  %500 = load ptr, ptr %494, align 8, !tbaa !31
  %501 = getelementptr inbounds ptr, ptr %500, i64 7
  %502 = load ptr, ptr %501, align 8
  tail call void %502(ptr sret(%"class.xalanc_1_8::XObjectPtr") align 8 %0, ptr noundef nonnull align 8 dereferenceable(8) %494, double noundef nofpclass(nan inf) %499)
  br label %699

503:                                              ; preds = %31
  %504 = getelementptr inbounds %"class.xalanc_1_8::XPathExecutionContext", ptr %4, i64 0, i32 1
  %505 = load ptr, ptr %504, align 8, !tbaa !34
  %506 = load ptr, ptr %4, align 8, !tbaa !31
  %507 = getelementptr inbounds ptr, ptr %506, i64 16
  %508 = load ptr, ptr %507, align 8
  %509 = tail call noundef i32 %508(ptr noundef nonnull align 8 dereferenceable(16) %4)
  %510 = uitofp i32 %509 to double
  %511 = load ptr, ptr %505, align 8, !tbaa !31
  %512 = getelementptr inbounds ptr, ptr %511, i64 7
  %513 = load ptr, ptr %512, align 8
  tail call void %513(ptr sret(%"class.xalanc_1_8::XObjectPtr") align 8 %0, ptr noundef nonnull align 8 dereferenceable(8) %505, double noundef nofpclass(nan inf) %510)
  br label %699

514:                                              ; preds = %31
  %515 = getelementptr inbounds %"class.xalanc_1_8::XPathExecutionContext", ptr %4, i64 0, i32 1
  %516 = load ptr, ptr %515, align 8, !tbaa !34
  %517 = tail call reassoc nnan ninf nsz arcp afn noundef nofpclass(nan inf) double @_ZNK10xalanc_1_85XPath13functionCountEPNS_9XalanNodeEN9__gnu_cxx17__normal_iteratorIPKiSt6vectorIiSaIiEEEERNS_21XPathExecutionContextE(ptr noundef nonnull align 8 dereferenceable(105) %1, ptr noundef %2, ptr nonnull %32, ptr noundef nonnull align 8 dereferenceable(16) %4)
  %518 = load ptr, ptr %516, align 8, !tbaa !31
  %519 = getelementptr inbounds ptr, ptr %518, i64 7
  %520 = load ptr, ptr %519, align 8
  tail call void %520(ptr sret(%"class.xalanc_1_8::XObjectPtr") align 8 %0, ptr noundef nonnull align 8 dereferenceable(8) %516, double noundef nofpclass(nan inf) %517)
  br label %699

521:                                              ; preds = %31
  %522 = getelementptr inbounds %"class.xalanc_1_8::XPathExecutionContext", ptr %4, i64 0, i32 1
  %523 = load ptr, ptr %522, align 8, !tbaa !34
  call void @llvm.lifetime.start.p0(i64 1, ptr nonnull %13) #16
  %524 = getelementptr inbounds i32, ptr %32, i64 2
  call void @_ZNK10xalanc_1_85XPath11executeMoreEPNS_9XalanNodeEN9__gnu_cxx17__normal_iteratorIPKiSt6vectorIiSaIiEEEERNS_21XPathExecutionContextERb(ptr noundef nonnull align 8 dereferenceable(105) %1, ptr noundef %2, ptr nonnull %524, ptr noundef nonnull align 8 dereferenceable(16) %4, ptr noundef nonnull align 1 dereferenceable(1) %13)
  %525 = load i8, ptr %13, align 1, !tbaa !37, !range !38, !noundef !39
  %526 = icmp eq i8 %525, 0
  call void @llvm.lifetime.end.p0(i64 1, ptr nonnull %13) #16
  %527 = load ptr, ptr %523, align 8, !tbaa !31
  %528 = getelementptr inbounds ptr, ptr %527, i64 3
  %529 = load ptr, ptr %528, align 8
  tail call void %529(ptr sret(%"class.xalanc_1_8::XObjectPtr") align 8 %0, ptr noundef nonnull align 8 dereferenceable(8) %523, i1 noundef zeroext %526)
  br label %699

530:                                              ; preds = %31
  %531 = getelementptr inbounds %"class.xalanc_1_8::XPathExecutionContext", ptr %4, i64 0, i32 1
  %532 = load ptr, ptr %531, align 8, !tbaa !34
  %533 = load ptr, ptr %532, align 8, !tbaa !31
  %534 = getelementptr inbounds ptr, ptr %533, i64 3
  %535 = load ptr, ptr %534, align 8
  tail call void %535(ptr sret(%"class.xalanc_1_8::XObjectPtr") align 8 %0, ptr noundef nonnull align 8 dereferenceable(8) %532, i1 noundef zeroext true)
  br label %699

536:                                              ; preds = %31
  %537 = getelementptr inbounds %"class.xalanc_1_8::XPathExecutionContext", ptr %4, i64 0, i32 1
  %538 = load ptr, ptr %537, align 8, !tbaa !34
  %539 = load ptr, ptr %538, align 8, !tbaa !31
  %540 = getelementptr inbounds ptr, ptr %539, i64 3
  %541 = load ptr, ptr %540, align 8
  tail call void %541(ptr sret(%"class.xalanc_1_8::XObjectPtr") align 8 %0, ptr noundef nonnull align 8 dereferenceable(8) %538, i1 noundef zeroext false)
  br label %699

542:                                              ; preds = %31
  %543 = getelementptr inbounds %"class.xalanc_1_8::XPathExecutionContext", ptr %4, i64 0, i32 1
  %544 = load ptr, ptr %543, align 8, !tbaa !34
  call void @llvm.lifetime.start.p0(i64 1, ptr nonnull %27) #16
  %545 = getelementptr inbounds i32, ptr %32, i64 2
  call void @_ZNK10xalanc_1_85XPath11executeMoreEPNS_9XalanNodeEN9__gnu_cxx17__normal_iteratorIPKiSt6vectorIiSaIiEEEERNS_21XPathExecutionContextERb(ptr noundef nonnull align 8 dereferenceable(105) %1, ptr noundef %2, ptr nonnull %545, ptr noundef nonnull align 8 dereferenceable(16) %4, ptr noundef nonnull align 1 dereferenceable(1) %27)
  %546 = load i8, ptr %27, align 1, !tbaa !37, !range !38, !noundef !39
  %547 = icmp ne i8 %546, 0
  call void @llvm.lifetime.end.p0(i64 1, ptr nonnull %27) #16
  %548 = load ptr, ptr %544, align 8, !tbaa !31
  %549 = getelementptr inbounds ptr, ptr %548, i64 3
  %550 = load ptr, ptr %549, align 8
  tail call void %550(ptr sret(%"class.xalanc_1_8::XObjectPtr") align 8 %0, ptr noundef nonnull align 8 dereferenceable(8) %544, i1 noundef zeroext %547)
  br label %699

551:                                              ; preds = %31
  %552 = getelementptr inbounds %"class.xalanc_1_8::XPathExecutionContext", ptr %4, i64 0, i32 1
  %553 = load ptr, ptr %552, align 8, !tbaa !34
  %554 = tail call noundef nonnull align 8 dereferenceable(28) ptr @_ZN10xalanc_1_811DOMServices13getNameOfNodeERKNS_9XalanNodeE(ptr noundef nonnull align 8 dereferenceable(8) %2)
  %555 = load ptr, ptr %553, align 8, !tbaa !31
  %556 = getelementptr inbounds ptr, ptr %555, i64 13
  %557 = load ptr, ptr %556, align 8
  tail call void %557(ptr sret(%"class.xalanc_1_8::XObjectPtr") align 8 %0, ptr noundef nonnull align 8 dereferenceable(8) %553, ptr noundef nonnull align 8 dereferenceable(28) %554)
  br label %699

558:                                              ; preds = %31
  %559 = getelementptr inbounds %"class.xalanc_1_8::XPathExecutionContext", ptr %4, i64 0, i32 1
  %560 = load ptr, ptr %559, align 8, !tbaa !34
  %561 = tail call noundef nonnull align 8 dereferenceable(28) ptr @_ZNK10xalanc_1_85XPath12functionNameEPNS_9XalanNodeEN9__gnu_cxx17__normal_iteratorIPKiSt6vectorIiSaIiEEEERNS_21XPathExecutionContextE(ptr noundef nonnull align 8 dereferenceable(105) %1, ptr noundef %2, ptr nonnull %32, ptr noundef nonnull align 8 dereferenceable(16) %4)
  %562 = load ptr, ptr %560, align 8, !tbaa !31
  %563 = getelementptr inbounds ptr, ptr %562, i64 13
  %564 = load ptr, ptr %563, align 8
  tail call void %564(ptr sret(%"class.xalanc_1_8::XObjectPtr") align 8 %0, ptr noundef nonnull align 8 dereferenceable(8) %560, ptr noundef nonnull align 8 dereferenceable(28) %561)
  br label %699

565:                                              ; preds = %31
  %566 = getelementptr inbounds %"class.xalanc_1_8::XPathExecutionContext", ptr %4, i64 0, i32 1
  %567 = load ptr, ptr %566, align 8, !tbaa !34
  %568 = load ptr, ptr %2, align 8, !tbaa !31
  %569 = getelementptr inbounds ptr, ptr %568, i64 4
  %570 = load ptr, ptr %569, align 8
  %571 = tail call noundef i32 %570(ptr noundef nonnull align 8 dereferenceable(8) %2)
  switch i32 %571, label %603 [
    i32 7, label %572
    i32 1, label %572
    i32 2, label %585
  ]

572:                                              ; preds = %565, %565
  %573 = load ptr, ptr %2, align 8, !tbaa !31
  %574 = getelementptr inbounds ptr, ptr %573, i64 24
  %575 = load ptr, ptr %574, align 8
  %576 = tail call noundef nonnull align 8 dereferenceable(28) ptr %575(ptr noundef nonnull align 8 dereferenceable(8) %2)
  %577 = getelementptr inbounds %"class.xalanc_1_8::XalanDOMString", ptr %576, i64 0, i32 1
  %578 = load i32, ptr %577, align 8, !tbaa !62
  %579 = icmp eq i32 %578, 0
  br i1 %579, label %580, label %603

580:                                              ; preds = %572
  %581 = load ptr, ptr %2, align 8, !tbaa !31
  %582 = getelementptr inbounds ptr, ptr %581, i64 2
  %583 = load ptr, ptr %582, align 8
  %584 = tail call noundef nonnull align 8 dereferenceable(28) ptr %583(ptr noundef nonnull align 8 dereferenceable(8) %2)
  br label %603

585:                                              ; preds = %565
  %586 = load ptr, ptr %2, align 8, !tbaa !31
  %587 = getelementptr inbounds ptr, ptr %586, i64 24
  %588 = load ptr, ptr %587, align 8
  %589 = tail call noundef nonnull align 8 dereferenceable(28) ptr %588(ptr noundef nonnull align 8 dereferenceable(8) %2)
  %590 = getelementptr inbounds %"class.xalanc_1_8::XalanDOMString", ptr %589, i64 0, i32 1
  %591 = load i32, ptr %590, align 8, !tbaa !62
  %592 = icmp eq i32 %591, 0
  br i1 %592, label %593, label %598

593:                                              ; preds = %585
  %594 = load ptr, ptr %2, align 8, !tbaa !31
  %595 = getelementptr inbounds ptr, ptr %594, i64 2
  %596 = load ptr, ptr %595, align 8
  %597 = tail call noundef nonnull align 8 dereferenceable(28) ptr %596(ptr noundef nonnull align 8 dereferenceable(8) %2)
  br label %598

598:                                              ; preds = %593, %585
  %599 = phi ptr [ %597, %593 ], [ %589, %585 ]
  %600 = load ptr, ptr @_ZN10xalanc_1_811DOMServices14s_XMLNamespaceE, align 8, !tbaa !33
  %601 = tail call noundef zeroext i1 @_ZN10xalanc_1_814XalanDOMString6equalsERKS0_S2_(ptr noundef nonnull align 8 dereferenceable(28) %599, ptr noundef nonnull align 8 dereferenceable(28) %600)
  %602 = select i1 %601, ptr @_ZN10xalanc_1_85XPath13s_emptyStringE, ptr %599
  br label %603

603:                                              ; preds = %565, %572, %580, %598
  %604 = phi ptr [ %602, %598 ], [ @_ZN10xalanc_1_85XPath13s_emptyStringE, %565 ], [ %584, %580 ], [ %576, %572 ]
  %605 = load ptr, ptr %567, align 8, !tbaa !31
  %606 = getelementptr inbounds ptr, ptr %605, i64 13
  %607 = load ptr, ptr %606, align 8
  tail call void %607(ptr sret(%"class.xalanc_1_8::XObjectPtr") align 8 %0, ptr noundef nonnull align 8 dereferenceable(8) %567, ptr noundef nonnull align 8 dereferenceable(28) %604)
  br label %699

608:                                              ; preds = %31
  %609 = getelementptr inbounds %"class.xalanc_1_8::XPathExecutionContext", ptr %4, i64 0, i32 1
  %610 = load ptr, ptr %609, align 8, !tbaa !34
  %611 = tail call noundef nonnull align 8 dereferenceable(28) ptr @_ZNK10xalanc_1_85XPath17functionLocalNameEPNS_9XalanNodeEN9__gnu_cxx17__normal_iteratorIPKiSt6vectorIiSaIiEEEERNS_21XPathExecutionContextE(ptr noundef nonnull align 8 dereferenceable(105) %1, ptr noundef %2, ptr nonnull %32, ptr noundef nonnull align 8 dereferenceable(16) %4)
  %612 = load ptr, ptr %610, align 8, !tbaa !31
  %613 = getelementptr inbounds ptr, ptr %612, i64 13
  %614 = load ptr, ptr %613, align 8
  tail call void %614(ptr sret(%"class.xalanc_1_8::XObjectPtr") align 8 %0, ptr noundef nonnull align 8 dereferenceable(8) %610, ptr noundef nonnull align 8 dereferenceable(28) %611)
  br label %699

615:                                              ; preds = %31
  %616 = getelementptr inbounds %"class.xalanc_1_8::XPathExecutionContext", ptr %4, i64 0, i32 1
  %617 = load ptr, ptr %616, align 8, !tbaa !34
  call void @llvm.lifetime.start.p0(i64 8, ptr nonnull %12) #16
  %618 = getelementptr inbounds i32, ptr %32, i64 2
  call void @_ZNK10xalanc_1_85XPath11executeMoreEPNS_9XalanNodeEN9__gnu_cxx17__normal_iteratorIPKiSt6vectorIiSaIiEEEERNS_21XPathExecutionContextERd(ptr noundef nonnull align 8 dereferenceable(105) %1, ptr noundef %2, ptr nonnull %618, ptr noundef nonnull align 8 dereferenceable(16) %4, ptr noundef nonnull align 8 dereferenceable(8) %12)
  %619 = load double, ptr %12, align 8, !tbaa !41
  call void @llvm.lifetime.end.p0(i64 8, ptr nonnull %12) #16
  %620 = tail call reassoc nnan ninf nsz arcp afn double @llvm.floor.f64(double %619)
  %621 = load ptr, ptr %617, align 8, !tbaa !31
  %622 = getelementptr inbounds ptr, ptr %621, i64 7
  %623 = load ptr, ptr %622, align 8
  tail call void %623(ptr sret(%"class.xalanc_1_8::XObjectPtr") align 8 %0, ptr noundef nonnull align 8 dereferenceable(8) %617, double noundef nofpclass(nan inf) %620)
  br label %699

624:                                              ; preds = %31
  %625 = getelementptr inbounds %"class.xalanc_1_8::XPathExecutionContext", ptr %4, i64 0, i32 1
  %626 = load ptr, ptr %625, align 8, !tbaa !34
  call void @llvm.lifetime.start.p0(i64 8, ptr nonnull %11) #16
  %627 = getelementptr inbounds i32, ptr %32, i64 2
  call void @_ZNK10xalanc_1_85XPath11executeMoreEPNS_9XalanNodeEN9__gnu_cxx17__normal_iteratorIPKiSt6vectorIiSaIiEEEERNS_21XPathExecutionContextERd(ptr noundef nonnull align 8 dereferenceable(105) %1, ptr noundef %2, ptr nonnull %627, ptr noundef nonnull align 8 dereferenceable(16) %4, ptr noundef nonnull align 8 dereferenceable(8) %11)
  %628 = load double, ptr %11, align 8, !tbaa !41
  call void @llvm.lifetime.end.p0(i64 8, ptr nonnull %11) #16
  %629 = tail call reassoc nnan ninf nsz arcp afn double @llvm.ceil.f64(double %628)
  %630 = load ptr, ptr %626, align 8, !tbaa !31
  %631 = getelementptr inbounds ptr, ptr %630, i64 7
  %632 = load ptr, ptr %631, align 8
  tail call void %632(ptr sret(%"class.xalanc_1_8::XObjectPtr") align 8 %0, ptr noundef nonnull align 8 dereferenceable(8) %626, double noundef nofpclass(nan inf) %629)
  br label %699

633:                                              ; preds = %31
  %634 = getelementptr inbounds %"class.xalanc_1_8::XPathExecutionContext", ptr %4, i64 0, i32 1
  %635 = load ptr, ptr %634, align 8, !tbaa !34
  call void @llvm.lifetime.start.p0(i64 8, ptr nonnull %10) #16
  %636 = getelementptr inbounds i32, ptr %32, i64 2
  call void @_ZNK10xalanc_1_85XPath11executeMoreEPNS_9XalanNodeEN9__gnu_cxx17__normal_iteratorIPKiSt6vectorIiSaIiEEEERNS_21XPathExecutionContextERd(ptr noundef nonnull align 8 dereferenceable(105) %1, ptr noundef %2, ptr nonnull %636, ptr noundef nonnull align 8 dereferenceable(16) %4, ptr noundef nonnull align 8 dereferenceable(8) %10)
  %637 = load double, ptr %10, align 8, !tbaa !41
  call void @llvm.lifetime.end.p0(i64 8, ptr nonnull %10) #16
  %638 = tail call reassoc nnan ninf nsz arcp afn noundef nofpclass(nan inf) double @_ZN10xalanc_1_813DoubleSupport5roundEd(double noundef nofpclass(nan inf) %637)
  %639 = load ptr, ptr %635, align 8, !tbaa !31
  %640 = getelementptr inbounds ptr, ptr %639, i64 7
  %641 = load ptr, ptr %640, align 8
  tail call void %641(ptr sret(%"class.xalanc_1_8::XObjectPtr") align 8 %0, ptr noundef nonnull align 8 dereferenceable(8) %635, double noundef nofpclass(nan inf) %638)
  br label %699

642:                                              ; preds = %31
  %643 = getelementptr inbounds %"class.xalanc_1_8::XPathExecutionContext", ptr %4, i64 0, i32 1
  %644 = load ptr, ptr %643, align 8, !tbaa !34
  %645 = tail call reassoc nnan ninf nsz arcp afn noundef nofpclass(nan inf) double @_ZN10xalanc_1_87XObject6numberERNS_21XPathExecutionContextERKNS_9XalanNodeE(ptr noundef nonnull align 8 dereferenceable(16) %4, ptr noundef nonnull align 8 dereferenceable(8) %2)
  %646 = load ptr, ptr %644, align 8, !tbaa !31
  %647 = getelementptr inbounds ptr, ptr %646, i64 7
  %648 = load ptr, ptr %647, align 8
  tail call void %648(ptr sret(%"class.xalanc_1_8::XObjectPtr") align 8 %0, ptr noundef nonnull align 8 dereferenceable(8) %644, double noundef nofpclass(nan inf) %645)
  br label %699

649:                                              ; preds = %31
  %650 = getelementptr inbounds %"class.xalanc_1_8::XPathExecutionContext", ptr %4, i64 0, i32 1
  %651 = load ptr, ptr %650, align 8, !tbaa !34
  call void @llvm.lifetime.start.p0(i64 8, ptr nonnull %26) #16
  %652 = getelementptr inbounds i32, ptr %32, i64 2
  call void @_ZNK10xalanc_1_85XPath11executeMoreEPNS_9XalanNodeEN9__gnu_cxx17__normal_iteratorIPKiSt6vectorIiSaIiEEEERNS_21XPathExecutionContextERd(ptr noundef nonnull align 8 dereferenceable(105) %1, ptr noundef %2, ptr nonnull %652, ptr noundef nonnull align 8 dereferenceable(16) %4, ptr noundef nonnull align 8 dereferenceable(8) %26)
  %653 = load double, ptr %26, align 8, !tbaa !41
  call void @llvm.lifetime.end.p0(i64 8, ptr nonnull %26) #16
  %654 = load ptr, ptr %651, align 8, !tbaa !31
  %655 = getelementptr inbounds ptr, ptr %654, i64 7
  %656 = load ptr, ptr %655, align 8
  tail call void %656(ptr sret(%"class.xalanc_1_8::XObjectPtr") align 8 %0, ptr noundef nonnull align 8 dereferenceable(8) %651, double noundef nofpclass(nan inf) %653)
  br label %699

657:                                              ; preds = %31
  %658 = getelementptr inbounds %"class.xalanc_1_8::XPathExecutionContext", ptr %4, i64 0, i32 1
  %659 = load ptr, ptr %658, align 8, !tbaa !34
  call void @llvm.lifetime.start.p0(i64 32, ptr nonnull %25) #16
  call void @_ZN10xalanc_1_828FormatterStringLengthCounterC1Ev(ptr noundef nonnull align 8 dereferenceable(32) %25)
  invoke void @_ZN10xalanc_1_811DOMServices11getNodeDataERKNS_9XalanNodeERNS_17FormatterListenerEMS4_FvPKtjE(ptr noundef nonnull align 8 dereferenceable(8) %2, ptr noundef nonnull align 8 dereferenceable(20) %25, i64 17, i64 0)
          to label %666 unwind label %660

660:                                              ; preds = %657
  %661 = landingpad { ptr, i32 }
          cleanup
  invoke void @_ZN10xalanc_1_828FormatterStringLengthCounterD1Ev(ptr noundef nonnull align 8 dereferenceable(32) %25)
          to label %662 unwind label %663

662:                                              ; preds = %660
  call void @llvm.lifetime.end.p0(i64 32, ptr nonnull %25) #16
  br label %367

663:                                              ; preds = %660
  %664 = landingpad { ptr, i32 }
          catch ptr null
  %665 = extractvalue { ptr, i32 } %664, 0
  call void @__clang_call_terminate(ptr %665) #17
  unreachable

666:                                              ; preds = %657
  %667 = getelementptr inbounds %"class.xalanc_1_8::FormatterStringLengthCounter", ptr %25, i64 0, i32 1
  %668 = load i64, ptr %667, align 8, !tbaa !67
  %669 = uitofp i64 %668 to double
  call void @_ZN10xalanc_1_828FormatterStringLengthCounterD1Ev(ptr noundef nonnull align 8 dereferenceable(32) %25)
  call void @llvm.lifetime.end.p0(i64 32, ptr nonnull %25) #16
  %670 = load ptr, ptr %659, align 8, !tbaa !31
  %671 = getelementptr inbounds ptr, ptr %670, i64 7
  %672 = load ptr, ptr %671, align 8
  call void %672(ptr sret(%"class.xalanc_1_8::XObjectPtr") align 8 %0, ptr noundef nonnull align 8 dereferenceable(8) %659, double noundef nofpclass(nan inf) %669)
  br label %699

673:                                              ; preds = %31
  %674 = getelementptr inbounds %"class.xalanc_1_8::XPathExecutionContext", ptr %4, i64 0, i32 1
  %675 = load ptr, ptr %674, align 8, !tbaa !34
  call void @llvm.lifetime.start.p0(i64 16, ptr nonnull %7)
  call void @llvm.lifetime.start.p0(i64 32, ptr nonnull %6) #16
  call void @_ZN10xalanc_1_828FormatterStringLengthCounterC1Ev(ptr noundef nonnull align 8 dereferenceable(32) %6)
  %676 = getelementptr inbounds i32, ptr %32, i64 2
  store i64 17, ptr %7, align 8, !tbaa !73
  %677 = getelementptr inbounds { i64, i64 }, ptr %7, i64 0, i32 1
  store i64 0, ptr %677, align 8, !tbaa !73
  invoke void @_ZNK10xalanc_1_85XPath11executeMoreEPNS_9XalanNodeEN9__gnu_cxx17__normal_iteratorIPKiSt6vectorIiSaIiEEEERNS_21XPathExecutionContextERNS_17FormatterListenerEMSD_FvPKtjE(ptr noundef nonnull align 8 dereferenceable(105) %1, ptr noundef %2, ptr nonnull %676, ptr noundef nonnull align 8 dereferenceable(16) %4, ptr noundef nonnull align 8 dereferenceable(20) %6, ptr noundef nonnull byval({ i64, i64 }) align 8 %7)
          to label %684 unwind label %678

678:                                              ; preds = %673
  %679 = landingpad { ptr, i32 }
          cleanup
  invoke void @_ZN10xalanc_1_828FormatterStringLengthCounterD1Ev(ptr noundef nonnull align 8 dereferenceable(32) %6)
          to label %680 unwind label %681

680:                                              ; preds = %678
  call void @llvm.lifetime.end.p0(i64 32, ptr nonnull %6) #16
  br label %367

681:                                              ; preds = %678
  %682 = landingpad { ptr, i32 }
          catch ptr null
  %683 = extractvalue { ptr, i32 } %682, 0
  call void @__clang_call_terminate(ptr %683) #17
  unreachable

684:                                              ; preds = %673
  %685 = getelementptr inbounds %"class.xalanc_1_8::FormatterStringLengthCounter", ptr %6, i64 0, i32 1
  %686 = load i64, ptr %685, align 8, !tbaa !67
  %687 = uitofp i64 %686 to double
  call void @_ZN10xalanc_1_828FormatterStringLengthCounterD1Ev(ptr noundef nonnull align 8 dereferenceable(32) %6)
  call void @llvm.lifetime.end.p0(i64 32, ptr nonnull %6) #16
  call void @llvm.lifetime.end.p0(i64 16, ptr nonnull %7)
  %688 = load ptr, ptr %675, align 8, !tbaa !31
  %689 = getelementptr inbounds ptr, ptr %688, i64 7
  %690 = load ptr, ptr %689, align 8
  tail call void %690(ptr sret(%"class.xalanc_1_8::XObjectPtr") align 8 %0, ptr noundef nonnull align 8 dereferenceable(8) %675, double noundef nofpclass(nan inf) %687)
  br label %699

691:                                              ; preds = %31
  %692 = getelementptr inbounds %"class.xalanc_1_8::XPathExecutionContext", ptr %4, i64 0, i32 1
  %693 = load ptr, ptr %692, align 8, !tbaa !34
  %694 = tail call reassoc nnan ninf nsz arcp afn noundef nofpclass(nan inf) double @_ZNK10xalanc_1_85XPath11functionSumEPNS_9XalanNodeEN9__gnu_cxx17__normal_iteratorIPKiSt6vectorIiSaIiEEEERNS_21XPathExecutionContextE(ptr noundef nonnull align 8 dereferenceable(105) %1, ptr noundef %2, ptr nonnull %32, ptr noundef nonnull align 8 dereferenceable(16) %4)
  %695 = load ptr, ptr %693, align 8, !tbaa !31
  %696 = getelementptr inbounds ptr, ptr %695, i64 7
  %697 = load ptr, ptr %696, align 8
  tail call void %697(ptr sret(%"class.xalanc_1_8::XObjectPtr") align 8 %0, ptr noundef nonnull align 8 dereferenceable(8) %693, double noundef nofpclass(nan inf) %694)
  br label %699

698:                                              ; preds = %31
  tail call void @_ZNK10xalanc_1_85XPath18unknownOpCodeErrorEPNS_9XalanNodeERNS_21XPathExecutionContextEN9__gnu_cxx17__normal_iteratorIPKiSt6vectorIiSaIiEEEE(ptr noundef nonnull align 8 dereferenceable(105) %1, ptr noundef %2, ptr noundef nonnull align 8 dereferenceable(16) %4, ptr nonnull %32)
  store ptr null, ptr %0, align 8, !tbaa !74
  tail call void @_ZN10xalanc_1_827XalanReferenceCountedObject12addReferenceEPS0_(ptr noundef null)
  br label %699

699:                                              ; preds = %445, %441, %390, %386, %698, %691, %684, %666, %649, %642, %633, %624, %615, %608, %603, %558, %551, %542, %536, %530, %521, %514, %503, %492, %491, %454, %453, %428, %373, %330, %308, %268, %228, %188, %148, %107, %100, %93, %86, %79, %72, %67, %49
  ret void
}

; Function Attrs: uwtable
define dso_local void @_ZNK10xalanc_1_85XPath7executeEPNS_9XalanNodeERKNS_14PrefixResolverERNS_21XPathExecutionContextERb(ptr noundef nonnull align 8 dereferenceable(105) %0, ptr noundef %1, ptr noundef nonnull align 8 dereferenceable(8) %2, ptr noundef nonnull align 8 dereferenceable(16) %3, ptr nocapture noundef nonnull writeonly align 1 dereferenceable(1) %4) local_unnamed_addr #1 align 2 personality ptr @__gxx_personality_v0 {
  %6 = load ptr, ptr %3, align 8, !tbaa !31
  %7 = getelementptr inbounds ptr, ptr %6, i64 32
  %8 = load ptr, ptr %7, align 8
  %9 = tail call noundef ptr %8(ptr noundef nonnull align 8 dereferenceable(16) %3)
  %10 = load ptr, ptr %3, align 8, !tbaa !31
  %11 = getelementptr inbounds ptr, ptr %10, i64 33
  %12 = load ptr, ptr %11, align 8
  tail call void %12(ptr noundef nonnull align 8 dereferenceable(16) %3, ptr noundef nonnull %2)
  %13 = load ptr, ptr %3, align 8, !tbaa !31
  %14 = getelementptr inbounds ptr, ptr %13, i64 10
  %15 = load ptr, ptr %14, align 8
  invoke void %15(ptr noundef nonnull align 8 dereferenceable(16) %3, ptr noundef %1)
          to label %16 unwind label %26

16:                                               ; preds = %5
  %17 = load ptr, ptr %0, align 8, !tbaa !33
  invoke void @_ZNK10xalanc_1_85XPath11executeMoreEPNS_9XalanNodeEN9__gnu_cxx17__normal_iteratorIPKiSt6vectorIiSaIiEEEERNS_21XPathExecutionContextERb(ptr noundef nonnull align 8 dereferenceable(105) %0, ptr noundef %1, ptr %17, ptr noundef nonnull align 8 dereferenceable(16) %3, ptr noundef nonnull align 1 dereferenceable(1) %4)
          to label %18 unwind label %28

18:                                               ; preds = %16
  %19 = load ptr, ptr %3, align 8, !tbaa !31
  %20 = getelementptr inbounds ptr, ptr %19, i64 11
  %21 = load ptr, ptr %20, align 8
  invoke void %21(ptr noundef nonnull align 8 dereferenceable(16) %3)
          to label %22 unwind label %26

22:                                               ; preds = %18
  %23 = load ptr, ptr %3, align 8, !tbaa !31
  %24 = getelementptr inbounds ptr, ptr %23, i64 33
  %25 = load ptr, ptr %24, align 8
  tail call void %25(ptr noundef nonnull align 8 dereferenceable(16) %3, ptr noundef %9)
  ret void

26:                                               ; preds = %18, %5
  %27 = landingpad { ptr, i32 }
          cleanup
  br label %33

28:                                               ; preds = %16
  %29 = landingpad { ptr, i32 }
          cleanup
  %30 = load ptr, ptr %3, align 8, !tbaa !31
  %31 = getelementptr inbounds ptr, ptr %30, i64 11
  %32 = load ptr, ptr %31, align 8
  invoke void %32(ptr noundef nonnull align 8 dereferenceable(16) %3)
          to label %33 unwind label %39

33:                                               ; preds = %28, %26
  %34 = phi { ptr, i32 } [ %27, %26 ], [ %29, %28 ]
  %35 = load ptr, ptr %3, align 8, !tbaa !31
  %36 = getelementptr inbounds ptr, ptr %35, i64 33
  %37 = load ptr, ptr %36, align 8
  invoke void %37(ptr noundef nonnull align 8 dereferenceable(16) %3, ptr noundef %9)
          to label %38 unwind label %39

38:                                               ; preds = %33
  resume { ptr, i32 } %34

39:                                               ; preds = %33, %28
  %40 = landingpad { ptr, i32 }
          catch ptr null
  %41 = extractvalue { ptr, i32 } %40, 0
  tail call void @__clang_call_terminate(ptr %41) #17
  unreachable
}

; Function Attrs: uwtable
define dso_local void @_ZNK10xalanc_1_85XPath11executeMoreEPNS_9XalanNodeEN9__gnu_cxx17__normal_iteratorIPKiSt6vectorIiSaIiEEEERNS_21XPathExecutionContextERb(ptr noundef nonnull align 8 dereferenceable(105) %0, ptr noundef %1, ptr %2, ptr noundef nonnull align 8 dereferenceable(16) %3, ptr nocapture noundef nonnull writeonly align 1 dereferenceable(1) %4) local_unnamed_addr #1 align 2 personality ptr @__gxx_personality_v0 {
  %6 = alloca %"class.xalanc_1_8::FormatterStringLengthCounter", align 8
  %7 = alloca { i64, i64 }, align 8
  %8 = alloca double, align 8
  %9 = alloca double, align 8
  %10 = alloca double, align 8
  %11 = alloca i8, align 1
  %12 = alloca double, align 8
  %13 = alloca double, align 8
  %14 = alloca double, align 8
  %15 = alloca double, align 8
  %16 = alloca double, align 8
  %17 = alloca double, align 8
  %18 = alloca double, align 8
  %19 = alloca double, align 8
  %20 = alloca double, align 8
  %21 = alloca double, align 8
  %22 = alloca double, align 8
  %23 = alloca %"class.xalanc_1_8::FormatterStringLengthCounter", align 8
  %24 = alloca double, align 8
  %25 = alloca i8, align 1
  %26 = alloca %"class.xalanc_1_8::XalanQNameByReference", align 8
  %27 = alloca i8, align 1
  %28 = alloca i8, align 1
  %29 = alloca %"class.xalanc_1_8::XObjectPtr", align 8
  %30 = alloca %"class.xalanc_1_8::XObjectPtr", align 8
  %31 = alloca %"class.xalanc_1_8::XObjectPtr", align 8
  br label %32

32:                                               ; preds = %35, %5
  %33 = phi ptr [ %2, %5 ], [ %36, %35 ]
  %34 = load i32, ptr %33, align 4, !tbaa !30
  switch i32 %34, label %810 [
    i32 1, label %35
    i32 2, label %37
    i32 3, label %49
    i32 4, label %61
    i32 5, label %64
    i32 6, label %67
    i32 7, label %70
    i32 8, label %73
    i32 9, label %76
    i32 10, label %79
    i32 11, label %129
    i32 12, label %179
    i32 13, label %229
    i32 14, label %279
    i32 15, label %329
    i32 17, label %361
    i32 18, label %394
    i32 19, label %406
    i32 20, label %35
    i32 21, label %449
    i32 23, label %461
    i32 24, label %474
    i32 25, label %487
    i32 56, label %519
    i32 57, label %540
    i32 58, label %561
    i32 59, label %578
    i32 60, label %582
    i32 61, label %583
    i32 62, label %584
    i32 63, label %587
    i32 64, label %593
    i32 65, label %599
    i32 66, label %641
    i32 67, label %647
    i32 68, label %666
    i32 69, label %685
    i32 70, label %704
    i32 71, label %721
    i32 74, label %739
    i32 75, label %765
    i32 78, label %793
  ]

35:                                               ; preds = %32, %32
  %36 = getelementptr inbounds i32, ptr %33, i64 2
  br label %32

37:                                               ; preds = %32
  %38 = getelementptr inbounds i32, ptr %33, i64 2
  call void @llvm.lifetime.start.p0(i64 1, ptr nonnull %28) #16
  call void @_ZNK10xalanc_1_85XPath11executeMoreEPNS_9XalanNodeEN9__gnu_cxx17__normal_iteratorIPKiSt6vectorIiSaIiEEEERNS_21XPathExecutionContextERb(ptr noundef nonnull align 8 dereferenceable(105) %0, ptr noundef %1, ptr nonnull %38, ptr noundef nonnull align 8 dereferenceable(16) %3, ptr noundef nonnull align 1 dereferenceable(1) %28)
  %39 = load i8, ptr %28, align 1, !tbaa !37, !range !38, !noundef !39
  %40 = icmp eq i8 %39, 0
  br i1 %40, label %41, label %47

41:                                               ; preds = %37
  %42 = getelementptr inbounds i32, ptr %33, i64 3
  %43 = load i32, ptr %42, align 4, !tbaa !30
  %44 = sext i32 %43 to i64
  %45 = getelementptr inbounds i32, ptr %38, i64 %44
  call void @_ZNK10xalanc_1_85XPath11executeMoreEPNS_9XalanNodeEN9__gnu_cxx17__normal_iteratorIPKiSt6vectorIiSaIiEEEERNS_21XPathExecutionContextERb(ptr noundef nonnull align 8 dereferenceable(105) %0, ptr noundef %1, ptr nonnull %45, ptr noundef nonnull align 8 dereferenceable(16) %3, ptr noundef nonnull align 1 dereferenceable(1) %28)
  %46 = load i8, ptr %28, align 1, !tbaa !37, !range !38
  br label %47

47:                                               ; preds = %37, %41
  %48 = phi i8 [ 1, %37 ], [ %46, %41 ]
  call void @llvm.lifetime.end.p0(i64 1, ptr nonnull %28) #16
  store i8 %48, ptr %4, align 1, !tbaa !37
  br label %811

49:                                               ; preds = %32
  %50 = getelementptr inbounds i32, ptr %33, i64 2
  call void @llvm.lifetime.start.p0(i64 1, ptr nonnull %27) #16
  call void @_ZNK10xalanc_1_85XPath11executeMoreEPNS_9XalanNodeEN9__gnu_cxx17__normal_iteratorIPKiSt6vectorIiSaIiEEEERNS_21XPathExecutionContextERb(ptr noundef nonnull align 8 dereferenceable(105) %0, ptr noundef %1, ptr nonnull %50, ptr noundef nonnull align 8 dereferenceable(16) %3, ptr noundef nonnull align 1 dereferenceable(1) %27)
  %51 = load i8, ptr %27, align 1, !tbaa !37, !range !38, !noundef !39
  %52 = icmp eq i8 %51, 0
  br i1 %52, label %59, label %53

53:                                               ; preds = %49
  %54 = getelementptr inbounds i32, ptr %33, i64 3
  %55 = load i32, ptr %54, align 4, !tbaa !30
  %56 = sext i32 %55 to i64
  %57 = getelementptr inbounds i32, ptr %50, i64 %56
  call void @_ZNK10xalanc_1_85XPath11executeMoreEPNS_9XalanNodeEN9__gnu_cxx17__normal_iteratorIPKiSt6vectorIiSaIiEEEERNS_21XPathExecutionContextERb(ptr noundef nonnull align 8 dereferenceable(105) %0, ptr noundef %1, ptr nonnull %57, ptr noundef nonnull align 8 dereferenceable(16) %3, ptr noundef nonnull align 1 dereferenceable(1) %27)
  %58 = load i8, ptr %27, align 1, !tbaa !37, !range !38
  br label %59

59:                                               ; preds = %49, %53
  %60 = phi i8 [ 0, %49 ], [ %58, %53 ]
  call void @llvm.lifetime.end.p0(i64 1, ptr nonnull %27) #16
  store i8 %60, ptr %4, align 1, !tbaa !37
  br label %811

61:                                               ; preds = %32
  %62 = tail call noundef zeroext i1 @_ZNK10xalanc_1_85XPath9notequalsEPNS_9XalanNodeEN9__gnu_cxx17__normal_iteratorIPKiSt6vectorIiSaIiEEEERNS_21XPathExecutionContextE(ptr noundef nonnull align 8 dereferenceable(105) %0, ptr noundef %1, ptr nonnull %33, ptr noundef nonnull align 8 dereferenceable(16) %3)
  %63 = zext i1 %62 to i8
  store i8 %63, ptr %4, align 1, !tbaa !37
  br label %811

64:                                               ; preds = %32
  %65 = tail call noundef zeroext i1 @_ZNK10xalanc_1_85XPath6equalsEPNS_9XalanNodeEN9__gnu_cxx17__normal_iteratorIPKiSt6vectorIiSaIiEEEERNS_21XPathExecutionContextE(ptr noundef nonnull align 8 dereferenceable(105) %0, ptr noundef %1, ptr nonnull %33, ptr noundef nonnull align 8 dereferenceable(16) %3)
  %66 = zext i1 %65 to i8
  store i8 %66, ptr %4, align 1, !tbaa !37
  br label %811

67:                                               ; preds = %32
  %68 = tail call noundef zeroext i1 @_ZNK10xalanc_1_85XPath3lteEPNS_9XalanNodeEN9__gnu_cxx17__normal_iteratorIPKiSt6vectorIiSaIiEEEERNS_21XPathExecutionContextE(ptr noundef nonnull align 8 dereferenceable(105) %0, ptr noundef %1, ptr nonnull %33, ptr noundef nonnull align 8 dereferenceable(16) %3)
  %69 = zext i1 %68 to i8
  store i8 %69, ptr %4, align 1, !tbaa !37
  br label %811

70:                                               ; preds = %32
  %71 = tail call noundef zeroext i1 @_ZNK10xalanc_1_85XPath2ltEPNS_9XalanNodeEN9__gnu_cxx17__normal_iteratorIPKiSt6vectorIiSaIiEEEERNS_21XPathExecutionContextE(ptr noundef nonnull align 8 dereferenceable(105) %0, ptr noundef %1, ptr nonnull %33, ptr noundef nonnull align 8 dereferenceable(16) %3)
  %72 = zext i1 %71 to i8
  store i8 %72, ptr %4, align 1, !tbaa !37
  br label %811

73:                                               ; preds = %32
  %74 = tail call noundef zeroext i1 @_ZNK10xalanc_1_85XPath3gteEPNS_9XalanNodeEN9__gnu_cxx17__normal_iteratorIPKiSt6vectorIiSaIiEEEERNS_21XPathExecutionContextE(ptr noundef nonnull align 8 dereferenceable(105) %0, ptr noundef %1, ptr nonnull %33, ptr noundef nonnull align 8 dereferenceable(16) %3)
  %75 = zext i1 %74 to i8
  store i8 %75, ptr %4, align 1, !tbaa !37
  br label %811

76:                                               ; preds = %32
  %77 = tail call noundef zeroext i1 @_ZNK10xalanc_1_85XPath2gtEPNS_9XalanNodeEN9__gnu_cxx17__normal_iteratorIPKiSt6vectorIiSaIiEEEERNS_21XPathExecutionContextE(ptr noundef nonnull align 8 dereferenceable(105) %0, ptr noundef %1, ptr nonnull %33, ptr noundef nonnull align 8 dereferenceable(16) %3)
  %78 = zext i1 %77 to i8
  store i8 %78, ptr %4, align 1, !tbaa !37
  br label %811

79:                                               ; preds = %32
  %80 = getelementptr inbounds i32, ptr %33, i64 2
  %81 = load i32, ptr %80, align 4, !tbaa !30
  %82 = icmp eq i32 %81, 21
  br i1 %82, label %83, label %91

83:                                               ; preds = %79
  %84 = getelementptr inbounds i32, ptr %33, i64 4
  %85 = load i32, ptr %84, align 4, !tbaa !30
  %86 = getelementptr inbounds %"class.xalanc_1_8::XPathExpression", ptr %0, i64 0, i32 5
  %87 = sext i32 %85 to i64
  %88 = load ptr, ptr %86, align 8, !tbaa !40
  %89 = getelementptr inbounds double, ptr %88, i64 %87
  %90 = load double, ptr %89, align 8, !tbaa !41
  br label %93

91:                                               ; preds = %79
  call void @llvm.lifetime.start.p0(i64 8, ptr nonnull %21) #16
  call void @_ZNK10xalanc_1_85XPath11executeMoreEPNS_9XalanNodeEN9__gnu_cxx17__normal_iteratorIPKiSt6vectorIiSaIiEEEERNS_21XPathExecutionContextERd(ptr noundef nonnull align 8 dereferenceable(105) %0, ptr noundef %1, ptr nonnull %80, ptr noundef nonnull align 8 dereferenceable(16) %3, ptr noundef nonnull align 8 dereferenceable(8) %21)
  %92 = load double, ptr %21, align 8, !tbaa !41
  call void @llvm.lifetime.end.p0(i64 8, ptr nonnull %21) #16
  br label %93

93:                                               ; preds = %83, %91
  %94 = phi double [ %90, %83 ], [ %92, %91 ]
  %95 = getelementptr inbounds i32, ptr %33, i64 3
  %96 = load i32, ptr %95, align 4, !tbaa !30
  %97 = sext i32 %96 to i64
  %98 = getelementptr inbounds i32, ptr %80, i64 %97
  %99 = load i32, ptr %98, align 4, !tbaa !30
  %100 = icmp eq i32 %99, 21
  br i1 %100, label %101, label %109

101:                                              ; preds = %93
  %102 = getelementptr inbounds i32, ptr %98, i64 2
  %103 = load i32, ptr %102, align 4, !tbaa !30
  %104 = getelementptr inbounds %"class.xalanc_1_8::XPathExpression", ptr %0, i64 0, i32 5
  %105 = sext i32 %103 to i64
  %106 = load ptr, ptr %104, align 8, !tbaa !40
  %107 = getelementptr inbounds double, ptr %106, i64 %105
  %108 = load double, ptr %107, align 8, !tbaa !41
  br label %111

109:                                              ; preds = %93
  call void @llvm.lifetime.start.p0(i64 8, ptr nonnull %22) #16
  call void @_ZNK10xalanc_1_85XPath11executeMoreEPNS_9XalanNodeEN9__gnu_cxx17__normal_iteratorIPKiSt6vectorIiSaIiEEEERNS_21XPathExecutionContextERd(ptr noundef nonnull align 8 dereferenceable(105) %0, ptr noundef %1, ptr nonnull %98, ptr noundef nonnull align 8 dereferenceable(16) %3, ptr noundef nonnull align 8 dereferenceable(8) %22)
  %110 = load double, ptr %22, align 8, !tbaa !41
  call void @llvm.lifetime.end.p0(i64 8, ptr nonnull %22) #16
  br label %111

111:                                              ; preds = %101, %109
  %112 = phi double [ %108, %101 ], [ %110, %109 ]
  %113 = tail call reassoc nnan ninf nsz arcp afn noundef nofpclass(nan inf) double @_ZN10xalanc_1_813DoubleSupport3addEdd(double noundef nofpclass(nan inf) %94, double noundef nofpclass(nan inf) %112)
  %114 = load i32, ptr @_ZN10xalanc_1_813DoubleSupport5s_NaNE, align 8, !tbaa !73
  %115 = bitcast double %113 to i64
  %116 = trunc i64 %115 to i32
  %117 = icmp eq i32 %114, %116
  %118 = load i32, ptr getelementptr inbounds (%struct.anon, ptr @_ZN10xalanc_1_813DoubleSupport5s_NaNE, i64 0, i32 1), align 4
  %119 = lshr i64 %115, 32
  %120 = trunc i64 %119 to i32
  %121 = icmp eq i32 %118, %120
  %122 = select i1 %117, i1 %121, i1 false
  br i1 %122, label %127, label %123

123:                                              ; preds = %111
  %124 = tail call noundef zeroext i1 @_ZN10xalanc_1_813DoubleSupport5equalEdd(double noundef nofpclass(nan inf) %113, double noundef nofpclass(nan inf) 0.000000e+00)
  %125 = xor i1 %124, true
  %126 = zext i1 %125 to i8
  br label %127

127:                                              ; preds = %111, %123
  %128 = phi i8 [ 0, %111 ], [ %126, %123 ]
  store i8 %128, ptr %4, align 1, !tbaa !37
  br label %811

129:                                              ; preds = %32
  %130 = getelementptr inbounds i32, ptr %33, i64 2
  %131 = load i32, ptr %130, align 4, !tbaa !30
  %132 = icmp eq i32 %131, 21
  br i1 %132, label %133, label %141

133:                                              ; preds = %129
  %134 = getelementptr inbounds i32, ptr %33, i64 4
  %135 = load i32, ptr %134, align 4, !tbaa !30
  %136 = getelementptr inbounds %"class.xalanc_1_8::XPathExpression", ptr %0, i64 0, i32 5
  %137 = sext i32 %135 to i64
  %138 = load ptr, ptr %136, align 8, !tbaa !40
  %139 = getelementptr inbounds double, ptr %138, i64 %137
  %140 = load double, ptr %139, align 8, !tbaa !41
  br label %143

141:                                              ; preds = %129
  call void @llvm.lifetime.start.p0(i64 8, ptr nonnull %19) #16
  call void @_ZNK10xalanc_1_85XPath11executeMoreEPNS_9XalanNodeEN9__gnu_cxx17__normal_iteratorIPKiSt6vectorIiSaIiEEEERNS_21XPathExecutionContextERd(ptr noundef nonnull align 8 dereferenceable(105) %0, ptr noundef %1, ptr nonnull %130, ptr noundef nonnull align 8 dereferenceable(16) %3, ptr noundef nonnull align 8 dereferenceable(8) %19)
  %142 = load double, ptr %19, align 8, !tbaa !41
  call void @llvm.lifetime.end.p0(i64 8, ptr nonnull %19) #16
  br label %143

143:                                              ; preds = %133, %141
  %144 = phi double [ %140, %133 ], [ %142, %141 ]
  %145 = getelementptr inbounds i32, ptr %33, i64 3
  %146 = load i32, ptr %145, align 4, !tbaa !30
  %147 = sext i32 %146 to i64
  %148 = getelementptr inbounds i32, ptr %130, i64 %147
  %149 = load i32, ptr %148, align 4, !tbaa !30
  %150 = icmp eq i32 %149, 21
  br i1 %150, label %151, label %159

151:                                              ; preds = %143
  %152 = getelementptr inbounds i32, ptr %148, i64 2
  %153 = load i32, ptr %152, align 4, !tbaa !30
  %154 = getelementptr inbounds %"class.xalanc_1_8::XPathExpression", ptr %0, i64 0, i32 5
  %155 = sext i32 %153 to i64
  %156 = load ptr, ptr %154, align 8, !tbaa !40
  %157 = getelementptr inbounds double, ptr %156, i64 %155
  %158 = load double, ptr %157, align 8, !tbaa !41
  br label %161

159:                                              ; preds = %143
  call void @llvm.lifetime.start.p0(i64 8, ptr nonnull %20) #16
  call void @_ZNK10xalanc_1_85XPath11executeMoreEPNS_9XalanNodeEN9__gnu_cxx17__normal_iteratorIPKiSt6vectorIiSaIiEEEERNS_21XPathExecutionContextERd(ptr noundef nonnull align 8 dereferenceable(105) %0, ptr noundef %1, ptr nonnull %148, ptr noundef nonnull align 8 dereferenceable(16) %3, ptr noundef nonnull align 8 dereferenceable(8) %20)
  %160 = load double, ptr %20, align 8, !tbaa !41
  call void @llvm.lifetime.end.p0(i64 8, ptr nonnull %20) #16
  br label %161

161:                                              ; preds = %151, %159
  %162 = phi double [ %158, %151 ], [ %160, %159 ]
  %163 = tail call reassoc nnan ninf nsz arcp afn noundef nofpclass(nan inf) double @_ZN10xalanc_1_813DoubleSupport8subtractEdd(double noundef nofpclass(nan inf) %144, double noundef nofpclass(nan inf) %162)
  %164 = load i32, ptr @_ZN10xalanc_1_813DoubleSupport5s_NaNE, align 8, !tbaa !73
  %165 = bitcast double %163 to i64
  %166 = trunc i64 %165 to i32
  %167 = icmp eq i32 %164, %166
  %168 = load i32, ptr getelementptr inbounds (%struct.anon, ptr @_ZN10xalanc_1_813DoubleSupport5s_NaNE, i64 0, i32 1), align 4
  %169 = lshr i64 %165, 32
  %170 = trunc i64 %169 to i32
  %171 = icmp eq i32 %168, %170
  %172 = select i1 %167, i1 %171, i1 false
  br i1 %172, label %177, label %173

173:                                              ; preds = %161
  %174 = tail call noundef zeroext i1 @_ZN10xalanc_1_813DoubleSupport5equalEdd(double noundef nofpclass(nan inf) %163, double noundef nofpclass(nan inf) 0.000000e+00)
  %175 = xor i1 %174, true
  %176 = zext i1 %175 to i8
  br label %177

177:                                              ; preds = %161, %173
  %178 = phi i8 [ 0, %161 ], [ %176, %173 ]
  store i8 %178, ptr %4, align 1, !tbaa !37
  br label %811

179:                                              ; preds = %32
  %180 = getelementptr inbounds i32, ptr %33, i64 2
  %181 = load i32, ptr %180, align 4, !tbaa !30
  %182 = icmp eq i32 %181, 21
  br i1 %182, label %183, label %191

183:                                              ; preds = %179
  %184 = getelementptr inbounds i32, ptr %33, i64 4
  %185 = load i32, ptr %184, align 4, !tbaa !30
  %186 = getelementptr inbounds %"class.xalanc_1_8::XPathExpression", ptr %0, i64 0, i32 5
  %187 = sext i32 %185 to i64
  %188 = load ptr, ptr %186, align 8, !tbaa !40
  %189 = getelementptr inbounds double, ptr %188, i64 %187
  %190 = load double, ptr %189, align 8, !tbaa !41
  br label %193

191:                                              ; preds = %179
  call void @llvm.lifetime.start.p0(i64 8, ptr nonnull %17) #16
  call void @_ZNK10xalanc_1_85XPath11executeMoreEPNS_9XalanNodeEN9__gnu_cxx17__normal_iteratorIPKiSt6vectorIiSaIiEEEERNS_21XPathExecutionContextERd(ptr noundef nonnull align 8 dereferenceable(105) %0, ptr noundef %1, ptr nonnull %180, ptr noundef nonnull align 8 dereferenceable(16) %3, ptr noundef nonnull align 8 dereferenceable(8) %17)
  %192 = load double, ptr %17, align 8, !tbaa !41
  call void @llvm.lifetime.end.p0(i64 8, ptr nonnull %17) #16
  br label %193

193:                                              ; preds = %183, %191
  %194 = phi double [ %190, %183 ], [ %192, %191 ]
  %195 = getelementptr inbounds i32, ptr %33, i64 3
  %196 = load i32, ptr %195, align 4, !tbaa !30
  %197 = sext i32 %196 to i64
  %198 = getelementptr inbounds i32, ptr %180, i64 %197
  %199 = load i32, ptr %198, align 4, !tbaa !30
  %200 = icmp eq i32 %199, 21
  br i1 %200, label %201, label %209

201:                                              ; preds = %193
  %202 = getelementptr inbounds i32, ptr %198, i64 2
  %203 = load i32, ptr %202, align 4, !tbaa !30
  %204 = getelementptr inbounds %"class.xalanc_1_8::XPathExpression", ptr %0, i64 0, i32 5
  %205 = sext i32 %203 to i64
  %206 = load ptr, ptr %204, align 8, !tbaa !40
  %207 = getelementptr inbounds double, ptr %206, i64 %205
  %208 = load double, ptr %207, align 8, !tbaa !41
  br label %211

209:                                              ; preds = %193
  call void @llvm.lifetime.start.p0(i64 8, ptr nonnull %18) #16
  call void @_ZNK10xalanc_1_85XPath11executeMoreEPNS_9XalanNodeEN9__gnu_cxx17__normal_iteratorIPKiSt6vectorIiSaIiEEEERNS_21XPathExecutionContextERd(ptr noundef nonnull align 8 dereferenceable(105) %0, ptr noundef %1, ptr nonnull %198, ptr noundef nonnull align 8 dereferenceable(16) %3, ptr noundef nonnull align 8 dereferenceable(8) %18)
  %210 = load double, ptr %18, align 8, !tbaa !41
  call void @llvm.lifetime.end.p0(i64 8, ptr nonnull %18) #16
  br label %211

211:                                              ; preds = %201, %209
  %212 = phi double [ %208, %201 ], [ %210, %209 ]
  %213 = tail call reassoc nnan ninf nsz arcp afn noundef nofpclass(nan inf) double @_ZN10xalanc_1_813DoubleSupport8multiplyEdd(double noundef nofpclass(nan inf) %194, double noundef nofpclass(nan inf) %212)
  %214 = load i32, ptr @_ZN10xalanc_1_813DoubleSupport5s_NaNE, align 8, !tbaa !73
  %215 = bitcast double %213 to i64
  %216 = trunc i64 %215 to i32
  %217 = icmp eq i32 %214, %216
  %218 = load i32, ptr getelementptr inbounds (%struct.anon, ptr @_ZN10xalanc_1_813DoubleSupport5s_NaNE, i64 0, i32 1), align 4
  %219 = lshr i64 %215, 32
  %220 = trunc i64 %219 to i32
  %221 = icmp eq i32 %218, %220
  %222 = select i1 %217, i1 %221, i1 false
  br i1 %222, label %227, label %223

223:                                              ; preds = %211
  %224 = tail call noundef zeroext i1 @_ZN10xalanc_1_813DoubleSupport5equalEdd(double noundef nofpclass(nan inf) %213, double noundef nofpclass(nan inf) 0.000000e+00)
  %225 = xor i1 %224, true
  %226 = zext i1 %225 to i8
  br label %227

227:                                              ; preds = %211, %223
  %228 = phi i8 [ 0, %211 ], [ %226, %223 ]
  store i8 %228, ptr %4, align 1, !tbaa !37
  br label %811

229:                                              ; preds = %32
  %230 = getelementptr inbounds i32, ptr %33, i64 2
  %231 = load i32, ptr %230, align 4, !tbaa !30
  %232 = icmp eq i32 %231, 21
  br i1 %232, label %233, label %241

233:                                              ; preds = %229
  %234 = getelementptr inbounds i32, ptr %33, i64 4
  %235 = load i32, ptr %234, align 4, !tbaa !30
  %236 = getelementptr inbounds %"class.xalanc_1_8::XPathExpression", ptr %0, i64 0, i32 5
  %237 = sext i32 %235 to i64
  %238 = load ptr, ptr %236, align 8, !tbaa !40
  %239 = getelementptr inbounds double, ptr %238, i64 %237
  %240 = load double, ptr %239, align 8, !tbaa !41
  br label %243

241:                                              ; preds = %229
  call void @llvm.lifetime.start.p0(i64 8, ptr nonnull %15) #16
  call void @_ZNK10xalanc_1_85XPath11executeMoreEPNS_9XalanNodeEN9__gnu_cxx17__normal_iteratorIPKiSt6vectorIiSaIiEEEERNS_21XPathExecutionContextERd(ptr noundef nonnull align 8 dereferenceable(105) %0, ptr noundef %1, ptr nonnull %230, ptr noundef nonnull align 8 dereferenceable(16) %3, ptr noundef nonnull align 8 dereferenceable(8) %15)
  %242 = load double, ptr %15, align 8, !tbaa !41
  call void @llvm.lifetime.end.p0(i64 8, ptr nonnull %15) #16
  br label %243

243:                                              ; preds = %233, %241
  %244 = phi double [ %240, %233 ], [ %242, %241 ]
  %245 = getelementptr inbounds i32, ptr %33, i64 3
  %246 = load i32, ptr %245, align 4, !tbaa !30
  %247 = sext i32 %246 to i64
  %248 = getelementptr inbounds i32, ptr %230, i64 %247
  %249 = load i32, ptr %248, align 4, !tbaa !30
  %250 = icmp eq i32 %249, 21
  br i1 %250, label %251, label %259

251:                                              ; preds = %243
  %252 = getelementptr inbounds i32, ptr %248, i64 2
  %253 = load i32, ptr %252, align 4, !tbaa !30
  %254 = getelementptr inbounds %"class.xalanc_1_8::XPathExpression", ptr %0, i64 0, i32 5
  %255 = sext i32 %253 to i64
  %256 = load ptr, ptr %254, align 8, !tbaa !40
  %257 = getelementptr inbounds double, ptr %256, i64 %255
  %258 = load double, ptr %257, align 8, !tbaa !41
  br label %261

259:                                              ; preds = %243
  call void @llvm.lifetime.start.p0(i64 8, ptr nonnull %16) #16
  call void @_ZNK10xalanc_1_85XPath11executeMoreEPNS_9XalanNodeEN9__gnu_cxx17__normal_iteratorIPKiSt6vectorIiSaIiEEEERNS_21XPathExecutionContextERd(ptr noundef nonnull align 8 dereferenceable(105) %0, ptr noundef %1, ptr nonnull %248, ptr noundef nonnull align 8 dereferenceable(16) %3, ptr noundef nonnull align 8 dereferenceable(8) %16)
  %260 = load double, ptr %16, align 8, !tbaa !41
  call void @llvm.lifetime.end.p0(i64 8, ptr nonnull %16) #16
  br label %261

261:                                              ; preds = %251, %259
  %262 = phi double [ %258, %251 ], [ %260, %259 ]
  %263 = tail call reassoc nnan ninf nsz arcp afn noundef nofpclass(nan inf) double @_ZN10xalanc_1_813DoubleSupport6divideEdd(double noundef nofpclass(nan inf) %244, double noundef nofpclass(nan inf) %262)
  %264 = load i32, ptr @_ZN10xalanc_1_813DoubleSupport5s_NaNE, align 8, !tbaa !73
  %265 = bitcast double %263 to i64
  %266 = trunc i64 %265 to i32
  %267 = icmp eq i32 %264, %266
  %268 = load i32, ptr getelementptr inbounds (%struct.anon, ptr @_ZN10xalanc_1_813DoubleSupport5s_NaNE, i64 0, i32 1), align 4
  %269 = lshr i64 %265, 32
  %270 = trunc i64 %269 to i32
  %271 = icmp eq i32 %268, %270
  %272 = select i1 %267, i1 %271, i1 false
  br i1 %272, label %277, label %273

273:                                              ; preds = %261
  %274 = tail call noundef zeroext i1 @_ZN10xalanc_1_813DoubleSupport5equalEdd(double noundef nofpclass(nan inf) %263, double noundef nofpclass(nan inf) 0.000000e+00)
  %275 = xor i1 %274, true
  %276 = zext i1 %275 to i8
  br label %277

277:                                              ; preds = %261, %273
  %278 = phi i8 [ 0, %261 ], [ %276, %273 ]
  store i8 %278, ptr %4, align 1, !tbaa !37
  br label %811

279:                                              ; preds = %32
  %280 = getelementptr inbounds i32, ptr %33, i64 2
  %281 = load i32, ptr %280, align 4, !tbaa !30
  %282 = icmp eq i32 %281, 21
  br i1 %282, label %283, label %291

283:                                              ; preds = %279
  %284 = getelementptr inbounds i32, ptr %33, i64 4
  %285 = load i32, ptr %284, align 4, !tbaa !30
  %286 = getelementptr inbounds %"class.xalanc_1_8::XPathExpression", ptr %0, i64 0, i32 5
  %287 = sext i32 %285 to i64
  %288 = load ptr, ptr %286, align 8, !tbaa !40
  %289 = getelementptr inbounds double, ptr %288, i64 %287
  %290 = load double, ptr %289, align 8, !tbaa !41
  br label %293

291:                                              ; preds = %279
  call void @llvm.lifetime.start.p0(i64 8, ptr nonnull %13) #16
  call void @_ZNK10xalanc_1_85XPath11executeMoreEPNS_9XalanNodeEN9__gnu_cxx17__normal_iteratorIPKiSt6vectorIiSaIiEEEERNS_21XPathExecutionContextERd(ptr noundef nonnull align 8 dereferenceable(105) %0, ptr noundef %1, ptr nonnull %280, ptr noundef nonnull align 8 dereferenceable(16) %3, ptr noundef nonnull align 8 dereferenceable(8) %13)
  %292 = load double, ptr %13, align 8, !tbaa !41
  call void @llvm.lifetime.end.p0(i64 8, ptr nonnull %13) #16
  br label %293

293:                                              ; preds = %283, %291
  %294 = phi double [ %290, %283 ], [ %292, %291 ]
  %295 = getelementptr inbounds i32, ptr %33, i64 3
  %296 = load i32, ptr %295, align 4, !tbaa !30
  %297 = sext i32 %296 to i64
  %298 = getelementptr inbounds i32, ptr %280, i64 %297
  %299 = load i32, ptr %298, align 4, !tbaa !30
  %300 = icmp eq i32 %299, 21
  br i1 %300, label %301, label %309

301:                                              ; preds = %293
  %302 = getelementptr inbounds i32, ptr %298, i64 2
  %303 = load i32, ptr %302, align 4, !tbaa !30
  %304 = getelementptr inbounds %"class.xalanc_1_8::XPathExpression", ptr %0, i64 0, i32 5
  %305 = sext i32 %303 to i64
  %306 = load ptr, ptr %304, align 8, !tbaa !40
  %307 = getelementptr inbounds double, ptr %306, i64 %305
  %308 = load double, ptr %307, align 8, !tbaa !41
  br label %311

309:                                              ; preds = %293
  call void @llvm.lifetime.start.p0(i64 8, ptr nonnull %14) #16
  call void @_ZNK10xalanc_1_85XPath11executeMoreEPNS_9XalanNodeEN9__gnu_cxx17__normal_iteratorIPKiSt6vectorIiSaIiEEEERNS_21XPathExecutionContextERd(ptr noundef nonnull align 8 dereferenceable(105) %0, ptr noundef %1, ptr nonnull %298, ptr noundef nonnull align 8 dereferenceable(16) %3, ptr noundef nonnull align 8 dereferenceable(8) %14)
  %310 = load double, ptr %14, align 8, !tbaa !41
  call void @llvm.lifetime.end.p0(i64 8, ptr nonnull %14) #16
  br label %311

311:                                              ; preds = %301, %309
  %312 = phi double [ %308, %301 ], [ %310, %309 ]
  %313 = tail call reassoc nnan ninf nsz arcp afn noundef nofpclass(nan inf) double @_ZN10xalanc_1_813DoubleSupport7modulusEdd(double noundef nofpclass(nan inf) %294, double noundef nofpclass(nan inf) %312)
  %314 = load i32, ptr @_ZN10xalanc_1_813DoubleSupport5s_NaNE, align 8, !tbaa !73
  %315 = bitcast double %313 to i64
  %316 = trunc i64 %315 to i32
  %317 = icmp eq i32 %314, %316
  %318 = load i32, ptr getelementptr inbounds (%struct.anon, ptr @_ZN10xalanc_1_813DoubleSupport5s_NaNE, i64 0, i32 1), align 4
  %319 = lshr i64 %315, 32
  %320 = trunc i64 %319 to i32
  %321 = icmp eq i32 %318, %320
  %322 = select i1 %317, i1 %321, i1 false
  br i1 %322, label %327, label %323

323:                                              ; preds = %311
  %324 = tail call noundef zeroext i1 @_ZN10xalanc_1_813DoubleSupport5equalEdd(double noundef nofpclass(nan inf) %313, double noundef nofpclass(nan inf) 0.000000e+00)
  %325 = xor i1 %324, true
  %326 = zext i1 %325 to i8
  br label %327

327:                                              ; preds = %311, %323
  %328 = phi i8 [ 0, %311 ], [ %326, %323 ]
  store i8 %328, ptr %4, align 1, !tbaa !37
  br label %811

329:                                              ; preds = %32
  %330 = getelementptr inbounds i32, ptr %33, i64 2
  %331 = load i32, ptr %330, align 4, !tbaa !30
  %332 = icmp eq i32 %331, 21
  br i1 %332, label %333, label %341

333:                                              ; preds = %329
  %334 = getelementptr inbounds i32, ptr %33, i64 4
  %335 = load i32, ptr %334, align 4, !tbaa !30
  %336 = getelementptr inbounds %"class.xalanc_1_8::XPathExpression", ptr %0, i64 0, i32 5
  %337 = sext i32 %335 to i64
  %338 = load ptr, ptr %336, align 8, !tbaa !40
  %339 = getelementptr inbounds double, ptr %338, i64 %337
  %340 = load double, ptr %339, align 8, !tbaa !41
  br label %343

341:                                              ; preds = %329
  call void @llvm.lifetime.start.p0(i64 8, ptr nonnull %12) #16
  call void @_ZNK10xalanc_1_85XPath11executeMoreEPNS_9XalanNodeEN9__gnu_cxx17__normal_iteratorIPKiSt6vectorIiSaIiEEEERNS_21XPathExecutionContextERd(ptr noundef nonnull align 8 dereferenceable(105) %0, ptr noundef %1, ptr nonnull %330, ptr noundef nonnull align 8 dereferenceable(16) %3, ptr noundef nonnull align 8 dereferenceable(8) %12)
  %342 = load double, ptr %12, align 8, !tbaa !41
  call void @llvm.lifetime.end.p0(i64 8, ptr nonnull %12) #16
  br label %343

343:                                              ; preds = %333, %341
  %344 = phi double [ %340, %333 ], [ %342, %341 ]
  %345 = tail call reassoc nnan ninf nsz arcp afn noundef nofpclass(nan inf) double @_ZN10xalanc_1_813DoubleSupport8negativeEd(double noundef nofpclass(nan inf) %344)
  %346 = load i32, ptr @_ZN10xalanc_1_813DoubleSupport5s_NaNE, align 8, !tbaa !73
  %347 = bitcast double %345 to i64
  %348 = trunc i64 %347 to i32
  %349 = icmp eq i32 %346, %348
  %350 = load i32, ptr getelementptr inbounds (%struct.anon, ptr @_ZN10xalanc_1_813DoubleSupport5s_NaNE, i64 0, i32 1), align 4
  %351 = lshr i64 %347, 32
  %352 = trunc i64 %351 to i32
  %353 = icmp eq i32 %350, %352
  %354 = select i1 %349, i1 %353, i1 false
  br i1 %354, label %359, label %355

355:                                              ; preds = %343
  %356 = tail call noundef zeroext i1 @_ZN10xalanc_1_813DoubleSupport5equalEdd(double noundef nofpclass(nan inf) %345, double noundef nofpclass(nan inf) 0.000000e+00)
  %357 = xor i1 %356, true
  %358 = zext i1 %357 to i8
  br label %359

359:                                              ; preds = %343, %355
  %360 = phi i8 [ 0, %343 ], [ %358, %355 ]
  store i8 %360, ptr %4, align 1, !tbaa !37
  br label %811

361:                                              ; preds = %32
  %362 = load ptr, ptr %3, align 8, !tbaa !31
  %363 = getelementptr inbounds ptr, ptr %362, i64 24
  %364 = load ptr, ptr %363, align 8
  %365 = tail call noundef ptr %364(ptr noundef nonnull align 8 dereferenceable(16) %3)
  invoke void @_ZNK10xalanc_1_85XPath5UnionEPNS_9XalanNodeEN9__gnu_cxx17__normal_iteratorIPKiSt6vectorIiSaIiEEEERNS_21XPathExecutionContextERNS_18MutableNodeRefListE(ptr noundef nonnull align 8 dereferenceable(105) %0, ptr noundef %1, ptr nonnull %33, ptr noundef nonnull align 8 dereferenceable(16) %3, ptr noundef nonnull align 8 dereferenceable(36) %365)
          to label %366 unwind label %373

366:                                              ; preds = %361
  %367 = load ptr, ptr %365, align 8, !tbaa !31
  %368 = getelementptr inbounds ptr, ptr %367, i64 3
  %369 = load ptr, ptr %368, align 8
  %370 = invoke noundef i32 %369(ptr noundef nonnull align 8 dereferenceable(8) %365)
          to label %387 unwind label %371

371:                                              ; preds = %366
  %372 = landingpad { ptr, i32 }
          cleanup
  br label %376

373:                                              ; preds = %361
  %374 = landingpad { ptr, i32 }
          cleanup
  %375 = icmp eq ptr %365, null
  br i1 %375, label %382, label %376

376:                                              ; preds = %373, %371
  %377 = phi { ptr, i32 } [ %372, %371 ], [ %374, %373 ]
  %378 = load ptr, ptr %3, align 8, !tbaa !31
  %379 = getelementptr inbounds ptr, ptr %378, i64 25
  %380 = load ptr, ptr %379, align 8
  %381 = invoke noundef zeroext i1 %380(ptr noundef nonnull align 8 dereferenceable(16) %3, ptr noundef nonnull %365)
          to label %382 unwind label %384

382:                                              ; preds = %500, %503, %432, %742, %486, %473, %448, %373, %376, %770
  %383 = phi { ptr, i32 } [ %769, %770 ], [ %374, %373 ], [ %377, %376 ], [ %431, %432 ], [ %741, %742 ], [ %484, %486 ], [ %471, %473 ], [ %446, %448 ], [ %501, %500 ], [ %504, %503 ]
  resume { ptr, i32 } %383

384:                                              ; preds = %376
  %385 = landingpad { ptr, i32 }
          catch ptr null
  %386 = extractvalue { ptr, i32 } %385, 0
  tail call void @__clang_call_terminate(ptr %386) #17
  unreachable

387:                                              ; preds = %366
  %388 = icmp ne i32 %370, 0
  %389 = zext i1 %388 to i8
  store i8 %389, ptr %4, align 1, !tbaa !37
  %390 = load ptr, ptr %3, align 8, !tbaa !31
  %391 = getelementptr inbounds ptr, ptr %390, i64 25
  %392 = load ptr, ptr %391, align 8
  %393 = tail call noundef zeroext i1 %392(ptr noundef nonnull align 8 dereferenceable(16) %3, ptr noundef nonnull %365)
  br label %811

394:                                              ; preds = %32
  %395 = getelementptr inbounds i32, ptr %33, i64 2
  %396 = load i32, ptr %395, align 4, !tbaa !30
  %397 = getelementptr inbounds %"class.xalanc_1_8::XPathExpression", ptr %0, i64 0, i32 2
  %398 = sext i32 %396 to i64
  %399 = load ptr, ptr %397, align 8, !tbaa !52
  %400 = getelementptr inbounds %"class.xalanc_1_8::XToken", ptr %399, i64 %398
  %401 = load ptr, ptr %400, align 8, !tbaa !31
  %402 = getelementptr inbounds ptr, ptr %401, i64 8
  %403 = load ptr, ptr %402, align 8
  %404 = tail call noundef zeroext i1 %403(ptr noundef nonnull align 8 dereferenceable(41) %400)
  %405 = zext i1 %404 to i8
  store i8 %405, ptr %4, align 1, !tbaa !37
  br label %811

406:                                              ; preds = %32
  call void @llvm.lifetime.start.p0(i64 8, ptr nonnull %29) #16
  %407 = getelementptr inbounds i32, ptr %33, i64 2
  %408 = load i32, ptr %407, align 4, !tbaa !30, !noalias !76
  %409 = getelementptr inbounds %"class.xalanc_1_8::XPathExpression", ptr %0, i64 0, i32 2
  %410 = sext i32 %408 to i64
  %411 = load ptr, ptr %409, align 8, !tbaa !52, !noalias !76
  %412 = getelementptr inbounds %"class.xalanc_1_8::XToken", ptr %411, i64 %410
  %413 = getelementptr inbounds i32, ptr %33, i64 3
  %414 = load i32, ptr %413, align 4, !tbaa !30, !noalias !76
  %415 = sext i32 %414 to i64
  %416 = getelementptr inbounds %"class.xalanc_1_8::XToken", ptr %411, i64 %415
  call void @llvm.lifetime.start.p0(i64 24, ptr nonnull %26) #16, !noalias !76
  %417 = load ptr, ptr %412, align 8, !tbaa !31, !noalias !76
  %418 = getelementptr inbounds ptr, ptr %417, i64 9
  %419 = load ptr, ptr %418, align 8, !noalias !76
  %420 = tail call noundef nonnull align 8 dereferenceable(28) ptr %419(ptr noundef nonnull align 8 dereferenceable(41) %412), !noalias !76
  %421 = load ptr, ptr %416, align 8, !tbaa !31, !noalias !76
  %422 = getelementptr inbounds ptr, ptr %421, i64 9
  %423 = load ptr, ptr %422, align 8, !noalias !76
  %424 = tail call noundef nonnull align 8 dereferenceable(28) ptr %423(ptr noundef nonnull align 8 dereferenceable(41) %416), !noalias !76
  call void @_ZN10xalanc_1_821XalanQNameByReferenceC1ERKNS_14XalanDOMStringES3_(ptr noundef nonnull align 8 dereferenceable(24) %26, ptr noundef nonnull align 8 dereferenceable(28) %420, ptr noundef nonnull align 8 dereferenceable(28) %424), !noalias !76
  %425 = getelementptr inbounds %"class.xalanc_1_8::XPath", ptr %0, i64 0, i32 1
  %426 = load ptr, ptr %425, align 8, !tbaa !12, !noalias !76
  %427 = load ptr, ptr %3, align 8, !tbaa !31, !noalias !76
  %428 = getelementptr inbounds ptr, ptr %427, i64 31
  %429 = load ptr, ptr %428, align 8, !noalias !76
  invoke void %429(ptr nonnull sret(%"class.xalanc_1_8::XObjectPtr") align 8 %29, ptr noundef nonnull align 8 dereferenceable(16) %3, ptr noundef nonnull align 8 dereferenceable(8) %26, ptr noundef %426)
          to label %436 unwind label %430

430:                                              ; preds = %406
  %431 = landingpad { ptr, i32 }
          cleanup
  invoke void @_ZN10xalanc_1_821XalanQNameByReferenceD1Ev(ptr noundef nonnull align 8 dereferenceable(24) %26)
          to label %432 unwind label %433

432:                                              ; preds = %430
  call void @llvm.lifetime.end.p0(i64 24, ptr nonnull %26) #16, !noalias !76
  br label %382

433:                                              ; preds = %430
  %434 = landingpad { ptr, i32 }
          catch ptr null
  %435 = extractvalue { ptr, i32 } %434, 0
  call void @__clang_call_terminate(ptr %435) #17
  unreachable

436:                                              ; preds = %406
  call void @_ZN10xalanc_1_821XalanQNameByReferenceD1Ev(ptr noundef nonnull align 8 dereferenceable(24) %26)
  call void @llvm.lifetime.end.p0(i64 24, ptr nonnull %26) #16, !noalias !76
  %437 = load ptr, ptr %29, align 8, !tbaa !74
  %438 = load ptr, ptr %437, align 8, !tbaa !31
  %439 = getelementptr inbounds ptr, ptr %438, i64 8
  %440 = load ptr, ptr %439, align 8
  %441 = invoke noundef zeroext i1 %440(ptr noundef nonnull align 8 dereferenceable(24) %437)
          to label %442 unwind label %445

442:                                              ; preds = %436
  %443 = zext i1 %441 to i8
  store i8 %443, ptr %4, align 1, !tbaa !37
  %444 = load ptr, ptr %29, align 8, !tbaa !74
  call void @_ZN10xalanc_1_827XalanReferenceCountedObject15removeReferenceEPS0_(ptr noundef %444)
  call void @llvm.lifetime.end.p0(i64 8, ptr nonnull %29) #16
  br label %811

445:                                              ; preds = %436
  %446 = landingpad { ptr, i32 }
          cleanup
  %447 = load ptr, ptr %29, align 8, !tbaa !74
  invoke void @_ZN10xalanc_1_827XalanReferenceCountedObject15removeReferenceEPS0_(ptr noundef %447)
          to label %448 unwind label %812

448:                                              ; preds = %445
  call void @llvm.lifetime.end.p0(i64 8, ptr nonnull %29) #16
  br label %382

449:                                              ; preds = %32
  %450 = getelementptr inbounds i32, ptr %33, i64 3
  %451 = load i32, ptr %450, align 4, !tbaa !30
  %452 = getelementptr inbounds %"class.xalanc_1_8::XPathExpression", ptr %0, i64 0, i32 2
  %453 = sext i32 %451 to i64
  %454 = load ptr, ptr %452, align 8, !tbaa !52
  %455 = getelementptr inbounds %"class.xalanc_1_8::XToken", ptr %454, i64 %453
  %456 = load ptr, ptr %455, align 8, !tbaa !31
  %457 = getelementptr inbounds ptr, ptr %456, i64 8
  %458 = load ptr, ptr %457, align 8
  %459 = tail call noundef zeroext i1 %458(ptr noundef nonnull align 8 dereferenceable(41) %455)
  %460 = zext i1 %459 to i8
  store i8 %460, ptr %4, align 1, !tbaa !37
  br label %811

461:                                              ; preds = %32
  call void @llvm.lifetime.start.p0(i64 8, ptr nonnull %30) #16
  call void @_ZNK10xalanc_1_85XPath14runExtFunctionEPNS_9XalanNodeEN9__gnu_cxx17__normal_iteratorIPKiSt6vectorIiSaIiEEEERNS_21XPathExecutionContextE(ptr nonnull sret(%"class.xalanc_1_8::XObjectPtr") align 8 %30, ptr noundef nonnull align 8 dereferenceable(105) %0, ptr noundef %1, ptr nonnull %33, ptr noundef nonnull align 8 dereferenceable(16) %3)
  %462 = load ptr, ptr %30, align 8, !tbaa !74
  %463 = load ptr, ptr %462, align 8, !tbaa !31
  %464 = getelementptr inbounds ptr, ptr %463, i64 8
  %465 = load ptr, ptr %464, align 8
  %466 = invoke noundef zeroext i1 %465(ptr noundef nonnull align 8 dereferenceable(24) %462)
          to label %467 unwind label %470

467:                                              ; preds = %461
  %468 = zext i1 %466 to i8
  store i8 %468, ptr %4, align 1, !tbaa !37
  %469 = load ptr, ptr %30, align 8, !tbaa !74
  call void @_ZN10xalanc_1_827XalanReferenceCountedObject15removeReferenceEPS0_(ptr noundef %469)
  call void @llvm.lifetime.end.p0(i64 8, ptr nonnull %30) #16
  br label %811

470:                                              ; preds = %461
  %471 = landingpad { ptr, i32 }
          cleanup
  %472 = load ptr, ptr %30, align 8, !tbaa !74
  invoke void @_ZN10xalanc_1_827XalanReferenceCountedObject15removeReferenceEPS0_(ptr noundef %472)
          to label %473 unwind label %812

473:                                              ; preds = %470
  call void @llvm.lifetime.end.p0(i64 8, ptr nonnull %30) #16
  br label %382

474:                                              ; preds = %32
  call void @llvm.lifetime.start.p0(i64 8, ptr nonnull %31) #16
  call void @_ZNK10xalanc_1_85XPath11runFunctionEPNS_9XalanNodeEN9__gnu_cxx17__normal_iteratorIPKiSt6vectorIiSaIiEEEERNS_21XPathExecutionContextE(ptr nonnull sret(%"class.xalanc_1_8::XObjectPtr") align 8 %31, ptr noundef nonnull align 8 dereferenceable(105) %0, ptr noundef %1, ptr nonnull %33, ptr noundef nonnull align 8 dereferenceable(16) %3)
  %475 = load ptr, ptr %31, align 8, !tbaa !74
  %476 = load ptr, ptr %475, align 8, !tbaa !31
  %477 = getelementptr inbounds ptr, ptr %476, i64 8
  %478 = load ptr, ptr %477, align 8
  %479 = invoke noundef zeroext i1 %478(ptr noundef nonnull align 8 dereferenceable(24) %475)
          to label %480 unwind label %483

480:                                              ; preds = %474
  %481 = zext i1 %479 to i8
  store i8 %481, ptr %4, align 1, !tbaa !37
  %482 = load ptr, ptr %31, align 8, !tbaa !74
  call void @_ZN10xalanc_1_827XalanReferenceCountedObject15removeReferenceEPS0_(ptr noundef %482)
  call void @llvm.lifetime.end.p0(i64 8, ptr nonnull %31) #16
  br label %811

483:                                              ; preds = %474
  %484 = landingpad { ptr, i32 }
          cleanup
  %485 = load ptr, ptr %31, align 8, !tbaa !74
  invoke void @_ZN10xalanc_1_827XalanReferenceCountedObject15removeReferenceEPS0_(ptr noundef %485)
          to label %486 unwind label %812

486:                                              ; preds = %483
  call void @llvm.lifetime.end.p0(i64 8, ptr nonnull %31) #16
  br label %382

487:                                              ; preds = %32
  %488 = load ptr, ptr %3, align 8, !tbaa !31
  %489 = getelementptr inbounds ptr, ptr %488, i64 24
  %490 = load ptr, ptr %489, align 8
  %491 = tail call noundef ptr %490(ptr noundef nonnull align 8 dereferenceable(16) %3)
  %492 = getelementptr inbounds i32, ptr %33, i64 2
  invoke void @_ZNK10xalanc_1_85XPath4stepERNS_21XPathExecutionContextEPNS_9XalanNodeEN9__gnu_cxx17__normal_iteratorIPKiSt6vectorIiSaIiEEEERNS_18MutableNodeRefListE(ptr noundef nonnull align 8 dereferenceable(105) %0, ptr noundef nonnull align 8 dereferenceable(16) %3, ptr noundef %1, ptr nonnull %492, ptr noundef nonnull align 8 dereferenceable(36) %491)
          to label %493 unwind label %500

493:                                              ; preds = %487
  %494 = load ptr, ptr %491, align 8, !tbaa !31
  %495 = getelementptr inbounds ptr, ptr %494, i64 3
  %496 = load ptr, ptr %495, align 8
  %497 = invoke noundef i32 %496(ptr noundef nonnull align 8 dereferenceable(8) %491)
          to label %512 unwind label %498

498:                                              ; preds = %493
  %499 = landingpad { ptr, i32 }
          cleanup
  br label %503

500:                                              ; preds = %487
  %501 = landingpad { ptr, i32 }
          cleanup
  %502 = icmp eq ptr %491, null
  br i1 %502, label %382, label %503

503:                                              ; preds = %500, %498
  %504 = phi { ptr, i32 } [ %499, %498 ], [ %501, %500 ]
  %505 = load ptr, ptr %3, align 8, !tbaa !31
  %506 = getelementptr inbounds ptr, ptr %505, i64 25
  %507 = load ptr, ptr %506, align 8
  %508 = invoke noundef zeroext i1 %507(ptr noundef nonnull align 8 dereferenceable(16) %3, ptr noundef nonnull %491)
          to label %382 unwind label %509

509:                                              ; preds = %503
  %510 = landingpad { ptr, i32 }
          catch ptr null
  %511 = extractvalue { ptr, i32 } %510, 0
  tail call void @__clang_call_terminate(ptr %511) #17
  unreachable

512:                                              ; preds = %493
  %513 = icmp ne i32 %497, 0
  %514 = zext i1 %513 to i8
  store i8 %514, ptr %4, align 1, !tbaa !37
  %515 = load ptr, ptr %3, align 8, !tbaa !31
  %516 = getelementptr inbounds ptr, ptr %515, i64 25
  %517 = load ptr, ptr %516, align 8
  %518 = tail call noundef zeroext i1 %517(ptr noundef nonnull align 8 dereferenceable(16) %3, ptr noundef nonnull %491)
  br label %811

519:                                              ; preds = %32
  %520 = load ptr, ptr %3, align 8, !tbaa !31
  %521 = getelementptr inbounds ptr, ptr %520, i64 17
  %522 = load ptr, ptr %521, align 8
  %523 = tail call noundef i32 %522(ptr noundef nonnull align 8 dereferenceable(16) %3, ptr noundef nonnull align 8 dereferenceable(8) %1)
  %524 = uitofp i32 %523 to double
  %525 = load i32, ptr @_ZN10xalanc_1_813DoubleSupport5s_NaNE, align 8, !tbaa !73
  %526 = bitcast double %524 to i64
  %527 = trunc i64 %526 to i32
  %528 = icmp eq i32 %525, %527
  %529 = load i32, ptr getelementptr inbounds (%struct.anon, ptr @_ZN10xalanc_1_813DoubleSupport5s_NaNE, i64 0, i32 1), align 4
  %530 = lshr i64 %526, 32
  %531 = trunc i64 %530 to i32
  %532 = icmp eq i32 %529, %531
  %533 = select i1 %528, i1 %532, i1 false
  br i1 %533, label %538, label %534

534:                                              ; preds = %519
  %535 = tail call noundef zeroext i1 @_ZN10xalanc_1_813DoubleSupport5equalEdd(double noundef nofpclass(nan inf) %524, double noundef nofpclass(nan inf) 0.000000e+00)
  %536 = xor i1 %535, true
  %537 = zext i1 %536 to i8
  br label %538

538:                                              ; preds = %519, %534
  %539 = phi i8 [ 0, %519 ], [ %537, %534 ]
  store i8 %539, ptr %4, align 1, !tbaa !37
  br label %811

540:                                              ; preds = %32
  %541 = load ptr, ptr %3, align 8, !tbaa !31
  %542 = getelementptr inbounds ptr, ptr %541, i64 16
  %543 = load ptr, ptr %542, align 8
  %544 = tail call noundef i32 %543(ptr noundef nonnull align 8 dereferenceable(16) %3)
  %545 = uitofp i32 %544 to double
  %546 = load i32, ptr @_ZN10xalanc_1_813DoubleSupport5s_NaNE, align 8, !tbaa !73
  %547 = bitcast double %545 to i64
  %548 = trunc i64 %547 to i32
  %549 = icmp eq i32 %546, %548
  %550 = load i32, ptr getelementptr inbounds (%struct.anon, ptr @_ZN10xalanc_1_813DoubleSupport5s_NaNE, i64 0, i32 1), align 4
  %551 = lshr i64 %547, 32
  %552 = trunc i64 %551 to i32
  %553 = icmp eq i32 %550, %552
  %554 = select i1 %549, i1 %553, i1 false
  br i1 %554, label %559, label %555

555:                                              ; preds = %540
  %556 = tail call noundef zeroext i1 @_ZN10xalanc_1_813DoubleSupport5equalEdd(double noundef nofpclass(nan inf) %545, double noundef nofpclass(nan inf) 0.000000e+00)
  %557 = xor i1 %556, true
  %558 = zext i1 %557 to i8
  br label %559

559:                                              ; preds = %540, %555
  %560 = phi i8 [ 0, %540 ], [ %558, %555 ]
  store i8 %560, ptr %4, align 1, !tbaa !37
  br label %811

561:                                              ; preds = %32
  %562 = tail call reassoc nnan ninf nsz arcp afn noundef nofpclass(nan inf) double @_ZNK10xalanc_1_85XPath13functionCountEPNS_9XalanNodeEN9__gnu_cxx17__normal_iteratorIPKiSt6vectorIiSaIiEEEERNS_21XPathExecutionContextE(ptr noundef nonnull align 8 dereferenceable(105) %0, ptr noundef %1, ptr nonnull %33, ptr noundef nonnull align 8 dereferenceable(16) %3)
  %563 = load i32, ptr @_ZN10xalanc_1_813DoubleSupport5s_NaNE, align 8, !tbaa !73
  %564 = bitcast double %562 to i64
  %565 = trunc i64 %564 to i32
  %566 = icmp eq i32 %563, %565
  %567 = load i32, ptr getelementptr inbounds (%struct.anon, ptr @_ZN10xalanc_1_813DoubleSupport5s_NaNE, i64 0, i32 1), align 4
  %568 = lshr i64 %564, 32
  %569 = trunc i64 %568 to i32
  %570 = icmp eq i32 %567, %569
  %571 = select i1 %566, i1 %570, i1 false
  br i1 %571, label %576, label %572

572:                                              ; preds = %561
  %573 = tail call noundef zeroext i1 @_ZN10xalanc_1_813DoubleSupport5equalEdd(double noundef nofpclass(nan inf) %562, double noundef nofpclass(nan inf) 0.000000e+00)
  %574 = xor i1 %573, true
  %575 = zext i1 %574 to i8
  br label %576

576:                                              ; preds = %561, %572
  %577 = phi i8 [ 0, %561 ], [ %575, %572 ]
  store i8 %577, ptr %4, align 1, !tbaa !37
  br label %811

578:                                              ; preds = %32
  call void @llvm.lifetime.start.p0(i64 1, ptr nonnull %11) #16
  %579 = getelementptr inbounds i32, ptr %33, i64 2
  call void @_ZNK10xalanc_1_85XPath11executeMoreEPNS_9XalanNodeEN9__gnu_cxx17__normal_iteratorIPKiSt6vectorIiSaIiEEEERNS_21XPathExecutionContextERb(ptr noundef nonnull align 8 dereferenceable(105) %0, ptr noundef %1, ptr nonnull %579, ptr noundef nonnull align 8 dereferenceable(16) %3, ptr noundef nonnull align 1 dereferenceable(1) %11)
  %580 = load i8, ptr %11, align 1, !tbaa !37, !range !38, !noundef !39
  call void @llvm.lifetime.end.p0(i64 1, ptr nonnull %11) #16
  %581 = xor i8 %580, 1
  store i8 %581, ptr %4, align 1, !tbaa !37
  br label %811

582:                                              ; preds = %32
  store i8 1, ptr %4, align 1, !tbaa !37
  br label %811

583:                                              ; preds = %32
  store i8 0, ptr %4, align 1, !tbaa !37
  br label %811

584:                                              ; preds = %32
  call void @llvm.lifetime.start.p0(i64 1, ptr nonnull %25) #16
  %585 = getelementptr inbounds i32, ptr %33, i64 2
  call void @_ZNK10xalanc_1_85XPath11executeMoreEPNS_9XalanNodeEN9__gnu_cxx17__normal_iteratorIPKiSt6vectorIiSaIiEEEERNS_21XPathExecutionContextERb(ptr noundef nonnull align 8 dereferenceable(105) %0, ptr noundef %1, ptr nonnull %585, ptr noundef nonnull align 8 dereferenceable(16) %3, ptr noundef nonnull align 1 dereferenceable(1) %25)
  %586 = load i8, ptr %25, align 1, !tbaa !37, !range !38, !noundef !39
  call void @llvm.lifetime.end.p0(i64 1, ptr nonnull %25) #16
  store i8 %586, ptr %4, align 1, !tbaa !37
  br label %811

587:                                              ; preds = %32
  %588 = tail call noundef nonnull align 8 dereferenceable(28) ptr @_ZN10xalanc_1_811DOMServices13getNameOfNodeERKNS_9XalanNodeE(ptr noundef nonnull align 8 dereferenceable(8) %1)
  %589 = getelementptr inbounds %"class.xalanc_1_8::XalanDOMString", ptr %588, i64 0, i32 1
  %590 = load i32, ptr %589, align 8, !tbaa !62
  %591 = icmp ne i32 %590, 0
  %592 = zext i1 %591 to i8
  store i8 %592, ptr %4, align 1, !tbaa !37
  br label %811

593:                                              ; preds = %32
  %594 = tail call noundef nonnull align 8 dereferenceable(28) ptr @_ZNK10xalanc_1_85XPath12functionNameEPNS_9XalanNodeEN9__gnu_cxx17__normal_iteratorIPKiSt6vectorIiSaIiEEEERNS_21XPathExecutionContextE(ptr noundef nonnull align 8 dereferenceable(105) %0, ptr noundef %1, ptr nonnull %33, ptr noundef nonnull align 8 dereferenceable(16) %3)
  %595 = getelementptr inbounds %"class.xalanc_1_8::XalanDOMString", ptr %594, i64 0, i32 1
  %596 = load i32, ptr %595, align 8, !tbaa !62
  %597 = icmp ne i32 %596, 0
  %598 = zext i1 %597 to i8
  store i8 %598, ptr %4, align 1, !tbaa !37
  br label %811

599:                                              ; preds = %32
  %600 = load ptr, ptr %1, align 8, !tbaa !31
  %601 = getelementptr inbounds ptr, ptr %600, i64 4
  %602 = load ptr, ptr %601, align 8
  %603 = tail call noundef i32 %602(ptr noundef nonnull align 8 dereferenceable(8) %1)
  switch i32 %603, label %635 [
    i32 7, label %604
    i32 1, label %604
    i32 2, label %617
  ]

604:                                              ; preds = %599, %599
  %605 = load ptr, ptr %1, align 8, !tbaa !31
  %606 = getelementptr inbounds ptr, ptr %605, i64 24
  %607 = load ptr, ptr %606, align 8
  %608 = tail call noundef nonnull align 8 dereferenceable(28) ptr %607(ptr noundef nonnull align 8 dereferenceable(8) %1)
  %609 = getelementptr inbounds %"class.xalanc_1_8::XalanDOMString", ptr %608, i64 0, i32 1
  %610 = load i32, ptr %609, align 8, !tbaa !62
  %611 = icmp eq i32 %610, 0
  br i1 %611, label %612, label %635

612:                                              ; preds = %604
  %613 = load ptr, ptr %1, align 8, !tbaa !31
  %614 = getelementptr inbounds ptr, ptr %613, i64 2
  %615 = load ptr, ptr %614, align 8
  %616 = tail call noundef nonnull align 8 dereferenceable(28) ptr %615(ptr noundef nonnull align 8 dereferenceable(8) %1)
  br label %635

617:                                              ; preds = %599
  %618 = load ptr, ptr %1, align 8, !tbaa !31
  %619 = getelementptr inbounds ptr, ptr %618, i64 24
  %620 = load ptr, ptr %619, align 8
  %621 = tail call noundef nonnull align 8 dereferenceable(28) ptr %620(ptr noundef nonnull align 8 dereferenceable(8) %1)
  %622 = getelementptr inbounds %"class.xalanc_1_8::XalanDOMString", ptr %621, i64 0, i32 1
  %623 = load i32, ptr %622, align 8, !tbaa !62
  %624 = icmp eq i32 %623, 0
  br i1 %624, label %625, label %630

625:                                              ; preds = %617
  %626 = load ptr, ptr %1, align 8, !tbaa !31
  %627 = getelementptr inbounds ptr, ptr %626, i64 2
  %628 = load ptr, ptr %627, align 8
  %629 = tail call noundef nonnull align 8 dereferenceable(28) ptr %628(ptr noundef nonnull align 8 dereferenceable(8) %1)
  br label %630

630:                                              ; preds = %625, %617
  %631 = phi ptr [ %629, %625 ], [ %621, %617 ]
  %632 = load ptr, ptr @_ZN10xalanc_1_811DOMServices14s_XMLNamespaceE, align 8, !tbaa !33
  %633 = tail call noundef zeroext i1 @_ZN10xalanc_1_814XalanDOMString6equalsERKS0_S2_(ptr noundef nonnull align 8 dereferenceable(28) %631, ptr noundef nonnull align 8 dereferenceable(28) %632)
  %634 = select i1 %633, ptr @_ZN10xalanc_1_85XPath13s_emptyStringE, ptr %631
  br label %635

635:                                              ; preds = %599, %604, %612, %630
  %636 = phi ptr [ %634, %630 ], [ @_ZN10xalanc_1_85XPath13s_emptyStringE, %599 ], [ %616, %612 ], [ %608, %604 ]
  %637 = getelementptr inbounds %"class.xalanc_1_8::XalanDOMString", ptr %636, i64 0, i32 1
  %638 = load i32, ptr %637, align 8, !tbaa !62
  %639 = icmp ne i32 %638, 0
  %640 = zext i1 %639 to i8
  store i8 %640, ptr %4, align 1, !tbaa !37
  br label %811

641:                                              ; preds = %32
  %642 = tail call noundef nonnull align 8 dereferenceable(28) ptr @_ZNK10xalanc_1_85XPath17functionLocalNameEPNS_9XalanNodeEN9__gnu_cxx17__normal_iteratorIPKiSt6vectorIiSaIiEEEERNS_21XPathExecutionContextE(ptr noundef nonnull align 8 dereferenceable(105) %0, ptr noundef %1, ptr nonnull %33, ptr noundef nonnull align 8 dereferenceable(16) %3)
  %643 = getelementptr inbounds %"class.xalanc_1_8::XalanDOMString", ptr %642, i64 0, i32 1
  %644 = load i32, ptr %643, align 8, !tbaa !62
  %645 = icmp ne i32 %644, 0
  %646 = zext i1 %645 to i8
  store i8 %646, ptr %4, align 1, !tbaa !37
  br label %811

647:                                              ; preds = %32
  call void @llvm.lifetime.start.p0(i64 8, ptr nonnull %10) #16
  %648 = getelementptr inbounds i32, ptr %33, i64 2
  call void @_ZNK10xalanc_1_85XPath11executeMoreEPNS_9XalanNodeEN9__gnu_cxx17__normal_iteratorIPKiSt6vectorIiSaIiEEEERNS_21XPathExecutionContextERd(ptr noundef nonnull align 8 dereferenceable(105) %0, ptr noundef %1, ptr nonnull %648, ptr noundef nonnull align 8 dereferenceable(16) %3, ptr noundef nonnull align 8 dereferenceable(8) %10)
  %649 = load double, ptr %10, align 8, !tbaa !41
  call void @llvm.lifetime.end.p0(i64 8, ptr nonnull %10) #16
  %650 = tail call reassoc nnan ninf nsz arcp afn double @llvm.floor.f64(double %649)
  %651 = load i32, ptr @_ZN10xalanc_1_813DoubleSupport5s_NaNE, align 8, !tbaa !73
  %652 = bitcast double %650 to i64
  %653 = trunc i64 %652 to i32
  %654 = icmp eq i32 %651, %653
  %655 = load i32, ptr getelementptr inbounds (%struct.anon, ptr @_ZN10xalanc_1_813DoubleSupport5s_NaNE, i64 0, i32 1), align 4
  %656 = lshr i64 %652, 32
  %657 = trunc i64 %656 to i32
  %658 = icmp eq i32 %655, %657
  %659 = select i1 %654, i1 %658, i1 false
  br i1 %659, label %664, label %660

660:                                              ; preds = %647
  %661 = tail call noundef zeroext i1 @_ZN10xalanc_1_813DoubleSupport5equalEdd(double noundef nofpclass(nan inf) %650, double noundef nofpclass(nan inf) 0.000000e+00)
  %662 = xor i1 %661, true
  %663 = zext i1 %662 to i8
  br label %664

664:                                              ; preds = %647, %660
  %665 = phi i8 [ 0, %647 ], [ %663, %660 ]
  store i8 %665, ptr %4, align 1, !tbaa !37
  br label %811

666:                                              ; preds = %32
  call void @llvm.lifetime.start.p0(i64 8, ptr nonnull %9) #16
  %667 = getelementptr inbounds i32, ptr %33, i64 2
  call void @_ZNK10xalanc_1_85XPath11executeMoreEPNS_9XalanNodeEN9__gnu_cxx17__normal_iteratorIPKiSt6vectorIiSaIiEEEERNS_21XPathExecutionContextERd(ptr noundef nonnull align 8 dereferenceable(105) %0, ptr noundef %1, ptr nonnull %667, ptr noundef nonnull align 8 dereferenceable(16) %3, ptr noundef nonnull align 8 dereferenceable(8) %9)
  %668 = load double, ptr %9, align 8, !tbaa !41
  call void @llvm.lifetime.end.p0(i64 8, ptr nonnull %9) #16
  %669 = tail call reassoc nnan ninf nsz arcp afn double @llvm.ceil.f64(double %668)
  %670 = load i32, ptr @_ZN10xalanc_1_813DoubleSupport5s_NaNE, align 8, !tbaa !73
  %671 = bitcast double %669 to i64
  %672 = trunc i64 %671 to i32
  %673 = icmp eq i32 %670, %672
  %674 = load i32, ptr getelementptr inbounds (%struct.anon, ptr @_ZN10xalanc_1_813DoubleSupport5s_NaNE, i64 0, i32 1), align 4
  %675 = lshr i64 %671, 32
  %676 = trunc i64 %675 to i32
  %677 = icmp eq i32 %674, %676
  %678 = select i1 %673, i1 %677, i1 false
  br i1 %678, label %683, label %679

679:                                              ; preds = %666
  %680 = tail call noundef zeroext i1 @_ZN10xalanc_1_813DoubleSupport5equalEdd(double noundef nofpclass(nan inf) %669, double noundef nofpclass(nan inf) 0.000000e+00)
  %681 = xor i1 %680, true
  %682 = zext i1 %681 to i8
  br label %683

683:                                              ; preds = %666, %679
  %684 = phi i8 [ 0, %666 ], [ %682, %679 ]
  store i8 %684, ptr %4, align 1, !tbaa !37
  br label %811

685:                                              ; preds = %32
  call void @llvm.lifetime.start.p0(i64 8, ptr nonnull %8) #16
  %686 = getelementptr inbounds i32, ptr %33, i64 2
  call void @_ZNK10xalanc_1_85XPath11executeMoreEPNS_9XalanNodeEN9__gnu_cxx17__normal_iteratorIPKiSt6vectorIiSaIiEEEERNS_21XPathExecutionContextERd(ptr noundef nonnull align 8 dereferenceable(105) %0, ptr noundef %1, ptr nonnull %686, ptr noundef nonnull align 8 dereferenceable(16) %3, ptr noundef nonnull align 8 dereferenceable(8) %8)
  %687 = load double, ptr %8, align 8, !tbaa !41
  call void @llvm.lifetime.end.p0(i64 8, ptr nonnull %8) #16
  %688 = tail call reassoc nnan ninf nsz arcp afn noundef nofpclass(nan inf) double @_ZN10xalanc_1_813DoubleSupport5roundEd(double noundef nofpclass(nan inf) %687)
  %689 = load i32, ptr @_ZN10xalanc_1_813DoubleSupport5s_NaNE, align 8, !tbaa !73
  %690 = bitcast double %688 to i64
  %691 = trunc i64 %690 to i32
  %692 = icmp eq i32 %689, %691
  %693 = load i32, ptr getelementptr inbounds (%struct.anon, ptr @_ZN10xalanc_1_813DoubleSupport5s_NaNE, i64 0, i32 1), align 4
  %694 = lshr i64 %690, 32
  %695 = trunc i64 %694 to i32
  %696 = icmp eq i32 %693, %695
  %697 = select i1 %692, i1 %696, i1 false
  br i1 %697, label %702, label %698

698:                                              ; preds = %685
  %699 = tail call noundef zeroext i1 @_ZN10xalanc_1_813DoubleSupport5equalEdd(double noundef nofpclass(nan inf) %688, double noundef nofpclass(nan inf) 0.000000e+00)
  %700 = xor i1 %699, true
  %701 = zext i1 %700 to i8
  br label %702

702:                                              ; preds = %685, %698
  %703 = phi i8 [ 0, %685 ], [ %701, %698 ]
  store i8 %703, ptr %4, align 1, !tbaa !37
  br label %811

704:                                              ; preds = %32
  %705 = tail call reassoc nnan ninf nsz arcp afn noundef nofpclass(nan inf) double @_ZN10xalanc_1_87XObject6numberERNS_21XPathExecutionContextERKNS_9XalanNodeE(ptr noundef nonnull align 8 dereferenceable(16) %3, ptr noundef nonnull align 8 dereferenceable(8) %1)
  %706 = load i32, ptr @_ZN10xalanc_1_813DoubleSupport5s_NaNE, align 8, !tbaa !73
  %707 = bitcast double %705 to i64
  %708 = trunc i64 %707 to i32
  %709 = icmp eq i32 %706, %708
  %710 = load i32, ptr getelementptr inbounds (%struct.anon, ptr @_ZN10xalanc_1_813DoubleSupport5s_NaNE, i64 0, i32 1), align 4
  %711 = lshr i64 %707, 32
  %712 = trunc i64 %711 to i32
  %713 = icmp eq i32 %710, %712
  %714 = select i1 %709, i1 %713, i1 false
  br i1 %714, label %719, label %715

715:                                              ; preds = %704
  %716 = tail call noundef zeroext i1 @_ZN10xalanc_1_813DoubleSupport5equalEdd(double noundef nofpclass(nan inf) %705, double noundef nofpclass(nan inf) 0.000000e+00)
  %717 = xor i1 %716, true
  %718 = zext i1 %717 to i8
  br label %719

719:                                              ; preds = %704, %715
  %720 = phi i8 [ 0, %704 ], [ %718, %715 ]
  store i8 %720, ptr %4, align 1, !tbaa !37
  br label %811

721:                                              ; preds = %32
  call void @llvm.lifetime.start.p0(i64 8, ptr nonnull %24) #16
  %722 = getelementptr inbounds i32, ptr %33, i64 2
  call void @_ZNK10xalanc_1_85XPath11executeMoreEPNS_9XalanNodeEN9__gnu_cxx17__normal_iteratorIPKiSt6vectorIiSaIiEEEERNS_21XPathExecutionContextERd(ptr noundef nonnull align 8 dereferenceable(105) %0, ptr noundef %1, ptr nonnull %722, ptr noundef nonnull align 8 dereferenceable(16) %3, ptr noundef nonnull align 8 dereferenceable(8) %24)
  %723 = load double, ptr %24, align 8, !tbaa !41
  call void @llvm.lifetime.end.p0(i64 8, ptr nonnull %24) #16
  %724 = load i32, ptr @_ZN10xalanc_1_813DoubleSupport5s_NaNE, align 8, !tbaa !73
  %725 = bitcast double %723 to i64
  %726 = trunc i64 %725 to i32
  %727 = icmp eq i32 %724, %726
  %728 = load i32, ptr getelementptr inbounds (%struct.anon, ptr @_ZN10xalanc_1_813DoubleSupport5s_NaNE, i64 0, i32 1), align 4
  %729 = lshr i64 %725, 32
  %730 = trunc i64 %729 to i32
  %731 = icmp eq i32 %728, %730
  %732 = select i1 %727, i1 %731, i1 false
  br i1 %732, label %737, label %733

733:                                              ; preds = %721
  %734 = tail call noundef zeroext i1 @_ZN10xalanc_1_813DoubleSupport5equalEdd(double noundef nofpclass(nan inf) %723, double noundef nofpclass(nan inf) 0.000000e+00)
  %735 = xor i1 %734, true
  %736 = zext i1 %735 to i8
  br label %737

737:                                              ; preds = %721, %733
  %738 = phi i8 [ 0, %721 ], [ %736, %733 ]
  store i8 %738, ptr %4, align 1, !tbaa !37
  br label %811

739:                                              ; preds = %32
  call void @llvm.lifetime.start.p0(i64 32, ptr nonnull %23) #16
  call void @_ZN10xalanc_1_828FormatterStringLengthCounterC1Ev(ptr noundef nonnull align 8 dereferenceable(32) %23)
  invoke void @_ZN10xalanc_1_811DOMServices11getNodeDataERKNS_9XalanNodeERNS_17FormatterListenerEMS4_FvPKtjE(ptr noundef nonnull align 8 dereferenceable(8) %1, ptr noundef nonnull align 8 dereferenceable(20) %23, i64 17, i64 0)
          to label %746 unwind label %740

740:                                              ; preds = %739
  %741 = landingpad { ptr, i32 }
          cleanup
  invoke void @_ZN10xalanc_1_828FormatterStringLengthCounterD1Ev(ptr noundef nonnull align 8 dereferenceable(32) %23)
          to label %742 unwind label %743

742:                                              ; preds = %740
  call void @llvm.lifetime.end.p0(i64 32, ptr nonnull %23) #16
  br label %382

743:                                              ; preds = %740
  %744 = landingpad { ptr, i32 }
          catch ptr null
  %745 = extractvalue { ptr, i32 } %744, 0
  call void @__clang_call_terminate(ptr %745) #17
  unreachable

746:                                              ; preds = %739
  %747 = getelementptr inbounds %"class.xalanc_1_8::FormatterStringLengthCounter", ptr %23, i64 0, i32 1
  %748 = load i64, ptr %747, align 8, !tbaa !67
  %749 = uitofp i64 %748 to double
  call void @_ZN10xalanc_1_828FormatterStringLengthCounterD1Ev(ptr noundef nonnull align 8 dereferenceable(32) %23)
  call void @llvm.lifetime.end.p0(i64 32, ptr nonnull %23) #16
  %750 = load i32, ptr @_ZN10xalanc_1_813DoubleSupport5s_NaNE, align 8, !tbaa !73
  %751 = bitcast double %749 to i64
  %752 = trunc i64 %751 to i32
  %753 = icmp eq i32 %750, %752
  %754 = load i32, ptr getelementptr inbounds (%struct.anon, ptr @_ZN10xalanc_1_813DoubleSupport5s_NaNE, i64 0, i32 1), align 4
  %755 = lshr i64 %751, 32
  %756 = trunc i64 %755 to i32
  %757 = icmp eq i32 %754, %756
  %758 = select i1 %753, i1 %757, i1 false
  br i1 %758, label %763, label %759

759:                                              ; preds = %746
  %760 = call noundef zeroext i1 @_ZN10xalanc_1_813DoubleSupport5equalEdd(double noundef nofpclass(nan inf) %749, double noundef nofpclass(nan inf) 0.000000e+00)
  %761 = xor i1 %760, true
  %762 = zext i1 %761 to i8
  br label %763

763:                                              ; preds = %746, %759
  %764 = phi i8 [ 0, %746 ], [ %762, %759 ]
  store i8 %764, ptr %4, align 1, !tbaa !37
  br label %811

765:                                              ; preds = %32
  call void @llvm.lifetime.start.p0(i64 16, ptr nonnull %7)
  call void @llvm.lifetime.start.p0(i64 32, ptr nonnull %6) #16
  call void @_ZN10xalanc_1_828FormatterStringLengthCounterC1Ev(ptr noundef nonnull align 8 dereferenceable(32) %6)
  %766 = getelementptr inbounds i32, ptr %33, i64 2
  store i64 17, ptr %7, align 8, !tbaa !73
  %767 = getelementptr inbounds { i64, i64 }, ptr %7, i64 0, i32 1
  store i64 0, ptr %767, align 8, !tbaa !73
  invoke void @_ZNK10xalanc_1_85XPath11executeMoreEPNS_9XalanNodeEN9__gnu_cxx17__normal_iteratorIPKiSt6vectorIiSaIiEEEERNS_21XPathExecutionContextERNS_17FormatterListenerEMSD_FvPKtjE(ptr noundef nonnull align 8 dereferenceable(105) %0, ptr noundef %1, ptr nonnull %766, ptr noundef nonnull align 8 dereferenceable(16) %3, ptr noundef nonnull align 8 dereferenceable(20) %6, ptr noundef nonnull byval({ i64, i64 }) align 8 %7)
          to label %774 unwind label %768

768:                                              ; preds = %765
  %769 = landingpad { ptr, i32 }
          cleanup
  invoke void @_ZN10xalanc_1_828FormatterStringLengthCounterD1Ev(ptr noundef nonnull align 8 dereferenceable(32) %6)
          to label %770 unwind label %771

770:                                              ; preds = %768
  call void @llvm.lifetime.end.p0(i64 32, ptr nonnull %6) #16
  br label %382

771:                                              ; preds = %768
  %772 = landingpad { ptr, i32 }
          catch ptr null
  %773 = extractvalue { ptr, i32 } %772, 0
  call void @__clang_call_terminate(ptr %773) #17
  unreachable

774:                                              ; preds = %765
  %775 = getelementptr inbounds %"class.xalanc_1_8::FormatterStringLengthCounter", ptr %6, i64 0, i32 1
  %776 = load i64, ptr %775, align 8, !tbaa !67
  %777 = uitofp i64 %776 to double
  call void @_ZN10xalanc_1_828FormatterStringLengthCounterD1Ev(ptr noundef nonnull align 8 dereferenceable(32) %6)
  call void @llvm.lifetime.end.p0(i64 32, ptr nonnull %6) #16
  call void @llvm.lifetime.end.p0(i64 16, ptr nonnull %7)
  %778 = load i32, ptr @_ZN10xalanc_1_813DoubleSupport5s_NaNE, align 8, !tbaa !73
  %779 = bitcast double %777 to i64
  %780 = trunc i64 %779 to i32
  %781 = icmp eq i32 %778, %780
  %782 = load i32, ptr getelementptr inbounds (%struct.anon, ptr @_ZN10xalanc_1_813DoubleSupport5s_NaNE, i64 0, i32 1), align 4
  %783 = lshr i64 %779, 32
  %784 = trunc i64 %783 to i32
  %785 = icmp eq i32 %782, %784
  %786 = select i1 %781, i1 %785, i1 false
  br i1 %786, label %791, label %787

787:                                              ; preds = %774
  %788 = tail call noundef zeroext i1 @_ZN10xalanc_1_813DoubleSupport5equalEdd(double noundef nofpclass(nan inf) %777, double noundef nofpclass(nan inf) 0.000000e+00)
  %789 = xor i1 %788, true
  %790 = zext i1 %789 to i8
  br label %791

791:                                              ; preds = %774, %787
  %792 = phi i8 [ 0, %774 ], [ %790, %787 ]
  store i8 %792, ptr %4, align 1, !tbaa !37
  br label %811

793:                                              ; preds = %32
  %794 = tail call reassoc nnan ninf nsz arcp afn noundef nofpclass(nan inf) double @_ZNK10xalanc_1_85XPath11functionSumEPNS_9XalanNodeEN9__gnu_cxx17__normal_iteratorIPKiSt6vectorIiSaIiEEEERNS_21XPathExecutionContextE(ptr noundef nonnull align 8 dereferenceable(105) %0, ptr noundef %1, ptr nonnull %33, ptr noundef nonnull align 8 dereferenceable(16) %3)
  %795 = load i32, ptr @_ZN10xalanc_1_813DoubleSupport5s_NaNE, align 8, !tbaa !73
  %796 = bitcast double %794 to i64
  %797 = trunc i64 %796 to i32
  %798 = icmp eq i32 %795, %797
  %799 = load i32, ptr getelementptr inbounds (%struct.anon, ptr @_ZN10xalanc_1_813DoubleSupport5s_NaNE, i64 0, i32 1), align 4
  %800 = lshr i64 %796, 32
  %801 = trunc i64 %800 to i32
  %802 = icmp eq i32 %799, %801
  %803 = select i1 %798, i1 %802, i1 false
  br i1 %803, label %808, label %804

804:                                              ; preds = %793
  %805 = tail call noundef zeroext i1 @_ZN10xalanc_1_813DoubleSupport5equalEdd(double noundef nofpclass(nan inf) %794, double noundef nofpclass(nan inf) 0.000000e+00)
  %806 = xor i1 %805, true
  %807 = zext i1 %806 to i8
  br label %808

808:                                              ; preds = %793, %804
  %809 = phi i8 [ 0, %793 ], [ %807, %804 ]
  store i8 %809, ptr %4, align 1, !tbaa !37
  br label %811

810:                                              ; preds = %32
  tail call void @_ZNK10xalanc_1_85XPath18unknownOpCodeErrorEPNS_9XalanNodeERNS_21XPathExecutionContextEN9__gnu_cxx17__normal_iteratorIPKiSt6vectorIiSaIiEEEE(ptr noundef nonnull align 8 dereferenceable(105) %0, ptr noundef %1, ptr noundef nonnull align 8 dereferenceable(16) %3, ptr nonnull %33)
  br label %811

811:                                              ; preds = %810, %808, %791, %763, %737, %719, %702, %683, %664, %641, %635, %593, %587, %584, %583, %582, %578, %576, %559, %538, %512, %480, %467, %449, %442, %394, %387, %359, %327, %277, %227, %177, %127, %76, %73, %70, %67, %64, %61, %59, %47
  ret void

812:                                              ; preds = %483, %470, %445
  %813 = landingpad { ptr, i32 }
          catch ptr null
  %814 = extractvalue { ptr, i32 } %813, 0
  call void @__clang_call_terminate(ptr %814) #17
  unreachable
}

; Function Attrs: uwtable
define dso_local void @_ZNK10xalanc_1_85XPath7executeEPNS_9XalanNodeERKNS_14PrefixResolverERNS_21XPathExecutionContextERd(ptr noundef nonnull align 8 dereferenceable(105) %0, ptr noundef %1, ptr noundef nonnull align 8 dereferenceable(8) %2, ptr noundef nonnull align 8 dereferenceable(16) %3, ptr nocapture noundef nonnull writeonly align 8 dereferenceable(8) %4) local_unnamed_addr #1 align 2 personality ptr @__gxx_personality_v0 {
  %6 = load ptr, ptr %3, align 8, !tbaa !31
  %7 = getelementptr inbounds ptr, ptr %6, i64 32
  %8 = load ptr, ptr %7, align 8
  %9 = tail call noundef ptr %8(ptr noundef nonnull align 8 dereferenceable(16) %3)
  %10 = load ptr, ptr %3, align 8, !tbaa !31
  %11 = getelementptr inbounds ptr, ptr %10, i64 33
  %12 = load ptr, ptr %11, align 8
  tail call void %12(ptr noundef nonnull align 8 dereferenceable(16) %3, ptr noundef nonnull %2)
  %13 = load ptr, ptr %3, align 8, !tbaa !31
  %14 = getelementptr inbounds ptr, ptr %13, i64 10
  %15 = load ptr, ptr %14, align 8
  invoke void %15(ptr noundef nonnull align 8 dereferenceable(16) %3, ptr noundef %1)
          to label %16 unwind label %26

16:                                               ; preds = %5
  %17 = load ptr, ptr %0, align 8, !tbaa !33
  invoke void @_ZNK10xalanc_1_85XPath11executeMoreEPNS_9XalanNodeEN9__gnu_cxx17__normal_iteratorIPKiSt6vectorIiSaIiEEEERNS_21XPathExecutionContextERd(ptr noundef nonnull align 8 dereferenceable(105) %0, ptr noundef %1, ptr %17, ptr noundef nonnull align 8 dereferenceable(16) %3, ptr noundef nonnull align 8 dereferenceable(8) %4)
          to label %18 unwind label %28

18:                                               ; preds = %16
  %19 = load ptr, ptr %3, align 8, !tbaa !31
  %20 = getelementptr inbounds ptr, ptr %19, i64 11
  %21 = load ptr, ptr %20, align 8
  invoke void %21(ptr noundef nonnull align 8 dereferenceable(16) %3)
          to label %22 unwind label %26

22:                                               ; preds = %18
  %23 = load ptr, ptr %3, align 8, !tbaa !31
  %24 = getelementptr inbounds ptr, ptr %23, i64 33
  %25 = load ptr, ptr %24, align 8
  tail call void %25(ptr noundef nonnull align 8 dereferenceable(16) %3, ptr noundef %9)
  ret void

26:                                               ; preds = %18, %5
  %27 = landingpad { ptr, i32 }
          cleanup
  br label %33

28:                                               ; preds = %16
  %29 = landingpad { ptr, i32 }
          cleanup
  %30 = load ptr, ptr %3, align 8, !tbaa !31
  %31 = getelementptr inbounds ptr, ptr %30, i64 11
  %32 = load ptr, ptr %31, align 8
  invoke void %32(ptr noundef nonnull align 8 dereferenceable(16) %3)
          to label %33 unwind label %39

33:                                               ; preds = %28, %26
  %34 = phi { ptr, i32 } [ %27, %26 ], [ %29, %28 ]
  %35 = load ptr, ptr %3, align 8, !tbaa !31
  %36 = getelementptr inbounds ptr, ptr %35, i64 33
  %37 = load ptr, ptr %36, align 8
  invoke void %37(ptr noundef nonnull align 8 dereferenceable(16) %3, ptr noundef %9)
          to label %38 unwind label %39

38:                                               ; preds = %33
  resume { ptr, i32 } %34

39:                                               ; preds = %33, %28
  %40 = landingpad { ptr, i32 }
          catch ptr null
  %41 = extractvalue { ptr, i32 } %40, 0
  tail call void @__clang_call_terminate(ptr %41) #17
  unreachable
}

; Function Attrs: uwtable
define dso_local void @_ZNK10xalanc_1_85XPath11executeMoreEPNS_9XalanNodeEN9__gnu_cxx17__normal_iteratorIPKiSt6vectorIiSaIiEEEERNS_21XPathExecutionContextERd(ptr noundef nonnull align 8 dereferenceable(105) %0, ptr noundef %1, ptr %2, ptr noundef nonnull align 8 dereferenceable(16) %3, ptr nocapture noundef nonnull writeonly align 8 dereferenceable(8) %4) local_unnamed_addr #1 align 2 personality ptr @__gxx_personality_v0 {
  %6 = alloca %"class.xalanc_1_8::FormatterStringLengthCounter", align 8
  %7 = alloca { i64, i64 }, align 8
  %8 = alloca double, align 8
  %9 = alloca double, align 8
  %10 = alloca double, align 8
  %11 = alloca double, align 8
  %12 = alloca double, align 8
  %13 = alloca i8, align 1
  %14 = alloca double, align 8
  %15 = alloca double, align 8
  %16 = alloca double, align 8
  %17 = alloca double, align 8
  %18 = alloca double, align 8
  %19 = alloca double, align 8
  %20 = alloca double, align 8
  %21 = alloca double, align 8
  %22 = alloca double, align 8
  %23 = alloca %"class.xalanc_1_8::FormatterStringLengthCounter", align 8
  %24 = alloca double, align 8
  %25 = alloca i8, align 1
  %26 = alloca %"class.xalanc_1_8::XalanQNameByReference", align 8
  %27 = alloca i8, align 1
  %28 = alloca i8, align 1
  %29 = alloca %"class.xalanc_1_8::XObjectPtr", align 8
  %30 = alloca %"class.xalanc_1_8::XObjectPtr", align 8
  %31 = alloca %"class.xalanc_1_8::XObjectPtr", align 8
  br label %32

32:                                               ; preds = %35, %5
  %33 = phi ptr [ %2, %5 ], [ %36, %35 ]
  %34 = load i32, ptr %33, align 4, !tbaa !30
  switch i32 %34, label %529 [
    i32 1, label %35
    i32 2, label %37
    i32 3, label %51
    i32 4, label %65
    i32 5, label %68
    i32 6, label %71
    i32 7, label %74
    i32 8, label %77
    i32 9, label %80
    i32 10, label %83
    i32 11, label %118
    i32 12, label %153
    i32 13, label %188
    i32 14, label %223
    i32 15, label %258
    i32 17, label %275
    i32 18, label %300
    i32 19, label %311
    i32 20, label %35
    i32 21, label %353
    i32 23, label %364
    i32 24, label %376
    i32 25, label %388
    i32 56, label %412
    i32 57, label %418
    i32 58, label %424
    i32 59, label %426
    i32 60, label %431
    i32 61, label %432
    i32 62, label %433
    i32 63, label %438
    i32 64, label %441
    i32 65, label %444
    i32 66, label %483
    i32 67, label %486
    i32 68, label %490
    i32 69, label %494
    i32 70, label %498
    i32 71, label %500
    i32 74, label %503
    i32 75, label %514
    i32 78, label %527
  ]

35:                                               ; preds = %32, %32
  %36 = getelementptr inbounds i32, ptr %33, i64 2
  br label %32

37:                                               ; preds = %32
  %38 = getelementptr inbounds i32, ptr %33, i64 2
  call void @llvm.lifetime.start.p0(i64 1, ptr nonnull %28) #16
  call void @_ZNK10xalanc_1_85XPath11executeMoreEPNS_9XalanNodeEN9__gnu_cxx17__normal_iteratorIPKiSt6vectorIiSaIiEEEERNS_21XPathExecutionContextERb(ptr noundef nonnull align 8 dereferenceable(105) %0, ptr noundef %1, ptr nonnull %38, ptr noundef nonnull align 8 dereferenceable(16) %3, ptr noundef nonnull align 1 dereferenceable(1) %28)
  %39 = load i8, ptr %28, align 1, !tbaa !37, !range !38, !noundef !39
  %40 = icmp eq i8 %39, 0
  br i1 %40, label %41, label %49

41:                                               ; preds = %37
  %42 = getelementptr inbounds i32, ptr %33, i64 3
  %43 = load i32, ptr %42, align 4, !tbaa !30
  %44 = sext i32 %43 to i64
  %45 = getelementptr inbounds i32, ptr %38, i64 %44
  call void @_ZNK10xalanc_1_85XPath11executeMoreEPNS_9XalanNodeEN9__gnu_cxx17__normal_iteratorIPKiSt6vectorIiSaIiEEEERNS_21XPathExecutionContextERb(ptr noundef nonnull align 8 dereferenceable(105) %0, ptr noundef %1, ptr nonnull %45, ptr noundef nonnull align 8 dereferenceable(16) %3, ptr noundef nonnull align 1 dereferenceable(1) %28)
  %46 = load i8, ptr %28, align 1, !tbaa !37, !range !38
  %47 = icmp eq i8 %46, 0
  %48 = select reassoc nnan ninf nsz arcp afn i1 %47, double 0.000000e+00, double 1.000000e+00
  br label %49

49:                                               ; preds = %37, %41
  %50 = phi double [ 1.000000e+00, %37 ], [ %48, %41 ]
  call void @llvm.lifetime.end.p0(i64 1, ptr nonnull %28) #16
  store double %50, ptr %4, align 8, !tbaa !41
  br label %530

51:                                               ; preds = %32
  %52 = getelementptr inbounds i32, ptr %33, i64 2
  call void @llvm.lifetime.start.p0(i64 1, ptr nonnull %27) #16
  call void @_ZNK10xalanc_1_85XPath11executeMoreEPNS_9XalanNodeEN9__gnu_cxx17__normal_iteratorIPKiSt6vectorIiSaIiEEEERNS_21XPathExecutionContextERb(ptr noundef nonnull align 8 dereferenceable(105) %0, ptr noundef %1, ptr nonnull %52, ptr noundef nonnull align 8 dereferenceable(16) %3, ptr noundef nonnull align 1 dereferenceable(1) %27)
  %53 = load i8, ptr %27, align 1, !tbaa !37, !range !38, !noundef !39
  %54 = icmp eq i8 %53, 0
  br i1 %54, label %63, label %55

55:                                               ; preds = %51
  %56 = getelementptr inbounds i32, ptr %33, i64 3
  %57 = load i32, ptr %56, align 4, !tbaa !30
  %58 = sext i32 %57 to i64
  %59 = getelementptr inbounds i32, ptr %52, i64 %58
  call void @_ZNK10xalanc_1_85XPath11executeMoreEPNS_9XalanNodeEN9__gnu_cxx17__normal_iteratorIPKiSt6vectorIiSaIiEEEERNS_21XPathExecutionContextERb(ptr noundef nonnull align 8 dereferenceable(105) %0, ptr noundef %1, ptr nonnull %59, ptr noundef nonnull align 8 dereferenceable(16) %3, ptr noundef nonnull align 1 dereferenceable(1) %27)
  %60 = load i8, ptr %27, align 1, !tbaa !37, !range !38
  %61 = icmp eq i8 %60, 0
  %62 = select reassoc nnan ninf nsz arcp afn i1 %61, double 0.000000e+00, double 1.000000e+00
  br label %63

63:                                               ; preds = %51, %55
  %64 = phi double [ 0.000000e+00, %51 ], [ %62, %55 ]
  call void @llvm.lifetime.end.p0(i64 1, ptr nonnull %27) #16
  store double %64, ptr %4, align 8, !tbaa !41
  br label %530

65:                                               ; preds = %32
  %66 = tail call noundef zeroext i1 @_ZNK10xalanc_1_85XPath9notequalsEPNS_9XalanNodeEN9__gnu_cxx17__normal_iteratorIPKiSt6vectorIiSaIiEEEERNS_21XPathExecutionContextE(ptr noundef nonnull align 8 dereferenceable(105) %0, ptr noundef %1, ptr nonnull %33, ptr noundef nonnull align 8 dereferenceable(16) %3)
  %67 = select reassoc nnan ninf nsz arcp afn i1 %66, double 1.000000e+00, double 0.000000e+00
  store double %67, ptr %4, align 8, !tbaa !41
  br label %530

68:                                               ; preds = %32
  %69 = tail call noundef zeroext i1 @_ZNK10xalanc_1_85XPath6equalsEPNS_9XalanNodeEN9__gnu_cxx17__normal_iteratorIPKiSt6vectorIiSaIiEEEERNS_21XPathExecutionContextE(ptr noundef nonnull align 8 dereferenceable(105) %0, ptr noundef %1, ptr nonnull %33, ptr noundef nonnull align 8 dereferenceable(16) %3)
  %70 = select reassoc nnan ninf nsz arcp afn i1 %69, double 1.000000e+00, double 0.000000e+00
  store double %70, ptr %4, align 8, !tbaa !41
  br label %530

71:                                               ; preds = %32
  %72 = tail call noundef zeroext i1 @_ZNK10xalanc_1_85XPath3lteEPNS_9XalanNodeEN9__gnu_cxx17__normal_iteratorIPKiSt6vectorIiSaIiEEEERNS_21XPathExecutionContextE(ptr noundef nonnull align 8 dereferenceable(105) %0, ptr noundef %1, ptr nonnull %33, ptr noundef nonnull align 8 dereferenceable(16) %3)
  %73 = select reassoc nnan ninf nsz arcp afn i1 %72, double 1.000000e+00, double 0.000000e+00
  store double %73, ptr %4, align 8, !tbaa !41
  br label %530

74:                                               ; preds = %32
  %75 = tail call noundef zeroext i1 @_ZNK10xalanc_1_85XPath2ltEPNS_9XalanNodeEN9__gnu_cxx17__normal_iteratorIPKiSt6vectorIiSaIiEEEERNS_21XPathExecutionContextE(ptr noundef nonnull align 8 dereferenceable(105) %0, ptr noundef %1, ptr nonnull %33, ptr noundef nonnull align 8 dereferenceable(16) %3)
  %76 = select reassoc nnan ninf nsz arcp afn i1 %75, double 1.000000e+00, double 0.000000e+00
  store double %76, ptr %4, align 8, !tbaa !41
  br label %530

77:                                               ; preds = %32
  %78 = tail call noundef zeroext i1 @_ZNK10xalanc_1_85XPath3gteEPNS_9XalanNodeEN9__gnu_cxx17__normal_iteratorIPKiSt6vectorIiSaIiEEEERNS_21XPathExecutionContextE(ptr noundef nonnull align 8 dereferenceable(105) %0, ptr noundef %1, ptr nonnull %33, ptr noundef nonnull align 8 dereferenceable(16) %3)
  %79 = select reassoc nnan ninf nsz arcp afn i1 %78, double 1.000000e+00, double 0.000000e+00
  store double %79, ptr %4, align 8, !tbaa !41
  br label %530

80:                                               ; preds = %32
  %81 = tail call noundef zeroext i1 @_ZNK10xalanc_1_85XPath2gtEPNS_9XalanNodeEN9__gnu_cxx17__normal_iteratorIPKiSt6vectorIiSaIiEEEERNS_21XPathExecutionContextE(ptr noundef nonnull align 8 dereferenceable(105) %0, ptr noundef %1, ptr nonnull %33, ptr noundef nonnull align 8 dereferenceable(16) %3)
  %82 = select reassoc nnan ninf nsz arcp afn i1 %81, double 1.000000e+00, double 0.000000e+00
  store double %82, ptr %4, align 8, !tbaa !41
  br label %530

83:                                               ; preds = %32
  %84 = getelementptr inbounds i32, ptr %33, i64 2
  %85 = load i32, ptr %84, align 4, !tbaa !30
  %86 = icmp eq i32 %85, 21
  br i1 %86, label %87, label %95

87:                                               ; preds = %83
  %88 = getelementptr inbounds i32, ptr %33, i64 4
  %89 = load i32, ptr %88, align 4, !tbaa !30
  %90 = getelementptr inbounds %"class.xalanc_1_8::XPathExpression", ptr %0, i64 0, i32 5
  %91 = sext i32 %89 to i64
  %92 = load ptr, ptr %90, align 8, !tbaa !40
  %93 = getelementptr inbounds double, ptr %92, i64 %91
  %94 = load double, ptr %93, align 8, !tbaa !41
  br label %97

95:                                               ; preds = %83
  call void @llvm.lifetime.start.p0(i64 8, ptr nonnull %9) #16
  call void @_ZNK10xalanc_1_85XPath11executeMoreEPNS_9XalanNodeEN9__gnu_cxx17__normal_iteratorIPKiSt6vectorIiSaIiEEEERNS_21XPathExecutionContextERd(ptr noundef nonnull align 8 dereferenceable(105) %0, ptr noundef %1, ptr nonnull %84, ptr noundef nonnull align 8 dereferenceable(16) %3, ptr noundef nonnull align 8 dereferenceable(8) %9)
  %96 = load double, ptr %9, align 8, !tbaa !41
  call void @llvm.lifetime.end.p0(i64 8, ptr nonnull %9) #16
  br label %97

97:                                               ; preds = %95, %87
  %98 = phi double [ %94, %87 ], [ %96, %95 ]
  %99 = getelementptr inbounds i32, ptr %33, i64 3
  %100 = load i32, ptr %99, align 4, !tbaa !30
  %101 = sext i32 %100 to i64
  %102 = getelementptr inbounds i32, ptr %84, i64 %101
  %103 = load i32, ptr %102, align 4, !tbaa !30
  %104 = icmp eq i32 %103, 21
  br i1 %104, label %105, label %113

105:                                              ; preds = %97
  %106 = getelementptr inbounds i32, ptr %102, i64 2
  %107 = load i32, ptr %106, align 4, !tbaa !30
  %108 = getelementptr inbounds %"class.xalanc_1_8::XPathExpression", ptr %0, i64 0, i32 5
  %109 = sext i32 %107 to i64
  %110 = load ptr, ptr %108, align 8, !tbaa !40
  %111 = getelementptr inbounds double, ptr %110, i64 %109
  %112 = load double, ptr %111, align 8, !tbaa !41
  br label %115

113:                                              ; preds = %97
  call void @llvm.lifetime.start.p0(i64 8, ptr nonnull %8) #16
  call void @_ZNK10xalanc_1_85XPath11executeMoreEPNS_9XalanNodeEN9__gnu_cxx17__normal_iteratorIPKiSt6vectorIiSaIiEEEERNS_21XPathExecutionContextERd(ptr noundef nonnull align 8 dereferenceable(105) %0, ptr noundef %1, ptr nonnull %102, ptr noundef nonnull align 8 dereferenceable(16) %3, ptr noundef nonnull align 8 dereferenceable(8) %8)
  %114 = load double, ptr %8, align 8, !tbaa !41
  call void @llvm.lifetime.end.p0(i64 8, ptr nonnull %8) #16
  br label %115

115:                                              ; preds = %105, %113
  %116 = phi double [ %112, %105 ], [ %114, %113 ]
  %117 = tail call reassoc nnan ninf nsz arcp afn noundef nofpclass(nan inf) double @_ZN10xalanc_1_813DoubleSupport3addEdd(double noundef nofpclass(nan inf) %98, double noundef nofpclass(nan inf) %116)
  store double %117, ptr %4, align 8, !tbaa !41
  br label %530

118:                                              ; preds = %32
  %119 = getelementptr inbounds i32, ptr %33, i64 2
  %120 = load i32, ptr %119, align 4, !tbaa !30
  %121 = icmp eq i32 %120, 21
  br i1 %121, label %122, label %130

122:                                              ; preds = %118
  %123 = getelementptr inbounds i32, ptr %33, i64 4
  %124 = load i32, ptr %123, align 4, !tbaa !30
  %125 = getelementptr inbounds %"class.xalanc_1_8::XPathExpression", ptr %0, i64 0, i32 5
  %126 = sext i32 %124 to i64
  %127 = load ptr, ptr %125, align 8, !tbaa !40
  %128 = getelementptr inbounds double, ptr %127, i64 %126
  %129 = load double, ptr %128, align 8, !tbaa !41
  br label %132

130:                                              ; preds = %118
  call void @llvm.lifetime.start.p0(i64 8, ptr nonnull %21) #16
  call void @_ZNK10xalanc_1_85XPath11executeMoreEPNS_9XalanNodeEN9__gnu_cxx17__normal_iteratorIPKiSt6vectorIiSaIiEEEERNS_21XPathExecutionContextERd(ptr noundef nonnull align 8 dereferenceable(105) %0, ptr noundef %1, ptr nonnull %119, ptr noundef nonnull align 8 dereferenceable(16) %3, ptr noundef nonnull align 8 dereferenceable(8) %21)
  %131 = load double, ptr %21, align 8, !tbaa !41
  call void @llvm.lifetime.end.p0(i64 8, ptr nonnull %21) #16
  br label %132

132:                                              ; preds = %122, %130
  %133 = phi double [ %129, %122 ], [ %131, %130 ]
  %134 = getelementptr inbounds i32, ptr %33, i64 3
  %135 = load i32, ptr %134, align 4, !tbaa !30
  %136 = sext i32 %135 to i64
  %137 = getelementptr inbounds i32, ptr %119, i64 %136
  %138 = load i32, ptr %137, align 4, !tbaa !30
  %139 = icmp eq i32 %138, 21
  br i1 %139, label %140, label %148

140:                                              ; preds = %132
  %141 = getelementptr inbounds i32, ptr %137, i64 2
  %142 = load i32, ptr %141, align 4, !tbaa !30
  %143 = getelementptr inbounds %"class.xalanc_1_8::XPathExpression", ptr %0, i64 0, i32 5
  %144 = sext i32 %142 to i64
  %145 = load ptr, ptr %143, align 8, !tbaa !40
  %146 = getelementptr inbounds double, ptr %145, i64 %144
  %147 = load double, ptr %146, align 8, !tbaa !41
  br label %150

148:                                              ; preds = %132
  call void @llvm.lifetime.start.p0(i64 8, ptr nonnull %22) #16
  call void @_ZNK10xalanc_1_85XPath11executeMoreEPNS_9XalanNodeEN9__gnu_cxx17__normal_iteratorIPKiSt6vectorIiSaIiEEEERNS_21XPathExecutionContextERd(ptr noundef nonnull align 8 dereferenceable(105) %0, ptr noundef %1, ptr nonnull %137, ptr noundef nonnull align 8 dereferenceable(16) %3, ptr noundef nonnull align 8 dereferenceable(8) %22)
  %149 = load double, ptr %22, align 8, !tbaa !41
  call void @llvm.lifetime.end.p0(i64 8, ptr nonnull %22) #16
  br label %150

150:                                              ; preds = %140, %148
  %151 = phi double [ %147, %140 ], [ %149, %148 ]
  %152 = tail call reassoc nnan ninf nsz arcp afn noundef nofpclass(nan inf) double @_ZN10xalanc_1_813DoubleSupport8subtractEdd(double noundef nofpclass(nan inf) %133, double noundef nofpclass(nan inf) %151)
  store double %152, ptr %4, align 8, !tbaa !41
  br label %530

153:                                              ; preds = %32
  %154 = getelementptr inbounds i32, ptr %33, i64 2
  %155 = load i32, ptr %154, align 4, !tbaa !30
  %156 = icmp eq i32 %155, 21
  br i1 %156, label %157, label %165

157:                                              ; preds = %153
  %158 = getelementptr inbounds i32, ptr %33, i64 4
  %159 = load i32, ptr %158, align 4, !tbaa !30
  %160 = getelementptr inbounds %"class.xalanc_1_8::XPathExpression", ptr %0, i64 0, i32 5
  %161 = sext i32 %159 to i64
  %162 = load ptr, ptr %160, align 8, !tbaa !40
  %163 = getelementptr inbounds double, ptr %162, i64 %161
  %164 = load double, ptr %163, align 8, !tbaa !41
  br label %167

165:                                              ; preds = %153
  call void @llvm.lifetime.start.p0(i64 8, ptr nonnull %19) #16
  call void @_ZNK10xalanc_1_85XPath11executeMoreEPNS_9XalanNodeEN9__gnu_cxx17__normal_iteratorIPKiSt6vectorIiSaIiEEEERNS_21XPathExecutionContextERd(ptr noundef nonnull align 8 dereferenceable(105) %0, ptr noundef %1, ptr nonnull %154, ptr noundef nonnull align 8 dereferenceable(16) %3, ptr noundef nonnull align 8 dereferenceable(8) %19)
  %166 = load double, ptr %19, align 8, !tbaa !41
  call void @llvm.lifetime.end.p0(i64 8, ptr nonnull %19) #16
  br label %167

167:                                              ; preds = %157, %165
  %168 = phi double [ %164, %157 ], [ %166, %165 ]
  %169 = getelementptr inbounds i32, ptr %33, i64 3
  %170 = load i32, ptr %169, align 4, !tbaa !30
  %171 = sext i32 %170 to i64
  %172 = getelementptr inbounds i32, ptr %154, i64 %171
  %173 = load i32, ptr %172, align 4, !tbaa !30
  %174 = icmp eq i32 %173, 21
  br i1 %174, label %175, label %183

175:                                              ; preds = %167
  %176 = getelementptr inbounds i32, ptr %172, i64 2
  %177 = load i32, ptr %176, align 4, !tbaa !30
  %178 = getelementptr inbounds %"class.xalanc_1_8::XPathExpression", ptr %0, i64 0, i32 5
  %179 = sext i32 %177 to i64
  %180 = load ptr, ptr %178, align 8, !tbaa !40
  %181 = getelementptr inbounds double, ptr %180, i64 %179
  %182 = load double, ptr %181, align 8, !tbaa !41
  br label %185

183:                                              ; preds = %167
  call void @llvm.lifetime.start.p0(i64 8, ptr nonnull %20) #16
  call void @_ZNK10xalanc_1_85XPath11executeMoreEPNS_9XalanNodeEN9__gnu_cxx17__normal_iteratorIPKiSt6vectorIiSaIiEEEERNS_21XPathExecutionContextERd(ptr noundef nonnull align 8 dereferenceable(105) %0, ptr noundef %1, ptr nonnull %172, ptr noundef nonnull align 8 dereferenceable(16) %3, ptr noundef nonnull align 8 dereferenceable(8) %20)
  %184 = load double, ptr %20, align 8, !tbaa !41
  call void @llvm.lifetime.end.p0(i64 8, ptr nonnull %20) #16
  br label %185

185:                                              ; preds = %175, %183
  %186 = phi double [ %182, %175 ], [ %184, %183 ]
  %187 = tail call reassoc nnan ninf nsz arcp afn noundef nofpclass(nan inf) double @_ZN10xalanc_1_813DoubleSupport8multiplyEdd(double noundef nofpclass(nan inf) %168, double noundef nofpclass(nan inf) %186)
  store double %187, ptr %4, align 8, !tbaa !41
  br label %530

188:                                              ; preds = %32
  %189 = getelementptr inbounds i32, ptr %33, i64 2
  %190 = load i32, ptr %189, align 4, !tbaa !30
  %191 = icmp eq i32 %190, 21
  br i1 %191, label %192, label %200

192:                                              ; preds = %188
  %193 = getelementptr inbounds i32, ptr %33, i64 4
  %194 = load i32, ptr %193, align 4, !tbaa !30
  %195 = getelementptr inbounds %"class.xalanc_1_8::XPathExpression", ptr %0, i64 0, i32 5
  %196 = sext i32 %194 to i64
  %197 = load ptr, ptr %195, align 8, !tbaa !40
  %198 = getelementptr inbounds double, ptr %197, i64 %196
  %199 = load double, ptr %198, align 8, !tbaa !41
  br label %202

200:                                              ; preds = %188
  call void @llvm.lifetime.start.p0(i64 8, ptr nonnull %17) #16
  call void @_ZNK10xalanc_1_85XPath11executeMoreEPNS_9XalanNodeEN9__gnu_cxx17__normal_iteratorIPKiSt6vectorIiSaIiEEEERNS_21XPathExecutionContextERd(ptr noundef nonnull align 8 dereferenceable(105) %0, ptr noundef %1, ptr nonnull %189, ptr noundef nonnull align 8 dereferenceable(16) %3, ptr noundef nonnull align 8 dereferenceable(8) %17)
  %201 = load double, ptr %17, align 8, !tbaa !41
  call void @llvm.lifetime.end.p0(i64 8, ptr nonnull %17) #16
  br label %202

202:                                              ; preds = %192, %200
  %203 = phi double [ %199, %192 ], [ %201, %200 ]
  %204 = getelementptr inbounds i32, ptr %33, i64 3
  %205 = load i32, ptr %204, align 4, !tbaa !30
  %206 = sext i32 %205 to i64
  %207 = getelementptr inbounds i32, ptr %189, i64 %206
  %208 = load i32, ptr %207, align 4, !tbaa !30
  %209 = icmp eq i32 %208, 21
  br i1 %209, label %210, label %218

210:                                              ; preds = %202
  %211 = getelementptr inbounds i32, ptr %207, i64 2
  %212 = load i32, ptr %211, align 4, !tbaa !30
  %213 = getelementptr inbounds %"class.xalanc_1_8::XPathExpression", ptr %0, i64 0, i32 5
  %214 = sext i32 %212 to i64
  %215 = load ptr, ptr %213, align 8, !tbaa !40
  %216 = getelementptr inbounds double, ptr %215, i64 %214
  %217 = load double, ptr %216, align 8, !tbaa !41
  br label %220

218:                                              ; preds = %202
  call void @llvm.lifetime.start.p0(i64 8, ptr nonnull %18) #16
  call void @_ZNK10xalanc_1_85XPath11executeMoreEPNS_9XalanNodeEN9__gnu_cxx17__normal_iteratorIPKiSt6vectorIiSaIiEEEERNS_21XPathExecutionContextERd(ptr noundef nonnull align 8 dereferenceable(105) %0, ptr noundef %1, ptr nonnull %207, ptr noundef nonnull align 8 dereferenceable(16) %3, ptr noundef nonnull align 8 dereferenceable(8) %18)
  %219 = load double, ptr %18, align 8, !tbaa !41
  call void @llvm.lifetime.end.p0(i64 8, ptr nonnull %18) #16
  br label %220

220:                                              ; preds = %210, %218
  %221 = phi double [ %217, %210 ], [ %219, %218 ]
  %222 = tail call reassoc nnan ninf nsz arcp afn noundef nofpclass(nan inf) double @_ZN10xalanc_1_813DoubleSupport6divideEdd(double noundef nofpclass(nan inf) %203, double noundef nofpclass(nan inf) %221)
  store double %222, ptr %4, align 8, !tbaa !41
  br label %530

223:                                              ; preds = %32
  %224 = getelementptr inbounds i32, ptr %33, i64 2
  %225 = load i32, ptr %224, align 4, !tbaa !30
  %226 = icmp eq i32 %225, 21
  br i1 %226, label %227, label %235

227:                                              ; preds = %223
  %228 = getelementptr inbounds i32, ptr %33, i64 4
  %229 = load i32, ptr %228, align 4, !tbaa !30
  %230 = getelementptr inbounds %"class.xalanc_1_8::XPathExpression", ptr %0, i64 0, i32 5
  %231 = sext i32 %229 to i64
  %232 = load ptr, ptr %230, align 8, !tbaa !40
  %233 = getelementptr inbounds double, ptr %232, i64 %231
  %234 = load double, ptr %233, align 8, !tbaa !41
  br label %237

235:                                              ; preds = %223
  call void @llvm.lifetime.start.p0(i64 8, ptr nonnull %15) #16
  call void @_ZNK10xalanc_1_85XPath11executeMoreEPNS_9XalanNodeEN9__gnu_cxx17__normal_iteratorIPKiSt6vectorIiSaIiEEEERNS_21XPathExecutionContextERd(ptr noundef nonnull align 8 dereferenceable(105) %0, ptr noundef %1, ptr nonnull %224, ptr noundef nonnull align 8 dereferenceable(16) %3, ptr noundef nonnull align 8 dereferenceable(8) %15)
  %236 = load double, ptr %15, align 8, !tbaa !41
  call void @llvm.lifetime.end.p0(i64 8, ptr nonnull %15) #16
  br label %237

237:                                              ; preds = %227, %235
  %238 = phi double [ %234, %227 ], [ %236, %235 ]
  %239 = getelementptr inbounds i32, ptr %33, i64 3
  %240 = load i32, ptr %239, align 4, !tbaa !30
  %241 = sext i32 %240 to i64
  %242 = getelementptr inbounds i32, ptr %224, i64 %241
  %243 = load i32, ptr %242, align 4, !tbaa !30
  %244 = icmp eq i32 %243, 21
  br i1 %244, label %245, label %253

245:                                              ; preds = %237
  %246 = getelementptr inbounds i32, ptr %242, i64 2
  %247 = load i32, ptr %246, align 4, !tbaa !30
  %248 = getelementptr inbounds %"class.xalanc_1_8::XPathExpression", ptr %0, i64 0, i32 5
  %249 = sext i32 %247 to i64
  %250 = load ptr, ptr %248, align 8, !tbaa !40
  %251 = getelementptr inbounds double, ptr %250, i64 %249
  %252 = load double, ptr %251, align 8, !tbaa !41
  br label %255

253:                                              ; preds = %237
  call void @llvm.lifetime.start.p0(i64 8, ptr nonnull %16) #16
  call void @_ZNK10xalanc_1_85XPath11executeMoreEPNS_9XalanNodeEN9__gnu_cxx17__normal_iteratorIPKiSt6vectorIiSaIiEEEERNS_21XPathExecutionContextERd(ptr noundef nonnull align 8 dereferenceable(105) %0, ptr noundef %1, ptr nonnull %242, ptr noundef nonnull align 8 dereferenceable(16) %3, ptr noundef nonnull align 8 dereferenceable(8) %16)
  %254 = load double, ptr %16, align 8, !tbaa !41
  call void @llvm.lifetime.end.p0(i64 8, ptr nonnull %16) #16
  br label %255

255:                                              ; preds = %245, %253
  %256 = phi double [ %252, %245 ], [ %254, %253 ]
  %257 = tail call reassoc nnan ninf nsz arcp afn noundef nofpclass(nan inf) double @_ZN10xalanc_1_813DoubleSupport7modulusEdd(double noundef nofpclass(nan inf) %238, double noundef nofpclass(nan inf) %256)
  store double %257, ptr %4, align 8, !tbaa !41
  br label %530

258:                                              ; preds = %32
  %259 = getelementptr inbounds i32, ptr %33, i64 2
  %260 = load i32, ptr %259, align 4, !tbaa !30
  %261 = icmp eq i32 %260, 21
  br i1 %261, label %262, label %270

262:                                              ; preds = %258
  %263 = getelementptr inbounds i32, ptr %33, i64 4
  %264 = load i32, ptr %263, align 4, !tbaa !30
  %265 = getelementptr inbounds %"class.xalanc_1_8::XPathExpression", ptr %0, i64 0, i32 5
  %266 = sext i32 %264 to i64
  %267 = load ptr, ptr %265, align 8, !tbaa !40
  %268 = getelementptr inbounds double, ptr %267, i64 %266
  %269 = load double, ptr %268, align 8, !tbaa !41
  br label %272

270:                                              ; preds = %258
  call void @llvm.lifetime.start.p0(i64 8, ptr nonnull %14) #16
  call void @_ZNK10xalanc_1_85XPath11executeMoreEPNS_9XalanNodeEN9__gnu_cxx17__normal_iteratorIPKiSt6vectorIiSaIiEEEERNS_21XPathExecutionContextERd(ptr noundef nonnull align 8 dereferenceable(105) %0, ptr noundef %1, ptr nonnull %259, ptr noundef nonnull align 8 dereferenceable(16) %3, ptr noundef nonnull align 8 dereferenceable(8) %14)
  %271 = load double, ptr %14, align 8, !tbaa !41
  call void @llvm.lifetime.end.p0(i64 8, ptr nonnull %14) #16
  br label %272

272:                                              ; preds = %262, %270
  %273 = phi double [ %269, %262 ], [ %271, %270 ]
  %274 = tail call reassoc nnan ninf nsz arcp afn noundef nofpclass(nan inf) double @_ZN10xalanc_1_813DoubleSupport8negativeEd(double noundef nofpclass(nan inf) %273)
  store double %274, ptr %4, align 8, !tbaa !41
  br label %530

275:                                              ; preds = %32
  %276 = load ptr, ptr %3, align 8, !tbaa !31
  %277 = getelementptr inbounds ptr, ptr %276, i64 24
  %278 = load ptr, ptr %277, align 8
  %279 = tail call noundef ptr %278(ptr noundef nonnull align 8 dereferenceable(16) %3)
  invoke void @_ZNK10xalanc_1_85XPath5UnionEPNS_9XalanNodeEN9__gnu_cxx17__normal_iteratorIPKiSt6vectorIiSaIiEEEERNS_21XPathExecutionContextERNS_18MutableNodeRefListE(ptr noundef nonnull align 8 dereferenceable(105) %0, ptr noundef %1, ptr nonnull %33, ptr noundef nonnull align 8 dereferenceable(16) %3, ptr noundef nonnull align 8 dereferenceable(36) %279)
          to label %280 unwind label %282

280:                                              ; preds = %275
  %281 = invoke noundef nofpclass(nan inf) double @_ZN10xalanc_1_87XObject6numberERNS_21XPathExecutionContextERKNS_15NodeRefListBaseE(ptr noundef nonnull align 8 dereferenceable(16) %3, ptr noundef nonnull align 8 dereferenceable(8) %279)
          to label %295 unwind label %282

282:                                              ; preds = %280, %275
  %283 = landingpad { ptr, i32 }
          cleanup
  %284 = icmp eq ptr %279, null
  br i1 %284, label %290, label %285

285:                                              ; preds = %282
  %286 = load ptr, ptr %3, align 8, !tbaa !31
  %287 = getelementptr inbounds ptr, ptr %286, i64 25
  %288 = load ptr, ptr %287, align 8
  %289 = invoke noundef zeroext i1 %288(ptr noundef nonnull align 8 dereferenceable(16) %3, ptr noundef nonnull %279)
          to label %290 unwind label %292

290:                                              ; preds = %396, %399, %337, %506, %387, %375, %352, %282, %285, %519
  %291 = phi { ptr, i32 } [ %518, %519 ], [ %283, %285 ], [ %283, %282 ], [ %336, %337 ], [ %505, %506 ], [ %385, %387 ], [ %373, %375 ], [ %350, %352 ], [ %397, %399 ], [ %397, %396 ]
  resume { ptr, i32 } %291

292:                                              ; preds = %285
  %293 = landingpad { ptr, i32 }
          catch ptr null
  %294 = extractvalue { ptr, i32 } %293, 0
  tail call void @__clang_call_terminate(ptr %294) #17
  unreachable

295:                                              ; preds = %280
  store double %281, ptr %4, align 8, !tbaa !41
  %296 = load ptr, ptr %3, align 8, !tbaa !31
  %297 = getelementptr inbounds ptr, ptr %296, i64 25
  %298 = load ptr, ptr %297, align 8
  %299 = tail call noundef zeroext i1 %298(ptr noundef nonnull align 8 dereferenceable(16) %3, ptr noundef nonnull %279)
  br label %530

300:                                              ; preds = %32
  %301 = getelementptr inbounds i32, ptr %33, i64 2
  %302 = load i32, ptr %301, align 4, !tbaa !30
  %303 = getelementptr inbounds %"class.xalanc_1_8::XPathExpression", ptr %0, i64 0, i32 2
  %304 = sext i32 %302 to i64
  %305 = load ptr, ptr %303, align 8, !tbaa !52
  %306 = getelementptr inbounds %"class.xalanc_1_8::XToken", ptr %305, i64 %304
  %307 = load ptr, ptr %306, align 8, !tbaa !31
  %308 = getelementptr inbounds ptr, ptr %307, i64 7
  %309 = load ptr, ptr %308, align 8
  %310 = tail call reassoc nnan ninf nsz arcp afn noundef nofpclass(nan inf) double %309(ptr noundef nonnull align 8 dereferenceable(41) %306)
  store double %310, ptr %4, align 8, !tbaa !41
  br label %530

311:                                              ; preds = %32
  call void @llvm.lifetime.start.p0(i64 8, ptr nonnull %29) #16
  %312 = getelementptr inbounds i32, ptr %33, i64 2
  %313 = load i32, ptr %312, align 4, !tbaa !30, !noalias !79
  %314 = getelementptr inbounds %"class.xalanc_1_8::XPathExpression", ptr %0, i64 0, i32 2
  %315 = sext i32 %313 to i64
  %316 = load ptr, ptr %314, align 8, !tbaa !52, !noalias !79
  %317 = getelementptr inbounds %"class.xalanc_1_8::XToken", ptr %316, i64 %315
  %318 = getelementptr inbounds i32, ptr %33, i64 3
  %319 = load i32, ptr %318, align 4, !tbaa !30, !noalias !79
  %320 = sext i32 %319 to i64
  %321 = getelementptr inbounds %"class.xalanc_1_8::XToken", ptr %316, i64 %320
  call void @llvm.lifetime.start.p0(i64 24, ptr nonnull %26) #16, !noalias !79
  %322 = load ptr, ptr %317, align 8, !tbaa !31, !noalias !79
  %323 = getelementptr inbounds ptr, ptr %322, i64 9
  %324 = load ptr, ptr %323, align 8, !noalias !79
  %325 = tail call noundef nonnull align 8 dereferenceable(28) ptr %324(ptr noundef nonnull align 8 dereferenceable(41) %317), !noalias !79
  %326 = load ptr, ptr %321, align 8, !tbaa !31, !noalias !79
  %327 = getelementptr inbounds ptr, ptr %326, i64 9
  %328 = load ptr, ptr %327, align 8, !noalias !79
  %329 = tail call noundef nonnull align 8 dereferenceable(28) ptr %328(ptr noundef nonnull align 8 dereferenceable(41) %321), !noalias !79
  call void @_ZN10xalanc_1_821XalanQNameByReferenceC1ERKNS_14XalanDOMStringES3_(ptr noundef nonnull align 8 dereferenceable(24) %26, ptr noundef nonnull align 8 dereferenceable(28) %325, ptr noundef nonnull align 8 dereferenceable(28) %329), !noalias !79
  %330 = getelementptr inbounds %"class.xalanc_1_8::XPath", ptr %0, i64 0, i32 1
  %331 = load ptr, ptr %330, align 8, !tbaa !12, !noalias !79
  %332 = load ptr, ptr %3, align 8, !tbaa !31, !noalias !79
  %333 = getelementptr inbounds ptr, ptr %332, i64 31
  %334 = load ptr, ptr %333, align 8, !noalias !79
  invoke void %334(ptr nonnull sret(%"class.xalanc_1_8::XObjectPtr") align 8 %29, ptr noundef nonnull align 8 dereferenceable(16) %3, ptr noundef nonnull align 8 dereferenceable(8) %26, ptr noundef %331)
          to label %341 unwind label %335

335:                                              ; preds = %311
  %336 = landingpad { ptr, i32 }
          cleanup
  invoke void @_ZN10xalanc_1_821XalanQNameByReferenceD1Ev(ptr noundef nonnull align 8 dereferenceable(24) %26)
          to label %337 unwind label %338

337:                                              ; preds = %335
  call void @llvm.lifetime.end.p0(i64 24, ptr nonnull %26) #16, !noalias !79
  br label %290

338:                                              ; preds = %335
  %339 = landingpad { ptr, i32 }
          catch ptr null
  %340 = extractvalue { ptr, i32 } %339, 0
  call void @__clang_call_terminate(ptr %340) #17
  unreachable

341:                                              ; preds = %311
  call void @_ZN10xalanc_1_821XalanQNameByReferenceD1Ev(ptr noundef nonnull align 8 dereferenceable(24) %26)
  call void @llvm.lifetime.end.p0(i64 24, ptr nonnull %26) #16, !noalias !79
  %342 = load ptr, ptr %29, align 8, !tbaa !74
  %343 = load ptr, ptr %342, align 8, !tbaa !31
  %344 = getelementptr inbounds ptr, ptr %343, i64 7
  %345 = load ptr, ptr %344, align 8
  %346 = invoke noundef nofpclass(nan inf) double %345(ptr noundef nonnull align 8 dereferenceable(24) %342)
          to label %347 unwind label %349

347:                                              ; preds = %341
  store double %346, ptr %4, align 8, !tbaa !41
  %348 = load ptr, ptr %29, align 8, !tbaa !74
  call void @_ZN10xalanc_1_827XalanReferenceCountedObject15removeReferenceEPS0_(ptr noundef %348)
  call void @llvm.lifetime.end.p0(i64 8, ptr nonnull %29) #16
  br label %530

349:                                              ; preds = %341
  %350 = landingpad { ptr, i32 }
          cleanup
  %351 = load ptr, ptr %29, align 8, !tbaa !74
  invoke void @_ZN10xalanc_1_827XalanReferenceCountedObject15removeReferenceEPS0_(ptr noundef %351)
          to label %352 unwind label %531

352:                                              ; preds = %349
  call void @llvm.lifetime.end.p0(i64 8, ptr nonnull %29) #16
  br label %290

353:                                              ; preds = %32
  %354 = getelementptr inbounds i32, ptr %33, i64 3
  %355 = load i32, ptr %354, align 4, !tbaa !30
  %356 = getelementptr inbounds %"class.xalanc_1_8::XPathExpression", ptr %0, i64 0, i32 2
  %357 = sext i32 %355 to i64
  %358 = load ptr, ptr %356, align 8, !tbaa !52
  %359 = getelementptr inbounds %"class.xalanc_1_8::XToken", ptr %358, i64 %357
  %360 = load ptr, ptr %359, align 8, !tbaa !31
  %361 = getelementptr inbounds ptr, ptr %360, i64 7
  %362 = load ptr, ptr %361, align 8
  %363 = tail call reassoc nnan ninf nsz arcp afn noundef nofpclass(nan inf) double %362(ptr noundef nonnull align 8 dereferenceable(41) %359)
  store double %363, ptr %4, align 8, !tbaa !41
  br label %530

364:                                              ; preds = %32
  call void @llvm.lifetime.start.p0(i64 8, ptr nonnull %30) #16
  call void @_ZNK10xalanc_1_85XPath14runExtFunctionEPNS_9XalanNodeEN9__gnu_cxx17__normal_iteratorIPKiSt6vectorIiSaIiEEEERNS_21XPathExecutionContextE(ptr nonnull sret(%"class.xalanc_1_8::XObjectPtr") align 8 %30, ptr noundef nonnull align 8 dereferenceable(105) %0, ptr noundef %1, ptr nonnull %33, ptr noundef nonnull align 8 dereferenceable(16) %3)
  %365 = load ptr, ptr %30, align 8, !tbaa !74
  %366 = load ptr, ptr %365, align 8, !tbaa !31
  %367 = getelementptr inbounds ptr, ptr %366, i64 7
  %368 = load ptr, ptr %367, align 8
  %369 = invoke noundef nofpclass(nan inf) double %368(ptr noundef nonnull align 8 dereferenceable(24) %365)
          to label %370 unwind label %372

370:                                              ; preds = %364
  store double %369, ptr %4, align 8, !tbaa !41
  %371 = load ptr, ptr %30, align 8, !tbaa !74
  call void @_ZN10xalanc_1_827XalanReferenceCountedObject15removeReferenceEPS0_(ptr noundef %371)
  call void @llvm.lifetime.end.p0(i64 8, ptr nonnull %30) #16
  br label %530

372:                                              ; preds = %364
  %373 = landingpad { ptr, i32 }
          cleanup
  %374 = load ptr, ptr %30, align 8, !tbaa !74
  invoke void @_ZN10xalanc_1_827XalanReferenceCountedObject15removeReferenceEPS0_(ptr noundef %374)
          to label %375 unwind label %531

375:                                              ; preds = %372
  call void @llvm.lifetime.end.p0(i64 8, ptr nonnull %30) #16
  br label %290

376:                                              ; preds = %32
  call void @llvm.lifetime.start.p0(i64 8, ptr nonnull %31) #16
  call void @_ZNK10xalanc_1_85XPath11runFunctionEPNS_9XalanNodeEN9__gnu_cxx17__normal_iteratorIPKiSt6vectorIiSaIiEEEERNS_21XPathExecutionContextE(ptr nonnull sret(%"class.xalanc_1_8::XObjectPtr") align 8 %31, ptr noundef nonnull align 8 dereferenceable(105) %0, ptr noundef %1, ptr nonnull %33, ptr noundef nonnull align 8 dereferenceable(16) %3)
  %377 = load ptr, ptr %31, align 8, !tbaa !74
  %378 = load ptr, ptr %377, align 8, !tbaa !31
  %379 = getelementptr inbounds ptr, ptr %378, i64 7
  %380 = load ptr, ptr %379, align 8
  %381 = invoke noundef nofpclass(nan inf) double %380(ptr noundef nonnull align 8 dereferenceable(24) %377)
          to label %382 unwind label %384

382:                                              ; preds = %376
  store double %381, ptr %4, align 8, !tbaa !41
  %383 = load ptr, ptr %31, align 8, !tbaa !74
  call void @_ZN10xalanc_1_827XalanReferenceCountedObject15removeReferenceEPS0_(ptr noundef %383)
  call void @llvm.lifetime.end.p0(i64 8, ptr nonnull %31) #16
  br label %530

384:                                              ; preds = %376
  %385 = landingpad { ptr, i32 }
          cleanup
  %386 = load ptr, ptr %31, align 8, !tbaa !74
  invoke void @_ZN10xalanc_1_827XalanReferenceCountedObject15removeReferenceEPS0_(ptr noundef %386)
          to label %387 unwind label %531

387:                                              ; preds = %384
  call void @llvm.lifetime.end.p0(i64 8, ptr nonnull %31) #16
  br label %290

388:                                              ; preds = %32
  %389 = load ptr, ptr %3, align 8, !tbaa !31
  %390 = getelementptr inbounds ptr, ptr %389, i64 24
  %391 = load ptr, ptr %390, align 8
  %392 = tail call noundef ptr %391(ptr noundef nonnull align 8 dereferenceable(16) %3)
  %393 = getelementptr inbounds i32, ptr %33, i64 2
  invoke void @_ZNK10xalanc_1_85XPath4stepERNS_21XPathExecutionContextEPNS_9XalanNodeEN9__gnu_cxx17__normal_iteratorIPKiSt6vectorIiSaIiEEEERNS_18MutableNodeRefListE(ptr noundef nonnull align 8 dereferenceable(105) %0, ptr noundef nonnull align 8 dereferenceable(16) %3, ptr noundef %1, ptr nonnull %393, ptr noundef nonnull align 8 dereferenceable(36) %392)
          to label %394 unwind label %396

394:                                              ; preds = %388
  %395 = invoke noundef nofpclass(nan inf) double @_ZN10xalanc_1_87XObject6numberERNS_21XPathExecutionContextERKNS_15NodeRefListBaseE(ptr noundef nonnull align 8 dereferenceable(16) %3, ptr noundef nonnull align 8 dereferenceable(8) %392)
          to label %407 unwind label %396

396:                                              ; preds = %394, %388
  %397 = landingpad { ptr, i32 }
          cleanup
  %398 = icmp eq ptr %392, null
  br i1 %398, label %290, label %399

399:                                              ; preds = %396
  %400 = load ptr, ptr %3, align 8, !tbaa !31
  %401 = getelementptr inbounds ptr, ptr %400, i64 25
  %402 = load ptr, ptr %401, align 8
  %403 = invoke noundef zeroext i1 %402(ptr noundef nonnull align 8 dereferenceable(16) %3, ptr noundef nonnull %392)
          to label %290 unwind label %404

404:                                              ; preds = %399
  %405 = landingpad { ptr, i32 }
          catch ptr null
  %406 = extractvalue { ptr, i32 } %405, 0
  tail call void @__clang_call_terminate(ptr %406) #17
  unreachable

407:                                              ; preds = %394
  store double %395, ptr %4, align 8, !tbaa !41
  %408 = load ptr, ptr %3, align 8, !tbaa !31
  %409 = getelementptr inbounds ptr, ptr %408, i64 25
  %410 = load ptr, ptr %409, align 8
  %411 = tail call noundef zeroext i1 %410(ptr noundef nonnull align 8 dereferenceable(16) %3, ptr noundef nonnull %392)
  br label %530

412:                                              ; preds = %32
  %413 = load ptr, ptr %3, align 8, !tbaa !31
  %414 = getelementptr inbounds ptr, ptr %413, i64 17
  %415 = load ptr, ptr %414, align 8
  %416 = tail call noundef i32 %415(ptr noundef nonnull align 8 dereferenceable(16) %3, ptr noundef nonnull align 8 dereferenceable(8) %1)
  %417 = uitofp i32 %416 to double
  store double %417, ptr %4, align 8, !tbaa !41
  br label %530

418:                                              ; preds = %32
  %419 = load ptr, ptr %3, align 8, !tbaa !31
  %420 = getelementptr inbounds ptr, ptr %419, i64 16
  %421 = load ptr, ptr %420, align 8
  %422 = tail call noundef i32 %421(ptr noundef nonnull align 8 dereferenceable(16) %3)
  %423 = uitofp i32 %422 to double
  store double %423, ptr %4, align 8, !tbaa !41
  br label %530

424:                                              ; preds = %32
  %425 = tail call reassoc nnan ninf nsz arcp afn noundef nofpclass(nan inf) double @_ZNK10xalanc_1_85XPath13functionCountEPNS_9XalanNodeEN9__gnu_cxx17__normal_iteratorIPKiSt6vectorIiSaIiEEEERNS_21XPathExecutionContextE(ptr noundef nonnull align 8 dereferenceable(105) %0, ptr noundef %1, ptr nonnull %33, ptr noundef nonnull align 8 dereferenceable(16) %3)
  store double %425, ptr %4, align 8, !tbaa !41
  br label %530

426:                                              ; preds = %32
  call void @llvm.lifetime.start.p0(i64 1, ptr nonnull %13) #16
  %427 = getelementptr inbounds i32, ptr %33, i64 2
  call void @_ZNK10xalanc_1_85XPath11executeMoreEPNS_9XalanNodeEN9__gnu_cxx17__normal_iteratorIPKiSt6vectorIiSaIiEEEERNS_21XPathExecutionContextERb(ptr noundef nonnull align 8 dereferenceable(105) %0, ptr noundef %1, ptr nonnull %427, ptr noundef nonnull align 8 dereferenceable(16) %3, ptr noundef nonnull align 1 dereferenceable(1) %13)
  %428 = load i8, ptr %13, align 1, !tbaa !37, !range !38, !noundef !39
  %429 = icmp eq i8 %428, 0
  call void @llvm.lifetime.end.p0(i64 1, ptr nonnull %13) #16
  %430 = select reassoc nnan ninf nsz arcp afn i1 %429, double 1.000000e+00, double 0.000000e+00
  store double %430, ptr %4, align 8, !tbaa !41
  br label %530

431:                                              ; preds = %32
  store double 1.000000e+00, ptr %4, align 8, !tbaa !41
  br label %530

432:                                              ; preds = %32
  store double 0.000000e+00, ptr %4, align 8, !tbaa !41
  br label %530

433:                                              ; preds = %32
  call void @llvm.lifetime.start.p0(i64 1, ptr nonnull %25) #16
  %434 = getelementptr inbounds i32, ptr %33, i64 2
  call void @_ZNK10xalanc_1_85XPath11executeMoreEPNS_9XalanNodeEN9__gnu_cxx17__normal_iteratorIPKiSt6vectorIiSaIiEEEERNS_21XPathExecutionContextERb(ptr noundef nonnull align 8 dereferenceable(105) %0, ptr noundef %1, ptr nonnull %434, ptr noundef nonnull align 8 dereferenceable(16) %3, ptr noundef nonnull align 1 dereferenceable(1) %25)
  %435 = load i8, ptr %25, align 1, !tbaa !37, !range !38, !noundef !39
  %436 = icmp eq i8 %435, 0
  call void @llvm.lifetime.end.p0(i64 1, ptr nonnull %25) #16
  %437 = select reassoc nnan ninf nsz arcp afn i1 %436, double 0.000000e+00, double 1.000000e+00
  store double %437, ptr %4, align 8, !tbaa !41
  br label %530

438:                                              ; preds = %32
  %439 = tail call noundef nonnull align 8 dereferenceable(28) ptr @_ZN10xalanc_1_811DOMServices13getNameOfNodeERKNS_9XalanNodeE(ptr noundef nonnull align 8 dereferenceable(8) %1)
  %440 = tail call reassoc nnan ninf nsz arcp afn noundef nofpclass(nan inf) double @_ZN10xalanc_1_813DoubleSupport8toDoubleERKNS_14XalanDOMStringE(ptr noundef nonnull align 8 dereferenceable(28) %439)
  store double %440, ptr %4, align 8, !tbaa !41
  br label %530

441:                                              ; preds = %32
  %442 = tail call noundef nonnull align 8 dereferenceable(28) ptr @_ZNK10xalanc_1_85XPath12functionNameEPNS_9XalanNodeEN9__gnu_cxx17__normal_iteratorIPKiSt6vectorIiSaIiEEEERNS_21XPathExecutionContextE(ptr noundef nonnull align 8 dereferenceable(105) %0, ptr noundef %1, ptr nonnull %33, ptr noundef nonnull align 8 dereferenceable(16) %3)
  %443 = tail call reassoc nnan ninf nsz arcp afn noundef nofpclass(nan inf) double @_ZN10xalanc_1_813DoubleSupport8toDoubleERKNS_14XalanDOMStringE(ptr noundef nonnull align 8 dereferenceable(28) %442)
  store double %443, ptr %4, align 8, !tbaa !41
  br label %530

444:                                              ; preds = %32
  %445 = load ptr, ptr %1, align 8, !tbaa !31
  %446 = getelementptr inbounds ptr, ptr %445, i64 4
  %447 = load ptr, ptr %446, align 8
  %448 = tail call noundef i32 %447(ptr noundef nonnull align 8 dereferenceable(8) %1)
  switch i32 %448, label %480 [
    i32 7, label %449
    i32 1, label %449
    i32 2, label %462
  ]

449:                                              ; preds = %444, %444
  %450 = load ptr, ptr %1, align 8, !tbaa !31
  %451 = getelementptr inbounds ptr, ptr %450, i64 24
  %452 = load ptr, ptr %451, align 8
  %453 = tail call noundef nonnull align 8 dereferenceable(28) ptr %452(ptr noundef nonnull align 8 dereferenceable(8) %1)
  %454 = getelementptr inbounds %"class.xalanc_1_8::XalanDOMString", ptr %453, i64 0, i32 1
  %455 = load i32, ptr %454, align 8, !tbaa !62
  %456 = icmp eq i32 %455, 0
  br i1 %456, label %457, label %480

457:                                              ; preds = %449
  %458 = load ptr, ptr %1, align 8, !tbaa !31
  %459 = getelementptr inbounds ptr, ptr %458, i64 2
  %460 = load ptr, ptr %459, align 8
  %461 = tail call noundef nonnull align 8 dereferenceable(28) ptr %460(ptr noundef nonnull align 8 dereferenceable(8) %1)
  br label %480

462:                                              ; preds = %444
  %463 = load ptr, ptr %1, align 8, !tbaa !31
  %464 = getelementptr inbounds ptr, ptr %463, i64 24
  %465 = load ptr, ptr %464, align 8
  %466 = tail call noundef nonnull align 8 dereferenceable(28) ptr %465(ptr noundef nonnull align 8 dereferenceable(8) %1)
  %467 = getelementptr inbounds %"class.xalanc_1_8::XalanDOMString", ptr %466, i64 0, i32 1
  %468 = load i32, ptr %467, align 8, !tbaa !62
  %469 = icmp eq i32 %468, 0
  br i1 %469, label %470, label %475

470:                                              ; preds = %462
  %471 = load ptr, ptr %1, align 8, !tbaa !31
  %472 = getelementptr inbounds ptr, ptr %471, i64 2
  %473 = load ptr, ptr %472, align 8
  %474 = tail call noundef nonnull align 8 dereferenceable(28) ptr %473(ptr noundef nonnull align 8 dereferenceable(8) %1)
  br label %475

475:                                              ; preds = %470, %462
  %476 = phi ptr [ %474, %470 ], [ %466, %462 ]
  %477 = load ptr, ptr @_ZN10xalanc_1_811DOMServices14s_XMLNamespaceE, align 8, !tbaa !33
  %478 = tail call noundef zeroext i1 @_ZN10xalanc_1_814XalanDOMString6equalsERKS0_S2_(ptr noundef nonnull align 8 dereferenceable(28) %476, ptr noundef nonnull align 8 dereferenceable(28) %477)
  %479 = select i1 %478, ptr @_ZN10xalanc_1_85XPath13s_emptyStringE, ptr %476
  br label %480

480:                                              ; preds = %444, %449, %457, %475
  %481 = phi ptr [ %479, %475 ], [ @_ZN10xalanc_1_85XPath13s_emptyStringE, %444 ], [ %461, %457 ], [ %453, %449 ]
  %482 = tail call reassoc nnan ninf nsz arcp afn noundef nofpclass(nan inf) double @_ZN10xalanc_1_813DoubleSupport8toDoubleERKNS_14XalanDOMStringE(ptr noundef nonnull align 8 dereferenceable(28) %481)
  store double %482, ptr %4, align 8, !tbaa !41
  br label %530

483:                                              ; preds = %32
  %484 = tail call noundef nonnull align 8 dereferenceable(28) ptr @_ZNK10xalanc_1_85XPath17functionLocalNameEPNS_9XalanNodeEN9__gnu_cxx17__normal_iteratorIPKiSt6vectorIiSaIiEEEERNS_21XPathExecutionContextE(ptr noundef nonnull align 8 dereferenceable(105) %0, ptr noundef %1, ptr nonnull %33, ptr noundef nonnull align 8 dereferenceable(16) %3)
  %485 = tail call reassoc nnan ninf nsz arcp afn noundef nofpclass(nan inf) double @_ZN10xalanc_1_813DoubleSupport8toDoubleERKNS_14XalanDOMStringE(ptr noundef nonnull align 8 dereferenceable(28) %484)
  store double %485, ptr %4, align 8, !tbaa !41
  br label %530

486:                                              ; preds = %32
  call void @llvm.lifetime.start.p0(i64 8, ptr nonnull %12) #16
  %487 = getelementptr inbounds i32, ptr %33, i64 2
  call void @_ZNK10xalanc_1_85XPath11executeMoreEPNS_9XalanNodeEN9__gnu_cxx17__normal_iteratorIPKiSt6vectorIiSaIiEEEERNS_21XPathExecutionContextERd(ptr noundef nonnull align 8 dereferenceable(105) %0, ptr noundef %1, ptr nonnull %487, ptr noundef nonnull align 8 dereferenceable(16) %3, ptr noundef nonnull align 8 dereferenceable(8) %12)
  %488 = load double, ptr %12, align 8, !tbaa !41
  call void @llvm.lifetime.end.p0(i64 8, ptr nonnull %12) #16
  %489 = tail call reassoc nnan ninf nsz arcp afn double @llvm.floor.f64(double %488)
  store double %489, ptr %4, align 8, !tbaa !41
  br label %530

490:                                              ; preds = %32
  call void @llvm.lifetime.start.p0(i64 8, ptr nonnull %11) #16
  %491 = getelementptr inbounds i32, ptr %33, i64 2
  call void @_ZNK10xalanc_1_85XPath11executeMoreEPNS_9XalanNodeEN9__gnu_cxx17__normal_iteratorIPKiSt6vectorIiSaIiEEEERNS_21XPathExecutionContextERd(ptr noundef nonnull align 8 dereferenceable(105) %0, ptr noundef %1, ptr nonnull %491, ptr noundef nonnull align 8 dereferenceable(16) %3, ptr noundef nonnull align 8 dereferenceable(8) %11)
  %492 = load double, ptr %11, align 8, !tbaa !41
  call void @llvm.lifetime.end.p0(i64 8, ptr nonnull %11) #16
  %493 = tail call reassoc nnan ninf nsz arcp afn double @llvm.ceil.f64(double %492)
  store double %493, ptr %4, align 8, !tbaa !41
  br label %530

494:                                              ; preds = %32
  call void @llvm.lifetime.start.p0(i64 8, ptr nonnull %10) #16
  %495 = getelementptr inbounds i32, ptr %33, i64 2
  call void @_ZNK10xalanc_1_85XPath11executeMoreEPNS_9XalanNodeEN9__gnu_cxx17__normal_iteratorIPKiSt6vectorIiSaIiEEEERNS_21XPathExecutionContextERd(ptr noundef nonnull align 8 dereferenceable(105) %0, ptr noundef %1, ptr nonnull %495, ptr noundef nonnull align 8 dereferenceable(16) %3, ptr noundef nonnull align 8 dereferenceable(8) %10)
  %496 = load double, ptr %10, align 8, !tbaa !41
  call void @llvm.lifetime.end.p0(i64 8, ptr nonnull %10) #16
  %497 = tail call reassoc nnan ninf nsz arcp afn noundef nofpclass(nan inf) double @_ZN10xalanc_1_813DoubleSupport5roundEd(double noundef nofpclass(nan inf) %496)
  store double %497, ptr %4, align 8, !tbaa !41
  br label %530

498:                                              ; preds = %32
  %499 = tail call reassoc nnan ninf nsz arcp afn noundef nofpclass(nan inf) double @_ZN10xalanc_1_87XObject6numberERNS_21XPathExecutionContextERKNS_9XalanNodeE(ptr noundef nonnull align 8 dereferenceable(16) %3, ptr noundef nonnull align 8 dereferenceable(8) %1)
  store double %499, ptr %4, align 8, !tbaa !41
  br label %530

500:                                              ; preds = %32
  call void @llvm.lifetime.start.p0(i64 8, ptr nonnull %24) #16
  %501 = getelementptr inbounds i32, ptr %33, i64 2
  call void @_ZNK10xalanc_1_85XPath11executeMoreEPNS_9XalanNodeEN9__gnu_cxx17__normal_iteratorIPKiSt6vectorIiSaIiEEEERNS_21XPathExecutionContextERd(ptr noundef nonnull align 8 dereferenceable(105) %0, ptr noundef %1, ptr nonnull %501, ptr noundef nonnull align 8 dereferenceable(16) %3, ptr noundef nonnull align 8 dereferenceable(8) %24)
  %502 = load double, ptr %24, align 8, !tbaa !41
  call void @llvm.lifetime.end.p0(i64 8, ptr nonnull %24) #16
  store double %502, ptr %4, align 8, !tbaa !41
  br label %530

503:                                              ; preds = %32
  call void @llvm.lifetime.start.p0(i64 32, ptr nonnull %23) #16
  call void @_ZN10xalanc_1_828FormatterStringLengthCounterC1Ev(ptr noundef nonnull align 8 dereferenceable(32) %23)
  invoke void @_ZN10xalanc_1_811DOMServices11getNodeDataERKNS_9XalanNodeERNS_17FormatterListenerEMS4_FvPKtjE(ptr noundef nonnull align 8 dereferenceable(8) %1, ptr noundef nonnull align 8 dereferenceable(20) %23, i64 17, i64 0)
          to label %510 unwind label %504

504:                                              ; preds = %503
  %505 = landingpad { ptr, i32 }
          cleanup
  invoke void @_ZN10xalanc_1_828FormatterStringLengthCounterD1Ev(ptr noundef nonnull align 8 dereferenceable(32) %23)
          to label %506 unwind label %507

506:                                              ; preds = %504
  call void @llvm.lifetime.end.p0(i64 32, ptr nonnull %23) #16
  br label %290

507:                                              ; preds = %504
  %508 = landingpad { ptr, i32 }
          catch ptr null
  %509 = extractvalue { ptr, i32 } %508, 0
  call void @__clang_call_terminate(ptr %509) #17
  unreachable

510:                                              ; preds = %503
  %511 = getelementptr inbounds %"class.xalanc_1_8::FormatterStringLengthCounter", ptr %23, i64 0, i32 1
  %512 = load i64, ptr %511, align 8, !tbaa !67
  %513 = uitofp i64 %512 to double
  call void @_ZN10xalanc_1_828FormatterStringLengthCounterD1Ev(ptr noundef nonnull align 8 dereferenceable(32) %23)
  call void @llvm.lifetime.end.p0(i64 32, ptr nonnull %23) #16
  store double %513, ptr %4, align 8, !tbaa !41
  br label %530

514:                                              ; preds = %32
  call void @llvm.lifetime.start.p0(i64 16, ptr nonnull %7)
  call void @llvm.lifetime.start.p0(i64 32, ptr nonnull %6) #16
  call void @_ZN10xalanc_1_828FormatterStringLengthCounterC1Ev(ptr noundef nonnull align 8 dereferenceable(32) %6)
  %515 = getelementptr inbounds i32, ptr %33, i64 2
  store i64 17, ptr %7, align 8, !tbaa !73
  %516 = getelementptr inbounds { i64, i64 }, ptr %7, i64 0, i32 1
  store i64 0, ptr %516, align 8, !tbaa !73
  invoke void @_ZNK10xalanc_1_85XPath11executeMoreEPNS_9XalanNodeEN9__gnu_cxx17__normal_iteratorIPKiSt6vectorIiSaIiEEEERNS_21XPathExecutionContextERNS_17FormatterListenerEMSD_FvPKtjE(ptr noundef nonnull align 8 dereferenceable(105) %0, ptr noundef %1, ptr nonnull %515, ptr noundef nonnull align 8 dereferenceable(16) %3, ptr noundef nonnull align 8 dereferenceable(20) %6, ptr noundef nonnull byval({ i64, i64 }) align 8 %7)
          to label %523 unwind label %517

517:                                              ; preds = %514
  %518 = landingpad { ptr, i32 }
          cleanup
  invoke void @_ZN10xalanc_1_828FormatterStringLengthCounterD1Ev(ptr noundef nonnull align 8 dereferenceable(32) %6)
          to label %519 unwind label %520

519:                                              ; preds = %517
  call void @llvm.lifetime.end.p0(i64 32, ptr nonnull %6) #16
  br label %290

520:                                              ; preds = %517
  %521 = landingpad { ptr, i32 }
          catch ptr null
  %522 = extractvalue { ptr, i32 } %521, 0
  call void @__clang_call_terminate(ptr %522) #17
  unreachable

523:                                              ; preds = %514
  %524 = getelementptr inbounds %"class.xalanc_1_8::FormatterStringLengthCounter", ptr %6, i64 0, i32 1
  %525 = load i64, ptr %524, align 8, !tbaa !67
  %526 = uitofp i64 %525 to double
  call void @_ZN10xalanc_1_828FormatterStringLengthCounterD1Ev(ptr noundef nonnull align 8 dereferenceable(32) %6)
  call void @llvm.lifetime.end.p0(i64 32, ptr nonnull %6) #16
  call void @llvm.lifetime.end.p0(i64 16, ptr nonnull %7)
  store double %526, ptr %4, align 8, !tbaa !41
  br label %530

527:                                              ; preds = %32
  %528 = tail call reassoc nnan ninf nsz arcp afn noundef nofpclass(nan inf) double @_ZNK10xalanc_1_85XPath11functionSumEPNS_9XalanNodeEN9__gnu_cxx17__normal_iteratorIPKiSt6vectorIiSaIiEEEERNS_21XPathExecutionContextE(ptr noundef nonnull align 8 dereferenceable(105) %0, ptr noundef %1, ptr nonnull %33, ptr noundef nonnull align 8 dereferenceable(16) %3)
  store double %528, ptr %4, align 8, !tbaa !41
  br label %530

529:                                              ; preds = %32
  tail call void @_ZNK10xalanc_1_85XPath18unknownOpCodeErrorEPNS_9XalanNodeERNS_21XPathExecutionContextEN9__gnu_cxx17__normal_iteratorIPKiSt6vectorIiSaIiEEEE(ptr noundef nonnull align 8 dereferenceable(105) %0, ptr noundef %1, ptr noundef nonnull align 8 dereferenceable(16) %3, ptr nonnull %33)
  br label %530

530:                                              ; preds = %529, %527, %523, %510, %500, %498, %494, %490, %486, %483, %480, %441, %438, %433, %432, %431, %426, %424, %418, %412, %407, %382, %370, %353, %347, %300, %295, %272, %255, %220, %185, %150, %115, %80, %77, %74, %71, %68, %65, %63, %49
  ret void

531:                                              ; preds = %384, %372, %349
  %532 = landingpad { ptr, i32 }
          catch ptr null
  %533 = extractvalue { ptr, i32 } %532, 0
  call void @__clang_call_terminate(ptr %533) #17
  unreachable
}

; Function Attrs: uwtable
define dso_local void @_ZNK10xalanc_1_85XPath7executeEPNS_9XalanNodeERKNS_14PrefixResolverERNS_21XPathExecutionContextERNS_14XalanDOMStringE(ptr noundef nonnull align 8 dereferenceable(105) %0, ptr noundef %1, ptr noundef nonnull align 8 dereferenceable(8) %2, ptr noundef nonnull align 8 dereferenceable(16) %3, ptr noundef nonnull align 8 dereferenceable(28) %4) local_unnamed_addr #1 align 2 personality ptr @__gxx_personality_v0 {
  %6 = load ptr, ptr %3, align 8, !tbaa !31
  %7 = getelementptr inbounds ptr, ptr %6, i64 32
  %8 = load ptr, ptr %7, align 8
  %9 = tail call noundef ptr %8(ptr noundef nonnull align 8 dereferenceable(16) %3)
  %10 = load ptr, ptr %3, align 8, !tbaa !31
  %11 = getelementptr inbounds ptr, ptr %10, i64 33
  %12 = load ptr, ptr %11, align 8
  tail call void %12(ptr noundef nonnull align 8 dereferenceable(16) %3, ptr noundef nonnull %2)
  %13 = load ptr, ptr %3, align 8, !tbaa !31
  %14 = getelementptr inbounds ptr, ptr %13, i64 10
  %15 = load ptr, ptr %14, align 8
  invoke void %15(ptr noundef nonnull align 8 dereferenceable(16) %3, ptr noundef %1)
          to label %16 unwind label %26

16:                                               ; preds = %5
  %17 = load ptr, ptr %0, align 8, !tbaa !33
  invoke void @_ZNK10xalanc_1_85XPath11executeMoreEPNS_9XalanNodeEN9__gnu_cxx17__normal_iteratorIPKiSt6vectorIiSaIiEEEERNS_21XPathExecutionContextERNS_14XalanDOMStringE(ptr noundef nonnull align 8 dereferenceable(105) %0, ptr noundef %1, ptr %17, ptr noundef nonnull align 8 dereferenceable(16) %3, ptr noundef nonnull align 8 dereferenceable(28) %4)
          to label %18 unwind label %28

18:                                               ; preds = %16
  %19 = load ptr, ptr %3, align 8, !tbaa !31
  %20 = getelementptr inbounds ptr, ptr %19, i64 11
  %21 = load ptr, ptr %20, align 8
  invoke void %21(ptr noundef nonnull align 8 dereferenceable(16) %3)
          to label %22 unwind label %26

22:                                               ; preds = %18
  %23 = load ptr, ptr %3, align 8, !tbaa !31
  %24 = getelementptr inbounds ptr, ptr %23, i64 33
  %25 = load ptr, ptr %24, align 8
  tail call void %25(ptr noundef nonnull align 8 dereferenceable(16) %3, ptr noundef %9)
  ret void

26:                                               ; preds = %18, %5
  %27 = landingpad { ptr, i32 }
          cleanup
  br label %33

28:                                               ; preds = %16
  %29 = landingpad { ptr, i32 }
          cleanup
  %30 = load ptr, ptr %3, align 8, !tbaa !31
  %31 = getelementptr inbounds ptr, ptr %30, i64 11
  %32 = load ptr, ptr %31, align 8
  invoke void %32(ptr noundef nonnull align 8 dereferenceable(16) %3)
          to label %33 unwind label %39

33:                                               ; preds = %28, %26
  %34 = phi { ptr, i32 } [ %27, %26 ], [ %29, %28 ]
  %35 = load ptr, ptr %3, align 8, !tbaa !31
  %36 = getelementptr inbounds ptr, ptr %35, i64 33
  %37 = load ptr, ptr %36, align 8
  invoke void %37(ptr noundef nonnull align 8 dereferenceable(16) %3, ptr noundef %9)
          to label %38 unwind label %39

38:                                               ; preds = %33
  resume { ptr, i32 } %34

39:                                               ; preds = %33, %28
  %40 = landingpad { ptr, i32 }
          catch ptr null
  %41 = extractvalue { ptr, i32 } %40, 0
  tail call void @__clang_call_terminate(ptr %41) #17
  unreachable
}

; Function Attrs: uwtable
define dso_local void @_ZNK10xalanc_1_85XPath11executeMoreEPNS_9XalanNodeEN9__gnu_cxx17__normal_iteratorIPKiSt6vectorIiSaIiEEEERNS_21XPathExecutionContextERNS_14XalanDOMStringE(ptr noundef nonnull align 8 dereferenceable(105) %0, ptr noundef %1, ptr %2, ptr noundef nonnull align 8 dereferenceable(16) %3, ptr noundef nonnull align 8 dereferenceable(28) %4) local_unnamed_addr #1 align 2 personality ptr @__gxx_personality_v0 {
  %6 = alloca %"class.xalanc_1_8::FormatterStringLengthCounter", align 8
  %7 = alloca { i64, i64 }, align 8
  %8 = alloca %"class.xalanc_1_8::FormatterStringLengthCounter", align 8
  %9 = alloca double, align 8
  %10 = alloca double, align 8
  %11 = alloca double, align 8
  %12 = alloca double, align 8
  %13 = alloca i8, align 1
  %14 = alloca i8, align 1
  %15 = alloca %"class.xalanc_1_8::XalanQNameByReference", align 8
  %16 = alloca double, align 8
  %17 = alloca double, align 8
  %18 = alloca double, align 8
  %19 = alloca double, align 8
  %20 = alloca double, align 8
  %21 = alloca double, align 8
  %22 = alloca double, align 8
  %23 = alloca double, align 8
  %24 = alloca double, align 8
  %25 = alloca double, align 8
  %26 = alloca double, align 8
  %27 = alloca i8, align 1
  %28 = alloca i8, align 1
  %29 = alloca %"class.xalanc_1_8::XObjectPtr", align 8
  %30 = alloca %"class.xalanc_1_8::XObjectPtr", align 8
  %31 = alloca %"class.xalanc_1_8::XObjectPtr", align 8
  br label %32

32:                                               ; preds = %35, %5
  %33 = phi ptr [ %2, %5 ], [ %36, %35 ]
  %34 = load i32, ptr %33, align 4, !tbaa !30
  switch i32 %34, label %609 [
    i32 1, label %35
    i32 2, label %37
    i32 3, label %52
    i32 4, label %67
    i32 5, label %71
    i32 6, label %75
    i32 7, label %79
    i32 8, label %83
    i32 9, label %87
    i32 10, label %91
    i32 11, label %127
    i32 12, label %163
    i32 13, label %199
    i32 14, label %235
    i32 15, label %271
    i32 17, label %289
    i32 18, label %328
    i32 19, label %338
    i32 20, label %35
    i32 21, label %379
    i32 23, label %389
    i32 24, label %400
    i32 25, label %411
    i32 56, label %449
    i32 57, label %456
    i32 58, label %463
    i32 59, label %466
    i32 60, label %472
    i32 61, label %474
    i32 62, label %476
    i32 63, label %482
    i32 64, label %492
    i32 65, label %502
    i32 66, label %548
    i32 67, label %558
    i32 68, label %563
    i32 69, label %568
    i32 70, label %573
    i32 71, label %576
    i32 74, label %580
    i32 75, label %592
    i32 78, label %606
  ]

35:                                               ; preds = %32, %32
  %36 = getelementptr inbounds i32, ptr %33, i64 2
  br label %32

37:                                               ; preds = %32
  %38 = getelementptr inbounds i32, ptr %33, i64 2
  call void @llvm.lifetime.start.p0(i64 1, ptr nonnull %28) #16
  call void @_ZNK10xalanc_1_85XPath11executeMoreEPNS_9XalanNodeEN9__gnu_cxx17__normal_iteratorIPKiSt6vectorIiSaIiEEEERNS_21XPathExecutionContextERb(ptr noundef nonnull align 8 dereferenceable(105) %0, ptr noundef %1, ptr nonnull %38, ptr noundef nonnull align 8 dereferenceable(16) %3, ptr noundef nonnull align 1 dereferenceable(1) %28)
  %39 = load i8, ptr %28, align 1, !tbaa !37, !range !38, !noundef !39
  %40 = icmp eq i8 %39, 0
  br i1 %40, label %41, label %49

41:                                               ; preds = %37
  %42 = getelementptr inbounds i32, ptr %33, i64 3
  %43 = load i32, ptr %42, align 4, !tbaa !30
  %44 = sext i32 %43 to i64
  %45 = getelementptr inbounds i32, ptr %38, i64 %44
  call void @_ZNK10xalanc_1_85XPath11executeMoreEPNS_9XalanNodeEN9__gnu_cxx17__normal_iteratorIPKiSt6vectorIiSaIiEEEERNS_21XPathExecutionContextERb(ptr noundef nonnull align 8 dereferenceable(105) %0, ptr noundef %1, ptr nonnull %45, ptr noundef nonnull align 8 dereferenceable(16) %3, ptr noundef nonnull align 1 dereferenceable(1) %28)
  %46 = load i8, ptr %28, align 1, !tbaa !37, !range !38
  %47 = icmp ne i8 %46, 0
  %48 = uitofp i1 %47 to double
  br label %49

49:                                               ; preds = %37, %41
  %50 = phi double [ %48, %41 ], [ 1.000000e+00, %37 ]
  call void @llvm.lifetime.end.p0(i64 1, ptr nonnull %28) #16
  %51 = tail call noundef nonnull align 8 dereferenceable(28) ptr @_ZN10xalanc_1_817DoubleToDOMStringEdRNS_14XalanDOMStringE(double noundef nofpclass(nan inf) %50, ptr noundef nonnull align 8 dereferenceable(28) %4)
  br label %610

52:                                               ; preds = %32
  %53 = getelementptr inbounds i32, ptr %33, i64 2
  call void @llvm.lifetime.start.p0(i64 1, ptr nonnull %27) #16
  call void @_ZNK10xalanc_1_85XPath11executeMoreEPNS_9XalanNodeEN9__gnu_cxx17__normal_iteratorIPKiSt6vectorIiSaIiEEEERNS_21XPathExecutionContextERb(ptr noundef nonnull align 8 dereferenceable(105) %0, ptr noundef %1, ptr nonnull %53, ptr noundef nonnull align 8 dereferenceable(16) %3, ptr noundef nonnull align 1 dereferenceable(1) %27)
  %54 = load i8, ptr %27, align 1, !tbaa !37, !range !38, !noundef !39
  %55 = icmp eq i8 %54, 0
  br i1 %55, label %64, label %56

56:                                               ; preds = %52
  %57 = getelementptr inbounds i32, ptr %33, i64 3
  %58 = load i32, ptr %57, align 4, !tbaa !30
  %59 = sext i32 %58 to i64
  %60 = getelementptr inbounds i32, ptr %53, i64 %59
  call void @_ZNK10xalanc_1_85XPath11executeMoreEPNS_9XalanNodeEN9__gnu_cxx17__normal_iteratorIPKiSt6vectorIiSaIiEEEERNS_21XPathExecutionContextERb(ptr noundef nonnull align 8 dereferenceable(105) %0, ptr noundef %1, ptr nonnull %60, ptr noundef nonnull align 8 dereferenceable(16) %3, ptr noundef nonnull align 1 dereferenceable(1) %27)
  %61 = load i8, ptr %27, align 1, !tbaa !37, !range !38
  %62 = icmp ne i8 %61, 0
  %63 = uitofp i1 %62 to double
  br label %64

64:                                               ; preds = %52, %56
  %65 = phi double [ %63, %56 ], [ 0.000000e+00, %52 ]
  call void @llvm.lifetime.end.p0(i64 1, ptr nonnull %27) #16
  %66 = tail call noundef nonnull align 8 dereferenceable(28) ptr @_ZN10xalanc_1_817DoubleToDOMStringEdRNS_14XalanDOMStringE(double noundef nofpclass(nan inf) %65, ptr noundef nonnull align 8 dereferenceable(28) %4)
  br label %610

67:                                               ; preds = %32
  %68 = tail call noundef zeroext i1 @_ZNK10xalanc_1_85XPath9notequalsEPNS_9XalanNodeEN9__gnu_cxx17__normal_iteratorIPKiSt6vectorIiSaIiEEEERNS_21XPathExecutionContextE(ptr noundef nonnull align 8 dereferenceable(105) %0, ptr noundef %1, ptr nonnull %33, ptr noundef nonnull align 8 dereferenceable(16) %3)
  %69 = uitofp i1 %68 to double
  %70 = tail call noundef nonnull align 8 dereferenceable(28) ptr @_ZN10xalanc_1_817DoubleToDOMStringEdRNS_14XalanDOMStringE(double noundef nofpclass(nan inf) %69, ptr noundef nonnull align 8 dereferenceable(28) %4)
  br label %610

71:                                               ; preds = %32
  %72 = tail call noundef zeroext i1 @_ZNK10xalanc_1_85XPath6equalsEPNS_9XalanNodeEN9__gnu_cxx17__normal_iteratorIPKiSt6vectorIiSaIiEEEERNS_21XPathExecutionContextE(ptr noundef nonnull align 8 dereferenceable(105) %0, ptr noundef %1, ptr nonnull %33, ptr noundef nonnull align 8 dereferenceable(16) %3)
  %73 = uitofp i1 %72 to double
  %74 = tail call noundef nonnull align 8 dereferenceable(28) ptr @_ZN10xalanc_1_817DoubleToDOMStringEdRNS_14XalanDOMStringE(double noundef nofpclass(nan inf) %73, ptr noundef nonnull align 8 dereferenceable(28) %4)
  br label %610

75:                                               ; preds = %32
  %76 = tail call noundef zeroext i1 @_ZNK10xalanc_1_85XPath3lteEPNS_9XalanNodeEN9__gnu_cxx17__normal_iteratorIPKiSt6vectorIiSaIiEEEERNS_21XPathExecutionContextE(ptr noundef nonnull align 8 dereferenceable(105) %0, ptr noundef %1, ptr nonnull %33, ptr noundef nonnull align 8 dereferenceable(16) %3)
  %77 = uitofp i1 %76 to double
  %78 = tail call noundef nonnull align 8 dereferenceable(28) ptr @_ZN10xalanc_1_817DoubleToDOMStringEdRNS_14XalanDOMStringE(double noundef nofpclass(nan inf) %77, ptr noundef nonnull align 8 dereferenceable(28) %4)
  br label %610

79:                                               ; preds = %32
  %80 = tail call noundef zeroext i1 @_ZNK10xalanc_1_85XPath2ltEPNS_9XalanNodeEN9__gnu_cxx17__normal_iteratorIPKiSt6vectorIiSaIiEEEERNS_21XPathExecutionContextE(ptr noundef nonnull align 8 dereferenceable(105) %0, ptr noundef %1, ptr nonnull %33, ptr noundef nonnull align 8 dereferenceable(16) %3)
  %81 = uitofp i1 %80 to double
  %82 = tail call noundef nonnull align 8 dereferenceable(28) ptr @_ZN10xalanc_1_817DoubleToDOMStringEdRNS_14XalanDOMStringE(double noundef nofpclass(nan inf) %81, ptr noundef nonnull align 8 dereferenceable(28) %4)
  br label %610

83:                                               ; preds = %32
  %84 = tail call noundef zeroext i1 @_ZNK10xalanc_1_85XPath3gteEPNS_9XalanNodeEN9__gnu_cxx17__normal_iteratorIPKiSt6vectorIiSaIiEEEERNS_21XPathExecutionContextE(ptr noundef nonnull align 8 dereferenceable(105) %0, ptr noundef %1, ptr nonnull %33, ptr noundef nonnull align 8 dereferenceable(16) %3)
  %85 = uitofp i1 %84 to double
  %86 = tail call noundef nonnull align 8 dereferenceable(28) ptr @_ZN10xalanc_1_817DoubleToDOMStringEdRNS_14XalanDOMStringE(double noundef nofpclass(nan inf) %85, ptr noundef nonnull align 8 dereferenceable(28) %4)
  br label %610

87:                                               ; preds = %32
  %88 = tail call noundef zeroext i1 @_ZNK10xalanc_1_85XPath2gtEPNS_9XalanNodeEN9__gnu_cxx17__normal_iteratorIPKiSt6vectorIiSaIiEEEERNS_21XPathExecutionContextE(ptr noundef nonnull align 8 dereferenceable(105) %0, ptr noundef %1, ptr nonnull %33, ptr noundef nonnull align 8 dereferenceable(16) %3)
  %89 = uitofp i1 %88 to double
  %90 = tail call noundef nonnull align 8 dereferenceable(28) ptr @_ZN10xalanc_1_817DoubleToDOMStringEdRNS_14XalanDOMStringE(double noundef nofpclass(nan inf) %89, ptr noundef nonnull align 8 dereferenceable(28) %4)
  br label %610

91:                                               ; preds = %32
  %92 = getelementptr inbounds i32, ptr %33, i64 2
  %93 = load i32, ptr %92, align 4, !tbaa !30
  %94 = icmp eq i32 %93, 21
  br i1 %94, label %95, label %103

95:                                               ; preds = %91
  %96 = getelementptr inbounds i32, ptr %33, i64 4
  %97 = load i32, ptr %96, align 4, !tbaa !30
  %98 = getelementptr inbounds %"class.xalanc_1_8::XPathExpression", ptr %0, i64 0, i32 5
  %99 = sext i32 %97 to i64
  %100 = load ptr, ptr %98, align 8, !tbaa !40
  %101 = getelementptr inbounds double, ptr %100, i64 %99
  %102 = load double, ptr %101, align 8, !tbaa !41
  br label %105

103:                                              ; preds = %91
  call void @llvm.lifetime.start.p0(i64 8, ptr nonnull %26) #16
  call void @_ZNK10xalanc_1_85XPath11executeMoreEPNS_9XalanNodeEN9__gnu_cxx17__normal_iteratorIPKiSt6vectorIiSaIiEEEERNS_21XPathExecutionContextERd(ptr noundef nonnull align 8 dereferenceable(105) %0, ptr noundef %1, ptr nonnull %92, ptr noundef nonnull align 8 dereferenceable(16) %3, ptr noundef nonnull align 8 dereferenceable(8) %26)
  %104 = load double, ptr %26, align 8, !tbaa !41
  call void @llvm.lifetime.end.p0(i64 8, ptr nonnull %26) #16
  br label %105

105:                                              ; preds = %103, %95
  %106 = phi double [ %102, %95 ], [ %104, %103 ]
  %107 = getelementptr inbounds i32, ptr %33, i64 3
  %108 = load i32, ptr %107, align 4, !tbaa !30
  %109 = sext i32 %108 to i64
  %110 = getelementptr inbounds i32, ptr %92, i64 %109
  %111 = load i32, ptr %110, align 4, !tbaa !30
  %112 = icmp eq i32 %111, 21
  br i1 %112, label %113, label %121

113:                                              ; preds = %105
  %114 = getelementptr inbounds i32, ptr %110, i64 2
  %115 = load i32, ptr %114, align 4, !tbaa !30
  %116 = getelementptr inbounds %"class.xalanc_1_8::XPathExpression", ptr %0, i64 0, i32 5
  %117 = sext i32 %115 to i64
  %118 = load ptr, ptr %116, align 8, !tbaa !40
  %119 = getelementptr inbounds double, ptr %118, i64 %117
  %120 = load double, ptr %119, align 8, !tbaa !41
  br label %123

121:                                              ; preds = %105
  call void @llvm.lifetime.start.p0(i64 8, ptr nonnull %25) #16
  call void @_ZNK10xalanc_1_85XPath11executeMoreEPNS_9XalanNodeEN9__gnu_cxx17__normal_iteratorIPKiSt6vectorIiSaIiEEEERNS_21XPathExecutionContextERd(ptr noundef nonnull align 8 dereferenceable(105) %0, ptr noundef %1, ptr nonnull %110, ptr noundef nonnull align 8 dereferenceable(16) %3, ptr noundef nonnull align 8 dereferenceable(8) %25)
  %122 = load double, ptr %25, align 8, !tbaa !41
  call void @llvm.lifetime.end.p0(i64 8, ptr nonnull %25) #16
  br label %123

123:                                              ; preds = %113, %121
  %124 = phi double [ %120, %113 ], [ %122, %121 ]
  %125 = tail call reassoc nnan ninf nsz arcp afn noundef nofpclass(nan inf) double @_ZN10xalanc_1_813DoubleSupport3addEdd(double noundef nofpclass(nan inf) %106, double noundef nofpclass(nan inf) %124)
  %126 = tail call noundef nonnull align 8 dereferenceable(28) ptr @_ZN10xalanc_1_817DoubleToDOMStringEdRNS_14XalanDOMStringE(double noundef nofpclass(nan inf) %125, ptr noundef nonnull align 8 dereferenceable(28) %4)
  br label %610

127:                                              ; preds = %32
  %128 = getelementptr inbounds i32, ptr %33, i64 2
  %129 = load i32, ptr %128, align 4, !tbaa !30
  %130 = icmp eq i32 %129, 21
  br i1 %130, label %131, label %139

131:                                              ; preds = %127
  %132 = getelementptr inbounds i32, ptr %33, i64 4
  %133 = load i32, ptr %132, align 4, !tbaa !30
  %134 = getelementptr inbounds %"class.xalanc_1_8::XPathExpression", ptr %0, i64 0, i32 5
  %135 = sext i32 %133 to i64
  %136 = load ptr, ptr %134, align 8, !tbaa !40
  %137 = getelementptr inbounds double, ptr %136, i64 %135
  %138 = load double, ptr %137, align 8, !tbaa !41
  br label %141

139:                                              ; preds = %127
  call void @llvm.lifetime.start.p0(i64 8, ptr nonnull %24) #16
  call void @_ZNK10xalanc_1_85XPath11executeMoreEPNS_9XalanNodeEN9__gnu_cxx17__normal_iteratorIPKiSt6vectorIiSaIiEEEERNS_21XPathExecutionContextERd(ptr noundef nonnull align 8 dereferenceable(105) %0, ptr noundef %1, ptr nonnull %128, ptr noundef nonnull align 8 dereferenceable(16) %3, ptr noundef nonnull align 8 dereferenceable(8) %24)
  %140 = load double, ptr %24, align 8, !tbaa !41
  call void @llvm.lifetime.end.p0(i64 8, ptr nonnull %24) #16
  br label %141

141:                                              ; preds = %139, %131
  %142 = phi double [ %138, %131 ], [ %140, %139 ]
  %143 = getelementptr inbounds i32, ptr %33, i64 3
  %144 = load i32, ptr %143, align 4, !tbaa !30
  %145 = sext i32 %144 to i64
  %146 = getelementptr inbounds i32, ptr %128, i64 %145
  %147 = load i32, ptr %146, align 4, !tbaa !30
  %148 = icmp eq i32 %147, 21
  br i1 %148, label %149, label %157

149:                                              ; preds = %141
  %150 = getelementptr inbounds i32, ptr %146, i64 2
  %151 = load i32, ptr %150, align 4, !tbaa !30
  %152 = getelementptr inbounds %"class.xalanc_1_8::XPathExpression", ptr %0, i64 0, i32 5
  %153 = sext i32 %151 to i64
  %154 = load ptr, ptr %152, align 8, !tbaa !40
  %155 = getelementptr inbounds double, ptr %154, i64 %153
  %156 = load double, ptr %155, align 8, !tbaa !41
  br label %159

157:                                              ; preds = %141
  call void @llvm.lifetime.start.p0(i64 8, ptr nonnull %23) #16
  call void @_ZNK10xalanc_1_85XPath11executeMoreEPNS_9XalanNodeEN9__gnu_cxx17__normal_iteratorIPKiSt6vectorIiSaIiEEEERNS_21XPathExecutionContextERd(ptr noundef nonnull align 8 dereferenceable(105) %0, ptr noundef %1, ptr nonnull %146, ptr noundef nonnull align 8 dereferenceable(16) %3, ptr noundef nonnull align 8 dereferenceable(8) %23)
  %158 = load double, ptr %23, align 8, !tbaa !41
  call void @llvm.lifetime.end.p0(i64 8, ptr nonnull %23) #16
  br label %159

159:                                              ; preds = %149, %157
  %160 = phi double [ %156, %149 ], [ %158, %157 ]
  %161 = tail call reassoc nnan ninf nsz arcp afn noundef nofpclass(nan inf) double @_ZN10xalanc_1_813DoubleSupport8subtractEdd(double noundef nofpclass(nan inf) %142, double noundef nofpclass(nan inf) %160)
  %162 = tail call noundef nonnull align 8 dereferenceable(28) ptr @_ZN10xalanc_1_817DoubleToDOMStringEdRNS_14XalanDOMStringE(double noundef nofpclass(nan inf) %161, ptr noundef nonnull align 8 dereferenceable(28) %4)
  br label %610

163:                                              ; preds = %32
  %164 = getelementptr inbounds i32, ptr %33, i64 2
  %165 = load i32, ptr %164, align 4, !tbaa !30
  %166 = icmp eq i32 %165, 21
  br i1 %166, label %167, label %175

167:                                              ; preds = %163
  %168 = getelementptr inbounds i32, ptr %33, i64 4
  %169 = load i32, ptr %168, align 4, !tbaa !30
  %170 = getelementptr inbounds %"class.xalanc_1_8::XPathExpression", ptr %0, i64 0, i32 5
  %171 = sext i32 %169 to i64
  %172 = load ptr, ptr %170, align 8, !tbaa !40
  %173 = getelementptr inbounds double, ptr %172, i64 %171
  %174 = load double, ptr %173, align 8, !tbaa !41
  br label %177

175:                                              ; preds = %163
