; ModuleID = 'Constants.cpp'
source_filename = "Constants.cpp"
target datalayout = "e-m:e-p270:32:32-p271:32:32-p272:64:64-i64:64-f80:128-n8:16:32:64-S128"
target triple = "x86_64-unknown-linux-gnu"

%"class.xalanc_1_8::XalanDOMString" = type <{ %"class.std::vector", i32, [4 x i8] }>
%"class.std::vector" = type { %"struct.std::_Vector_base" }
%"struct.std::_Vector_base" = type { %"struct.std::_Vector_base<unsigned short, std::allocator<unsigned short> >::_Vector_impl" }
%"struct.std::_Vector_base<unsigned short, std::allocator<unsigned short> >::_Vector_impl" = type { %"struct.std::_Vector_base<unsigned short, std::allocator<unsigned short> >::_Vector_impl_data" }
%"struct.std::_Vector_base<unsigned short, std::allocator<unsigned short> >::_Vector_impl_data" = type { ptr, ptr, ptr }

$_ZN10xalanc_1_814XalanDOMStringD2Ev = comdat any

$_ZNSt6vectorItSaItEEaSERKS1_ = comdat any

@_ZL18ATTRNAME_CASEORDER = internal global %"class.xalanc_1_8::XalanDOMString" zeroinitializer, align 8
@__dso_handle = external hidden global i8
@_ZL14ATTRNAME_COUNT = internal global %"class.xalanc_1_8::XalanDOMString" zeroinitializer, align 8
@_ZL17ATTRNAME_DATATYPE = internal global %"class.xalanc_1_8::XalanDOMString" zeroinitializer, align 8
@_ZL25ATTRNAME_DECIMALSEPARATOR = internal global %"class.xalanc_1_8::XalanDOMString" zeroinitializer, align 8
@_ZL16ATTRNAME_DEFAULT = internal global %"class.xalanc_1_8::XalanDOMString" zeroinitializer, align 8
@_ZL21ATTRNAME_DEFAULTSPACE = internal global %"class.xalanc_1_8::XalanDOMString" zeroinitializer, align 8
@_ZL14ATTRNAME_DIGIT = internal global %"class.xalanc_1_8::XalanDOMString" zeroinitializer, align 8
@_ZL22ATTRNAME_DIGITGROUPSEP = internal global %"class.xalanc_1_8::XalanDOMString" zeroinitializer, align 8
@_ZL32ATTRNAME_DISABLE_OUTPUT_ESCAPING = internal global %"class.xalanc_1_8::XalanDOMString" zeroinitializer, align 8
@_ZL17ATTRNAME_ELEMENTS = internal global %"class.xalanc_1_8::XalanDOMString" zeroinitializer, align 8
@_ZL32ATTRNAME_EXCLUDE_RESULT_PREFIXES = internal global %"class.xalanc_1_8::XalanDOMString" zeroinitializer, align 8
@_ZL33ATTRNAME_EXTENSIONELEMENTPREFIXES = internal global %"class.xalanc_1_8::XalanDOMString" zeroinitializer, align 8
@_ZL20ATTRNAME_ESCAPE_URLS = internal global %"class.xalanc_1_8::XalanDOMString" zeroinitializer, align 8
@_ZL15ATTRNAME_FORMAT = internal global %"class.xalanc_1_8::XalanDOMString" zeroinitializer, align 8
@_ZL13ATTRNAME_FROM = internal global %"class.xalanc_1_8::XalanDOMString" zeroinitializer, align 8
@_ZL26ATTRNAME_GROUPINGSEPARATOR = internal global %"class.xalanc_1_8::XalanDOMString" zeroinitializer, align 8
@_ZL21ATTRNAME_GROUPINGSIZE = internal global %"class.xalanc_1_8::XalanDOMString" zeroinitializer, align 8
@_ZL13ATTRNAME_HREF = internal global %"class.xalanc_1_8::XalanDOMString" zeroinitializer, align 8
@_ZL11ATTRNAME_ID = internal global %"class.xalanc_1_8::XalanDOMString" zeroinitializer, align 8
@_ZL21ATTRNAME_INDENTAMOUNT = internal global %"class.xalanc_1_8::XalanDOMString" zeroinitializer, align 8
@_ZL21ATTRNAME_INDENTRESULT = internal global %"class.xalanc_1_8::XalanDOMString" zeroinitializer, align 8
@_ZL17ATTRNAME_INFINITY = internal global %"class.xalanc_1_8::XalanDOMString" zeroinitializer, align 8
@_ZL13ATTRNAME_LANG = internal global %"class.xalanc_1_8::XalanDOMString" zeroinitializer, align 8
@_ZL20ATTRNAME_LETTERVALUE = internal global %"class.xalanc_1_8::XalanDOMString" zeroinitializer, align 8
@_ZL14ATTRNAME_MATCH = internal global %"class.xalanc_1_8::XalanDOMString" zeroinitializer, align 8
@_ZL18ATTRNAME_MINUSSIGN = internal global %"class.xalanc_1_8::XalanDOMString" zeroinitializer, align 8
@_ZL13ATTRNAME_MODE = internal global %"class.xalanc_1_8::XalanDOMString" zeroinitializer, align 8
@_ZL13ATTRNAME_NAME = internal global %"class.xalanc_1_8::XalanDOMString" zeroinitializer, align 8
@_ZL18ATTRNAME_NAMESPACE = internal global %"class.xalanc_1_8::XalanDOMString" zeroinitializer, align 8
@_ZL12ATTRNAME_NAN = internal global %"class.xalanc_1_8::XalanDOMString" zeroinitializer, align 8
@_ZL24ATTRNAME_NDIGITSPERGROUP = internal global %"class.xalanc_1_8::XalanDOMString" zeroinitializer, align 8
@_ZL22ATTRNAME_OMIT_META_TAG = internal global %"class.xalanc_1_8::XalanDOMString" zeroinitializer, align 8
@_ZL14ATTRNAME_ORDER = internal global %"class.xalanc_1_8::XalanDOMString" zeroinitializer, align 8
@_ZL38ATTRNAME_OUTPUT_CDATA_SECTION_ELEMENTS = internal global %"class.xalanc_1_8::XalanDOMString" zeroinitializer, align 8
@_ZL30ATTRNAME_OUTPUT_DOCTYPE_PUBLIC = internal global %"class.xalanc_1_8::XalanDOMString" zeroinitializer, align 8
@_ZL30ATTRNAME_OUTPUT_DOCTYPE_SYSTEM = internal global %"class.xalanc_1_8::XalanDOMString" zeroinitializer, align 8
@_ZL24ATTRNAME_OUTPUT_ENCODING = internal global %"class.xalanc_1_8::XalanDOMString" zeroinitializer, align 8
@_ZL22ATTRNAME_OUTPUT_INDENT = internal global %"class.xalanc_1_8::XalanDOMString" zeroinitializer, align 8
@_ZL25ATTRNAME_OUTPUT_MEDIATYPE = internal global %"class.xalanc_1_8::XalanDOMString" zeroinitializer, align 8
@_ZL22ATTRNAME_OUTPUT_METHOD = internal global %"class.xalanc_1_8::XalanDOMString" zeroinitializer, align 8
@_ZL27ATTRNAME_OUTPUT_OMITXMLDECL = internal global %"class.xalanc_1_8::XalanDOMString" zeroinitializer, align 8
@_ZL26ATTRNAME_OUTPUT_STANDALONE = internal global %"class.xalanc_1_8::XalanDOMString" zeroinitializer, align 8
@_ZL23ATTRNAME_OUTPUT_VERSION = internal global %"class.xalanc_1_8::XalanDOMString" zeroinitializer, align 8
@_ZL25ATTRNAME_PATTERNSEPARATOR = internal global %"class.xalanc_1_8::XalanDOMString" zeroinitializer, align 8
@_ZL16ATTRNAME_PERCENT = internal global %"class.xalanc_1_8::XalanDOMString" zeroinitializer, align 8
@_ZL17ATTRNAME_PERMILLE = internal global %"class.xalanc_1_8::XalanDOMString" zeroinitializer, align 8
@_ZL15ATTRNAME_PREFIX = internal global %"class.xalanc_1_8::XalanDOMString" zeroinitializer, align 8
@_ZL17ATTRNAME_PRIORITY = internal global %"class.xalanc_1_8::XalanDOMString" zeroinitializer, align 8
@_ZL17ATTRNAME_RESULTNS = internal global %"class.xalanc_1_8::XalanDOMString" zeroinitializer, align 8
@_ZL22ATTRNAME_RESULT_PREFIX = internal global %"class.xalanc_1_8::XalanDOMString" zeroinitializer, align 8
@_ZL15ATTRNAME_SELECT = internal global %"class.xalanc_1_8::XalanDOMString" zeroinitializer, align 8
@_ZL26ATTRNAME_STYLESHEET_PREFIX = internal global %"class.xalanc_1_8::XalanDOMString" zeroinitializer, align 8
@_ZL18ATTRNAME_TERMINATE = internal global %"class.xalanc_1_8::XalanDOMString" zeroinitializer, align 8
@_ZL13ATTRNAME_TEST = internal global %"class.xalanc_1_8::XalanDOMString" zeroinitializer, align 8
@_ZL13ATTRNAME_TYPE = internal global %"class.xalanc_1_8::XalanDOMString" zeroinitializer, align 8
@_ZL12ATTRNAME_USE = internal global %"class.xalanc_1_8::XalanDOMString" zeroinitializer, align 8
@_ZL25ATTRNAME_USEATTRIBUTESETS = internal global %"class.xalanc_1_8::XalanDOMString" zeroinitializer, align 8
@_ZL14ATTRNAME_VALUE = internal global %"class.xalanc_1_8::XalanDOMString" zeroinitializer, align 8
@_ZL16ATTRNAME_VERSION = internal global %"class.xalanc_1_8::XalanDOMString" zeroinitializer, align 8
@_ZL14ATTRNAME_SPACE = internal global %"class.xalanc_1_8::XalanDOMString" zeroinitializer, align 8
@_ZL17ATTRNAME_XMLSPACE = internal global %"class.xalanc_1_8::XalanDOMString" zeroinitializer, align 8
@_ZL18ATTRNAME_ZERODIGIT = internal global %"class.xalanc_1_8::XalanDOMString" zeroinitializer, align 8
@_ZL14ATTRTYPE_CDATA = internal global %"class.xalanc_1_8::XalanDOMString" zeroinitializer, align 8
@_ZL23ATTRVAL_CASEORDER_LOWER = internal global %"class.xalanc_1_8::XalanDOMString" zeroinitializer, align 8
@_ZL23ATTRVAL_CASEORDER_UPPER = internal global %"class.xalanc_1_8::XalanDOMString" zeroinitializer, align 8
@_ZL23ATTRVAL_DATATYPE_NUMBER = internal global %"class.xalanc_1_8::XalanDOMString" zeroinitializer, align 8
@_ZL21ATTRVAL_DATATYPE_TEXT = internal global %"class.xalanc_1_8::XalanDOMString" zeroinitializer, align 8
@_ZL15ATTRVAL_DEFAULT = internal global %"class.xalanc_1_8::XalanDOMString" zeroinitializer, align 8
@_ZL22ATTRVAL_DEFAULT_PREFIX = internal global %"class.xalanc_1_8::XalanDOMString" zeroinitializer, align 8
@_ZL25ATTRVAL_DEFAULT_TEXT_RULE = internal global %"class.xalanc_1_8::XalanDOMString" zeroinitializer, align 8
@_ZL16ATTRVAL_INFINITY = internal global %"class.xalanc_1_8::XalanDOMString" zeroinitializer, align 8
@_ZL11ATTRVAL_NAN = internal global %"class.xalanc_1_8::XalanDOMString" zeroinitializer, align 8
@_ZL10ATTRVAL_NO = internal global %"class.xalanc_1_8::XalanDOMString" zeroinitializer, align 8
@_ZL23ATTRVAL_ORDER_ASCENDING = internal global %"class.xalanc_1_8::XalanDOMString" zeroinitializer, align 8
@_ZL24ATTRVAL_ORDER_DESCENDING = internal global %"class.xalanc_1_8::XalanDOMString" zeroinitializer, align 8
@_ZL26ATTRVAL_OUTPUT_METHOD_HTML = internal global %"class.xalanc_1_8::XalanDOMString" zeroinitializer, align 8
@_ZL26ATTRVAL_OUTPUT_METHOD_TEXT = internal global %"class.xalanc_1_8::XalanDOMString" zeroinitializer, align 8
@_ZL25ATTRVAL_OUTPUT_METHOD_XML = internal global %"class.xalanc_1_8::XalanDOMString" zeroinitializer, align 8
@_ZL16ATTRVAL_PRESERVE = internal global %"class.xalanc_1_8::XalanDOMString" zeroinitializer, align 8
@_ZL14ATTRVAL_SIMPLE = internal global %"class.xalanc_1_8::XalanDOMString" zeroinitializer, align 8
@_ZL13ATTRVAL_STRIP = internal global %"class.xalanc_1_8::XalanDOMString" zeroinitializer, align 8
@_ZL12ATTRVAL_THIS = internal global %"class.xalanc_1_8::XalanDOMString" zeroinitializer, align 8
@_ZL11ATTRVAL_YES = internal global %"class.xalanc_1_8::XalanDOMString" zeroinitializer, align 8
@_ZL35DEFAULT_WHITESPACE_SEPARATOR_STRING = internal global %"class.xalanc_1_8::XalanDOMString" zeroinitializer, align 8
@_ZL19ELEMNAME_ANY_STRING = internal global %"class.xalanc_1_8::XalanDOMString" zeroinitializer, align 8
@_ZL41ELEMNAME_APPLY_IMPORTS_WITH_PREFIX_STRING = internal global %"class.xalanc_1_8::XalanDOMString" zeroinitializer, align 8
@_ZL43ELEMNAME_APPLY_TEMPLATES_WITH_PREFIX_STRING = internal global %"class.xalanc_1_8::XalanDOMString" zeroinitializer, align 8
@_ZL40ELEMNAME_ATTRIBUTESET_WITH_PREFIX_STRING = internal global %"class.xalanc_1_8::XalanDOMString" zeroinitializer, align 8
@_ZL37ELEMNAME_ATTRIBUTE_WITH_PREFIX_STRING = internal global %"class.xalanc_1_8::XalanDOMString" zeroinitializer, align 8
@_ZL40ELEMNAME_CALLTEMPLATE_WITH_PREFIX_STRING = internal global %"class.xalanc_1_8::XalanDOMString" zeroinitializer, align 8
@_ZL34ELEMNAME_CHOOSE_WITH_PREFIX_STRING = internal global %"class.xalanc_1_8::XalanDOMString" zeroinitializer, align 8
@_ZL35ELEMNAME_COMMENT_WITH_PREFIX_STRING = internal global %"class.xalanc_1_8::XalanDOMString" zeroinitializer, align 8
@_ZL35ELEMNAME_COPY_OF_WITH_PREFIX_STRING = internal global %"class.xalanc_1_8::XalanDOMString" zeroinitializer, align 8
@_ZL32ELEMNAME_COPY_WITH_PREFIX_STRING = internal global %"class.xalanc_1_8::XalanDOMString" zeroinitializer, align 8
@_ZL41ELEMNAME_DECIMALFORMAT_WITH_PREFIX_STRING = internal global %"class.xalanc_1_8::XalanDOMString" zeroinitializer, align 8
@_ZL25ELEMNAME_DISPLAYIF_STRING = internal global %"class.xalanc_1_8::XalanDOMString" zeroinitializer, align 8
@_ZL35ELEMNAME_ELEMENT_WITH_PREFIX_STRING = internal global %"class.xalanc_1_8::XalanDOMString" zeroinitializer, align 8
@_ZL36ELEMNAME_FALLBACK_WITH_PREFIX_STRING = internal global %"class.xalanc_1_8::XalanDOMString" zeroinitializer, align 8
@_ZL35ELEMNAME_FOREACH_WITH_PREFIX_STRING = internal global %"class.xalanc_1_8::XalanDOMString" zeroinitializer, align 8
@_ZL20ELEMNAME_HTML_STRING = internal global %"class.xalanc_1_8::XalanDOMString" zeroinitializer, align 8
@_ZL30ELEMNAME_IF_WITH_PREFIX_STRING = internal global %"class.xalanc_1_8::XalanDOMString" zeroinitializer, align 8
@_ZL34ELEMNAME_IMPORT_WITH_PREFIX_STRING = internal global %"class.xalanc_1_8::XalanDOMString" zeroinitializer, align 8
@_ZL35ELEMNAME_INCLUDE_WITH_PREFIX_STRING = internal global %"class.xalanc_1_8::XalanDOMString" zeroinitializer, align 8
@_ZL31ELEMNAME_KEY_WITH_PREFIX_STRING = internal global %"class.xalanc_1_8::XalanDOMString" zeroinitializer, align 8
@_ZL35ELEMNAME_MESSAGE_WITH_PREFIX_STRING = internal global %"class.xalanc_1_8::XalanDOMString" zeroinitializer, align 8
@_ZL34ELEMNAME_NUMBER_WITH_PREFIX_STRING = internal global %"class.xalanc_1_8::XalanDOMString" zeroinitializer, align 8
@_ZL37ELEMNAME_OTHERWISE_WITH_PREFIX_STRING = internal global %"class.xalanc_1_8::XalanDOMString" zeroinitializer, align 8
@_ZL33ELEMNAME_PARAM_WITH_PREFIX_STRING = internal global %"class.xalanc_1_8::XalanDOMString" zeroinitializer, align 8
@_ZL30ELEMNAME_PI_WITH_PREFIX_STRING = internal global %"class.xalanc_1_8::XalanDOMString" zeroinitializer, align 8
@_ZL41ELEMNAME_PRESERVESPACE_WITH_PREFIX_STRING = internal global %"class.xalanc_1_8::XalanDOMString" zeroinitializer, align 8
@_ZL32ELEMNAME_SORT_WITH_PREFIX_STRING = internal global %"class.xalanc_1_8::XalanDOMString" zeroinitializer, align 8
@_ZL38ELEMNAME_STRIPSPACE_WITH_PREFIX_STRING = internal global %"class.xalanc_1_8::XalanDOMString" zeroinitializer, align 8
@_ZL36ELEMNAME_TEMPLATE_WITH_PREFIX_STRING = internal global %"class.xalanc_1_8::XalanDOMString" zeroinitializer, align 8
@_ZL32ELEMNAME_TEXT_WITH_PREFIX_STRING = internal global %"class.xalanc_1_8::XalanDOMString" zeroinitializer, align 8
@_ZL35ELEMNAME_VALUEOF_WITH_PREFIX_STRING = internal global %"class.xalanc_1_8::XalanDOMString" zeroinitializer, align 8
@_ZL36ELEMNAME_VARIABLE_WITH_PREFIX_STRING = internal global %"class.xalanc_1_8::XalanDOMString" zeroinitializer, align 8
@_ZL32ELEMNAME_WHEN_WITH_PREFIX_STRING = internal global %"class.xalanc_1_8::XalanDOMString" zeroinitializer, align 8
@_ZL37ELEMNAME_WITHPARAM_WITH_PREFIX_STRING = internal global %"class.xalanc_1_8::XalanDOMString" zeroinitializer, align 8
@_ZL15PSEUDONAME_NODE = internal global %"class.xalanc_1_8::XalanDOMString" zeroinitializer, align 8
@_ZN10xalanc_1_89Constants18ATTRNAME_CASEORDERE = dso_local local_unnamed_addr constant ptr @_ZL18ATTRNAME_CASEORDER, align 8
@_ZN10xalanc_1_89Constants14ATTRNAME_COUNTE = dso_local local_unnamed_addr constant ptr @_ZL14ATTRNAME_COUNT, align 8
@_ZN10xalanc_1_89Constants17ATTRNAME_DATATYPEE = dso_local local_unnamed_addr constant ptr @_ZL17ATTRNAME_DATATYPE, align 8
@_ZN10xalanc_1_89Constants25ATTRNAME_DECIMALSEPARATORE = dso_local local_unnamed_addr constant ptr @_ZL25ATTRNAME_DECIMALSEPARATOR, align 8
@_ZN10xalanc_1_89Constants16ATTRNAME_DEFAULTE = dso_local local_unnamed_addr constant ptr @_ZL16ATTRNAME_DEFAULT, align 8
@_ZN10xalanc_1_89Constants21ATTRNAME_DEFAULTSPACEE = dso_local local_unnamed_addr constant ptr @_ZL21ATTRNAME_DEFAULTSPACE, align 8
@_ZN10xalanc_1_89Constants14ATTRNAME_DIGITE = dso_local local_unnamed_addr constant ptr @_ZL14ATTRNAME_DIGIT, align 8
@_ZN10xalanc_1_89Constants22ATTRNAME_DIGITGROUPSEPE = dso_local local_unnamed_addr constant ptr @_ZL22ATTRNAME_DIGITGROUPSEP, align 8
@_ZN10xalanc_1_89Constants32ATTRNAME_DISABLE_OUTPUT_ESCAPINGE = dso_local local_unnamed_addr constant ptr @_ZL32ATTRNAME_DISABLE_OUTPUT_ESCAPING, align 8
@_ZN10xalanc_1_89Constants17ATTRNAME_ELEMENTSE = dso_local local_unnamed_addr constant ptr @_ZL17ATTRNAME_ELEMENTS, align 8
@_ZN10xalanc_1_89Constants20ATTRNAME_ESCAPE_URLSE = dso_local local_unnamed_addr constant ptr @_ZL20ATTRNAME_ESCAPE_URLS, align 8
@_ZN10xalanc_1_89Constants32ATTRNAME_EXCLUDE_RESULT_PREFIXESE = dso_local local_unnamed_addr constant ptr @_ZL32ATTRNAME_EXCLUDE_RESULT_PREFIXES, align 8
@_ZN10xalanc_1_89Constants33ATTRNAME_EXTENSIONELEMENTPREFIXESE = dso_local local_unnamed_addr constant ptr @_ZL33ATTRNAME_EXTENSIONELEMENTPREFIXES, align 8
@_ZN10xalanc_1_89Constants15ATTRNAME_FORMATE = dso_local local_unnamed_addr constant ptr @_ZL15ATTRNAME_FORMAT, align 8
@_ZN10xalanc_1_89Constants13ATTRNAME_FROME = dso_local local_unnamed_addr constant ptr @_ZL13ATTRNAME_FROM, align 8
@_ZN10xalanc_1_89Constants26ATTRNAME_GROUPINGSEPARATORE = dso_local local_unnamed_addr constant ptr @_ZL26ATTRNAME_GROUPINGSEPARATOR, align 8
@_ZN10xalanc_1_89Constants21ATTRNAME_GROUPINGSIZEE = dso_local local_unnamed_addr constant ptr @_ZL21ATTRNAME_GROUPINGSIZE, align 8
@_ZN10xalanc_1_89Constants13ATTRNAME_HREFE = dso_local local_unnamed_addr constant ptr @_ZL13ATTRNAME_HREF, align 8
@_ZN10xalanc_1_89Constants11ATTRNAME_IDE = dso_local local_unnamed_addr constant ptr @_ZL11ATTRNAME_ID, align 8
@_ZN10xalanc_1_89Constants21ATTRNAME_INDENTAMOUNTE = dso_local local_unnamed_addr constant ptr @_ZL21ATTRNAME_INDENTAMOUNT, align 8
@_ZN10xalanc_1_89Constants21ATTRNAME_INDENTRESULTE = dso_local local_unnamed_addr constant ptr @_ZL21ATTRNAME_INDENTRESULT, align 8
@_ZN10xalanc_1_89Constants17ATTRNAME_INFINITYE = dso_local local_unnamed_addr constant ptr @_ZL17ATTRNAME_INFINITY, align 8
@_ZN10xalanc_1_89Constants13ATTRNAME_LANGE = dso_local local_unnamed_addr constant ptr @_ZL13ATTRNAME_LANG, align 8
@_ZN10xalanc_1_89Constants20ATTRNAME_LETTERVALUEE = dso_local local_unnamed_addr constant ptr @_ZL20ATTRNAME_LETTERVALUE, align 8
@_ZN10xalanc_1_89Constants14ATTRNAME_MATCHE = dso_local local_unnamed_addr constant ptr @_ZL14ATTRNAME_MATCH, align 8
@_ZN10xalanc_1_89Constants18ATTRNAME_MINUSSIGNE = dso_local local_unnamed_addr constant ptr @_ZL18ATTRNAME_MINUSSIGN, align 8
@_ZN10xalanc_1_89Constants13ATTRNAME_MODEE = dso_local local_unnamed_addr constant ptr @_ZL13ATTRNAME_MODE, align 8
@_ZN10xalanc_1_89Constants13ATTRNAME_NAMEE = dso_local local_unnamed_addr constant ptr @_ZL13ATTRNAME_NAME, align 8
@_ZN10xalanc_1_89Constants18ATTRNAME_NAMESPACEE = dso_local local_unnamed_addr constant ptr @_ZL18ATTRNAME_NAMESPACE, align 8
@_ZN10xalanc_1_89Constants12ATTRNAME_NANE = dso_local local_unnamed_addr constant ptr @_ZL12ATTRNAME_NAN, align 8
@_ZN10xalanc_1_89Constants24ATTRNAME_NDIGITSPERGROUPE = dso_local local_unnamed_addr constant ptr @_ZL24ATTRNAME_NDIGITSPERGROUP, align 8
@_ZN10xalanc_1_89Constants22ATTRNAME_OMIT_META_TAGE = dso_local local_unnamed_addr constant ptr @_ZL22ATTRNAME_OMIT_META_TAG, align 8
@_ZN10xalanc_1_89Constants14ATTRNAME_ORDERE = dso_local local_unnamed_addr constant ptr @_ZL14ATTRNAME_ORDER, align 8
@_ZN10xalanc_1_89Constants38ATTRNAME_OUTPUT_CDATA_SECTION_ELEMENTSE = dso_local local_unnamed_addr constant ptr @_ZL38ATTRNAME_OUTPUT_CDATA_SECTION_ELEMENTS, align 8
@_ZN10xalanc_1_89Constants30ATTRNAME_OUTPUT_DOCTYPE_PUBLICE = dso_local local_unnamed_addr constant ptr @_ZL30ATTRNAME_OUTPUT_DOCTYPE_PUBLIC, align 8
@_ZN10xalanc_1_89Constants30ATTRNAME_OUTPUT_DOCTYPE_SYSTEME = dso_local local_unnamed_addr constant ptr @_ZL30ATTRNAME_OUTPUT_DOCTYPE_SYSTEM, align 8
@_ZN10xalanc_1_89Constants24ATTRNAME_OUTPUT_ENCODINGE = dso_local local_unnamed_addr constant ptr @_ZL24ATTRNAME_OUTPUT_ENCODING, align 8
@_ZN10xalanc_1_89Constants22ATTRNAME_OUTPUT_INDENTE = dso_local local_unnamed_addr constant ptr @_ZL22ATTRNAME_OUTPUT_INDENT, align 8
@_ZN10xalanc_1_89Constants25ATTRNAME_OUTPUT_MEDIATYPEE = dso_local local_unnamed_addr constant ptr @_ZL25ATTRNAME_OUTPUT_MEDIATYPE, align 8
@_ZN10xalanc_1_89Constants22ATTRNAME_OUTPUT_METHODE = dso_local local_unnamed_addr constant ptr @_ZL22ATTRNAME_OUTPUT_METHOD, align 8
@_ZN10xalanc_1_89Constants27ATTRNAME_OUTPUT_OMITXMLDECLE = dso_local local_unnamed_addr constant ptr @_ZL27ATTRNAME_OUTPUT_OMITXMLDECL, align 8
@_ZN10xalanc_1_89Constants26ATTRNAME_OUTPUT_STANDALONEE = dso_local local_unnamed_addr constant ptr @_ZL26ATTRNAME_OUTPUT_STANDALONE, align 8
@_ZN10xalanc_1_89Constants23ATTRNAME_OUTPUT_VERSIONE = dso_local local_unnamed_addr constant ptr @_ZL23ATTRNAME_OUTPUT_VERSION, align 8
@_ZN10xalanc_1_89Constants25ATTRNAME_PATTERNSEPARATORE = dso_local local_unnamed_addr constant ptr @_ZL25ATTRNAME_PATTERNSEPARATOR, align 8
@_ZN10xalanc_1_89Constants16ATTRNAME_PERCENTE = dso_local local_unnamed_addr constant ptr @_ZL16ATTRNAME_PERCENT, align 8
@_ZN10xalanc_1_89Constants17ATTRNAME_PERMILLEE = dso_local local_unnamed_addr constant ptr @_ZL17ATTRNAME_PERMILLE, align 8
@_ZN10xalanc_1_89Constants15ATTRNAME_PREFIXE = dso_local local_unnamed_addr constant ptr @_ZL15ATTRNAME_PREFIX, align 8
@_ZN10xalanc_1_89Constants17ATTRNAME_PRIORITYE = dso_local local_unnamed_addr constant ptr @_ZL17ATTRNAME_PRIORITY, align 8
@_ZN10xalanc_1_89Constants17ATTRNAME_RESULTNSE = dso_local local_unnamed_addr constant ptr @_ZL17ATTRNAME_RESULTNS, align 8
@_ZN10xalanc_1_89Constants22ATTRNAME_RESULT_PREFIXE = dso_local local_unnamed_addr constant ptr @_ZL22ATTRNAME_RESULT_PREFIX, align 8
@_ZN10xalanc_1_89Constants15ATTRNAME_SELECTE = dso_local local_unnamed_addr constant ptr @_ZL15ATTRNAME_SELECT, align 8
@_ZN10xalanc_1_89Constants26ATTRNAME_STYLESHEET_PREFIXE = dso_local local_unnamed_addr constant ptr @_ZL26ATTRNAME_STYLESHEET_PREFIX, align 8
@_ZN10xalanc_1_89Constants18ATTRNAME_TERMINATEE = dso_local local_unnamed_addr constant ptr @_ZL18ATTRNAME_TERMINATE, align 8
@_ZN10xalanc_1_89Constants13ATTRNAME_TESTE = dso_local local_unnamed_addr constant ptr @_ZL13ATTRNAME_TEST, align 8
@_ZN10xalanc_1_89Constants13ATTRNAME_TYPEE = dso_local local_unnamed_addr constant ptr @_ZL13ATTRNAME_TYPE, align 8
@_ZN10xalanc_1_89Constants12ATTRNAME_USEE = dso_local local_unnamed_addr constant ptr @_ZL12ATTRNAME_USE, align 8
@_ZN10xalanc_1_89Constants25ATTRNAME_USEATTRIBUTESETSE = dso_local local_unnamed_addr constant ptr @_ZL25ATTRNAME_USEATTRIBUTESETS, align 8
@_ZN10xalanc_1_89Constants14ATTRNAME_VALUEE = dso_local local_unnamed_addr constant ptr @_ZL14ATTRNAME_VALUE, align 8
@_ZN10xalanc_1_89Constants16ATTRNAME_VERSIONE = dso_local local_unnamed_addr constant ptr @_ZL16ATTRNAME_VERSION, align 8
@_ZN10xalanc_1_89Constants14ATTRNAME_SPACEE = dso_local local_unnamed_addr constant ptr @_ZL14ATTRNAME_SPACE, align 8
@_ZN10xalanc_1_89Constants17ATTRNAME_XMLSPACEE = dso_local local_unnamed_addr constant ptr @_ZL17ATTRNAME_XMLSPACE, align 8
@_ZN10xalanc_1_89Constants18ATTRNAME_ZERODIGITE = dso_local local_unnamed_addr constant ptr @_ZL18ATTRNAME_ZERODIGIT, align 8
@_ZN10xalanc_1_89Constants14ATTRTYPE_CDATAE = dso_local local_unnamed_addr constant ptr @_ZL14ATTRTYPE_CDATA, align 8
@_ZN10xalanc_1_89Constants23ATTRVAL_CASEORDER_LOWERE = dso_local local_unnamed_addr constant ptr @_ZL23ATTRVAL_CASEORDER_LOWER, align 8
@_ZN10xalanc_1_89Constants23ATTRVAL_CASEORDER_UPPERE = dso_local local_unnamed_addr constant ptr @_ZL23ATTRVAL_CASEORDER_UPPER, align 8
@_ZN10xalanc_1_89Constants23ATTRVAL_DATATYPE_NUMBERE = dso_local local_unnamed_addr constant ptr @_ZL23ATTRVAL_DATATYPE_NUMBER, align 8
@_ZN10xalanc_1_89Constants21ATTRVAL_DATATYPE_TEXTE = dso_local local_unnamed_addr constant ptr @_ZL21ATTRVAL_DATATYPE_TEXT, align 8
@_ZN10xalanc_1_89Constants15ATTRVAL_DEFAULTE = dso_local local_unnamed_addr constant ptr @_ZL15ATTRVAL_DEFAULT, align 8
@_ZN10xalanc_1_89Constants22ATTRVAL_DEFAULT_PREFIXE = dso_local local_unnamed_addr constant ptr @_ZL22ATTRVAL_DEFAULT_PREFIX, align 8
@_ZN10xalanc_1_89Constants25ATTRVAL_DEFAULT_TEXT_RULEE = dso_local local_unnamed_addr constant ptr @_ZL25ATTRVAL_DEFAULT_TEXT_RULE, align 8
@_ZN10xalanc_1_89Constants16ATTRVAL_INFINITYE = dso_local local_unnamed_addr constant ptr @_ZL16ATTRVAL_INFINITY, align 8
@_ZN10xalanc_1_89Constants11ATTRVAL_NANE = dso_local local_unnamed_addr constant ptr @_ZL11ATTRVAL_NAN, align 8
@_ZN10xalanc_1_89Constants10ATTRVAL_NOE = dso_local local_unnamed_addr constant ptr @_ZL10ATTRVAL_NO, align 8
@_ZN10xalanc_1_89Constants23ATTRVAL_ORDER_ASCENDINGE = dso_local local_unnamed_addr constant ptr @_ZL23ATTRVAL_ORDER_ASCENDING, align 8
@_ZN10xalanc_1_89Constants24ATTRVAL_ORDER_DESCENDINGE = dso_local local_unnamed_addr constant ptr @_ZL24ATTRVAL_ORDER_DESCENDING, align 8
@_ZN10xalanc_1_89Constants26ATTRVAL_OUTPUT_METHOD_HTMLE = dso_local local_unnamed_addr constant ptr @_ZL26ATTRVAL_OUTPUT_METHOD_HTML, align 8
@_ZN10xalanc_1_89Constants26ATTRVAL_OUTPUT_METHOD_TEXTE = dso_local local_unnamed_addr constant ptr @_ZL26ATTRVAL_OUTPUT_METHOD_TEXT, align 8
@_ZN10xalanc_1_89Constants25ATTRVAL_OUTPUT_METHOD_XMLE = dso_local local_unnamed_addr constant ptr @_ZL25ATTRVAL_OUTPUT_METHOD_XML, align 8
@_ZN10xalanc_1_89Constants16ATTRVAL_PRESERVEE = dso_local local_unnamed_addr constant ptr @_ZL16ATTRVAL_PRESERVE, align 8
@_ZN10xalanc_1_89Constants14ATTRVAL_SIMPLEE = dso_local local_unnamed_addr constant ptr @_ZL14ATTRVAL_SIMPLE, align 8
@_ZN10xalanc_1_89Constants13ATTRVAL_STRIPE = dso_local local_unnamed_addr constant ptr @_ZL13ATTRVAL_STRIP, align 8
@_ZN10xalanc_1_89Constants12ATTRVAL_THISE = dso_local local_unnamed_addr constant ptr @_ZL12ATTRVAL_THIS, align 8
@_ZN10xalanc_1_89Constants11ATTRVAL_YESE = dso_local local_unnamed_addr constant ptr @_ZL11ATTRVAL_YES, align 8
@_ZN10xalanc_1_89Constants35DEFAULT_WHITESPACE_SEPARATOR_STRINGE = dso_local local_unnamed_addr constant ptr @_ZL35DEFAULT_WHITESPACE_SEPARATOR_STRING, align 8
@_ZN10xalanc_1_89Constants19ELEMNAME_ANY_STRINGE = dso_local local_unnamed_addr constant ptr @_ZL19ELEMNAME_ANY_STRING, align 8
@_ZN10xalanc_1_89Constants41ELEMNAME_APPLY_IMPORTS_WITH_PREFIX_STRINGE = dso_local local_unnamed_addr constant ptr @_ZL41ELEMNAME_APPLY_IMPORTS_WITH_PREFIX_STRING, align 8
@_ZN10xalanc_1_89Constants43ELEMNAME_APPLY_TEMPLATES_WITH_PREFIX_STRINGE = dso_local local_unnamed_addr constant ptr @_ZL43ELEMNAME_APPLY_TEMPLATES_WITH_PREFIX_STRING, align 8
@_ZN10xalanc_1_89Constants40ELEMNAME_ATTRIBUTESET_WITH_PREFIX_STRINGE = dso_local local_unnamed_addr constant ptr @_ZL40ELEMNAME_ATTRIBUTESET_WITH_PREFIX_STRING, align 8
@_ZN10xalanc_1_89Constants37ELEMNAME_ATTRIBUTE_WITH_PREFIX_STRINGE = dso_local local_unnamed_addr constant ptr @_ZL37ELEMNAME_ATTRIBUTE_WITH_PREFIX_STRING, align 8
@_ZN10xalanc_1_89Constants40ELEMNAME_CALLTEMPLATE_WITH_PREFIX_STRINGE = dso_local local_unnamed_addr constant ptr @_ZL40ELEMNAME_CALLTEMPLATE_WITH_PREFIX_STRING, align 8
@_ZN10xalanc_1_89Constants34ELEMNAME_CHOOSE_WITH_PREFIX_STRINGE = dso_local local_unnamed_addr constant ptr @_ZL34ELEMNAME_CHOOSE_WITH_PREFIX_STRING, align 8
@_ZN10xalanc_1_89Constants35ELEMNAME_COMMENT_WITH_PREFIX_STRINGE = dso_local local_unnamed_addr constant ptr @_ZL35ELEMNAME_COMMENT_WITH_PREFIX_STRING, align 8
@_ZN10xalanc_1_89Constants35ELEMNAME_COPY_OF_WITH_PREFIX_STRINGE = dso_local local_unnamed_addr constant ptr @_ZL35ELEMNAME_COPY_OF_WITH_PREFIX_STRING, align 8
@_ZN10xalanc_1_89Constants32ELEMNAME_COPY_WITH_PREFIX_STRINGE = dso_local local_unnamed_addr constant ptr @_ZL32ELEMNAME_COPY_WITH_PREFIX_STRING, align 8
@_ZN10xalanc_1_89Constants41ELEMNAME_DECIMALFORMAT_WITH_PREFIX_STRINGE = dso_local local_unnamed_addr constant ptr @_ZL41ELEMNAME_DECIMALFORMAT_WITH_PREFIX_STRING, align 8
@_ZN10xalanc_1_89Constants35ELEMNAME_ELEMENT_WITH_PREFIX_STRINGE = dso_local local_unnamed_addr constant ptr @_ZL35ELEMNAME_ELEMENT_WITH_PREFIX_STRING, align 8
@_ZN10xalanc_1_89Constants36ELEMNAME_FALLBACK_WITH_PREFIX_STRINGE = dso_local local_unnamed_addr constant ptr @_ZL36ELEMNAME_FALLBACK_WITH_PREFIX_STRING, align 8
@_ZN10xalanc_1_89Constants35ELEMNAME_FOREACH_WITH_PREFIX_STRINGE = dso_local local_unnamed_addr constant ptr @_ZL35ELEMNAME_FOREACH_WITH_PREFIX_STRING, align 8
@_ZN10xalanc_1_89Constants20ELEMNAME_HTML_STRINGE = dso_local local_unnamed_addr constant ptr @_ZL20ELEMNAME_HTML_STRING, align 8
@_ZN10xalanc_1_89Constants30ELEMNAME_IF_WITH_PREFIX_STRINGE = dso_local local_unnamed_addr constant ptr @_ZL30ELEMNAME_IF_WITH_PREFIX_STRING, align 8
@_ZN10xalanc_1_89Constants34ELEMNAME_IMPORT_WITH_PREFIX_STRINGE = dso_local local_unnamed_addr constant ptr @_ZL34ELEMNAME_IMPORT_WITH_PREFIX_STRING, align 8
@_ZN10xalanc_1_89Constants35ELEMNAME_INCLUDE_WITH_PREFIX_STRINGE = dso_local local_unnamed_addr constant ptr @_ZL35ELEMNAME_INCLUDE_WITH_PREFIX_STRING, align 8
@_ZN10xalanc_1_89Constants31ELEMNAME_KEY_WITH_PREFIX_STRINGE = dso_local local_unnamed_addr constant ptr @_ZL31ELEMNAME_KEY_WITH_PREFIX_STRING, align 8
@_ZN10xalanc_1_89Constants35ELEMNAME_MESSAGE_WITH_PREFIX_STRINGE = dso_local local_unnamed_addr constant ptr @_ZL35ELEMNAME_MESSAGE_WITH_PREFIX_STRING, align 8
@_ZN10xalanc_1_89Constants34ELEMNAME_NUMBER_WITH_PREFIX_STRINGE = dso_local local_unnamed_addr constant ptr @_ZL34ELEMNAME_NUMBER_WITH_PREFIX_STRING, align 8
@_ZN10xalanc_1_89Constants37ELEMNAME_OTHERWISE_WITH_PREFIX_STRINGE = dso_local local_unnamed_addr constant ptr @_ZL37ELEMNAME_OTHERWISE_WITH_PREFIX_STRING, align 8
@_ZN10xalanc_1_89Constants33ELEMNAME_PARAM_WITH_PREFIX_STRINGE = dso_local local_unnamed_addr constant ptr @_ZL33ELEMNAME_PARAM_WITH_PREFIX_STRING, align 8
@_ZN10xalanc_1_89Constants30ELEMNAME_PI_WITH_PREFIX_STRINGE = dso_local local_unnamed_addr constant ptr @_ZL30ELEMNAME_PI_WITH_PREFIX_STRING, align 8
@_ZN10xalanc_1_89Constants41ELEMNAME_PRESERVESPACE_WITH_PREFIX_STRINGE = dso_local local_unnamed_addr constant ptr @_ZL41ELEMNAME_PRESERVESPACE_WITH_PREFIX_STRING, align 8
@_ZN10xalanc_1_89Constants32ELEMNAME_SORT_WITH_PREFIX_STRINGE = dso_local local_unnamed_addr constant ptr @_ZL32ELEMNAME_SORT_WITH_PREFIX_STRING, align 8
@_ZN10xalanc_1_89Constants38ELEMNAME_STRIPSPACE_WITH_PREFIX_STRINGE = dso_local local_unnamed_addr constant ptr @_ZL38ELEMNAME_STRIPSPACE_WITH_PREFIX_STRING, align 8
@_ZN10xalanc_1_89Constants36ELEMNAME_TEMPLATE_WITH_PREFIX_STRINGE = dso_local local_unnamed_addr constant ptr @_ZL36ELEMNAME_TEMPLATE_WITH_PREFIX_STRING, align 8
@_ZN10xalanc_1_89Constants32ELEMNAME_TEXT_WITH_PREFIX_STRINGE = dso_local local_unnamed_addr constant ptr @_ZL32ELEMNAME_TEXT_WITH_PREFIX_STRING, align 8
@_ZN10xalanc_1_89Constants35ELEMNAME_VALUEOF_WITH_PREFIX_STRINGE = dso_local local_unnamed_addr constant ptr @_ZL35ELEMNAME_VALUEOF_WITH_PREFIX_STRING, align 8
@_ZN10xalanc_1_89Constants36ELEMNAME_VARIABLE_WITH_PREFIX_STRINGE = dso_local local_unnamed_addr constant ptr @_ZL36ELEMNAME_VARIABLE_WITH_PREFIX_STRING, align 8
@_ZN10xalanc_1_89Constants32ELEMNAME_WHEN_WITH_PREFIX_STRINGE = dso_local local_unnamed_addr constant ptr @_ZL32ELEMNAME_WHEN_WITH_PREFIX_STRING, align 8
@_ZN10xalanc_1_89Constants37ELEMNAME_WITHPARAM_WITH_PREFIX_STRINGE = dso_local local_unnamed_addr constant ptr @_ZL37ELEMNAME_WITHPARAM_WITH_PREFIX_STRING, align 8
@_ZN10xalanc_1_89Constants15PSEUDONAME_NODEE = dso_local local_unnamed_addr constant ptr @_ZL15PSEUDONAME_NODE, align 8
@.str = private unnamed_addr constant [11 x i8] c"case-order\00", align 1
@.str.119 = private unnamed_addr constant [6 x i8] c"count\00", align 1
@.str.120 = private unnamed_addr constant [10 x i8] c"data-type\00", align 1
@.str.121 = private unnamed_addr constant [18 x i8] c"decimal-separator\00", align 1
@.str.122 = private unnamed_addr constant [8 x i8] c"default\00", align 1
@.str.123 = private unnamed_addr constant [14 x i8] c"default-space\00", align 1
@.str.124 = private unnamed_addr constant [6 x i8] c"digit\00", align 1
@.str.125 = private unnamed_addr constant [16 x i8] c"digit-group-sep\00", align 1
@.str.126 = private unnamed_addr constant [24 x i8] c"disable-output-escaping\00", align 1
@.str.127 = private unnamed_addr constant [9 x i8] c"elements\00", align 1
@.str.128 = private unnamed_addr constant [17 x i8] c"use-url-escaping\00", align 1
@.str.129 = private unnamed_addr constant [24 x i8] c"exclude-result-prefixes\00", align 1
@.str.130 = private unnamed_addr constant [27 x i8] c"extension-element-prefixes\00", align 1
@.str.131 = private unnamed_addr constant [7 x i8] c"format\00", align 1
@.str.132 = private unnamed_addr constant [5 x i8] c"from\00", align 1
@.str.133 = private unnamed_addr constant [19 x i8] c"grouping-separator\00", align 1
@.str.134 = private unnamed_addr constant [14 x i8] c"grouping-size\00", align 1
@.str.135 = private unnamed_addr constant [5 x i8] c"href\00", align 1
@.str.136 = private unnamed_addr constant [3 x i8] c"id\00", align 1
@.str.137 = private unnamed_addr constant [14 x i8] c"indent-amount\00", align 1
@.str.138 = private unnamed_addr constant [14 x i8] c"indent-result\00", align 1
@.str.139 = private unnamed_addr constant [9 x i8] c"infinity\00", align 1
@.str.140 = private unnamed_addr constant [5 x i8] c"lang\00", align 1
@.str.141 = private unnamed_addr constant [13 x i8] c"letter-value\00", align 1
@.str.142 = private unnamed_addr constant [6 x i8] c"match\00", align 1
@.str.143 = private unnamed_addr constant [11 x i8] c"minus-sign\00", align 1
@.str.144 = private unnamed_addr constant [5 x i8] c"mode\00", align 1
@.str.145 = private unnamed_addr constant [5 x i8] c"name\00", align 1
@.str.146 = private unnamed_addr constant [10 x i8] c"namespace\00", align 1
@.str.147 = private unnamed_addr constant [4 x i8] c"NaN\00", align 1
@.str.148 = private unnamed_addr constant [19 x i8] c"n-digits-per-group\00", align 1
@.str.149 = private unnamed_addr constant [14 x i8] c"omit-meta-tag\00", align 1
@.str.150 = private unnamed_addr constant [6 x i8] c"order\00", align 1
@.str.151 = private unnamed_addr constant [23 x i8] c"cdata-section-elements\00", align 1
@.str.152 = private unnamed_addr constant [15 x i8] c"doctype-public\00", align 1
@.str.153 = private unnamed_addr constant [15 x i8] c"doctype-system\00", align 1
@.str.154 = private unnamed_addr constant [9 x i8] c"encoding\00", align 1
@.str.155 = private unnamed_addr constant [7 x i8] c"indent\00", align 1
@.str.156 = private unnamed_addr constant [11 x i8] c"media-type\00", align 1
@.str.157 = private unnamed_addr constant [7 x i8] c"method\00", align 1
@.str.158 = private unnamed_addr constant [21 x i8] c"omit-xml-declaration\00", align 1
@.str.159 = private unnamed_addr constant [11 x i8] c"standalone\00", align 1
@.str.160 = private unnamed_addr constant [8 x i8] c"version\00", align 1
@.str.161 = private unnamed_addr constant [18 x i8] c"pattern-separator\00", align 1
@.str.162 = private unnamed_addr constant [8 x i8] c"percent\00", align 1
@.str.163 = private unnamed_addr constant [10 x i8] c"per-mille\00", align 1
@.str.164 = private unnamed_addr constant [7 x i8] c"prefix\00", align 1
@.str.165 = private unnamed_addr constant [9 x i8] c"priority\00", align 1
@.str.166 = private unnamed_addr constant [10 x i8] c"result-ns\00", align 1
@.str.167 = private unnamed_addr constant [14 x i8] c"result-prefix\00", align 1
@.str.168 = private unnamed_addr constant [7 x i8] c"select\00", align 1
@.str.169 = private unnamed_addr constant [18 x i8] c"stylesheet-prefix\00", align 1
@.str.170 = private unnamed_addr constant [10 x i8] c"terminate\00", align 1
@.str.171 = private unnamed_addr constant [5 x i8] c"test\00", align 1
@.str.172 = private unnamed_addr constant [5 x i8] c"type\00", align 1
@.str.173 = private unnamed_addr constant [4 x i8] c"use\00", align 1
@.str.174 = private unnamed_addr constant [19 x i8] c"use-attribute-sets\00", align 1
@.str.175 = private unnamed_addr constant [6 x i8] c"value\00", align 1
@.str.176 = private unnamed_addr constant [6 x i8] c"space\00", align 1
@.str.177 = private unnamed_addr constant [10 x i8] c"xml:space\00", align 1
@.str.178 = private unnamed_addr constant [11 x i8] c"zero-digit\00", align 1
@.str.179 = private unnamed_addr constant [6 x i8] c"CDATA\00", align 1
@.str.180 = private unnamed_addr constant [12 x i8] c"lower-first\00", align 1
@.str.181 = private unnamed_addr constant [12 x i8] c"upper-first\00", align 1
@.str.182 = private unnamed_addr constant [7 x i8] c"number\00", align 1
@.str.183 = private unnamed_addr constant [5 x i8] c"text\00", align 1
@.str.184 = private unnamed_addr constant [9 x i8] c"#default\00", align 1
@.str.185 = private unnamed_addr constant [12 x i8] c"text() | @*\00", align 1
@.str.186 = private unnamed_addr constant [9 x i8] c"Infinity\00", align 1
@.str.187 = private unnamed_addr constant [3 x i8] c"no\00", align 1
@.str.188 = private unnamed_addr constant [10 x i8] c"ascending\00", align 1
@.str.189 = private unnamed_addr constant [11 x i8] c"descending\00", align 1
@.str.190 = private unnamed_addr constant [5 x i8] c"html\00", align 1
@.str.191 = private unnamed_addr constant [4 x i8] c"xml\00", align 1
@.str.192 = private unnamed_addr constant [9 x i8] c"preserve\00", align 1
@.str.193 = private unnamed_addr constant [7 x i8] c"simple\00", align 1
@.str.194 = private unnamed_addr constant [6 x i8] c"strip\00", align 1
@.str.195 = private unnamed_addr constant [2 x i8] c".\00", align 1
@.str.196 = private unnamed_addr constant [4 x i8] c"yes\00", align 1
@.str.197 = private unnamed_addr constant [5 x i8] c" \09\0A\0D\00", align 1
@.str.198 = private unnamed_addr constant [4 x i8] c"any\00", align 1
@.str.199 = private unnamed_addr constant [18 x i8] c"xsl:apply-imports\00", align 1
@.str.200 = private unnamed_addr constant [20 x i8] c"xsl:apply-templates\00", align 1
@.str.201 = private unnamed_addr constant [18 x i8] c"xsl:attribute-set\00", align 1
@.str.202 = private unnamed_addr constant [14 x i8] c"xsl:attribute\00", align 1
@.str.203 = private unnamed_addr constant [18 x i8] c"xsl:call-template\00", align 1
@.str.204 = private unnamed_addr constant [11 x i8] c"xsl:choose\00", align 1
@.str.205 = private unnamed_addr constant [12 x i8] c"xsl:comment\00", align 1
@.str.206 = private unnamed_addr constant [12 x i8] c"xsl:copy-of\00", align 1
@.str.207 = private unnamed_addr constant [9 x i8] c"xsl:copy\00", align 1
@.str.208 = private unnamed_addr constant [19 x i8] c"xsl:decimal-format\00", align 1
@.str.209 = private unnamed_addr constant [11 x i8] c"display-if\00", align 1
@.str.210 = private unnamed_addr constant [12 x i8] c"xsl:element\00", align 1
@.str.211 = private unnamed_addr constant [13 x i8] c"xsl:fallback\00", align 1
@.str.212 = private unnamed_addr constant [13 x i8] c"xsl:for-each\00", align 1
@.str.213 = private unnamed_addr constant [5 x i8] c"HTML\00", align 1
@.str.214 = private unnamed_addr constant [7 x i8] c"xsl:if\00", align 1
@.str.215 = private unnamed_addr constant [11 x i8] c"xsl:import\00", align 1
@.str.216 = private unnamed_addr constant [12 x i8] c"xsl:include\00", align 1
@.str.217 = private unnamed_addr constant [8 x i8] c"xsl:key\00", align 1
@.str.218 = private unnamed_addr constant [12 x i8] c"xsl:message\00", align 1
@.str.219 = private unnamed_addr constant [11 x i8] c"xsl:number\00", align 1
@.str.220 = private unnamed_addr constant [14 x i8] c"xsl:otherwise\00", align 1
@.str.221 = private unnamed_addr constant [10 x i8] c"xsl:param\00", align 1
@.str.222 = private unnamed_addr constant [27 x i8] c"xsl:processing-instruction\00", align 1
@.str.223 = private unnamed_addr constant [19 x i8] c"xsl:preserve-space\00", align 1
@.str.224 = private unnamed_addr constant [9 x i8] c"xsl:sort\00", align 1
@.str.225 = private unnamed_addr constant [16 x i8] c"xsl:strip-space\00", align 1
@.str.226 = private unnamed_addr constant [13 x i8] c"xsl:template\00", align 1
@.str.227 = private unnamed_addr constant [9 x i8] c"xsl:text\00", align 1
@.str.228 = private unnamed_addr constant [13 x i8] c"xsl:value-of\00", align 1
@.str.229 = private unnamed_addr constant [13 x i8] c"xsl:variable\00", align 1
@.str.230 = private unnamed_addr constant [9 x i8] c"xsl:when\00", align 1
@.str.231 = private unnamed_addr constant [15 x i8] c"xsl:with-param\00", align 1
@.str.232 = private unnamed_addr constant [7 x i8] c"node()\00", align 1
@llvm.global_ctors = appending global [1 x { i32, ptr, ptr }] [{ i32, ptr, ptr } { i32 65535, ptr @_GLOBAL__sub_I_Constants.cpp, ptr null }]

declare void @_ZN10xalanc_1_814XalanDOMStringC1Ev(ptr noundef nonnull align 8 dereferenceable(28)) unnamed_addr #0

; Function Attrs: uwtable
define linkonce_odr dso_local void @_ZN10xalanc_1_814XalanDOMStringD2Ev(ptr noundef nonnull align 8 dereferenceable(28) %0) unnamed_addr #1 comdat align 2 personality ptr @__gxx_personality_v0 {
  %2 = load ptr, ptr %0, align 8, !tbaa !7
  %3 = icmp eq ptr %2, null
  br i1 %3, label %5, label %4

4:                                                ; preds = %1
  tail call void @_ZdlPv(ptr noundef nonnull %2) #9
  br label %5

5:                                                ; preds = %1, %4
  ret void
}

; Function Attrs: nofree nounwind
declare i32 @__cxa_atexit(ptr, ptr, ptr) local_unnamed_addr #2

; Function Attrs: uwtable
define dso_local void @_ZN10xalanc_1_89Constants10initializeEv() local_unnamed_addr #1 align 2 personality ptr @__gxx_personality_v0 {
  %1 = alloca %"class.xalanc_1_8::XalanDOMString", align 8
  %2 = alloca %"class.xalanc_1_8::XalanDOMString", align 8
  %3 = alloca %"class.xalanc_1_8::XalanDOMString", align 8
  %4 = alloca %"class.xalanc_1_8::XalanDOMString", align 8
  %5 = alloca %"class.xalanc_1_8::XalanDOMString", align 8
  %6 = alloca %"class.xalanc_1_8::XalanDOMString", align 8
  %7 = alloca %"class.xalanc_1_8::XalanDOMString", align 8
  %8 = alloca %"class.xalanc_1_8::XalanDOMString", align 8
  %9 = alloca %"class.xalanc_1_8::XalanDOMString", align 8
  %10 = alloca %"class.xalanc_1_8::XalanDOMString", align 8
  %11 = alloca %"class.xalanc_1_8::XalanDOMString", align 8
  %12 = alloca %"class.xalanc_1_8::XalanDOMString", align 8
  %13 = alloca %"class.xalanc_1_8::XalanDOMString", align 8
  %14 = alloca %"class.xalanc_1_8::XalanDOMString", align 8
  %15 = alloca %"class.xalanc_1_8::XalanDOMString", align 8
  %16 = alloca %"class.xalanc_1_8::XalanDOMString", align 8
  %17 = alloca %"class.xalanc_1_8::XalanDOMString", align 8
  %18 = alloca %"class.xalanc_1_8::XalanDOMString", align 8
  %19 = alloca %"class.xalanc_1_8::XalanDOMString", align 8
  %20 = alloca %"class.xalanc_1_8::XalanDOMString", align 8
  %21 = alloca %"class.xalanc_1_8::XalanDOMString", align 8
  %22 = alloca %"class.xalanc_1_8::XalanDOMString", align 8
  %23 = alloca %"class.xalanc_1_8::XalanDOMString", align 8
  %24 = alloca %"class.xalanc_1_8::XalanDOMString", align 8
  %25 = alloca %"class.xalanc_1_8::XalanDOMString", align 8
  %26 = alloca %"class.xalanc_1_8::XalanDOMString", align 8
  %27 = alloca %"class.xalanc_1_8::XalanDOMString", align 8
  %28 = alloca %"class.xalanc_1_8::XalanDOMString", align 8
  %29 = alloca %"class.xalanc_1_8::XalanDOMString", align 8
  %30 = alloca %"class.xalanc_1_8::XalanDOMString", align 8
  %31 = alloca %"class.xalanc_1_8::XalanDOMString", align 8
  %32 = alloca %"class.xalanc_1_8::XalanDOMString", align 8
  %33 = alloca %"class.xalanc_1_8::XalanDOMString", align 8
  %34 = alloca %"class.xalanc_1_8::XalanDOMString", align 8
  %35 = alloca %"class.xalanc_1_8::XalanDOMString", align 8
  %36 = alloca %"class.xalanc_1_8::XalanDOMString", align 8
  %37 = alloca %"class.xalanc_1_8::XalanDOMString", align 8
  %38 = alloca %"class.xalanc_1_8::XalanDOMString", align 8
  %39 = alloca %"class.xalanc_1_8::XalanDOMString", align 8
  %40 = alloca %"class.xalanc_1_8::XalanDOMString", align 8
  %41 = alloca %"class.xalanc_1_8::XalanDOMString", align 8
  %42 = alloca %"class.xalanc_1_8::XalanDOMString", align 8
  %43 = alloca %"class.xalanc_1_8::XalanDOMString", align 8
  %44 = alloca %"class.xalanc_1_8::XalanDOMString", align 8
  %45 = alloca %"class.xalanc_1_8::XalanDOMString", align 8
  %46 = alloca %"class.xalanc_1_8::XalanDOMString", align 8
  %47 = alloca %"class.xalanc_1_8::XalanDOMString", align 8
  %48 = alloca %"class.xalanc_1_8::XalanDOMString", align 8
  %49 = alloca %"class.xalanc_1_8::XalanDOMString", align 8
  %50 = alloca %"class.xalanc_1_8::XalanDOMString", align 8
  %51 = alloca %"class.xalanc_1_8::XalanDOMString", align 8
  %52 = alloca %"class.xalanc_1_8::XalanDOMString", align 8
  %53 = alloca %"class.xalanc_1_8::XalanDOMString", align 8
  %54 = alloca %"class.xalanc_1_8::XalanDOMString", align 8
  %55 = alloca %"class.xalanc_1_8::XalanDOMString", align 8
  %56 = alloca %"class.xalanc_1_8::XalanDOMString", align 8
  %57 = alloca %"class.xalanc_1_8::XalanDOMString", align 8
  %58 = alloca %"class.xalanc_1_8::XalanDOMString", align 8
  %59 = alloca %"class.xalanc_1_8::XalanDOMString", align 8
  %60 = alloca %"class.xalanc_1_8::XalanDOMString", align 8
  %61 = alloca %"class.xalanc_1_8::XalanDOMString", align 8
  %62 = alloca %"class.xalanc_1_8::XalanDOMString", align 8
  %63 = alloca %"class.xalanc_1_8::XalanDOMString", align 8
  %64 = alloca %"class.xalanc_1_8::XalanDOMString", align 8
  %65 = alloca %"class.xalanc_1_8::XalanDOMString", align 8
  %66 = alloca %"class.xalanc_1_8::XalanDOMString", align 8
  %67 = alloca %"class.xalanc_1_8::XalanDOMString", align 8
  %68 = alloca %"class.xalanc_1_8::XalanDOMString", align 8
  %69 = alloca %"class.xalanc_1_8::XalanDOMString", align 8
  %70 = alloca %"class.xalanc_1_8::XalanDOMString", align 8
  %71 = alloca %"class.xalanc_1_8::XalanDOMString", align 8
  %72 = alloca %"class.xalanc_1_8::XalanDOMString", align 8
  %73 = alloca %"class.xalanc_1_8::XalanDOMString", align 8
  %74 = alloca %"class.xalanc_1_8::XalanDOMString", align 8
  %75 = alloca %"class.xalanc_1_8::XalanDOMString", align 8
  %76 = alloca %"class.xalanc_1_8::XalanDOMString", align 8
  %77 = alloca %"class.xalanc_1_8::XalanDOMString", align 8
  %78 = alloca %"class.xalanc_1_8::XalanDOMString", align 8
  %79 = alloca %"class.xalanc_1_8::XalanDOMString", align 8
  %80 = alloca %"class.xalanc_1_8::XalanDOMString", align 8
  %81 = alloca %"class.xalanc_1_8::XalanDOMString", align 8
  %82 = alloca %"class.xalanc_1_8::XalanDOMString", align 8
  %83 = alloca %"class.xalanc_1_8::XalanDOMString", align 8
  %84 = alloca %"class.xalanc_1_8::XalanDOMString", align 8
  %85 = alloca %"class.xalanc_1_8::XalanDOMString", align 8
  %86 = alloca %"class.xalanc_1_8::XalanDOMString", align 8
  %87 = alloca %"class.xalanc_1_8::XalanDOMString", align 8
  %88 = alloca %"class.xalanc_1_8::XalanDOMString", align 8
  %89 = alloca %"class.xalanc_1_8::XalanDOMString", align 8
  %90 = alloca %"class.xalanc_1_8::XalanDOMString", align 8
  %91 = alloca %"class.xalanc_1_8::XalanDOMString", align 8
  %92 = alloca %"class.xalanc_1_8::XalanDOMString", align 8
  %93 = alloca %"class.xalanc_1_8::XalanDOMString", align 8
  %94 = alloca %"class.xalanc_1_8::XalanDOMString", align 8
  %95 = alloca %"class.xalanc_1_8::XalanDOMString", align 8
  %96 = alloca %"class.xalanc_1_8::XalanDOMString", align 8
  %97 = alloca %"class.xalanc_1_8::XalanDOMString", align 8
  %98 = alloca %"class.xalanc_1_8::XalanDOMString", align 8
  %99 = alloca %"class.xalanc_1_8::XalanDOMString", align 8
  %100 = alloca %"class.xalanc_1_8::XalanDOMString", align 8
  %101 = alloca %"class.xalanc_1_8::XalanDOMString", align 8
  %102 = alloca %"class.xalanc_1_8::XalanDOMString", align 8
  %103 = alloca %"class.xalanc_1_8::XalanDOMString", align 8
  %104 = alloca %"class.xalanc_1_8::XalanDOMString", align 8
  %105 = alloca %"class.xalanc_1_8::XalanDOMString", align 8
  %106 = alloca %"class.xalanc_1_8::XalanDOMString", align 8
  %107 = alloca %"class.xalanc_1_8::XalanDOMString", align 8
  %108 = alloca %"class.xalanc_1_8::XalanDOMString", align 8
  %109 = alloca %"class.xalanc_1_8::XalanDOMString", align 8
  %110 = alloca %"class.xalanc_1_8::XalanDOMString", align 8
  %111 = alloca %"class.xalanc_1_8::XalanDOMString", align 8
  %112 = alloca %"class.xalanc_1_8::XalanDOMString", align 8
  %113 = alloca %"class.xalanc_1_8::XalanDOMString", align 8
  %114 = alloca %"class.xalanc_1_8::XalanDOMString", align 8
  %115 = alloca %"class.xalanc_1_8::XalanDOMString", align 8
  %116 = alloca %"class.xalanc_1_8::XalanDOMString", align 8
  %117 = alloca %"class.xalanc_1_8::XalanDOMString", align 8
  %118 = alloca %"class.xalanc_1_8::XalanDOMString", align 8
  %119 = alloca %"class.xalanc_1_8::XalanDOMString", align 8
  call void @llvm.lifetime.start.p0(i64 32, ptr nonnull %1) #9
  call void @_ZN10xalanc_1_814XalanDOMStringC1EPKcj(ptr noundef nonnull align 8 dereferenceable(28) %1, ptr noundef nonnull @.str, i32 noundef -1)
  %120 = invoke noundef nonnull align 8 dereferenceable(24) ptr @_ZNSt6vectorItSaItEEaSERKS1_(ptr noundef nonnull align 8 dereferenceable(24) @_ZL18ATTRNAME_CASEORDER, ptr noundef nonnull align 8 dereferenceable(24) %1)
          to label %121 unwind label %1072

121:                                              ; preds = %0
  %122 = getelementptr inbounds %"class.xalanc_1_8::XalanDOMString", ptr %1, i64 0, i32 1
  %123 = load i32, ptr %122, align 8, !tbaa !12
  store i32 %123, ptr getelementptr inbounds (%"class.xalanc_1_8::XalanDOMString", ptr @_ZL18ATTRNAME_CASEORDER, i64 0, i32 1), align 8, !tbaa !12
  %124 = load ptr, ptr %1, align 8, !tbaa !7
  %125 = icmp eq ptr %124, null
  br i1 %125, label %127, label %126

126:                                              ; preds = %121
  call void @_ZdlPv(ptr noundef nonnull %124) #9
  br label %127

127:                                              ; preds = %121, %126
  call void @llvm.lifetime.end.p0(i64 32, ptr nonnull %1) #9
  call void @llvm.lifetime.start.p0(i64 32, ptr nonnull %2) #9
  call void @_ZN10xalanc_1_814XalanDOMStringC1EPKcj(ptr noundef nonnull align 8 dereferenceable(28) %2, ptr noundef nonnull @.str.119, i32 noundef -1)
  %128 = invoke noundef nonnull align 8 dereferenceable(24) ptr @_ZNSt6vectorItSaItEEaSERKS1_(ptr noundef nonnull align 8 dereferenceable(24) @_ZL14ATTRNAME_COUNT, ptr noundef nonnull align 8 dereferenceable(24) %2)
          to label %129 unwind label %1078

129:                                              ; preds = %127
  %130 = getelementptr inbounds %"class.xalanc_1_8::XalanDOMString", ptr %2, i64 0, i32 1
  %131 = load i32, ptr %130, align 8, !tbaa !12
  store i32 %131, ptr getelementptr inbounds (%"class.xalanc_1_8::XalanDOMString", ptr @_ZL14ATTRNAME_COUNT, i64 0, i32 1), align 8, !tbaa !12
  %132 = load ptr, ptr %2, align 8, !tbaa !7
  %133 = icmp eq ptr %132, null
  br i1 %133, label %135, label %134

134:                                              ; preds = %129
  call void @_ZdlPv(ptr noundef nonnull %132) #9
  br label %135

135:                                              ; preds = %129, %134
  call void @llvm.lifetime.end.p0(i64 32, ptr nonnull %2) #9
  call void @llvm.lifetime.start.p0(i64 32, ptr nonnull %3) #9
  call void @_ZN10xalanc_1_814XalanDOMStringC1EPKcj(ptr noundef nonnull align 8 dereferenceable(28) %3, ptr noundef nonnull @.str.120, i32 noundef -1)
  %136 = invoke noundef nonnull align 8 dereferenceable(24) ptr @_ZNSt6vectorItSaItEEaSERKS1_(ptr noundef nonnull align 8 dereferenceable(24) @_ZL17ATTRNAME_DATATYPE, ptr noundef nonnull align 8 dereferenceable(24) %3)
          to label %137 unwind label %1084

137:                                              ; preds = %135
  %138 = getelementptr inbounds %"class.xalanc_1_8::XalanDOMString", ptr %3, i64 0, i32 1
  %139 = load i32, ptr %138, align 8, !tbaa !12
  store i32 %139, ptr getelementptr inbounds (%"class.xalanc_1_8::XalanDOMString", ptr @_ZL17ATTRNAME_DATATYPE, i64 0, i32 1), align 8, !tbaa !12
  %140 = load ptr, ptr %3, align 8, !tbaa !7
  %141 = icmp eq ptr %140, null
  br i1 %141, label %143, label %142

142:                                              ; preds = %137
  call void @_ZdlPv(ptr noundef nonnull %140) #9
  br label %143

143:                                              ; preds = %137, %142
  call void @llvm.lifetime.end.p0(i64 32, ptr nonnull %3) #9
  call void @llvm.lifetime.start.p0(i64 32, ptr nonnull %4) #9
  call void @_ZN10xalanc_1_814XalanDOMStringC1EPKcj(ptr noundef nonnull align 8 dereferenceable(28) %4, ptr noundef nonnull @.str.121, i32 noundef -1)
  %144 = invoke noundef nonnull align 8 dereferenceable(24) ptr @_ZNSt6vectorItSaItEEaSERKS1_(ptr noundef nonnull align 8 dereferenceable(24) @_ZL25ATTRNAME_DECIMALSEPARATOR, ptr noundef nonnull align 8 dereferenceable(24) %4)
          to label %145 unwind label %1090

145:                                              ; preds = %143
  %146 = getelementptr inbounds %"class.xalanc_1_8::XalanDOMString", ptr %4, i64 0, i32 1
  %147 = load i32, ptr %146, align 8, !tbaa !12
  store i32 %147, ptr getelementptr inbounds (%"class.xalanc_1_8::XalanDOMString", ptr @_ZL25ATTRNAME_DECIMALSEPARATOR, i64 0, i32 1), align 8, !tbaa !12
  %148 = load ptr, ptr %4, align 8, !tbaa !7
  %149 = icmp eq ptr %148, null
  br i1 %149, label %151, label %150

150:                                              ; preds = %145
  call void @_ZdlPv(ptr noundef nonnull %148) #9
  br label %151

151:                                              ; preds = %145, %150
  call void @llvm.lifetime.end.p0(i64 32, ptr nonnull %4) #9
  call void @llvm.lifetime.start.p0(i64 32, ptr nonnull %5) #9
  call void @_ZN10xalanc_1_814XalanDOMStringC1EPKcj(ptr noundef nonnull align 8 dereferenceable(28) %5, ptr noundef nonnull @.str.122, i32 noundef -1)
  %152 = invoke noundef nonnull align 8 dereferenceable(24) ptr @_ZNSt6vectorItSaItEEaSERKS1_(ptr noundef nonnull align 8 dereferenceable(24) @_ZL16ATTRNAME_DEFAULT, ptr noundef nonnull align 8 dereferenceable(24) %5)
          to label %153 unwind label %1096

153:                                              ; preds = %151
  %154 = getelementptr inbounds %"class.xalanc_1_8::XalanDOMString", ptr %5, i64 0, i32 1
  %155 = load i32, ptr %154, align 8, !tbaa !12
  store i32 %155, ptr getelementptr inbounds (%"class.xalanc_1_8::XalanDOMString", ptr @_ZL16ATTRNAME_DEFAULT, i64 0, i32 1), align 8, !tbaa !12
  %156 = load ptr, ptr %5, align 8, !tbaa !7
  %157 = icmp eq ptr %156, null
  br i1 %157, label %159, label %158

158:                                              ; preds = %153
  call void @_ZdlPv(ptr noundef nonnull %156) #9
  br label %159

159:                                              ; preds = %153, %158
  call void @llvm.lifetime.end.p0(i64 32, ptr nonnull %5) #9
  call void @llvm.lifetime.start.p0(i64 32, ptr nonnull %6) #9
  call void @_ZN10xalanc_1_814XalanDOMStringC1EPKcj(ptr noundef nonnull align 8 dereferenceable(28) %6, ptr noundef nonnull @.str.123, i32 noundef -1)
  %160 = invoke noundef nonnull align 8 dereferenceable(24) ptr @_ZNSt6vectorItSaItEEaSERKS1_(ptr noundef nonnull align 8 dereferenceable(24) @_ZL21ATTRNAME_DEFAULTSPACE, ptr noundef nonnull align 8 dereferenceable(24) %6)
          to label %161 unwind label %1102

161:                                              ; preds = %159
  %162 = getelementptr inbounds %"class.xalanc_1_8::XalanDOMString", ptr %6, i64 0, i32 1
  %163 = load i32, ptr %162, align 8, !tbaa !12
  store i32 %163, ptr getelementptr inbounds (%"class.xalanc_1_8::XalanDOMString", ptr @_ZL21ATTRNAME_DEFAULTSPACE, i64 0, i32 1), align 8, !tbaa !12
  %164 = load ptr, ptr %6, align 8, !tbaa !7
  %165 = icmp eq ptr %164, null
  br i1 %165, label %167, label %166

166:                                              ; preds = %161
  call void @_ZdlPv(ptr noundef nonnull %164) #9
  br label %167

167:                                              ; preds = %161, %166
  call void @llvm.lifetime.end.p0(i64 32, ptr nonnull %6) #9
  call void @llvm.lifetime.start.p0(i64 32, ptr nonnull %7) #9
  call void @_ZN10xalanc_1_814XalanDOMStringC1EPKcj(ptr noundef nonnull align 8 dereferenceable(28) %7, ptr noundef nonnull @.str.124, i32 noundef -1)
  %168 = invoke noundef nonnull align 8 dereferenceable(24) ptr @_ZNSt6vectorItSaItEEaSERKS1_(ptr noundef nonnull align 8 dereferenceable(24) @_ZL14ATTRNAME_DIGIT, ptr noundef nonnull align 8 dereferenceable(24) %7)
          to label %169 unwind label %1108

169:                                              ; preds = %167
  %170 = getelementptr inbounds %"class.xalanc_1_8::XalanDOMString", ptr %7, i64 0, i32 1
  %171 = load i32, ptr %170, align 8, !tbaa !12
  store i32 %171, ptr getelementptr inbounds (%"class.xalanc_1_8::XalanDOMString", ptr @_ZL14ATTRNAME_DIGIT, i64 0, i32 1), align 8, !tbaa !12
  %172 = load ptr, ptr %7, align 8, !tbaa !7
  %173 = icmp eq ptr %172, null
  br i1 %173, label %175, label %174

174:                                              ; preds = %169
  call void @_ZdlPv(ptr noundef nonnull %172) #9
  br label %175

175:                                              ; preds = %169, %174
  call void @llvm.lifetime.end.p0(i64 32, ptr nonnull %7) #9
  call void @llvm.lifetime.start.p0(i64 32, ptr nonnull %8) #9
  call void @_ZN10xalanc_1_814XalanDOMStringC1EPKcj(ptr noundef nonnull align 8 dereferenceable(28) %8, ptr noundef nonnull @.str.125, i32 noundef -1)
  %176 = invoke noundef nonnull align 8 dereferenceable(24) ptr @_ZNSt6vectorItSaItEEaSERKS1_(ptr noundef nonnull align 8 dereferenceable(24) @_ZL22ATTRNAME_DIGITGROUPSEP, ptr noundef nonnull align 8 dereferenceable(24) %8)
          to label %177 unwind label %1114

177:                                              ; preds = %175
  %178 = getelementptr inbounds %"class.xalanc_1_8::XalanDOMString", ptr %8, i64 0, i32 1
  %179 = load i32, ptr %178, align 8, !tbaa !12
  store i32 %179, ptr getelementptr inbounds (%"class.xalanc_1_8::XalanDOMString", ptr @_ZL22ATTRNAME_DIGITGROUPSEP, i64 0, i32 1), align 8, !tbaa !12
  %180 = load ptr, ptr %8, align 8, !tbaa !7
  %181 = icmp eq ptr %180, null
  br i1 %181, label %183, label %182

182:                                              ; preds = %177
  call void @_ZdlPv(ptr noundef nonnull %180) #9
  br label %183

183:                                              ; preds = %177, %182
  call void @llvm.lifetime.end.p0(i64 32, ptr nonnull %8) #9
  call void @llvm.lifetime.start.p0(i64 32, ptr nonnull %9) #9
  call void @_ZN10xalanc_1_814XalanDOMStringC1EPKcj(ptr noundef nonnull align 8 dereferenceable(28) %9, ptr noundef nonnull @.str.126, i32 noundef -1)
  %184 = invoke noundef nonnull align 8 dereferenceable(24) ptr @_ZNSt6vectorItSaItEEaSERKS1_(ptr noundef nonnull align 8 dereferenceable(24) @_ZL32ATTRNAME_DISABLE_OUTPUT_ESCAPING, ptr noundef nonnull align 8 dereferenceable(24) %9)
          to label %185 unwind label %1120

185:                                              ; preds = %183
  %186 = getelementptr inbounds %"class.xalanc_1_8::XalanDOMString", ptr %9, i64 0, i32 1
  %187 = load i32, ptr %186, align 8, !tbaa !12
  store i32 %187, ptr getelementptr inbounds (%"class.xalanc_1_8::XalanDOMString", ptr @_ZL32ATTRNAME_DISABLE_OUTPUT_ESCAPING, i64 0, i32 1), align 8, !tbaa !12
  %188 = load ptr, ptr %9, align 8, !tbaa !7
  %189 = icmp eq ptr %188, null
  br i1 %189, label %191, label %190

190:                                              ; preds = %185
  call void @_ZdlPv(ptr noundef nonnull %188) #9
  br label %191

191:                                              ; preds = %185, %190
  call void @llvm.lifetime.end.p0(i64 32, ptr nonnull %9) #9
  call void @llvm.lifetime.start.p0(i64 32, ptr nonnull %10) #9
  call void @_ZN10xalanc_1_814XalanDOMStringC1EPKcj(ptr noundef nonnull align 8 dereferenceable(28) %10, ptr noundef nonnull @.str.127, i32 noundef -1)
  %192 = invoke noundef nonnull align 8 dereferenceable(24) ptr @_ZNSt6vectorItSaItEEaSERKS1_(ptr noundef nonnull align 8 dereferenceable(24) @_ZL17ATTRNAME_ELEMENTS, ptr noundef nonnull align 8 dereferenceable(24) %10)
          to label %193 unwind label %1126

193:                                              ; preds = %191
  %194 = getelementptr inbounds %"class.xalanc_1_8::XalanDOMString", ptr %10, i64 0, i32 1
  %195 = load i32, ptr %194, align 8, !tbaa !12
  store i32 %195, ptr getelementptr inbounds (%"class.xalanc_1_8::XalanDOMString", ptr @_ZL17ATTRNAME_ELEMENTS, i64 0, i32 1), align 8, !tbaa !12
  %196 = load ptr, ptr %10, align 8, !tbaa !7
  %197 = icmp eq ptr %196, null
  br i1 %197, label %199, label %198

198:                                              ; preds = %193
  call void @_ZdlPv(ptr noundef nonnull %196) #9
  br label %199

199:                                              ; preds = %193, %198
  call void @llvm.lifetime.end.p0(i64 32, ptr nonnull %10) #9
  call void @llvm.lifetime.start.p0(i64 32, ptr nonnull %11) #9
  call void @_ZN10xalanc_1_814XalanDOMStringC1EPKcj(ptr noundef nonnull align 8 dereferenceable(28) %11, ptr noundef nonnull @.str.128, i32 noundef -1)
  %200 = invoke noundef nonnull align 8 dereferenceable(24) ptr @_ZNSt6vectorItSaItEEaSERKS1_(ptr noundef nonnull align 8 dereferenceable(24) @_ZL20ATTRNAME_ESCAPE_URLS, ptr noundef nonnull align 8 dereferenceable(24) %11)
          to label %201 unwind label %1132

201:                                              ; preds = %199
  %202 = getelementptr inbounds %"class.xalanc_1_8::XalanDOMString", ptr %11, i64 0, i32 1
  %203 = load i32, ptr %202, align 8, !tbaa !12
  store i32 %203, ptr getelementptr inbounds (%"class.xalanc_1_8::XalanDOMString", ptr @_ZL20ATTRNAME_ESCAPE_URLS, i64 0, i32 1), align 8, !tbaa !12
  %204 = load ptr, ptr %11, align 8, !tbaa !7
  %205 = icmp eq ptr %204, null
  br i1 %205, label %207, label %206

206:                                              ; preds = %201
  call void @_ZdlPv(ptr noundef nonnull %204) #9
  br label %207

207:                                              ; preds = %201, %206
  call void @llvm.lifetime.end.p0(i64 32, ptr nonnull %11) #9
  call void @llvm.lifetime.start.p0(i64 32, ptr nonnull %12) #9
  call void @_ZN10xalanc_1_814XalanDOMStringC1EPKcj(ptr noundef nonnull align 8 dereferenceable(28) %12, ptr noundef nonnull @.str.129, i32 noundef -1)
  %208 = invoke noundef nonnull align 8 dereferenceable(24) ptr @_ZNSt6vectorItSaItEEaSERKS1_(ptr noundef nonnull align 8 dereferenceable(24) @_ZL32ATTRNAME_EXCLUDE_RESULT_PREFIXES, ptr noundef nonnull align 8 dereferenceable(24) %12)
          to label %209 unwind label %1138

209:                                              ; preds = %207
  %210 = getelementptr inbounds %"class.xalanc_1_8::XalanDOMString", ptr %12, i64 0, i32 1
  %211 = load i32, ptr %210, align 8, !tbaa !12
  store i32 %211, ptr getelementptr inbounds (%"class.xalanc_1_8::XalanDOMString", ptr @_ZL32ATTRNAME_EXCLUDE_RESULT_PREFIXES, i64 0, i32 1), align 8, !tbaa !12
  %212 = load ptr, ptr %12, align 8, !tbaa !7
  %213 = icmp eq ptr %212, null
  br i1 %213, label %215, label %214

214:                                              ; preds = %209
  call void @_ZdlPv(ptr noundef nonnull %212) #9
  br label %215

215:                                              ; preds = %209, %214
  call void @llvm.lifetime.end.p0(i64 32, ptr nonnull %12) #9
  call void @llvm.lifetime.start.p0(i64 32, ptr nonnull %13) #9
  call void @_ZN10xalanc_1_814XalanDOMStringC1EPKcj(ptr noundef nonnull align 8 dereferenceable(28) %13, ptr noundef nonnull @.str.130, i32 noundef -1)
  %216 = invoke noundef nonnull align 8 dereferenceable(24) ptr @_ZNSt6vectorItSaItEEaSERKS1_(ptr noundef nonnull align 8 dereferenceable(24) @_ZL33ATTRNAME_EXTENSIONELEMENTPREFIXES, ptr noundef nonnull align 8 dereferenceable(24) %13)
          to label %217 unwind label %1144

217:                                              ; preds = %215
  %218 = getelementptr inbounds %"class.xalanc_1_8::XalanDOMString", ptr %13, i64 0, i32 1
  %219 = load i32, ptr %218, align 8, !tbaa !12
  store i32 %219, ptr getelementptr inbounds (%"class.xalanc_1_8::XalanDOMString", ptr @_ZL33ATTRNAME_EXTENSIONELEMENTPREFIXES, i64 0, i32 1), align 8, !tbaa !12
  %220 = load ptr, ptr %13, align 8, !tbaa !7
  %221 = icmp eq ptr %220, null
  br i1 %221, label %223, label %222

222:                                              ; preds = %217
  call void @_ZdlPv(ptr noundef nonnull %220) #9
  br label %223

223:                                              ; preds = %217, %222
  call void @llvm.lifetime.end.p0(i64 32, ptr nonnull %13) #9
  call void @llvm.lifetime.start.p0(i64 32, ptr nonnull %14) #9
  call void @_ZN10xalanc_1_814XalanDOMStringC1EPKcj(ptr noundef nonnull align 8 dereferenceable(28) %14, ptr noundef nonnull @.str.131, i32 noundef -1)
  %224 = invoke noundef nonnull align 8 dereferenceable(24) ptr @_ZNSt6vectorItSaItEEaSERKS1_(ptr noundef nonnull align 8 dereferenceable(24) @_ZL15ATTRNAME_FORMAT, ptr noundef nonnull align 8 dereferenceable(24) %14)
          to label %225 unwind label %1150

225:                                              ; preds = %223
  %226 = getelementptr inbounds %"class.xalanc_1_8::XalanDOMString", ptr %14, i64 0, i32 1
  %227 = load i32, ptr %226, align 8, !tbaa !12
  store i32 %227, ptr getelementptr inbounds (%"class.xalanc_1_8::XalanDOMString", ptr @_ZL15ATTRNAME_FORMAT, i64 0, i32 1), align 8, !tbaa !12
  %228 = load ptr, ptr %14, align 8, !tbaa !7
  %229 = icmp eq ptr %228, null
  br i1 %229, label %231, label %230

230:                                              ; preds = %225
  call void @_ZdlPv(ptr noundef nonnull %228) #9
  br label %231

231:                                              ; preds = %225, %230
  call void @llvm.lifetime.end.p0(i64 32, ptr nonnull %14) #9
  call void @llvm.lifetime.start.p0(i64 32, ptr nonnull %15) #9
  call void @_ZN10xalanc_1_814XalanDOMStringC1EPKcj(ptr noundef nonnull align 8 dereferenceable(28) %15, ptr noundef nonnull @.str.132, i32 noundef -1)
  %232 = invoke noundef nonnull align 8 dereferenceable(24) ptr @_ZNSt6vectorItSaItEEaSERKS1_(ptr noundef nonnull align 8 dereferenceable(24) @_ZL13ATTRNAME_FROM, ptr noundef nonnull align 8 dereferenceable(24) %15)
          to label %233 unwind label %1156

233:                                              ; preds = %231
  %234 = getelementptr inbounds %"class.xalanc_1_8::XalanDOMString", ptr %15, i64 0, i32 1
  %235 = load i32, ptr %234, align 8, !tbaa !12
  store i32 %235, ptr getelementptr inbounds (%"class.xalanc_1_8::XalanDOMString", ptr @_ZL13ATTRNAME_FROM, i64 0, i32 1), align 8, !tbaa !12
  %236 = load ptr, ptr %15, align 8, !tbaa !7
  %237 = icmp eq ptr %236, null
  br i1 %237, label %239, label %238

238:                                              ; preds = %233
  call void @_ZdlPv(ptr noundef nonnull %236) #9
  br label %239

239:                                              ; preds = %233, %238
  call void @llvm.lifetime.end.p0(i64 32, ptr nonnull %15) #9
  call void @llvm.lifetime.start.p0(i64 32, ptr nonnull %16) #9
  call void @_ZN10xalanc_1_814XalanDOMStringC1EPKcj(ptr noundef nonnull align 8 dereferenceable(28) %16, ptr noundef nonnull @.str.133, i32 noundef -1)
  %240 = invoke noundef nonnull align 8 dereferenceable(24) ptr @_ZNSt6vectorItSaItEEaSERKS1_(ptr noundef nonnull align 8 dereferenceable(24) @_ZL26ATTRNAME_GROUPINGSEPARATOR, ptr noundef nonnull align 8 dereferenceable(24) %16)
          to label %241 unwind label %1162

241:                                              ; preds = %239
  %242 = getelementptr inbounds %"class.xalanc_1_8::XalanDOMString", ptr %16, i64 0, i32 1
  %243 = load i32, ptr %242, align 8, !tbaa !12
  store i32 %243, ptr getelementptr inbounds (%"class.xalanc_1_8::XalanDOMString", ptr @_ZL26ATTRNAME_GROUPINGSEPARATOR, i64 0, i32 1), align 8, !tbaa !12
  %244 = load ptr, ptr %16, align 8, !tbaa !7
  %245 = icmp eq ptr %244, null
  br i1 %245, label %247, label %246

246:                                              ; preds = %241
  call void @_ZdlPv(ptr noundef nonnull %244) #9
  br label %247

247:                                              ; preds = %241, %246
  call void @llvm.lifetime.end.p0(i64 32, ptr nonnull %16) #9
  call void @llvm.lifetime.start.p0(i64 32, ptr nonnull %17) #9
  call void @_ZN10xalanc_1_814XalanDOMStringC1EPKcj(ptr noundef nonnull align 8 dereferenceable(28) %17, ptr noundef nonnull @.str.134, i32 noundef -1)
  %248 = invoke noundef nonnull align 8 dereferenceable(24) ptr @_ZNSt6vectorItSaItEEaSERKS1_(ptr noundef nonnull align 8 dereferenceable(24) @_ZL21ATTRNAME_GROUPINGSIZE, ptr noundef nonnull align 8 dereferenceable(24) %17)
          to label %249 unwind label %1168

249:                                              ; preds = %247
  %250 = getelementptr inbounds %"class.xalanc_1_8::XalanDOMString", ptr %17, i64 0, i32 1
  %251 = load i32, ptr %250, align 8, !tbaa !12
  store i32 %251, ptr getelementptr inbounds (%"class.xalanc_1_8::XalanDOMString", ptr @_ZL21ATTRNAME_GROUPINGSIZE, i64 0, i32 1), align 8, !tbaa !12
  %252 = load ptr, ptr %17, align 8, !tbaa !7
  %253 = icmp eq ptr %252, null
  br i1 %253, label %255, label %254

254:                                              ; preds = %249
  call void @_ZdlPv(ptr noundef nonnull %252) #9
  br label %255

255:                                              ; preds = %249, %254
  call void @llvm.lifetime.end.p0(i64 32, ptr nonnull %17) #9
  call void @llvm.lifetime.start.p0(i64 32, ptr nonnull %18) #9
  call void @_ZN10xalanc_1_814XalanDOMStringC1EPKcj(ptr noundef nonnull align 8 dereferenceable(28) %18, ptr noundef nonnull @.str.135, i32 noundef -1)
  %256 = invoke noundef nonnull align 8 dereferenceable(24) ptr @_ZNSt6vectorItSaItEEaSERKS1_(ptr noundef nonnull align 8 dereferenceable(24) @_ZL13ATTRNAME_HREF, ptr noundef nonnull align 8 dereferenceable(24) %18)
          to label %257 unwind label %1174

257:                                              ; preds = %255
  %258 = getelementptr inbounds %"class.xalanc_1_8::XalanDOMString", ptr %18, i64 0, i32 1
  %259 = load i32, ptr %258, align 8, !tbaa !12
  store i32 %259, ptr getelementptr inbounds (%"class.xalanc_1_8::XalanDOMString", ptr @_ZL13ATTRNAME_HREF, i64 0, i32 1), align 8, !tbaa !12
  %260 = load ptr, ptr %18, align 8, !tbaa !7
  %261 = icmp eq ptr %260, null
  br i1 %261, label %263, label %262

262:                                              ; preds = %257
  call void @_ZdlPv(ptr noundef nonnull %260) #9
  br label %263

263:                                              ; preds = %257, %262
  call void @llvm.lifetime.end.p0(i64 32, ptr nonnull %18) #9
  call void @llvm.lifetime.start.p0(i64 32, ptr nonnull %19) #9
  call void @_ZN10xalanc_1_814XalanDOMStringC1EPKcj(ptr noundef nonnull align 8 dereferenceable(28) %19, ptr noundef nonnull @.str.136, i32 noundef -1)
  %264 = invoke noundef nonnull align 8 dereferenceable(24) ptr @_ZNSt6vectorItSaItEEaSERKS1_(ptr noundef nonnull align 8 dereferenceable(24) @_ZL11ATTRNAME_ID, ptr noundef nonnull align 8 dereferenceable(24) %19)
          to label %265 unwind label %1180

265:                                              ; preds = %263
  %266 = getelementptr inbounds %"class.xalanc_1_8::XalanDOMString", ptr %19, i64 0, i32 1
  %267 = load i32, ptr %266, align 8, !tbaa !12
  store i32 %267, ptr getelementptr inbounds (%"class.xalanc_1_8::XalanDOMString", ptr @_ZL11ATTRNAME_ID, i64 0, i32 1), align 8, !tbaa !12
  %268 = load ptr, ptr %19, align 8, !tbaa !7
  %269 = icmp eq ptr %268, null
  br i1 %269, label %271, label %270

270:                                              ; preds = %265
  call void @_ZdlPv(ptr noundef nonnull %268) #9
  br label %271

271:                                              ; preds = %265, %270
  call void @llvm.lifetime.end.p0(i64 32, ptr nonnull %19) #9
  call void @llvm.lifetime.start.p0(i64 32, ptr nonnull %20) #9
  call void @_ZN10xalanc_1_814XalanDOMStringC1EPKcj(ptr noundef nonnull align 8 dereferenceable(28) %20, ptr noundef nonnull @.str.137, i32 noundef -1)
  %272 = invoke noundef nonnull align 8 dereferenceable(24) ptr @_ZNSt6vectorItSaItEEaSERKS1_(ptr noundef nonnull align 8 dereferenceable(24) @_ZL21ATTRNAME_INDENTAMOUNT, ptr noundef nonnull align 8 dereferenceable(24) %20)
          to label %273 unwind label %1186

273:                                              ; preds = %271
  %274 = getelementptr inbounds %"class.xalanc_1_8::XalanDOMString", ptr %20, i64 0, i32 1
  %275 = load i32, ptr %274, align 8, !tbaa !12
  store i32 %275, ptr getelementptr inbounds (%"class.xalanc_1_8::XalanDOMString", ptr @_ZL21ATTRNAME_INDENTAMOUNT, i64 0, i32 1), align 8, !tbaa !12
  %276 = load ptr, ptr %20, align 8, !tbaa !7
  %277 = icmp eq ptr %276, null
  br i1 %277, label %279, label %278

278:                                              ; preds = %273
  call void @_ZdlPv(ptr noundef nonnull %276) #9
  br label %279

279:                                              ; preds = %273, %278
  call void @llvm.lifetime.end.p0(i64 32, ptr nonnull %20) #9
  call void @llvm.lifetime.start.p0(i64 32, ptr nonnull %21) #9
  call void @_ZN10xalanc_1_814XalanDOMStringC1EPKcj(ptr noundef nonnull align 8 dereferenceable(28) %21, ptr noundef nonnull @.str.138, i32 noundef -1)
  %280 = invoke noundef nonnull align 8 dereferenceable(24) ptr @_ZNSt6vectorItSaItEEaSERKS1_(ptr noundef nonnull align 8 dereferenceable(24) @_ZL21ATTRNAME_INDENTRESULT, ptr noundef nonnull align 8 dereferenceable(24) %21)
          to label %281 unwind label %1192

281:                                              ; preds = %279
  %282 = getelementptr inbounds %"class.xalanc_1_8::XalanDOMString", ptr %21, i64 0, i32 1
  %283 = load i32, ptr %282, align 8, !tbaa !12
  store i32 %283, ptr getelementptr inbounds (%"class.xalanc_1_8::XalanDOMString", ptr @_ZL21ATTRNAME_INDENTRESULT, i64 0, i32 1), align 8, !tbaa !12
  %284 = load ptr, ptr %21, align 8, !tbaa !7
  %285 = icmp eq ptr %284, null
  br i1 %285, label %287, label %286

286:                                              ; preds = %281
  call void @_ZdlPv(ptr noundef nonnull %284) #9
  br label %287

287:                                              ; preds = %281, %286
  call void @llvm.lifetime.end.p0(i64 32, ptr nonnull %21) #9
  call void @llvm.lifetime.start.p0(i64 32, ptr nonnull %22) #9
  call void @_ZN10xalanc_1_814XalanDOMStringC1EPKcj(ptr noundef nonnull align 8 dereferenceable(28) %22, ptr noundef nonnull @.str.139, i32 noundef -1)
  %288 = invoke noundef nonnull align 8 dereferenceable(24) ptr @_ZNSt6vectorItSaItEEaSERKS1_(ptr noundef nonnull align 8 dereferenceable(24) @_ZL17ATTRNAME_INFINITY, ptr noundef nonnull align 8 dereferenceable(24) %22)
          to label %289 unwind label %1198

289:                                              ; preds = %287
  %290 = getelementptr inbounds %"class.xalanc_1_8::XalanDOMString", ptr %22, i64 0, i32 1
  %291 = load i32, ptr %290, align 8, !tbaa !12
  store i32 %291, ptr getelementptr inbounds (%"class.xalanc_1_8::XalanDOMString", ptr @_ZL17ATTRNAME_INFINITY, i64 0, i32 1), align 8, !tbaa !12
  %292 = load ptr, ptr %22, align 8, !tbaa !7
  %293 = icmp eq ptr %292, null
  br i1 %293, label %295, label %294

294:                                              ; preds = %289
  call void @_ZdlPv(ptr noundef nonnull %292) #9
  br label %295

295:                                              ; preds = %289, %294
  call void @llvm.lifetime.end.p0(i64 32, ptr nonnull %22) #9
  call void @llvm.lifetime.start.p0(i64 32, ptr nonnull %23) #9
  call void @_ZN10xalanc_1_814XalanDOMStringC1EPKcj(ptr noundef nonnull align 8 dereferenceable(28) %23, ptr noundef nonnull @.str.140, i32 noundef -1)
  %296 = invoke noundef nonnull align 8 dereferenceable(24) ptr @_ZNSt6vectorItSaItEEaSERKS1_(ptr noundef nonnull align 8 dereferenceable(24) @_ZL13ATTRNAME_LANG, ptr noundef nonnull align 8 dereferenceable(24) %23)
          to label %297 unwind label %1204

297:                                              ; preds = %295
  %298 = getelementptr inbounds %"class.xalanc_1_8::XalanDOMString", ptr %23, i64 0, i32 1
  %299 = load i32, ptr %298, align 8, !tbaa !12
  store i32 %299, ptr getelementptr inbounds (%"class.xalanc_1_8::XalanDOMString", ptr @_ZL13ATTRNAME_LANG, i64 0, i32 1), align 8, !tbaa !12
  %300 = load ptr, ptr %23, align 8, !tbaa !7
  %301 = icmp eq ptr %300, null
  br i1 %301, label %303, label %302

302:                                              ; preds = %297
  call void @_ZdlPv(ptr noundef nonnull %300) #9
  br label %303

303:                                              ; preds = %297, %302
  call void @llvm.lifetime.end.p0(i64 32, ptr nonnull %23) #9
  call void @llvm.lifetime.start.p0(i64 32, ptr nonnull %24) #9
  call void @_ZN10xalanc_1_814XalanDOMStringC1EPKcj(ptr noundef nonnull align 8 dereferenceable(28) %24, ptr noundef nonnull @.str.141, i32 noundef -1)
  %304 = invoke noundef nonnull align 8 dereferenceable(24) ptr @_ZNSt6vectorItSaItEEaSERKS1_(ptr noundef nonnull align 8 dereferenceable(24) @_ZL20ATTRNAME_LETTERVALUE, ptr noundef nonnull align 8 dereferenceable(24) %24)
          to label %305 unwind label %1210

305:                                              ; preds = %303
  %306 = getelementptr inbounds %"class.xalanc_1_8::XalanDOMString", ptr %24, i64 0, i32 1
  %307 = load i32, ptr %306, align 8, !tbaa !12
  store i32 %307, ptr getelementptr inbounds (%"class.xalanc_1_8::XalanDOMString", ptr @_ZL20ATTRNAME_LETTERVALUE, i64 0, i32 1), align 8, !tbaa !12
  %308 = load ptr, ptr %24, align 8, !tbaa !7
  %309 = icmp eq ptr %308, null
  br i1 %309, label %311, label %310

310:                                              ; preds = %305
  call void @_ZdlPv(ptr noundef nonnull %308) #9
  br label %311

311:                                              ; preds = %305, %310
  call void @llvm.lifetime.end.p0(i64 32, ptr nonnull %24) #9
  call void @llvm.lifetime.start.p0(i64 32, ptr nonnull %25) #9
  call void @_ZN10xalanc_1_814XalanDOMStringC1EPKcj(ptr noundef nonnull align 8 dereferenceable(28) %25, ptr noundef nonnull @.str.142, i32 noundef -1)
  %312 = invoke noundef nonnull align 8 dereferenceable(24) ptr @_ZNSt6vectorItSaItEEaSERKS1_(ptr noundef nonnull align 8 dereferenceable(24) @_ZL14ATTRNAME_MATCH, ptr noundef nonnull align 8 dereferenceable(24) %25)
          to label %313 unwind label %1216

313:                                              ; preds = %311
  %314 = getelementptr inbounds %"class.xalanc_1_8::XalanDOMString", ptr %25, i64 0, i32 1
  %315 = load i32, ptr %314, align 8, !tbaa !12
  store i32 %315, ptr getelementptr inbounds (%"class.xalanc_1_8::XalanDOMString", ptr @_ZL14ATTRNAME_MATCH, i64 0, i32 1), align 8, !tbaa !12
  %316 = load ptr, ptr %25, align 8, !tbaa !7
  %317 = icmp eq ptr %316, null
  br i1 %317, label %319, label %318

318:                                              ; preds = %313
  call void @_ZdlPv(ptr noundef nonnull %316) #9
  br label %319

319:                                              ; preds = %313, %318
  call void @llvm.lifetime.end.p0(i64 32, ptr nonnull %25) #9
  call void @llvm.lifetime.start.p0(i64 32, ptr nonnull %26) #9
  call void @_ZN10xalanc_1_814XalanDOMStringC1EPKcj(ptr noundef nonnull align 8 dereferenceable(28) %26, ptr noundef nonnull @.str.143, i32 noundef -1)
  %320 = invoke noundef nonnull align 8 dereferenceable(24) ptr @_ZNSt6vectorItSaItEEaSERKS1_(ptr noundef nonnull align 8 dereferenceable(24) @_ZL18ATTRNAME_MINUSSIGN, ptr noundef nonnull align 8 dereferenceable(24) %26)
          to label %321 unwind label %1222

321:                                              ; preds = %319
  %322 = getelementptr inbounds %"class.xalanc_1_8::XalanDOMString", ptr %26, i64 0, i32 1
  %323 = load i32, ptr %322, align 8, !tbaa !12
  store i32 %323, ptr getelementptr inbounds (%"class.xalanc_1_8::XalanDOMString", ptr @_ZL18ATTRNAME_MINUSSIGN, i64 0, i32 1), align 8, !tbaa !12
  %324 = load ptr, ptr %26, align 8, !tbaa !7
  %325 = icmp eq ptr %324, null
  br i1 %325, label %327, label %326

326:                                              ; preds = %321
  call void @_ZdlPv(ptr noundef nonnull %324) #9
  br label %327

327:                                              ; preds = %321, %326
  call void @llvm.lifetime.end.p0(i64 32, ptr nonnull %26) #9
  call void @llvm.lifetime.start.p0(i64 32, ptr nonnull %27) #9
  call void @_ZN10xalanc_1_814XalanDOMStringC1EPKcj(ptr noundef nonnull align 8 dereferenceable(28) %27, ptr noundef nonnull @.str.144, i32 noundef -1)
  %328 = invoke noundef nonnull align 8 dereferenceable(24) ptr @_ZNSt6vectorItSaItEEaSERKS1_(ptr noundef nonnull align 8 dereferenceable(24) @_ZL13ATTRNAME_MODE, ptr noundef nonnull align 8 dereferenceable(24) %27)
          to label %329 unwind label %1228

329:                                              ; preds = %327
  %330 = getelementptr inbounds %"class.xalanc_1_8::XalanDOMString", ptr %27, i64 0, i32 1
  %331 = load i32, ptr %330, align 8, !tbaa !12
  store i32 %331, ptr getelementptr inbounds (%"class.xalanc_1_8::XalanDOMString", ptr @_ZL13ATTRNAME_MODE, i64 0, i32 1), align 8, !tbaa !12
  %332 = load ptr, ptr %27, align 8, !tbaa !7
  %333 = icmp eq ptr %332, null
  br i1 %333, label %335, label %334

334:                                              ; preds = %329
  call void @_ZdlPv(ptr noundef nonnull %332) #9
  br label %335

335:                                              ; preds = %329, %334
  call void @llvm.lifetime.end.p0(i64 32, ptr nonnull %27) #9
  call void @llvm.lifetime.start.p0(i64 32, ptr nonnull %28) #9
  call void @_ZN10xalanc_1_814XalanDOMStringC1EPKcj(ptr noundef nonnull align 8 dereferenceable(28) %28, ptr noundef nonnull @.str.145, i32 noundef -1)
  %336 = invoke noundef nonnull align 8 dereferenceable(24) ptr @_ZNSt6vectorItSaItEEaSERKS1_(ptr noundef nonnull align 8 dereferenceable(24) @_ZL13ATTRNAME_NAME, ptr noundef nonnull align 8 dereferenceable(24) %28)
          to label %337 unwind label %1234

337:                                              ; preds = %335
  %338 = getelementptr inbounds %"class.xalanc_1_8::XalanDOMString", ptr %28, i64 0, i32 1
  %339 = load i32, ptr %338, align 8, !tbaa !12
  store i32 %339, ptr getelementptr inbounds (%"class.xalanc_1_8::XalanDOMString", ptr @_ZL13ATTRNAME_NAME, i64 0, i32 1), align 8, !tbaa !12
  %340 = load ptr, ptr %28, align 8, !tbaa !7
  %341 = icmp eq ptr %340, null
  br i1 %341, label %343, label %342

342:                                              ; preds = %337
  call void @_ZdlPv(ptr noundef nonnull %340) #9
  br label %343

343:                                              ; preds = %337, %342
  call void @llvm.lifetime.end.p0(i64 32, ptr nonnull %28) #9
  call void @llvm.lifetime.start.p0(i64 32, ptr nonnull %29) #9
  call void @_ZN10xalanc_1_814XalanDOMStringC1EPKcj(ptr noundef nonnull align 8 dereferenceable(28) %29, ptr noundef nonnull @.str.146, i32 noundef -1)
  %344 = invoke noundef nonnull align 8 dereferenceable(24) ptr @_ZNSt6vectorItSaItEEaSERKS1_(ptr noundef nonnull align 8 dereferenceable(24) @_ZL18ATTRNAME_NAMESPACE, ptr noundef nonnull align 8 dereferenceable(24) %29)
          to label %345 unwind label %1240

345:                                              ; preds = %343
  %346 = getelementptr inbounds %"class.xalanc_1_8::XalanDOMString", ptr %29, i64 0, i32 1
  %347 = load i32, ptr %346, align 8, !tbaa !12
  store i32 %347, ptr getelementptr inbounds (%"class.xalanc_1_8::XalanDOMString", ptr @_ZL18ATTRNAME_NAMESPACE, i64 0, i32 1), align 8, !tbaa !12
  %348 = load ptr, ptr %29, align 8, !tbaa !7
  %349 = icmp eq ptr %348, null
  br i1 %349, label %351, label %350

350:                                              ; preds = %345
  call void @_ZdlPv(ptr noundef nonnull %348) #9
  br label %351

351:                                              ; preds = %345, %350
  call void @llvm.lifetime.end.p0(i64 32, ptr nonnull %29) #9
  call void @llvm.lifetime.start.p0(i64 32, ptr nonnull %30) #9
  call void @_ZN10xalanc_1_814XalanDOMStringC1EPKcj(ptr noundef nonnull align 8 dereferenceable(28) %30, ptr noundef nonnull @.str.147, i32 noundef -1)
  %352 = invoke noundef nonnull align 8 dereferenceable(24) ptr @_ZNSt6vectorItSaItEEaSERKS1_(ptr noundef nonnull align 8 dereferenceable(24) @_ZL12ATTRNAME_NAN, ptr noundef nonnull align 8 dereferenceable(24) %30)
          to label %353 unwind label %1246

353:                                              ; preds = %351
  %354 = getelementptr inbounds %"class.xalanc_1_8::XalanDOMString", ptr %30, i64 0, i32 1
  %355 = load i32, ptr %354, align 8, !tbaa !12
  store i32 %355, ptr getelementptr inbounds (%"class.xalanc_1_8::XalanDOMString", ptr @_ZL12ATTRNAME_NAN, i64 0, i32 1), align 8, !tbaa !12
  %356 = load ptr, ptr %30, align 8, !tbaa !7
  %357 = icmp eq ptr %356, null
  br i1 %357, label %359, label %358

358:                                              ; preds = %353
  call void @_ZdlPv(ptr noundef nonnull %356) #9
  br label %359

359:                                              ; preds = %353, %358
  call void @llvm.lifetime.end.p0(i64 32, ptr nonnull %30) #9
  call void @llvm.lifetime.start.p0(i64 32, ptr nonnull %31) #9
  call void @_ZN10xalanc_1_814XalanDOMStringC1EPKcj(ptr noundef nonnull align 8 dereferenceable(28) %31, ptr noundef nonnull @.str.148, i32 noundef -1)
  %360 = invoke noundef nonnull align 8 dereferenceable(24) ptr @_ZNSt6vectorItSaItEEaSERKS1_(ptr noundef nonnull align 8 dereferenceable(24) @_ZL24ATTRNAME_NDIGITSPERGROUP, ptr noundef nonnull align 8 dereferenceable(24) %31)
          to label %361 unwind label %1252

361:                                              ; preds = %359
  %362 = getelementptr inbounds %"class.xalanc_1_8::XalanDOMString", ptr %31, i64 0, i32 1
  %363 = load i32, ptr %362, align 8, !tbaa !12
  store i32 %363, ptr getelementptr inbounds (%"class.xalanc_1_8::XalanDOMString", ptr @_ZL24ATTRNAME_NDIGITSPERGROUP, i64 0, i32 1), align 8, !tbaa !12
  %364 = load ptr, ptr %31, align 8, !tbaa !7
  %365 = icmp eq ptr %364, null
  br i1 %365, label %367, label %366

366:                                              ; preds = %361
  call void @_ZdlPv(ptr noundef nonnull %364) #9
  br label %367

367:                                              ; preds = %361, %366
  call void @llvm.lifetime.end.p0(i64 32, ptr nonnull %31) #9
  call void @llvm.lifetime.start.p0(i64 32, ptr nonnull %32) #9
  call void @_ZN10xalanc_1_814XalanDOMStringC1EPKcj(ptr noundef nonnull align 8 dereferenceable(28) %32, ptr noundef nonnull @.str.149, i32 noundef -1)
  %368 = invoke noundef nonnull align 8 dereferenceable(24) ptr @_ZNSt6vectorItSaItEEaSERKS1_(ptr noundef nonnull align 8 dereferenceable(24) @_ZL22ATTRNAME_OMIT_META_TAG, ptr noundef nonnull align 8 dereferenceable(24) %32)
          to label %369 unwind label %1258

369:                                              ; preds = %367
  %370 = getelementptr inbounds %"class.xalanc_1_8::XalanDOMString", ptr %32, i64 0, i32 1
  %371 = load i32, ptr %370, align 8, !tbaa !12
  store i32 %371, ptr getelementptr inbounds (%"class.xalanc_1_8::XalanDOMString", ptr @_ZL22ATTRNAME_OMIT_META_TAG, i64 0, i32 1), align 8, !tbaa !12
  %372 = load ptr, ptr %32, align 8, !tbaa !7
  %373 = icmp eq ptr %372, null
  br i1 %373, label %375, label %374

374:                                              ; preds = %369
  call void @_ZdlPv(ptr noundef nonnull %372) #9
  br label %375

375:                                              ; preds = %369, %374
  call void @llvm.lifetime.end.p0(i64 32, ptr nonnull %32) #9
  call void @llvm.lifetime.start.p0(i64 32, ptr nonnull %33) #9
  call void @_ZN10xalanc_1_814XalanDOMStringC1EPKcj(ptr noundef nonnull align 8 dereferenceable(28) %33, ptr noundef nonnull @.str.150, i32 noundef -1)
  %376 = invoke noundef nonnull align 8 dereferenceable(24) ptr @_ZNSt6vectorItSaItEEaSERKS1_(ptr noundef nonnull align 8 dereferenceable(24) @_ZL14ATTRNAME_ORDER, ptr noundef nonnull align 8 dereferenceable(24) %33)
          to label %377 unwind label %1264

377:                                              ; preds = %375
  %378 = getelementptr inbounds %"class.xalanc_1_8::XalanDOMString", ptr %33, i64 0, i32 1
  %379 = load i32, ptr %378, align 8, !tbaa !12
  store i32 %379, ptr getelementptr inbounds (%"class.xalanc_1_8::XalanDOMString", ptr @_ZL14ATTRNAME_ORDER, i64 0, i32 1), align 8, !tbaa !12
  %380 = load ptr, ptr %33, align 8, !tbaa !7
  %381 = icmp eq ptr %380, null
  br i1 %381, label %383, label %382

382:                                              ; preds = %377
  call void @_ZdlPv(ptr noundef nonnull %380) #9
  br label %383

383:                                              ; preds = %377, %382
  call void @llvm.lifetime.end.p0(i64 32, ptr nonnull %33) #9
  call void @llvm.lifetime.start.p0(i64 32, ptr nonnull %34) #9
  call void @_ZN10xalanc_1_814XalanDOMStringC1EPKcj(ptr noundef nonnull align 8 dereferenceable(28) %34, ptr noundef nonnull @.str.151, i32 noundef -1)
  %384 = invoke noundef nonnull align 8 dereferenceable(24) ptr @_ZNSt6vectorItSaItEEaSERKS1_(ptr noundef nonnull align 8 dereferenceable(24) @_ZL38ATTRNAME_OUTPUT_CDATA_SECTION_ELEMENTS, ptr noundef nonnull align 8 dereferenceable(24) %34)
          to label %385 unwind label %1270

385:                                              ; preds = %383
  %386 = getelementptr inbounds %"class.xalanc_1_8::XalanDOMString", ptr %34, i64 0, i32 1
  %387 = load i32, ptr %386, align 8, !tbaa !12
  store i32 %387, ptr getelementptr inbounds (%"class.xalanc_1_8::XalanDOMString", ptr @_ZL38ATTRNAME_OUTPUT_CDATA_SECTION_ELEMENTS, i64 0, i32 1), align 8, !tbaa !12
  %388 = load ptr, ptr %34, align 8, !tbaa !7
  %389 = icmp eq ptr %388, null
  br i1 %389, label %391, label %390

390:                                              ; preds = %385
  call void @_ZdlPv(ptr noundef nonnull %388) #9
  br label %391

391:                                              ; preds = %385, %390
  call void @llvm.lifetime.end.p0(i64 32, ptr nonnull %34) #9
  call void @llvm.lifetime.start.p0(i64 32, ptr nonnull %35) #9
  call void @_ZN10xalanc_1_814XalanDOMStringC1EPKcj(ptr noundef nonnull align 8 dereferenceable(28) %35, ptr noundef nonnull @.str.152, i32 noundef -1)
  %392 = invoke noundef nonnull align 8 dereferenceable(24) ptr @_ZNSt6vectorItSaItEEaSERKS1_(ptr noundef nonnull align 8 dereferenceable(24) @_ZL30ATTRNAME_OUTPUT_DOCTYPE_PUBLIC, ptr noundef nonnull align 8 dereferenceable(24) %35)
          to label %393 unwind label %1276

393:                                              ; preds = %391
  %394 = getelementptr inbounds %"class.xalanc_1_8::XalanDOMString", ptr %35, i64 0, i32 1
  %395 = load i32, ptr %394, align 8, !tbaa !12
  store i32 %395, ptr getelementptr inbounds (%"class.xalanc_1_8::XalanDOMString", ptr @_ZL30ATTRNAME_OUTPUT_DOCTYPE_PUBLIC, i64 0, i32 1), align 8, !tbaa !12
  %396 = load ptr, ptr %35, align 8, !tbaa !7
  %397 = icmp eq ptr %396, null
  br i1 %397, label %399, label %398

398:                                              ; preds = %393
  call void @_ZdlPv(ptr noundef nonnull %396) #9
  br label %399

399:                                              ; preds = %393, %398
  call void @llvm.lifetime.end.p0(i64 32, ptr nonnull %35) #9
  call void @llvm.lifetime.start.p0(i64 32, ptr nonnull %36) #9
  call void @_ZN10xalanc_1_814XalanDOMStringC1EPKcj(ptr noundef nonnull align 8 dereferenceable(28) %36, ptr noundef nonnull @.str.153, i32 noundef -1)
  %400 = invoke noundef nonnull align 8 dereferenceable(24) ptr @_ZNSt6vectorItSaItEEaSERKS1_(ptr noundef nonnull align 8 dereferenceable(24) @_ZL30ATTRNAME_OUTPUT_DOCTYPE_SYSTEM, ptr noundef nonnull align 8 dereferenceable(24) %36)
          to label %401 unwind label %1282

401:                                              ; preds = %399
  %402 = getelementptr inbounds %"class.xalanc_1_8::XalanDOMString", ptr %36, i64 0, i32 1
  %403 = load i32, ptr %402, align 8, !tbaa !12
  store i32 %403, ptr getelementptr inbounds (%"class.xalanc_1_8::XalanDOMString", ptr @_ZL30ATTRNAME_OUTPUT_DOCTYPE_SYSTEM, i64 0, i32 1), align 8, !tbaa !12
  %404 = load ptr, ptr %36, align 8, !tbaa !7
  %405 = icmp eq ptr %404, null
  br i1 %405, label %407, label %406

406:                                              ; preds = %401
  call void @_ZdlPv(ptr noundef nonnull %404) #9
  br label %407

407:                                              ; preds = %401, %406
  call void @llvm.lifetime.end.p0(i64 32, ptr nonnull %36) #9
  call void @llvm.lifetime.start.p0(i64 32, ptr nonnull %37) #9
  call void @_ZN10xalanc_1_814XalanDOMStringC1EPKcj(ptr noundef nonnull align 8 dereferenceable(28) %37, ptr noundef nonnull @.str.154, i32 noundef -1)
  %408 = invoke noundef nonnull align 8 dereferenceable(24) ptr @_ZNSt6vectorItSaItEEaSERKS1_(ptr noundef nonnull align 8 dereferenceable(24) @_ZL24ATTRNAME_OUTPUT_ENCODING, ptr noundef nonnull align 8 dereferenceable(24) %37)
          to label %409 unwind label %1288

409:                                              ; preds = %407
  %410 = getelementptr inbounds %"class.xalanc_1_8::XalanDOMString", ptr %37, i64 0, i32 1
  %411 = load i32, ptr %410, align 8, !tbaa !12
  store i32 %411, ptr getelementptr inbounds (%"class.xalanc_1_8::XalanDOMString", ptr @_ZL24ATTRNAME_OUTPUT_ENCODING, i64 0, i32 1), align 8, !tbaa !12
  %412 = load ptr, ptr %37, align 8, !tbaa !7
  %413 = icmp eq ptr %412, null
  br i1 %413, label %415, label %414

414:                                              ; preds = %409
  call void @_ZdlPv(ptr noundef nonnull %412) #9
  br label %415

415:                                              ; preds = %409, %414
  call void @llvm.lifetime.end.p0(i64 32, ptr nonnull %37) #9
  call void @llvm.lifetime.start.p0(i64 32, ptr nonnull %38) #9
  call void @_ZN10xalanc_1_814XalanDOMStringC1EPKcj(ptr noundef nonnull align 8 dereferenceable(28) %38, ptr noundef nonnull @.str.155, i32 noundef -1)
  %416 = invoke noundef nonnull align 8 dereferenceable(24) ptr @_ZNSt6vectorItSaItEEaSERKS1_(ptr noundef nonnull align 8 dereferenceable(24) @_ZL22ATTRNAME_OUTPUT_INDENT, ptr noundef nonnull align 8 dereferenceable(24) %38)
          to label %417 unwind label %1294

417:                                              ; preds = %415
  %418 = getelementptr inbounds %"class.xalanc_1_8::XalanDOMString", ptr %38, i64 0, i32 1
  %419 = load i32, ptr %418, align 8, !tbaa !12
  store i32 %419, ptr getelementptr inbounds (%"class.xalanc_1_8::XalanDOMString", ptr @_ZL22ATTRNAME_OUTPUT_INDENT, i64 0, i32 1), align 8, !tbaa !12
  %420 = load ptr, ptr %38, align 8, !tbaa !7
  %421 = icmp eq ptr %420, null
  br i1 %421, label %423, label %422

422:                                              ; preds = %417
  call void @_ZdlPv(ptr noundef nonnull %420) #9
  br label %423

423:                                              ; preds = %417, %422
  call void @llvm.lifetime.end.p0(i64 32, ptr nonnull %38) #9
  call void @llvm.lifetime.start.p0(i64 32, ptr nonnull %39) #9
  call void @_ZN10xalanc_1_814XalanDOMStringC1EPKcj(ptr noundef nonnull align 8 dereferenceable(28) %39, ptr noundef nonnull @.str.156, i32 noundef -1)
  %424 = invoke noundef nonnull align 8 dereferenceable(24) ptr @_ZNSt6vectorItSaItEEaSERKS1_(ptr noundef nonnull align 8 dereferenceable(24) @_ZL25ATTRNAME_OUTPUT_MEDIATYPE, ptr noundef nonnull align 8 dereferenceable(24) %39)
          to label %425 unwind label %1300

425:                                              ; preds = %423
  %426 = getelementptr inbounds %"class.xalanc_1_8::XalanDOMString", ptr %39, i64 0, i32 1
  %427 = load i32, ptr %426, align 8, !tbaa !12
  store i32 %427, ptr getelementptr inbounds (%"class.xalanc_1_8::XalanDOMString", ptr @_ZL25ATTRNAME_OUTPUT_MEDIATYPE, i64 0, i32 1), align 8, !tbaa !12
  %428 = load ptr, ptr %39, align 8, !tbaa !7
  %429 = icmp eq ptr %428, null
  br i1 %429, label %431, label %430

430:                                              ; preds = %425
  call void @_ZdlPv(ptr noundef nonnull %428) #9
  br label %431

431:                                              ; preds = %425, %430
  call void @llvm.lifetime.end.p0(i64 32, ptr nonnull %39) #9
  call void @llvm.lifetime.start.p0(i64 32, ptr nonnull %40) #9
  call void @_ZN10xalanc_1_814XalanDOMStringC1EPKcj(ptr noundef nonnull align 8 dereferenceable(28) %40, ptr noundef nonnull @.str.157, i32 noundef -1)
  %432 = invoke noundef nonnull align 8 dereferenceable(24) ptr @_ZNSt6vectorItSaItEEaSERKS1_(ptr noundef nonnull align 8 dereferenceable(24) @_ZL22ATTRNAME_OUTPUT_METHOD, ptr noundef nonnull align 8 dereferenceable(24) %40)
          to label %433 unwind label %1306

433:                                              ; preds = %431
  %434 = getelementptr inbounds %"class.xalanc_1_8::XalanDOMString", ptr %40, i64 0, i32 1
  %435 = load i32, ptr %434, align 8, !tbaa !12
  store i32 %435, ptr getelementptr inbounds (%"class.xalanc_1_8::XalanDOMString", ptr @_ZL22ATTRNAME_OUTPUT_METHOD, i64 0, i32 1), align 8, !tbaa !12
  %436 = load ptr, ptr %40, align 8, !tbaa !7
  %437 = icmp eq ptr %436, null
  br i1 %437, label %439, label %438

438:                                              ; preds = %433
  call void @_ZdlPv(ptr noundef nonnull %436) #9
  br label %439

439:                                              ; preds = %433, %438
  call void @llvm.lifetime.end.p0(i64 32, ptr nonnull %40) #9
  call void @llvm.lifetime.start.p0(i64 32, ptr nonnull %41) #9
  call void @_ZN10xalanc_1_814XalanDOMStringC1EPKcj(ptr noundef nonnull align 8 dereferenceable(28) %41, ptr noundef nonnull @.str.158, i32 noundef -1)
  %440 = invoke noundef nonnull align 8 dereferenceable(24) ptr @_ZNSt6vectorItSaItEEaSERKS1_(ptr noundef nonnull align 8 dereferenceable(24) @_ZL27ATTRNAME_OUTPUT_OMITXMLDECL, ptr noundef nonnull align 8 dereferenceable(24) %41)
          to label %441 unwind label %1312

441:                                              ; preds = %439
  %442 = getelementptr inbounds %"class.xalanc_1_8::XalanDOMString", ptr %41, i64 0, i32 1
  %443 = load i32, ptr %442, align 8, !tbaa !12
  store i32 %443, ptr getelementptr inbounds (%"class.xalanc_1_8::XalanDOMString", ptr @_ZL27ATTRNAME_OUTPUT_OMITXMLDECL, i64 0, i32 1), align 8, !tbaa !12
  %444 = load ptr, ptr %41, align 8, !tbaa !7
  %445 = icmp eq ptr %444, null
  br i1 %445, label %447, label %446

446:                                              ; preds = %441
  call void @_ZdlPv(ptr noundef nonnull %444) #9
  br label %447

447:                                              ; preds = %441, %446
  call void @llvm.lifetime.end.p0(i64 32, ptr nonnull %41) #9
  call void @llvm.lifetime.start.p0(i64 32, ptr nonnull %42) #9
  call void @_ZN10xalanc_1_814XalanDOMStringC1EPKcj(ptr noundef nonnull align 8 dereferenceable(28) %42, ptr noundef nonnull @.str.159, i32 noundef -1)
  %448 = invoke noundef nonnull align 8 dereferenceable(24) ptr @_ZNSt6vectorItSaItEEaSERKS1_(ptr noundef nonnull align 8 dereferenceable(24) @_ZL26ATTRNAME_OUTPUT_STANDALONE, ptr noundef nonnull align 8 dereferenceable(24) %42)
          to label %449 unwind label %1318

449:                                              ; preds = %447
  %450 = getelementptr inbounds %"class.xalanc_1_8::XalanDOMString", ptr %42, i64 0, i32 1
  %451 = load i32, ptr %450, align 8, !tbaa !12
  store i32 %451, ptr getelementptr inbounds (%"class.xalanc_1_8::XalanDOMString", ptr @_ZL26ATTRNAME_OUTPUT_STANDALONE, i64 0, i32 1), align 8, !tbaa !12
  %452 = load ptr, ptr %42, align 8, !tbaa !7
  %453 = icmp eq ptr %452, null
  br i1 %453, label %455, label %454

454:                                              ; preds = %449
  call void @_ZdlPv(ptr noundef nonnull %452) #9
  br label %455

455:                                              ; preds = %449, %454
  call void @llvm.lifetime.end.p0(i64 32, ptr nonnull %42) #9
  call void @llvm.lifetime.start.p0(i64 32, ptr nonnull %43) #9
  call void @_ZN10xalanc_1_814XalanDOMStringC1EPKcj(ptr noundef nonnull align 8 dereferenceable(28) %43, ptr noundef nonnull @.str.160, i32 noundef -1)
  %456 = invoke noundef nonnull align 8 dereferenceable(24) ptr @_ZNSt6vectorItSaItEEaSERKS1_(ptr noundef nonnull align 8 dereferenceable(24) @_ZL23ATTRNAME_OUTPUT_VERSION, ptr noundef nonnull align 8 dereferenceable(24) %43)
          to label %457 unwind label %1324

457:                                              ; preds = %455
  %458 = getelementptr inbounds %"class.xalanc_1_8::XalanDOMString", ptr %43, i64 0, i32 1
  %459 = load i32, ptr %458, align 8, !tbaa !12
  store i32 %459, ptr getelementptr inbounds (%"class.xalanc_1_8::XalanDOMString", ptr @_ZL23ATTRNAME_OUTPUT_VERSION, i64 0, i32 1), align 8, !tbaa !12
  %460 = load ptr, ptr %43, align 8, !tbaa !7
  %461 = icmp eq ptr %460, null
  br i1 %461, label %463, label %462

462:                                              ; preds = %457
  call void @_ZdlPv(ptr noundef nonnull %460) #9
  br label %463

463:                                              ; preds = %457, %462
  call void @llvm.lifetime.end.p0(i64 32, ptr nonnull %43) #9
  call void @llvm.lifetime.start.p0(i64 32, ptr nonnull %44) #9
  call void @_ZN10xalanc_1_814XalanDOMStringC1EPKcj(ptr noundef nonnull align 8 dereferenceable(28) %44, ptr noundef nonnull @.str.161, i32 noundef -1)
  %464 = invoke noundef nonnull align 8 dereferenceable(24) ptr @_ZNSt6vectorItSaItEEaSERKS1_(ptr noundef nonnull align 8 dereferenceable(24) @_ZL25ATTRNAME_PATTERNSEPARATOR, ptr noundef nonnull align 8 dereferenceable(24) %44)
          to label %465 unwind label %1330

465:                                              ; preds = %463
  %466 = getelementptr inbounds %"class.xalanc_1_8::XalanDOMString", ptr %44, i64 0, i32 1
  %467 = load i32, ptr %466, align 8, !tbaa !12
  store i32 %467, ptr getelementptr inbounds (%"class.xalanc_1_8::XalanDOMString", ptr @_ZL25ATTRNAME_PATTERNSEPARATOR, i64 0, i32 1), align 8, !tbaa !12
  %468 = load ptr, ptr %44, align 8, !tbaa !7
  %469 = icmp eq ptr %468, null
  br i1 %469, label %471, label %470

470:                                              ; preds = %465
  call void @_ZdlPv(ptr noundef nonnull %468) #9
  br label %471

471:                                              ; preds = %465, %470
  call void @llvm.lifetime.end.p0(i64 32, ptr nonnull %44) #9
  call void @llvm.lifetime.start.p0(i64 32, ptr nonnull %45) #9
  call void @_ZN10xalanc_1_814XalanDOMStringC1EPKcj(ptr noundef nonnull align 8 dereferenceable(28) %45, ptr noundef nonnull @.str.162, i32 noundef -1)
  %472 = invoke noundef nonnull align 8 dereferenceable(24) ptr @_ZNSt6vectorItSaItEEaSERKS1_(ptr noundef nonnull align 8 dereferenceable(24) @_ZL16ATTRNAME_PERCENT, ptr noundef nonnull align 8 dereferenceable(24) %45)
          to label %473 unwind label %1336

473:                                              ; preds = %471
  %474 = getelementptr inbounds %"class.xalanc_1_8::XalanDOMString", ptr %45, i64 0, i32 1
  %475 = load i32, ptr %474, align 8, !tbaa !12
  store i32 %475, ptr getelementptr inbounds (%"class.xalanc_1_8::XalanDOMString", ptr @_ZL16ATTRNAME_PERCENT, i64 0, i32 1), align 8, !tbaa !12
  %476 = load ptr, ptr %45, align 8, !tbaa !7
  %477 = icmp eq ptr %476, null
  br i1 %477, label %479, label %478

478:                                              ; preds = %473
  call void @_ZdlPv(ptr noundef nonnull %476) #9
  br label %479

479:                                              ; preds = %473, %478
  call void @llvm.lifetime.end.p0(i64 32, ptr nonnull %45) #9
  call void @llvm.lifetime.start.p0(i64 32, ptr nonnull %46) #9
  call void @_ZN10xalanc_1_814XalanDOMStringC1EPKcj(ptr noundef nonnull align 8 dereferenceable(28) %46, ptr noundef nonnull @.str.163, i32 noundef -1)
  %480 = invoke noundef nonnull align 8 dereferenceable(24) ptr @_ZNSt6vectorItSaItEEaSERKS1_(ptr noundef nonnull align 8 dereferenceable(24) @_ZL17ATTRNAME_PERMILLE, ptr noundef nonnull align 8 dereferenceable(24) %46)
          to label %481 unwind label %1342

481:                                              ; preds = %479
  %482 = getelementptr inbounds %"class.xalanc_1_8::XalanDOMString", ptr %46, i64 0, i32 1
  %483 = load i32, ptr %482, align 8, !tbaa !12
  store i32 %483, ptr getelementptr inbounds (%"class.xalanc_1_8::XalanDOMString", ptr @_ZL17ATTRNAME_PERMILLE, i64 0, i32 1), align 8, !tbaa !12
  %484 = load ptr, ptr %46, align 8, !tbaa !7
  %485 = icmp eq ptr %484, null
  br i1 %485, label %487, label %486

486:                                              ; preds = %481
  call void @_ZdlPv(ptr noundef nonnull %484) #9
  br label %487

487:                                              ; preds = %481, %486
  call void @llvm.lifetime.end.p0(i64 32, ptr nonnull %46) #9
  call void @llvm.lifetime.start.p0(i64 32, ptr nonnull %47) #9
  call void @_ZN10xalanc_1_814XalanDOMStringC1EPKcj(ptr noundef nonnull align 8 dereferenceable(28) %47, ptr noundef nonnull @.str.164, i32 noundef -1)
  %488 = invoke noundef nonnull align 8 dereferenceable(24) ptr @_ZNSt6vectorItSaItEEaSERKS1_(ptr noundef nonnull align 8 dereferenceable(24) @_ZL15ATTRNAME_PREFIX, ptr noundef nonnull align 8 dereferenceable(24) %47)
          to label %489 unwind label %1348

489:                                              ; preds = %487
  %490 = getelementptr inbounds %"class.xalanc_1_8::XalanDOMString", ptr %47, i64 0, i32 1
  %491 = load i32, ptr %490, align 8, !tbaa !12
  store i32 %491, ptr getelementptr inbounds (%"class.xalanc_1_8::XalanDOMString", ptr @_ZL15ATTRNAME_PREFIX, i64 0, i32 1), align 8, !tbaa !12
  %492 = load ptr, ptr %47, align 8, !tbaa !7
  %493 = icmp eq ptr %492, null
  br i1 %493, label %495, label %494

494:                                              ; preds = %489
  call void @_ZdlPv(ptr noundef nonnull %492) #9
  br label %495

495:                                              ; preds = %489, %494
  call void @llvm.lifetime.end.p0(i64 32, ptr nonnull %47) #9
  call void @llvm.lifetime.start.p0(i64 32, ptr nonnull %48) #9
  call void @_ZN10xalanc_1_814XalanDOMStringC1EPKcj(ptr noundef nonnull align 8 dereferenceable(28) %48, ptr noundef nonnull @.str.165, i32 noundef -1)
  %496 = invoke noundef nonnull align 8 dereferenceable(24) ptr @_ZNSt6vectorItSaItEEaSERKS1_(ptr noundef nonnull align 8 dereferenceable(24) @_ZL17ATTRNAME_PRIORITY, ptr noundef nonnull align 8 dereferenceable(24) %48)
          to label %497 unwind label %1354

497:                                              ; preds = %495
  %498 = getelementptr inbounds %"class.xalanc_1_8::XalanDOMString", ptr %48, i64 0, i32 1
  %499 = load i32, ptr %498, align 8, !tbaa !12
  store i32 %499, ptr getelementptr inbounds (%"class.xalanc_1_8::XalanDOMString", ptr @_ZL17ATTRNAME_PRIORITY, i64 0, i32 1), align 8, !tbaa !12
  %500 = load ptr, ptr %48, align 8, !tbaa !7
  %501 = icmp eq ptr %500, null
  br i1 %501, label %503, label %502

502:                                              ; preds = %497
  call void @_ZdlPv(ptr noundef nonnull %500) #9
  br label %503

503:                                              ; preds = %497, %502
  call void @llvm.lifetime.end.p0(i64 32, ptr nonnull %48) #9
  call void @llvm.lifetime.start.p0(i64 32, ptr nonnull %49) #9
  call void @_ZN10xalanc_1_814XalanDOMStringC1EPKcj(ptr noundef nonnull align 8 dereferenceable(28) %49, ptr noundef nonnull @.str.166, i32 noundef -1)
  %504 = invoke noundef nonnull align 8 dereferenceable(24) ptr @_ZNSt6vectorItSaItEEaSERKS1_(ptr noundef nonnull align 8 dereferenceable(24) @_ZL17ATTRNAME_RESULTNS, ptr noundef nonnull align 8 dereferenceable(24) %49)
          to label %505 unwind label %1360

505:                                              ; preds = %503
  %506 = getelementptr inbounds %"class.xalanc_1_8::XalanDOMString", ptr %49, i64 0, i32 1
  %507 = load i32, ptr %506, align 8, !tbaa !12
  store i32 %507, ptr getelementptr inbounds (%"class.xalanc_1_8::XalanDOMString", ptr @_ZL17ATTRNAME_RESULTNS, i64 0, i32 1), align 8, !tbaa !12
  %508 = load ptr, ptr %49, align 8, !tbaa !7
  %509 = icmp eq ptr %508, null
  br i1 %509, label %511, label %510

510:                                              ; preds = %505
  call void @_ZdlPv(ptr noundef nonnull %508) #9
  br label %511

511:                                              ; preds = %505, %510
  call void @llvm.lifetime.end.p0(i64 32, ptr nonnull %49) #9
  call void @llvm.lifetime.start.p0(i64 32, ptr nonnull %50) #9
  call void @_ZN10xalanc_1_814XalanDOMStringC1EPKcj(ptr noundef nonnull align 8 dereferenceable(28) %50, ptr noundef nonnull @.str.167, i32 noundef -1)
  %512 = invoke noundef nonnull align 8 dereferenceable(24) ptr @_ZNSt6vectorItSaItEEaSERKS1_(ptr noundef nonnull align 8 dereferenceable(24) @_ZL22ATTRNAME_RESULT_PREFIX, ptr noundef nonnull align 8 dereferenceable(24) %50)
          to label %513 unwind label %1366

513:                                              ; preds = %511
  %514 = getelementptr inbounds %"class.xalanc_1_8::XalanDOMString", ptr %50, i64 0, i32 1
  %515 = load i32, ptr %514, align 8, !tbaa !12
  store i32 %515, ptr getelementptr inbounds (%"class.xalanc_1_8::XalanDOMString", ptr @_ZL22ATTRNAME_RESULT_PREFIX, i64 0, i32 1), align 8, !tbaa !12
  %516 = load ptr, ptr %50, align 8, !tbaa !7
  %517 = icmp eq ptr %516, null
  br i1 %517, label %519, label %518

518:                                              ; preds = %513
  call void @_ZdlPv(ptr noundef nonnull %516) #9
  br label %519

519:                                              ; preds = %513, %518
  call void @llvm.lifetime.end.p0(i64 32, ptr nonnull %50) #9
  call void @llvm.lifetime.start.p0(i64 32, ptr nonnull %51) #9
  call void @_ZN10xalanc_1_814XalanDOMStringC1EPKcj(ptr noundef nonnull align 8 dereferenceable(28) %51, ptr noundef nonnull @.str.168, i32 noundef -1)
  %520 = invoke noundef nonnull align 8 dereferenceable(24) ptr @_ZNSt6vectorItSaItEEaSERKS1_(ptr noundef nonnull align 8 dereferenceable(24) @_ZL15ATTRNAME_SELECT, ptr noundef nonnull align 8 dereferenceable(24) %51)
          to label %521 unwind label %1372

521:                                              ; preds = %519
  %522 = getelementptr inbounds %"class.xalanc_1_8::XalanDOMString", ptr %51, i64 0, i32 1
  %523 = load i32, ptr %522, align 8, !tbaa !12
  store i32 %523, ptr getelementptr inbounds (%"class.xalanc_1_8::XalanDOMString", ptr @_ZL15ATTRNAME_SELECT, i64 0, i32 1), align 8, !tbaa !12
  %524 = load ptr, ptr %51, align 8, !tbaa !7
  %525 = icmp eq ptr %524, null
  br i1 %525, label %527, label %526

526:                                              ; preds = %521
  call void @_ZdlPv(ptr noundef nonnull %524) #9
  br label %527

527:                                              ; preds = %521, %526
  call void @llvm.lifetime.end.p0(i64 32, ptr nonnull %51) #9
  call void @llvm.lifetime.start.p0(i64 32, ptr nonnull %52) #9
  call void @_ZN10xalanc_1_814XalanDOMStringC1EPKcj(ptr noundef nonnull align 8 dereferenceable(28) %52, ptr noundef nonnull @.str.169, i32 noundef -1)
  %528 = invoke noundef nonnull align 8 dereferenceable(24) ptr @_ZNSt6vectorItSaItEEaSERKS1_(ptr noundef nonnull align 8 dereferenceable(24) @_ZL26ATTRNAME_STYLESHEET_PREFIX, ptr noundef nonnull align 8 dereferenceable(24) %52)
          to label %529 unwind label %1378

529:                                              ; preds = %527
  %530 = getelementptr inbounds %"class.xalanc_1_8::XalanDOMString", ptr %52, i64 0, i32 1
  %531 = load i32, ptr %530, align 8, !tbaa !12
  store i32 %531, ptr getelementptr inbounds (%"class.xalanc_1_8::XalanDOMString", ptr @_ZL26ATTRNAME_STYLESHEET_PREFIX, i64 0, i32 1), align 8, !tbaa !12
  %532 = load ptr, ptr %52, align 8, !tbaa !7
  %533 = icmp eq ptr %532, null
  br i1 %533, label %535, label %534

534:                                              ; preds = %529
  call void @_ZdlPv(ptr noundef nonnull %532) #9
  br label %535

535:                                              ; preds = %529, %534
  call void @llvm.lifetime.end.p0(i64 32, ptr nonnull %52) #9
  call void @llvm.lifetime.start.p0(i64 32, ptr nonnull %53) #9
  call void @_ZN10xalanc_1_814XalanDOMStringC1EPKcj(ptr noundef nonnull align 8 dereferenceable(28) %53, ptr noundef nonnull @.str.170, i32 noundef -1)
  %536 = invoke noundef nonnull align 8 dereferenceable(24) ptr @_ZNSt6vectorItSaItEEaSERKS1_(ptr noundef nonnull align 8 dereferenceable(24) @_ZL18ATTRNAME_TERMINATE, ptr noundef nonnull align 8 dereferenceable(24) %53)
          to label %537 unwind label %1384

537:                                              ; preds = %535
  %538 = getelementptr inbounds %"class.xalanc_1_8::XalanDOMString", ptr %53, i64 0, i32 1
  %539 = load i32, ptr %538, align 8, !tbaa !12
  store i32 %539, ptr getelementptr inbounds (%"class.xalanc_1_8::XalanDOMString", ptr @_ZL18ATTRNAME_TERMINATE, i64 0, i32 1), align 8, !tbaa !12
  %540 = load ptr, ptr %53, align 8, !tbaa !7
  %541 = icmp eq ptr %540, null
  br i1 %541, label %543, label %542

542:                                              ; preds = %537
  call void @_ZdlPv(ptr noundef nonnull %540) #9
  br label %543

543:                                              ; preds = %537, %542
  call void @llvm.lifetime.end.p0(i64 32, ptr nonnull %53) #9
  call void @llvm.lifetime.start.p0(i64 32, ptr nonnull %54) #9
  call void @_ZN10xalanc_1_814XalanDOMStringC1EPKcj(ptr noundef nonnull align 8 dereferenceable(28) %54, ptr noundef nonnull @.str.171, i32 noundef -1)
  %544 = invoke noundef nonnull align 8 dereferenceable(24) ptr @_ZNSt6vectorItSaItEEaSERKS1_(ptr noundef nonnull align 8 dereferenceable(24) @_ZL13ATTRNAME_TEST, ptr noundef nonnull align 8 dereferenceable(24) %54)
          to label %545 unwind label %1390

545:                                              ; preds = %543
  %546 = getelementptr inbounds %"class.xalanc_1_8::XalanDOMString", ptr %54, i64 0, i32 1
  %547 = load i32, ptr %546, align 8, !tbaa !12
  store i32 %547, ptr getelementptr inbounds (%"class.xalanc_1_8::XalanDOMString", ptr @_ZL13ATTRNAME_TEST, i64 0, i32 1), align 8, !tbaa !12
  %548 = load ptr, ptr %54, align 8, !tbaa !7
  %549 = icmp eq ptr %548, null
  br i1 %549, label %551, label %550

550:                                              ; preds = %545
  call void @_ZdlPv(ptr noundef nonnull %548) #9
  br label %551

551:                                              ; preds = %545, %550
  call void @llvm.lifetime.end.p0(i64 32, ptr nonnull %54) #9
  call void @llvm.lifetime.start.p0(i64 32, ptr nonnull %55) #9
  call void @_ZN10xalanc_1_814XalanDOMStringC1EPKcj(ptr noundef nonnull align 8 dereferenceable(28) %55, ptr noundef nonnull @.str.172, i32 noundef -1)
  %552 = invoke noundef nonnull align 8 dereferenceable(24) ptr @_ZNSt6vectorItSaItEEaSERKS1_(ptr noundef nonnull align 8 dereferenceable(24) @_ZL13ATTRNAME_TYPE, ptr noundef nonnull align 8 dereferenceable(24) %55)
          to label %553 unwind label %1396

553:                                              ; preds = %551
  %554 = getelementptr inbounds %"class.xalanc_1_8::XalanDOMString", ptr %55, i64 0, i32 1
  %555 = load i32, ptr %554, align 8, !tbaa !12
  store i32 %555, ptr getelementptr inbounds (%"class.xalanc_1_8::XalanDOMString", ptr @_ZL13ATTRNAME_TYPE, i64 0, i32 1), align 8, !tbaa !12
  %556 = load ptr, ptr %55, align 8, !tbaa !7
  %557 = icmp eq ptr %556, null
  br i1 %557, label %559, label %558

558:                                              ; preds = %553
  call void @_ZdlPv(ptr noundef nonnull %556) #9
  br label %559

559:                                              ; preds = %553, %558
  call void @llvm.lifetime.end.p0(i64 32, ptr nonnull %55) #9
  call void @llvm.lifetime.start.p0(i64 32, ptr nonnull %56) #9
  call void @_ZN10xalanc_1_814XalanDOMStringC1EPKcj(ptr noundef nonnull align 8 dereferenceable(28) %56, ptr noundef nonnull @.str.173, i32 noundef -1)
  %560 = invoke noundef nonnull align 8 dereferenceable(24) ptr @_ZNSt6vectorItSaItEEaSERKS1_(ptr noundef nonnull align 8 dereferenceable(24) @_ZL12ATTRNAME_USE, ptr noundef nonnull align 8 dereferenceable(24) %56)
          to label %561 unwind label %1402

561:                                              ; preds = %559
  %562 = getelementptr inbounds %"class.xalanc_1_8::XalanDOMString", ptr %56, i64 0, i32 1
  %563 = load i32, ptr %562, align 8, !tbaa !12
  store i32 %563, ptr getelementptr inbounds (%"class.xalanc_1_8::XalanDOMString", ptr @_ZL12ATTRNAME_USE, i64 0, i32 1), align 8, !tbaa !12
  %564 = load ptr, ptr %56, align 8, !tbaa !7
  %565 = icmp eq ptr %564, null
  br i1 %565, label %567, label %566

566:                                              ; preds = %561
  call void @_ZdlPv(ptr noundef nonnull %564) #9
  br label %567

567:                                              ; preds = %561, %566
  call void @llvm.lifetime.end.p0(i64 32, ptr nonnull %56) #9
  call void @llvm.lifetime.start.p0(i64 32, ptr nonnull %57) #9
  call void @_ZN10xalanc_1_814XalanDOMStringC1EPKcj(ptr noundef nonnull align 8 dereferenceable(28) %57, ptr noundef nonnull @.str.174, i32 noundef -1)
  %568 = invoke noundef nonnull align 8 dereferenceable(24) ptr @_ZNSt6vectorItSaItEEaSERKS1_(ptr noundef nonnull align 8 dereferenceable(24) @_ZL25ATTRNAME_USEATTRIBUTESETS, ptr noundef nonnull align 8 dereferenceable(24) %57)
          to label %569 unwind label %1408

569:                                              ; preds = %567
  %570 = getelementptr inbounds %"class.xalanc_1_8::XalanDOMString", ptr %57, i64 0, i32 1
  %571 = load i32, ptr %570, align 8, !tbaa !12
  store i32 %571, ptr getelementptr inbounds (%"class.xalanc_1_8::XalanDOMString", ptr @_ZL25ATTRNAME_USEATTRIBUTESETS, i64 0, i32 1), align 8, !tbaa !12
  %572 = load ptr, ptr %57, align 8, !tbaa !7
  %573 = icmp eq ptr %572, null
  br i1 %573, label %575, label %574

574:                                              ; preds = %569
  call void @_ZdlPv(ptr noundef nonnull %572) #9
  br label %575

575:                                              ; preds = %569, %574
  call void @llvm.lifetime.end.p0(i64 32, ptr nonnull %57) #9
  call void @llvm.lifetime.start.p0(i64 32, ptr nonnull %58) #9
  call void @_ZN10xalanc_1_814XalanDOMStringC1EPKcj(ptr noundef nonnull align 8 dereferenceable(28) %58, ptr noundef nonnull @.str.175, i32 noundef -1)
  %576 = invoke noundef nonnull align 8 dereferenceable(24) ptr @_ZNSt6vectorItSaItEEaSERKS1_(ptr noundef nonnull align 8 dereferenceable(24) @_ZL14ATTRNAME_VALUE, ptr noundef nonnull align 8 dereferenceable(24) %58)
          to label %577 unwind label %1414

577:                                              ; preds = %575
  %578 = getelementptr inbounds %"class.xalanc_1_8::XalanDOMString", ptr %58, i64 0, i32 1
  %579 = load i32, ptr %578, align 8, !tbaa !12
  store i32 %579, ptr getelementptr inbounds (%"class.xalanc_1_8::XalanDOMString", ptr @_ZL14ATTRNAME_VALUE, i64 0, i32 1), align 8, !tbaa !12
  %580 = load ptr, ptr %58, align 8, !tbaa !7
  %581 = icmp eq ptr %580, null
  br i1 %581, label %583, label %582

582:                                              ; preds = %577
  call void @_ZdlPv(ptr noundef nonnull %580) #9
  br label %583

583:                                              ; preds = %577, %582
  call void @llvm.lifetime.end.p0(i64 32, ptr nonnull %58) #9
  call void @llvm.lifetime.start.p0(i64 32, ptr nonnull %59) #9
  call void @_ZN10xalanc_1_814XalanDOMStringC1EPKcj(ptr noundef nonnull align 8 dereferenceable(28) %59, ptr noundef nonnull @.str.160, i32 noundef -1)
  %584 = invoke noundef nonnull align 8 dereferenceable(24) ptr @_ZNSt6vectorItSaItEEaSERKS1_(ptr noundef nonnull align 8 dereferenceable(24) @_ZL16ATTRNAME_VERSION, ptr noundef nonnull align 8 dereferenceable(24) %59)
          to label %585 unwind label %1420

585:                                              ; preds = %583
  %586 = getelementptr inbounds %"class.xalanc_1_8::XalanDOMString", ptr %59, i64 0, i32 1
  %587 = load i32, ptr %586, align 8, !tbaa !12
  store i32 %587, ptr getelementptr inbounds (%"class.xalanc_1_8::XalanDOMString", ptr @_ZL16ATTRNAME_VERSION, i64 0, i32 1), align 8, !tbaa !12
  %588 = load ptr, ptr %59, align 8, !tbaa !7
  %589 = icmp eq ptr %588, null
  br i1 %589, label %591, label %590

590:                                              ; preds = %585
  call void @_ZdlPv(ptr noundef nonnull %588) #9
  br label %591

591:                                              ; preds = %585, %590
  call void @llvm.lifetime.end.p0(i64 32, ptr nonnull %59) #9
  call void @llvm.lifetime.start.p0(i64 32, ptr nonnull %60) #9
  call void @_ZN10xalanc_1_814XalanDOMStringC1EPKcj(ptr noundef nonnull align 8 dereferenceable(28) %60, ptr noundef nonnull @.str.176, i32 noundef -1)
  %592 = invoke noundef nonnull align 8 dereferenceable(24) ptr @_ZNSt6vectorItSaItEEaSERKS1_(ptr noundef nonnull align 8 dereferenceable(24) @_ZL14ATTRNAME_SPACE, ptr noundef nonnull align 8 dereferenceable(24) %60)
          to label %593 unwind label %1426

593:                                              ; preds = %591
  %594 = getelementptr inbounds %"class.xalanc_1_8::XalanDOMString", ptr %60, i64 0, i32 1
  %595 = load i32, ptr %594, align 8, !tbaa !12
  store i32 %595, ptr getelementptr inbounds (%"class.xalanc_1_8::XalanDOMString", ptr @_ZL14ATTRNAME_SPACE, i64 0, i32 1), align 8, !tbaa !12
  %596 = load ptr, ptr %60, align 8, !tbaa !7
  %597 = icmp eq ptr %596, null
  br i1 %597, label %599, label %598

598:                                              ; preds = %593
  call void @_ZdlPv(ptr noundef nonnull %596) #9
  br label %599

599:                                              ; preds = %593, %598
  call void @llvm.lifetime.end.p0(i64 32, ptr nonnull %60) #9
  call void @llvm.lifetime.start.p0(i64 32, ptr nonnull %61) #9
  call void @_ZN10xalanc_1_814XalanDOMStringC1EPKcj(ptr noundef nonnull align 8 dereferenceable(28) %61, ptr noundef nonnull @.str.177, i32 noundef -1)
  %600 = invoke noundef nonnull align 8 dereferenceable(24) ptr @_ZNSt6vectorItSaItEEaSERKS1_(ptr noundef nonnull align 8 dereferenceable(24) @_ZL17ATTRNAME_XMLSPACE, ptr noundef nonnull align 8 dereferenceable(24) %61)
          to label %601 unwind label %1432

601:                                              ; preds = %599
  %602 = getelementptr inbounds %"class.xalanc_1_8::XalanDOMString", ptr %61, i64 0, i32 1
  %603 = load i32, ptr %602, align 8, !tbaa !12
  store i32 %603, ptr getelementptr inbounds (%"class.xalanc_1_8::XalanDOMString", ptr @_ZL17ATTRNAME_XMLSPACE, i64 0, i32 1), align 8, !tbaa !12
  %604 = load ptr, ptr %61, align 8, !tbaa !7
  %605 = icmp eq ptr %604, null
  br i1 %605, label %607, label %606

606:                                              ; preds = %601
  call void @_ZdlPv(ptr noundef nonnull %604) #9
  br label %607

607:                                              ; preds = %601, %606
  call void @llvm.lifetime.end.p0(i64 32, ptr nonnull %61) #9
  call void @llvm.lifetime.start.p0(i64 32, ptr nonnull %62) #9
  call void @_ZN10xalanc_1_814XalanDOMStringC1EPKcj(ptr noundef nonnull align 8 dereferenceable(28) %62, ptr noundef nonnull @.str.178, i32 noundef -1)
  %608 = invoke noundef nonnull align 8 dereferenceable(24) ptr @_ZNSt6vectorItSaItEEaSERKS1_(ptr noundef nonnull align 8 dereferenceable(24) @_ZL18ATTRNAME_ZERODIGIT, ptr noundef nonnull align 8 dereferenceable(24) %62)
          to label %609 unwind label %1438

609:                                              ; preds = %607
  %610 = getelementptr inbounds %"class.xalanc_1_8::XalanDOMString", ptr %62, i64 0, i32 1
  %611 = load i32, ptr %610, align 8, !tbaa !12
  store i32 %611, ptr getelementptr inbounds (%"class.xalanc_1_8::XalanDOMString", ptr @_ZL18ATTRNAME_ZERODIGIT, i64 0, i32 1), align 8, !tbaa !12
  %612 = load ptr, ptr %62, align 8, !tbaa !7
  %613 = icmp eq ptr %612, null
  br i1 %613, label %615, label %614

614:                                              ; preds = %609
  call void @_ZdlPv(ptr noundef nonnull %612) #9
  br label %615

615:                                              ; preds = %609, %614
  call void @llvm.lifetime.end.p0(i64 32, ptr nonnull %62) #9
  call void @llvm.lifetime.start.p0(i64 32, ptr nonnull %63) #9
  call void @_ZN10xalanc_1_814XalanDOMStringC1EPKcj(ptr noundef nonnull align 8 dereferenceable(28) %63, ptr noundef nonnull @.str.179, i32 noundef -1)
  %616 = invoke noundef nonnull align 8 dereferenceable(24) ptr @_ZNSt6vectorItSaItEEaSERKS1_(ptr noundef nonnull align 8 dereferenceable(24) @_ZL14ATTRTYPE_CDATA, ptr noundef nonnull align 8 dereferenceable(24) %63)
          to label %617 unwind label %1444

617:                                              ; preds = %615
  %618 = getelementptr inbounds %"class.xalanc_1_8::XalanDOMString", ptr %63, i64 0, i32 1
  %619 = load i32, ptr %618, align 8, !tbaa !12
  store i32 %619, ptr getelementptr inbounds (%"class.xalanc_1_8::XalanDOMString", ptr @_ZL14ATTRTYPE_CDATA, i64 0, i32 1), align 8, !tbaa !12
  %620 = load ptr, ptr %63, align 8, !tbaa !7
  %621 = icmp eq ptr %620, null
  br i1 %621, label %623, label %622

622:                                              ; preds = %617
  call void @_ZdlPv(ptr noundef nonnull %620) #9
  br label %623

623:                                              ; preds = %617, %622
  call void @llvm.lifetime.end.p0(i64 32, ptr nonnull %63) #9
  call void @llvm.lifetime.start.p0(i64 32, ptr nonnull %64) #9
  call void @_ZN10xalanc_1_814XalanDOMStringC1EPKcj(ptr noundef nonnull align 8 dereferenceable(28) %64, ptr noundef nonnull @.str.180, i32 noundef -1)
  %624 = invoke noundef nonnull align 8 dereferenceable(24) ptr @_ZNSt6vectorItSaItEEaSERKS1_(ptr noundef nonnull align 8 dereferenceable(24) @_ZL23ATTRVAL_CASEORDER_LOWER, ptr noundef nonnull align 8 dereferenceable(24) %64)
          to label %625 unwind label %1450

625:                                              ; preds = %623
  %626 = getelementptr inbounds %"class.xalanc_1_8::XalanDOMString", ptr %64, i64 0, i32 1
  %627 = load i32, ptr %626, align 8, !tbaa !12
  store i32 %627, ptr getelementptr inbounds (%"class.xalanc_1_8::XalanDOMString", ptr @_ZL23ATTRVAL_CASEORDER_LOWER, i64 0, i32 1), align 8, !tbaa !12
  %628 = load ptr, ptr %64, align 8, !tbaa !7
  %629 = icmp eq ptr %628, null
  br i1 %629, label %631, label %630

630:                                              ; preds = %625
  call void @_ZdlPv(ptr noundef nonnull %628) #9
  br label %631

631:                                              ; preds = %625, %630
  call void @llvm.lifetime.end.p0(i64 32, ptr nonnull %64) #9
  call void @llvm.lifetime.start.p0(i64 32, ptr nonnull %65) #9
  call void @_ZN10xalanc_1_814XalanDOMStringC1EPKcj(ptr noundef nonnull align 8 dereferenceable(28) %65, ptr noundef nonnull @.str.181, i32 noundef -1)
  %632 = invoke noundef nonnull align 8 dereferenceable(24) ptr @_ZNSt6vectorItSaItEEaSERKS1_(ptr noundef nonnull align 8 dereferenceable(24) @_ZL23ATTRVAL_CASEORDER_UPPER, ptr noundef nonnull align 8 dereferenceable(24) %65)
          to label %633 unwind label %1456

633:                                              ; preds = %631
  %634 = getelementptr inbounds %"class.xalanc_1_8::XalanDOMString", ptr %65, i64 0, i32 1
  %635 = load i32, ptr %634, align 8, !tbaa !12
  store i32 %635, ptr getelementptr inbounds (%"class.xalanc_1_8::XalanDOMString", ptr @_ZL23ATTRVAL_CASEORDER_UPPER, i64 0, i32 1), align 8, !tbaa !12
  %636 = load ptr, ptr %65, align 8, !tbaa !7
  %637 = icmp eq ptr %636, null
  br i1 %637, label %639, label %638

638:                                              ; preds = %633
  call void @_ZdlPv(ptr noundef nonnull %636) #9
  br label %639

639:                                              ; preds = %633, %638
  call void @llvm.lifetime.end.p0(i64 32, ptr nonnull %65) #9
  call void @llvm.lifetime.start.p0(i64 32, ptr nonnull %66) #9
  call void @_ZN10xalanc_1_814XalanDOMStringC1EPKcj(ptr noundef nonnull align 8 dereferenceable(28) %66, ptr noundef nonnull @.str.182, i32 noundef -1)
  %640 = invoke noundef nonnull align 8 dereferenceable(24) ptr @_ZNSt6vectorItSaItEEaSERKS1_(ptr noundef nonnull align 8 dereferenceable(24) @_ZL23ATTRVAL_DATATYPE_NUMBER, ptr noundef nonnull align 8 dereferenceable(24) %66)
          to label %641 unwind label %1462

641:                                              ; preds = %639
  %642 = getelementptr inbounds %"class.xalanc_1_8::XalanDOMString", ptr %66, i64 0, i32 1
  %643 = load i32, ptr %642, align 8, !tbaa !12
  store i32 %643, ptr getelementptr inbounds (%"class.xalanc_1_8::XalanDOMString", ptr @_ZL23ATTRVAL_DATATYPE_NUMBER, i64 0, i32 1), align 8, !tbaa !12
  %644 = load ptr, ptr %66, align 8, !tbaa !7
  %645 = icmp eq ptr %644, null
  br i1 %645, label %647, label %646

646:                                              ; preds = %641
  call void @_ZdlPv(ptr noundef nonnull %644) #9
  br label %647

647:                                              ; preds = %641, %646
  call void @llvm.lifetime.end.p0(i64 32, ptr nonnull %66) #9
  call void @llvm.lifetime.start.p0(i64 32, ptr nonnull %67) #9
  call void @_ZN10xalanc_1_814XalanDOMStringC1EPKcj(ptr noundef nonnull align 8 dereferenceable(28) %67, ptr noundef nonnull @.str.183, i32 noundef -1)
  %648 = invoke noundef nonnull align 8 dereferenceable(24) ptr @_ZNSt6vectorItSaItEEaSERKS1_(ptr noundef nonnull align 8 dereferenceable(24) @_ZL21ATTRVAL_DATATYPE_TEXT, ptr noundef nonnull align 8 dereferenceable(24) %67)
          to label %649 unwind label %1468

649:                                              ; preds = %647
  %650 = getelementptr inbounds %"class.xalanc_1_8::XalanDOMString", ptr %67, i64 0, i32 1
  %651 = load i32, ptr %650, align 8, !tbaa !12
  store i32 %651, ptr getelementptr inbounds (%"class.xalanc_1_8::XalanDOMString", ptr @_ZL21ATTRVAL_DATATYPE_TEXT, i64 0, i32 1), align 8, !tbaa !12
  %652 = load ptr, ptr %67, align 8, !tbaa !7
  %653 = icmp eq ptr %652, null
  br i1 %653, label %655, label %654

654:                                              ; preds = %649
  call void @_ZdlPv(ptr noundef nonnull %652) #9
  br label %655

655:                                              ; preds = %649, %654
  call void @llvm.lifetime.end.p0(i64 32, ptr nonnull %67) #9
  call void @llvm.lifetime.start.p0(i64 32, ptr nonnull %68) #9
  call void @_ZN10xalanc_1_814XalanDOMStringC1EPKcj(ptr noundef nonnull align 8 dereferenceable(28) %68, ptr noundef nonnull @.str.122, i32 noundef -1)
  %656 = invoke noundef nonnull align 8 dereferenceable(24) ptr @_ZNSt6vectorItSaItEEaSERKS1_(ptr noundef nonnull align 8 dereferenceable(24) @_ZL15ATTRVAL_DEFAULT, ptr noundef nonnull align 8 dereferenceable(24) %68)
          to label %657 unwind label %1474

657:                                              ; preds = %655
  %658 = getelementptr inbounds %"class.xalanc_1_8::XalanDOMString", ptr %68, i64 0, i32 1
  %659 = load i32, ptr %658, align 8, !tbaa !12
  store i32 %659, ptr getelementptr inbounds (%"class.xalanc_1_8::XalanDOMString", ptr @_ZL15ATTRVAL_DEFAULT, i64 0, i32 1), align 8, !tbaa !12
  %660 = load ptr, ptr %68, align 8, !tbaa !7
  %661 = icmp eq ptr %660, null
  br i1 %661, label %663, label %662

662:                                              ; preds = %657
  call void @_ZdlPv(ptr noundef nonnull %660) #9
  br label %663

663:                                              ; preds = %657, %662
  call void @llvm.lifetime.end.p0(i64 32, ptr nonnull %68) #9
  call void @llvm.lifetime.start.p0(i64 32, ptr nonnull %69) #9
  call void @_ZN10xalanc_1_814XalanDOMStringC1EPKcj(ptr noundef nonnull align 8 dereferenceable(28) %69, ptr noundef nonnull @.str.184, i32 noundef -1)
  %664 = invoke noundef nonnull align 8 dereferenceable(24) ptr @_ZNSt6vectorItSaItEEaSERKS1_(ptr noundef nonnull align 8 dereferenceable(24) @_ZL22ATTRVAL_DEFAULT_PREFIX, ptr noundef nonnull align 8 dereferenceable(24) %69)
          to label %665 unwind label %1480

665:                                              ; preds = %663
  %666 = getelementptr inbounds %"class.xalanc_1_8::XalanDOMString", ptr %69, i64 0, i32 1
  %667 = load i32, ptr %666, align 8, !tbaa !12
  store i32 %667, ptr getelementptr inbounds (%"class.xalanc_1_8::XalanDOMString", ptr @_ZL22ATTRVAL_DEFAULT_PREFIX, i64 0, i32 1), align 8, !tbaa !12
  %668 = load ptr, ptr %69, align 8, !tbaa !7
  %669 = icmp eq ptr %668, null
  br i1 %669, label %671, label %670

670:                                              ; preds = %665
  call void @_ZdlPv(ptr noundef nonnull %668) #9
  br label %671

671:                                              ; preds = %665, %670
  call void @llvm.lifetime.end.p0(i64 32, ptr nonnull %69) #9
  call void @llvm.lifetime.start.p0(i64 32, ptr nonnull %70) #9
  call void @_ZN10xalanc_1_814XalanDOMStringC1EPKcj(ptr noundef nonnull align 8 dereferenceable(28) %70, ptr noundef nonnull @.str.185, i32 noundef -1)
  %672 = invoke noundef nonnull align 8 dereferenceable(24) ptr @_ZNSt6vectorItSaItEEaSERKS1_(ptr noundef nonnull align 8 dereferenceable(24) @_ZL25ATTRVAL_DEFAULT_TEXT_RULE, ptr noundef nonnull align 8 dereferenceable(24) %70)
          to label %673 unwind label %1486

673:                                              ; preds = %671
  %674 = getelementptr inbounds %"class.xalanc_1_8::XalanDOMString", ptr %70, i64 0, i32 1
  %675 = load i32, ptr %674, align 8, !tbaa !12
  store i32 %675, ptr getelementptr inbounds (%"class.xalanc_1_8::XalanDOMString", ptr @_ZL25ATTRVAL_DEFAULT_TEXT_RULE, i64 0, i32 1), align 8, !tbaa !12
  %676 = load ptr, ptr %70, align 8, !tbaa !7
  %677 = icmp eq ptr %676, null
  br i1 %677, label %679, label %678

678:                                              ; preds = %673
  call void @_ZdlPv(ptr noundef nonnull %676) #9
  br label %679

679:                                              ; preds = %673, %678
  call void @llvm.lifetime.end.p0(i64 32, ptr nonnull %70) #9
  call void @llvm.lifetime.start.p0(i64 32, ptr nonnull %71) #9
  call void @_ZN10xalanc_1_814XalanDOMStringC1EPKcj(ptr noundef nonnull align 8 dereferenceable(28) %71, ptr noundef nonnull @.str.186, i32 noundef -1)
  %680 = invoke noundef nonnull align 8 dereferenceable(24) ptr @_ZNSt6vectorItSaItEEaSERKS1_(ptr noundef nonnull align 8 dereferenceable(24) @_ZL16ATTRVAL_INFINITY, ptr noundef nonnull align 8 dereferenceable(24) %71)
          to label %681 unwind label %1492

681:                                              ; preds = %679
  %682 = getelementptr inbounds %"class.xalanc_1_8::XalanDOMString", ptr %71, i64 0, i32 1
  %683 = load i32, ptr %682, align 8, !tbaa !12
  store i32 %683, ptr getelementptr inbounds (%"class.xalanc_1_8::XalanDOMString", ptr @_ZL16ATTRVAL_INFINITY, i64 0, i32 1), align 8, !tbaa !12
  %684 = load ptr, ptr %71, align 8, !tbaa !7
  %685 = icmp eq ptr %684, null
  br i1 %685, label %687, label %686

686:                                              ; preds = %681
  call void @_ZdlPv(ptr noundef nonnull %684) #9
  br label %687

687:                                              ; preds = %681, %686
  call void @llvm.lifetime.end.p0(i64 32, ptr nonnull %71) #9
  call void @llvm.lifetime.start.p0(i64 32, ptr nonnull %72) #9
  call void @_ZN10xalanc_1_814XalanDOMStringC1EPKcj(ptr noundef nonnull align 8 dereferenceable(28) %72, ptr noundef nonnull @.str.147, i32 noundef -1)
  %688 = invoke noundef nonnull align 8 dereferenceable(24) ptr @_ZNSt6vectorItSaItEEaSERKS1_(ptr noundef nonnull align 8 dereferenceable(24) @_ZL11ATTRVAL_NAN, ptr noundef nonnull align 8 dereferenceable(24) %72)
          to label %689 unwind label %1498

689:                                              ; preds = %687
  %690 = getelementptr inbounds %"class.xalanc_1_8::XalanDOMString", ptr %72, i64 0, i32 1
  %691 = load i32, ptr %690, align 8, !tbaa !12
  store i32 %691, ptr getelementptr inbounds (%"class.xalanc_1_8::XalanDOMString", ptr @_ZL11ATTRVAL_NAN, i64 0, i32 1), align 8, !tbaa !12
  %692 = load ptr, ptr %72, align 8, !tbaa !7
  %693 = icmp eq ptr %692, null
  br i1 %693, label %695, label %694

694:                                              ; preds = %689
  call void @_ZdlPv(ptr noundef nonnull %692) #9
  br label %695

695:                                              ; preds = %689, %694
  call void @llvm.lifetime.end.p0(i64 32, ptr nonnull %72) #9
  call void @llvm.lifetime.start.p0(i64 32, ptr nonnull %73) #9
  call void @_ZN10xalanc_1_814XalanDOMStringC1EPKcj(ptr noundef nonnull align 8 dereferenceable(28) %73, ptr noundef nonnull @.str.187, i32 noundef -1)
  %696 = invoke noundef nonnull align 8 dereferenceable(24) ptr @_ZNSt6vectorItSaItEEaSERKS1_(ptr noundef nonnull align 8 dereferenceable(24) @_ZL10ATTRVAL_NO, ptr noundef nonnull align 8 dereferenceable(24) %73)
          to label %697 unwind label %1504

697:                                              ; preds = %695
  %698 = getelementptr inbounds %"class.xalanc_1_8::XalanDOMString", ptr %73, i64 0, i32 1
  %699 = load i32, ptr %698, align 8, !tbaa !12
  store i32 %699, ptr getelementptr inbounds (%"class.xalanc_1_8::XalanDOMString", ptr @_ZL10ATTRVAL_NO, i64 0, i32 1), align 8, !tbaa !12
  %700 = load ptr, ptr %73, align 8, !tbaa !7
  %701 = icmp eq ptr %700, null
  br i1 %701, label %703, label %702

702:                                              ; preds = %697
  call void @_ZdlPv(ptr noundef nonnull %700) #9
  br label %703

703:                                              ; preds = %697, %702
  call void @llvm.lifetime.end.p0(i64 32, ptr nonnull %73) #9
  call void @llvm.lifetime.start.p0(i64 32, ptr nonnull %74) #9
  call void @_ZN10xalanc_1_814XalanDOMStringC1EPKcj(ptr noundef nonnull align 8 dereferenceable(28) %74, ptr noundef nonnull @.str.188, i32 noundef -1)
  %704 = invoke noundef nonnull align 8 dereferenceable(24) ptr @_ZNSt6vectorItSaItEEaSERKS1_(ptr noundef nonnull align 8 dereferenceable(24) @_ZL23ATTRVAL_ORDER_ASCENDING, ptr noundef nonnull align 8 dereferenceable(24) %74)
          to label %705 unwind label %1510

705:                                              ; preds = %703
  %706 = getelementptr inbounds %"class.xalanc_1_8::XalanDOMString", ptr %74, i64 0, i32 1
  %707 = load i32, ptr %706, align 8, !tbaa !12
  store i32 %707, ptr getelementptr inbounds (%"class.xalanc_1_8::XalanDOMString", ptr @_ZL23ATTRVAL_ORDER_ASCENDING, i64 0, i32 1), align 8, !tbaa !12
  %708 = load ptr, ptr %74, align 8, !tbaa !7
  %709 = icmp eq ptr %708, null
  br i1 %709, label %711, label %710

710:                                              ; preds = %705
  call void @_ZdlPv(ptr noundef nonnull %708) #9
  br label %711

711:                                              ; preds = %705, %710
  call void @llvm.lifetime.end.p0(i64 32, ptr nonnull %74) #9
  call void @llvm.lifetime.start.p0(i64 32, ptr nonnull %75) #9
  call void @_ZN10xalanc_1_814XalanDOMStringC1EPKcj(ptr noundef nonnull align 8 dereferenceable(28) %75, ptr noundef nonnull @.str.189, i32 noundef -1)
  %712 = invoke noundef nonnull align 8 dereferenceable(24) ptr @_ZNSt6vectorItSaItEEaSERKS1_(ptr noundef nonnull align 8 dereferenceable(24) @_ZL24ATTRVAL_ORDER_DESCENDING, ptr noundef nonnull align 8 dereferenceable(24) %75)
          to label %713 unwind label %1516

713:                                              ; preds = %711
  %714 = getelementptr inbounds %"class.xalanc_1_8::XalanDOMString", ptr %75, i64 0, i32 1
  %715 = load i32, ptr %714, align 8, !tbaa !12
  store i32 %715, ptr getelementptr inbounds (%"class.xalanc_1_8::XalanDOMString", ptr @_ZL24ATTRVAL_ORDER_DESCENDING, i64 0, i32 1), align 8, !tbaa !12
  %716 = load ptr, ptr %75, align 8, !tbaa !7
  %717 = icmp eq ptr %716, null
  br i1 %717, label %719, label %718

718:                                              ; preds = %713
  call void @_ZdlPv(ptr noundef nonnull %716) #9
  br label %719

719:                                              ; preds = %713, %718
  call void @llvm.lifetime.end.p0(i64 32, ptr nonnull %75) #9
  call void @llvm.lifetime.start.p0(i64 32, ptr nonnull %76) #9
  call void @_ZN10xalanc_1_814XalanDOMStringC1EPKcj(ptr noundef nonnull align 8 dereferenceable(28) %76, ptr noundef nonnull @.str.190, i32 noundef -1)
  %720 = invoke noundef nonnull align 8 dereferenceable(24) ptr @_ZNSt6vectorItSaItEEaSERKS1_(ptr noundef nonnull align 8 dereferenceable(24) @_ZL26ATTRVAL_OUTPUT_METHOD_HTML, ptr noundef nonnull align 8 dereferenceable(24) %76)
          to label %721 unwind label %1522

721:                                              ; preds = %719
  %722 = getelementptr inbounds %"class.xalanc_1_8::XalanDOMString", ptr %76, i64 0, i32 1
  %723 = load i32, ptr %722, align 8, !tbaa !12
  store i32 %723, ptr getelementptr inbounds (%"class.xalanc_1_8::XalanDOMString", ptr @_ZL26ATTRVAL_OUTPUT_METHOD_HTML, i64 0, i32 1), align 8, !tbaa !12
  %724 = load ptr, ptr %76, align 8, !tbaa !7
  %725 = icmp eq ptr %724, null
  br i1 %725, label %727, label %726

726:                                              ; preds = %721
  call void @_ZdlPv(ptr noundef nonnull %724) #9
  br label %727

727:                                              ; preds = %721, %726
  call void @llvm.lifetime.end.p0(i64 32, ptr nonnull %76) #9
  call void @llvm.lifetime.start.p0(i64 32, ptr nonnull %77) #9
  call void @_ZN10xalanc_1_814XalanDOMStringC1EPKcj(ptr noundef nonnull align 8 dereferenceable(28) %77, ptr noundef nonnull @.str.183, i32 noundef -1)
  %728 = invoke noundef nonnull align 8 dereferenceable(24) ptr @_ZNSt6vectorItSaItEEaSERKS1_(ptr noundef nonnull align 8 dereferenceable(24) @_ZL26ATTRVAL_OUTPUT_METHOD_TEXT, ptr noundef nonnull align 8 dereferenceable(24) %77)
          to label %729 unwind label %1528

729:                                              ; preds = %727
  %730 = getelementptr inbounds %"class.xalanc_1_8::XalanDOMString", ptr %77, i64 0, i32 1
  %731 = load i32, ptr %730, align 8, !tbaa !12
  store i32 %731, ptr getelementptr inbounds (%"class.xalanc_1_8::XalanDOMString", ptr @_ZL26ATTRVAL_OUTPUT_METHOD_TEXT, i64 0, i32 1), align 8, !tbaa !12
  %732 = load ptr, ptr %77, align 8, !tbaa !7
  %733 = icmp eq ptr %732, null
  br i1 %733, label %735, label %734

734:                                              ; preds = %729
  call void @_ZdlPv(ptr noundef nonnull %732) #9
  br label %735

735:                                              ; preds = %729, %734
  call void @llvm.lifetime.end.p0(i64 32, ptr nonnull %77) #9
  call void @llvm.lifetime.start.p0(i64 32, ptr nonnull %78) #9
  call void @_ZN10xalanc_1_814XalanDOMStringC1EPKcj(ptr noundef nonnull align 8 dereferenceable(28) %78, ptr noundef nonnull @.str.191, i32 noundef -1)
  %736 = invoke noundef nonnull align 8 dereferenceable(24) ptr @_ZNSt6vectorItSaItEEaSERKS1_(ptr noundef nonnull align 8 dereferenceable(24) @_ZL25ATTRVAL_OUTPUT_METHOD_XML, ptr noundef nonnull align 8 dereferenceable(24) %78)
          to label %737 unwind label %1534

737:                                              ; preds = %735
  %738 = getelementptr inbounds %"class.xalanc_1_8::XalanDOMString", ptr %78, i64 0, i32 1
  %739 = load i32, ptr %738, align 8, !tbaa !12
  store i32 %739, ptr getelementptr inbounds (%"class.xalanc_1_8::XalanDOMString", ptr @_ZL25ATTRVAL_OUTPUT_METHOD_XML, i64 0, i32 1), align 8, !tbaa !12
  %740 = load ptr, ptr %78, align 8, !tbaa !7
  %741 = icmp eq ptr %740, null
  br i1 %741, label %743, label %742

742:                                              ; preds = %737
  call void @_ZdlPv(ptr noundef nonnull %740) #9
  br label %743

743:                                              ; preds = %737, %742
  call void @llvm.lifetime.end.p0(i64 32, ptr nonnull %78) #9
  call void @llvm.lifetime.start.p0(i64 32, ptr nonnull %79) #9
  call void @_ZN10xalanc_1_814XalanDOMStringC1EPKcj(ptr noundef nonnull align 8 dereferenceable(28) %79, ptr noundef nonnull @.str.192, i32 noundef -1)
  %744 = invoke noundef nonnull align 8 dereferenceable(24) ptr @_ZNSt6vectorItSaItEEaSERKS1_(ptr noundef nonnull align 8 dereferenceable(24) @_ZL16ATTRVAL_PRESERVE, ptr noundef nonnull align 8 dereferenceable(24) %79)
          to label %745 unwind label %1540

745:                                              ; preds = %743
  %746 = getelementptr inbounds %"class.xalanc_1_8::XalanDOMString", ptr %79, i64 0, i32 1
  %747 = load i32, ptr %746, align 8, !tbaa !12
  store i32 %747, ptr getelementptr inbounds (%"class.xalanc_1_8::XalanDOMString", ptr @_ZL16ATTRVAL_PRESERVE, i64 0, i32 1), align 8, !tbaa !12
  %748 = load ptr, ptr %79, align 8, !tbaa !7
  %749 = icmp eq ptr %748, null
  br i1 %749, label %751, label %750

750:                                              ; preds = %745
  call void @_ZdlPv(ptr noundef nonnull %748) #9
  br label %751

751:                                              ; preds = %745, %750
  call void @llvm.lifetime.end.p0(i64 32, ptr nonnull %79) #9
  call void @llvm.lifetime.start.p0(i64 32, ptr nonnull %80) #9
  call void @_ZN10xalanc_1_814XalanDOMStringC1EPKcj(ptr noundef nonnull align 8 dereferenceable(28) %80, ptr noundef nonnull @.str.193, i32 noundef -1)
  %752 = invoke noundef nonnull align 8 dereferenceable(24) ptr @_ZNSt6vectorItSaItEEaSERKS1_(ptr noundef nonnull align 8 dereferenceable(24) @_ZL14ATTRVAL_SIMPLE, ptr noundef nonnull align 8 dereferenceable(24) %80)
          to label %753 unwind label %1546

753:                                              ; preds = %751
  %754 = getelementptr inbounds %"class.xalanc_1_8::XalanDOMString", ptr %80, i64 0, i32 1
  %755 = load i32, ptr %754, align 8, !tbaa !12
  store i32 %755, ptr getelementptr inbounds (%"class.xalanc_1_8::XalanDOMString", ptr @_ZL14ATTRVAL_SIMPLE, i64 0, i32 1), align 8, !tbaa !12
  %756 = load ptr, ptr %80, align 8, !tbaa !7
  %757 = icmp eq ptr %756, null
  br i1 %757, label %759, label %758

758:                                              ; preds = %753
  call void @_ZdlPv(ptr noundef nonnull %756) #9
  br label %759

759:                                              ; preds = %753, %758
  call void @llvm.lifetime.end.p0(i64 32, ptr nonnull %80) #9
  call void @llvm.lifetime.start.p0(i64 32, ptr nonnull %81) #9
  call void @_ZN10xalanc_1_814XalanDOMStringC1EPKcj(ptr noundef nonnull align 8 dereferenceable(28) %81, ptr noundef nonnull @.str.194, i32 noundef -1)
  %760 = invoke noundef nonnull align 8 dereferenceable(24) ptr @_ZNSt6vectorItSaItEEaSERKS1_(ptr noundef nonnull align 8 dereferenceable(24) @_ZL13ATTRVAL_STRIP, ptr noundef nonnull align 8 dereferenceable(24) %81)
          to label %761 unwind label %1552

761:                                              ; preds = %759
  %762 = getelementptr inbounds %"class.xalanc_1_8::XalanDOMString", ptr %81, i64 0, i32 1
  %763 = load i32, ptr %762, align 8, !tbaa !12
  store i32 %763, ptr getelementptr inbounds (%"class.xalanc_1_8::XalanDOMString", ptr @_ZL13ATTRVAL_STRIP, i64 0, i32 1), align 8, !tbaa !12
  %764 = load ptr, ptr %81, align 8, !tbaa !7
  %765 = icmp eq ptr %764, null
  br i1 %765, label %767, label %766

766:                                              ; preds = %761
  call void @_ZdlPv(ptr noundef nonnull %764) #9
  br label %767

767:                                              ; preds = %761, %766
  call void @llvm.lifetime.end.p0(i64 32, ptr nonnull %81) #9
  call void @llvm.lifetime.start.p0(i64 32, ptr nonnull %82) #9
  call void @_ZN10xalanc_1_814XalanDOMStringC1EPKcj(ptr noundef nonnull align 8 dereferenceable(28) %82, ptr noundef nonnull @.str.195, i32 noundef -1)
  %768 = invoke noundef nonnull align 8 dereferenceable(24) ptr @_ZNSt6vectorItSaItEEaSERKS1_(ptr noundef nonnull align 8 dereferenceable(24) @_ZL12ATTRVAL_THIS, ptr noundef nonnull align 8 dereferenceable(24) %82)
          to label %769 unwind label %1558

769:                                              ; preds = %767
  %770 = getelementptr inbounds %"class.xalanc_1_8::XalanDOMString", ptr %82, i64 0, i32 1
  %771 = load i32, ptr %770, align 8, !tbaa !12
  store i32 %771, ptr getelementptr inbounds (%"class.xalanc_1_8::XalanDOMString", ptr @_ZL12ATTRVAL_THIS, i64 0, i32 1), align 8, !tbaa !12
  %772 = load ptr, ptr %82, align 8, !tbaa !7
  %773 = icmp eq ptr %772, null
  br i1 %773, label %775, label %774

774:                                              ; preds = %769
  call void @_ZdlPv(ptr noundef nonnull %772) #9
  br label %775

775:                                              ; preds = %769, %774
  call void @llvm.lifetime.end.p0(i64 32, ptr nonnull %82) #9
  call void @llvm.lifetime.start.p0(i64 32, ptr nonnull %83) #9
  call void @_ZN10xalanc_1_814XalanDOMStringC1EPKcj(ptr noundef nonnull align 8 dereferenceable(28) %83, ptr noundef nonnull @.str.196, i32 noundef -1)
  %776 = invoke noundef nonnull align 8 dereferenceable(24) ptr @_ZNSt6vectorItSaItEEaSERKS1_(ptr noundef nonnull align 8 dereferenceable(24) @_ZL11ATTRVAL_YES, ptr noundef nonnull align 8 dereferenceable(24) %83)
          to label %777 unwind label %1564

777:                                              ; preds = %775
  %778 = getelementptr inbounds %"class.xalanc_1_8::XalanDOMString", ptr %83, i64 0, i32 1
  %779 = load i32, ptr %778, align 8, !tbaa !12
  store i32 %779, ptr getelementptr inbounds (%"class.xalanc_1_8::XalanDOMString", ptr @_ZL11ATTRVAL_YES, i64 0, i32 1), align 8, !tbaa !12
  %780 = load ptr, ptr %83, align 8, !tbaa !7
  %781 = icmp eq ptr %780, null
  br i1 %781, label %783, label %782

782:                                              ; preds = %777
  call void @_ZdlPv(ptr noundef nonnull %780) #9
  br label %783

783:                                              ; preds = %777, %782
  call void @llvm.lifetime.end.p0(i64 32, ptr nonnull %83) #9
  call void @llvm.lifetime.start.p0(i64 32, ptr nonnull %84) #9
  call void @_ZN10xalanc_1_814XalanDOMStringC1EPKcj(ptr noundef nonnull align 8 dereferenceable(28) %84, ptr noundef nonnull @.str.197, i32 noundef -1)
  %784 = invoke noundef nonnull align 8 dereferenceable(24) ptr @_ZNSt6vectorItSaItEEaSERKS1_(ptr noundef nonnull align 8 dereferenceable(24) @_ZL35DEFAULT_WHITESPACE_SEPARATOR_STRING, ptr noundef nonnull align 8 dereferenceable(24) %84)
          to label %785 unwind label %1570

785:                                              ; preds = %783
  %786 = getelementptr inbounds %"class.xalanc_1_8::XalanDOMString", ptr %84, i64 0, i32 1
  %787 = load i32, ptr %786, align 8, !tbaa !12
  store i32 %787, ptr getelementptr inbounds (%"class.xalanc_1_8::XalanDOMString", ptr @_ZL35DEFAULT_WHITESPACE_SEPARATOR_STRING, i64 0, i32 1), align 8, !tbaa !12
  %788 = load ptr, ptr %84, align 8, !tbaa !7
  %789 = icmp eq ptr %788, null
  br i1 %789, label %791, label %790

790:                                              ; preds = %785
  call void @_ZdlPv(ptr noundef nonnull %788) #9
  br label %791

791:                                              ; preds = %785, %790
  call void @llvm.lifetime.end.p0(i64 32, ptr nonnull %84) #9
  call void @llvm.lifetime.start.p0(i64 32, ptr nonnull %85) #9
  call void @_ZN10xalanc_1_814XalanDOMStringC1EPKcj(ptr noundef nonnull align 8 dereferenceable(28) %85, ptr noundef nonnull @.str.198, i32 noundef -1)
  %792 = invoke noundef nonnull align 8 dereferenceable(24) ptr @_ZNSt6vectorItSaItEEaSERKS1_(ptr noundef nonnull align 8 dereferenceable(24) @_ZL19ELEMNAME_ANY_STRING, ptr noundef nonnull align 8 dereferenceable(24) %85)
          to label %793 unwind label %1576

793:                                              ; preds = %791
  %794 = getelementptr inbounds %"class.xalanc_1_8::XalanDOMString", ptr %85, i64 0, i32 1
  %795 = load i32, ptr %794, align 8, !tbaa !12
  store i32 %795, ptr getelementptr inbounds (%"class.xalanc_1_8::XalanDOMString", ptr @_ZL19ELEMNAME_ANY_STRING, i64 0, i32 1), align 8, !tbaa !12
  %796 = load ptr, ptr %85, align 8, !tbaa !7
  %797 = icmp eq ptr %796, null
  br i1 %797, label %799, label %798

798:                                              ; preds = %793
  call void @_ZdlPv(ptr noundef nonnull %796) #9
  br label %799

799:                                              ; preds = %793, %798
  call void @llvm.lifetime.end.p0(i64 32, ptr nonnull %85) #9
  call void @llvm.lifetime.start.p0(i64 32, ptr nonnull %86) #9
  call void @_ZN10xalanc_1_814XalanDOMStringC1EPKcj(ptr noundef nonnull align 8 dereferenceable(28) %86, ptr noundef nonnull @.str.199, i32 noundef -1)
  %800 = invoke noundef nonnull align 8 dereferenceable(24) ptr @_ZNSt6vectorItSaItEEaSERKS1_(ptr noundef nonnull align 8 dereferenceable(24) @_ZL41ELEMNAME_APPLY_IMPORTS_WITH_PREFIX_STRING, ptr noundef nonnull align 8 dereferenceable(24) %86)
          to label %801 unwind label %1582

801:                                              ; preds = %799
  %802 = getelementptr inbounds %"class.xalanc_1_8::XalanDOMString", ptr %86, i64 0, i32 1
  %803 = load i32, ptr %802, align 8, !tbaa !12
  store i32 %803, ptr getelementptr inbounds (%"class.xalanc_1_8::XalanDOMString", ptr @_ZL41ELEMNAME_APPLY_IMPORTS_WITH_PREFIX_STRING, i64 0, i32 1), align 8, !tbaa !12
  %804 = load ptr, ptr %86, align 8, !tbaa !7
  %805 = icmp eq ptr %804, null
  br i1 %805, label %807, label %806

806:                                              ; preds = %801
  call void @_ZdlPv(ptr noundef nonnull %804) #9
  br label %807

807:                                              ; preds = %801, %806
  call void @llvm.lifetime.end.p0(i64 32, ptr nonnull %86) #9
  call void @llvm.lifetime.start.p0(i64 32, ptr nonnull %87) #9
  call void @_ZN10xalanc_1_814XalanDOMStringC1EPKcj(ptr noundef nonnull align 8 dereferenceable(28) %87, ptr noundef nonnull @.str.200, i32 noundef -1)
  %808 = invoke noundef nonnull align 8 dereferenceable(24) ptr @_ZNSt6vectorItSaItEEaSERKS1_(ptr noundef nonnull align 8 dereferenceable(24) @_ZL43ELEMNAME_APPLY_TEMPLATES_WITH_PREFIX_STRING, ptr noundef nonnull align 8 dereferenceable(24) %87)
          to label %809 unwind label %1588

809:                                              ; preds = %807
  %810 = getelementptr inbounds %"class.xalanc_1_8::XalanDOMString", ptr %87, i64 0, i32 1
  %811 = load i32, ptr %810, align 8, !tbaa !12
  store i32 %811, ptr getelementptr inbounds (%"class.xalanc_1_8::XalanDOMString", ptr @_ZL43ELEMNAME_APPLY_TEMPLATES_WITH_PREFIX_STRING, i64 0, i32 1), align 8, !tbaa !12
  %812 = load ptr, ptr %87, align 8, !tbaa !7
  %813 = icmp eq ptr %812, null
  br i1 %813, label %815, label %814

814:                                              ; preds = %809
  call void @_ZdlPv(ptr noundef nonnull %812) #9
  br label %815

815:                                              ; preds = %809, %814
  call void @llvm.lifetime.end.p0(i64 32, ptr nonnull %87) #9
  call void @llvm.lifetime.start.p0(i64 32, ptr nonnull %88) #9
  call void @_ZN10xalanc_1_814XalanDOMStringC1EPKcj(ptr noundef nonnull align 8 dereferenceable(28) %88, ptr noundef nonnull @.str.201, i32 noundef -1)
  %816 = invoke noundef nonnull align 8 dereferenceable(24) ptr @_ZNSt6vectorItSaItEEaSERKS1_(ptr noundef nonnull align 8 dereferenceable(24) @_ZL40ELEMNAME_ATTRIBUTESET_WITH_PREFIX_STRING, ptr noundef nonnull align 8 dereferenceable(24) %88)
          to label %817 unwind label %1594

817:                                              ; preds = %815
  %818 = getelementptr inbounds %"class.xalanc_1_8::XalanDOMString", ptr %88, i64 0, i32 1
  %819 = load i32, ptr %818, align 8, !tbaa !12
  store i32 %819, ptr getelementptr inbounds (%"class.xalanc_1_8::XalanDOMString", ptr @_ZL40ELEMNAME_ATTRIBUTESET_WITH_PREFIX_STRING, i64 0, i32 1), align 8, !tbaa !12
  %820 = load ptr, ptr %88, align 8, !tbaa !7
  %821 = icmp eq ptr %820, null
  br i1 %821, label %823, label %822

822:                                              ; preds = %817
  call void @_ZdlPv(ptr noundef nonnull %820) #9
  br label %823

823:                                              ; preds = %817, %822
  call void @llvm.lifetime.end.p0(i64 32, ptr nonnull %88) #9
  call void @llvm.lifetime.start.p0(i64 32, ptr nonnull %89) #9
  call void @_ZN10xalanc_1_814XalanDOMStringC1EPKcj(ptr noundef nonnull align 8 dereferenceable(28) %89, ptr noundef nonnull @.str.202, i32 noundef -1)
  %824 = invoke noundef nonnull align 8 dereferenceable(24) ptr @_ZNSt6vectorItSaItEEaSERKS1_(ptr noundef nonnull align 8 dereferenceable(24) @_ZL37ELEMNAME_ATTRIBUTE_WITH_PREFIX_STRING, ptr noundef nonnull align 8 dereferenceable(24) %89)
          to label %825 unwind label %1600

825:                                              ; preds = %823
  %826 = getelementptr inbounds %"class.xalanc_1_8::XalanDOMString", ptr %89, i64 0, i32 1
  %827 = load i32, ptr %826, align 8, !tbaa !12
  store i32 %827, ptr getelementptr inbounds (%"class.xalanc_1_8::XalanDOMString", ptr @_ZL37ELEMNAME_ATTRIBUTE_WITH_PREFIX_STRING, i64 0, i32 1), align 8, !tbaa !12
  %828 = load ptr, ptr %89, align 8, !tbaa !7
  %829 = icmp eq ptr %828, null
  br i1 %829, label %831, label %830

830:                                              ; preds = %825
  call void @_ZdlPv(ptr noundef nonnull %828) #9
  br label %831

831:                                              ; preds = %825, %830
  call void @llvm.lifetime.end.p0(i64 32, ptr nonnull %89) #9
  call void @llvm.lifetime.start.p0(i64 32, ptr nonnull %90) #9
  call void @_ZN10xalanc_1_814XalanDOMStringC1EPKcj(ptr noundef nonnull align 8 dereferenceable(28) %90, ptr noundef nonnull @.str.203, i32 noundef -1)
  %832 = invoke noundef nonnull align 8 dereferenceable(24) ptr @_ZNSt6vectorItSaItEEaSERKS1_(ptr noundef nonnull align 8 dereferenceable(24) @_ZL40ELEMNAME_CALLTEMPLATE_WITH_PREFIX_STRING, ptr noundef nonnull align 8 dereferenceable(24) %90)
          to label %833 unwind label %1606

833:                                              ; preds = %831
  %834 = getelementptr inbounds %"class.xalanc_1_8::XalanDOMString", ptr %90, i64 0, i32 1
  %835 = load i32, ptr %834, align 8, !tbaa !12
  store i32 %835, ptr getelementptr inbounds (%"class.xalanc_1_8::XalanDOMString", ptr @_ZL40ELEMNAME_CALLTEMPLATE_WITH_PREFIX_STRING, i64 0, i32 1), align 8, !tbaa !12
  %836 = load ptr, ptr %90, align 8, !tbaa !7
  %837 = icmp eq ptr %836, null
  br i1 %837, label %839, label %838

838:                                              ; preds = %833
  call void @_ZdlPv(ptr noundef nonnull %836) #9
  br label %839

839:                                              ; preds = %833, %838
  call void @llvm.lifetime.end.p0(i64 32, ptr nonnull %90) #9
  call void @llvm.lifetime.start.p0(i64 32, ptr nonnull %91) #9
  call void @_ZN10xalanc_1_814XalanDOMStringC1EPKcj(ptr noundef nonnull align 8 dereferenceable(28) %91, ptr noundef nonnull @.str.204, i32 noundef -1)
  %840 = invoke noundef nonnull align 8 dereferenceable(24) ptr @_ZNSt6vectorItSaItEEaSERKS1_(ptr noundef nonnull align 8 dereferenceable(24) @_ZL34ELEMNAME_CHOOSE_WITH_PREFIX_STRING, ptr noundef nonnull align 8 dereferenceable(24) %91)
          to label %841 unwind label %1612

841:                                              ; preds = %839
  %842 = getelementptr inbounds %"class.xalanc_1_8::XalanDOMString", ptr %91, i64 0, i32 1
  %843 = load i32, ptr %842, align 8, !tbaa !12
  store i32 %843, ptr getelementptr inbounds (%"class.xalanc_1_8::XalanDOMString", ptr @_ZL34ELEMNAME_CHOOSE_WITH_PREFIX_STRING, i64 0, i32 1), align 8, !tbaa !12
  %844 = load ptr, ptr %91, align 8, !tbaa !7
  %845 = icmp eq ptr %844, null
  br i1 %845, label %847, label %846

846:                                              ; preds = %841
  call void @_ZdlPv(ptr noundef nonnull %844) #9
  br label %847

847:                                              ; preds = %841, %846
  call void @llvm.lifetime.end.p0(i64 32, ptr nonnull %91) #9
  call void @llvm.lifetime.start.p0(i64 32, ptr nonnull %92) #9
  call void @_ZN10xalanc_1_814XalanDOMStringC1EPKcj(ptr noundef nonnull align 8 dereferenceable(28) %92, ptr noundef nonnull @.str.205, i32 noundef -1)
  %848 = invoke noundef nonnull align 8 dereferenceable(24) ptr @_ZNSt6vectorItSaItEEaSERKS1_(ptr noundef nonnull align 8 dereferenceable(24) @_ZL35ELEMNAME_COMMENT_WITH_PREFIX_STRING, ptr noundef nonnull align 8 dereferenceable(24) %92)
          to label %849 unwind label %1618

849:                                              ; preds = %847
  %850 = getelementptr inbounds %"class.xalanc_1_8::XalanDOMString", ptr %92, i64 0, i32 1
  %851 = load i32, ptr %850, align 8, !tbaa !12
  store i32 %851, ptr getelementptr inbounds (%"class.xalanc_1_8::XalanDOMString", ptr @_ZL35ELEMNAME_COMMENT_WITH_PREFIX_STRING, i64 0, i32 1), align 8, !tbaa !12
  %852 = load ptr, ptr %92, align 8, !tbaa !7
  %853 = icmp eq ptr %852, null
  br i1 %853, label %855, label %854

854:                                              ; preds = %849
  call void @_ZdlPv(ptr noundef nonnull %852) #9
  br label %855

855:                                              ; preds = %849, %854
  call void @llvm.lifetime.end.p0(i64 32, ptr nonnull %92) #9
  call void @llvm.lifetime.start.p0(i64 32, ptr nonnull %93) #9
  call void @_ZN10xalanc_1_814XalanDOMStringC1EPKcj(ptr noundef nonnull align 8 dereferenceable(28) %93, ptr noundef nonnull @.str.206, i32 noundef -1)
  %856 = invoke noundef nonnull align 8 dereferenceable(24) ptr @_ZNSt6vectorItSaItEEaSERKS1_(ptr noundef nonnull align 8 dereferenceable(24) @_ZL35ELEMNAME_COPY_OF_WITH_PREFIX_STRING, ptr noundef nonnull align 8 dereferenceable(24) %93)
          to label %857 unwind label %1624

857:                                              ; preds = %855
  %858 = getelementptr inbounds %"class.xalanc_1_8::XalanDOMString", ptr %93, i64 0, i32 1
  %859 = load i32, ptr %858, align 8, !tbaa !12
  store i32 %859, ptr getelementptr inbounds (%"class.xalanc_1_8::XalanDOMString", ptr @_ZL35ELEMNAME_COPY_OF_WITH_PREFIX_STRING, i64 0, i32 1), align 8, !tbaa !12
  %860 = load ptr, ptr %93, align 8, !tbaa !7
  %861 = icmp eq ptr %860, null
  br i1 %861, label %863, label %862

862:                                              ; preds = %857
  call void @_ZdlPv(ptr noundef nonnull %860) #9
  br label %863

863:                                              ; preds = %857, %862
  call void @llvm.lifetime.end.p0(i64 32, ptr nonnull %93) #9
  call void @llvm.lifetime.start.p0(i64 32, ptr nonnull %94) #9
  call void @_ZN10xalanc_1_814XalanDOMStringC1EPKcj(ptr noundef nonnull align 8 dereferenceable(28) %94, ptr noundef nonnull @.str.207, i32 noundef -1)
  %864 = invoke noundef nonnull align 8 dereferenceable(24) ptr @_ZNSt6vectorItSaItEEaSERKS1_(ptr noundef nonnull align 8 dereferenceable(24) @_ZL32ELEMNAME_COPY_WITH_PREFIX_STRING, ptr noundef nonnull align 8 dereferenceable(24) %94)
          to label %865 unwind label %1630

865:                                              ; preds = %863
  %866 = getelementptr inbounds %"class.xalanc_1_8::XalanDOMString", ptr %94, i64 0, i32 1
  %867 = load i32, ptr %866, align 8, !tbaa !12
  store i32 %867, ptr getelementptr inbounds (%"class.xalanc_1_8::XalanDOMString", ptr @_ZL32ELEMNAME_COPY_WITH_PREFIX_STRING, i64 0, i32 1), align 8, !tbaa !12
  %868 = load ptr, ptr %94, align 8, !tbaa !7
  %869 = icmp eq ptr %868, null
  br i1 %869, label %871, label %870

870:                                              ; preds = %865
  call void @_ZdlPv(ptr noundef nonnull %868) #9
  br label %871

871:                                              ; preds = %865, %870
  call void @llvm.lifetime.end.p0(i64 32, ptr nonnull %94) #9
  call void @llvm.lifetime.start.p0(i64 32, ptr nonnull %95) #9
  call void @_ZN10xalanc_1_814XalanDOMStringC1EPKcj(ptr noundef nonnull align 8 dereferenceable(28) %95, ptr noundef nonnull @.str.208, i32 noundef -1)
  %872 = invoke noundef nonnull align 8 dereferenceable(24) ptr @_ZNSt6vectorItSaItEEaSERKS1_(ptr noundef nonnull align 8 dereferenceable(24) @_ZL41ELEMNAME_DECIMALFORMAT_WITH_PREFIX_STRING, ptr noundef nonnull align 8 dereferenceable(24) %95)
          to label %873 unwind label %1636

873:                                              ; preds = %871
  %874 = getelementptr inbounds %"class.xalanc_1_8::XalanDOMString", ptr %95, i64 0, i32 1
  %875 = load i32, ptr %874, align 8, !tbaa !12
  store i32 %875, ptr getelementptr inbounds (%"class.xalanc_1_8::XalanDOMString", ptr @_ZL41ELEMNAME_DECIMALFORMAT_WITH_PREFIX_STRING, i64 0, i32 1), align 8, !tbaa !12
  %876 = load ptr, ptr %95, align 8, !tbaa !7
  %877 = icmp eq ptr %876, null
  br i1 %877, label %879, label %878

878:                                              ; preds = %873
  call void @_ZdlPv(ptr noundef nonnull %876) #9
  br label %879

879:                                              ; preds = %873, %878
  call void @llvm.lifetime.end.p0(i64 32, ptr nonnull %95) #9
  call void @llvm.lifetime.start.p0(i64 32, ptr nonnull %96) #9
  call void @_ZN10xalanc_1_814XalanDOMStringC1EPKcj(ptr noundef nonnull align 8 dereferenceable(28) %96, ptr noundef nonnull @.str.209, i32 noundef -1)
  %880 = invoke noundef nonnull align 8 dereferenceable(24) ptr @_ZNSt6vectorItSaItEEaSERKS1_(ptr noundef nonnull align 8 dereferenceable(24) @_ZL25ELEMNAME_DISPLAYIF_STRING, ptr noundef nonnull align 8 dereferenceable(24) %96)
          to label %881 unwind label %1642

881:                                              ; preds = %879
  %882 = getelementptr inbounds %"class.xalanc_1_8::XalanDOMString", ptr %96, i64 0, i32 1
  %883 = load i32, ptr %882, align 8, !tbaa !12
  store i32 %883, ptr getelementptr inbounds (%"class.xalanc_1_8::XalanDOMString", ptr @_ZL25ELEMNAME_DISPLAYIF_STRING, i64 0, i32 1), align 8, !tbaa !12
  %884 = load ptr, ptr %96, align 8, !tbaa !7
  %885 = icmp eq ptr %884, null
  br i1 %885, label %887, label %886

886:                                              ; preds = %881
  call void @_ZdlPv(ptr noundef nonnull %884) #9
  br label %887

887:                                              ; preds = %881, %886
  call void @llvm.lifetime.end.p0(i64 32, ptr nonnull %96) #9
  call void @llvm.lifetime.start.p0(i64 32, ptr nonnull %97) #9
  call void @_ZN10xalanc_1_814XalanDOMStringC1EPKcj(ptr noundef nonnull align 8 dereferenceable(28) %97, ptr noundef nonnull @.str.210, i32 noundef -1)
  %888 = invoke noundef nonnull align 8 dereferenceable(24) ptr @_ZNSt6vectorItSaItEEaSERKS1_(ptr noundef nonnull align 8 dereferenceable(24) @_ZL35ELEMNAME_ELEMENT_WITH_PREFIX_STRING, ptr noundef nonnull align 8 dereferenceable(24) %97)
          to label %889 unwind label %1648

889:                                              ; preds = %887
  %890 = getelementptr inbounds %"class.xalanc_1_8::XalanDOMString", ptr %97, i64 0, i32 1
  %891 = load i32, ptr %890, align 8, !tbaa !12
  store i32 %891, ptr getelementptr inbounds (%"class.xalanc_1_8::XalanDOMString", ptr @_ZL35ELEMNAME_ELEMENT_WITH_PREFIX_STRING, i64 0, i32 1), align 8, !tbaa !12
  %892 = load ptr, ptr %97, align 8, !tbaa !7
  %893 = icmp eq ptr %892, null
  br i1 %893, label %895, label %894

894:                                              ; preds = %889
  call void @_ZdlPv(ptr noundef nonnull %892) #9
  br label %895

895:                                              ; preds = %889, %894
  call void @llvm.lifetime.end.p0(i64 32, ptr nonnull %97) #9
  call void @llvm.lifetime.start.p0(i64 32, ptr nonnull %98) #9
  call void @_ZN10xalanc_1_814XalanDOMStringC1EPKcj(ptr noundef nonnull align 8 dereferenceable(28) %98, ptr noundef nonnull @.str.211, i32 noundef -1)
  %896 = invoke noundef nonnull align 8 dereferenceable(24) ptr @_ZNSt6vectorItSaItEEaSERKS1_(ptr noundef nonnull align 8 dereferenceable(24) @_ZL36ELEMNAME_FALLBACK_WITH_PREFIX_STRING, ptr noundef nonnull align 8 dereferenceable(24) %98)
          to label %897 unwind label %1654

897:                                              ; preds = %895
  %898 = getelementptr inbounds %"class.xalanc_1_8::XalanDOMString", ptr %98, i64 0, i32 1
  %899 = load i32, ptr %898, align 8, !tbaa !12
  store i32 %899, ptr getelementptr inbounds (%"class.xalanc_1_8::XalanDOMString", ptr @_ZL36ELEMNAME_FALLBACK_WITH_PREFIX_STRING, i64 0, i32 1), align 8, !tbaa !12
  %900 = load ptr, ptr %98, align 8, !tbaa !7
  %901 = icmp eq ptr %900, null
  br i1 %901, label %903, label %902

902:                                              ; preds = %897
  call void @_ZdlPv(ptr noundef nonnull %900) #9
  br label %903

903:                                              ; preds = %897, %902
  call void @llvm.lifetime.end.p0(i64 32, ptr nonnull %98) #9
  call void @llvm.lifetime.start.p0(i64 32, ptr nonnull %99) #9
  call void @_ZN10xalanc_1_814XalanDOMStringC1EPKcj(ptr noundef nonnull align 8 dereferenceable(28) %99, ptr noundef nonnull @.str.212, i32 noundef -1)
  %904 = invoke noundef nonnull align 8 dereferenceable(24) ptr @_ZNSt6vectorItSaItEEaSERKS1_(ptr noundef nonnull align 8 dereferenceable(24) @_ZL35ELEMNAME_FOREACH_WITH_PREFIX_STRING, ptr noundef nonnull align 8 dereferenceable(24) %99)
          to label %905 unwind label %1660

905:                                              ; preds = %903
  %906 = getelementptr inbounds %"class.xalanc_1_8::XalanDOMString", ptr %99, i64 0, i32 1
  %907 = load i32, ptr %906, align 8, !tbaa !12
  store i32 %907, ptr getelementptr inbounds (%"class.xalanc_1_8::XalanDOMString", ptr @_ZL35ELEMNAME_FOREACH_WITH_PREFIX_STRING, i64 0, i32 1), align 8, !tbaa !12
  %908 = load ptr, ptr %99, align 8, !tbaa !7
  %909 = icmp eq ptr %908, null
  br i1 %909, label %911, label %910

910:                                              ; preds = %905
  call void @_ZdlPv(ptr noundef nonnull %908) #9
  br label %911

911:                                              ; preds = %905, %910
  call void @llvm.lifetime.end.p0(i64 32, ptr nonnull %99) #9
  call void @llvm.lifetime.start.p0(i64 32, ptr nonnull %100) #9
  call void @_ZN10xalanc_1_814XalanDOMStringC1EPKcj(ptr noundef nonnull align 8 dereferenceable(28) %100, ptr noundef nonnull @.str.213, i32 noundef -1)
  %912 = invoke noundef nonnull align 8 dereferenceable(24) ptr @_ZNSt6vectorItSaItEEaSERKS1_(ptr noundef nonnull align 8 dereferenceable(24) @_ZL20ELEMNAME_HTML_STRING, ptr noundef nonnull align 8 dereferenceable(24) %100)
          to label %913 unwind label %1666

913:                                              ; preds = %911
  %914 = getelementptr inbounds %"class.xalanc_1_8::XalanDOMString", ptr %100, i64 0, i32 1
  %915 = load i32, ptr %914, align 8, !tbaa !12
  store i32 %915, ptr getelementptr inbounds (%"class.xalanc_1_8::XalanDOMString", ptr @_ZL20ELEMNAME_HTML_STRING, i64 0, i32 1), align 8, !tbaa !12
  %916 = load ptr, ptr %100, align 8, !tbaa !7
  %917 = icmp eq ptr %916, null
  br i1 %917, label %919, label %918

918:                                              ; preds = %913
  call void @_ZdlPv(ptr noundef nonnull %916) #9
  br label %919

919:                                              ; preds = %913, %918
  call void @llvm.lifetime.end.p0(i64 32, ptr nonnull %100) #9
  call void @llvm.lifetime.start.p0(i64 32, ptr nonnull %101) #9
  call void @_ZN10xalanc_1_814XalanDOMStringC1EPKcj(ptr noundef nonnull align 8 dereferenceable(28) %101, ptr noundef nonnull @.str.214, i32 noundef -1)
  %920 = invoke noundef nonnull align 8 dereferenceable(24) ptr @_ZNSt6vectorItSaItEEaSERKS1_(ptr noundef nonnull align 8 dereferenceable(24) @_ZL30ELEMNAME_IF_WITH_PREFIX_STRING, ptr noundef nonnull align 8 dereferenceable(24) %101)
          to label %921 unwind label %1672

921:                                              ; preds = %919
  %922 = getelementptr inbounds %"class.xalanc_1_8::XalanDOMString", ptr %101, i64 0, i32 1
  %923 = load i32, ptr %922, align 8, !tbaa !12
  store i32 %923, ptr getelementptr inbounds (%"class.xalanc_1_8::XalanDOMString", ptr @_ZL30ELEMNAME_IF_WITH_PREFIX_STRING, i64 0, i32 1), align 8, !tbaa !12
  %924 = load ptr, ptr %101, align 8, !tbaa !7
  %925 = icmp eq ptr %924, null
  br i1 %925, label %927, label %926

926:                                              ; preds = %921
  call void @_ZdlPv(ptr noundef nonnull %924) #9
  br label %927

927:                                              ; preds = %921, %926
  call void @llvm.lifetime.end.p0(i64 32, ptr nonnull %101) #9
  call void @llvm.lifetime.start.p0(i64 32, ptr nonnull %102) #9
  call void @_ZN10xalanc_1_814XalanDOMStringC1EPKcj(ptr noundef nonnull align 8 dereferenceable(28) %102, ptr noundef nonnull @.str.215, i32 noundef -1)
  %928 = invoke noundef nonnull align 8 dereferenceable(24) ptr @_ZNSt6vectorItSaItEEaSERKS1_(ptr noundef nonnull align 8 dereferenceable(24) @_ZL34ELEMNAME_IMPORT_WITH_PREFIX_STRING, ptr noundef nonnull align 8 dereferenceable(24) %102)
          to label %929 unwind label %1678

929:                                              ; preds = %927
  %930 = getelementptr inbounds %"class.xalanc_1_8::XalanDOMString", ptr %102, i64 0, i32 1
  %931 = load i32, ptr %930, align 8, !tbaa !12
  store i32 %931, ptr getelementptr inbounds (%"class.xalanc_1_8::XalanDOMString", ptr @_ZL34ELEMNAME_IMPORT_WITH_PREFIX_STRING, i64 0, i32 1), align 8, !tbaa !12
  %932 = load ptr, ptr %102, align 8, !tbaa !7
  %933 = icmp eq ptr %932, null
  br i1 %933, label %935, label %934

934:                                              ; preds = %929
  call void @_ZdlPv(ptr noundef nonnull %932) #9
  br label %935

935:                                              ; preds = %929, %934
  call void @llvm.lifetime.end.p0(i64 32, ptr nonnull %102) #9
  call void @llvm.lifetime.start.p0(i64 32, ptr nonnull %103) #9
  call void @_ZN10xalanc_1_814XalanDOMStringC1EPKcj(ptr noundef nonnull align 8 dereferenceable(28) %103, ptr noundef nonnull @.str.216, i32 noundef -1)
  %936 = invoke noundef nonnull align 8 dereferenceable(24) ptr @_ZNSt6vectorItSaItEEaSERKS1_(ptr noundef nonnull align 8 dereferenceable(24) @_ZL35ELEMNAME_INCLUDE_WITH_PREFIX_STRING, ptr noundef nonnull align 8 dereferenceable(24) %103)
          to label %937 unwind label %1684

937:                                              ; preds = %935
  %938 = getelementptr inbounds %"class.xalanc_1_8::XalanDOMString", ptr %103, i64 0, i32 1
  %939 = load i32, ptr %938, align 8, !tbaa !12
  store i32 %939, ptr getelementptr inbounds (%"class.xalanc_1_8::XalanDOMString", ptr @_ZL35ELEMNAME_INCLUDE_WITH_PREFIX_STRING, i64 0, i32 1), align 8, !tbaa !12
  %940 = load ptr, ptr %103, align 8, !tbaa !7
  %941 = icmp eq ptr %940, null
  br i1 %941, label %943, label %942

942:                                              ; preds = %937
  call void @_ZdlPv(ptr noundef nonnull %940) #9
  br label %943

943:                                              ; preds = %937, %942
  call void @llvm.lifetime.end.p0(i64 32, ptr nonnull %103) #9
  call void @llvm.lifetime.start.p0(i64 32, ptr nonnull %104) #9
  call void @_ZN10xalanc_1_814XalanDOMStringC1EPKcj(ptr noundef nonnull align 8 dereferenceable(28) %104, ptr noundef nonnull @.str.217, i32 noundef -1)
  %944 = invoke noundef nonnull align 8 dereferenceable(24) ptr @_ZNSt6vectorItSaItEEaSERKS1_(ptr noundef nonnull align 8 dereferenceable(24) @_ZL31ELEMNAME_KEY_WITH_PREFIX_STRING, ptr noundef nonnull align 8 dereferenceable(24) %104)
          to label %945 unwind label %1690

945:                                              ; preds = %943
  %946 = getelementptr inbounds %"class.xalanc_1_8::XalanDOMString", ptr %104, i64 0, i32 1
  %947 = load i32, ptr %946, align 8, !tbaa !12
  store i32 %947, ptr getelementptr inbounds (%"class.xalanc_1_8::XalanDOMString", ptr @_ZL31ELEMNAME_KEY_WITH_PREFIX_STRING, i64 0, i32 1), align 8, !tbaa !12
  %948 = load ptr, ptr %104, align 8, !tbaa !7
  %949 = icmp eq ptr %948, null
  br i1 %949, label %951, label %950

950:                                              ; preds = %945
  call void @_ZdlPv(ptr noundef nonnull %948) #9
  br label %951

951:                                              ; preds = %945, %950
  call void @llvm.lifetime.end.p0(i64 32, ptr nonnull %104) #9
  call void @llvm.lifetime.start.p0(i64 32, ptr nonnull %105) #9
  call void @_ZN10xalanc_1_814XalanDOMStringC1EPKcj(ptr noundef nonnull align 8 dereferenceable(28) %105, ptr noundef nonnull @.str.218, i32 noundef -1)
  %952 = invoke noundef nonnull align 8 dereferenceable(24) ptr @_ZNSt6vectorItSaItEEaSERKS1_(ptr noundef nonnull align 8 dereferenceable(24) @_ZL35ELEMNAME_MESSAGE_WITH_PREFIX_STRING, ptr noundef nonnull align 8 dereferenceable(24) %105)
          to label %953 unwind label %1696

953:                                              ; preds = %951
  %954 = getelementptr inbounds %"class.xalanc_1_8::XalanDOMString", ptr %105, i64 0, i32 1
  %955 = load i32, ptr %954, align 8, !tbaa !12
  store i32 %955, ptr getelementptr inbounds (%"class.xalanc_1_8::XalanDOMString", ptr @_ZL35ELEMNAME_MESSAGE_WITH_PREFIX_STRING, i64 0, i32 1), align 8, !tbaa !12
  %956 = load ptr, ptr %105, align 8, !tbaa !7
  %957 = icmp eq ptr %956, null
  br i1 %957, label %959, label %958

958:                                              ; preds = %953
  call void @_ZdlPv(ptr noundef nonnull %956) #9
  br label %959

959:                                              ; preds = %953, %958
  call void @llvm.lifetime.end.p0(i64 32, ptr nonnull %105) #9
  call void @llvm.lifetime.start.p0(i64 32, ptr nonnull %106) #9
  call void @_ZN10xalanc_1_814XalanDOMStringC1EPKcj(ptr noundef nonnull align 8 dereferenceable(28) %106, ptr noundef nonnull @.str.219, i32 noundef -1)
  %960 = invoke noundef nonnull align 8 dereferenceable(24) ptr @_ZNSt6vectorItSaItEEaSERKS1_(ptr noundef nonnull align 8 dereferenceable(24) @_ZL34ELEMNAME_NUMBER_WITH_PREFIX_STRING, ptr noundef nonnull align 8 dereferenceable(24) %106)
          to label %961 unwind label %1702

961:                                              ; preds = %959
  %962 = getelementptr inbounds %"class.xalanc_1_8::XalanDOMString", ptr %106, i64 0, i32 1
  %963 = load i32, ptr %962, align 8, !tbaa !12
  store i32 %963, ptr getelementptr inbounds (%"class.xalanc_1_8::XalanDOMString", ptr @_ZL34ELEMNAME_NUMBER_WITH_PREFIX_STRING, i64 0, i32 1), align 8, !tbaa !12
  %964 = load ptr, ptr %106, align 8, !tbaa !7
  %965 = icmp eq ptr %964, null
  br i1 %965, label %967, label %966

966:                                              ; preds = %961
  call void @_ZdlPv(ptr noundef nonnull %964) #9
  br label %967

967:                                              ; preds = %961, %966
  call void @llvm.lifetime.end.p0(i64 32, ptr nonnull %106) #9
  call void @llvm.lifetime.start.p0(i64 32, ptr nonnull %107) #9
  call void @_ZN10xalanc_1_814XalanDOMStringC1EPKcj(ptr noundef nonnull align 8 dereferenceable(28) %107, ptr noundef nonnull @.str.220, i32 noundef -1)
  %968 = invoke noundef nonnull align 8 dereferenceable(24) ptr @_ZNSt6vectorItSaItEEaSERKS1_(ptr noundef nonnull align 8 dereferenceable(24) @_ZL37ELEMNAME_OTHERWISE_WITH_PREFIX_STRING, ptr noundef nonnull align 8 dereferenceable(24) %107)
          to label %969 unwind label %1708

969:                                              ; preds = %967
  %970 = getelementptr inbounds %"class.xalanc_1_8::XalanDOMString", ptr %107, i64 0, i32 1
  %971 = load i32, ptr %970, align 8, !tbaa !12
  store i32 %971, ptr getelementptr inbounds (%"class.xalanc_1_8::XalanDOMString", ptr @_ZL37ELEMNAME_OTHERWISE_WITH_PREFIX_STRING, i64 0, i32 1), align 8, !tbaa !12
  %972 = load ptr, ptr %107, align 8, !tbaa !7
  %973 = icmp eq ptr %972, null
  br i1 %973, label %975, label %974

974:                                              ; preds = %969
  call void @_ZdlPv(ptr noundef nonnull %972) #9
  br label %975

975:                                              ; preds = %969, %974
  call void @llvm.lifetime.end.p0(i64 32, ptr nonnull %107) #9
  call void @llvm.lifetime.start.p0(i64 32, ptr nonnull %108) #9
  call void @_ZN10xalanc_1_814XalanDOMStringC1EPKcj(ptr noundef nonnull align 8 dereferenceable(28) %108, ptr noundef nonnull @.str.221, i32 noundef -1)
  %976 = invoke noundef nonnull align 8 dereferenceable(24) ptr @_ZNSt6vectorItSaItEEaSERKS1_(ptr noundef nonnull align 8 dereferenceable(24) @_ZL33ELEMNAME_PARAM_WITH_PREFIX_STRING, ptr noundef nonnull align 8 dereferenceable(24) %108)
          to label %977 unwind label %1714

977:                                              ; preds = %975
  %978 = getelementptr inbounds %"class.xalanc_1_8::XalanDOMString", ptr %108, i64 0, i32 1
  %979 = load i32, ptr %978, align 8, !tbaa !12
  store i32 %979, ptr getelementptr inbounds (%"class.xalanc_1_8::XalanDOMString", ptr @_ZL33ELEMNAME_PARAM_WITH_PREFIX_STRING, i64 0, i32 1), align 8, !tbaa !12
  %980 = load ptr, ptr %108, align 8, !tbaa !7
  %981 = icmp eq ptr %980, null
  br i1 %981, label %983, label %982

982:                                              ; preds = %977
  call void @_ZdlPv(ptr noundef nonnull %980) #9
  br label %983

983:                                              ; preds = %977, %982
  call void @llvm.lifetime.end.p0(i64 32, ptr nonnull %108) #9
  call void @llvm.lifetime.start.p0(i64 32, ptr nonnull %109) #9
  call void @_ZN10xalanc_1_814XalanDOMStringC1EPKcj(ptr noundef nonnull align 8 dereferenceable(28) %109, ptr noundef nonnull @.str.222, i32 noundef -1)
  %984 = invoke noundef nonnull align 8 dereferenceable(24) ptr @_ZNSt6vectorItSaItEEaSERKS1_(ptr noundef nonnull align 8 dereferenceable(24) @_ZL30ELEMNAME_PI_WITH_PREFIX_STRING, ptr noundef nonnull align 8 dereferenceable(24) %109)
          to label %985 unwind label %1720

985:                                              ; preds = %983
  %986 = getelementptr inbounds %"class.xalanc_1_8::XalanDOMString", ptr %109, i64 0, i32 1
  %987 = load i32, ptr %986, align 8, !tbaa !12
  store i32 %987, ptr getelementptr inbounds (%"class.xalanc_1_8::XalanDOMString", ptr @_ZL30ELEMNAME_PI_WITH_PREFIX_STRING, i64 0, i32 1), align 8, !tbaa !12
  %988 = load ptr, ptr %109, align 8, !tbaa !7
  %989 = icmp eq ptr %988, null
  br i1 %989, label %991, label %990

990:                                              ; preds = %985
  call void @_ZdlPv(ptr noundef nonnull %988) #9
  br label %991

991:                                              ; preds = %985, %990
  call void @llvm.lifetime.end.p0(i64 32, ptr nonnull %109) #9
  call void @llvm.lifetime.start.p0(i64 32, ptr nonnull %110) #9
  call void @_ZN10xalanc_1_814XalanDOMStringC1EPKcj(ptr noundef nonnull align 8 dereferenceable(28) %110, ptr noundef nonnull @.str.223, i32 noundef -1)
  %992 = invoke noundef nonnull align 8 dereferenceable(24) ptr @_ZNSt6vectorItSaItEEaSERKS1_(ptr noundef nonnull align 8 dereferenceable(24) @_ZL41ELEMNAME_PRESERVESPACE_WITH_PREFIX_STRING, ptr noundef nonnull align 8 dereferenceable(24) %110)
          to label %993 unwind label %1726

993:                                              ; preds = %991
  %994 = getelementptr inbounds %"class.xalanc_1_8::XalanDOMString", ptr %110, i64 0, i32 1
  %995 = load i32, ptr %994, align 8, !tbaa !12
  store i32 %995, ptr getelementptr inbounds (%"class.xalanc_1_8::XalanDOMString", ptr @_ZL41ELEMNAME_PRESERVESPACE_WITH_PREFIX_STRING, i64 0, i32 1), align 8, !tbaa !12
  %996 = load ptr, ptr %110, align 8, !tbaa !7
  %997 = icmp eq ptr %996, null
  br i1 %997, label %999, label %998

998:                                              ; preds = %993
  call void @_ZdlPv(ptr noundef nonnull %996) #9
  br label %999

999:                                              ; preds = %993, %998
  call void @llvm.lifetime.end.p0(i64 32, ptr nonnull %110) #9
  call void @llvm.lifetime.start.p0(i64 32, ptr nonnull %111) #9
  call void @_ZN10xalanc_1_814XalanDOMStringC1EPKcj(ptr noundef nonnull align 8 dereferenceable(28) %111, ptr noundef nonnull @.str.224, i32 noundef -1)
  %1000 = invoke noundef nonnull align 8 dereferenceable(24) ptr @_ZNSt6vectorItSaItEEaSERKS1_(ptr noundef nonnull align 8 dereferenceable(24) @_ZL32ELEMNAME_SORT_WITH_PREFIX_STRING, ptr noundef nonnull align 8 dereferenceable(24) %111)
          to label %1001 unwind label %1732

1001:                                             ; preds = %999
  %1002 = getelementptr inbounds %"class.xalanc_1_8::XalanDOMString", ptr %111, i64 0, i32 1
  %1003 = load i32, ptr %1002, align 8, !tbaa !12
  store i32 %1003, ptr getelementptr inbounds (%"class.xalanc_1_8::XalanDOMString", ptr @_ZL32ELEMNAME_SORT_WITH_PREFIX_STRING, i64 0, i32 1), align 8, !tbaa !12
  %1004 = load ptr, ptr %111, align 8, !tbaa !7
  %1005 = icmp eq ptr %1004, null
  br i1 %1005, label %1007, label %1006

1006:                                             ; preds = %1001
  call void @_ZdlPv(ptr noundef nonnull %1004) #9
  br label %1007

1007:                                             ; preds = %1001, %1006
  call void @llvm.lifetime.end.p0(i64 32, ptr nonnull %111) #9
  call void @llvm.lifetime.start.p0(i64 32, ptr nonnull %112) #9
  call void @_ZN10xalanc_1_814XalanDOMStringC1EPKcj(ptr noundef nonnull align 8 dereferenceable(28) %112, ptr noundef nonnull @.str.225, i32 noundef -1)
  %1008 = invoke noundef nonnull align 8 dereferenceable(24) ptr @_ZNSt6vectorItSaItEEaSERKS1_(ptr noundef nonnull align 8 dereferenceable(24) @_ZL38ELEMNAME_STRIPSPACE_WITH_PREFIX_STRING, ptr noundef nonnull align 8 dereferenceable(24) %112)
          to label %1009 unwind label %1738

1009:                                             ; preds = %1007
  %1010 = getelementptr inbounds %"class.xalanc_1_8::XalanDOMString", ptr %112, i64 0, i32 1
  %1011 = load i32, ptr %1010, align 8, !tbaa !12
  store i32 %1011, ptr getelementptr inbounds (%"class.xalanc_1_8::XalanDOMString", ptr @_ZL38ELEMNAME_STRIPSPACE_WITH_PREFIX_STRING, i64 0, i32 1), align 8, !tbaa !12
  %1012 = load ptr, ptr %112, align 8, !tbaa !7
  %1013 = icmp eq ptr %1012, null
  br i1 %1013, label %1015, label %1014

1014:                                             ; preds = %1009
  call void @_ZdlPv(ptr noundef nonnull %1012) #9
  br label %1015

1015:                                             ; preds = %1009, %1014
  call void @llvm.lifetime.end.p0(i64 32, ptr nonnull %112) #9
  call void @llvm.lifetime.start.p0(i64 32, ptr nonnull %113) #9
  call void @_ZN10xalanc_1_814XalanDOMStringC1EPKcj(ptr noundef nonnull align 8 dereferenceable(28) %113, ptr noundef nonnull @.str.226, i32 noundef -1)
  %1016 = invoke noundef nonnull align 8 dereferenceable(24) ptr @_ZNSt6vectorItSaItEEaSERKS1_(ptr noundef nonnull align 8 dereferenceable(24) @_ZL36ELEMNAME_TEMPLATE_WITH_PREFIX_STRING, ptr noundef nonnull align 8 dereferenceable(24) %113)
          to label %1017 unwind label %1744

1017:                                             ; preds = %1015
  %1018 = getelementptr inbounds %"class.xalanc_1_8::XalanDOMString", ptr %113, i64 0, i32 1
  %1019 = load i32, ptr %1018, align 8, !tbaa !12
  store i32 %1019, ptr getelementptr inbounds (%"class.xalanc_1_8::XalanDOMString", ptr @_ZL36ELEMNAME_TEMPLATE_WITH_PREFIX_STRING, i64 0, i32 1), align 8, !tbaa !12
  %1020 = load ptr, ptr %113, align 8, !tbaa !7
  %1021 = icmp eq ptr %1020, null
  br i1 %1021, label %1023, label %1022

1022:                                             ; preds = %1017
  call void @_ZdlPv(ptr noundef nonnull %1020) #9
  br label %1023

1023:                                             ; preds = %1017, %1022
  call void @llvm.lifetime.end.p0(i64 32, ptr nonnull %113) #9
  call void @llvm.lifetime.start.p0(i64 32, ptr nonnull %114) #9
  call void @_ZN10xalanc_1_814XalanDOMStringC1EPKcj(ptr noundef nonnull align 8 dereferenceable(28) %114, ptr noundef nonnull @.str.227, i32 noundef -1)
  %1024 = invoke noundef nonnull align 8 dereferenceable(24) ptr @_ZNSt6vectorItSaItEEaSERKS1_(ptr noundef nonnull align 8 dereferenceable(24) @_ZL32ELEMNAME_TEXT_WITH_PREFIX_STRING, ptr noundef nonnull align 8 dereferenceable(24) %114)
          to label %1025 unwind label %1750

1025:                                             ; preds = %1023
  %1026 = getelementptr inbounds %"class.xalanc_1_8::XalanDOMString", ptr %114, i64 0, i32 1
  %1027 = load i32, ptr %1026, align 8, !tbaa !12
  store i32 %1027, ptr getelementptr inbounds (%"class.xalanc_1_8::XalanDOMString", ptr @_ZL32ELEMNAME_TEXT_WITH_PREFIX_STRING, i64 0, i32 1), align 8, !tbaa !12
  %1028 = load ptr, ptr %114, align 8, !tbaa !7
  %1029 = icmp eq ptr %1028, null
  br i1 %1029, label %1031, label %1030

1030:                                             ; preds = %1025
  call void @_ZdlPv(ptr noundef nonnull %1028) #9
  br label %1031

1031:                                             ; preds = %1025, %1030
  call void @llvm.lifetime.end.p0(i64 32, ptr nonnull %114) #9
  call void @llvm.lifetime.start.p0(i64 32, ptr nonnull %115) #9
  call void @_ZN10xalanc_1_814XalanDOMStringC1EPKcj(ptr noundef nonnull align 8 dereferenceable(28) %115, ptr noundef nonnull @.str.228, i32 noundef -1)
  %1032 = invoke noundef nonnull align 8 dereferenceable(24) ptr @_ZNSt6vectorItSaItEEaSERKS1_(ptr noundef nonnull align 8 dereferenceable(24) @_ZL35ELEMNAME_VALUEOF_WITH_PREFIX_STRING, ptr noundef nonnull align 8 dereferenceable(24) %115)
          to label %1033 unwind label %1756

1033:                                             ; preds = %1031
  %1034 = getelementptr inbounds %"class.xalanc_1_8::XalanDOMString", ptr %115, i64 0, i32 1
  %1035 = load i32, ptr %1034, align 8, !tbaa !12
  store i32 %1035, ptr getelementptr inbounds (%"class.xalanc_1_8::XalanDOMString", ptr @_ZL35ELEMNAME_VALUEOF_WITH_PREFIX_STRING, i64 0, i32 1), align 8, !tbaa !12
  %1036 = load ptr, ptr %115, align 8, !tbaa !7
  %1037 = icmp eq ptr %1036, null
  br i1 %1037, label %1039, label %1038

1038:                                             ; preds = %1033
  call void @_ZdlPv(ptr noundef nonnull %1036) #9
  br label %1039

1039:                                             ; preds = %1033, %1038
  call void @llvm.lifetime.end.p0(i64 32, ptr nonnull %115) #9
  call void @llvm.lifetime.start.p0(i64 32, ptr nonnull %116) #9
  call void @_ZN10xalanc_1_814XalanDOMStringC1EPKcj(ptr noundef nonnull align 8 dereferenceable(28) %116, ptr noundef nonnull @.str.229, i32 noundef -1)
  %1040 = invoke noundef nonnull align 8 dereferenceable(24) ptr @_ZNSt6vectorItSaItEEaSERKS1_(ptr noundef nonnull align 8 dereferenceable(24) @_ZL36ELEMNAME_VARIABLE_WITH_PREFIX_STRING, ptr noundef nonnull align 8 dereferenceable(24) %116)
          to label %1041 unwind label %1762

1041:                                             ; preds = %1039
  %1042 = getelementptr inbounds %"class.xalanc_1_8::XalanDOMString", ptr %116, i64 0, i32 1
  %1043 = load i32, ptr %1042, align 8, !tbaa !12
  store i32 %1043, ptr getelementptr inbounds (%"class.xalanc_1_8::XalanDOMString", ptr @_ZL36ELEMNAME_VARIABLE_WITH_PREFIX_STRING, i64 0, i32 1), align 8, !tbaa !12
  %1044 = load ptr, ptr %116, align 8, !tbaa !7
  %1045 = icmp eq ptr %1044, null
  br i1 %1045, label %1047, label %1046

1046:                                             ; preds = %1041
  call void @_ZdlPv(ptr noundef nonnull %1044) #9
  br label %1047

1047:                                             ; preds = %1041, %1046
  call void @llvm.lifetime.end.p0(i64 32, ptr nonnull %116) #9
  call void @llvm.lifetime.start.p0(i64 32, ptr nonnull %117) #9
  call void @_ZN10xalanc_1_814XalanDOMStringC1EPKcj(ptr noundef nonnull align 8 dereferenceable(28) %117, ptr noundef nonnull @.str.230, i32 noundef -1)
  %1048 = invoke noundef nonnull align 8 dereferenceable(24) ptr @_ZNSt6vectorItSaItEEaSERKS1_(ptr noundef nonnull align 8 dereferenceable(24) @_ZL32ELEMNAME_WHEN_WITH_PREFIX_STRING, ptr noundef nonnull align 8 dereferenceable(24) %117)
          to label %1049 unwind label %1768

1049:                                             ; preds = %1047
  %1050 = getelementptr inbounds %"class.xalanc_1_8::XalanDOMString", ptr %117, i64 0, i32 1
  %1051 = load i32, ptr %1050, align 8, !tbaa !12
  store i32 %1051, ptr getelementptr inbounds (%"class.xalanc_1_8::XalanDOMString", ptr @_ZL32ELEMNAME_WHEN_WITH_PREFIX_STRING, i64 0, i32 1), align 8, !tbaa !12
  %1052 = load ptr, ptr %117, align 8, !tbaa !7
  %1053 = icmp eq ptr %1052, null
  br i1 %1053, label %1055, label %1054

1054:                                             ; preds = %1049
  call void @_ZdlPv(ptr noundef nonnull %1052) #9
  br label %1055

1055:                                             ; preds = %1049, %1054
  call void @llvm.lifetime.end.p0(i64 32, ptr nonnull %117) #9
  call void @llvm.lifetime.start.p0(i64 32, ptr nonnull %118) #9
  call void @_ZN10xalanc_1_814XalanDOMStringC1EPKcj(ptr noundef nonnull align 8 dereferenceable(28) %118, ptr noundef nonnull @.str.231, i32 noundef -1)
  %1056 = invoke noundef nonnull align 8 dereferenceable(24) ptr @_ZNSt6vectorItSaItEEaSERKS1_(ptr noundef nonnull align 8 dereferenceable(24) @_ZL37ELEMNAME_WITHPARAM_WITH_PREFIX_STRING, ptr noundef nonnull align 8 dereferenceable(24) %118)
          to label %1057 unwind label %1774

1057:                                             ; preds = %1055
  %1058 = getelementptr inbounds %"class.xalanc_1_8::XalanDOMString", ptr %118, i64 0, i32 1
  %1059 = load i32, ptr %1058, align 8, !tbaa !12
  store i32 %1059, ptr getelementptr inbounds (%"class.xalanc_1_8::XalanDOMString", ptr @_ZL37ELEMNAME_WITHPARAM_WITH_PREFIX_STRING, i64 0, i32 1), align 8, !tbaa !12
  %1060 = load ptr, ptr %118, align 8, !tbaa !7
  %1061 = icmp eq ptr %1060, null
  br i1 %1061, label %1063, label %1062

1062:                                             ; preds = %1057
  call void @_ZdlPv(ptr noundef nonnull %1060) #9
  br label %1063

1063:                                             ; preds = %1057, %1062
  call void @llvm.lifetime.end.p0(i64 32, ptr nonnull %118) #9
  call void @llvm.lifetime.start.p0(i64 32, ptr nonnull %119) #9
  call void @_ZN10xalanc_1_814XalanDOMStringC1EPKcj(ptr noundef nonnull align 8 dereferenceable(28) %119, ptr noundef nonnull @.str.232, i32 noundef -1)
  %1064 = invoke noundef nonnull align 8 dereferenceable(24) ptr @_ZNSt6vectorItSaItEEaSERKS1_(ptr noundef nonnull align 8 dereferenceable(24) @_ZL15PSEUDONAME_NODE, ptr noundef nonnull align 8 dereferenceable(24) %119)
          to label %1065 unwind label %1780

1065:                                             ; preds = %1063
  %1066 = getelementptr inbounds %"class.xalanc_1_8::XalanDOMString", ptr %119, i64 0, i32 1
  %1067 = load i32, ptr %1066, align 8, !tbaa !12
  store i32 %1067, ptr getelementptr inbounds (%"class.xalanc_1_8::XalanDOMString", ptr @_ZL15PSEUDONAME_NODE, i64 0, i32 1), align 8, !tbaa !12
  %1068 = load ptr, ptr %119, align 8, !tbaa !7
  %1069 = icmp eq ptr %1068, null
  br i1 %1069, label %1071, label %1070

1070:                                             ; preds = %1065
  call void @_ZdlPv(ptr noundef nonnull %1068) #9
  br label %1071

1071:                                             ; preds = %1065, %1070
  call void @llvm.lifetime.end.p0(i64 32, ptr nonnull %119) #9
  ret void

1072:                                             ; preds = %0
  %1073 = landingpad { ptr, i32 }
          cleanup
  %1074 = load ptr, ptr %1, align 8, !tbaa !7
  %1075 = icmp eq ptr %1074, null
  br i1 %1075, label %1077, label %1076

1076:                                             ; preds = %1072
  call void @_ZdlPv(ptr noundef nonnull %1074) #9
  br label %1077

1077:                                             ; preds = %1076, %1072
  call void @llvm.lifetime.end.p0(i64 32, ptr nonnull %1) #9
  br label %1786

1078:                                             ; preds = %127
  %1079 = landingpad { ptr, i32 }
          cleanup
  %1080 = load ptr, ptr %2, align 8, !tbaa !7
  %1081 = icmp eq ptr %1080, null
  br i1 %1081, label %1083, label %1082

1082:                                             ; preds = %1078
  call void @_ZdlPv(ptr noundef nonnull %1080) #9
  br label %1083

1083:                                             ; preds = %1082, %1078
  call void @llvm.lifetime.end.p0(i64 32, ptr nonnull %2) #9
  br label %1786

1084:                                             ; preds = %135
  %1085 = landingpad { ptr, i32 }
          cleanup
  %1086 = load ptr, ptr %3, align 8, !tbaa !7
  %1087 = icmp eq ptr %1086, null
  br i1 %1087, label %1089, label %1088

1088:                                             ; preds = %1084
  call void @_ZdlPv(ptr noundef nonnull %1086) #9
  br label %1089

1089:                                             ; preds = %1088, %1084
  call void @llvm.lifetime.end.p0(i64 32, ptr nonnull %3) #9
  br label %1786

1090:                                             ; preds = %143
  %1091 = landingpad { ptr, i32 }
          cleanup
  %1092 = load ptr, ptr %4, align 8, !tbaa !7
  %1093 = icmp eq ptr %1092, null
  br i1 %1093, label %1095, label %1094

1094:                                             ; preds = %1090
  call void @_ZdlPv(ptr noundef nonnull %1092) #9
  br label %1095

1095:                                             ; preds = %1094, %1090
  call void @llvm.lifetime.end.p0(i64 32, ptr nonnull %4) #9
  br label %1786

1096:                                             ; preds = %151
  %1097 = landingpad { ptr, i32 }
          cleanup
  %1098 = load ptr, ptr %5, align 8, !tbaa !7
  %1099 = icmp eq ptr %1098, null
  br i1 %1099, label %1101, label %1100

1100:                                             ; preds = %1096
  call void @_ZdlPv(ptr noundef nonnull %1098) #9
  br label %1101

1101:                                             ; preds = %1100, %1096
  call void @llvm.lifetime.end.p0(i64 32, ptr nonnull %5) #9
  br label %1786

1102:                                             ; preds = %159
  %1103 = landingpad { ptr, i32 }
          cleanup
  %1104 = load ptr, ptr %6, align 8, !tbaa !7
  %1105 = icmp eq ptr %1104, null
  br i1 %1105, label %1107, label %1106

1106:                                             ; preds = %1102
  call void @_ZdlPv(ptr noundef nonnull %1104) #9
  br label %1107

1107:                                             ; preds = %1106, %1102
  call void @llvm.lifetime.end.p0(i64 32, ptr nonnull %6) #9
  br label %1786

1108:                                             ; preds = %167
  %1109 = landingpad { ptr, i32 }
          cleanup
  %1110 = load ptr, ptr %7, align 8, !tbaa !7
  %1111 = icmp eq ptr %1110, null
  br i1 %1111, label %1113, label %1112

1112:                                             ; preds = %1108
  call void @_ZdlPv(ptr noundef nonnull %1110) #9
  br label %1113

1113:                                             ; preds = %1112, %1108
  call void @llvm.lifetime.end.p0(i64 32, ptr nonnull %7) #9
  br label %1786

1114:                                             ; preds = %175
  %1115 = landingpad { ptr, i32 }
          cleanup
  %1116 = load ptr, ptr %8, align 8, !tbaa !7
  %1117 = icmp eq ptr %1116, null
  br i1 %1117, label %1119, label %1118

1118:                                             ; preds = %1114
  call void @_ZdlPv(ptr noundef nonnull %1116) #9
  br label %1119

1119:                                             ; preds = %1118, %1114
  call void @llvm.lifetime.end.p0(i64 32, ptr nonnull %8) #9
  br label %1786

1120:                                             ; preds = %183
  %1121 = landingpad { ptr, i32 }
          cleanup
  %1122 = load ptr, ptr %9, align 8, !tbaa !7
  %1123 = icmp eq ptr %1122, null
  br i1 %1123, label %1125, label %1124

1124:                                             ; preds = %1120
  call void @_ZdlPv(ptr noundef nonnull %1122) #9
  br label %1125

1125:                                             ; preds = %1124, %1120
  call void @llvm.lifetime.end.p0(i64 32, ptr nonnull %9) #9
  br label %1786

1126:                                             ; preds = %191
  %1127 = landingpad { ptr, i32 }
          cleanup
  %1128 = load ptr, ptr %10, align 8, !tbaa !7
  %1129 = icmp eq ptr %1128, null
  br i1 %1129, label %1131, label %1130

1130:                                             ; preds = %1126
  call void @_ZdlPv(ptr noundef nonnull %1128) #9
  br label %1131

1131:                                             ; preds = %1130, %1126
  call void @llvm.lifetime.end.p0(i64 32, ptr nonnull %10) #9
  br label %1786

1132:                                             ; preds = %199
  %1133 = landingpad { ptr, i32 }
          cleanup
  %1134 = load ptr, ptr %11, align 8, !tbaa !7
  %1135 = icmp eq ptr %1134, null
  br i1 %1135, label %1137, label %1136

1136:                                             ; preds = %1132
  call void @_ZdlPv(ptr noundef nonnull %1134) #9
  br label %1137

1137:                                             ; preds = %1136, %1132
  call void @llvm.lifetime.end.p0(i64 32, ptr nonnull %11) #9
  br label %1786

1138:                                             ; preds = %207
  %1139 = landingpad { ptr, i32 }
          cleanup
  %1140 = load ptr, ptr %12, align 8, !tbaa !7
  %1141 = icmp eq ptr %1140, null
  br i1 %1141, label %1143, label %1142

1142:                                             ; preds = %1138
  call void @_ZdlPv(ptr noundef nonnull %1140) #9
  br label %1143

1143:                                             ; preds = %1142, %1138
  call void @llvm.lifetime.end.p0(i64 32, ptr nonnull %12) #9
  br label %1786

1144:                                             ; preds = %215
  %1145 = landingpad { ptr, i32 }
          cleanup
  %1146 = load ptr, ptr %13, align 8, !tbaa !7
  %1147 = icmp eq ptr %1146, null
  br i1 %1147, label %1149, label %1148

1148:                                             ; preds = %1144
  call void @_ZdlPv(ptr noundef nonnull %1146) #9
  br label %1149

1149:                                             ; preds = %1148, %1144
  call void @llvm.lifetime.end.p0(i64 32, ptr nonnull %13) #9
  br label %1786

1150:                                             ; preds = %223
  %1151 = landingpad { ptr, i32 }
          cleanup
  %1152 = load ptr, ptr %14, align 8, !tbaa !7
  %1153 = icmp eq ptr %1152, null
  br i1 %1153, label %1155, label %1154

1154:                                             ; preds = %1150
  call void @_ZdlPv(ptr noundef nonnull %1152) #9
  br label %1155

1155:                                             ; preds = %1154, %1150
  call void @llvm.lifetime.end.p0(i64 32, ptr nonnull %14) #9
  br label %1786

1156:                                             ; preds = %231
  %1157 = landingpad { ptr, i32 }
          cleanup
  %1158 = load ptr, ptr %15, align 8, !tbaa !7
  %1159 = icmp eq ptr %1158, null
  br i1 %1159, label %1161, label %1160

1160:                                             ; preds = %1156
  call void @_ZdlPv(ptr noundef nonnull %1158) #9
  br label %1161

1161:                                             ; preds = %1160, %1156
  call void @llvm.lifetime.end.p0(i64 32, ptr nonnull %15) #9
  br label %1786

1162:                                             ; preds = %239
  %1163 = landingpad { ptr, i32 }
          cleanup
  %1164 = load ptr, ptr %16, align 8, !tbaa !7
  %1165 = icmp eq ptr %1164, null
  br i1 %1165, label %1167, label %1166

1166:                                             ; preds = %1162
  call void @_ZdlPv(ptr noundef nonnull %1164) #9
  br label %1167

1167:                                             ; preds = %1166, %1162
  call void @llvm.lifetime.end.p0(i64 32, ptr nonnull %16) #9
  br label %1786

1168:                                             ; preds = %247
  %1169 = landingpad { ptr, i32 }
          cleanup
  %1170 = load ptr, ptr %17, align 8, !tbaa !7
  %1171 = icmp eq ptr %1170, null
  br i1 %1171, label %1173, label %1172

1172:                                             ; preds = %1168
  call void @_ZdlPv(ptr noundef nonnull %1170) #9
  br label %1173

1173:                                             ; preds = %1172, %1168
  call void @llvm.lifetime.end.p0(i64 32, ptr nonnull %17) #9
  br label %1786

1174:                                             ; preds = %255
  %1175 = landingpad { ptr, i32 }
          cleanup
  %1176 = load ptr, ptr %18, align 8, !tbaa !7
  %1177 = icmp eq ptr %1176, null
  br i1 %1177, label %1179, label %1178

1178:                                             ; preds = %1174
  call void @_ZdlPv(ptr noundef nonnull %1176) #9
  br label %1179

1179:                                             ; preds = %1178, %1174
  call void @llvm.lifetime.end.p0(i64 32, ptr nonnull %18) #9
  br label %1786

1180:                                             ; preds = %263
  %1181 = landingpad { ptr, i32 }
          cleanup
  %1182 = load ptr, ptr %19, align 8, !tbaa !7
  %1183 = icmp eq ptr %1182, null
  br i1 %1183, label %1185, label %1184

1184:                                             ; preds = %1180
  call void @_ZdlPv(ptr noundef nonnull %1182) #9
  br label %1185

1185:                                             ; preds = %1184, %1180
  call void @llvm.lifetime.end.p0(i64 32, ptr nonnull %19) #9
  br label %1786

1186:                                             ; preds = %271
  %1187 = landingpad { ptr, i32 }
          cleanup
  %1188 = load ptr, ptr %20, align 8, !tbaa !7
  %1189 = icmp eq ptr %1188, null
  br i1 %1189, label %1191, label %1190

1190:                                             ; preds = %1186
  call void @_ZdlPv(ptr noundef nonnull %1188) #9
  br label %1191

1191:                                             ; preds = %1190, %1186
  call void @llvm.lifetime.end.p0(i64 32, ptr nonnull %20) #9
  br label %1786

1192:                                             ; preds = %279
  %1193 = landingpad { ptr, i32 }
          cleanup
  %1194 = load ptr, ptr %21, align 8, !tbaa !7
  %1195 = icmp eq ptr %1194, null
  br i1 %1195, label %1197, label %1196

1196:                                             ; preds = %1192
  call void @_ZdlPv(ptr noundef nonnull %1194) #9
  br label %1197

1197:                                             ; preds = %1196, %1192
  call void @llvm.lifetime.end.p0(i64 32, ptr nonnull %21) #9
  br label %1786

1198:                                             ; preds = %287
  %1199 = landingpad { ptr, i32 }
          cleanup
  %1200 = load ptr, ptr %22, align 8, !tbaa !7
  %1201 = icmp eq ptr %1200, null
  br i1 %1201, label %1203, label %1202

1202:                                             ; preds = %1198
  call void @_ZdlPv(ptr noundef nonnull %1200) #9
  br label %1203

1203:                                             ; preds = %1202, %1198
  call void @llvm.lifetime.end.p0(i64 32, ptr nonnull %22) #9
  br label %1786

1204:                                             ; preds = %295
  %1205 = landingpad { ptr, i32 }
          cleanup
  %1206 = load ptr, ptr %23, align 8, !tbaa !7
  %1207 = icmp eq ptr %1206, null
  br i1 %1207, label %1209, label %1208

1208:                                             ; preds = %1204
  call void @_ZdlPv(ptr noundef nonnull %1206) #9
  br label %1209

1209:                                             ; preds = %1208, %1204
  call void @llvm.lifetime.end.p0(i64 32, ptr nonnull %23) #9
  br label %1786

1210:                                             ; preds = %303
  %1211 = landingpad { ptr, i32 }
          cleanup
  %1212 = load ptr, ptr %24, align 8, !tbaa !7
  %1213 = icmp eq ptr %1212, null
  br i1 %1213, label %1215, label %1214

1214:                                             ; preds = %1210
  call void @_ZdlPv(ptr noundef nonnull %1212) #9
  br label %1215

1215:                                             ; preds = %1214, %1210
  call void @llvm.lifetime.end.p0(i64 32, ptr nonnull %24) #9
  br label %1786

1216:                                             ; preds = %311
  %1217 = landingpad { ptr, i32 }
          cleanup
  %1218 = load ptr, ptr %25, align 8, !tbaa !7
  %1219 = icmp eq ptr %1218, null
  br i1 %1219, label %1221, label %1220

1220:                                             ; preds = %1216
  call void @_ZdlPv(ptr noundef nonnull %1218) #9
  br label %1221

1221:                                             ; preds = %1220, %1216
  call void @llvm.lifetime.end.p0(i64 32, ptr nonnull %25) #9
  br label %1786

1222:                                             ; preds = %319
  %1223 = landingpad { ptr, i32 }
          cleanup
  %1224 = load ptr, ptr %26, align 8, !tbaa !7
  %1225 = icmp eq ptr %1224, null
  br i1 %1225, label %1227, label %1226

1226:                                             ; preds = %1222
  call void @_ZdlPv(ptr noundef nonnull %1224) #9
  br label %1227

1227:                                             ; preds = %1226, %1222
  call void @llvm.lifetime.end.p0(i64 32, ptr nonnull %26) #9
  br label %1786

1228:                                             ; preds = %327
  %1229 = landingpad { ptr, i32 }
          cleanup
  %1230 = load ptr, ptr %27, align 8, !tbaa !7
  %1231 = icmp eq ptr %1230, null
  br i1 %1231, label %1233, label %1232

1232:                                             ; preds = %1228
  call void @_ZdlPv(ptr noundef nonnull %1230) #9
  br label %1233

1233:                                             ; preds = %1232, %1228
  call void @llvm.lifetime.end.p0(i64 32, ptr nonnull %27) #9
  br label %1786

1234:                                             ; preds = %335
  %1235 = landingpad { ptr, i32 }
          cleanup
  %1236 = load ptr, ptr %28, align 8, !tbaa !7
  %1237 = icmp eq ptr %1236, null
  br i1 %1237, label %1239, label %1238

1238:                                             ; preds = %1234
  call void @_ZdlPv(ptr noundef nonnull %1236) #9
  br label %1239

1239:                                             ; preds = %1238, %1234
  call void @llvm.lifetime.end.p0(i64 32, ptr nonnull %28) #9
  br label %1786

1240:                                             ; preds = %343
  %1241 = landingpad { ptr, i32 }
          cleanup
  %1242 = load ptr, ptr %29, align 8, !tbaa !7
  %1243 = icmp eq ptr %1242, null
  br i1 %1243, label %1245, label %1244

1244:                                             ; preds = %1240
  call void @_ZdlPv(ptr noundef nonnull %1242) #9
  br label %1245

1245:                                             ; preds = %1244, %1240
  call void @llvm.lifetime.end.p0(i64 32, ptr nonnull %29) #9
  br label %1786

1246:                                             ; preds = %351
  %1247 = landingpad { ptr, i32 }
          cleanup
  %1248 = load ptr, ptr %30, align 8, !tbaa !7
  %1249 = icmp eq ptr %1248, null
  br i1 %1249, label %1251, label %1250

1250:                                             ; preds = %1246
  call void @_ZdlPv(ptr noundef nonnull %1248) #9
  br label %1251

1251:                                             ; preds = %1250, %1246
  call void @llvm.lifetime.end.p0(i64 32, ptr nonnull %30) #9
  br label %1786

1252:                                             ; preds = %359
  %1253 = landingpad { ptr, i32 }
          cleanup
  %1254 = load ptr, ptr %31, align 8, !tbaa !7
  %1255 = icmp eq ptr %1254, null
  br i1 %1255, label %1257, label %1256

1256:                                             ; preds = %1252
  call void @_ZdlPv(ptr noundef nonnull %1254) #9
  br label %1257

1257:                                             ; preds = %1256, %1252
  call void @llvm.lifetime.end.p0(i64 32, ptr nonnull %31) #9
  br label %1786

1258:                                             ; preds = %367
  %1259 = landingpad { ptr, i32 }
          cleanup
  %1260 = load ptr, ptr %32, align 8, !tbaa !7
  %1261 = icmp eq ptr %1260, null
  br i1 %1261, label %1263, label %1262

1262:                                             ; preds = %1258
  call void @_ZdlPv(ptr noundef nonnull %1260) #9
  br label %1263

1263:                                             ; preds = %1262, %1258
  call void @llvm.lifetime.end.p0(i64 32, ptr nonnull %32) #9
  br label %1786

1264:                                             ; preds = %375
  %1265 = landingpad { ptr, i32 }
          cleanup
  %1266 = load ptr, ptr %33, align 8, !tbaa !7
  %1267 = icmp eq ptr %1266, null
  br i1 %1267, label %1269, label %1268

1268:                                             ; preds = %1264
  call void @_ZdlPv(ptr noundef nonnull %1266) #9
  br label %1269

1269:                                             ; preds = %1268, %1264
  call void @llvm.lifetime.end.p0(i64 32, ptr nonnull %33) #9
  br label %1786

1270:                                             ; preds = %383
  %1271 = landingpad { ptr, i32 }
          cleanup
  %1272 = load ptr, ptr %34, align 8, !tbaa !7
  %1273 = icmp eq ptr %1272, null
  br i1 %1273, label %1275, label %1274

1274:                                             ; preds = %1270
  call void @_ZdlPv(ptr noundef nonnull %1272) #9
  br label %1275

1275:                                             ; preds = %1274, %1270
  call void @llvm.lifetime.end.p0(i64 32, ptr nonnull %34) #9
  br label %1786

1276:                                             ; preds = %391
  %1277 = landingpad { ptr, i32 }
          cleanup
  %1278 = load ptr, ptr %35, align 8, !tbaa !7
  %1279 = icmp eq ptr %1278, null
  br i1 %1279, label %1281, label %1280

1280:                                             ; preds = %1276
  call void @_ZdlPv(ptr noundef nonnull %1278) #9
  br label %1281

1281:                                             ; preds = %1280, %1276
  call void @llvm.lifetime.end.p0(i64 32, ptr nonnull %35) #9
  br label %1786

1282:                                             ; preds = %399
  %1283 = landingpad { ptr, i32 }
          cleanup
  %1284 = load ptr, ptr %36, align 8, !tbaa !7
  %1285 = icmp eq ptr %1284, null
  br i1 %1285, label %1287, label %1286

1286:                                             ; preds = %1282
  call void @_ZdlPv(ptr noundef nonnull %1284) #9
  br label %1287

1287:                                             ; preds = %1286, %1282
  call void @llvm.lifetime.end.p0(i64 32, ptr nonnull %36) #9
  br label %1786

1288:                                             ; preds = %407
  %1289 = landingpad { ptr, i32 }
          cleanup
  %1290 = load ptr, ptr %37, align 8, !tbaa !7
  %1291 = icmp eq ptr %1290, null
  br i1 %1291, label %1293, label %1292

1292:                                             ; preds = %1288
  call void @_ZdlPv(ptr noundef nonnull %1290) #9
  br label %1293

1293:                                             ; preds = %1292, %1288
  call void @llvm.lifetime.end.p0(i64 32, ptr nonnull %37) #9
  br label %1786

1294:                                             ; preds = %415
  %1295 = landingpad { ptr, i32 }
          cleanup
  %1296 = load ptr, ptr %38, align 8, !tbaa !7
  %1297 = icmp eq ptr %1296, null
  br i1 %1297, label %1299, label %1298

1298:                                             ; preds = %1294
  call void @_ZdlPv(ptr noundef nonnull %1296) #9
  br label %1299

1299:                                             ; preds = %1298, %1294
  call void @llvm.lifetime.end.p0(i64 32, ptr nonnull %38) #9
  br label %1786

1300:                                             ; preds = %423
  %1301 = landingpad { ptr, i32 }
          cleanup
  %1302 = load ptr, ptr %39, align 8, !tbaa !7
  %1303 = icmp eq ptr %1302, null
  br i1 %1303, label %1305, label %1304

1304:                                             ; preds = %1300
  call void @_ZdlPv(ptr noundef nonnull %1302) #9
  br label %1305

1305:                                             ; preds = %1304, %1300
  call void @llvm.lifetime.end.p0(i64 32, ptr nonnull %39) #9
  br label %1786

1306:                                             ; preds = %431
  %1307 = landingpad { ptr, i32 }
          cleanup
  %1308 = load ptr, ptr %40, align 8, !tbaa !7
  %1309 = icmp eq ptr %1308, null
  br i1 %1309, label %1311, label %1310

1310:                                             ; preds = %1306
  call void @_ZdlPv(ptr noundef nonnull %1308) #9
  br label %1311

1311:                                             ; preds = %1310, %1306
  call void @llvm.lifetime.end.p0(i64 32, ptr nonnull %40) #9
  br label %1786

1312:                                             ; preds = %439
  %1313 = landingpad { ptr, i32 }
          cleanup
  %1314 = load ptr, ptr %41, align 8, !tbaa !7
  %1315 = icmp eq ptr %1314, null
  br i1 %1315, label %1317, label %1316

1316:                                             ; preds = %1312
  call void @_ZdlPv(ptr noundef nonnull %1314) #9
  br label %1317

1317:                                             ; preds = %1316, %1312
  call void @llvm.lifetime.end.p0(i64 32, ptr nonnull %41) #9
  br label %1786

1318:                                             ; preds = %447
  %1319 = landingpad { ptr, i32 }
          cleanup
  %1320 = load ptr, ptr %42, align 8, !tbaa !7
  %1321 = icmp eq ptr %1320, null
  br i1 %1321, label %1323, label %1322

1322:                                             ; preds = %1318
  call void @_ZdlPv(ptr noundef nonnull %1320) #9
  br label %1323

1323:                                             ; preds = %1322, %1318
  call void @llvm.lifetime.end.p0(i64 32, ptr nonnull %42) #9
  br label %1786

1324:                                             ; preds = %455
  %1325 = landingpad { ptr, i32 }
          cleanup
  %1326 = load ptr, ptr %43, align 8, !tbaa !7
  %1327 = icmp eq ptr %1326, null
  br i1 %1327, label %1329, label %1328

1328:                                             ; preds = %1324
  call void @_ZdlPv(ptr noundef nonnull %1326) #9
  br label %1329

1329:                                             ; preds = %1328, %1324
  call void @llvm.lifetime.end.p0(i64 32, ptr nonnull %43) #9
  br label %1786

1330:                                             ; preds = %463
  %1331 = landingpad { ptr, i32 }
          cleanup
  %1332 = load ptr, ptr %44, align 8, !tbaa !7
  %1333 = icmp eq ptr %1332, null
  br i1 %1333, label %1335, label %1334

1334:                                             ; preds = %1330
  call void @_ZdlPv(ptr noundef nonnull %1332) #9
  br label %1335

1335:                                             ; preds = %1334, %1330
  call void @llvm.lifetime.end.p0(i64 32, ptr nonnull %44) #9
  br label %1786

1336:                                             ; preds = %471
  %1337 = landingpad { ptr, i32 }
          cleanup
  %1338 = load ptr, ptr %45, align 8, !tbaa !7
  %1339 = icmp eq ptr %1338, null
  br i1 %1339, label %1341, label %1340

1340:                                             ; preds = %1336
  call void @_ZdlPv(ptr noundef nonnull %1338) #9
  br label %1341

1341:                                             ; preds = %1340, %1336
  call void @llvm.lifetime.end.p0(i64 32, ptr nonnull %45) #9
  br label %1786

1342:                                             ; preds = %479
  %1343 = landingpad { ptr, i32 }
          cleanup
  %1344 = load ptr, ptr %46, align 8, !tbaa !7
  %1345 = icmp eq ptr %1344, null
  br i1 %1345, label %1347, label %1346

1346:                                             ; preds = %1342
  call void @_ZdlPv(ptr noundef nonnull %1344) #9
  br label %1347

1347:                                             ; preds = %1346, %1342
  call void @llvm.lifetime.end.p0(i64 32, ptr nonnull %46) #9
  br label %1786

1348:                                             ; preds = %487
  %1349 = landingpad { ptr, i32 }
          cleanup
  %1350 = load ptr, ptr %47, align 8, !tbaa !7
  %1351 = icmp eq ptr %1350, null
  br i1 %1351, label %1353, label %1352

1352:                                             ; preds = %1348
  call void @_ZdlPv(ptr noundef nonnull %1350) #9
  br label %1353

1353:                                             ; preds = %1352, %1348
  call void @llvm.lifetime.end.p0(i64 32, ptr nonnull %47) #9
  br label %1786

1354:                                             ; preds = %495
  %1355 = landingpad { ptr, i32 }
          cleanup
  %1356 = load ptr, ptr %48, align 8, !tbaa !7
  %1357 = icmp eq ptr %1356, null
  br i1 %1357, label %1359, label %1358

1358:                                             ; preds = %1354
  call void @_ZdlPv(ptr noundef nonnull %1356) #9
  br label %1359

1359:                                             ; preds = %1358, %1354
  call void @llvm.lifetime.end.p0(i64 32, ptr nonnull %48) #9
  br label %1786

1360:                                             ; preds = %503
  %1361 = landingpad { ptr, i32 }
          cleanup
  %1362 = load ptr, ptr %49, align 8, !tbaa !7
  %1363 = icmp eq ptr %1362, null
  br i1 %1363, label %1365, label %1364

1364:                                             ; preds = %1360
  call void @_ZdlPv(ptr noundef nonnull %1362) #9
  br label %1365

1365:                                             ; preds = %1364, %1360
  call void @llvm.lifetime.end.p0(i64 32, ptr nonnull %49) #9
  br label %1786

1366:                                             ; preds = %511
  %1367 = landingpad { ptr, i32 }
          cleanup
  %1368 = load ptr, ptr %50, align 8, !tbaa !7
  %1369 = icmp eq ptr %1368, null
  br i1 %1369, label %1371, label %1370

1370:                                             ; preds = %1366
  call void @_ZdlPv(ptr noundef nonnull %1368) #9
  br label %1371

1371:                                             ; preds = %1370, %1366
  call void @llvm.lifetime.end.p0(i64 32, ptr nonnull %50) #9
  br label %1786

1372:                                             ; preds = %519
  %1373 = landingpad { ptr, i32 }
          cleanup
  %1374 = load ptr, ptr %51, align 8, !tbaa !7
  %1375 = icmp eq ptr %1374, null
  br i1 %1375, label %1377, label %1376

1376:                                             ; preds = %1372
  call void @_ZdlPv(ptr noundef nonnull %1374) #9
  br label %1377

1377:                                             ; preds = %1376, %1372
  call void @llvm.lifetime.end.p0(i64 32, ptr nonnull %51) #9
  br label %1786

1378:                                             ; preds = %527
  %1379 = landingpad { ptr, i32 }
          cleanup
  %1380 = load ptr, ptr %52, align 8, !tbaa !7
  %1381 = icmp eq ptr %1380, null
  br i1 %1381, label %1383, label %1382

1382:                                             ; preds = %1378
  call void @_ZdlPv(ptr noundef nonnull %1380) #9
  br label %1383

1383:                                             ; preds = %1382, %1378
  call void @llvm.lifetime.end.p0(i64 32, ptr nonnull %52) #9
  br label %1786

1384:                                             ; preds = %535
  %1385 = landingpad { ptr, i32 }
          cleanup
  %1386 = load ptr, ptr %53, align 8, !tbaa !7
  %1387 = icmp eq ptr %1386, null
  br i1 %1387, label %1389, label %1388

1388:                                             ; preds = %1384
  call void @_ZdlPv(ptr noundef nonnull %1386) #9
  br label %1389

1389:                                             ; preds = %1388, %1384
  call void @llvm.lifetime.end.p0(i64 32, ptr nonnull %53) #9
  br label %1786

1390:                                             ; preds = %543
  %1391 = landingpad { ptr, i32 }
          cleanup
  %1392 = load ptr, ptr %54, align 8, !tbaa !7
  %1393 = icmp eq ptr %1392, null
  br i1 %1393, label %1395, label %1394

1394:                                             ; preds = %1390
  call void @_ZdlPv(ptr noundef nonnull %1392) #9
  br label %1395

1395:                                             ; preds = %1394, %1390
  call void @llvm.lifetime.end.p0(i64 32, ptr nonnull %54) #9
  br label %1786

1396:                                             ; preds = %551
  %1397 = landingpad { ptr, i32 }
          cleanup
  %1398 = load ptr, ptr %55, align 8, !tbaa !7
  %1399 = icmp eq ptr %1398, null
  br i1 %1399, label %1401, label %1400

1400:                                             ; preds = %1396
  call void @_ZdlPv(ptr noundef nonnull %1398) #9
  br label %1401

1401:                                             ; preds = %1400, %1396
  call void @llvm.lifetime.end.p0(i64 32, ptr nonnull %55) #9
  br label %1786

1402:                                             ; preds = %559
  %1403 = landingpad { ptr, i32 }
          cleanup
  %1404 = load ptr, ptr %56, align 8, !tbaa !7
  %1405 = icmp eq ptr %1404, null
  br i1 %1405, label %1407, label %1406

1406:                                             ; preds = %1402
  call void @_ZdlPv(ptr noundef nonnull %1404) #9
  br label %1407

1407:                                             ; preds = %1406, %1402
  call void @llvm.lifetime.end.p0(i64 32, ptr nonnull %56) #9
  br label %1786

1408:                                             ; preds = %567
  %1409 = landingpad { ptr, i32 }
          cleanup
  %1410 = load ptr, ptr %57, align 8, !tbaa !7
  %1411 = icmp eq ptr %1410, null
  br i1 %1411, label %1413, label %1412

1412:                                             ; preds = %1408
  call void @_ZdlPv(ptr noundef nonnull %1410) #9
  br label %1413

1413:                                             ; preds = %1412, %1408
  call void @llvm.lifetime.end.p0(i64 32, ptr nonnull %57) #9
  br label %1786

1414:                                             ; preds = %575
  %1415 = landingpad { ptr, i32 }
          cleanup
  %1416 = load ptr, ptr %58, align 8, !tbaa !7
  %1417 = icmp eq ptr %1416, null
  br i1 %1417, label %1419, label %1418

1418:                                             ; preds = %1414
  call void @_ZdlPv(ptr noundef nonnull %1416) #9
  br label %1419

1419:                                             ; preds = %1418, %1414
  call void @llvm.lifetime.end.p0(i64 32, ptr nonnull %58) #9
  br label %1786

1420:                                             ; preds = %583
  %1421 = landingpad { ptr, i32 }
          cleanup
  %1422 = load ptr, ptr %59, align 8, !tbaa !7
  %1423 = icmp eq ptr %1422, null
  br i1 %1423, label %1425, label %1424

1424:                                             ; preds = %1420
  call void @_ZdlPv(ptr noundef nonnull %1422) #9
  br label %1425

1425:                                             ; preds = %1424, %1420
  call void @llvm.lifetime.end.p0(i64 32, ptr nonnull %59) #9
  br label %1786

1426:                                             ; preds = %591
  %1427 = landingpad { ptr, i32 }
          cleanup
  %1428 = load ptr, ptr %60, align 8, !tbaa !7
  %1429 = icmp eq ptr %1428, null
  br i1 %1429, label %1431, label %1430

1430:                                             ; preds = %1426
  call void @_ZdlPv(ptr noundef nonnull %1428) #9
  br label %1431

1431:                                             ; preds = %1430, %1426
  call void @llvm.lifetime.end.p0(i64 32, ptr nonnull %60) #9
  br label %1786

1432:                                             ; preds = %599
  %1433 = landingpad { ptr, i32 }
          cleanup
  %1434 = load ptr, ptr %61, align 8, !tbaa !7
  %1435 = icmp eq ptr %1434, null
  br i1 %1435, label %1437, label %1436

1436:                                             ; preds = %1432
  call void @_ZdlPv(ptr noundef nonnull %1434) #9
  br label %1437

1437:                                             ; preds = %1436, %1432
  call void @llvm.lifetime.end.p0(i64 32, ptr nonnull %61) #9
  br label %1786

1438:                                             ; preds = %607
  %1439 = landingpad { ptr, i32 }
          cleanup
  %1440 = load ptr, ptr %62, align 8, !tbaa !7
  %1441 = icmp eq ptr %1440, null
  br i1 %1441, label %1443, label %1442

1442:                                             ; preds = %1438
  call void @_ZdlPv(ptr noundef nonnull %1440) #9
  br label %1443

1443:                                             ; preds = %1442, %1438
  call void @llvm.lifetime.end.p0(i64 32, ptr nonnull %62) #9
  br label %1786

1444:                                             ; preds = %615
  %1445 = landingpad { ptr, i32 }
          cleanup
  %1446 = load ptr, ptr %63, align 8, !tbaa !7
  %1447 = icmp eq ptr %1446, null
  br i1 %1447, label %1449, label %1448

1448:                                             ; preds = %1444
  call void @_ZdlPv(ptr noundef nonnull %1446) #9
  br label %1449

1449:                                             ; preds = %1448, %1444
  call void @llvm.lifetime.end.p0(i64 32, ptr nonnull %63) #9
  br label %1786

1450:                                             ; preds = %623
  %1451 = landingpad { ptr, i32 }
          cleanup
  %1452 = load ptr, ptr %64, align 8, !tbaa !7
  %1453 = icmp eq ptr %1452, null
  br i1 %1453, label %1455, label %1454

1454:                                             ; preds = %1450
  call void @_ZdlPv(ptr noundef nonnull %1452) #9
  br label %1455

1455:                                             ; preds = %1454, %1450
  call void @llvm.lifetime.end.p0(i64 32, ptr nonnull %64) #9
  br label %1786

1456:                                             ; preds = %631
  %1457 = landingpad { ptr, i32 }
          cleanup
  %1458 = load ptr, ptr %65, align 8, !tbaa !7
  %1459 = icmp eq ptr %1458, null
  br i1 %1459, label %1461, label %1460

1460:                                             ; preds = %1456
  call void @_ZdlPv(ptr noundef nonnull %1458) #9
  br label %1461

1461:                                             ; preds = %1460, %1456
  call void @llvm.lifetime.end.p0(i64 32, ptr nonnull %65) #9
  br label %1786

1462:                                             ; preds = %639
  %1463 = landingpad { ptr, i32 }
          cleanup
  %1464 = load ptr, ptr %66, align 8, !tbaa !7
  %1465 = icmp eq ptr %1464, null
  br i1 %1465, label %1467, label %1466

1466:                                             ; preds = %1462
  call void @_ZdlPv(ptr noundef nonnull %1464) #9
  br label %1467

1467:                                             ; preds = %1466, %1462
  call void @llvm.lifetime.end.p0(i64 32, ptr nonnull %66) #9
  br label %1786

1468:                                             ; preds = %647
  %1469 = landingpad { ptr, i32 }
          cleanup
  %1470 = load ptr, ptr %67, align 8, !tbaa !7
  %1471 = icmp eq ptr %1470, null
  br i1 %1471, label %1473, label %1472

1472:                                             ; preds = %1468
  call void @_ZdlPv(ptr noundef nonnull %1470) #9
  br label %1473

1473:                                             ; preds = %1472, %1468
  call void @llvm.lifetime.end.p0(i64 32, ptr nonnull %67) #9
  br label %1786

1474:                                             ; preds = %655
  %1475 = landingpad { ptr, i32 }
          cleanup
  %1476 = load ptr, ptr %68, align 8, !tbaa !7
  %1477 = icmp eq ptr %1476, null
  br i1 %1477, label %1479, label %1478

1478:                                             ; preds = %1474
  call void @_ZdlPv(ptr noundef nonnull %1476) #9
  br label %1479

1479:                                             ; preds = %1478, %1474
  call void @llvm.lifetime.end.p0(i64 32, ptr nonnull %68) #9
  br label %1786

1480:                                             ; preds = %663
  %1481 = landingpad { ptr, i32 }
          cleanup
  %1482 = load ptr, ptr %69, align 8, !tbaa !7
  %1483 = icmp eq ptr %1482, null
  br i1 %1483, label %1485, label %1484

1484:                                             ; preds = %1480
  call void @_ZdlPv(ptr noundef nonnull %1482) #9
  br label %1485

1485:                                             ; preds = %1484, %1480
  call void @llvm.lifetime.end.p0(i64 32, ptr nonnull %69) #9
  br label %1786

1486:                                             ; preds = %671
  %1487 = landingpad { ptr, i32 }
          cleanup
  %1488 = load ptr, ptr %70, align 8, !tbaa !7
  %1489 = icmp eq ptr %1488, null
  br i1 %1489, label %1491, label %1490

1490:                                             ; preds = %1486
  call void @_ZdlPv(ptr noundef nonnull %1488) #9
  br label %1491

1491:                                             ; preds = %1490, %1486
  call void @llvm.lifetime.end.p0(i64 32, ptr nonnull %70) #9
  br label %1786

1492:                                             ; preds = %679
  %1493 = landingpad { ptr, i32 }
          cleanup
  %1494 = load ptr, ptr %71, align 8, !tbaa !7
  %1495 = icmp eq ptr %1494, null
  br i1 %1495, label %1497, label %1496

1496:                                             ; preds = %1492
  call void @_ZdlPv(ptr noundef nonnull %1494) #9
  br label %1497

1497:                                             ; preds = %1496, %1492
  call void @llvm.lifetime.end.p0(i64 32, ptr nonnull %71) #9
  br label %1786

1498:                                             ; preds = %687
  %1499 = landingpad { ptr, i32 }
          cleanup
  %1500 = load ptr, ptr %72, align 8, !tbaa !7
  %1501 = icmp eq ptr %1500, null
  br i1 %1501, label %1503, label %1502

1502:                                             ; preds = %1498
  call void @_ZdlPv(ptr noundef nonnull %1500) #9
  br label %1503

1503:                                             ; preds = %1502, %1498
  call void @llvm.lifetime.end.p0(i64 32, ptr nonnull %72) #9
  br label %1786

1504:                                             ; preds = %695
  %1505 = landingpad { ptr, i32 }
          cleanup
  %1506 = load ptr, ptr %73, align 8, !tbaa !7
  %1507 = icmp eq ptr %1506, null
  br i1 %1507, label %1509, label %1508

1508:                                             ; preds = %1504
  call void @_ZdlPv(ptr noundef nonnull %1506) #9
  br label %1509

1509:                                             ; preds = %1508, %1504
  call void @llvm.lifetime.end.p0(i64 32, ptr nonnull %73) #9
  br label %1786

1510:                                             ; preds = %703
  %1511 = landingpad { ptr, i32 }
          cleanup
  %1512 = load ptr, ptr %74, align 8, !tbaa !7
  %1513 = icmp eq ptr %1512, null
  br i1 %1513, label %1515, label %1514

1514:                                             ; preds = %1510
  call void @_ZdlPv(ptr noundef nonnull %1512) #9
  br label %1515

1515:                                             ; preds = %1514, %1510
  call void @llvm.lifetime.end.p0(i64 32, ptr nonnull %74) #9
  br label %1786

1516:                                             ; preds = %711
  %1517 = landingpad { ptr, i32 }
          cleanup
  %1518 = load ptr, ptr %75, align 8, !tbaa !7
  %1519 = icmp eq ptr %1518, null
  br i1 %1519, label %1521, label %1520

1520:                                             ; preds = %1516
  call void @_ZdlPv(ptr noundef nonnull %1518) #9
  br label %1521

1521:                                             ; preds = %1520, %1516
  call void @llvm.lifetime.end.p0(i64 32, ptr nonnull %75) #9
  br label %1786

1522:                                             ; preds = %719
  %1523 = landingpad { ptr, i32 }
          cleanup
  %1524 = load ptr, ptr %76, align 8, !tbaa !7
  %1525 = icmp eq ptr %1524, null
  br i1 %1525, label %1527, label %1526

1526:                                             ; preds = %1522
  call void @_ZdlPv(ptr noundef nonnull %1524) #9
  br label %1527

1527:                                             ; preds = %1526, %1522
  call void @llvm.lifetime.end.p0(i64 32, ptr nonnull %76) #9
  br label %1786

1528:                                             ; preds = %727
  %1529 = landingpad { ptr, i32 }
          cleanup
  %1530 = load ptr, ptr %77, align 8, !tbaa !7
  %1531 = icmp eq ptr %1530, null
  br i1 %1531, label %1533, label %1532

1532:                                             ; preds = %1528
  call void @_ZdlPv(ptr noundef nonnull %1530) #9
  br label %1533

1533:                                             ; preds = %1532, %1528
  call void @llvm.lifetime.end.p0(i64 32, ptr nonnull %77) #9
  br label %1786

1534:                                             ; preds = %735
  %1535 = landingpad { ptr, i32 }
          cleanup
  %1536 = load ptr, ptr %78, align 8, !tbaa !7
  %1537 = icmp eq ptr %1536, null
  br i1 %1537, label %1539, label %1538

1538:                                             ; preds = %1534
  call void @_ZdlPv(ptr noundef nonnull %1536) #9
  br label %1539

1539:                                             ; preds = %1538, %1534
  call void @llvm.lifetime.end.p0(i64 32, ptr nonnull %78) #9
  br label %1786

1540:                                             ; preds = %743
  %1541 = landingpad { ptr, i32 }
          cleanup
  %1542 = load ptr, ptr %79, align 8, !tbaa !7
  %1543 = icmp eq ptr %1542, null
  br i1 %1543, label %1545, label %1544

1544:                                             ; preds = %1540
  call void @_ZdlPv(ptr noundef nonnull %1542) #9
  br label %1545

1545:                                             ; preds = %1544, %1540
  call void @llvm.lifetime.end.p0(i64 32, ptr nonnull %79) #9
  br label %1786

1546:                                             ; preds = %751
  %1547 = landingpad { ptr, i32 }
          cleanup
  %1548 = load ptr, ptr %80, align 8, !tbaa !7
  %1549 = icmp eq ptr %1548, null
  br i1 %1549, label %1551, label %1550

1550:                                             ; preds = %1546
  call void @_ZdlPv(ptr noundef nonnull %1548) #9
  br label %1551

1551:                                             ; preds = %1550, %1546
  call void @llvm.lifetime.end.p0(i64 32, ptr nonnull %80) #9
  br label %1786

1552:                                             ; preds = %759
  %1553 = landingpad { ptr, i32 }
          cleanup
  %1554 = load ptr, ptr %81, align 8, !tbaa !7
  %1555 = icmp eq ptr %1554, null
  br i1 %1555, label %1557, label %1556

1556:                                             ; preds = %1552
  call void @_ZdlPv(ptr noundef nonnull %1554) #9
  br label %1557

1557:                                             ; preds = %1556, %1552
  call void @llvm.lifetime.end.p0(i64 32, ptr nonnull %81) #9
  br label %1786

1558:                                             ; preds = %767
  %1559 = landingpad { ptr, i32 }
          cleanup
  %1560 = load ptr, ptr %82, align 8, !tbaa !7
  %1561 = icmp eq ptr %1560, null
  br i1 %1561, label %1563, label %1562

1562:                                             ; preds = %1558
  call void @_ZdlPv(ptr noundef nonnull %1560) #9
  br label %1563

1563:                                             ; preds = %1562, %1558
  call void @llvm.lifetime.end.p0(i64 32, ptr nonnull %82) #9
  br label %1786

1564:                                             ; preds = %775
  %1565 = landingpad { ptr, i32 }
          cleanup
  %1566 = load ptr, ptr %83, align 8, !tbaa !7
  %1567 = icmp eq ptr %1566, null
  br i1 %1567, label %1569, label %1568

1568:                                             ; preds = %1564
  call void @_ZdlPv(ptr noundef nonnull %1566) #9
  br label %1569

1569:                                             ; preds = %1568, %1564
  call void @llvm.lifetime.end.p0(i64 32, ptr nonnull %83) #9
  br label %1786

1570:                                             ; preds = %783
  %1571 = landingpad { ptr, i32 }
          cleanup
  %1572 = load ptr, ptr %84, align 8, !tbaa !7
  %1573 = icmp eq ptr %1572, null
  br i1 %1573, label %1575, label %1574

1574:                                             ; preds = %1570
  call void @_ZdlPv(ptr noundef nonnull %1572) #9
  br label %1575

1575:                                             ; preds = %1574, %1570
  call void @llvm.lifetime.end.p0(i64 32, ptr nonnull %84) #9
  br label %1786

1576:                                             ; preds = %791
  %1577 = landingpad { ptr, i32 }
          cleanup
  %1578 = load ptr, ptr %85, align 8, !tbaa !7
  %1579 = icmp eq ptr %1578, null
  br i1 %1579, label %1581, label %1580

1580:                                             ; preds = %1576
  call void @_ZdlPv(ptr noundef nonnull %1578) #9
  br label %1581

1581:                                             ; preds = %1580, %1576
  call void @llvm.lifetime.end.p0(i64 32, ptr nonnull %85) #9
  br label %1786

1582:                                             ; preds = %799
  %1583 = landingpad { ptr, i32 }
          cleanup
  %1584 = load ptr, ptr %86, align 8, !tbaa !7
  %1585 = icmp eq ptr %1584, null
  br i1 %1585, label %1587, label %1586

1586:                                             ; preds = %1582
  call void @_ZdlPv(ptr noundef nonnull %1584) #9
  br label %1587

1587:                                             ; preds = %1586, %1582
  call void @llvm.lifetime.end.p0(i64 32, ptr nonnull %86) #9
  br label %1786

1588:                                             ; preds = %807
  %1589 = landingpad { ptr, i32 }
          cleanup
  %1590 = load ptr, ptr %87, align 8, !tbaa !7
  %1591 = icmp eq ptr %1590, null
  br i1 %1591, label %1593, label %1592

1592:                                             ; preds = %1588
  call void @_ZdlPv(ptr noundef nonnull %1590) #9
  br label %1593

1593:                                             ; preds = %1592, %1588
  call void @llvm.lifetime.end.p0(i64 32, ptr nonnull %87) #9
  br label %1786

1594:                                             ; preds = %815
  %1595 = landingpad { ptr, i32 }
          cleanup
  %1596 = load ptr, ptr %88, align 8, !tbaa !7
  %1597 = icmp eq ptr %1596, null
  br i1 %1597, label %1599, label %1598

1598:                                             ; preds = %1594
  call void @_ZdlPv(ptr noundef nonnull %1596) #9
  br label %1599

1599:                                             ; preds = %1598, %1594
  call void @llvm.lifetime.end.p0(i64 32, ptr nonnull %88) #9
  br label %1786

1600:                                             ; preds = %823
  %1601 = landingpad { ptr, i32 }
          cleanup
  %1602 = load ptr, ptr %89, align 8, !tbaa !7
  %1603 = icmp eq ptr %1602, null
  br i1 %1603, label %1605, label %1604

1604:                                             ; preds = %1600
  call void @_ZdlPv(ptr noundef nonnull %1602) #9
  br label %1605

1605:                                             ; preds = %1604, %1600
  call void @llvm.lifetime.end.p0(i64 32, ptr nonnull %89) #9
  br label %1786

1606:                                             ; preds = %831
  %1607 = landingpad { ptr, i32 }
          cleanup
  %1608 = load ptr, ptr %90, align 8, !tbaa !7
  %1609 = icmp eq ptr %1608, null
  br i1 %1609, label %1611, label %1610

1610:                                             ; preds = %1606
  call void @_ZdlPv(ptr noundef nonnull %1608) #9
  br label %1611

1611:                                             ; preds = %1610, %1606
  call void @llvm.lifetime.end.p0(i64 32, ptr nonnull %90) #9
  br label %1786

1612:                                             ; preds = %839
  %1613 = landingpad { ptr, i32 }
          cleanup
  %1614 = load ptr, ptr %91, align 8, !tbaa !7
  %1615 = icmp eq ptr %1614, null
  br i1 %1615, label %1617, label %1616

1616:                                             ; preds = %1612
  call void @_ZdlPv(ptr noundef nonnull %1614) #9
  br label %1617

1617:                                             ; preds = %1616, %1612
  call void @llvm.lifetime.end.p0(i64 32, ptr nonnull %91) #9
  br label %1786

1618:                                             ; preds = %847
  %1619 = landingpad { ptr, i32 }
          cleanup
  %1620 = load ptr, ptr %92, align 8, !tbaa !7
  %1621 = icmp eq ptr %1620, null
  br i1 %1621, label %1623, label %1622

1622:                                             ; preds = %1618
  call void @_ZdlPv(ptr noundef nonnull %1620) #9
  br label %1623

1623:                                             ; preds = %1622, %1618
  call void @llvm.lifetime.end.p0(i64 32, ptr nonnull %92) #9
  br label %1786

1624:                                             ; preds = %855
  %1625 = landingpad { ptr, i32 }
          cleanup
  %1626 = load ptr, ptr %93, align 8, !tbaa !7
  %1627 = icmp eq ptr %1626, null
  br i1 %1627, label %1629, label %1628

1628:                                             ; preds = %1624
  call void @_ZdlPv(ptr noundef nonnull %1626) #9
  br label %1629

1629:                                             ; preds = %1628, %1624
  call void @llvm.lifetime.end.p0(i64 32, ptr nonnull %93) #9
  br label %1786

1630:                                             ; preds = %863
  %1631 = landingpad { ptr, i32 }
          cleanup
  %1632 = load ptr, ptr %94, align 8, !tbaa !7
  %1633 = icmp eq ptr %1632, null
  br i1 %1633, label %1635, label %1634

1634:                                             ; preds = %1630
  call void @_ZdlPv(ptr noundef nonnull %1632) #9
  br label %1635

1635:                                             ; preds = %1634, %1630
  call void @llvm.lifetime.end.p0(i64 32, ptr nonnull %94) #9
  br label %1786

1636:                                             ; preds = %871
  %1637 = landingpad { ptr, i32 }
          cleanup
  %1638 = load ptr, ptr %95, align 8, !tbaa !7
  %1639 = icmp eq ptr %1638, null
  br i1 %1639, label %1641, label %1640

1640:                                             ; preds = %1636
  call void @_ZdlPv(ptr noundef nonnull %1638) #9
  br label %1641

1641:                                             ; preds = %1640, %1636
  call void @llvm.lifetime.end.p0(i64 32, ptr nonnull %95) #9
  br label %1786

1642:                                             ; preds = %879
  %1643 = landingpad { ptr, i32 }
          cleanup
  %1644 = load ptr, ptr %96, align 8, !tbaa !7
  %1645 = icmp eq ptr %1644, null
  br i1 %1645, label %1647, label %1646

1646:                                             ; preds = %1642
  call void @_ZdlPv(ptr noundef nonnull %1644) #9
  br label %1647

1647:                                             ; preds = %1646, %1642
  call void @llvm.lifetime.end.p0(i64 32, ptr nonnull %96) #9
  br label %1786

1648:                                             ; preds = %887
  %1649 = landingpad { ptr, i32 }
          cleanup
  %1650 = load ptr, ptr %97, align 8, !tbaa !7
  %1651 = icmp eq ptr %1650, null
  br i1 %1651, label %1653, label %1652

1652:                                             ; preds = %1648
  call void @_ZdlPv(ptr noundef nonnull %1650) #9
  br label %1653

1653:                                             ; preds = %1652, %1648
  call void @llvm.lifetime.end.p0(i64 32, ptr nonnull %97) #9
  br label %1786

1654:                                             ; preds = %895
  %1655 = landingpad { ptr, i32 }
          cleanup
  %1656 = load ptr, ptr %98, align 8, !tbaa !7
  %1657 = icmp eq ptr %1656, null
  br i1 %1657, label %1659, label %1658

1658:                                             ; preds = %1654
  call void @_ZdlPv(ptr noundef nonnull %1656) #9
  br label %1659

1659:                                             ; preds = %1658, %1654
  call void @llvm.lifetime.end.p0(i64 32, ptr nonnull %98) #9
  br label %1786

1660:                                             ; preds = %903
  %1661 = landingpad { ptr, i32 }
          cleanup
  %1662 = load ptr, ptr %99, align 8, !tbaa !7
  %1663 = icmp eq ptr %1662, null
  br i1 %1663, label %1665, label %1664

1664:                                             ; preds = %1660
  call void @_ZdlPv(ptr noundef nonnull %1662) #9
  br label %1665

1665:                                             ; preds = %1664, %1660
  call void @llvm.lifetime.end.p0(i64 32, ptr nonnull %99) #9
  br label %1786

1666:                                             ; preds = %911
  %1667 = landingpad { ptr, i32 }
          cleanup
  %1668 = load ptr, ptr %100, align 8, !tbaa !7
  %1669 = icmp eq ptr %1668, null
  br i1 %1669, label %1671, label %1670

1670:                                             ; preds = %1666
  call void @_ZdlPv(ptr noundef nonnull %1668) #9
  br label %1671

1671:                                             ; preds = %1670, %1666
  call void @llvm.lifetime.end.p0(i64 32, ptr nonnull %100) #9
  br label %1786

1672:                                             ; preds = %919
  %1673 = landingpad { ptr, i32 }
          cleanup
  %1674 = load ptr, ptr %101, align 8, !tbaa !7
  %1675 = icmp eq ptr %1674, null
  br i1 %1675, label %1677, label %1676

1676:                                             ; preds = %1672
  call void @_ZdlPv(ptr noundef nonnull %1674) #9
  br label %1677

1677:                                             ; preds = %1676, %1672
  call void @llvm.lifetime.end.p0(i64 32, ptr nonnull %101) #9
  br label %1786

1678:                                             ; preds = %927
  %1679 = landingpad { ptr, i32 }
          cleanup
  %1680 = load ptr, ptr %102, align 8, !tbaa !7
  %1681 = icmp eq ptr %1680, null
  br i1 %1681, label %1683, label %1682

1682:                                             ; preds = %1678
  call void @_ZdlPv(ptr noundef nonnull %1680) #9
  br label %1683

1683:                                             ; preds = %1682, %1678
  call void @llvm.lifetime.end.p0(i64 32, ptr nonnull %102) #9
  br label %1786

1684:                                             ; preds = %935
  %1685 = landingpad { ptr, i32 }
          cleanup
  %1686 = load ptr, ptr %103, align 8, !tbaa !7
  %1687 = icmp eq ptr %1686, null
  br i1 %1687, label %1689, label %1688

1688:                                             ; preds = %1684
  call void @_ZdlPv(ptr noundef nonnull %1686) #9
  br label %1689

1689:                                             ; preds = %1688, %1684
  call void @llvm.lifetime.end.p0(i64 32, ptr nonnull %103) #9
  br label %1786

1690:                                             ; preds = %943
  %1691 = landingpad { ptr, i32 }
          cleanup
  %1692 = load ptr, ptr %104, align 8, !tbaa !7
  %1693 = icmp eq ptr %1692, null
  br i1 %1693, label %1695, label %1694

1694:                                             ; preds = %1690
  call void @_ZdlPv(ptr noundef nonnull %1692) #9
  br label %1695

1695:                                             ; preds = %1694, %1690
  call void @llvm.lifetime.end.p0(i64 32, ptr nonnull %104) #9
  br label %1786

1696:                                             ; preds = %951
  %1697 = landingpad { ptr, i32 }
          cleanup
  %1698 = load ptr, ptr %105, align 8, !tbaa !7
  %1699 = icmp eq ptr %1698, null
  br i1 %1699, label %1701, label %1700

1700:                                             ; preds = %1696
  call void @_ZdlPv(ptr noundef nonnull %1698) #9
  br label %1701

1701:                                             ; preds = %1700, %1696
  call void @llvm.lifetime.end.p0(i64 32, ptr nonnull %105) #9
  br label %1786

1702:                                             ; preds = %959
  %1703 = landingpad { ptr, i32 }
          cleanup
  %1704 = load ptr, ptr %106, align 8, !tbaa !7
  %1705 = icmp eq ptr %1704, null
  br i1 %1705, label %1707, label %1706

1706:                                             ; preds = %1702
  call void @_ZdlPv(ptr noundef nonnull %1704) #9
  br label %1707

1707:                                             ; preds = %1706, %1702
  call void @llvm.lifetime.end.p0(i64 32, ptr nonnull %106) #9
  br label %1786

1708:                                             ; preds = %967
  %1709 = landingpad { ptr, i32 }
          cleanup
  %1710 = load ptr, ptr %107, align 8, !tbaa !7
  %1711 = icmp eq ptr %1710, null
  br i1 %1711, label %1713, label %1712

1712:                                             ; preds = %1708
  call void @_ZdlPv(ptr noundef nonnull %1710) #9
  br label %1713

1713:                                             ; preds = %1712, %1708
  call void @llvm.lifetime.end.p0(i64 32, ptr nonnull %107) #9
  br label %1786

1714:                                             ; preds = %975
  %1715 = landingpad { ptr, i32 }
          cleanup
  %1716 = load ptr, ptr %108, align 8, !tbaa !7
  %1717 = icmp eq ptr %1716, null
  br i1 %1717, label %1719, label %1718

1718:                                             ; preds = %1714
  call void @_ZdlPv(ptr noundef nonnull %1716) #9
  br label %1719

1719:                                             ; preds = %1718, %1714
  call void @llvm.lifetime.end.p0(i64 32, ptr nonnull %108) #9
  br label %1786

