; ModuleID = 'DatatypeValidatorFactory.cpp'
source_filename = "DatatypeValidatorFactory.cpp"
target datalayout = "e-m:e-p270:32:32-p271:32:32-p272:64:64-i64:64-f80:128-n8:16:32:64-S128"
target triple = "x86_64-unknown-linux-gnu"

%"class.xercesc_2_5::XMLRegisterCleanup" = type { ptr, ptr, ptr }
%"class.xercesc_2_5::XProtoType" = type { ptr, ptr }
%"class.xercesc_2_5::DatatypeValidatorFactory" = type { %"class.xercesc_2_5::XSerializable", ptr, ptr }
%"class.xercesc_2_5::XSerializable" = type { ptr }
%"class.xercesc_2_5::RefHashTableOf" = type { ptr, i8, ptr, i32, i32, i32, ptr }
%"struct.xercesc_2_5::RefHashTableBucketElem" = type { ptr, ptr, ptr }
%"class.xercesc_2_5::RefHashTableOf.0" = type { ptr, i8, ptr, i32, i32, i32, ptr }
%"class.xercesc_2_5::XMLMutexLock" = type { ptr }
%"class.xercesc_2_5::DatatypeValidator" = type <{ %"class.xercesc_2_5::XSerializable", ptr, i8, i8, i16, i32, i32, i32, i32, [4 x i8], ptr, ptr, ptr, ptr, ptr, ptr, ptr, i32, i8, i8, i8, i8 }>
%"class.xercesc_2_5::RefHashTableOf.1" = type { ptr, i8, ptr, i32, i32, i32, ptr }
%"struct.xercesc_2_5::RefHashTableBucketElem.4" = type { ptr, ptr, ptr }
%"class.xercesc_2_5::Janitor" = type { ptr }
%"struct.xercesc_2_5::RefHashTableBucketElem.3" = type { ptr, ptr, ptr }
%"class.xercesc_2_5::BaseRefVectorOf" = type { ptr, i8, i32, i32, ptr, ptr }
%"class.xercesc_2_5::XMLException" = type { ptr, i32, ptr, i32, ptr, ptr }

$_ZN11xercesc_2_524BooleanDatatypeValidatorD0Ev = comdat any

$__clang_call_terminate = comdat any

$_ZN11xercesc_2_524DatatypeValidatorFactory7cleanUpEv = comdat any

$_ZN11xercesc_2_514RefHashTableOfINS_14XMLCanRepGroupEE3putEPvPS1_ = comdat any

$_ZNK11xercesc_2_517DatatypeValidator8isAtomicEv = comdat any

$_ZN11xercesc_2_524BooleanDatatypeValidator8validateEPKtPNS_17ValidationContextEPNS_13MemoryManagerE = comdat any

$_ZN11xercesc_2_517DatatypeValidator17isSubstitutableByEPKS0_ = comdat any

$_ZN11xercesc_2_524BooleanDatatypeValidator11newInstanceEPNS_14RefHashTableOfINS_12KVStringPairEEEPNS_16RefArrayVectorOfItEEiPNS_13MemoryManagerE = comdat any

$_ZNK11xercesc_2_514RefHashTableOfINS_17DatatypeValidatorEE14findBucketElemEPKvRj = comdat any

$_ZN11xercesc_2_516RuntimeExceptionC2EPKcjNS_10XMLExcepts5CodesEPNS_13MemoryManagerE = comdat any

$_ZN11xercesc_2_516RuntimeExceptionD0Ev = comdat any

$_ZNK11xercesc_2_516RuntimeException7getTypeEv = comdat any

$_ZNK11xercesc_2_516RuntimeException9duplicateEv = comdat any

$_ZN11xercesc_2_514RefHashTableOfINS_17DatatypeValidatorEE14findBucketElemEPKvRj = comdat any

$_ZN11xercesc_2_514RefHashTableOfINS_14XMLCanRepGroupEE9removeAllEv = comdat any

$_ZN11xercesc_2_514RefHashTableOfINS_17DatatypeValidatorEE6rehashEv = comdat any

$_ZN11xercesc_2_514RefHashTableOfINS_12KVStringPairEE6rehashEv = comdat any

$_ZN11xercesc_2_514RefHashTableOfINS_12KVStringPairEE14findBucketElemEPKvRj = comdat any

$_ZN11xercesc_2_514RefHashTableOfINS_14XMLCanRepGroupEE6rehashEv = comdat any

$_ZN11xercesc_2_514RefHashTableOfINS_14XMLCanRepGroupEE14findBucketElemEPKvRj = comdat any

$_ZNK11xercesc_2_514RefHashTableOfINS_14XMLCanRepGroupEE14findBucketElemEPKvRj = comdat any

$_ZN11xercesc_2_57JanitorINS_14RefHashTableOfINS_12KVStringPairEEEE5resetEPS3_ = comdat any

$_ZN11xercesc_2_514RefHashTableOfINS_12KVStringPairEE16removeBucketElemEPKvRj = comdat any

$_ZN11xercesc_2_522NoSuchElementExceptionC2EPKcjNS_10XMLExcepts5CodesEPNS_13MemoryManagerE = comdat any

$_ZN11xercesc_2_522NoSuchElementExceptionD0Ev = comdat any

$_ZNK11xercesc_2_522NoSuchElementException7getTypeEv = comdat any

$_ZNK11xercesc_2_522NoSuchElementException9duplicateEv = comdat any

$_ZTVN11xercesc_2_524BooleanDatatypeValidatorE = comdat any

$_ZTSN11xercesc_2_524BooleanDatatypeValidatorE = comdat any

$_ZTIN11xercesc_2_524BooleanDatatypeValidatorE = comdat any

$_ZTSN11xercesc_2_513XSerializableE = comdat any

$_ZTIN11xercesc_2_513XSerializableE = comdat any

$_ZTSN11xercesc_2_57XMemoryE = comdat any

$_ZTIN11xercesc_2_57XMemoryE = comdat any

$_ZTSN11xercesc_2_516RuntimeExceptionE = comdat any

$_ZTIN11xercesc_2_516RuntimeExceptionE = comdat any

$_ZTVN11xercesc_2_516RuntimeExceptionE = comdat any

$_ZTSN11xercesc_2_522NoSuchElementExceptionE = comdat any

$_ZTIN11xercesc_2_522NoSuchElementExceptionE = comdat any

$_ZTVN11xercesc_2_522NoSuchElementExceptionE = comdat any

@_ZN11xercesc_2_5L22builtInRegistryCleanupE = internal global %"class.xercesc_2_5::XMLRegisterCleanup" zeroinitializer, align 8
@_ZN11xercesc_2_524DatatypeValidatorFactory16fBuiltInRegistryE = dso_local local_unnamed_addr global ptr null, align 8
@_ZN11xercesc_2_524DatatypeValidatorFactory15fCanRepRegistryE = dso_local local_unnamed_addr global ptr null, align 8
@_ZTVN11xercesc_2_524DatatypeValidatorFactoryE = dso_local unnamed_addr constant { [7 x ptr] } { [7 x ptr] [ptr null, ptr @_ZTIN11xercesc_2_524DatatypeValidatorFactoryE, ptr @_ZN11xercesc_2_524DatatypeValidatorFactoryD2Ev, ptr @_ZN11xercesc_2_524DatatypeValidatorFactoryD0Ev, ptr @_ZNK11xercesc_2_524DatatypeValidatorFactory14isSerializableEv, ptr @_ZN11xercesc_2_524DatatypeValidatorFactory9serializeERNS_16XSerializeEngineE, ptr @_ZNK11xercesc_2_524DatatypeValidatorFactory12getProtoTypeEv] }, align 8, !type !0, !type !1, !type !2, !type !3, !type !4, !type !5, !type !6, !type !7
@_ZN11xercesc_2_5L21sBuiltInRegistryMutexE = internal unnamed_addr global ptr null, align 8
@_ZN11xercesc_2_5L31sBuiltInRegistryMutexRegisteredE = internal unnamed_addr global i1 false, align 1
@_ZN11xercesc_2_516XMLPlatformUtils13fgAtomicMutexE = external local_unnamed_addr global ptr, align 8
@_ZN11xercesc_2_516XMLPlatformUtils15fgMemoryManagerE = external local_unnamed_addr global ptr, align 8
@_ZN11xercesc_2_513SchemaSymbols11fgDT_STRINGE = external constant [0 x i16], align 2
@_ZN11xercesc_2_513SchemaSymbols21fgURI_SCHEMAFORSCHEMAE = external constant [0 x i16], align 2
@_ZN11xercesc_2_56XMLUni16fgNotationStringE = external constant [0 x i16], align 2
@_ZN11xercesc_2_513SchemaSymbols18fgDT_ANYSIMPLETYPEE = external constant [0 x i16], align 2
@_ZN11xercesc_2_513SchemaSymbols12fgDT_BOOLEANE = external constant [0 x i16], align 2
@_ZN11xercesc_2_513SchemaSymbols12fgDT_DECIMALE = external constant [0 x i16], align 2
@_ZN11xercesc_2_513SchemaSymbols14fgDT_HEXBINARYE = external constant [0 x i16], align 2
@_ZN11xercesc_2_513SchemaSymbols17fgDT_BASE64BINARYE = external constant [0 x i16], align 2
@_ZN11xercesc_2_513SchemaSymbols11fgDT_DOUBLEE = external constant [0 x i16], align 2
@_ZN11xercesc_2_513SchemaSymbols10fgDT_FLOATE = external constant [0 x i16], align 2
@_ZN11xercesc_2_513SchemaSymbols11fgDT_ANYURIE = external constant [0 x i16], align 2
@_ZN11xercesc_2_513SchemaSymbols10fgDT_QNAMEE = external constant [0 x i16], align 2
@_ZN11xercesc_2_513SchemaSymbols13fgDT_DATETIMEE = external constant [0 x i16], align 2
@_ZN11xercesc_2_513SchemaSymbols9fgDT_DATEE = external constant [0 x i16], align 2
@_ZN11xercesc_2_513SchemaSymbols9fgDT_TIMEE = external constant [0 x i16], align 2
@_ZN11xercesc_2_513SchemaSymbols8fgDT_DAYE = external constant [0 x i16], align 2
@_ZN11xercesc_2_513SchemaSymbols10fgDT_MONTHE = external constant [0 x i16], align 2
@_ZN11xercesc_2_513SchemaSymbols13fgDT_MONTHDAYE = external constant [0 x i16], align 2
@_ZN11xercesc_2_513SchemaSymbols9fgDT_YEARE = external constant [0 x i16], align 2
@_ZN11xercesc_2_513SchemaSymbols14fgDT_YEARMONTHE = external constant [0 x i16], align 2
@_ZN11xercesc_2_513SchemaSymbols13fgDT_DURATIONE = external constant [0 x i16], align 2
@_ZN11xercesc_2_513SchemaSymbols16fgELT_WHITESPACEE = external constant [0 x i16], align 2
@_ZN11xercesc_2_513SchemaSymbols12fgWS_REPLACEE = external constant [0 x i16], align 2
@_ZN11xercesc_2_513SchemaSymbols21fgDT_NORMALIZEDSTRINGE = external constant [0 x i16], align 2
@_ZN11xercesc_2_513SchemaSymbols13fgWS_COLLAPSEE = external constant [0 x i16], align 2
@_ZN11xercesc_2_513SchemaSymbols10fgDT_TOKENE = external constant [0 x i16], align 2
@_ZN11xercesc_2_513SchemaSymbols9fgDT_NAMEE = external constant [0 x i16], align 2
@_ZN11xercesc_2_513SchemaSymbols11fgDT_NCNAMEE = external constant [0 x i16], align 2
@_ZN11xercesc_2_513SchemaSymbols13fgELT_PATTERNE = external constant [0 x i16], align 2
@_ZN11xercesc_2_5L12fgTokPatternE = internal constant [4 x i16] [i16 92, i16 99, i16 43, i16 0], align 2
@_ZN11xercesc_2_56XMLUni15fgNmTokenStringE = external constant [0 x i16], align 2
@_ZN11xercesc_2_56XMLUni16fgNmTokensStringE = external constant [0 x i16], align 2
@_ZN11xercesc_2_5L13fgLangPatternE = internal constant [36 x i16] [i16 40, i16 91, i16 97, i16 45, i16 122, i16 65, i16 45, i16 90, i16 93, i16 123, i16 49, i16 44, i16 56, i16 125, i16 41, i16 40, i16 45, i16 91, i16 97, i16 45, i16 122, i16 65, i16 45, i16 90, i16 48, i16 45, i16 57, i16 93, i16 123, i16 49, i16 44, i16 56, i16 125, i16 41, i16 42, i16 0], align 16
@_ZN11xercesc_2_513SchemaSymbols13fgDT_LANGUAGEE = external constant [0 x i16], align 2
@_ZN11xercesc_2_513SchemaSymbols20fgELT_FRACTIONDIGITSE = external constant [0 x i16], align 2
@_ZN11xercesc_2_5L11fgValueZeroE = internal constant [2 x i16] [i16 48, i16 0], align 2
@_ZN11xercesc_2_5L16fgIntegerPatternE = internal constant [13 x i16] [i16 91, i16 43, i16 92, i16 45, i16 93, i16 63, i16 91, i16 48, i16 45, i16 57, i16 93, i16 43, i16 0], align 16
@_ZN11xercesc_2_513SchemaSymbols12fgDT_INTEGERE = external constant [0 x i16], align 2
@_ZN11xercesc_2_513SchemaSymbols18fgELT_MAXINCLUSIVEE = external constant [0 x i16], align 2
@_ZN11xercesc_2_513SchemaSymbols23fgDT_NONPOSITIVEINTEGERE = external constant [0 x i16], align 2
@_ZN11xercesc_2_5L8fgNegOneE = internal constant [3 x i16] [i16 45, i16 49, i16 0], align 2
@_ZN11xercesc_2_513SchemaSymbols20fgDT_NEGATIVEINTEGERE = external constant [0 x i16], align 2
@_ZN11xercesc_2_5L12fgLongMaxIncE = internal constant [20 x i16] [i16 57, i16 50, i16 50, i16 51, i16 51, i16 55, i16 50, i16 48, i16 51, i16 54, i16 56, i16 53, i16 52, i16 55, i16 55, i16 53, i16 56, i16 48, i16 55, i16 0], align 16
@_ZN11xercesc_2_513SchemaSymbols18fgELT_MININCLUSIVEE = external constant [0 x i16], align 2
@_ZN11xercesc_2_5L12fgLongMinIncE = internal constant [21 x i16] [i16 45, i16 57, i16 50, i16 50, i16 51, i16 51, i16 55, i16 50, i16 48, i16 51, i16 54, i16 56, i16 53, i16 52, i16 55, i16 55, i16 53, i16 56, i16 48, i16 56, i16 0], align 16
@_ZN11xercesc_2_513SchemaSymbols9fgDT_LONGE = external constant [0 x i16], align 2
@_ZN11xercesc_2_5L11fgIntMaxIncE = internal constant [11 x i16] [i16 50, i16 49, i16 52, i16 55, i16 52, i16 56, i16 51, i16 54, i16 52, i16 55, i16 0], align 16
@_ZN11xercesc_2_5L11fgIntMinIncE = internal constant [12 x i16] [i16 45, i16 50, i16 49, i16 52, i16 55, i16 52, i16 56, i16 51, i16 54, i16 52, i16 56, i16 0], align 16
@_ZN11xercesc_2_513SchemaSymbols8fgDT_INTE = external constant [0 x i16], align 2
@_ZN11xercesc_2_5L13fgShortMaxIncE = internal constant [6 x i16] [i16 51, i16 50, i16 55, i16 54, i16 55, i16 0], align 2
@_ZN11xercesc_2_5L13fgShortMinIncE = internal constant [7 x i16] [i16 45, i16 51, i16 50, i16 55, i16 54, i16 56, i16 0], align 2
@_ZN11xercesc_2_513SchemaSymbols10fgDT_SHORTE = external constant [0 x i16], align 2
@_ZN11xercesc_2_5L12fgByteMaxIncE = internal constant [4 x i16] [i16 49, i16 50, i16 55, i16 0], align 2
@_ZN11xercesc_2_5L12fgByteMinIncE = internal constant [5 x i16] [i16 45, i16 49, i16 50, i16 56, i16 0], align 2
@_ZN11xercesc_2_513SchemaSymbols9fgDT_BYTEE = external constant [0 x i16], align 2
@_ZN11xercesc_2_513SchemaSymbols23fgDT_NONNEGATIVEINTEGERE = external constant [0 x i16], align 2
@_ZN11xercesc_2_5L13fgULongMaxIncE = internal constant [21 x i16] [i16 49, i16 56, i16 52, i16 52, i16 54, i16 55, i16 52, i16 52, i16 48, i16 55, i16 51, i16 55, i16 48, i16 57, i16 53, i16 53, i16 49, i16 54, i16 49, i16 53, i16 0], align 16
@_ZN11xercesc_2_513SchemaSymbols10fgDT_ULONGE = external constant [0 x i16], align 2
@_ZN11xercesc_2_5L12fgUIntMaxIncE = internal constant [11 x i16] [i16 52, i16 50, i16 57, i16 52, i16 57, i16 54, i16 55, i16 50, i16 57, i16 53, i16 0], align 16
@_ZN11xercesc_2_513SchemaSymbols9fgDT_UINTE = external constant [0 x i16], align 2
@_ZN11xercesc_2_5L14fgUShortMaxIncE = internal constant [6 x i16] [i16 54, i16 53, i16 53, i16 51, i16 53, i16 0], align 2
@_ZN11xercesc_2_513SchemaSymbols11fgDT_USHORTE = external constant [0 x i16], align 2
@_ZN11xercesc_2_5L13fgUByteMaxIncE = internal constant [4 x i16] [i16 50, i16 53, i16 53, i16 0], align 2
@_ZN11xercesc_2_513SchemaSymbols10fgDT_UBYTEE = external constant [0 x i16], align 2
@_ZN11xercesc_2_5L10fgValueOneE = internal constant [2 x i16] [i16 49, i16 0], align 2
@_ZN11xercesc_2_513SchemaSymbols20fgDT_POSITIVEINTEGERE = external constant [0 x i16], align 2
@_ZN11xercesc_2_56XMLUni10fgIDStringE = external constant [0 x i16], align 2
@_ZN11xercesc_2_56XMLUni13fgIDRefStringE = external constant [0 x i16], align 2
@_ZN11xercesc_2_56XMLUni14fgEntityStringE = external constant [0 x i16], align 2
@_ZN11xercesc_2_56XMLUni14fgIDRefsStringE = external constant [0 x i16], align 2
@_ZN11xercesc_2_56XMLUni16fgEntitiesStringE = external constant [0 x i16], align 2
@_ZN11xercesc_2_513SchemaSymbols12fgELT_LENGTHE = external constant [0 x i16], align 2
@_ZN11xercesc_2_513SchemaSymbols15fgELT_MINLENGTHE = external constant [0 x i16], align 2
@_ZN11xercesc_2_513SchemaSymbols15fgELT_MAXLENGTHE = external constant [0 x i16], align 2
@_ZN11xercesc_2_513SchemaSymbols18fgELT_MINEXCLUSIVEE = external constant [0 x i16], align 2
@_ZN11xercesc_2_513SchemaSymbols18fgELT_MAXEXCLUSIVEE = external constant [0 x i16], align 2
@_ZN11xercesc_2_513SchemaSymbols17fgELT_TOTALDIGITSE = external constant [0 x i16], align 2
@.str = private unnamed_addr constant [25 x i8] c"DatatypeValidatorFactory\00", align 1
@_ZN11xercesc_2_524DatatypeValidatorFactory29classDatatypeValidatorFactoryE = dso_local global %"class.xercesc_2_5::XProtoType" { ptr @.str, ptr @_ZN11xercesc_2_524DatatypeValidatorFactory12createObjectEPNS_13MemoryManagerE }, align 8
@_ZTVN10__cxxabiv117__class_type_infoE = external global ptr
@_ZTVN11xercesc_2_524BooleanDatatypeValidatorE = linkonce_odr dso_local unnamed_addr constant { [15 x ptr] } { [15 x ptr] [ptr null, ptr @_ZTIN11xercesc_2_524BooleanDatatypeValidatorE, ptr @_ZN11xercesc_2_517DatatypeValidatorD2Ev, ptr @_ZN11xercesc_2_524BooleanDatatypeValidatorD0Ev, ptr @_ZNK11xercesc_2_524BooleanDatatypeValidator14isSerializableEv, ptr @_ZN11xercesc_2_524BooleanDatatypeValidator9serializeERNS_16XSerializeEngineE, ptr @_ZNK11xercesc_2_524BooleanDatatypeValidator12getProtoTypeEv, ptr @_ZNK11xercesc_2_517DatatypeValidator8isAtomicEv, ptr @_ZNK11xercesc_2_524BooleanDatatypeValidator13getEnumStringEv, ptr @_ZNK11xercesc_2_524BooleanDatatypeValidator26getCanonicalRepresentationEPKtPNS_13MemoryManagerEb, ptr @_ZN11xercesc_2_524BooleanDatatypeValidator8validateEPKtPNS_17ValidationContextEPNS_13MemoryManagerE, ptr @_ZN11xercesc_2_517DatatypeValidator17isSubstitutableByEPKS0_, ptr @_ZN11xercesc_2_524BooleanDatatypeValidator7compareEPKtS2_PNS_13MemoryManagerE, ptr @_ZN11xercesc_2_524BooleanDatatypeValidator11newInstanceEPNS_14RefHashTableOfINS_12KVStringPairEEEPNS_16RefArrayVectorOfItEEiPNS_13MemoryManagerE, ptr @_ZN11xercesc_2_524BooleanDatatypeValidator12checkContentEPKtPNS_17ValidationContextEbPNS_13MemoryManagerE] }, comdat, align 8, !type !0, !type !1, !type !2, !type !3, !type !8, !type !9, !type !10, !type !11, !type !12, !type !13, !type !14, !type !15, !type !16, !type !17, !type !18, !type !19, !type !20, !type !21, !type !22, !type !23, !type !24, !type !25, !type !26, !type !27, !type !28, !type !29, !type !30, !type !31, !type !32, !type !33, !type !34, !type !35, !type !36, !type !37, !type !38, !type !39
@_ZTVN10__cxxabiv120__si_class_type_infoE = external global ptr
@_ZTSN11xercesc_2_524BooleanDatatypeValidatorE = linkonce_odr dso_local constant [42 x i8] c"N11xercesc_2_524BooleanDatatypeValidatorE\00", comdat, align 1
@_ZTIN11xercesc_2_517DatatypeValidatorE = external constant ptr
@_ZTIN11xercesc_2_524BooleanDatatypeValidatorE = linkonce_odr dso_local constant { ptr, ptr, ptr } { ptr getelementptr inbounds (ptr, ptr @_ZTVN10__cxxabiv120__si_class_type_infoE, i64 2), ptr @_ZTSN11xercesc_2_524BooleanDatatypeValidatorE, ptr @_ZTIN11xercesc_2_517DatatypeValidatorE }, comdat, align 8
@_ZTVN10__cxxabiv121__vmi_class_type_infoE = external global ptr
@_ZTSN11xercesc_2_513XSerializableE = linkonce_odr dso_local constant [31 x i8] c"N11xercesc_2_513XSerializableE\00", comdat, align 1
@_ZTIN11xercesc_2_513XSerializableE = linkonce_odr dso_local constant { ptr, ptr } { ptr getelementptr inbounds (ptr, ptr @_ZTVN10__cxxabiv117__class_type_infoE, i64 2), ptr @_ZTSN11xercesc_2_513XSerializableE }, comdat, align 8
@_ZTSN11xercesc_2_57XMemoryE = linkonce_odr dso_local constant [24 x i8] c"N11xercesc_2_57XMemoryE\00", comdat, align 1
@_ZTIN11xercesc_2_57XMemoryE = linkonce_odr dso_local constant { ptr, ptr } { ptr getelementptr inbounds (ptr, ptr @_ZTVN10__cxxabiv117__class_type_infoE, i64 2), ptr @_ZTSN11xercesc_2_57XMemoryE }, comdat, align 8
@_ZTSN11xercesc_2_524DatatypeValidatorFactoryE = dso_local constant [42 x i8] c"N11xercesc_2_524DatatypeValidatorFactoryE\00", align 1
@_ZTIN11xercesc_2_524DatatypeValidatorFactoryE = dso_local constant { ptr, ptr, i32, i32, ptr, i64, ptr, i64 } { ptr getelementptr inbounds (ptr, ptr @_ZTVN10__cxxabiv121__vmi_class_type_infoE, i64 2), ptr @_ZTSN11xercesc_2_524DatatypeValidatorFactoryE, i32 0, i32 2, ptr @_ZTIN11xercesc_2_513XSerializableE, i64 2, ptr @_ZTIN11xercesc_2_57XMemoryE, i64 2 }, align 8
@.str.1 = private unnamed_addr constant [32 x i8] c"./xercesc/util/RefHashTableOf.c\00", align 1
@_ZTSN11xercesc_2_516RuntimeExceptionE = linkonce_odr dso_local constant [34 x i8] c"N11xercesc_2_516RuntimeExceptionE\00", comdat, align 1
@_ZTIN11xercesc_2_512XMLExceptionE = external constant ptr
@_ZTIN11xercesc_2_516RuntimeExceptionE = linkonce_odr dso_local constant { ptr, ptr, ptr } { ptr getelementptr inbounds (ptr, ptr @_ZTVN10__cxxabiv120__si_class_type_infoE, i64 2), ptr @_ZTSN11xercesc_2_516RuntimeExceptionE, ptr @_ZTIN11xercesc_2_512XMLExceptionE }, comdat, align 8
@_ZTVN11xercesc_2_516RuntimeExceptionE = linkonce_odr dso_local unnamed_addr constant { [6 x ptr] } { [6 x ptr] [ptr null, ptr @_ZTIN11xercesc_2_516RuntimeExceptionE, ptr @_ZN11xercesc_2_512XMLExceptionD2Ev, ptr @_ZN11xercesc_2_516RuntimeExceptionD0Ev, ptr @_ZNK11xercesc_2_516RuntimeException7getTypeEv, ptr @_ZNK11xercesc_2_516RuntimeException9duplicateEv] }, comdat, align 8, !type !40, !type !41, !type !42, !type !43, !type !44, !type !45
@_ZN11xercesc_2_56XMLUni23fgRuntimeException_NameE = external constant [0 x i16], align 2
@_ZN11xercesc_2_520gXMLCleanupListMutexE = external local_unnamed_addr global ptr, align 8
@_ZN11xercesc_2_515gXMLCleanupListE = external local_unnamed_addr global ptr, align 8
@_ZTSN11xercesc_2_522NoSuchElementExceptionE = linkonce_odr dso_local constant [40 x i8] c"N11xercesc_2_522NoSuchElementExceptionE\00", comdat, align 1
@_ZTIN11xercesc_2_522NoSuchElementExceptionE = linkonce_odr dso_local constant { ptr, ptr, ptr } { ptr getelementptr inbounds (ptr, ptr @_ZTVN10__cxxabiv120__si_class_type_infoE, i64 2), ptr @_ZTSN11xercesc_2_522NoSuchElementExceptionE, ptr @_ZTIN11xercesc_2_512XMLExceptionE }, comdat, align 8
@_ZTVN11xercesc_2_522NoSuchElementExceptionE = linkonce_odr dso_local unnamed_addr constant { [6 x ptr] } { [6 x ptr] [ptr null, ptr @_ZTIN11xercesc_2_522NoSuchElementExceptionE, ptr @_ZN11xercesc_2_512XMLExceptionD2Ev, ptr @_ZN11xercesc_2_522NoSuchElementExceptionD0Ev, ptr @_ZNK11xercesc_2_522NoSuchElementException7getTypeEv, ptr @_ZNK11xercesc_2_522NoSuchElementException9duplicateEv] }, comdat, align 8, !type !40, !type !41, !type !42, !type !46, !type !47, !type !48
@_ZN11xercesc_2_56XMLUni29fgNoSuchElementException_NameE = external constant [0 x i16], align 2
@llvm.global_ctors = appending global [0 x { i32, ptr, ptr }] zeroinitializer

@_ZN11xercesc_2_524DatatypeValidatorFactoryC1EPNS_13MemoryManagerE = dso_local unnamed_addr alias void (ptr, ptr), ptr @_ZN11xercesc_2_524DatatypeValidatorFactoryC2EPNS_13MemoryManagerE
@_ZN11xercesc_2_524DatatypeValidatorFactoryD1Ev = dso_local unnamed_addr alias void (ptr), ptr @_ZN11xercesc_2_524DatatypeValidatorFactoryD2Ev

declare i32 @__gxx_personality_v0(...)

; Function Attrs: inlinehint uwtable
define linkonce_odr dso_local void @_ZN11xercesc_2_524BooleanDatatypeValidatorD0Ev(ptr noundef nonnull align 8 dereferenceable(103) %0) unnamed_addr #0 comdat align 2 personality ptr @__gxx_personality_v0 {
  invoke void @_ZN11xercesc_2_517DatatypeValidatorD2Ev(ptr noundef nonnull align 8 dereferenceable(103) %0)
          to label %2 unwind label %3

2:                                                ; preds = %1
  tail call void @_ZN11xercesc_2_57XMemorydlEPv(ptr noundef nonnull %0)
  ret void

3:                                                ; preds = %1
  %4 = landingpad { ptr, i32 }
          cleanup
  invoke void @_ZN11xercesc_2_57XMemorydlEPv(ptr noundef nonnull %0)
          to label %5 unwind label %6

5:                                                ; preds = %3
  resume { ptr, i32 } %4

6:                                                ; preds = %3
  %7 = landingpad { ptr, i32 }
          catch ptr null
  %8 = extractvalue { ptr, i32 } %7, 0
  tail call void @__clang_call_terminate(ptr %8) #10
  unreachable
}

declare void @_ZN11xercesc_2_517DatatypeValidatorD2Ev(ptr noundef nonnull align 8 dereferenceable(103)) unnamed_addr #1

declare void @_ZN11xercesc_2_57XMemorydlEPv(ptr noundef) local_unnamed_addr #1

; Function Attrs: noinline noreturn nounwind uwtable
define linkonce_odr hidden void @__clang_call_terminate(ptr noundef %0) local_unnamed_addr #2 comdat {
  %2 = tail call ptr @__cxa_begin_catch(ptr %0) #11
  tail call void @_ZSt9terminatev() #10
  unreachable
}

declare ptr @__cxa_begin_catch(ptr) local_unnamed_addr

declare void @_ZSt9terminatev() local_unnamed_addr

; Function Attrs: mustprogress nofree norecurse nosync nounwind willreturn memory(argmem: write) uwtable
define dso_local void @_ZN11xercesc_2_524DatatypeValidatorFactoryC2EPNS_13MemoryManagerE(ptr nocapture noundef nonnull writeonly align 8 dereferenceable(24) %0, ptr noundef %1) unnamed_addr #3 align 2 personality ptr @__gxx_personality_v0 {
  store ptr getelementptr inbounds ({ [7 x ptr] }, ptr @_ZTVN11xercesc_2_524DatatypeValidatorFactoryE, i64 0, inrange i32 0, i64 2), ptr %0, align 8, !tbaa !56
  %3 = getelementptr inbounds %"class.xercesc_2_5::DatatypeValidatorFactory", ptr %0, i64 0, i32 1
  store ptr null, ptr %3, align 8, !tbaa !59
  %4 = getelementptr inbounds %"class.xercesc_2_5::DatatypeValidatorFactory", ptr %0, i64 0, i32 2
  store ptr %1, ptr %4, align 8, !tbaa !64
  ret void
}

; Function Attrs: uwtable
define dso_local void @_ZN11xercesc_2_524DatatypeValidatorFactoryD2Ev(ptr noundef nonnull align 8 dereferenceable(24) %0) unnamed_addr #4 align 2 personality ptr @__gxx_personality_v0 {
  store ptr getelementptr inbounds ({ [7 x ptr] }, ptr @_ZTVN11xercesc_2_524DatatypeValidatorFactoryE, i64 0, inrange i32 0, i64 2), ptr %0, align 8, !tbaa !56
  tail call void @_ZN11xercesc_2_524DatatypeValidatorFactory7cleanUpEv(ptr noundef nonnull align 8 dereferenceable(24) %0)
  ret void
}

; Function Attrs: inlinehint uwtable
define linkonce_odr dso_local void @_ZN11xercesc_2_524DatatypeValidatorFactory7cleanUpEv(ptr noundef nonnull align 8 dereferenceable(24) %0) local_unnamed_addr #0 comdat align 2 personality ptr @__gxx_personality_v0 {
  %2 = getelementptr inbounds %"class.xercesc_2_5::DatatypeValidatorFactory", ptr %0, i64 0, i32 1
  %3 = load ptr, ptr %2, align 8, !tbaa !59
  %4 = icmp eq ptr %3, null
  br i1 %4, label %62, label %5

5:                                                ; preds = %1
  %6 = getelementptr inbounds %"class.xercesc_2_5::RefHashTableOf", ptr %3, i64 0, i32 3
  %7 = load i32, ptr %6, align 8, !tbaa !65
  %8 = icmp eq i32 %7, 0
  br i1 %8, label %45, label %9

9:                                                ; preds = %5
  %10 = getelementptr inbounds %"class.xercesc_2_5::RefHashTableOf", ptr %3, i64 0, i32 2
  %11 = getelementptr inbounds %"class.xercesc_2_5::RefHashTableOf", ptr %3, i64 0, i32 1
  br label %12

12:                                               ; preds = %38, %9
  %13 = phi i32 [ %7, %9 ], [ %39, %38 ]
  %14 = phi i64 [ 0, %9 ], [ %42, %38 ]
  %15 = load ptr, ptr %10, align 8, !tbaa !69
  %16 = getelementptr inbounds ptr, ptr %15, i64 %14
  %17 = load ptr, ptr %16, align 8, !tbaa !70
  %18 = icmp eq ptr %17, null
  br i1 %18, label %38, label %19

19:                                               ; preds = %12, %33
  %20 = phi ptr [ %22, %33 ], [ %17, %12 ]
  %21 = getelementptr inbounds %"struct.xercesc_2_5::RefHashTableBucketElem", ptr %20, i64 0, i32 1
  %22 = load ptr, ptr %21, align 8, !tbaa !71
  %23 = load i8, ptr %11, align 8, !tbaa !73, !range !74, !noundef !75
  %24 = icmp eq i8 %23, 0
  br i1 %24, label %32, label %25

25:                                               ; preds = %19
  %26 = load ptr, ptr %20, align 8, !tbaa !76
  %27 = icmp eq ptr %26, null
  br i1 %27, label %32, label %28

28:                                               ; preds = %25
  %29 = load ptr, ptr %26, align 8, !tbaa !56
  %30 = getelementptr inbounds ptr, ptr %29, i64 1
  %31 = load ptr, ptr %30, align 8
  invoke void %31(ptr noundef nonnull align 8 dereferenceable(103) %26)
          to label %32 unwind label %63

32:                                               ; preds = %28, %25, %19
  invoke void @_ZN11xercesc_2_57XMemorydlEPv(ptr noundef nonnull %20)
          to label %33 unwind label %63

33:                                               ; preds = %32
  %34 = icmp eq ptr %22, null
  br i1 %34, label %35, label %19

35:                                               ; preds = %33
  %36 = load ptr, ptr %10, align 8, !tbaa !69
  %37 = load i32, ptr %6, align 8, !tbaa !65
  br label %38

38:                                               ; preds = %35, %12
  %39 = phi i32 [ %37, %35 ], [ %13, %12 ]
  %40 = phi ptr [ %36, %35 ], [ %15, %12 ]
  %41 = getelementptr inbounds ptr, ptr %40, i64 %14
  store ptr null, ptr %41, align 8, !tbaa !70
  %42 = add nuw nsw i64 %14, 1
  %43 = zext i32 %39 to i64
  %44 = icmp ult i64 %42, %43
  br i1 %44, label %12, label %45

45:                                               ; preds = %38, %5
  %46 = getelementptr inbounds %"class.xercesc_2_5::RefHashTableOf", ptr %3, i64 0, i32 5
  store i32 0, ptr %46, align 8, !tbaa !77
  %47 = load ptr, ptr %3, align 8, !tbaa !78
  %48 = getelementptr inbounds %"class.xercesc_2_5::RefHashTableOf", ptr %3, i64 0, i32 2
  %49 = load ptr, ptr %48, align 8, !tbaa !69
  %50 = load ptr, ptr %47, align 8, !tbaa !56
  %51 = getelementptr inbounds ptr, ptr %50, i64 3
  %52 = load ptr, ptr %51, align 8
  invoke void %52(ptr noundef nonnull align 8 dereferenceable(8) %47, ptr noundef %49)
          to label %53 unwind label %65

53:                                               ; preds = %45
  %54 = getelementptr inbounds %"class.xercesc_2_5::RefHashTableOf", ptr %3, i64 0, i32 6
  %55 = load ptr, ptr %54, align 8, !tbaa !79
  %56 = icmp eq ptr %55, null
  br i1 %56, label %61, label %57

57:                                               ; preds = %53
  %58 = load ptr, ptr %55, align 8, !tbaa !56
  %59 = getelementptr inbounds ptr, ptr %58, i64 3
  %60 = load ptr, ptr %59, align 8
  invoke void %60(ptr noundef nonnull align 8 dereferenceable(8) %55)
          to label %61 unwind label %65

61:                                               ; preds = %53, %57
  tail call void @_ZN11xercesc_2_57XMemorydlEPv(ptr noundef nonnull %3)
  br label %62

62:                                               ; preds = %61, %1
  store ptr null, ptr %2, align 8, !tbaa !59
  ret void

63:                                               ; preds = %28, %32
  %64 = landingpad { ptr, i32 }
          cleanup
  br label %67

65:                                               ; preds = %45, %57
  %66 = landingpad { ptr, i32 }
          cleanup
  br label %67

67:                                               ; preds = %65, %63
  %68 = phi { ptr, i32 } [ %64, %63 ], [ %66, %65 ]
  invoke void @_ZN11xercesc_2_57XMemorydlEPv(ptr noundef nonnull %3)
          to label %69 unwind label %70

69:                                               ; preds = %67
  resume { ptr, i32 } %68

70:                                               ; preds = %67
  %71 = landingpad { ptr, i32 }
          catch ptr null
  %72 = extractvalue { ptr, i32 } %71, 0
  tail call void @__clang_call_terminate(ptr %72) #10
  unreachable
}

; Function Attrs: uwtable
define dso_local void @_ZN11xercesc_2_524DatatypeValidatorFactoryD0Ev(ptr noundef nonnull align 8 dereferenceable(24) %0) unnamed_addr #4 align 2 personality ptr @__gxx_personality_v0 {
  store ptr getelementptr inbounds ({ [7 x ptr] }, ptr @_ZTVN11xercesc_2_524DatatypeValidatorFactoryE, i64 0, inrange i32 0, i64 2), ptr %0, align 8, !tbaa !56
  invoke void @_ZN11xercesc_2_524DatatypeValidatorFactory7cleanUpEv(ptr noundef nonnull align 8 dereferenceable(24) %0)
          to label %2 unwind label %3

2:                                                ; preds = %1
  tail call void @_ZN11xercesc_2_57XMemorydlEPv(ptr noundef nonnull %0)
  ret void

3:                                                ; preds = %1
  %4 = landingpad { ptr, i32 }
          cleanup
  invoke void @_ZN11xercesc_2_57XMemorydlEPv(ptr noundef nonnull %0)
          to label %5 unwind label %6

5:                                                ; preds = %3
  resume { ptr, i32 } %4

6:                                                ; preds = %3
  %7 = landingpad { ptr, i32 }
          catch ptr null
  %8 = extractvalue { ptr, i32 } %7, 0
  tail call void @__clang_call_terminate(ptr %8) #10
  unreachable
}

; Function Attrs: uwtable
define dso_local void @_ZN11xercesc_2_524DatatypeValidatorFactory13resetRegistryEv(ptr nocapture noundef nonnull readonly align 8 dereferenceable(24) %0) local_unnamed_addr #4 align 2 {
  %2 = getelementptr inbounds %"class.xercesc_2_5::DatatypeValidatorFactory", ptr %0, i64 0, i32 1
  %3 = load ptr, ptr %2, align 8, !tbaa !59
  %4 = icmp eq ptr %3, null
  br i1 %4, label %46, label %5

5:                                                ; preds = %1
  %6 = getelementptr inbounds %"class.xercesc_2_5::RefHashTableOf", ptr %3, i64 0, i32 3
  %7 = load i32, ptr %6, align 8, !tbaa !65
  %8 = icmp eq i32 %7, 0
  br i1 %8, label %44, label %9

9:                                                ; preds = %5
  %10 = getelementptr inbounds %"class.xercesc_2_5::RefHashTableOf", ptr %3, i64 0, i32 2
  %11 = getelementptr inbounds %"class.xercesc_2_5::RefHashTableOf", ptr %3, i64 0, i32 1
  br label %12

12:                                               ; preds = %37, %9
  %13 = phi i32 [ %7, %9 ], [ %38, %37 ]
  %14 = phi i64 [ 0, %9 ], [ %41, %37 ]
  %15 = load ptr, ptr %10, align 8, !tbaa !69
  %16 = getelementptr inbounds ptr, ptr %15, i64 %14
  %17 = load ptr, ptr %16, align 8, !tbaa !70
  %18 = icmp eq ptr %17, null
  br i1 %18, label %37, label %19

19:                                               ; preds = %12, %32
  %20 = phi ptr [ %22, %32 ], [ %17, %12 ]
  %21 = getelementptr inbounds %"struct.xercesc_2_5::RefHashTableBucketElem", ptr %20, i64 0, i32 1
  %22 = load ptr, ptr %21, align 8, !tbaa !71
  %23 = load i8, ptr %11, align 8, !tbaa !73, !range !74, !noundef !75
  %24 = icmp eq i8 %23, 0
  br i1 %24, label %32, label %25

25:                                               ; preds = %19
  %26 = load ptr, ptr %20, align 8, !tbaa !76
  %27 = icmp eq ptr %26, null
  br i1 %27, label %32, label %28

28:                                               ; preds = %25
  %29 = load ptr, ptr %26, align 8, !tbaa !56
  %30 = getelementptr inbounds ptr, ptr %29, i64 1
  %31 = load ptr, ptr %30, align 8
  tail call void %31(ptr noundef nonnull align 8 dereferenceable(103) %26)
  br label %32

32:                                               ; preds = %28, %25, %19
  tail call void @_ZN11xercesc_2_57XMemorydlEPv(ptr noundef nonnull %20)
  %33 = icmp eq ptr %22, null
  br i1 %33, label %34, label %19

34:                                               ; preds = %32
  %35 = load ptr, ptr %10, align 8, !tbaa !69
  %36 = load i32, ptr %6, align 8, !tbaa !65
  br label %37

37:                                               ; preds = %34, %12
  %38 = phi i32 [ %36, %34 ], [ %13, %12 ]
  %39 = phi ptr [ %35, %34 ], [ %15, %12 ]
  %40 = getelementptr inbounds ptr, ptr %39, i64 %14
  store ptr null, ptr %40, align 8, !tbaa !70
  %41 = add nuw nsw i64 %14, 1
  %42 = zext i32 %38 to i64
  %43 = icmp ult i64 %41, %42
  br i1 %43, label %12, label %44

44:                                               ; preds = %37, %5
  %45 = getelementptr inbounds %"class.xercesc_2_5::RefHashTableOf", ptr %3, i64 0, i32 5
  store i32 0, ptr %45, align 8, !tbaa !77
  br label %46

46:                                               ; preds = %44, %1
  ret void
}

; Function Attrs: uwtable
define dso_local void @_ZN11xercesc_2_524DatatypeValidatorFactory14reinitRegistryEv() #4 align 2 personality ptr @__gxx_personality_v0 {
  %1 = load ptr, ptr @_ZN11xercesc_2_524DatatypeValidatorFactory16fBuiltInRegistryE, align 8, !tbaa !70
  %2 = icmp eq ptr %1, null
  br i1 %2, label %60, label %3

3:                                                ; preds = %0
  %4 = getelementptr inbounds %"class.xercesc_2_5::RefHashTableOf", ptr %1, i64 0, i32 3
  %5 = load i32, ptr %4, align 8, !tbaa !65
  %6 = icmp eq i32 %5, 0
  br i1 %6, label %43, label %7

7:                                                ; preds = %3
  %8 = getelementptr inbounds %"class.xercesc_2_5::RefHashTableOf", ptr %1, i64 0, i32 2
  %9 = getelementptr inbounds %"class.xercesc_2_5::RefHashTableOf", ptr %1, i64 0, i32 1
  br label %10

10:                                               ; preds = %36, %7
  %11 = phi i32 [ %5, %7 ], [ %37, %36 ]
  %12 = phi i64 [ 0, %7 ], [ %40, %36 ]
  %13 = load ptr, ptr %8, align 8, !tbaa !69
  %14 = getelementptr inbounds ptr, ptr %13, i64 %12
  %15 = load ptr, ptr %14, align 8, !tbaa !70
  %16 = icmp eq ptr %15, null
  br i1 %16, label %36, label %17

17:                                               ; preds = %10, %31
  %18 = phi ptr [ %20, %31 ], [ %15, %10 ]
  %19 = getelementptr inbounds %"struct.xercesc_2_5::RefHashTableBucketElem", ptr %18, i64 0, i32 1
  %20 = load ptr, ptr %19, align 8, !tbaa !71
  %21 = load i8, ptr %9, align 8, !tbaa !73, !range !74, !noundef !75
  %22 = icmp eq i8 %21, 0
  br i1 %22, label %30, label %23

23:                                               ; preds = %17
  %24 = load ptr, ptr %18, align 8, !tbaa !76
  %25 = icmp eq ptr %24, null
  br i1 %25, label %30, label %26

26:                                               ; preds = %23
  %27 = load ptr, ptr %24, align 8, !tbaa !56
  %28 = getelementptr inbounds ptr, ptr %27, i64 1
  %29 = load ptr, ptr %28, align 8
  invoke void %29(ptr noundef nonnull align 8 dereferenceable(103) %24)
          to label %30 unwind label %86

30:                                               ; preds = %26, %23, %17
  invoke void @_ZN11xercesc_2_57XMemorydlEPv(ptr noundef nonnull %18)
          to label %31 unwind label %86

31:                                               ; preds = %30
  %32 = icmp eq ptr %20, null
  br i1 %32, label %33, label %17

33:                                               ; preds = %31
  %34 = load ptr, ptr %8, align 8, !tbaa !69
  %35 = load i32, ptr %4, align 8, !tbaa !65
  br label %36

36:                                               ; preds = %33, %10
  %37 = phi i32 [ %35, %33 ], [ %11, %10 ]
  %38 = phi ptr [ %34, %33 ], [ %13, %10 ]
  %39 = getelementptr inbounds ptr, ptr %38, i64 %12
  store ptr null, ptr %39, align 8, !tbaa !70
  %40 = add nuw nsw i64 %12, 1
  %41 = zext i32 %37 to i64
  %42 = icmp ult i64 %40, %41
  br i1 %42, label %10, label %43

43:                                               ; preds = %36, %3
  %44 = getelementptr inbounds %"class.xercesc_2_5::RefHashTableOf", ptr %1, i64 0, i32 5
  store i32 0, ptr %44, align 8, !tbaa !77
  %45 = load ptr, ptr %1, align 8, !tbaa !78
  %46 = getelementptr inbounds %"class.xercesc_2_5::RefHashTableOf", ptr %1, i64 0, i32 2
  %47 = load ptr, ptr %46, align 8, !tbaa !69
  %48 = load ptr, ptr %45, align 8, !tbaa !56
  %49 = getelementptr inbounds ptr, ptr %48, i64 3
  %50 = load ptr, ptr %49, align 8
  invoke void %50(ptr noundef nonnull align 8 dereferenceable(8) %45, ptr noundef %47)
          to label %51 unwind label %88

51:                                               ; preds = %43
  %52 = getelementptr inbounds %"class.xercesc_2_5::RefHashTableOf", ptr %1, i64 0, i32 6
  %53 = load ptr, ptr %52, align 8, !tbaa !79
  %54 = icmp eq ptr %53, null
  br i1 %54, label %59, label %55

55:                                               ; preds = %51
  %56 = load ptr, ptr %53, align 8, !tbaa !56
  %57 = getelementptr inbounds ptr, ptr %56, i64 3
  %58 = load ptr, ptr %57, align 8
  invoke void %58(ptr noundef nonnull align 8 dereferenceable(8) %53)
          to label %59 unwind label %88

59:                                               ; preds = %51, %55
  tail call void @_ZN11xercesc_2_57XMemorydlEPv(ptr noundef nonnull %1)
  br label %60

60:                                               ; preds = %59, %0
  store ptr null, ptr @_ZN11xercesc_2_524DatatypeValidatorFactory16fBuiltInRegistryE, align 8, !tbaa !70
  %61 = load ptr, ptr @_ZN11xercesc_2_524DatatypeValidatorFactory15fCanRepRegistryE, align 8, !tbaa !70
  %62 = icmp eq ptr %61, null
  br i1 %62, label %80, label %63

63:                                               ; preds = %60
  invoke void @_ZN11xercesc_2_514RefHashTableOfINS_14XMLCanRepGroupEE9removeAllEv(ptr noundef nonnull align 8 dereferenceable(48) %61)
          to label %64 unwind label %92

64:                                               ; preds = %63
  %65 = load ptr, ptr %61, align 8, !tbaa !80
  %66 = getelementptr inbounds %"class.xercesc_2_5::RefHashTableOf.0", ptr %61, i64 0, i32 2
  %67 = load ptr, ptr %66, align 8, !tbaa !82
  %68 = load ptr, ptr %65, align 8, !tbaa !56
  %69 = getelementptr inbounds ptr, ptr %68, i64 3
  %70 = load ptr, ptr %69, align 8
  invoke void %70(ptr noundef nonnull align 8 dereferenceable(8) %65, ptr noundef %67)
          to label %71 unwind label %92

71:                                               ; preds = %64
  %72 = getelementptr inbounds %"class.xercesc_2_5::RefHashTableOf.0", ptr %61, i64 0, i32 6
  %73 = load ptr, ptr %72, align 8, !tbaa !83
  %74 = icmp eq ptr %73, null
  br i1 %74, label %79, label %75

75:                                               ; preds = %71
  %76 = load ptr, ptr %73, align 8, !tbaa !56
  %77 = getelementptr inbounds ptr, ptr %76, i64 3
  %78 = load ptr, ptr %77, align 8
  invoke void %78(ptr noundef nonnull align 8 dereferenceable(8) %73)
          to label %79 unwind label %92

79:                                               ; preds = %71, %75
  tail call void @_ZN11xercesc_2_57XMemorydlEPv(ptr noundef nonnull %61)
  br label %80

80:                                               ; preds = %79, %60
  store ptr null, ptr @_ZN11xercesc_2_524DatatypeValidatorFactory15fCanRepRegistryE, align 8, !tbaa !70
  %81 = load ptr, ptr @_ZN11xercesc_2_5L21sBuiltInRegistryMutexE, align 8, !tbaa !70
  %82 = icmp eq ptr %81, null
  br i1 %82, label %85, label %83

83:                                               ; preds = %80
  invoke void @_ZN11xercesc_2_58XMLMutexD1Ev(ptr noundef nonnull align 8 dereferenceable(8) %81)
          to label %84 unwind label %94

84:                                               ; preds = %83
  tail call void @_ZN11xercesc_2_57XMemorydlEPv(ptr noundef nonnull %81)
  br label %85

85:                                               ; preds = %84, %80
  store ptr null, ptr @_ZN11xercesc_2_5L21sBuiltInRegistryMutexE, align 8, !tbaa !70
  store i1 false, ptr @_ZN11xercesc_2_5L31sBuiltInRegistryMutexRegisteredE, align 1
  ret void

86:                                               ; preds = %26, %30
  %87 = landingpad { ptr, i32 }
          cleanup
  br label %90

88:                                               ; preds = %43, %55
  %89 = landingpad { ptr, i32 }
          cleanup
  br label %90

90:                                               ; preds = %88, %86
  %91 = phi { ptr, i32 } [ %87, %86 ], [ %89, %88 ]
  invoke void @_ZN11xercesc_2_57XMemorydlEPv(ptr noundef nonnull %1)
          to label %96 unwind label %98

92:                                               ; preds = %75, %64, %63
  %93 = landingpad { ptr, i32 }
          cleanup
  invoke void @_ZN11xercesc_2_57XMemorydlEPv(ptr noundef nonnull %61)
          to label %96 unwind label %98

94:                                               ; preds = %83
  %95 = landingpad { ptr, i32 }
          cleanup
  invoke void @_ZN11xercesc_2_57XMemorydlEPv(ptr noundef nonnull %81)
          to label %96 unwind label %98

96:                                               ; preds = %94, %92, %90
  %97 = phi { ptr, i32 } [ %95, %94 ], [ %93, %92 ], [ %91, %90 ]
  resume { ptr, i32 } %97

98:                                               ; preds = %94, %92, %90
  %99 = landingpad { ptr, i32 }
          catch ptr null
  %100 = extractvalue { ptr, i32 } %99, 0
  tail call void @__clang_call_terminate(ptr %100) #10
  unreachable
}

declare void @_ZN11xercesc_2_58XMLMutexD1Ev(ptr noundef nonnull align 8 dereferenceable(8)) unnamed_addr #1

; Function Attrs: uwtable
define dso_local void @_ZN11xercesc_2_524DatatypeValidatorFactory29expandRegistryToFullSchemaSetEv(ptr nocapture noundef nonnull align 8 dereferenceable(24) %0) local_unnamed_addr #4 align 2 personality ptr @__gxx_personality_v0 {
  %2 = alloca i32, align 4
  %3 = alloca i32, align 4
  %4 = alloca i32, align 4
  %5 = alloca i32, align 4
  %6 = alloca i32, align 4
  %7 = alloca i32, align 4
  %8 = alloca i32, align 4
  %9 = alloca i32, align 4
  %10 = alloca i32, align 4
  %11 = alloca i32, align 4
  %12 = alloca i32, align 4
  %13 = alloca i32, align 4
  %14 = alloca i32, align 4
  %15 = alloca i32, align 4
  %16 = alloca i32, align 4
  %17 = alloca i32, align 4
  %18 = alloca i32, align 4
  %19 = alloca i32, align 4
  %20 = alloca i32, align 4
  %21 = alloca i32, align 4
  %22 = alloca i32, align 4
  %23 = alloca i32, align 4
  %24 = alloca i32, align 4
  %25 = alloca i32, align 4
  %26 = alloca i32, align 4
  %27 = alloca i32, align 4
  %28 = alloca i32, align 4
  %29 = alloca i32, align 4
  %30 = alloca i32, align 4
  %31 = alloca i32, align 4
  %32 = alloca i32, align 4
  %33 = alloca i32, align 4
  %34 = alloca i32, align 4
  %35 = alloca i32, align 4
  %36 = alloca i32, align 4
  %37 = alloca i32, align 4
  %38 = alloca i32, align 4
  %39 = alloca i32, align 4
  %40 = alloca i32, align 4
  %41 = alloca i32, align 4
  %42 = alloca i32, align 4
  %43 = alloca i32, align 4
  %44 = alloca i32, align 4
  %45 = alloca i32, align 4
  %46 = alloca i32, align 4
  %47 = alloca i32, align 4
  %48 = alloca i32, align 4
  %49 = alloca i32, align 4
  %50 = alloca i32, align 4
  %51 = alloca i32, align 4
  %52 = alloca i32, align 4
  %53 = alloca i32, align 4
  %54 = alloca i32, align 4
  %55 = alloca i32, align 4
  %56 = alloca i32, align 4
  %57 = alloca i32, align 4
  %58 = alloca i32, align 4
  %59 = alloca i32, align 4
  %60 = alloca i32, align 4
  %61 = alloca i32, align 4
  %62 = alloca i32, align 4
  %63 = alloca i32, align 4
  %64 = alloca i32, align 4
  %65 = alloca i32, align 4
  %66 = alloca i32, align 4
  %67 = alloca i32, align 4
  %68 = alloca i32, align 4
  %69 = alloca i32, align 4
  %70 = alloca i32, align 4
  %71 = alloca i32, align 4
  %72 = alloca i32, align 4
  %73 = alloca i32, align 4
  %74 = alloca i32, align 4
  %75 = alloca i32, align 4
  %76 = alloca i32, align 4
  %77 = alloca i32, align 4
  %78 = alloca i32, align 4
  %79 = alloca i32, align 4
  %80 = alloca i32, align 4
  %81 = alloca i32, align 4
  %82 = alloca i32, align 4
  %83 = alloca i32, align 4
  %84 = alloca i32, align 4
  %85 = alloca i32, align 4
  %86 = alloca i32, align 4
  %87 = alloca i32, align 4
  %88 = alloca i32, align 4
  %89 = alloca i32, align 4
  %90 = alloca i32, align 4
  %91 = alloca i32, align 4
  %92 = alloca i32, align 4
  %93 = alloca i32, align 4
  %94 = alloca i32, align 4
  %95 = alloca i32, align 4
  %96 = alloca i32, align 4
  %97 = alloca i32, align 4
  %98 = alloca i32, align 4
  %99 = alloca i32, align 4
  %100 = alloca i32, align 4
  %101 = alloca i32, align 4
  %102 = alloca i32, align 4
  %103 = alloca i32, align 4
  %104 = alloca i32, align 4
  %105 = alloca i32, align 4
  %106 = alloca i32, align 4
  %107 = alloca i32, align 4
  %108 = alloca i32, align 4
  %109 = alloca i32, align 4
  %110 = alloca i32, align 4
  %111 = alloca i32, align 4
  %112 = alloca i32, align 4
  %113 = alloca i32, align 4
  %114 = alloca i32, align 4
  %115 = alloca i32, align 4
  %116 = alloca i32, align 4
  %117 = alloca i32, align 4
  %118 = alloca i32, align 4
  %119 = alloca i32, align 4
  %120 = alloca i32, align 4
  %121 = alloca i32, align 4
  %122 = alloca i32, align 4
  %123 = alloca i32, align 4
  %124 = alloca i32, align 4
  %125 = alloca i32, align 4
  %126 = alloca i32, align 4
  %127 = alloca i32, align 4
  %128 = alloca i32, align 4
  %129 = alloca i32, align 4
  %130 = alloca i32, align 4
  %131 = alloca i32, align 4
  %132 = alloca i32, align 4
  %133 = alloca i32, align 4
  %134 = alloca i32, align 4
  %135 = alloca i32, align 4
  %136 = alloca i32, align 4
  %137 = alloca i32, align 4
  %138 = alloca i32, align 4
  %139 = alloca i32, align 4
  %140 = alloca i32, align 4
  %141 = alloca i32, align 4
  %142 = alloca i32, align 4
  %143 = alloca i32, align 4
  %144 = alloca i32, align 4
  %145 = alloca i32, align 4
  %146 = alloca i32, align 4
  %147 = alloca i32, align 4
  %148 = alloca i32, align 4
  %149 = alloca i32, align 4
  %150 = alloca %"class.xercesc_2_5::XMLMutexLock", align 8
  %151 = alloca %"class.xercesc_2_5::XMLMutexLock", align 8
  %152 = load i1, ptr @_ZN11xercesc_2_5L31sBuiltInRegistryMutexRegisteredE, align 1
  br i1 %152, label %3964, label %153

153:                                              ; preds = %1
  %154 = load ptr, ptr @_ZN11xercesc_2_5L21sBuiltInRegistryMutexE, align 8, !tbaa !70
  %155 = icmp eq ptr %154, null
  br i1 %155, label %156, label %173

156:                                              ; preds = %153
  call void @llvm.lifetime.start.p0(i64 8, ptr nonnull %150) #11
  %157 = load ptr, ptr @_ZN11xercesc_2_516XMLPlatformUtils13fgAtomicMutexE, align 8, !tbaa !70
  call void @_ZN11xercesc_2_512XMLMutexLockC1EPNS_8XMLMutexE(ptr noundef nonnull align 8 dereferenceable(8) %150, ptr noundef %157)
  %158 = load ptr, ptr @_ZN11xercesc_2_5L21sBuiltInRegistryMutexE, align 8, !tbaa !70
  %159 = icmp eq ptr %158, null
  br i1 %159, label %160, label %168

160:                                              ; preds = %156
  %161 = invoke noundef ptr @_ZN11xercesc_2_57XMemorynwEm(i64 noundef 8)
          to label %162 unwind label %164

162:                                              ; preds = %160
  invoke void @_ZN11xercesc_2_58XMLMutexC1Ev(ptr noundef nonnull align 8 dereferenceable(8) %161)
          to label %163 unwind label %166

163:                                              ; preds = %162
  store ptr %161, ptr @_ZN11xercesc_2_5L21sBuiltInRegistryMutexE, align 8, !tbaa !70
  br label %168

164:                                              ; preds = %160
  %165 = landingpad { ptr, i32 }
          cleanup
  br label %170

166:                                              ; preds = %162
  %167 = landingpad { ptr, i32 }
          cleanup
  invoke void @_ZN11xercesc_2_57XMemorydlEPv(ptr noundef %161)
          to label %170 unwind label %3967

168:                                              ; preds = %163, %156
  call void @_ZN11xercesc_2_512XMLMutexLockD1Ev(ptr noundef nonnull align 8 dereferenceable(8) %150)
  call void @llvm.lifetime.end.p0(i64 8, ptr nonnull %150) #11
  %169 = load ptr, ptr @_ZN11xercesc_2_5L21sBuiltInRegistryMutexE, align 8, !tbaa !70
  br label %173

170:                                              ; preds = %166, %164
  %171 = phi { ptr, i32 } [ %167, %166 ], [ %165, %164 ]
  invoke void @_ZN11xercesc_2_512XMLMutexLockD1Ev(ptr noundef nonnull align 8 dereferenceable(8) %150)
          to label %172 unwind label %3967

172:                                              ; preds = %170
  call void @llvm.lifetime.end.p0(i64 8, ptr nonnull %150) #11
  br label %3965

173:                                              ; preds = %168, %153
  %174 = phi ptr [ %169, %168 ], [ %154, %153 ]
  call void @llvm.lifetime.start.p0(i64 8, ptr nonnull %151) #11
  call void @_ZN11xercesc_2_512XMLMutexLockC1EPNS_8XMLMutexE(ptr noundef nonnull align 8 dereferenceable(8) %151, ptr noundef %174)
  %175 = load i1, ptr @_ZN11xercesc_2_5L31sBuiltInRegistryMutexRegisteredE, align 1
  br i1 %175, label %3960, label %176

176:                                              ; preds = %173
  %177 = invoke noundef ptr @_ZN11xercesc_2_57XMemorynwEm(i64 noundef 48)
          to label %178 unwind label %3786

178:                                              ; preds = %176
  %179 = load ptr, ptr @_ZN11xercesc_2_516XMLPlatformUtils15fgMemoryManagerE, align 8, !tbaa !70
  store ptr %179, ptr %177, align 8, !tbaa !78
  %180 = getelementptr inbounds %"class.xercesc_2_5::RefHashTableOf", ptr %177, i64 0, i32 1
  store i8 1, ptr %180, align 8, !tbaa !73
  %181 = getelementptr inbounds %"class.xercesc_2_5::RefHashTableOf", ptr %177, i64 0, i32 2
  store ptr null, ptr %181, align 8, !tbaa !69
  %182 = getelementptr inbounds %"class.xercesc_2_5::RefHashTableOf", ptr %177, i64 0, i32 3
  store i32 29, ptr %182, align 8, !tbaa !65
  %183 = getelementptr inbounds %"class.xercesc_2_5::RefHashTableOf", ptr %177, i64 0, i32 4
  store i32 29, ptr %183, align 4, !tbaa !84
  %184 = getelementptr inbounds %"class.xercesc_2_5::RefHashTableOf", ptr %177, i64 0, i32 5
  store i32 0, ptr %184, align 8, !tbaa !77
  %185 = getelementptr inbounds %"class.xercesc_2_5::RefHashTableOf", ptr %177, i64 0, i32 6
  store ptr null, ptr %185, align 8, !tbaa !79
  %186 = load ptr, ptr %179, align 8, !tbaa !56
  %187 = getelementptr inbounds ptr, ptr %186, i64 2
  %188 = load ptr, ptr %187, align 8
  %189 = invoke noundef ptr %188(ptr noundef nonnull align 8 dereferenceable(8) %179, i64 noundef 232)
          to label %190 unwind label %3788

190:                                              ; preds = %178
  store ptr %189, ptr %181, align 8, !tbaa !69
  %191 = load i32, ptr %182, align 8, !tbaa !65
  %192 = icmp eq i32 %191, 0
  br i1 %192, label %201, label %193

193:                                              ; preds = %190
  %194 = zext i32 %191 to i64
  br label %195

195:                                              ; preds = %195, %193
  %196 = phi i64 [ 0, %193 ], [ %199, %195 ]
  %197 = load ptr, ptr %181, align 8, !tbaa !69
  %198 = getelementptr inbounds ptr, ptr %197, i64 %196
  store ptr null, ptr %198, align 8, !tbaa !70
  %199 = add nuw nsw i64 %196, 1
  %200 = icmp eq i64 %199, %194
  br i1 %200, label %201, label %195

201:                                              ; preds = %195, %190
  %202 = load ptr, ptr %177, align 8, !tbaa !78
  %203 = invoke noundef ptr @_ZN11xercesc_2_57XMemorynwEmPNS_13MemoryManagerE(i64 noundef 8, ptr noundef %202)
          to label %204 unwind label %3788

204:                                              ; preds = %201
  invoke void @_ZN11xercesc_2_59HashXMLChC1Ev(ptr noundef nonnull align 8 dereferenceable(8) %203)
          to label %210 unwind label %205

205:                                              ; preds = %204
  %206 = landingpad { ptr, i32 }
          cleanup
  invoke void @_ZN11xercesc_2_57XMemorydlEPvPNS_13MemoryManagerE(ptr noundef %203, ptr noundef %202)
          to label %3790 unwind label %207

207:                                              ; preds = %205
  %208 = landingpad { ptr, i32 }
          catch ptr null
  %209 = extractvalue { ptr, i32 } %208, 0
  call void @__clang_call_terminate(ptr %209) #10
  unreachable

210:                                              ; preds = %204
  store ptr %203, ptr %185, align 8, !tbaa !79
  store ptr %177, ptr @_ZN11xercesc_2_524DatatypeValidatorFactory16fBuiltInRegistryE, align 8, !tbaa !70
  %211 = invoke noundef ptr @_ZN11xercesc_2_57XMemorynwEm(i64 noundef 128)
          to label %212 unwind label %3792

212:                                              ; preds = %210
  %213 = load ptr, ptr @_ZN11xercesc_2_516XMLPlatformUtils15fgMemoryManagerE, align 8, !tbaa !70
  invoke void @_ZN11xercesc_2_523StringDatatypeValidatorC1EPNS_13MemoryManagerE(ptr noundef nonnull align 8 dereferenceable(128) %211, ptr noundef %213)
          to label %214 unwind label %3794

214:                                              ; preds = %212
  invoke void @_ZN11xercesc_2_517DatatypeValidator11setTypeNameEPKtS2_(ptr noundef nonnull align 8 dereferenceable(103) %211, ptr noundef nonnull @_ZN11xercesc_2_513SchemaSymbols11fgDT_STRINGE, ptr noundef nonnull @_ZN11xercesc_2_513SchemaSymbols21fgURI_SCHEMAFORSCHEMAE)
          to label %215 unwind label %3792

215:                                              ; preds = %214
  %216 = load ptr, ptr @_ZN11xercesc_2_524DatatypeValidatorFactory16fBuiltInRegistryE, align 8, !tbaa !70
  %217 = getelementptr inbounds %"class.xercesc_2_5::RefHashTableOf", ptr %216, i64 0, i32 3
  %218 = load i32, ptr %217, align 8, !tbaa !65
  %219 = mul i32 %218, 3
  %220 = lshr i32 %219, 2
  %221 = getelementptr inbounds %"class.xercesc_2_5::RefHashTableOf", ptr %216, i64 0, i32 5
  %222 = load i32, ptr %221, align 8, !tbaa !77
  %223 = icmp ult i32 %222, %220
  br i1 %223, label %225, label %224

224:                                              ; preds = %215
  invoke void @_ZN11xercesc_2_514RefHashTableOfINS_17DatatypeValidatorEE6rehashEv(ptr noundef nonnull align 8 dereferenceable(48) %216)
          to label %225 unwind label %3792

225:                                              ; preds = %224, %215
  call void @llvm.lifetime.start.p0(i64 4, ptr nonnull %149) #11
  %226 = invoke noundef ptr @_ZN11xercesc_2_514RefHashTableOfINS_17DatatypeValidatorEE14findBucketElemEPKvRj(ptr noundef nonnull align 8 dereferenceable(48) %216, ptr noundef nonnull @_ZN11xercesc_2_513SchemaSymbols11fgDT_STRINGE, ptr noundef nonnull align 4 dereferenceable(4) %149)
          to label %227 unwind label %3792

227:                                              ; preds = %225
  %228 = icmp eq ptr %226, null
  br i1 %228, label %242, label %229

229:                                              ; preds = %227
  %230 = getelementptr inbounds %"class.xercesc_2_5::RefHashTableOf", ptr %216, i64 0, i32 1
  %231 = load i8, ptr %230, align 8, !tbaa !73, !range !74, !noundef !75
  %232 = icmp eq i8 %231, 0
  br i1 %232, label %240, label %233

233:                                              ; preds = %229
  %234 = load ptr, ptr %226, align 8, !tbaa !76
  %235 = icmp eq ptr %234, null
  br i1 %235, label %240, label %236

236:                                              ; preds = %233
  %237 = load ptr, ptr %234, align 8, !tbaa !56
  %238 = getelementptr inbounds ptr, ptr %237, i64 1
  %239 = load ptr, ptr %238, align 8
  invoke void %239(ptr noundef nonnull align 8 dereferenceable(103) %234)
          to label %240 unwind label %3792

240:                                              ; preds = %236, %233, %229
  store ptr %211, ptr %226, align 8, !tbaa !76
  %241 = getelementptr inbounds %"struct.xercesc_2_5::RefHashTableBucketElem", ptr %226, i64 0, i32 2
  store ptr @_ZN11xercesc_2_513SchemaSymbols11fgDT_STRINGE, ptr %241, align 8, !tbaa !85
  br label %254

242:                                              ; preds = %227
  %243 = load ptr, ptr %216, align 8, !tbaa !78
  %244 = invoke noundef ptr @_ZN11xercesc_2_57XMemorynwEmPNS_13MemoryManagerE(i64 noundef 24, ptr noundef %243)
          to label %245 unwind label %3792

245:                                              ; preds = %242
  %246 = getelementptr inbounds %"class.xercesc_2_5::RefHashTableOf", ptr %216, i64 0, i32 2
  %247 = load ptr, ptr %246, align 8, !tbaa !69
  %248 = load i32, ptr %149, align 4, !tbaa !86
  %249 = zext i32 %248 to i64
  %250 = getelementptr inbounds ptr, ptr %247, i64 %249
  %251 = load ptr, ptr %250, align 8, !tbaa !70
  store ptr %211, ptr %244, align 8, !tbaa !76
  %252 = getelementptr inbounds %"struct.xercesc_2_5::RefHashTableBucketElem", ptr %244, i64 0, i32 1
  store ptr %251, ptr %252, align 8, !tbaa !71
  %253 = getelementptr inbounds %"struct.xercesc_2_5::RefHashTableBucketElem", ptr %244, i64 0, i32 2
  store ptr @_ZN11xercesc_2_513SchemaSymbols11fgDT_STRINGE, ptr %253, align 8, !tbaa !85
  store ptr %244, ptr %250, align 8, !tbaa !70
  br label %254

254:                                              ; preds = %245, %240
  %255 = load i32, ptr %221, align 8, !tbaa !77
  %256 = add i32 %255, 1
  store i32 %256, ptr %221, align 8, !tbaa !77
  call void @llvm.lifetime.end.p0(i64 4, ptr nonnull %149) #11
  %257 = invoke noundef ptr @_ZN11xercesc_2_57XMemorynwEm(i64 noundef 128)
          to label %258 unwind label %3792

258:                                              ; preds = %254
  %259 = load ptr, ptr @_ZN11xercesc_2_516XMLPlatformUtils15fgMemoryManagerE, align 8, !tbaa !70
  invoke void @_ZN11xercesc_2_525NOTATIONDatatypeValidatorC1EPNS_13MemoryManagerE(ptr noundef nonnull align 8 dereferenceable(128) %257, ptr noundef %259)
          to label %260 unwind label %3796

260:                                              ; preds = %258
  invoke void @_ZN11xercesc_2_517DatatypeValidator11setTypeNameEPKtS2_(ptr noundef nonnull align 8 dereferenceable(103) %257, ptr noundef nonnull @_ZN11xercesc_2_56XMLUni16fgNotationStringE, ptr noundef nonnull @_ZN11xercesc_2_513SchemaSymbols21fgURI_SCHEMAFORSCHEMAE)
          to label %261 unwind label %3792

261:                                              ; preds = %260
  %262 = load ptr, ptr @_ZN11xercesc_2_524DatatypeValidatorFactory16fBuiltInRegistryE, align 8, !tbaa !70
  %263 = getelementptr inbounds %"class.xercesc_2_5::RefHashTableOf", ptr %262, i64 0, i32 3
  %264 = load i32, ptr %263, align 8, !tbaa !65
  %265 = mul i32 %264, 3
  %266 = lshr i32 %265, 2
  %267 = getelementptr inbounds %"class.xercesc_2_5::RefHashTableOf", ptr %262, i64 0, i32 5
  %268 = load i32, ptr %267, align 8, !tbaa !77
  %269 = icmp ult i32 %268, %266
  br i1 %269, label %271, label %270

270:                                              ; preds = %261
  invoke void @_ZN11xercesc_2_514RefHashTableOfINS_17DatatypeValidatorEE6rehashEv(ptr noundef nonnull align 8 dereferenceable(48) %262)
          to label %271 unwind label %3792

271:                                              ; preds = %270, %261
  call void @llvm.lifetime.start.p0(i64 4, ptr nonnull %148) #11
  %272 = invoke noundef ptr @_ZN11xercesc_2_514RefHashTableOfINS_17DatatypeValidatorEE14findBucketElemEPKvRj(ptr noundef nonnull align 8 dereferenceable(48) %262, ptr noundef nonnull @_ZN11xercesc_2_56XMLUni16fgNotationStringE, ptr noundef nonnull align 4 dereferenceable(4) %148)
          to label %273 unwind label %3792

273:                                              ; preds = %271
  %274 = icmp eq ptr %272, null
  br i1 %274, label %288, label %275

275:                                              ; preds = %273
  %276 = getelementptr inbounds %"class.xercesc_2_5::RefHashTableOf", ptr %262, i64 0, i32 1
  %277 = load i8, ptr %276, align 8, !tbaa !73, !range !74, !noundef !75
  %278 = icmp eq i8 %277, 0
  br i1 %278, label %286, label %279

279:                                              ; preds = %275
  %280 = load ptr, ptr %272, align 8, !tbaa !76
  %281 = icmp eq ptr %280, null
  br i1 %281, label %286, label %282

282:                                              ; preds = %279
  %283 = load ptr, ptr %280, align 8, !tbaa !56
  %284 = getelementptr inbounds ptr, ptr %283, i64 1
  %285 = load ptr, ptr %284, align 8
  invoke void %285(ptr noundef nonnull align 8 dereferenceable(103) %280)
          to label %286 unwind label %3792

286:                                              ; preds = %282, %279, %275
  store ptr %257, ptr %272, align 8, !tbaa !76
  %287 = getelementptr inbounds %"struct.xercesc_2_5::RefHashTableBucketElem", ptr %272, i64 0, i32 2
  store ptr @_ZN11xercesc_2_56XMLUni16fgNotationStringE, ptr %287, align 8, !tbaa !85
  br label %300

288:                                              ; preds = %273
  %289 = load ptr, ptr %262, align 8, !tbaa !78
  %290 = invoke noundef ptr @_ZN11xercesc_2_57XMemorynwEmPNS_13MemoryManagerE(i64 noundef 24, ptr noundef %289)
          to label %291 unwind label %3792

291:                                              ; preds = %288
  %292 = getelementptr inbounds %"class.xercesc_2_5::RefHashTableOf", ptr %262, i64 0, i32 2
  %293 = load ptr, ptr %292, align 8, !tbaa !69
  %294 = load i32, ptr %148, align 4, !tbaa !86
  %295 = zext i32 %294 to i64
  %296 = getelementptr inbounds ptr, ptr %293, i64 %295
  %297 = load ptr, ptr %296, align 8, !tbaa !70
  store ptr %257, ptr %290, align 8, !tbaa !76
  %298 = getelementptr inbounds %"struct.xercesc_2_5::RefHashTableBucketElem", ptr %290, i64 0, i32 1
  store ptr %297, ptr %298, align 8, !tbaa !71
  %299 = getelementptr inbounds %"struct.xercesc_2_5::RefHashTableBucketElem", ptr %290, i64 0, i32 2
  store ptr @_ZN11xercesc_2_56XMLUni16fgNotationStringE, ptr %299, align 8, !tbaa !85
  store ptr %290, ptr %296, align 8, !tbaa !70
  br label %300

300:                                              ; preds = %291, %286
  %301 = load i32, ptr %267, align 8, !tbaa !77
  %302 = add i32 %301, 1
  store i32 %302, ptr %267, align 8, !tbaa !77
  call void @llvm.lifetime.end.p0(i64 4, ptr nonnull %148) #11
  %303 = invoke noundef ptr @_ZN11xercesc_2_57XMemorynwEm(i64 noundef 104)
          to label %304 unwind label %3792

304:                                              ; preds = %300
  %305 = load ptr, ptr @_ZN11xercesc_2_516XMLPlatformUtils15fgMemoryManagerE, align 8, !tbaa !70
  invoke void @_ZN11xercesc_2_530AnySimpleTypeDatatypeValidatorC1EPNS_13MemoryManagerE(ptr noundef nonnull align 8 dereferenceable(103) %303, ptr noundef %305)
          to label %306 unwind label %3798

306:                                              ; preds = %304
  invoke void @_ZN11xercesc_2_517DatatypeValidator11setTypeNameEPKtS2_(ptr noundef nonnull align 8 dereferenceable(103) %303, ptr noundef nonnull @_ZN11xercesc_2_513SchemaSymbols18fgDT_ANYSIMPLETYPEE, ptr noundef nonnull @_ZN11xercesc_2_513SchemaSymbols21fgURI_SCHEMAFORSCHEMAE)
          to label %307 unwind label %3792

307:                                              ; preds = %306
  %308 = load ptr, ptr @_ZN11xercesc_2_524DatatypeValidatorFactory16fBuiltInRegistryE, align 8, !tbaa !70
  %309 = getelementptr inbounds %"class.xercesc_2_5::RefHashTableOf", ptr %308, i64 0, i32 3
  %310 = load i32, ptr %309, align 8, !tbaa !65
  %311 = mul i32 %310, 3
  %312 = lshr i32 %311, 2
  %313 = getelementptr inbounds %"class.xercesc_2_5::RefHashTableOf", ptr %308, i64 0, i32 5
  %314 = load i32, ptr %313, align 8, !tbaa !77
  %315 = icmp ult i32 %314, %312
  br i1 %315, label %317, label %316

316:                                              ; preds = %307
  invoke void @_ZN11xercesc_2_514RefHashTableOfINS_17DatatypeValidatorEE6rehashEv(ptr noundef nonnull align 8 dereferenceable(48) %308)
          to label %317 unwind label %3792

317:                                              ; preds = %316, %307
  call void @llvm.lifetime.start.p0(i64 4, ptr nonnull %147) #11
  %318 = invoke noundef ptr @_ZN11xercesc_2_514RefHashTableOfINS_17DatatypeValidatorEE14findBucketElemEPKvRj(ptr noundef nonnull align 8 dereferenceable(48) %308, ptr noundef nonnull @_ZN11xercesc_2_513SchemaSymbols18fgDT_ANYSIMPLETYPEE, ptr noundef nonnull align 4 dereferenceable(4) %147)
          to label %319 unwind label %3792

319:                                              ; preds = %317
  %320 = icmp eq ptr %318, null
  br i1 %320, label %334, label %321

321:                                              ; preds = %319
  %322 = getelementptr inbounds %"class.xercesc_2_5::RefHashTableOf", ptr %308, i64 0, i32 1
  %323 = load i8, ptr %322, align 8, !tbaa !73, !range !74, !noundef !75
  %324 = icmp eq i8 %323, 0
  br i1 %324, label %332, label %325

325:                                              ; preds = %321
  %326 = load ptr, ptr %318, align 8, !tbaa !76
  %327 = icmp eq ptr %326, null
  br i1 %327, label %332, label %328

328:                                              ; preds = %325
  %329 = load ptr, ptr %326, align 8, !tbaa !56
  %330 = getelementptr inbounds ptr, ptr %329, i64 1
  %331 = load ptr, ptr %330, align 8
  invoke void %331(ptr noundef nonnull align 8 dereferenceable(103) %326)
          to label %332 unwind label %3792

332:                                              ; preds = %328, %325, %321
  store ptr %303, ptr %318, align 8, !tbaa !76
  %333 = getelementptr inbounds %"struct.xercesc_2_5::RefHashTableBucketElem", ptr %318, i64 0, i32 2
  store ptr @_ZN11xercesc_2_513SchemaSymbols18fgDT_ANYSIMPLETYPEE, ptr %333, align 8, !tbaa !85
  br label %346

334:                                              ; preds = %319
  %335 = load ptr, ptr %308, align 8, !tbaa !78
  %336 = invoke noundef ptr @_ZN11xercesc_2_57XMemorynwEmPNS_13MemoryManagerE(i64 noundef 24, ptr noundef %335)
          to label %337 unwind label %3792

337:                                              ; preds = %334
  %338 = getelementptr inbounds %"class.xercesc_2_5::RefHashTableOf", ptr %308, i64 0, i32 2
  %339 = load ptr, ptr %338, align 8, !tbaa !69
  %340 = load i32, ptr %147, align 4, !tbaa !86
  %341 = zext i32 %340 to i64
  %342 = getelementptr inbounds ptr, ptr %339, i64 %341
  %343 = load ptr, ptr %342, align 8, !tbaa !70
  store ptr %303, ptr %336, align 8, !tbaa !76
  %344 = getelementptr inbounds %"struct.xercesc_2_5::RefHashTableBucketElem", ptr %336, i64 0, i32 1
  store ptr %343, ptr %344, align 8, !tbaa !71
  %345 = getelementptr inbounds %"struct.xercesc_2_5::RefHashTableBucketElem", ptr %336, i64 0, i32 2
  store ptr @_ZN11xercesc_2_513SchemaSymbols18fgDT_ANYSIMPLETYPEE, ptr %345, align 8, !tbaa !85
  store ptr %336, ptr %342, align 8, !tbaa !70
  br label %346

346:                                              ; preds = %337, %332
  %347 = load i32, ptr %313, align 8, !tbaa !77
  %348 = add i32 %347, 1
  store i32 %348, ptr %313, align 8, !tbaa !77
  call void @llvm.lifetime.end.p0(i64 4, ptr nonnull %147) #11
  %349 = invoke noundef ptr @_ZN11xercesc_2_57XMemorynwEm(i64 noundef 104)
          to label %350 unwind label %3792

350:                                              ; preds = %346
  %351 = load ptr, ptr @_ZN11xercesc_2_516XMLPlatformUtils15fgMemoryManagerE, align 8, !tbaa !70
  invoke void @_ZN11xercesc_2_517DatatypeValidatorC2EPS0_PNS_14RefHashTableOfINS_12KVStringPairEEEiNS0_13ValidatorTypeEPNS_13MemoryManagerE(ptr noundef nonnull align 8 dereferenceable(103) %349, ptr noundef null, ptr noundef null, i32 noundef 0, i32 noundef 5, ptr noundef %351)
          to label %352 unwind label %3800

352:                                              ; preds = %350
  store ptr getelementptr inbounds ({ [15 x ptr] }, ptr @_ZTVN11xercesc_2_524BooleanDatatypeValidatorE, i64 0, inrange i32 0, i64 2), ptr %349, align 8, !tbaa !56
  %353 = getelementptr inbounds %"class.xercesc_2_5::DatatypeValidator", ptr %349, i64 0, i32 18
  store i8 1, ptr %353, align 4, !tbaa !87
  invoke void @_ZN11xercesc_2_517DatatypeValidator11setTypeNameEPKtS2_(ptr noundef nonnull align 8 dereferenceable(103) %349, ptr noundef nonnull @_ZN11xercesc_2_513SchemaSymbols12fgDT_BOOLEANE, ptr noundef nonnull @_ZN11xercesc_2_513SchemaSymbols21fgURI_SCHEMAFORSCHEMAE)
          to label %354 unwind label %3792

354:                                              ; preds = %352
  %355 = load ptr, ptr @_ZN11xercesc_2_524DatatypeValidatorFactory16fBuiltInRegistryE, align 8, !tbaa !70
  %356 = getelementptr inbounds %"class.xercesc_2_5::RefHashTableOf", ptr %355, i64 0, i32 3
  %357 = load i32, ptr %356, align 8, !tbaa !65
  %358 = mul i32 %357, 3
  %359 = lshr i32 %358, 2
  %360 = getelementptr inbounds %"class.xercesc_2_5::RefHashTableOf", ptr %355, i64 0, i32 5
  %361 = load i32, ptr %360, align 8, !tbaa !77
  %362 = icmp ult i32 %361, %359
  br i1 %362, label %364, label %363

363:                                              ; preds = %354
  invoke void @_ZN11xercesc_2_514RefHashTableOfINS_17DatatypeValidatorEE6rehashEv(ptr noundef nonnull align 8 dereferenceable(48) %355)
          to label %364 unwind label %3792

364:                                              ; preds = %363, %354
  call void @llvm.lifetime.start.p0(i64 4, ptr nonnull %146) #11
  %365 = invoke noundef ptr @_ZN11xercesc_2_514RefHashTableOfINS_17DatatypeValidatorEE14findBucketElemEPKvRj(ptr noundef nonnull align 8 dereferenceable(48) %355, ptr noundef nonnull @_ZN11xercesc_2_513SchemaSymbols12fgDT_BOOLEANE, ptr noundef nonnull align 4 dereferenceable(4) %146)
          to label %366 unwind label %3792

366:                                              ; preds = %364
  %367 = icmp eq ptr %365, null
  br i1 %367, label %381, label %368

368:                                              ; preds = %366
  %369 = getelementptr inbounds %"class.xercesc_2_5::RefHashTableOf", ptr %355, i64 0, i32 1
  %370 = load i8, ptr %369, align 8, !tbaa !73, !range !74, !noundef !75
  %371 = icmp eq i8 %370, 0
  br i1 %371, label %379, label %372

372:                                              ; preds = %368
  %373 = load ptr, ptr %365, align 8, !tbaa !76
  %374 = icmp eq ptr %373, null
  br i1 %374, label %379, label %375

375:                                              ; preds = %372
  %376 = load ptr, ptr %373, align 8, !tbaa !56
  %377 = getelementptr inbounds ptr, ptr %376, i64 1
  %378 = load ptr, ptr %377, align 8
  invoke void %378(ptr noundef nonnull align 8 dereferenceable(103) %373)
          to label %379 unwind label %3792

379:                                              ; preds = %375, %372, %368
  store ptr %349, ptr %365, align 8, !tbaa !76
  %380 = getelementptr inbounds %"struct.xercesc_2_5::RefHashTableBucketElem", ptr %365, i64 0, i32 2
  store ptr @_ZN11xercesc_2_513SchemaSymbols12fgDT_BOOLEANE, ptr %380, align 8, !tbaa !85
  br label %393

381:                                              ; preds = %366
  %382 = load ptr, ptr %355, align 8, !tbaa !78
  %383 = invoke noundef ptr @_ZN11xercesc_2_57XMemorynwEmPNS_13MemoryManagerE(i64 noundef 24, ptr noundef %382)
          to label %384 unwind label %3792

384:                                              ; preds = %381
  %385 = getelementptr inbounds %"class.xercesc_2_5::RefHashTableOf", ptr %355, i64 0, i32 2
  %386 = load ptr, ptr %385, align 8, !tbaa !69
  %387 = load i32, ptr %146, align 4, !tbaa !86
  %388 = zext i32 %387 to i64
  %389 = getelementptr inbounds ptr, ptr %386, i64 %388
  %390 = load ptr, ptr %389, align 8, !tbaa !70
  store ptr %349, ptr %383, align 8, !tbaa !76
  %391 = getelementptr inbounds %"struct.xercesc_2_5::RefHashTableBucketElem", ptr %383, i64 0, i32 1
  store ptr %390, ptr %391, align 8, !tbaa !71
  %392 = getelementptr inbounds %"struct.xercesc_2_5::RefHashTableBucketElem", ptr %383, i64 0, i32 2
  store ptr @_ZN11xercesc_2_513SchemaSymbols12fgDT_BOOLEANE, ptr %392, align 8, !tbaa !85
  store ptr %383, ptr %389, align 8, !tbaa !70
  br label %393

393:                                              ; preds = %384, %379
  %394 = load i32, ptr %360, align 8, !tbaa !77
  %395 = add i32 %394, 1
  store i32 %395, ptr %360, align 8, !tbaa !77
  call void @llvm.lifetime.end.p0(i64 4, ptr nonnull %146) #11
  %396 = invoke noundef ptr @_ZN11xercesc_2_57XMemorynwEm(i64 noundef 168)
          to label %397 unwind label %3792

397:                                              ; preds = %393
  %398 = load ptr, ptr @_ZN11xercesc_2_516XMLPlatformUtils15fgMemoryManagerE, align 8, !tbaa !70
  invoke void @_ZN11xercesc_2_524DecimalDatatypeValidatorC1EPNS_13MemoryManagerE(ptr noundef nonnull align 8 dereferenceable(168) %396, ptr noundef %398)
          to label %399 unwind label %3802

399:                                              ; preds = %397
  invoke void @_ZN11xercesc_2_517DatatypeValidator11setTypeNameEPKtS2_(ptr noundef nonnull align 8 dereferenceable(103) %396, ptr noundef nonnull @_ZN11xercesc_2_513SchemaSymbols12fgDT_DECIMALE, ptr noundef nonnull @_ZN11xercesc_2_513SchemaSymbols21fgURI_SCHEMAFORSCHEMAE)
          to label %400 unwind label %3792

400:                                              ; preds = %399
  %401 = load ptr, ptr @_ZN11xercesc_2_524DatatypeValidatorFactory16fBuiltInRegistryE, align 8, !tbaa !70
  %402 = getelementptr inbounds %"class.xercesc_2_5::RefHashTableOf", ptr %401, i64 0, i32 3
  %403 = load i32, ptr %402, align 8, !tbaa !65
  %404 = mul i32 %403, 3
  %405 = lshr i32 %404, 2
  %406 = getelementptr inbounds %"class.xercesc_2_5::RefHashTableOf", ptr %401, i64 0, i32 5
  %407 = load i32, ptr %406, align 8, !tbaa !77
  %408 = icmp ult i32 %407, %405
  br i1 %408, label %410, label %409

409:                                              ; preds = %400
  invoke void @_ZN11xercesc_2_514RefHashTableOfINS_17DatatypeValidatorEE6rehashEv(ptr noundef nonnull align 8 dereferenceable(48) %401)
          to label %410 unwind label %3792

410:                                              ; preds = %409, %400
  call void @llvm.lifetime.start.p0(i64 4, ptr nonnull %145) #11
  %411 = invoke noundef ptr @_ZN11xercesc_2_514RefHashTableOfINS_17DatatypeValidatorEE14findBucketElemEPKvRj(ptr noundef nonnull align 8 dereferenceable(48) %401, ptr noundef nonnull @_ZN11xercesc_2_513SchemaSymbols12fgDT_DECIMALE, ptr noundef nonnull align 4 dereferenceable(4) %145)
          to label %412 unwind label %3792

412:                                              ; preds = %410
  %413 = icmp eq ptr %411, null
  br i1 %413, label %427, label %414

414:                                              ; preds = %412
  %415 = getelementptr inbounds %"class.xercesc_2_5::RefHashTableOf", ptr %401, i64 0, i32 1
  %416 = load i8, ptr %415, align 8, !tbaa !73, !range !74, !noundef !75
  %417 = icmp eq i8 %416, 0
  br i1 %417, label %425, label %418

418:                                              ; preds = %414
  %419 = load ptr, ptr %411, align 8, !tbaa !76
  %420 = icmp eq ptr %419, null
  br i1 %420, label %425, label %421

421:                                              ; preds = %418
  %422 = load ptr, ptr %419, align 8, !tbaa !56
  %423 = getelementptr inbounds ptr, ptr %422, i64 1
  %424 = load ptr, ptr %423, align 8
  invoke void %424(ptr noundef nonnull align 8 dereferenceable(103) %419)
          to label %425 unwind label %3792

425:                                              ; preds = %421, %418, %414
  store ptr %396, ptr %411, align 8, !tbaa !76
  %426 = getelementptr inbounds %"struct.xercesc_2_5::RefHashTableBucketElem", ptr %411, i64 0, i32 2
  store ptr @_ZN11xercesc_2_513SchemaSymbols12fgDT_DECIMALE, ptr %426, align 8, !tbaa !85
  br label %439

427:                                              ; preds = %412
  %428 = load ptr, ptr %401, align 8, !tbaa !78
  %429 = invoke noundef ptr @_ZN11xercesc_2_57XMemorynwEmPNS_13MemoryManagerE(i64 noundef 24, ptr noundef %428)
          to label %430 unwind label %3792

430:                                              ; preds = %427
  %431 = getelementptr inbounds %"class.xercesc_2_5::RefHashTableOf", ptr %401, i64 0, i32 2
  %432 = load ptr, ptr %431, align 8, !tbaa !69
  %433 = load i32, ptr %145, align 4, !tbaa !86
  %434 = zext i32 %433 to i64
  %435 = getelementptr inbounds ptr, ptr %432, i64 %434
  %436 = load ptr, ptr %435, align 8, !tbaa !70
  store ptr %396, ptr %429, align 8, !tbaa !76
  %437 = getelementptr inbounds %"struct.xercesc_2_5::RefHashTableBucketElem", ptr %429, i64 0, i32 1
  store ptr %436, ptr %437, align 8, !tbaa !71
  %438 = getelementptr inbounds %"struct.xercesc_2_5::RefHashTableBucketElem", ptr %429, i64 0, i32 2
  store ptr @_ZN11xercesc_2_513SchemaSymbols12fgDT_DECIMALE, ptr %438, align 8, !tbaa !85
  store ptr %429, ptr %435, align 8, !tbaa !70
  br label %439

439:                                              ; preds = %430, %425
  %440 = load i32, ptr %406, align 8, !tbaa !77
  %441 = add i32 %440, 1
  store i32 %441, ptr %406, align 8, !tbaa !77
  call void @llvm.lifetime.end.p0(i64 4, ptr nonnull %145) #11
  %442 = invoke noundef ptr @_ZN11xercesc_2_57XMemorynwEm(i64 noundef 128)
          to label %443 unwind label %3792

443:                                              ; preds = %439
  %444 = load ptr, ptr @_ZN11xercesc_2_516XMLPlatformUtils15fgMemoryManagerE, align 8, !tbaa !70
  invoke void @_ZN11xercesc_2_526HexBinaryDatatypeValidatorC1EPNS_13MemoryManagerE(ptr noundef nonnull align 8 dereferenceable(128) %442, ptr noundef %444)
          to label %445 unwind label %3804

445:                                              ; preds = %443
  invoke void @_ZN11xercesc_2_517DatatypeValidator11setTypeNameEPKtS2_(ptr noundef nonnull align 8 dereferenceable(103) %442, ptr noundef nonnull @_ZN11xercesc_2_513SchemaSymbols14fgDT_HEXBINARYE, ptr noundef nonnull @_ZN11xercesc_2_513SchemaSymbols21fgURI_SCHEMAFORSCHEMAE)
          to label %446 unwind label %3792

446:                                              ; preds = %445
  %447 = load ptr, ptr @_ZN11xercesc_2_524DatatypeValidatorFactory16fBuiltInRegistryE, align 8, !tbaa !70
  %448 = getelementptr inbounds %"class.xercesc_2_5::RefHashTableOf", ptr %447, i64 0, i32 3
  %449 = load i32, ptr %448, align 8, !tbaa !65
  %450 = mul i32 %449, 3
  %451 = lshr i32 %450, 2
  %452 = getelementptr inbounds %"class.xercesc_2_5::RefHashTableOf", ptr %447, i64 0, i32 5
  %453 = load i32, ptr %452, align 8, !tbaa !77
  %454 = icmp ult i32 %453, %451
  br i1 %454, label %456, label %455

455:                                              ; preds = %446
  invoke void @_ZN11xercesc_2_514RefHashTableOfINS_17DatatypeValidatorEE6rehashEv(ptr noundef nonnull align 8 dereferenceable(48) %447)
          to label %456 unwind label %3792

456:                                              ; preds = %455, %446
  call void @llvm.lifetime.start.p0(i64 4, ptr nonnull %144) #11
  %457 = invoke noundef ptr @_ZN11xercesc_2_514RefHashTableOfINS_17DatatypeValidatorEE14findBucketElemEPKvRj(ptr noundef nonnull align 8 dereferenceable(48) %447, ptr noundef nonnull @_ZN11xercesc_2_513SchemaSymbols14fgDT_HEXBINARYE, ptr noundef nonnull align 4 dereferenceable(4) %144)
          to label %458 unwind label %3792

458:                                              ; preds = %456
  %459 = icmp eq ptr %457, null
  br i1 %459, label %473, label %460

460:                                              ; preds = %458
  %461 = getelementptr inbounds %"class.xercesc_2_5::RefHashTableOf", ptr %447, i64 0, i32 1
  %462 = load i8, ptr %461, align 8, !tbaa !73, !range !74, !noundef !75
  %463 = icmp eq i8 %462, 0
  br i1 %463, label %471, label %464

464:                                              ; preds = %460
  %465 = load ptr, ptr %457, align 8, !tbaa !76
  %466 = icmp eq ptr %465, null
  br i1 %466, label %471, label %467

467:                                              ; preds = %464
  %468 = load ptr, ptr %465, align 8, !tbaa !56
  %469 = getelementptr inbounds ptr, ptr %468, i64 1
  %470 = load ptr, ptr %469, align 8
  invoke void %470(ptr noundef nonnull align 8 dereferenceable(103) %465)
          to label %471 unwind label %3792

471:                                              ; preds = %467, %464, %460
  store ptr %442, ptr %457, align 8, !tbaa !76
  %472 = getelementptr inbounds %"struct.xercesc_2_5::RefHashTableBucketElem", ptr %457, i64 0, i32 2
  store ptr @_ZN11xercesc_2_513SchemaSymbols14fgDT_HEXBINARYE, ptr %472, align 8, !tbaa !85
  br label %485

473:                                              ; preds = %458
  %474 = load ptr, ptr %447, align 8, !tbaa !78
  %475 = invoke noundef ptr @_ZN11xercesc_2_57XMemorynwEmPNS_13MemoryManagerE(i64 noundef 24, ptr noundef %474)
          to label %476 unwind label %3792

476:                                              ; preds = %473
  %477 = getelementptr inbounds %"class.xercesc_2_5::RefHashTableOf", ptr %447, i64 0, i32 2
  %478 = load ptr, ptr %477, align 8, !tbaa !69
  %479 = load i32, ptr %144, align 4, !tbaa !86
  %480 = zext i32 %479 to i64
  %481 = getelementptr inbounds ptr, ptr %478, i64 %480
  %482 = load ptr, ptr %481, align 8, !tbaa !70
  store ptr %442, ptr %475, align 8, !tbaa !76
  %483 = getelementptr inbounds %"struct.xercesc_2_5::RefHashTableBucketElem", ptr %475, i64 0, i32 1
  store ptr %482, ptr %483, align 8, !tbaa !71
  %484 = getelementptr inbounds %"struct.xercesc_2_5::RefHashTableBucketElem", ptr %475, i64 0, i32 2
  store ptr @_ZN11xercesc_2_513SchemaSymbols14fgDT_HEXBINARYE, ptr %484, align 8, !tbaa !85
  store ptr %475, ptr %481, align 8, !tbaa !70
  br label %485

485:                                              ; preds = %476, %471
  %486 = load i32, ptr %452, align 8, !tbaa !77
  %487 = add i32 %486, 1
  store i32 %487, ptr %452, align 8, !tbaa !77
  call void @llvm.lifetime.end.p0(i64 4, ptr nonnull %144) #11
  %488 = invoke noundef ptr @_ZN11xercesc_2_57XMemorynwEm(i64 noundef 128)
          to label %489 unwind label %3792

489:                                              ; preds = %485
  %490 = load ptr, ptr @_ZN11xercesc_2_516XMLPlatformUtils15fgMemoryManagerE, align 8, !tbaa !70
  invoke void @_ZN11xercesc_2_529Base64BinaryDatatypeValidatorC1EPNS_13MemoryManagerE(ptr noundef nonnull align 8 dereferenceable(128) %488, ptr noundef %490)
          to label %491 unwind label %3806

491:                                              ; preds = %489
  invoke void @_ZN11xercesc_2_517DatatypeValidator11setTypeNameEPKtS2_(ptr noundef nonnull align 8 dereferenceable(103) %488, ptr noundef nonnull @_ZN11xercesc_2_513SchemaSymbols17fgDT_BASE64BINARYE, ptr noundef nonnull @_ZN11xercesc_2_513SchemaSymbols21fgURI_SCHEMAFORSCHEMAE)
          to label %492 unwind label %3792

492:                                              ; preds = %491
  %493 = load ptr, ptr @_ZN11xercesc_2_524DatatypeValidatorFactory16fBuiltInRegistryE, align 8, !tbaa !70
  %494 = getelementptr inbounds %"class.xercesc_2_5::RefHashTableOf", ptr %493, i64 0, i32 3
  %495 = load i32, ptr %494, align 8, !tbaa !65
  %496 = mul i32 %495, 3
  %497 = lshr i32 %496, 2
  %498 = getelementptr inbounds %"class.xercesc_2_5::RefHashTableOf", ptr %493, i64 0, i32 5
  %499 = load i32, ptr %498, align 8, !tbaa !77
  %500 = icmp ult i32 %499, %497
  br i1 %500, label %502, label %501

501:                                              ; preds = %492
  invoke void @_ZN11xercesc_2_514RefHashTableOfINS_17DatatypeValidatorEE6rehashEv(ptr noundef nonnull align 8 dereferenceable(48) %493)
          to label %502 unwind label %3792

502:                                              ; preds = %501, %492
  call void @llvm.lifetime.start.p0(i64 4, ptr nonnull %143) #11
  %503 = invoke noundef ptr @_ZN11xercesc_2_514RefHashTableOfINS_17DatatypeValidatorEE14findBucketElemEPKvRj(ptr noundef nonnull align 8 dereferenceable(48) %493, ptr noundef nonnull @_ZN11xercesc_2_513SchemaSymbols17fgDT_BASE64BINARYE, ptr noundef nonnull align 4 dereferenceable(4) %143)
          to label %504 unwind label %3792

504:                                              ; preds = %502
  %505 = icmp eq ptr %503, null
  br i1 %505, label %519, label %506

506:                                              ; preds = %504
  %507 = getelementptr inbounds %"class.xercesc_2_5::RefHashTableOf", ptr %493, i64 0, i32 1
  %508 = load i8, ptr %507, align 8, !tbaa !73, !range !74, !noundef !75
  %509 = icmp eq i8 %508, 0
  br i1 %509, label %517, label %510

510:                                              ; preds = %506
  %511 = load ptr, ptr %503, align 8, !tbaa !76
  %512 = icmp eq ptr %511, null
  br i1 %512, label %517, label %513

513:                                              ; preds = %510
  %514 = load ptr, ptr %511, align 8, !tbaa !56
  %515 = getelementptr inbounds ptr, ptr %514, i64 1
  %516 = load ptr, ptr %515, align 8
  invoke void %516(ptr noundef nonnull align 8 dereferenceable(103) %511)
          to label %517 unwind label %3792

517:                                              ; preds = %513, %510, %506
  store ptr %488, ptr %503, align 8, !tbaa !76
  %518 = getelementptr inbounds %"struct.xercesc_2_5::RefHashTableBucketElem", ptr %503, i64 0, i32 2
  store ptr @_ZN11xercesc_2_513SchemaSymbols17fgDT_BASE64BINARYE, ptr %518, align 8, !tbaa !85
  br label %531

519:                                              ; preds = %504
  %520 = load ptr, ptr %493, align 8, !tbaa !78
  %521 = invoke noundef ptr @_ZN11xercesc_2_57XMemorynwEmPNS_13MemoryManagerE(i64 noundef 24, ptr noundef %520)
          to label %522 unwind label %3792

522:                                              ; preds = %519
  %523 = getelementptr inbounds %"class.xercesc_2_5::RefHashTableOf", ptr %493, i64 0, i32 2
  %524 = load ptr, ptr %523, align 8, !tbaa !69
  %525 = load i32, ptr %143, align 4, !tbaa !86
  %526 = zext i32 %525 to i64
  %527 = getelementptr inbounds ptr, ptr %524, i64 %526
  %528 = load ptr, ptr %527, align 8, !tbaa !70
  store ptr %488, ptr %521, align 8, !tbaa !76
  %529 = getelementptr inbounds %"struct.xercesc_2_5::RefHashTableBucketElem", ptr %521, i64 0, i32 1
  store ptr %528, ptr %529, align 8, !tbaa !71
  %530 = getelementptr inbounds %"struct.xercesc_2_5::RefHashTableBucketElem", ptr %521, i64 0, i32 2
  store ptr @_ZN11xercesc_2_513SchemaSymbols17fgDT_BASE64BINARYE, ptr %530, align 8, !tbaa !85
  store ptr %521, ptr %527, align 8, !tbaa !70
  br label %531

531:                                              ; preds = %522, %517
  %532 = load i32, ptr %498, align 8, !tbaa !77
  %533 = add i32 %532, 1
  store i32 %533, ptr %498, align 8, !tbaa !77
  call void @llvm.lifetime.end.p0(i64 4, ptr nonnull %143) #11
  %534 = invoke noundef ptr @_ZN11xercesc_2_57XMemorynwEm(i64 noundef 160)
          to label %535 unwind label %3792

535:                                              ; preds = %531
  %536 = load ptr, ptr @_ZN11xercesc_2_516XMLPlatformUtils15fgMemoryManagerE, align 8, !tbaa !70
  invoke void @_ZN11xercesc_2_523DoubleDatatypeValidatorC1EPNS_13MemoryManagerE(ptr noundef nonnull align 8 dereferenceable(160) %534, ptr noundef %536)
          to label %537 unwind label %3808

537:                                              ; preds = %535
  invoke void @_ZN11xercesc_2_517DatatypeValidator11setTypeNameEPKtS2_(ptr noundef nonnull align 8 dereferenceable(103) %534, ptr noundef nonnull @_ZN11xercesc_2_513SchemaSymbols11fgDT_DOUBLEE, ptr noundef nonnull @_ZN11xercesc_2_513SchemaSymbols21fgURI_SCHEMAFORSCHEMAE)
          to label %538 unwind label %3792

538:                                              ; preds = %537
  %539 = load ptr, ptr @_ZN11xercesc_2_524DatatypeValidatorFactory16fBuiltInRegistryE, align 8, !tbaa !70
  %540 = getelementptr inbounds %"class.xercesc_2_5::RefHashTableOf", ptr %539, i64 0, i32 3
  %541 = load i32, ptr %540, align 8, !tbaa !65
  %542 = mul i32 %541, 3
  %543 = lshr i32 %542, 2
  %544 = getelementptr inbounds %"class.xercesc_2_5::RefHashTableOf", ptr %539, i64 0, i32 5
  %545 = load i32, ptr %544, align 8, !tbaa !77
  %546 = icmp ult i32 %545, %543
  br i1 %546, label %548, label %547

547:                                              ; preds = %538
  invoke void @_ZN11xercesc_2_514RefHashTableOfINS_17DatatypeValidatorEE6rehashEv(ptr noundef nonnull align 8 dereferenceable(48) %539)
          to label %548 unwind label %3792

548:                                              ; preds = %547, %538
  call void @llvm.lifetime.start.p0(i64 4, ptr nonnull %142) #11
  %549 = invoke noundef ptr @_ZN11xercesc_2_514RefHashTableOfINS_17DatatypeValidatorEE14findBucketElemEPKvRj(ptr noundef nonnull align 8 dereferenceable(48) %539, ptr noundef nonnull @_ZN11xercesc_2_513SchemaSymbols11fgDT_DOUBLEE, ptr noundef nonnull align 4 dereferenceable(4) %142)
          to label %550 unwind label %3792

550:                                              ; preds = %548
  %551 = icmp eq ptr %549, null
  br i1 %551, label %565, label %552

552:                                              ; preds = %550
  %553 = getelementptr inbounds %"class.xercesc_2_5::RefHashTableOf", ptr %539, i64 0, i32 1
  %554 = load i8, ptr %553, align 8, !tbaa !73, !range !74, !noundef !75
  %555 = icmp eq i8 %554, 0
  br i1 %555, label %563, label %556

556:                                              ; preds = %552
  %557 = load ptr, ptr %549, align 8, !tbaa !76
  %558 = icmp eq ptr %557, null
  br i1 %558, label %563, label %559

559:                                              ; preds = %556
  %560 = load ptr, ptr %557, align 8, !tbaa !56
  %561 = getelementptr inbounds ptr, ptr %560, i64 1
  %562 = load ptr, ptr %561, align 8
  invoke void %562(ptr noundef nonnull align 8 dereferenceable(103) %557)
          to label %563 unwind label %3792

563:                                              ; preds = %559, %556, %552
  store ptr %534, ptr %549, align 8, !tbaa !76
  %564 = getelementptr inbounds %"struct.xercesc_2_5::RefHashTableBucketElem", ptr %549, i64 0, i32 2
  store ptr @_ZN11xercesc_2_513SchemaSymbols11fgDT_DOUBLEE, ptr %564, align 8, !tbaa !85
  br label %577

565:                                              ; preds = %550
  %566 = load ptr, ptr %539, align 8, !tbaa !78
  %567 = invoke noundef ptr @_ZN11xercesc_2_57XMemorynwEmPNS_13MemoryManagerE(i64 noundef 24, ptr noundef %566)
          to label %568 unwind label %3792

568:                                              ; preds = %565
  %569 = getelementptr inbounds %"class.xercesc_2_5::RefHashTableOf", ptr %539, i64 0, i32 2
  %570 = load ptr, ptr %569, align 8, !tbaa !69
  %571 = load i32, ptr %142, align 4, !tbaa !86
  %572 = zext i32 %571 to i64
  %573 = getelementptr inbounds ptr, ptr %570, i64 %572
  %574 = load ptr, ptr %573, align 8, !tbaa !70
  store ptr %534, ptr %567, align 8, !tbaa !76
  %575 = getelementptr inbounds %"struct.xercesc_2_5::RefHashTableBucketElem", ptr %567, i64 0, i32 1
  store ptr %574, ptr %575, align 8, !tbaa !71
  %576 = getelementptr inbounds %"struct.xercesc_2_5::RefHashTableBucketElem", ptr %567, i64 0, i32 2
  store ptr @_ZN11xercesc_2_513SchemaSymbols11fgDT_DOUBLEE, ptr %576, align 8, !tbaa !85
  store ptr %567, ptr %573, align 8, !tbaa !70
  br label %577

577:                                              ; preds = %568, %563
  %578 = load i32, ptr %544, align 8, !tbaa !77
  %579 = add i32 %578, 1
  store i32 %579, ptr %544, align 8, !tbaa !77
  call void @llvm.lifetime.end.p0(i64 4, ptr nonnull %142) #11
  %580 = invoke noundef ptr @_ZN11xercesc_2_57XMemorynwEm(i64 noundef 160)
          to label %581 unwind label %3792

581:                                              ; preds = %577
  %582 = load ptr, ptr @_ZN11xercesc_2_516XMLPlatformUtils15fgMemoryManagerE, align 8, !tbaa !70
  invoke void @_ZN11xercesc_2_522FloatDatatypeValidatorC1EPNS_13MemoryManagerE(ptr noundef nonnull align 8 dereferenceable(160) %580, ptr noundef %582)
          to label %583 unwind label %3810

583:                                              ; preds = %581
  invoke void @_ZN11xercesc_2_517DatatypeValidator11setTypeNameEPKtS2_(ptr noundef nonnull align 8 dereferenceable(103) %580, ptr noundef nonnull @_ZN11xercesc_2_513SchemaSymbols10fgDT_FLOATE, ptr noundef nonnull @_ZN11xercesc_2_513SchemaSymbols21fgURI_SCHEMAFORSCHEMAE)
          to label %584 unwind label %3792

584:                                              ; preds = %583
  %585 = load ptr, ptr @_ZN11xercesc_2_524DatatypeValidatorFactory16fBuiltInRegistryE, align 8, !tbaa !70
  %586 = getelementptr inbounds %"class.xercesc_2_5::RefHashTableOf", ptr %585, i64 0, i32 3
  %587 = load i32, ptr %586, align 8, !tbaa !65
  %588 = mul i32 %587, 3
  %589 = lshr i32 %588, 2
  %590 = getelementptr inbounds %"class.xercesc_2_5::RefHashTableOf", ptr %585, i64 0, i32 5
  %591 = load i32, ptr %590, align 8, !tbaa !77
  %592 = icmp ult i32 %591, %589
  br i1 %592, label %594, label %593

593:                                              ; preds = %584
  invoke void @_ZN11xercesc_2_514RefHashTableOfINS_17DatatypeValidatorEE6rehashEv(ptr noundef nonnull align 8 dereferenceable(48) %585)
          to label %594 unwind label %3792

594:                                              ; preds = %593, %584
  call void @llvm.lifetime.start.p0(i64 4, ptr nonnull %141) #11
  %595 = invoke noundef ptr @_ZN11xercesc_2_514RefHashTableOfINS_17DatatypeValidatorEE14findBucketElemEPKvRj(ptr noundef nonnull align 8 dereferenceable(48) %585, ptr noundef nonnull @_ZN11xercesc_2_513SchemaSymbols10fgDT_FLOATE, ptr noundef nonnull align 4 dereferenceable(4) %141)
          to label %596 unwind label %3792

596:                                              ; preds = %594
  %597 = icmp eq ptr %595, null
  br i1 %597, label %611, label %598

598:                                              ; preds = %596
  %599 = getelementptr inbounds %"class.xercesc_2_5::RefHashTableOf", ptr %585, i64 0, i32 1
  %600 = load i8, ptr %599, align 8, !tbaa !73, !range !74, !noundef !75
  %601 = icmp eq i8 %600, 0
  br i1 %601, label %609, label %602

602:                                              ; preds = %598
  %603 = load ptr, ptr %595, align 8, !tbaa !76
  %604 = icmp eq ptr %603, null
  br i1 %604, label %609, label %605

605:                                              ; preds = %602
  %606 = load ptr, ptr %603, align 8, !tbaa !56
  %607 = getelementptr inbounds ptr, ptr %606, i64 1
  %608 = load ptr, ptr %607, align 8
  invoke void %608(ptr noundef nonnull align 8 dereferenceable(103) %603)
          to label %609 unwind label %3792

609:                                              ; preds = %605, %602, %598
  store ptr %580, ptr %595, align 8, !tbaa !76
  %610 = getelementptr inbounds %"struct.xercesc_2_5::RefHashTableBucketElem", ptr %595, i64 0, i32 2
  store ptr @_ZN11xercesc_2_513SchemaSymbols10fgDT_FLOATE, ptr %610, align 8, !tbaa !85
  br label %623

611:                                              ; preds = %596
  %612 = load ptr, ptr %585, align 8, !tbaa !78
  %613 = invoke noundef ptr @_ZN11xercesc_2_57XMemorynwEmPNS_13MemoryManagerE(i64 noundef 24, ptr noundef %612)
          to label %614 unwind label %3792

614:                                              ; preds = %611
  %615 = getelementptr inbounds %"class.xercesc_2_5::RefHashTableOf", ptr %585, i64 0, i32 2
  %616 = load ptr, ptr %615, align 8, !tbaa !69
  %617 = load i32, ptr %141, align 4, !tbaa !86
  %618 = zext i32 %617 to i64
  %619 = getelementptr inbounds ptr, ptr %616, i64 %618
  %620 = load ptr, ptr %619, align 8, !tbaa !70
  store ptr %580, ptr %613, align 8, !tbaa !76
  %621 = getelementptr inbounds %"struct.xercesc_2_5::RefHashTableBucketElem", ptr %613, i64 0, i32 1
  store ptr %620, ptr %621, align 8, !tbaa !71
  %622 = getelementptr inbounds %"struct.xercesc_2_5::RefHashTableBucketElem", ptr %613, i64 0, i32 2
  store ptr @_ZN11xercesc_2_513SchemaSymbols10fgDT_FLOATE, ptr %622, align 8, !tbaa !85
  store ptr %613, ptr %619, align 8, !tbaa !70
  br label %623

623:                                              ; preds = %614, %609
  %624 = load i32, ptr %590, align 8, !tbaa !77
  %625 = add i32 %624, 1
  store i32 %625, ptr %590, align 8, !tbaa !77
  call void @llvm.lifetime.end.p0(i64 4, ptr nonnull %141) #11
  %626 = invoke noundef ptr @_ZN11xercesc_2_57XMemorynwEm(i64 noundef 128)
          to label %627 unwind label %3792

627:                                              ; preds = %623
  %628 = load ptr, ptr @_ZN11xercesc_2_516XMLPlatformUtils15fgMemoryManagerE, align 8, !tbaa !70
  invoke void @_ZN11xercesc_2_523AnyURIDatatypeValidatorC1EPNS_13MemoryManagerE(ptr noundef nonnull align 8 dereferenceable(128) %626, ptr noundef %628)
          to label %629 unwind label %3812

629:                                              ; preds = %627
  invoke void @_ZN11xercesc_2_517DatatypeValidator11setTypeNameEPKtS2_(ptr noundef nonnull align 8 dereferenceable(103) %626, ptr noundef nonnull @_ZN11xercesc_2_513SchemaSymbols11fgDT_ANYURIE, ptr noundef nonnull @_ZN11xercesc_2_513SchemaSymbols21fgURI_SCHEMAFORSCHEMAE)
          to label %630 unwind label %3792

630:                                              ; preds = %629
  %631 = load ptr, ptr @_ZN11xercesc_2_524DatatypeValidatorFactory16fBuiltInRegistryE, align 8, !tbaa !70
  %632 = getelementptr inbounds %"class.xercesc_2_5::RefHashTableOf", ptr %631, i64 0, i32 3
  %633 = load i32, ptr %632, align 8, !tbaa !65
  %634 = mul i32 %633, 3
  %635 = lshr i32 %634, 2
  %636 = getelementptr inbounds %"class.xercesc_2_5::RefHashTableOf", ptr %631, i64 0, i32 5
  %637 = load i32, ptr %636, align 8, !tbaa !77
  %638 = icmp ult i32 %637, %635
  br i1 %638, label %640, label %639

639:                                              ; preds = %630
  invoke void @_ZN11xercesc_2_514RefHashTableOfINS_17DatatypeValidatorEE6rehashEv(ptr noundef nonnull align 8 dereferenceable(48) %631)
          to label %640 unwind label %3792

640:                                              ; preds = %639, %630
  call void @llvm.lifetime.start.p0(i64 4, ptr nonnull %140) #11
  %641 = invoke noundef ptr @_ZN11xercesc_2_514RefHashTableOfINS_17DatatypeValidatorEE14findBucketElemEPKvRj(ptr noundef nonnull align 8 dereferenceable(48) %631, ptr noundef nonnull @_ZN11xercesc_2_513SchemaSymbols11fgDT_ANYURIE, ptr noundef nonnull align 4 dereferenceable(4) %140)
          to label %642 unwind label %3792

642:                                              ; preds = %640
  %643 = icmp eq ptr %641, null
  br i1 %643, label %657, label %644

644:                                              ; preds = %642
  %645 = getelementptr inbounds %"class.xercesc_2_5::RefHashTableOf", ptr %631, i64 0, i32 1
  %646 = load i8, ptr %645, align 8, !tbaa !73, !range !74, !noundef !75
  %647 = icmp eq i8 %646, 0
  br i1 %647, label %655, label %648

648:                                              ; preds = %644
  %649 = load ptr, ptr %641, align 8, !tbaa !76
  %650 = icmp eq ptr %649, null
  br i1 %650, label %655, label %651

651:                                              ; preds = %648
  %652 = load ptr, ptr %649, align 8, !tbaa !56
  %653 = getelementptr inbounds ptr, ptr %652, i64 1
  %654 = load ptr, ptr %653, align 8
  invoke void %654(ptr noundef nonnull align 8 dereferenceable(103) %649)
          to label %655 unwind label %3792

655:                                              ; preds = %651, %648, %644
  store ptr %626, ptr %641, align 8, !tbaa !76
  %656 = getelementptr inbounds %"struct.xercesc_2_5::RefHashTableBucketElem", ptr %641, i64 0, i32 2
  store ptr @_ZN11xercesc_2_513SchemaSymbols11fgDT_ANYURIE, ptr %656, align 8, !tbaa !85
  br label %669

657:                                              ; preds = %642
  %658 = load ptr, ptr %631, align 8, !tbaa !78
  %659 = invoke noundef ptr @_ZN11xercesc_2_57XMemorynwEmPNS_13MemoryManagerE(i64 noundef 24, ptr noundef %658)
          to label %660 unwind label %3792

660:                                              ; preds = %657
  %661 = getelementptr inbounds %"class.xercesc_2_5::RefHashTableOf", ptr %631, i64 0, i32 2
  %662 = load ptr, ptr %661, align 8, !tbaa !69
  %663 = load i32, ptr %140, align 4, !tbaa !86
  %664 = zext i32 %663 to i64
  %665 = getelementptr inbounds ptr, ptr %662, i64 %664
  %666 = load ptr, ptr %665, align 8, !tbaa !70
  store ptr %626, ptr %659, align 8, !tbaa !76
  %667 = getelementptr inbounds %"struct.xercesc_2_5::RefHashTableBucketElem", ptr %659, i64 0, i32 1
  store ptr %666, ptr %667, align 8, !tbaa !71
  %668 = getelementptr inbounds %"struct.xercesc_2_5::RefHashTableBucketElem", ptr %659, i64 0, i32 2
  store ptr @_ZN11xercesc_2_513SchemaSymbols11fgDT_ANYURIE, ptr %668, align 8, !tbaa !85
  store ptr %659, ptr %665, align 8, !tbaa !70
  br label %669

669:                                              ; preds = %660, %655
  %670 = load i32, ptr %636, align 8, !tbaa !77
  %671 = add i32 %670, 1
  store i32 %671, ptr %636, align 8, !tbaa !77
  call void @llvm.lifetime.end.p0(i64 4, ptr nonnull %140) #11
  %672 = invoke noundef ptr @_ZN11xercesc_2_57XMemorynwEm(i64 noundef 128)
          to label %673 unwind label %3792

673:                                              ; preds = %669
  %674 = load ptr, ptr @_ZN11xercesc_2_516XMLPlatformUtils15fgMemoryManagerE, align 8, !tbaa !70
  invoke void @_ZN11xercesc_2_522QNameDatatypeValidatorC1EPNS_13MemoryManagerE(ptr noundef nonnull align 8 dereferenceable(128) %672, ptr noundef %674)
          to label %675 unwind label %3814

675:                                              ; preds = %673
  invoke void @_ZN11xercesc_2_517DatatypeValidator11setTypeNameEPKtS2_(ptr noundef nonnull align 8 dereferenceable(103) %672, ptr noundef nonnull @_ZN11xercesc_2_513SchemaSymbols10fgDT_QNAMEE, ptr noundef nonnull @_ZN11xercesc_2_513SchemaSymbols21fgURI_SCHEMAFORSCHEMAE)
          to label %676 unwind label %3792

676:                                              ; preds = %675
  %677 = load ptr, ptr @_ZN11xercesc_2_524DatatypeValidatorFactory16fBuiltInRegistryE, align 8, !tbaa !70
  %678 = getelementptr inbounds %"class.xercesc_2_5::RefHashTableOf", ptr %677, i64 0, i32 3
  %679 = load i32, ptr %678, align 8, !tbaa !65
  %680 = mul i32 %679, 3
  %681 = lshr i32 %680, 2
  %682 = getelementptr inbounds %"class.xercesc_2_5::RefHashTableOf", ptr %677, i64 0, i32 5
  %683 = load i32, ptr %682, align 8, !tbaa !77
  %684 = icmp ult i32 %683, %681
  br i1 %684, label %686, label %685

685:                                              ; preds = %676
  invoke void @_ZN11xercesc_2_514RefHashTableOfINS_17DatatypeValidatorEE6rehashEv(ptr noundef nonnull align 8 dereferenceable(48) %677)
          to label %686 unwind label %3792

686:                                              ; preds = %685, %676
  call void @llvm.lifetime.start.p0(i64 4, ptr nonnull %139) #11
  %687 = invoke noundef ptr @_ZN11xercesc_2_514RefHashTableOfINS_17DatatypeValidatorEE14findBucketElemEPKvRj(ptr noundef nonnull align 8 dereferenceable(48) %677, ptr noundef nonnull @_ZN11xercesc_2_513SchemaSymbols10fgDT_QNAMEE, ptr noundef nonnull align 4 dereferenceable(4) %139)
          to label %688 unwind label %3792

688:                                              ; preds = %686
  %689 = icmp eq ptr %687, null
  br i1 %689, label %703, label %690

690:                                              ; preds = %688
  %691 = getelementptr inbounds %"class.xercesc_2_5::RefHashTableOf", ptr %677, i64 0, i32 1
  %692 = load i8, ptr %691, align 8, !tbaa !73, !range !74, !noundef !75
  %693 = icmp eq i8 %692, 0
  br i1 %693, label %701, label %694

694:                                              ; preds = %690
  %695 = load ptr, ptr %687, align 8, !tbaa !76
  %696 = icmp eq ptr %695, null
  br i1 %696, label %701, label %697

697:                                              ; preds = %694
  %698 = load ptr, ptr %695, align 8, !tbaa !56
  %699 = getelementptr inbounds ptr, ptr %698, i64 1
  %700 = load ptr, ptr %699, align 8
  invoke void %700(ptr noundef nonnull align 8 dereferenceable(103) %695)
          to label %701 unwind label %3792

701:                                              ; preds = %697, %694, %690
  store ptr %672, ptr %687, align 8, !tbaa !76
  %702 = getelementptr inbounds %"struct.xercesc_2_5::RefHashTableBucketElem", ptr %687, i64 0, i32 2
  store ptr @_ZN11xercesc_2_513SchemaSymbols10fgDT_QNAMEE, ptr %702, align 8, !tbaa !85
  br label %715

703:                                              ; preds = %688
  %704 = load ptr, ptr %677, align 8, !tbaa !78
  %705 = invoke noundef ptr @_ZN11xercesc_2_57XMemorynwEmPNS_13MemoryManagerE(i64 noundef 24, ptr noundef %704)
          to label %706 unwind label %3792

706:                                              ; preds = %703
  %707 = getelementptr inbounds %"class.xercesc_2_5::RefHashTableOf", ptr %677, i64 0, i32 2
  %708 = load ptr, ptr %707, align 8, !tbaa !69
  %709 = load i32, ptr %139, align 4, !tbaa !86
  %710 = zext i32 %709 to i64
  %711 = getelementptr inbounds ptr, ptr %708, i64 %710
  %712 = load ptr, ptr %711, align 8, !tbaa !70
  store ptr %672, ptr %705, align 8, !tbaa !76
  %713 = getelementptr inbounds %"struct.xercesc_2_5::RefHashTableBucketElem", ptr %705, i64 0, i32 1
  store ptr %712, ptr %713, align 8, !tbaa !71
  %714 = getelementptr inbounds %"struct.xercesc_2_5::RefHashTableBucketElem", ptr %705, i64 0, i32 2
  store ptr @_ZN11xercesc_2_513SchemaSymbols10fgDT_QNAMEE, ptr %714, align 8, !tbaa !85
  store ptr %705, ptr %711, align 8, !tbaa !70
  br label %715

715:                                              ; preds = %706, %701
  %716 = load i32, ptr %682, align 8, !tbaa !77
  %717 = add i32 %716, 1
  store i32 %717, ptr %682, align 8, !tbaa !77
  call void @llvm.lifetime.end.p0(i64 4, ptr nonnull %139) #11
  %718 = invoke noundef ptr @_ZN11xercesc_2_57XMemorynwEm(i64 noundef 160)
          to label %719 unwind label %3792

719:                                              ; preds = %715
  %720 = load ptr, ptr @_ZN11xercesc_2_516XMLPlatformUtils15fgMemoryManagerE, align 8, !tbaa !70
  invoke void @_ZN11xercesc_2_525DateTimeDatatypeValidatorC1EPNS_13MemoryManagerE(ptr noundef nonnull align 8 dereferenceable(160) %718, ptr noundef %720)
          to label %721 unwind label %3816

721:                                              ; preds = %719
  invoke void @_ZN11xercesc_2_517DatatypeValidator11setTypeNameEPKtS2_(ptr noundef nonnull align 8 dereferenceable(103) %718, ptr noundef nonnull @_ZN11xercesc_2_513SchemaSymbols13fgDT_DATETIMEE, ptr noundef nonnull @_ZN11xercesc_2_513SchemaSymbols21fgURI_SCHEMAFORSCHEMAE)
          to label %722 unwind label %3792

722:                                              ; preds = %721
  %723 = load ptr, ptr @_ZN11xercesc_2_524DatatypeValidatorFactory16fBuiltInRegistryE, align 8, !tbaa !70
  %724 = getelementptr inbounds %"class.xercesc_2_5::RefHashTableOf", ptr %723, i64 0, i32 3
  %725 = load i32, ptr %724, align 8, !tbaa !65
  %726 = mul i32 %725, 3
  %727 = lshr i32 %726, 2
  %728 = getelementptr inbounds %"class.xercesc_2_5::RefHashTableOf", ptr %723, i64 0, i32 5
  %729 = load i32, ptr %728, align 8, !tbaa !77
  %730 = icmp ult i32 %729, %727
  br i1 %730, label %732, label %731

731:                                              ; preds = %722
  invoke void @_ZN11xercesc_2_514RefHashTableOfINS_17DatatypeValidatorEE6rehashEv(ptr noundef nonnull align 8 dereferenceable(48) %723)
          to label %732 unwind label %3792

732:                                              ; preds = %731, %722
  call void @llvm.lifetime.start.p0(i64 4, ptr nonnull %138) #11
  %733 = invoke noundef ptr @_ZN11xercesc_2_514RefHashTableOfINS_17DatatypeValidatorEE14findBucketElemEPKvRj(ptr noundef nonnull align 8 dereferenceable(48) %723, ptr noundef nonnull @_ZN11xercesc_2_513SchemaSymbols13fgDT_DATETIMEE, ptr noundef nonnull align 4 dereferenceable(4) %138)
          to label %734 unwind label %3792

734:                                              ; preds = %732
  %735 = icmp eq ptr %733, null
  br i1 %735, label %749, label %736

736:                                              ; preds = %734
  %737 = getelementptr inbounds %"class.xercesc_2_5::RefHashTableOf", ptr %723, i64 0, i32 1
  %738 = load i8, ptr %737, align 8, !tbaa !73, !range !74, !noundef !75
  %739 = icmp eq i8 %738, 0
  br i1 %739, label %747, label %740

740:                                              ; preds = %736
  %741 = load ptr, ptr %733, align 8, !tbaa !76
  %742 = icmp eq ptr %741, null
  br i1 %742, label %747, label %743

743:                                              ; preds = %740
  %744 = load ptr, ptr %741, align 8, !tbaa !56
  %745 = getelementptr inbounds ptr, ptr %744, i64 1
  %746 = load ptr, ptr %745, align 8
  invoke void %746(ptr noundef nonnull align 8 dereferenceable(103) %741)
          to label %747 unwind label %3792

747:                                              ; preds = %743, %740, %736
  store ptr %718, ptr %733, align 8, !tbaa !76
  %748 = getelementptr inbounds %"struct.xercesc_2_5::RefHashTableBucketElem", ptr %733, i64 0, i32 2
  store ptr @_ZN11xercesc_2_513SchemaSymbols13fgDT_DATETIMEE, ptr %748, align 8, !tbaa !85
  br label %761

749:                                              ; preds = %734
  %750 = load ptr, ptr %723, align 8, !tbaa !78
  %751 = invoke noundef ptr @_ZN11xercesc_2_57XMemorynwEmPNS_13MemoryManagerE(i64 noundef 24, ptr noundef %750)
          to label %752 unwind label %3792

752:                                              ; preds = %749
  %753 = getelementptr inbounds %"class.xercesc_2_5::RefHashTableOf", ptr %723, i64 0, i32 2
  %754 = load ptr, ptr %753, align 8, !tbaa !69
  %755 = load i32, ptr %138, align 4, !tbaa !86
  %756 = zext i32 %755 to i64
  %757 = getelementptr inbounds ptr, ptr %754, i64 %756
  %758 = load ptr, ptr %757, align 8, !tbaa !70
  store ptr %718, ptr %751, align 8, !tbaa !76
  %759 = getelementptr inbounds %"struct.xercesc_2_5::RefHashTableBucketElem", ptr %751, i64 0, i32 1
  store ptr %758, ptr %759, align 8, !tbaa !71
  %760 = getelementptr inbounds %"struct.xercesc_2_5::RefHashTableBucketElem", ptr %751, i64 0, i32 2
  store ptr @_ZN11xercesc_2_513SchemaSymbols13fgDT_DATETIMEE, ptr %760, align 8, !tbaa !85
  store ptr %751, ptr %757, align 8, !tbaa !70
  br label %761

761:                                              ; preds = %752, %747
  %762 = load i32, ptr %728, align 8, !tbaa !77
  %763 = add i32 %762, 1
  store i32 %763, ptr %728, align 8, !tbaa !77
  call void @llvm.lifetime.end.p0(i64 4, ptr nonnull %138) #11
  %764 = invoke noundef ptr @_ZN11xercesc_2_57XMemorynwEm(i64 noundef 160)
          to label %765 unwind label %3792

765:                                              ; preds = %761
  %766 = load ptr, ptr @_ZN11xercesc_2_516XMLPlatformUtils15fgMemoryManagerE, align 8, !tbaa !70
  invoke void @_ZN11xercesc_2_521DateDatatypeValidatorC1EPNS_13MemoryManagerE(ptr noundef nonnull align 8 dereferenceable(160) %764, ptr noundef %766)
          to label %767 unwind label %3818

767:                                              ; preds = %765
  invoke void @_ZN11xercesc_2_517DatatypeValidator11setTypeNameEPKtS2_(ptr noundef nonnull align 8 dereferenceable(103) %764, ptr noundef nonnull @_ZN11xercesc_2_513SchemaSymbols9fgDT_DATEE, ptr noundef nonnull @_ZN11xercesc_2_513SchemaSymbols21fgURI_SCHEMAFORSCHEMAE)
          to label %768 unwind label %3792

768:                                              ; preds = %767
  %769 = load ptr, ptr @_ZN11xercesc_2_524DatatypeValidatorFactory16fBuiltInRegistryE, align 8, !tbaa !70
  %770 = getelementptr inbounds %"class.xercesc_2_5::RefHashTableOf", ptr %769, i64 0, i32 3
  %771 = load i32, ptr %770, align 8, !tbaa !65
  %772 = mul i32 %771, 3
  %773 = lshr i32 %772, 2
  %774 = getelementptr inbounds %"class.xercesc_2_5::RefHashTableOf", ptr %769, i64 0, i32 5
  %775 = load i32, ptr %774, align 8, !tbaa !77
  %776 = icmp ult i32 %775, %773
  br i1 %776, label %778, label %777

777:                                              ; preds = %768
  invoke void @_ZN11xercesc_2_514RefHashTableOfINS_17DatatypeValidatorEE6rehashEv(ptr noundef nonnull align 8 dereferenceable(48) %769)
          to label %778 unwind label %3792

778:                                              ; preds = %777, %768
  call void @llvm.lifetime.start.p0(i64 4, ptr nonnull %137) #11
  %779 = invoke noundef ptr @_ZN11xercesc_2_514RefHashTableOfINS_17DatatypeValidatorEE14findBucketElemEPKvRj(ptr noundef nonnull align 8 dereferenceable(48) %769, ptr noundef nonnull @_ZN11xercesc_2_513SchemaSymbols9fgDT_DATEE, ptr noundef nonnull align 4 dereferenceable(4) %137)
          to label %780 unwind label %3792

780:                                              ; preds = %778
  %781 = icmp eq ptr %779, null
  br i1 %781, label %795, label %782

782:                                              ; preds = %780
  %783 = getelementptr inbounds %"class.xercesc_2_5::RefHashTableOf", ptr %769, i64 0, i32 1
  %784 = load i8, ptr %783, align 8, !tbaa !73, !range !74, !noundef !75
  %785 = icmp eq i8 %784, 0
  br i1 %785, label %793, label %786

786:                                              ; preds = %782
  %787 = load ptr, ptr %779, align 8, !tbaa !76
  %788 = icmp eq ptr %787, null
  br i1 %788, label %793, label %789

789:                                              ; preds = %786
  %790 = load ptr, ptr %787, align 8, !tbaa !56
  %791 = getelementptr inbounds ptr, ptr %790, i64 1
  %792 = load ptr, ptr %791, align 8
  invoke void %792(ptr noundef nonnull align 8 dereferenceable(103) %787)
          to label %793 unwind label %3792

793:                                              ; preds = %789, %786, %782
  store ptr %764, ptr %779, align 8, !tbaa !76
  %794 = getelementptr inbounds %"struct.xercesc_2_5::RefHashTableBucketElem", ptr %779, i64 0, i32 2
  store ptr @_ZN11xercesc_2_513SchemaSymbols9fgDT_DATEE, ptr %794, align 8, !tbaa !85
  br label %807

795:                                              ; preds = %780
  %796 = load ptr, ptr %769, align 8, !tbaa !78
  %797 = invoke noundef ptr @_ZN11xercesc_2_57XMemorynwEmPNS_13MemoryManagerE(i64 noundef 24, ptr noundef %796)
          to label %798 unwind label %3792

798:                                              ; preds = %795
  %799 = getelementptr inbounds %"class.xercesc_2_5::RefHashTableOf", ptr %769, i64 0, i32 2
  %800 = load ptr, ptr %799, align 8, !tbaa !69
  %801 = load i32, ptr %137, align 4, !tbaa !86
  %802 = zext i32 %801 to i64
  %803 = getelementptr inbounds ptr, ptr %800, i64 %802
  %804 = load ptr, ptr %803, align 8, !tbaa !70
  store ptr %764, ptr %797, align 8, !tbaa !76
  %805 = getelementptr inbounds %"struct.xercesc_2_5::RefHashTableBucketElem", ptr %797, i64 0, i32 1
  store ptr %804, ptr %805, align 8, !tbaa !71
  %806 = getelementptr inbounds %"struct.xercesc_2_5::RefHashTableBucketElem", ptr %797, i64 0, i32 2
  store ptr @_ZN11xercesc_2_513SchemaSymbols9fgDT_DATEE, ptr %806, align 8, !tbaa !85
  store ptr %797, ptr %803, align 8, !tbaa !70
  br label %807

807:                                              ; preds = %798, %793
  %808 = load i32, ptr %774, align 8, !tbaa !77
  %809 = add i32 %808, 1
  store i32 %809, ptr %774, align 8, !tbaa !77
  call void @llvm.lifetime.end.p0(i64 4, ptr nonnull %137) #11
  %810 = invoke noundef ptr @_ZN11xercesc_2_57XMemorynwEm(i64 noundef 160)
          to label %811 unwind label %3792

811:                                              ; preds = %807
  %812 = load ptr, ptr @_ZN11xercesc_2_516XMLPlatformUtils15fgMemoryManagerE, align 8, !tbaa !70
  invoke void @_ZN11xercesc_2_521TimeDatatypeValidatorC1EPNS_13MemoryManagerE(ptr noundef nonnull align 8 dereferenceable(160) %810, ptr noundef %812)
          to label %813 unwind label %3820

813:                                              ; preds = %811
  invoke void @_ZN11xercesc_2_517DatatypeValidator11setTypeNameEPKtS2_(ptr noundef nonnull align 8 dereferenceable(103) %810, ptr noundef nonnull @_ZN11xercesc_2_513SchemaSymbols9fgDT_TIMEE, ptr noundef nonnull @_ZN11xercesc_2_513SchemaSymbols21fgURI_SCHEMAFORSCHEMAE)
          to label %814 unwind label %3792

814:                                              ; preds = %813
  %815 = load ptr, ptr @_ZN11xercesc_2_524DatatypeValidatorFactory16fBuiltInRegistryE, align 8, !tbaa !70
  %816 = getelementptr inbounds %"class.xercesc_2_5::RefHashTableOf", ptr %815, i64 0, i32 3
  %817 = load i32, ptr %816, align 8, !tbaa !65
  %818 = mul i32 %817, 3
  %819 = lshr i32 %818, 2
  %820 = getelementptr inbounds %"class.xercesc_2_5::RefHashTableOf", ptr %815, i64 0, i32 5
  %821 = load i32, ptr %820, align 8, !tbaa !77
  %822 = icmp ult i32 %821, %819
  br i1 %822, label %824, label %823

823:                                              ; preds = %814
  invoke void @_ZN11xercesc_2_514RefHashTableOfINS_17DatatypeValidatorEE6rehashEv(ptr noundef nonnull align 8 dereferenceable(48) %815)
          to label %824 unwind label %3792

824:                                              ; preds = %823, %814
  call void @llvm.lifetime.start.p0(i64 4, ptr nonnull %136) #11
  %825 = invoke noundef ptr @_ZN11xercesc_2_514RefHashTableOfINS_17DatatypeValidatorEE14findBucketElemEPKvRj(ptr noundef nonnull align 8 dereferenceable(48) %815, ptr noundef nonnull @_ZN11xercesc_2_513SchemaSymbols9fgDT_TIMEE, ptr noundef nonnull align 4 dereferenceable(4) %136)
          to label %826 unwind label %3792

826:                                              ; preds = %824
  %827 = icmp eq ptr %825, null
  br i1 %827, label %841, label %828

828:                                              ; preds = %826
  %829 = getelementptr inbounds %"class.xercesc_2_5::RefHashTableOf", ptr %815, i64 0, i32 1
  %830 = load i8, ptr %829, align 8, !tbaa !73, !range !74, !noundef !75
  %831 = icmp eq i8 %830, 0
  br i1 %831, label %839, label %832

832:                                              ; preds = %828
  %833 = load ptr, ptr %825, align 8, !tbaa !76
  %834 = icmp eq ptr %833, null
  br i1 %834, label %839, label %835

835:                                              ; preds = %832
  %836 = load ptr, ptr %833, align 8, !tbaa !56
  %837 = getelementptr inbounds ptr, ptr %836, i64 1
  %838 = load ptr, ptr %837, align 8
  invoke void %838(ptr noundef nonnull align 8 dereferenceable(103) %833)
          to label %839 unwind label %3792

839:                                              ; preds = %835, %832, %828
  store ptr %810, ptr %825, align 8, !tbaa !76
  %840 = getelementptr inbounds %"struct.xercesc_2_5::RefHashTableBucketElem", ptr %825, i64 0, i32 2
  store ptr @_ZN11xercesc_2_513SchemaSymbols9fgDT_TIMEE, ptr %840, align 8, !tbaa !85
  br label %853

841:                                              ; preds = %826
  %842 = load ptr, ptr %815, align 8, !tbaa !78
  %843 = invoke noundef ptr @_ZN11xercesc_2_57XMemorynwEmPNS_13MemoryManagerE(i64 noundef 24, ptr noundef %842)
          to label %844 unwind label %3792

844:                                              ; preds = %841
  %845 = getelementptr inbounds %"class.xercesc_2_5::RefHashTableOf", ptr %815, i64 0, i32 2
  %846 = load ptr, ptr %845, align 8, !tbaa !69
  %847 = load i32, ptr %136, align 4, !tbaa !86
  %848 = zext i32 %847 to i64
  %849 = getelementptr inbounds ptr, ptr %846, i64 %848
  %850 = load ptr, ptr %849, align 8, !tbaa !70
  store ptr %810, ptr %843, align 8, !tbaa !76
  %851 = getelementptr inbounds %"struct.xercesc_2_5::RefHashTableBucketElem", ptr %843, i64 0, i32 1
  store ptr %850, ptr %851, align 8, !tbaa !71
  %852 = getelementptr inbounds %"struct.xercesc_2_5::RefHashTableBucketElem", ptr %843, i64 0, i32 2
  store ptr @_ZN11xercesc_2_513SchemaSymbols9fgDT_TIMEE, ptr %852, align 8, !tbaa !85
  store ptr %843, ptr %849, align 8, !tbaa !70
  br label %853

853:                                              ; preds = %844, %839
  %854 = load i32, ptr %820, align 8, !tbaa !77
  %855 = add i32 %854, 1
  store i32 %855, ptr %820, align 8, !tbaa !77
  call void @llvm.lifetime.end.p0(i64 4, ptr nonnull %136) #11
  %856 = invoke noundef ptr @_ZN11xercesc_2_57XMemorynwEm(i64 noundef 160)
          to label %857 unwind label %3792

857:                                              ; preds = %853
  %858 = load ptr, ptr @_ZN11xercesc_2_516XMLPlatformUtils15fgMemoryManagerE, align 8, !tbaa !70
  invoke void @_ZN11xercesc_2_520DayDatatypeValidatorC1EPNS_13MemoryManagerE(ptr noundef nonnull align 8 dereferenceable(160) %856, ptr noundef %858)
          to label %859 unwind label %3822

859:                                              ; preds = %857
  invoke void @_ZN11xercesc_2_517DatatypeValidator11setTypeNameEPKtS2_(ptr noundef nonnull align 8 dereferenceable(103) %856, ptr noundef nonnull @_ZN11xercesc_2_513SchemaSymbols8fgDT_DAYE, ptr noundef nonnull @_ZN11xercesc_2_513SchemaSymbols21fgURI_SCHEMAFORSCHEMAE)
          to label %860 unwind label %3792

860:                                              ; preds = %859
  %861 = load ptr, ptr @_ZN11xercesc_2_524DatatypeValidatorFactory16fBuiltInRegistryE, align 8, !tbaa !70
  %862 = getelementptr inbounds %"class.xercesc_2_5::RefHashTableOf", ptr %861, i64 0, i32 3
  %863 = load i32, ptr %862, align 8, !tbaa !65
  %864 = mul i32 %863, 3
  %865 = lshr i32 %864, 2
  %866 = getelementptr inbounds %"class.xercesc_2_5::RefHashTableOf", ptr %861, i64 0, i32 5
  %867 = load i32, ptr %866, align 8, !tbaa !77
  %868 = icmp ult i32 %867, %865
  br i1 %868, label %870, label %869

869:                                              ; preds = %860
  invoke void @_ZN11xercesc_2_514RefHashTableOfINS_17DatatypeValidatorEE6rehashEv(ptr noundef nonnull align 8 dereferenceable(48) %861)
          to label %870 unwind label %3792

870:                                              ; preds = %869, %860
  call void @llvm.lifetime.start.p0(i64 4, ptr nonnull %135) #11
  %871 = invoke noundef ptr @_ZN11xercesc_2_514RefHashTableOfINS_17DatatypeValidatorEE14findBucketElemEPKvRj(ptr noundef nonnull align 8 dereferenceable(48) %861, ptr noundef nonnull @_ZN11xercesc_2_513SchemaSymbols8fgDT_DAYE, ptr noundef nonnull align 4 dereferenceable(4) %135)
          to label %872 unwind label %3792

872:                                              ; preds = %870
  %873 = icmp eq ptr %871, null
  br i1 %873, label %887, label %874

874:                                              ; preds = %872
  %875 = getelementptr inbounds %"class.xercesc_2_5::RefHashTableOf", ptr %861, i64 0, i32 1
  %876 = load i8, ptr %875, align 8, !tbaa !73, !range !74, !noundef !75
  %877 = icmp eq i8 %876, 0
  br i1 %877, label %885, label %878

878:                                              ; preds = %874
  %879 = load ptr, ptr %871, align 8, !tbaa !76
  %880 = icmp eq ptr %879, null
  br i1 %880, label %885, label %881

881:                                              ; preds = %878
  %882 = load ptr, ptr %879, align 8, !tbaa !56
  %883 = getelementptr inbounds ptr, ptr %882, i64 1
  %884 = load ptr, ptr %883, align 8
  invoke void %884(ptr noundef nonnull align 8 dereferenceable(103) %879)
          to label %885 unwind label %3792

885:                                              ; preds = %881, %878, %874
  store ptr %856, ptr %871, align 8, !tbaa !76
  %886 = getelementptr inbounds %"struct.xercesc_2_5::RefHashTableBucketElem", ptr %871, i64 0, i32 2
  store ptr @_ZN11xercesc_2_513SchemaSymbols8fgDT_DAYE, ptr %886, align 8, !tbaa !85
  br label %899

887:                                              ; preds = %872
  %888 = load ptr, ptr %861, align 8, !tbaa !78
  %889 = invoke noundef ptr @_ZN11xercesc_2_57XMemorynwEmPNS_13MemoryManagerE(i64 noundef 24, ptr noundef %888)
          to label %890 unwind label %3792

890:                                              ; preds = %887
  %891 = getelementptr inbounds %"class.xercesc_2_5::RefHashTableOf", ptr %861, i64 0, i32 2
  %892 = load ptr, ptr %891, align 8, !tbaa !69
  %893 = load i32, ptr %135, align 4, !tbaa !86
  %894 = zext i32 %893 to i64
  %895 = getelementptr inbounds ptr, ptr %892, i64 %894
  %896 = load ptr, ptr %895, align 8, !tbaa !70
  store ptr %856, ptr %889, align 8, !tbaa !76
  %897 = getelementptr inbounds %"struct.xercesc_2_5::RefHashTableBucketElem", ptr %889, i64 0, i32 1
  store ptr %896, ptr %897, align 8, !tbaa !71
  %898 = getelementptr inbounds %"struct.xercesc_2_5::RefHashTableBucketElem", ptr %889, i64 0, i32 2
  store ptr @_ZN11xercesc_2_513SchemaSymbols8fgDT_DAYE, ptr %898, align 8, !tbaa !85
  store ptr %889, ptr %895, align 8, !tbaa !70
  br label %899

899:                                              ; preds = %890, %885
  %900 = load i32, ptr %866, align 8, !tbaa !77
  %901 = add i32 %900, 1
  store i32 %901, ptr %866, align 8, !tbaa !77
  call void @llvm.lifetime.end.p0(i64 4, ptr nonnull %135) #11
  %902 = invoke noundef ptr @_ZN11xercesc_2_57XMemorynwEm(i64 noundef 160)
          to label %903 unwind label %3792

903:                                              ; preds = %899
  %904 = load ptr, ptr @_ZN11xercesc_2_516XMLPlatformUtils15fgMemoryManagerE, align 8, !tbaa !70
  invoke void @_ZN11xercesc_2_522MonthDatatypeValidatorC1EPNS_13MemoryManagerE(ptr noundef nonnull align 8 dereferenceable(160) %902, ptr noundef %904)
          to label %905 unwind label %3824

905:                                              ; preds = %903
  invoke void @_ZN11xercesc_2_517DatatypeValidator11setTypeNameEPKtS2_(ptr noundef nonnull align 8 dereferenceable(103) %902, ptr noundef nonnull @_ZN11xercesc_2_513SchemaSymbols10fgDT_MONTHE, ptr noundef nonnull @_ZN11xercesc_2_513SchemaSymbols21fgURI_SCHEMAFORSCHEMAE)
          to label %906 unwind label %3792

906:                                              ; preds = %905
  %907 = load ptr, ptr @_ZN11xercesc_2_524DatatypeValidatorFactory16fBuiltInRegistryE, align 8, !tbaa !70
  %908 = getelementptr inbounds %"class.xercesc_2_5::RefHashTableOf", ptr %907, i64 0, i32 3
  %909 = load i32, ptr %908, align 8, !tbaa !65
  %910 = mul i32 %909, 3
  %911 = lshr i32 %910, 2
  %912 = getelementptr inbounds %"class.xercesc_2_5::RefHashTableOf", ptr %907, i64 0, i32 5
  %913 = load i32, ptr %912, align 8, !tbaa !77
  %914 = icmp ult i32 %913, %911
  br i1 %914, label %916, label %915

915:                                              ; preds = %906
  invoke void @_ZN11xercesc_2_514RefHashTableOfINS_17DatatypeValidatorEE6rehashEv(ptr noundef nonnull align 8 dereferenceable(48) %907)
          to label %916 unwind label %3792

916:                                              ; preds = %915, %906
  call void @llvm.lifetime.start.p0(i64 4, ptr nonnull %134) #11
  %917 = invoke noundef ptr @_ZN11xercesc_2_514RefHashTableOfINS_17DatatypeValidatorEE14findBucketElemEPKvRj(ptr noundef nonnull align 8 dereferenceable(48) %907, ptr noundef nonnull @_ZN11xercesc_2_513SchemaSymbols10fgDT_MONTHE, ptr noundef nonnull align 4 dereferenceable(4) %134)
          to label %918 unwind label %3792

918:                                              ; preds = %916
  %919 = icmp eq ptr %917, null
  br i1 %919, label %933, label %920

920:                                              ; preds = %918
  %921 = getelementptr inbounds %"class.xercesc_2_5::RefHashTableOf", ptr %907, i64 0, i32 1
  %922 = load i8, ptr %921, align 8, !tbaa !73, !range !74, !noundef !75
  %923 = icmp eq i8 %922, 0
  br i1 %923, label %931, label %924

924:                                              ; preds = %920
  %925 = load ptr, ptr %917, align 8, !tbaa !76
  %926 = icmp eq ptr %925, null
  br i1 %926, label %931, label %927

927:                                              ; preds = %924
  %928 = load ptr, ptr %925, align 8, !tbaa !56
  %929 = getelementptr inbounds ptr, ptr %928, i64 1
  %930 = load ptr, ptr %929, align 8
  invoke void %930(ptr noundef nonnull align 8 dereferenceable(103) %925)
          to label %931 unwind label %3792

931:                                              ; preds = %927, %924, %920
  store ptr %902, ptr %917, align 8, !tbaa !76
  %932 = getelementptr inbounds %"struct.xercesc_2_5::RefHashTableBucketElem", ptr %917, i64 0, i32 2
  store ptr @_ZN11xercesc_2_513SchemaSymbols10fgDT_MONTHE, ptr %932, align 8, !tbaa !85
  br label %945

933:                                              ; preds = %918
  %934 = load ptr, ptr %907, align 8, !tbaa !78
  %935 = invoke noundef ptr @_ZN11xercesc_2_57XMemorynwEmPNS_13MemoryManagerE(i64 noundef 24, ptr noundef %934)
          to label %936 unwind label %3792

936:                                              ; preds = %933
  %937 = getelementptr inbounds %"class.xercesc_2_5::RefHashTableOf", ptr %907, i64 0, i32 2
  %938 = load ptr, ptr %937, align 8, !tbaa !69
  %939 = load i32, ptr %134, align 4, !tbaa !86
  %940 = zext i32 %939 to i64
  %941 = getelementptr inbounds ptr, ptr %938, i64 %940
  %942 = load ptr, ptr %941, align 8, !tbaa !70
  store ptr %902, ptr %935, align 8, !tbaa !76
  %943 = getelementptr inbounds %"struct.xercesc_2_5::RefHashTableBucketElem", ptr %935, i64 0, i32 1
  store ptr %942, ptr %943, align 8, !tbaa !71
  %944 = getelementptr inbounds %"struct.xercesc_2_5::RefHashTableBucketElem", ptr %935, i64 0, i32 2
  store ptr @_ZN11xercesc_2_513SchemaSymbols10fgDT_MONTHE, ptr %944, align 8, !tbaa !85
  store ptr %935, ptr %941, align 8, !tbaa !70
  br label %945

945:                                              ; preds = %936, %931
  %946 = load i32, ptr %912, align 8, !tbaa !77
  %947 = add i32 %946, 1
  store i32 %947, ptr %912, align 8, !tbaa !77
  call void @llvm.lifetime.end.p0(i64 4, ptr nonnull %134) #11
  %948 = invoke noundef ptr @_ZN11xercesc_2_57XMemorynwEm(i64 noundef 160)
          to label %949 unwind label %3792

949:                                              ; preds = %945
  %950 = load ptr, ptr @_ZN11xercesc_2_516XMLPlatformUtils15fgMemoryManagerE, align 8, !tbaa !70
  invoke void @_ZN11xercesc_2_525MonthDayDatatypeValidatorC1EPNS_13MemoryManagerE(ptr noundef nonnull align 8 dereferenceable(160) %948, ptr noundef %950)
          to label %951 unwind label %3826

951:                                              ; preds = %949
  invoke void @_ZN11xercesc_2_517DatatypeValidator11setTypeNameEPKtS2_(ptr noundef nonnull align 8 dereferenceable(103) %948, ptr noundef nonnull @_ZN11xercesc_2_513SchemaSymbols13fgDT_MONTHDAYE, ptr noundef nonnull @_ZN11xercesc_2_513SchemaSymbols21fgURI_SCHEMAFORSCHEMAE)
          to label %952 unwind label %3792

952:                                              ; preds = %951
  %953 = load ptr, ptr @_ZN11xercesc_2_524DatatypeValidatorFactory16fBuiltInRegistryE, align 8, !tbaa !70
  %954 = getelementptr inbounds %"class.xercesc_2_5::RefHashTableOf", ptr %953, i64 0, i32 3
  %955 = load i32, ptr %954, align 8, !tbaa !65
  %956 = mul i32 %955, 3
  %957 = lshr i32 %956, 2
  %958 = getelementptr inbounds %"class.xercesc_2_5::RefHashTableOf", ptr %953, i64 0, i32 5
  %959 = load i32, ptr %958, align 8, !tbaa !77
  %960 = icmp ult i32 %959, %957
  br i1 %960, label %962, label %961

961:                                              ; preds = %952
  invoke void @_ZN11xercesc_2_514RefHashTableOfINS_17DatatypeValidatorEE6rehashEv(ptr noundef nonnull align 8 dereferenceable(48) %953)
          to label %962 unwind label %3792

962:                                              ; preds = %961, %952
  call void @llvm.lifetime.start.p0(i64 4, ptr nonnull %133) #11
  %963 = invoke noundef ptr @_ZN11xercesc_2_514RefHashTableOfINS_17DatatypeValidatorEE14findBucketElemEPKvRj(ptr noundef nonnull align 8 dereferenceable(48) %953, ptr noundef nonnull @_ZN11xercesc_2_513SchemaSymbols13fgDT_MONTHDAYE, ptr noundef nonnull align 4 dereferenceable(4) %133)
          to label %964 unwind label %3792

964:                                              ; preds = %962
  %965 = icmp eq ptr %963, null
  br i1 %965, label %979, label %966

966:                                              ; preds = %964
  %967 = getelementptr inbounds %"class.xercesc_2_5::RefHashTableOf", ptr %953, i64 0, i32 1
  %968 = load i8, ptr %967, align 8, !tbaa !73, !range !74, !noundef !75
  %969 = icmp eq i8 %968, 0
  br i1 %969, label %977, label %970

970:                                              ; preds = %966
  %971 = load ptr, ptr %963, align 8, !tbaa !76
  %972 = icmp eq ptr %971, null
  br i1 %972, label %977, label %973

973:                                              ; preds = %970
  %974 = load ptr, ptr %971, align 8, !tbaa !56
  %975 = getelementptr inbounds ptr, ptr %974, i64 1
  %976 = load ptr, ptr %975, align 8
  invoke void %976(ptr noundef nonnull align 8 dereferenceable(103) %971)
          to label %977 unwind label %3792

977:                                              ; preds = %973, %970, %966
  store ptr %948, ptr %963, align 8, !tbaa !76
  %978 = getelementptr inbounds %"struct.xercesc_2_5::RefHashTableBucketElem", ptr %963, i64 0, i32 2
  store ptr @_ZN11xercesc_2_513SchemaSymbols13fgDT_MONTHDAYE, ptr %978, align 8, !tbaa !85
  br label %991

979:                                              ; preds = %964
  %980 = load ptr, ptr %953, align 8, !tbaa !78
  %981 = invoke noundef ptr @_ZN11xercesc_2_57XMemorynwEmPNS_13MemoryManagerE(i64 noundef 24, ptr noundef %980)
          to label %982 unwind label %3792

982:                                              ; preds = %979
  %983 = getelementptr inbounds %"class.xercesc_2_5::RefHashTableOf", ptr %953, i64 0, i32 2
  %984 = load ptr, ptr %983, align 8, !tbaa !69
  %985 = load i32, ptr %133, align 4, !tbaa !86
  %986 = zext i32 %985 to i64
  %987 = getelementptr inbounds ptr, ptr %984, i64 %986
  %988 = load ptr, ptr %987, align 8, !tbaa !70
  store ptr %948, ptr %981, align 8, !tbaa !76
  %989 = getelementptr inbounds %"struct.xercesc_2_5::RefHashTableBucketElem", ptr %981, i64 0, i32 1
  store ptr %988, ptr %989, align 8, !tbaa !71
  %990 = getelementptr inbounds %"struct.xercesc_2_5::RefHashTableBucketElem", ptr %981, i64 0, i32 2
  store ptr @_ZN11xercesc_2_513SchemaSymbols13fgDT_MONTHDAYE, ptr %990, align 8, !tbaa !85
  store ptr %981, ptr %987, align 8, !tbaa !70
  br label %991

991:                                              ; preds = %982, %977
  %992 = load i32, ptr %958, align 8, !tbaa !77
  %993 = add i32 %992, 1
  store i32 %993, ptr %958, align 8, !tbaa !77
  call void @llvm.lifetime.end.p0(i64 4, ptr nonnull %133) #11
  %994 = invoke noundef ptr @_ZN11xercesc_2_57XMemorynwEm(i64 noundef 160)
          to label %995 unwind label %3792

995:                                              ; preds = %991
  %996 = load ptr, ptr @_ZN11xercesc_2_516XMLPlatformUtils15fgMemoryManagerE, align 8, !tbaa !70
  invoke void @_ZN11xercesc_2_521YearDatatypeValidatorC1EPNS_13MemoryManagerE(ptr noundef nonnull align 8 dereferenceable(160) %994, ptr noundef %996)
          to label %997 unwind label %3828

997:                                              ; preds = %995
  invoke void @_ZN11xercesc_2_517DatatypeValidator11setTypeNameEPKtS2_(ptr noundef nonnull align 8 dereferenceable(103) %994, ptr noundef nonnull @_ZN11xercesc_2_513SchemaSymbols9fgDT_YEARE, ptr noundef nonnull @_ZN11xercesc_2_513SchemaSymbols21fgURI_SCHEMAFORSCHEMAE)
          to label %998 unwind label %3792

998:                                              ; preds = %997
  %999 = load ptr, ptr @_ZN11xercesc_2_524DatatypeValidatorFactory16fBuiltInRegistryE, align 8, !tbaa !70
  %1000 = getelementptr inbounds %"class.xercesc_2_5::RefHashTableOf", ptr %999, i64 0, i32 3
  %1001 = load i32, ptr %1000, align 8, !tbaa !65
  %1002 = mul i32 %1001, 3
  %1003 = lshr i32 %1002, 2
  %1004 = getelementptr inbounds %"class.xercesc_2_5::RefHashTableOf", ptr %999, i64 0, i32 5
  %1005 = load i32, ptr %1004, align 8, !tbaa !77
  %1006 = icmp ult i32 %1005, %1003
  br i1 %1006, label %1008, label %1007

1007:                                             ; preds = %998
  invoke void @_ZN11xercesc_2_514RefHashTableOfINS_17DatatypeValidatorEE6rehashEv(ptr noundef nonnull align 8 dereferenceable(48) %999)
          to label %1008 unwind label %3792

1008:                                             ; preds = %1007, %998
  call void @llvm.lifetime.start.p0(i64 4, ptr nonnull %132) #11
  %1009 = invoke noundef ptr @_ZN11xercesc_2_514RefHashTableOfINS_17DatatypeValidatorEE14findBucketElemEPKvRj(ptr noundef nonnull align 8 dereferenceable(48) %999, ptr noundef nonnull @_ZN11xercesc_2_513SchemaSymbols9fgDT_YEARE, ptr noundef nonnull align 4 dereferenceable(4) %132)
          to label %1010 unwind label %3792

1010:                                             ; preds = %1008
  %1011 = icmp eq ptr %1009, null
  br i1 %1011, label %1025, label %1012

1012:                                             ; preds = %1010
  %1013 = getelementptr inbounds %"class.xercesc_2_5::RefHashTableOf", ptr %999, i64 0, i32 1
  %1014 = load i8, ptr %1013, align 8, !tbaa !73, !range !74, !noundef !75
  %1015 = icmp eq i8 %1014, 0
  br i1 %1015, label %1023, label %1016

1016:                                             ; preds = %1012
  %1017 = load ptr, ptr %1009, align 8, !tbaa !76
  %1018 = icmp eq ptr %1017, null
  br i1 %1018, label %1023, label %1019

1019:                                             ; preds = %1016
  %1020 = load ptr, ptr %1017, align 8, !tbaa !56
  %1021 = getelementptr inbounds ptr, ptr %1020, i64 1
  %1022 = load ptr, ptr %1021, align 8
  invoke void %1022(ptr noundef nonnull align 8 dereferenceable(103) %1017)
          to label %1023 unwind label %3792

1023:                                             ; preds = %1019, %1016, %1012
  store ptr %994, ptr %1009, align 8, !tbaa !76
  %1024 = getelementptr inbounds %"struct.xercesc_2_5::RefHashTableBucketElem", ptr %1009, i64 0, i32 2
  store ptr @_ZN11xercesc_2_513SchemaSymbols9fgDT_YEARE, ptr %1024, align 8, !tbaa !85
  br label %1037

1025:                                             ; preds = %1010
  %1026 = load ptr, ptr %999, align 8, !tbaa !78
  %1027 = invoke noundef ptr @_ZN11xercesc_2_57XMemorynwEmPNS_13MemoryManagerE(i64 noundef 24, ptr noundef %1026)
          to label %1028 unwind label %3792

1028:                                             ; preds = %1025
  %1029 = getelementptr inbounds %"class.xercesc_2_5::RefHashTableOf", ptr %999, i64 0, i32 2
  %1030 = load ptr, ptr %1029, align 8, !tbaa !69
  %1031 = load i32, ptr %132, align 4, !tbaa !86
  %1032 = zext i32 %1031 to i64
  %1033 = getelementptr inbounds ptr, ptr %1030, i64 %1032
  %1034 = load ptr, ptr %1033, align 8, !tbaa !70
  store ptr %994, ptr %1027, align 8, !tbaa !76
  %1035 = getelementptr inbounds %"struct.xercesc_2_5::RefHashTableBucketElem", ptr %1027, i64 0, i32 1
  store ptr %1034, ptr %1035, align 8, !tbaa !71
  %1036 = getelementptr inbounds %"struct.xercesc_2_5::RefHashTableBucketElem", ptr %1027, i64 0, i32 2
  store ptr @_ZN11xercesc_2_513SchemaSymbols9fgDT_YEARE, ptr %1036, align 8, !tbaa !85
  store ptr %1027, ptr %1033, align 8, !tbaa !70
  br label %1037

1037:                                             ; preds = %1028, %1023
  %1038 = load i32, ptr %1004, align 8, !tbaa !77
  %1039 = add i32 %1038, 1
  store i32 %1039, ptr %1004, align 8, !tbaa !77
  call void @llvm.lifetime.end.p0(i64 4, ptr nonnull %132) #11
  %1040 = invoke noundef ptr @_ZN11xercesc_2_57XMemorynwEm(i64 noundef 160)
          to label %1041 unwind label %3792

1041:                                             ; preds = %1037
  %1042 = load ptr, ptr @_ZN11xercesc_2_516XMLPlatformUtils15fgMemoryManagerE, align 8, !tbaa !70
  invoke void @_ZN11xercesc_2_526YearMonthDatatypeValidatorC1EPNS_13MemoryManagerE(ptr noundef nonnull align 8 dereferenceable(160) %1040, ptr noundef %1042)
          to label %1043 unwind label %3830

1043:                                             ; preds = %1041
  invoke void @_ZN11xercesc_2_517DatatypeValidator11setTypeNameEPKtS2_(ptr noundef nonnull align 8 dereferenceable(103) %1040, ptr noundef nonnull @_ZN11xercesc_2_513SchemaSymbols14fgDT_YEARMONTHE, ptr noundef nonnull @_ZN11xercesc_2_513SchemaSymbols21fgURI_SCHEMAFORSCHEMAE)
          to label %1044 unwind label %3792

1044:                                             ; preds = %1043
  %1045 = load ptr, ptr @_ZN11xercesc_2_524DatatypeValidatorFactory16fBuiltInRegistryE, align 8, !tbaa !70
  %1046 = getelementptr inbounds %"class.xercesc_2_5::RefHashTableOf", ptr %1045, i64 0, i32 3
  %1047 = load i32, ptr %1046, align 8, !tbaa !65
  %1048 = mul i32 %1047, 3
  %1049 = lshr i32 %1048, 2
  %1050 = getelementptr inbounds %"class.xercesc_2_5::RefHashTableOf", ptr %1045, i64 0, i32 5
  %1051 = load i32, ptr %1050, align 8, !tbaa !77
  %1052 = icmp ult i32 %1051, %1049
  br i1 %1052, label %1054, label %1053

1053:                                             ; preds = %1044
  invoke void @_ZN11xercesc_2_514RefHashTableOfINS_17DatatypeValidatorEE6rehashEv(ptr noundef nonnull align 8 dereferenceable(48) %1045)
          to label %1054 unwind label %3792

1054:                                             ; preds = %1053, %1044
  call void @llvm.lifetime.start.p0(i64 4, ptr nonnull %131) #11
  %1055 = invoke noundef ptr @_ZN11xercesc_2_514RefHashTableOfINS_17DatatypeValidatorEE14findBucketElemEPKvRj(ptr noundef nonnull align 8 dereferenceable(48) %1045, ptr noundef nonnull @_ZN11xercesc_2_513SchemaSymbols14fgDT_YEARMONTHE, ptr noundef nonnull align 4 dereferenceable(4) %131)
          to label %1056 unwind label %3792

1056:                                             ; preds = %1054
  %1057 = icmp eq ptr %1055, null
  br i1 %1057, label %1071, label %1058

1058:                                             ; preds = %1056
  %1059 = getelementptr inbounds %"class.xercesc_2_5::RefHashTableOf", ptr %1045, i64 0, i32 1
  %1060 = load i8, ptr %1059, align 8, !tbaa !73, !range !74, !noundef !75
  %1061 = icmp eq i8 %1060, 0
  br i1 %1061, label %1069, label %1062

1062:                                             ; preds = %1058
  %1063 = load ptr, ptr %1055, align 8, !tbaa !76
  %1064 = icmp eq ptr %1063, null
  br i1 %1064, label %1069, label %1065

1065:                                             ; preds = %1062
  %1066 = load ptr, ptr %1063, align 8, !tbaa !56
  %1067 = getelementptr inbounds ptr, ptr %1066, i64 1
  %1068 = load ptr, ptr %1067, align 8
  invoke void %1068(ptr noundef nonnull align 8 dereferenceable(103) %1063)
          to label %1069 unwind label %3792

1069:                                             ; preds = %1065, %1062, %1058
  store ptr %1040, ptr %1055, align 8, !tbaa !76
  %1070 = getelementptr inbounds %"struct.xercesc_2_5::RefHashTableBucketElem", ptr %1055, i64 0, i32 2
  store ptr @_ZN11xercesc_2_513SchemaSymbols14fgDT_YEARMONTHE, ptr %1070, align 8, !tbaa !85
  br label %1083

1071:                                             ; preds = %1056
  %1072 = load ptr, ptr %1045, align 8, !tbaa !78
  %1073 = invoke noundef ptr @_ZN11xercesc_2_57XMemorynwEmPNS_13MemoryManagerE(i64 noundef 24, ptr noundef %1072)
          to label %1074 unwind label %3792

1074:                                             ; preds = %1071
  %1075 = getelementptr inbounds %"class.xercesc_2_5::RefHashTableOf", ptr %1045, i64 0, i32 2
  %1076 = load ptr, ptr %1075, align 8, !tbaa !69
  %1077 = load i32, ptr %131, align 4, !tbaa !86
  %1078 = zext i32 %1077 to i64
  %1079 = getelementptr inbounds ptr, ptr %1076, i64 %1078
  %1080 = load ptr, ptr %1079, align 8, !tbaa !70
  store ptr %1040, ptr %1073, align 8, !tbaa !76
  %1081 = getelementptr inbounds %"struct.xercesc_2_5::RefHashTableBucketElem", ptr %1073, i64 0, i32 1
  store ptr %1080, ptr %1081, align 8, !tbaa !71
  %1082 = getelementptr inbounds %"struct.xercesc_2_5::RefHashTableBucketElem", ptr %1073, i64 0, i32 2
  store ptr @_ZN11xercesc_2_513SchemaSymbols14fgDT_YEARMONTHE, ptr %1082, align 8, !tbaa !85
  store ptr %1073, ptr %1079, align 8, !tbaa !70
  br label %1083

1083:                                             ; preds = %1074, %1069
  %1084 = load i32, ptr %1050, align 8, !tbaa !77
  %1085 = add i32 %1084, 1
  store i32 %1085, ptr %1050, align 8, !tbaa !77
  call void @llvm.lifetime.end.p0(i64 4, ptr nonnull %131) #11
  %1086 = invoke noundef ptr @_ZN11xercesc_2_57XMemorynwEm(i64 noundef 160)
          to label %1087 unwind label %3792

1087:                                             ; preds = %1083
  %1088 = load ptr, ptr @_ZN11xercesc_2_516XMLPlatformUtils15fgMemoryManagerE, align 8, !tbaa !70
  invoke void @_ZN11xercesc_2_525DurationDatatypeValidatorC1EPNS_13MemoryManagerE(ptr noundef nonnull align 8 dereferenceable(160) %1086, ptr noundef %1088)
          to label %1089 unwind label %3832

1089:                                             ; preds = %1087
  invoke void @_ZN11xercesc_2_517DatatypeValidator11setTypeNameEPKtS2_(ptr noundef nonnull align 8 dereferenceable(103) %1086, ptr noundef nonnull @_ZN11xercesc_2_513SchemaSymbols13fgDT_DURATIONE, ptr noundef nonnull @_ZN11xercesc_2_513SchemaSymbols21fgURI_SCHEMAFORSCHEMAE)
          to label %1090 unwind label %3792

1090:                                             ; preds = %1089
  %1091 = load ptr, ptr @_ZN11xercesc_2_524DatatypeValidatorFactory16fBuiltInRegistryE, align 8, !tbaa !70
  %1092 = getelementptr inbounds %"class.xercesc_2_5::RefHashTableOf", ptr %1091, i64 0, i32 3
  %1093 = load i32, ptr %1092, align 8, !tbaa !65
  %1094 = mul i32 %1093, 3
  %1095 = lshr i32 %1094, 2
  %1096 = getelementptr inbounds %"class.xercesc_2_5::RefHashTableOf", ptr %1091, i64 0, i32 5
  %1097 = load i32, ptr %1096, align 8, !tbaa !77
  %1098 = icmp ult i32 %1097, %1095
  br i1 %1098, label %1100, label %1099

1099:                                             ; preds = %1090
  invoke void @_ZN11xercesc_2_514RefHashTableOfINS_17DatatypeValidatorEE6rehashEv(ptr noundef nonnull align 8 dereferenceable(48) %1091)
          to label %1100 unwind label %3792

1100:                                             ; preds = %1099, %1090
  call void @llvm.lifetime.start.p0(i64 4, ptr nonnull %130) #11
  %1101 = invoke noundef ptr @_ZN11xercesc_2_514RefHashTableOfINS_17DatatypeValidatorEE14findBucketElemEPKvRj(ptr noundef nonnull align 8 dereferenceable(48) %1091, ptr noundef nonnull @_ZN11xercesc_2_513SchemaSymbols13fgDT_DURATIONE, ptr noundef nonnull align 4 dereferenceable(4) %130)
          to label %1102 unwind label %3792

1102:                                             ; preds = %1100
  %1103 = icmp eq ptr %1101, null
  br i1 %1103, label %1117, label %1104

1104:                                             ; preds = %1102
  %1105 = getelementptr inbounds %"class.xercesc_2_5::RefHashTableOf", ptr %1091, i64 0, i32 1
  %1106 = load i8, ptr %1105, align 8, !tbaa !73, !range !74, !noundef !75
  %1107 = icmp eq i8 %1106, 0
  br i1 %1107, label %1115, label %1108

1108:                                             ; preds = %1104
  %1109 = load ptr, ptr %1101, align 8, !tbaa !76
  %1110 = icmp eq ptr %1109, null
  br i1 %1110, label %1115, label %1111

1111:                                             ; preds = %1108
  %1112 = load ptr, ptr %1109, align 8, !tbaa !56
  %1113 = getelementptr inbounds ptr, ptr %1112, i64 1
  %1114 = load ptr, ptr %1113, align 8
  invoke void %1114(ptr noundef nonnull align 8 dereferenceable(103) %1109)
          to label %1115 unwind label %3792

1115:                                             ; preds = %1111, %1108, %1104
  store ptr %1086, ptr %1101, align 8, !tbaa !76
  %1116 = getelementptr inbounds %"struct.xercesc_2_5::RefHashTableBucketElem", ptr %1101, i64 0, i32 2
  store ptr @_ZN11xercesc_2_513SchemaSymbols13fgDT_DURATIONE, ptr %1116, align 8, !tbaa !85
  br label %1129

1117:                                             ; preds = %1102
  %1118 = load ptr, ptr %1091, align 8, !tbaa !78
  %1119 = invoke noundef ptr @_ZN11xercesc_2_57XMemorynwEmPNS_13MemoryManagerE(i64 noundef 24, ptr noundef %1118)
          to label %1120 unwind label %3792

1120:                                             ; preds = %1117
  %1121 = getelementptr inbounds %"class.xercesc_2_5::RefHashTableOf", ptr %1091, i64 0, i32 2
  %1122 = load ptr, ptr %1121, align 8, !tbaa !69
  %1123 = load i32, ptr %130, align 4, !tbaa !86
  %1124 = zext i32 %1123 to i64
  %1125 = getelementptr inbounds ptr, ptr %1122, i64 %1124
  %1126 = load ptr, ptr %1125, align 8, !tbaa !70
  store ptr %1086, ptr %1119, align 8, !tbaa !76
  %1127 = getelementptr inbounds %"struct.xercesc_2_5::RefHashTableBucketElem", ptr %1119, i64 0, i32 1
  store ptr %1126, ptr %1127, align 8, !tbaa !71
  %1128 = getelementptr inbounds %"struct.xercesc_2_5::RefHashTableBucketElem", ptr %1119, i64 0, i32 2
  store ptr @_ZN11xercesc_2_513SchemaSymbols13fgDT_DURATIONE, ptr %1128, align 8, !tbaa !85
  store ptr %1119, ptr %1125, align 8, !tbaa !70
  br label %1129

1129:                                             ; preds = %1120, %1115
  %1130 = load i32, ptr %1096, align 8, !tbaa !77
  %1131 = add i32 %1130, 1
  store i32 %1131, ptr %1096, align 8, !tbaa !77
  call void @llvm.lifetime.end.p0(i64 4, ptr nonnull %130) #11
  %1132 = invoke noundef ptr @_ZN11xercesc_2_57XMemorynwEm(i64 noundef 48)
          to label %1133 unwind label %3834

1133:                                             ; preds = %1129
  %1134 = load ptr, ptr @_ZN11xercesc_2_516XMLPlatformUtils15fgMemoryManagerE, align 8, !tbaa !70
  store ptr %1134, ptr %1132, align 8, !tbaa !92
  %1135 = getelementptr inbounds %"class.xercesc_2_5::RefHashTableOf.1", ptr %1132, i64 0, i32 1
  store i8 1, ptr %1135, align 8, !tbaa !94
  %1136 = getelementptr inbounds %"class.xercesc_2_5::RefHashTableOf.1", ptr %1132, i64 0, i32 2
  store ptr null, ptr %1136, align 8, !tbaa !95
  %1137 = getelementptr inbounds %"class.xercesc_2_5::RefHashTableOf.1", ptr %1132, i64 0, i32 3
  store i32 3, ptr %1137, align 8, !tbaa !96
  %1138 = getelementptr inbounds %"class.xercesc_2_5::RefHashTableOf.1", ptr %1132, i64 0, i32 4
  store i32 3, ptr %1138, align 4, !tbaa !97
  %1139 = getelementptr inbounds %"class.xercesc_2_5::RefHashTableOf.1", ptr %1132, i64 0, i32 5
  store i32 0, ptr %1139, align 8, !tbaa !98
  %1140 = getelementptr inbounds %"class.xercesc_2_5::RefHashTableOf.1", ptr %1132, i64 0, i32 6
  store ptr null, ptr %1140, align 8, !tbaa !99
  %1141 = load ptr, ptr %1134, align 8, !tbaa !56
  %1142 = getelementptr inbounds ptr, ptr %1141, i64 2
  %1143 = load ptr, ptr %1142, align 8
  %1144 = invoke noundef ptr %1143(ptr noundef nonnull align 8 dereferenceable(8) %1134, i64 noundef 24)
          to label %1145 unwind label %3836

1145:                                             ; preds = %1133
  store ptr %1144, ptr %1136, align 8, !tbaa !95
  %1146 = load i32, ptr %1137, align 8, !tbaa !96
  %1147 = icmp eq i32 %1146, 0
  br i1 %1147, label %1156, label %1148

1148:                                             ; preds = %1145
  %1149 = zext i32 %1146 to i64
  br label %1150

1150:                                             ; preds = %1150, %1148
  %1151 = phi i64 [ 0, %1148 ], [ %1154, %1150 ]
  %1152 = load ptr, ptr %1136, align 8, !tbaa !95
  %1153 = getelementptr inbounds ptr, ptr %1152, i64 %1151
  store ptr null, ptr %1153, align 8, !tbaa !70
  %1154 = add nuw nsw i64 %1151, 1
  %1155 = icmp eq i64 %1154, %1149
  br i1 %1155, label %1156, label %1150

1156:                                             ; preds = %1150, %1145
  %1157 = load ptr, ptr %1132, align 8, !tbaa !92
  %1158 = invoke noundef ptr @_ZN11xercesc_2_57XMemorynwEmPNS_13MemoryManagerE(i64 noundef 8, ptr noundef %1157)
          to label %1159 unwind label %3836

1159:                                             ; preds = %1156
  invoke void @_ZN11xercesc_2_59HashXMLChC1Ev(ptr noundef nonnull align 8 dereferenceable(8) %1158)
          to label %1165 unwind label %1160

1160:                                             ; preds = %1159
  %1161 = landingpad { ptr, i32 }
          cleanup
  invoke void @_ZN11xercesc_2_57XMemorydlEPvPNS_13MemoryManagerE(ptr noundef %1158, ptr noundef %1157)
          to label %3838 unwind label %1162

1162:                                             ; preds = %1160
  %1163 = landingpad { ptr, i32 }
          catch ptr null
  %1164 = extractvalue { ptr, i32 } %1163, 0
  call void @__clang_call_terminate(ptr %1164) #10
  unreachable

1165:                                             ; preds = %1159
  store ptr %1158, ptr %1140, align 8, !tbaa !99
  %1166 = invoke noundef ptr @_ZN11xercesc_2_57XMemorynwEm(i64 noundef 48)
          to label %1167 unwind label %3834

1167:                                             ; preds = %1165
  %1168 = load ptr, ptr @_ZN11xercesc_2_516XMLPlatformUtils15fgMemoryManagerE, align 8, !tbaa !70
  invoke void @_ZN11xercesc_2_512KVStringPairC1EPKtS2_PNS_13MemoryManagerE(ptr noundef nonnull align 8 dereferenceable(48) %1166, ptr noundef nonnull @_ZN11xercesc_2_513SchemaSymbols16fgELT_WHITESPACEE, ptr noundef nonnull @_ZN11xercesc_2_513SchemaSymbols12fgWS_REPLACEE, ptr noundef %1168)
          to label %1169 unwind label %3840

1169:                                             ; preds = %1167
  %1170 = load i32, ptr %1137, align 8, !tbaa !96
  %1171 = mul i32 %1170, 3
  %1172 = lshr i32 %1171, 2
  %1173 = load i32, ptr %1139, align 8, !tbaa !98
  %1174 = icmp ult i32 %1173, %1172
  br i1 %1174, label %1176, label %1175

1175:                                             ; preds = %1169
  invoke void @_ZN11xercesc_2_514RefHashTableOfINS_12KVStringPairEE6rehashEv(ptr noundef nonnull align 8 dereferenceable(48) %1132)
          to label %1176 unwind label %3834

1176:                                             ; preds = %1175, %1169
  call void @llvm.lifetime.start.p0(i64 4, ptr nonnull %129) #11
  %1177 = invoke noundef ptr @_ZN11xercesc_2_514RefHashTableOfINS_12KVStringPairEE14findBucketElemEPKvRj(ptr noundef nonnull align 8 dereferenceable(48) %1132, ptr noundef nonnull @_ZN11xercesc_2_513SchemaSymbols16fgELT_WHITESPACEE, ptr noundef nonnull align 4 dereferenceable(4) %129)
          to label %1178 unwind label %3834

1178:                                             ; preds = %1176
  %1179 = icmp eq ptr %1177, null
  br i1 %1179, label %1192, label %1180

1180:                                             ; preds = %1178
  %1181 = load i8, ptr %1135, align 8, !tbaa !94, !range !74, !noundef !75
  %1182 = icmp eq i8 %1181, 0
  br i1 %1182, label %1190, label %1183

1183:                                             ; preds = %1180
  %1184 = load ptr, ptr %1177, align 8, !tbaa !100
  %1185 = icmp eq ptr %1184, null
  br i1 %1185, label %1190, label %1186

1186:                                             ; preds = %1183
  %1187 = load ptr, ptr %1184, align 8, !tbaa !56
  %1188 = getelementptr inbounds ptr, ptr %1187, i64 1
  %1189 = load ptr, ptr %1188, align 8
  invoke void %1189(ptr noundef nonnull align 8 dereferenceable(48) %1184)
          to label %1190 unwind label %3834

1190:                                             ; preds = %1186, %1183, %1180
  store ptr %1166, ptr %1177, align 8, !tbaa !100
  %1191 = getelementptr inbounds %"struct.xercesc_2_5::RefHashTableBucketElem.4", ptr %1177, i64 0, i32 2
  store ptr @_ZN11xercesc_2_513SchemaSymbols16fgELT_WHITESPACEE, ptr %1191, align 8, !tbaa !102
  br label %1203

1192:                                             ; preds = %1178
  %1193 = load ptr, ptr %1132, align 8, !tbaa !92
  %1194 = invoke noundef ptr @_ZN11xercesc_2_57XMemorynwEmPNS_13MemoryManagerE(i64 noundef 24, ptr noundef %1193)
          to label %1195 unwind label %3834

1195:                                             ; preds = %1192
  %1196 = load ptr, ptr %1136, align 8, !tbaa !95
  %1197 = load i32, ptr %129, align 4, !tbaa !86
  %1198 = zext i32 %1197 to i64
  %1199 = getelementptr inbounds ptr, ptr %1196, i64 %1198
  %1200 = load ptr, ptr %1199, align 8, !tbaa !70
  store ptr %1166, ptr %1194, align 8, !tbaa !100
  %1201 = getelementptr inbounds %"struct.xercesc_2_5::RefHashTableBucketElem.4", ptr %1194, i64 0, i32 1
  store ptr %1200, ptr %1201, align 8, !tbaa !103
  %1202 = getelementptr inbounds %"struct.xercesc_2_5::RefHashTableBucketElem.4", ptr %1194, i64 0, i32 2
  store ptr @_ZN11xercesc_2_513SchemaSymbols16fgELT_WHITESPACEE, ptr %1202, align 8, !tbaa !102
  store ptr %1194, ptr %1199, align 8, !tbaa !70
  br label %1203

1203:                                             ; preds = %1195, %1190
  %1204 = load i32, ptr %1139, align 8, !tbaa !98
  %1205 = add i32 %1204, 1
  store i32 %1205, ptr %1139, align 8, !tbaa !98
  call void @llvm.lifetime.end.p0(i64 4, ptr nonnull %129) #11
  %1206 = load ptr, ptr @_ZN11xercesc_2_524DatatypeValidatorFactory16fBuiltInRegistryE, align 8, !tbaa !70
  %1207 = icmp eq ptr %1206, null
  br i1 %1207, label %1221, label %1208

1208:                                             ; preds = %1203
  call void @llvm.lifetime.start.p0(i64 4, ptr nonnull %128) #11
  %1209 = invoke noundef ptr @_ZNK11xercesc_2_514RefHashTableOfINS_17DatatypeValidatorEE14findBucketElemEPKvRj(ptr noundef nonnull align 8 dereferenceable(48) %1206, ptr noundef nonnull @_ZN11xercesc_2_513SchemaSymbols11fgDT_STRINGE, ptr noundef nonnull align 4 dereferenceable(4) %128)
          to label %1210 unwind label %3834

1210:                                             ; preds = %1208
  %1211 = icmp eq ptr %1209, null
  call void @llvm.lifetime.end.p0(i64 4, ptr nonnull %128) #11
  br i1 %1211, label %1221, label %1212

1212:                                             ; preds = %1210
  %1213 = load ptr, ptr @_ZN11xercesc_2_524DatatypeValidatorFactory16fBuiltInRegistryE, align 8, !tbaa !70
  call void @llvm.lifetime.start.p0(i64 4, ptr nonnull %127) #11
  %1214 = invoke noundef ptr @_ZN11xercesc_2_514RefHashTableOfINS_17DatatypeValidatorEE14findBucketElemEPKvRj(ptr noundef nonnull align 8 dereferenceable(48) %1213, ptr noundef nonnull @_ZN11xercesc_2_513SchemaSymbols11fgDT_STRINGE, ptr noundef nonnull align 4 dereferenceable(4) %127)
          to label %1215 unwind label %3834

1215:                                             ; preds = %1212
  %1216 = icmp eq ptr %1214, null
  br i1 %1216, label %1219, label %1217

1217:                                             ; preds = %1215
  %1218 = load ptr, ptr %1214, align 8, !tbaa !76
  br label %1219

1219:                                             ; preds = %1217, %1215
  %1220 = phi ptr [ %1218, %1217 ], [ null, %1215 ]
  call void @llvm.lifetime.end.p0(i64 4, ptr nonnull %127) #11
  br label %1238

1221:                                             ; preds = %1210, %1203
  %1222 = getelementptr inbounds %"class.xercesc_2_5::DatatypeValidatorFactory", ptr %0, i64 0, i32 1
  %1223 = load ptr, ptr %1222, align 8, !tbaa !59
  %1224 = icmp eq ptr %1223, null
  br i1 %1224, label %1238, label %1225

1225:                                             ; preds = %1221
  call void @llvm.lifetime.start.p0(i64 4, ptr nonnull %126) #11
  %1226 = invoke noundef ptr @_ZNK11xercesc_2_514RefHashTableOfINS_17DatatypeValidatorEE14findBucketElemEPKvRj(ptr noundef nonnull align 8 dereferenceable(48) %1223, ptr noundef nonnull @_ZN11xercesc_2_513SchemaSymbols11fgDT_STRINGE, ptr noundef nonnull align 4 dereferenceable(4) %126)
          to label %1227 unwind label %3834

1227:                                             ; preds = %1225
  %1228 = icmp eq ptr %1226, null
  call void @llvm.lifetime.end.p0(i64 4, ptr nonnull %126) #11
  br i1 %1228, label %1238, label %1229

1229:                                             ; preds = %1227
  %1230 = load ptr, ptr %1222, align 8, !tbaa !59
  call void @llvm.lifetime.start.p0(i64 4, ptr nonnull %125) #11
  %1231 = invoke noundef ptr @_ZN11xercesc_2_514RefHashTableOfINS_17DatatypeValidatorEE14findBucketElemEPKvRj(ptr noundef nonnull align 8 dereferenceable(48) %1230, ptr noundef nonnull @_ZN11xercesc_2_513SchemaSymbols11fgDT_STRINGE, ptr noundef nonnull align 4 dereferenceable(4) %125)
          to label %1232 unwind label %3834

1232:                                             ; preds = %1229
  %1233 = icmp eq ptr %1231, null
  br i1 %1233, label %1236, label %1234

1234:                                             ; preds = %1232
  %1235 = load ptr, ptr %1231, align 8, !tbaa !76
  br label %1236

1236:                                             ; preds = %1234, %1232
  %1237 = phi ptr [ %1235, %1234 ], [ null, %1232 ]
  call void @llvm.lifetime.end.p0(i64 4, ptr nonnull %125) #11
  br label %1238

1238:                                             ; preds = %1236, %1227, %1221, %1219
  %1239 = phi ptr [ %1220, %1219 ], [ %1237, %1236 ], [ null, %1221 ], [ null, %1227 ]
  %1240 = load ptr, ptr @_ZN11xercesc_2_516XMLPlatformUtils15fgMemoryManagerE, align 8, !tbaa !70
  %1241 = invoke noundef ptr @_ZN11xercesc_2_524DatatypeValidatorFactory23createDatatypeValidatorEPKtPNS_17DatatypeValidatorEPNS_14RefHashTableOfINS_12KVStringPairEEEPNS_16RefArrayVectorOfItEEbibPNS_13MemoryManagerE(ptr noundef nonnull align 8 dereferenceable(24) %0, ptr noundef nonnull @_ZN11xercesc_2_513SchemaSymbols21fgDT_NORMALIZEDSTRINGE, ptr noundef %1239, ptr noundef nonnull %1132, ptr noundef null, i1 noundef zeroext false, i32 noundef 0, i1 noundef zeroext false, ptr noundef %1240)
          to label %1242 unwind label %3834

1242:                                             ; preds = %1238
  %1243 = invoke noundef ptr @_ZN11xercesc_2_57XMemorynwEm(i64 noundef 48)
          to label %1244 unwind label %3834

1244:                                             ; preds = %1242
  %1245 = load ptr, ptr @_ZN11xercesc_2_516XMLPlatformUtils15fgMemoryManagerE, align 8, !tbaa !70
  store ptr %1245, ptr %1243, align 8, !tbaa !92
  %1246 = getelementptr inbounds %"class.xercesc_2_5::RefHashTableOf.1", ptr %1243, i64 0, i32 1
  store i8 1, ptr %1246, align 8, !tbaa !94
  %1247 = getelementptr inbounds %"class.xercesc_2_5::RefHashTableOf.1", ptr %1243, i64 0, i32 2
  store ptr null, ptr %1247, align 8, !tbaa !95
  %1248 = getelementptr inbounds %"class.xercesc_2_5::RefHashTableOf.1", ptr %1243, i64 0, i32 3
  store i32 3, ptr %1248, align 8, !tbaa !96
  %1249 = getelementptr inbounds %"class.xercesc_2_5::RefHashTableOf.1", ptr %1243, i64 0, i32 4
  store i32 3, ptr %1249, align 4, !tbaa !97
  %1250 = getelementptr inbounds %"class.xercesc_2_5::RefHashTableOf.1", ptr %1243, i64 0, i32 5
  store i32 0, ptr %1250, align 8, !tbaa !98
  %1251 = getelementptr inbounds %"class.xercesc_2_5::RefHashTableOf.1", ptr %1243, i64 0, i32 6
  store ptr null, ptr %1251, align 8, !tbaa !99
  %1252 = load ptr, ptr %1245, align 8, !tbaa !56
  %1253 = getelementptr inbounds ptr, ptr %1252, i64 2
  %1254 = load ptr, ptr %1253, align 8
  %1255 = invoke noundef ptr %1254(ptr noundef nonnull align 8 dereferenceable(8) %1245, i64 noundef 24)
          to label %1256 unwind label %3842

1256:                                             ; preds = %1244
  store ptr %1255, ptr %1247, align 8, !tbaa !95
  %1257 = load i32, ptr %1248, align 8, !tbaa !96
  %1258 = icmp eq i32 %1257, 0
  br i1 %1258, label %1267, label %1259

1259:                                             ; preds = %1256
  %1260 = zext i32 %1257 to i64
  br label %1261

1261:                                             ; preds = %1261, %1259
  %1262 = phi i64 [ 0, %1259 ], [ %1265, %1261 ]
  %1263 = load ptr, ptr %1247, align 8, !tbaa !95
  %1264 = getelementptr inbounds ptr, ptr %1263, i64 %1262
  store ptr null, ptr %1264, align 8, !tbaa !70
  %1265 = add nuw nsw i64 %1262, 1
  %1266 = icmp eq i64 %1265, %1260
  br i1 %1266, label %1267, label %1261

1267:                                             ; preds = %1261, %1256
  %1268 = load ptr, ptr %1243, align 8, !tbaa !92
  %1269 = invoke noundef ptr @_ZN11xercesc_2_57XMemorynwEmPNS_13MemoryManagerE(i64 noundef 8, ptr noundef %1268)
          to label %1270 unwind label %3842

1270:                                             ; preds = %1267
  invoke void @_ZN11xercesc_2_59HashXMLChC1Ev(ptr noundef nonnull align 8 dereferenceable(8) %1269)
          to label %1276 unwind label %1271

1271:                                             ; preds = %1270
  %1272 = landingpad { ptr, i32 }
          cleanup
  invoke void @_ZN11xercesc_2_57XMemorydlEPvPNS_13MemoryManagerE(ptr noundef %1269, ptr noundef %1268)
          to label %3844 unwind label %1273

1273:                                             ; preds = %1271
  %1274 = landingpad { ptr, i32 }
          catch ptr null
  %1275 = extractvalue { ptr, i32 } %1274, 0
  call void @__clang_call_terminate(ptr %1275) #10
  unreachable

1276:                                             ; preds = %1270
  store ptr %1269, ptr %1251, align 8, !tbaa !99
  %1277 = invoke noundef ptr @_ZN11xercesc_2_57XMemorynwEm(i64 noundef 48)
          to label %1278 unwind label %3834

1278:                                             ; preds = %1276
  %1279 = load ptr, ptr @_ZN11xercesc_2_516XMLPlatformUtils15fgMemoryManagerE, align 8, !tbaa !70
  invoke void @_ZN11xercesc_2_512KVStringPairC1EPKtS2_PNS_13MemoryManagerE(ptr noundef nonnull align 8 dereferenceable(48) %1277, ptr noundef nonnull @_ZN11xercesc_2_513SchemaSymbols16fgELT_WHITESPACEE, ptr noundef nonnull @_ZN11xercesc_2_513SchemaSymbols13fgWS_COLLAPSEE, ptr noundef %1279)
          to label %1280 unwind label %3846

1280:                                             ; preds = %1278
  %1281 = load i32, ptr %1248, align 8, !tbaa !96
  %1282 = mul i32 %1281, 3
  %1283 = lshr i32 %1282, 2
  %1284 = load i32, ptr %1250, align 8, !tbaa !98
  %1285 = icmp ult i32 %1284, %1283
  br i1 %1285, label %1287, label %1286

1286:                                             ; preds = %1280
  invoke void @_ZN11xercesc_2_514RefHashTableOfINS_12KVStringPairEE6rehashEv(ptr noundef nonnull align 8 dereferenceable(48) %1243)
          to label %1287 unwind label %3834

1287:                                             ; preds = %1286, %1280
  call void @llvm.lifetime.start.p0(i64 4, ptr nonnull %124) #11
  %1288 = invoke noundef ptr @_ZN11xercesc_2_514RefHashTableOfINS_12KVStringPairEE14findBucketElemEPKvRj(ptr noundef nonnull align 8 dereferenceable(48) %1243, ptr noundef nonnull @_ZN11xercesc_2_513SchemaSymbols16fgELT_WHITESPACEE, ptr noundef nonnull align 4 dereferenceable(4) %124)
          to label %1289 unwind label %3834

1289:                                             ; preds = %1287
  %1290 = icmp eq ptr %1288, null
  br i1 %1290, label %1303, label %1291

1291:                                             ; preds = %1289
  %1292 = load i8, ptr %1246, align 8, !tbaa !94, !range !74, !noundef !75
  %1293 = icmp eq i8 %1292, 0
  br i1 %1293, label %1301, label %1294

1294:                                             ; preds = %1291
  %1295 = load ptr, ptr %1288, align 8, !tbaa !100
  %1296 = icmp eq ptr %1295, null
  br i1 %1296, label %1301, label %1297

1297:                                             ; preds = %1294
  %1298 = load ptr, ptr %1295, align 8, !tbaa !56
  %1299 = getelementptr inbounds ptr, ptr %1298, i64 1
  %1300 = load ptr, ptr %1299, align 8
  invoke void %1300(ptr noundef nonnull align 8 dereferenceable(48) %1295)
          to label %1301 unwind label %3834

1301:                                             ; preds = %1297, %1294, %1291
  store ptr %1277, ptr %1288, align 8, !tbaa !100
  %1302 = getelementptr inbounds %"struct.xercesc_2_5::RefHashTableBucketElem.4", ptr %1288, i64 0, i32 2
  store ptr @_ZN11xercesc_2_513SchemaSymbols16fgELT_WHITESPACEE, ptr %1302, align 8, !tbaa !102
  br label %1314

1303:                                             ; preds = %1289
  %1304 = load ptr, ptr %1243, align 8, !tbaa !92
  %1305 = invoke noundef ptr @_ZN11xercesc_2_57XMemorynwEmPNS_13MemoryManagerE(i64 noundef 24, ptr noundef %1304)
          to label %1306 unwind label %3834

1306:                                             ; preds = %1303
  %1307 = load ptr, ptr %1247, align 8, !tbaa !95
  %1308 = load i32, ptr %124, align 4, !tbaa !86
  %1309 = zext i32 %1308 to i64
  %1310 = getelementptr inbounds ptr, ptr %1307, i64 %1309
  %1311 = load ptr, ptr %1310, align 8, !tbaa !70
  store ptr %1277, ptr %1305, align 8, !tbaa !100
  %1312 = getelementptr inbounds %"struct.xercesc_2_5::RefHashTableBucketElem.4", ptr %1305, i64 0, i32 1
  store ptr %1311, ptr %1312, align 8, !tbaa !103
  %1313 = getelementptr inbounds %"struct.xercesc_2_5::RefHashTableBucketElem.4", ptr %1305, i64 0, i32 2
  store ptr @_ZN11xercesc_2_513SchemaSymbols16fgELT_WHITESPACEE, ptr %1313, align 8, !tbaa !102
  store ptr %1305, ptr %1310, align 8, !tbaa !70
  br label %1314

1314:                                             ; preds = %1306, %1301
  %1315 = load i32, ptr %1250, align 8, !tbaa !98
  %1316 = add i32 %1315, 1
  store i32 %1316, ptr %1250, align 8, !tbaa !98
  call void @llvm.lifetime.end.p0(i64 4, ptr nonnull %124) #11
  %1317 = load ptr, ptr @_ZN11xercesc_2_524DatatypeValidatorFactory16fBuiltInRegistryE, align 8, !tbaa !70
  %1318 = icmp eq ptr %1317, null
  br i1 %1318, label %1332, label %1319

1319:                                             ; preds = %1314
  call void @llvm.lifetime.start.p0(i64 4, ptr nonnull %123) #11
  %1320 = invoke noundef ptr @_ZNK11xercesc_2_514RefHashTableOfINS_17DatatypeValidatorEE14findBucketElemEPKvRj(ptr noundef nonnull align 8 dereferenceable(48) %1317, ptr noundef nonnull @_ZN11xercesc_2_513SchemaSymbols21fgDT_NORMALIZEDSTRINGE, ptr noundef nonnull align 4 dereferenceable(4) %123)
          to label %1321 unwind label %3834

1321:                                             ; preds = %1319
  %1322 = icmp eq ptr %1320, null
  call void @llvm.lifetime.end.p0(i64 4, ptr nonnull %123) #11
  br i1 %1322, label %1332, label %1323

1323:                                             ; preds = %1321
  %1324 = load ptr, ptr @_ZN11xercesc_2_524DatatypeValidatorFactory16fBuiltInRegistryE, align 8, !tbaa !70
  call void @llvm.lifetime.start.p0(i64 4, ptr nonnull %122) #11
  %1325 = invoke noundef ptr @_ZN11xercesc_2_514RefHashTableOfINS_17DatatypeValidatorEE14findBucketElemEPKvRj(ptr noundef nonnull align 8 dereferenceable(48) %1324, ptr noundef nonnull @_ZN11xercesc_2_513SchemaSymbols21fgDT_NORMALIZEDSTRINGE, ptr noundef nonnull align 4 dereferenceable(4) %122)
          to label %1326 unwind label %3834

1326:                                             ; preds = %1323
  %1327 = icmp eq ptr %1325, null
  br i1 %1327, label %1330, label %1328

1328:                                             ; preds = %1326
  %1329 = load ptr, ptr %1325, align 8, !tbaa !76
  br label %1330

1330:                                             ; preds = %1328, %1326
  %1331 = phi ptr [ %1329, %1328 ], [ null, %1326 ]
  call void @llvm.lifetime.end.p0(i64 4, ptr nonnull %122) #11
  br label %1349

1332:                                             ; preds = %1321, %1314
  %1333 = getelementptr inbounds %"class.xercesc_2_5::DatatypeValidatorFactory", ptr %0, i64 0, i32 1
  %1334 = load ptr, ptr %1333, align 8, !tbaa !59
  %1335 = icmp eq ptr %1334, null
  br i1 %1335, label %1349, label %1336

1336:                                             ; preds = %1332
  call void @llvm.lifetime.start.p0(i64 4, ptr nonnull %121) #11
  %1337 = invoke noundef ptr @_ZNK11xercesc_2_514RefHashTableOfINS_17DatatypeValidatorEE14findBucketElemEPKvRj(ptr noundef nonnull align 8 dereferenceable(48) %1334, ptr noundef nonnull @_ZN11xercesc_2_513SchemaSymbols21fgDT_NORMALIZEDSTRINGE, ptr noundef nonnull align 4 dereferenceable(4) %121)
          to label %1338 unwind label %3834

1338:                                             ; preds = %1336
  %1339 = icmp eq ptr %1337, null
  call void @llvm.lifetime.end.p0(i64 4, ptr nonnull %121) #11
  br i1 %1339, label %1349, label %1340

1340:                                             ; preds = %1338
  %1341 = load ptr, ptr %1333, align 8, !tbaa !59
  call void @llvm.lifetime.start.p0(i64 4, ptr nonnull %120) #11
  %1342 = invoke noundef ptr @_ZN11xercesc_2_514RefHashTableOfINS_17DatatypeValidatorEE14findBucketElemEPKvRj(ptr noundef nonnull align 8 dereferenceable(48) %1341, ptr noundef nonnull @_ZN11xercesc_2_513SchemaSymbols21fgDT_NORMALIZEDSTRINGE, ptr noundef nonnull align 4 dereferenceable(4) %120)
          to label %1343 unwind label %3834

1343:                                             ; preds = %1340
  %1344 = icmp eq ptr %1342, null
  br i1 %1344, label %1347, label %1345

1345:                                             ; preds = %1343
  %1346 = load ptr, ptr %1342, align 8, !tbaa !76
  br label %1347

1347:                                             ; preds = %1345, %1343
  %1348 = phi ptr [ %1346, %1345 ], [ null, %1343 ]
  call void @llvm.lifetime.end.p0(i64 4, ptr nonnull %120) #11
  br label %1349

1349:                                             ; preds = %1347, %1338, %1332, %1330
  %1350 = phi ptr [ %1331, %1330 ], [ %1348, %1347 ], [ null, %1332 ], [ null, %1338 ]
  %1351 = load ptr, ptr @_ZN11xercesc_2_516XMLPlatformUtils15fgMemoryManagerE, align 8, !tbaa !70
  %1352 = invoke noundef ptr @_ZN11xercesc_2_524DatatypeValidatorFactory23createDatatypeValidatorEPKtPNS_17DatatypeValidatorEPNS_14RefHashTableOfINS_12KVStringPairEEEPNS_16RefArrayVectorOfItEEbibPNS_13MemoryManagerE(ptr noundef nonnull align 8 dereferenceable(24) %0, ptr noundef nonnull @_ZN11xercesc_2_513SchemaSymbols10fgDT_TOKENE, ptr noundef %1350, ptr noundef nonnull %1243, ptr noundef null, i1 noundef zeroext false, i32 noundef 0, i1 noundef zeroext false, ptr noundef %1351)
          to label %1353 unwind label %3834

1353:                                             ; preds = %1349
  %1354 = invoke noundef ptr @_ZN11xercesc_2_57XMemorynwEm(i64 noundef 128)
          to label %1355 unwind label %3834

1355:                                             ; preds = %1353
  %1356 = load ptr, ptr @_ZN11xercesc_2_524DatatypeValidatorFactory16fBuiltInRegistryE, align 8, !tbaa !70
  %1357 = icmp eq ptr %1356, null
  br i1 %1357, label %1371, label %1358

1358:                                             ; preds = %1355
  call void @llvm.lifetime.start.p0(i64 4, ptr nonnull %119) #11
  %1359 = invoke noundef ptr @_ZNK11xercesc_2_514RefHashTableOfINS_17DatatypeValidatorEE14findBucketElemEPKvRj(ptr noundef nonnull align 8 dereferenceable(48) %1356, ptr noundef nonnull @_ZN11xercesc_2_513SchemaSymbols10fgDT_TOKENE, ptr noundef nonnull align 4 dereferenceable(4) %119)
          to label %1360 unwind label %3848

1360:                                             ; preds = %1358
  %1361 = icmp eq ptr %1359, null
  call void @llvm.lifetime.end.p0(i64 4, ptr nonnull %119) #11
  br i1 %1361, label %1371, label %1362

1362:                                             ; preds = %1360
  %1363 = load ptr, ptr @_ZN11xercesc_2_524DatatypeValidatorFactory16fBuiltInRegistryE, align 8, !tbaa !70
  call void @llvm.lifetime.start.p0(i64 4, ptr nonnull %118) #11
  %1364 = invoke noundef ptr @_ZN11xercesc_2_514RefHashTableOfINS_17DatatypeValidatorEE14findBucketElemEPKvRj(ptr noundef nonnull align 8 dereferenceable(48) %1363, ptr noundef nonnull @_ZN11xercesc_2_513SchemaSymbols10fgDT_TOKENE, ptr noundef nonnull align 4 dereferenceable(4) %118)
          to label %1365 unwind label %3848

1365:                                             ; preds = %1362
  %1366 = icmp eq ptr %1364, null
  br i1 %1366, label %1369, label %1367

1367:                                             ; preds = %1365
  %1368 = load ptr, ptr %1364, align 8, !tbaa !76
  br label %1369

1369:                                             ; preds = %1367, %1365
  %1370 = phi ptr [ %1368, %1367 ], [ null, %1365 ]
  call void @llvm.lifetime.end.p0(i64 4, ptr nonnull %118) #11
  br label %1388

1371:                                             ; preds = %1360, %1355
  %1372 = getelementptr inbounds %"class.xercesc_2_5::DatatypeValidatorFactory", ptr %0, i64 0, i32 1
  %1373 = load ptr, ptr %1372, align 8, !tbaa !59
  %1374 = icmp eq ptr %1373, null
  br i1 %1374, label %1388, label %1375

1375:                                             ; preds = %1371
  call void @llvm.lifetime.start.p0(i64 4, ptr nonnull %117) #11
  %1376 = invoke noundef ptr @_ZNK11xercesc_2_514RefHashTableOfINS_17DatatypeValidatorEE14findBucketElemEPKvRj(ptr noundef nonnull align 8 dereferenceable(48) %1373, ptr noundef nonnull @_ZN11xercesc_2_513SchemaSymbols10fgDT_TOKENE, ptr noundef nonnull align 4 dereferenceable(4) %117)
          to label %1377 unwind label %3848

1377:                                             ; preds = %1375
  %1378 = icmp eq ptr %1376, null
  call void @llvm.lifetime.end.p0(i64 4, ptr nonnull %117) #11
  br i1 %1378, label %1388, label %1379

1379:                                             ; preds = %1377
  %1380 = load ptr, ptr %1372, align 8, !tbaa !59
  call void @llvm.lifetime.start.p0(i64 4, ptr nonnull %116) #11
  %1381 = invoke noundef ptr @_ZN11xercesc_2_514RefHashTableOfINS_17DatatypeValidatorEE14findBucketElemEPKvRj(ptr noundef nonnull align 8 dereferenceable(48) %1380, ptr noundef nonnull @_ZN11xercesc_2_513SchemaSymbols10fgDT_TOKENE, ptr noundef nonnull align 4 dereferenceable(4) %116)
          to label %1382 unwind label %3848

1382:                                             ; preds = %1379
  %1383 = icmp eq ptr %1381, null
  br i1 %1383, label %1386, label %1384

1384:                                             ; preds = %1382
  %1385 = load ptr, ptr %1381, align 8, !tbaa !76
  br label %1386

1386:                                             ; preds = %1384, %1382
  %1387 = phi ptr [ %1385, %1384 ], [ null, %1382 ]
  call void @llvm.lifetime.end.p0(i64 4, ptr nonnull %116) #11
  br label %1388

1388:                                             ; preds = %1386, %1377, %1371, %1369
  %1389 = phi ptr [ %1370, %1369 ], [ %1387, %1386 ], [ null, %1371 ], [ null, %1377 ]
  %1390 = load ptr, ptr @_ZN11xercesc_2_516XMLPlatformUtils15fgMemoryManagerE, align 8, !tbaa !70
  invoke void @_ZN11xercesc_2_521NameDatatypeValidatorC1EPNS_17DatatypeValidatorEPNS_14RefHashTableOfINS_12KVStringPairEEEPNS_16RefArrayVectorOfItEEiPNS_13MemoryManagerE(ptr noundef nonnull align 8 dereferenceable(128) %1354, ptr noundef %1389, ptr noundef null, ptr noundef null, i32 noundef 0, ptr noundef %1390)
          to label %1391 unwind label %3848

1391:                                             ; preds = %1388
  invoke void @_ZN11xercesc_2_517DatatypeValidator11setTypeNameEPKtS2_(ptr noundef nonnull align 8 dereferenceable(103) %1354, ptr noundef nonnull @_ZN11xercesc_2_513SchemaSymbols9fgDT_NAMEE, ptr noundef nonnull @_ZN11xercesc_2_513SchemaSymbols21fgURI_SCHEMAFORSCHEMAE)
          to label %1392 unwind label %3834

1392:                                             ; preds = %1391
  %1393 = load ptr, ptr @_ZN11xercesc_2_524DatatypeValidatorFactory16fBuiltInRegistryE, align 8, !tbaa !70
  %1394 = getelementptr inbounds %"class.xercesc_2_5::RefHashTableOf", ptr %1393, i64 0, i32 3
  %1395 = load i32, ptr %1394, align 8, !tbaa !65
  %1396 = mul i32 %1395, 3
  %1397 = lshr i32 %1396, 2
  %1398 = getelementptr inbounds %"class.xercesc_2_5::RefHashTableOf", ptr %1393, i64 0, i32 5
  %1399 = load i32, ptr %1398, align 8, !tbaa !77
  %1400 = icmp ult i32 %1399, %1397
  br i1 %1400, label %1402, label %1401

1401:                                             ; preds = %1392
  invoke void @_ZN11xercesc_2_514RefHashTableOfINS_17DatatypeValidatorEE6rehashEv(ptr noundef nonnull align 8 dereferenceable(48) %1393)
          to label %1402 unwind label %3834

1402:                                             ; preds = %1401, %1392
  call void @llvm.lifetime.start.p0(i64 4, ptr nonnull %115) #11
  %1403 = invoke noundef ptr @_ZN11xercesc_2_514RefHashTableOfINS_17DatatypeValidatorEE14findBucketElemEPKvRj(ptr noundef nonnull align 8 dereferenceable(48) %1393, ptr noundef nonnull @_ZN11xercesc_2_513SchemaSymbols9fgDT_NAMEE, ptr noundef nonnull align 4 dereferenceable(4) %115)
          to label %1404 unwind label %3834

1404:                                             ; preds = %1402
  %1405 = icmp eq ptr %1403, null
  br i1 %1405, label %1419, label %1406

1406:                                             ; preds = %1404
  %1407 = getelementptr inbounds %"class.xercesc_2_5::RefHashTableOf", ptr %1393, i64 0, i32 1
  %1408 = load i8, ptr %1407, align 8, !tbaa !73, !range !74, !noundef !75
  %1409 = icmp eq i8 %1408, 0
  br i1 %1409, label %1417, label %1410

1410:                                             ; preds = %1406
  %1411 = load ptr, ptr %1403, align 8, !tbaa !76
  %1412 = icmp eq ptr %1411, null
  br i1 %1412, label %1417, label %1413

1413:                                             ; preds = %1410
  %1414 = load ptr, ptr %1411, align 8, !tbaa !56
  %1415 = getelementptr inbounds ptr, ptr %1414, i64 1
  %1416 = load ptr, ptr %1415, align 8
  invoke void %1416(ptr noundef nonnull align 8 dereferenceable(103) %1411)
          to label %1417 unwind label %3834

1417:                                             ; preds = %1413, %1410, %1406
  store ptr %1354, ptr %1403, align 8, !tbaa !76
  %1418 = getelementptr inbounds %"struct.xercesc_2_5::RefHashTableBucketElem", ptr %1403, i64 0, i32 2
  store ptr @_ZN11xercesc_2_513SchemaSymbols9fgDT_NAMEE, ptr %1418, align 8, !tbaa !85
  br label %1431

1419:                                             ; preds = %1404
  %1420 = load ptr, ptr %1393, align 8, !tbaa !78
  %1421 = invoke noundef ptr @_ZN11xercesc_2_57XMemorynwEmPNS_13MemoryManagerE(i64 noundef 24, ptr noundef %1420)
          to label %1422 unwind label %3834

1422:                                             ; preds = %1419
  %1423 = getelementptr inbounds %"class.xercesc_2_5::RefHashTableOf", ptr %1393, i64 0, i32 2
  %1424 = load ptr, ptr %1423, align 8, !tbaa !69
  %1425 = load i32, ptr %115, align 4, !tbaa !86
  %1426 = zext i32 %1425 to i64
  %1427 = getelementptr inbounds ptr, ptr %1424, i64 %1426
  %1428 = load ptr, ptr %1427, align 8, !tbaa !70
  store ptr %1354, ptr %1421, align 8, !tbaa !76
  %1429 = getelementptr inbounds %"struct.xercesc_2_5::RefHashTableBucketElem", ptr %1421, i64 0, i32 1
  store ptr %1428, ptr %1429, align 8, !tbaa !71
  %1430 = getelementptr inbounds %"struct.xercesc_2_5::RefHashTableBucketElem", ptr %1421, i64 0, i32 2
  store ptr @_ZN11xercesc_2_513SchemaSymbols9fgDT_NAMEE, ptr %1430, align 8, !tbaa !85
  store ptr %1421, ptr %1427, align 8, !tbaa !70
  br label %1431

1431:                                             ; preds = %1422, %1417
  %1432 = load i32, ptr %1398, align 8, !tbaa !77
  %1433 = add i32 %1432, 1
  store i32 %1433, ptr %1398, align 8, !tbaa !77
  call void @llvm.lifetime.end.p0(i64 4, ptr nonnull %115) #11
  %1434 = invoke noundef ptr @_ZN11xercesc_2_57XMemorynwEm(i64 noundef 128)
          to label %1435 unwind label %3834

1435:                                             ; preds = %1431
  %1436 = load ptr, ptr @_ZN11xercesc_2_524DatatypeValidatorFactory16fBuiltInRegistryE, align 8, !tbaa !70
  %1437 = icmp eq ptr %1436, null
  br i1 %1437, label %1451, label %1438

1438:                                             ; preds = %1435
  call void @llvm.lifetime.start.p0(i64 4, ptr nonnull %114) #11
  %1439 = invoke noundef ptr @_ZNK11xercesc_2_514RefHashTableOfINS_17DatatypeValidatorEE14findBucketElemEPKvRj(ptr noundef nonnull align 8 dereferenceable(48) %1436, ptr noundef nonnull @_ZN11xercesc_2_513SchemaSymbols9fgDT_NAMEE, ptr noundef nonnull align 4 dereferenceable(4) %114)
          to label %1440 unwind label %3850

1440:                                             ; preds = %1438
  %1441 = icmp eq ptr %1439, null
  call void @llvm.lifetime.end.p0(i64 4, ptr nonnull %114) #11
  br i1 %1441, label %1451, label %1442

1442:                                             ; preds = %1440
  %1443 = load ptr, ptr @_ZN11xercesc_2_524DatatypeValidatorFactory16fBuiltInRegistryE, align 8, !tbaa !70
  call void @llvm.lifetime.start.p0(i64 4, ptr nonnull %113) #11
  %1444 = invoke noundef ptr @_ZN11xercesc_2_514RefHashTableOfINS_17DatatypeValidatorEE14findBucketElemEPKvRj(ptr noundef nonnull align 8 dereferenceable(48) %1443, ptr noundef nonnull @_ZN11xercesc_2_513SchemaSymbols9fgDT_NAMEE, ptr noundef nonnull align 4 dereferenceable(4) %113)
          to label %1445 unwind label %3850

1445:                                             ; preds = %1442
  %1446 = icmp eq ptr %1444, null
  br i1 %1446, label %1449, label %1447

1447:                                             ; preds = %1445
  %1448 = load ptr, ptr %1444, align 8, !tbaa !76
  br label %1449

1449:                                             ; preds = %1447, %1445
  %1450 = phi ptr [ %1448, %1447 ], [ null, %1445 ]
  call void @llvm.lifetime.end.p0(i64 4, ptr nonnull %113) #11
  br label %1468

1451:                                             ; preds = %1440, %1435
  %1452 = getelementptr inbounds %"class.xercesc_2_5::DatatypeValidatorFactory", ptr %0, i64 0, i32 1
  %1453 = load ptr, ptr %1452, align 8, !tbaa !59
  %1454 = icmp eq ptr %1453, null
  br i1 %1454, label %1468, label %1455

1455:                                             ; preds = %1451
  call void @llvm.lifetime.start.p0(i64 4, ptr nonnull %112) #11
  %1456 = invoke noundef ptr @_ZNK11xercesc_2_514RefHashTableOfINS_17DatatypeValidatorEE14findBucketElemEPKvRj(ptr noundef nonnull align 8 dereferenceable(48) %1453, ptr noundef nonnull @_ZN11xercesc_2_513SchemaSymbols9fgDT_NAMEE, ptr noundef nonnull align 4 dereferenceable(4) %112)
          to label %1457 unwind label %3850

1457:                                             ; preds = %1455
  %1458 = icmp eq ptr %1456, null
  call void @llvm.lifetime.end.p0(i64 4, ptr nonnull %112) #11
  br i1 %1458, label %1468, label %1459

1459:                                             ; preds = %1457
  %1460 = load ptr, ptr %1452, align 8, !tbaa !59
  call void @llvm.lifetime.start.p0(i64 4, ptr nonnull %111) #11
  %1461 = invoke noundef ptr @_ZN11xercesc_2_514RefHashTableOfINS_17DatatypeValidatorEE14findBucketElemEPKvRj(ptr noundef nonnull align 8 dereferenceable(48) %1460, ptr noundef nonnull @_ZN11xercesc_2_513SchemaSymbols9fgDT_NAMEE, ptr noundef nonnull align 4 dereferenceable(4) %111)
          to label %1462 unwind label %3850

1462:                                             ; preds = %1459
  %1463 = icmp eq ptr %1461, null
  br i1 %1463, label %1466, label %1464

1464:                                             ; preds = %1462
  %1465 = load ptr, ptr %1461, align 8, !tbaa !76
  br label %1466

1466:                                             ; preds = %1464, %1462
  %1467 = phi ptr [ %1465, %1464 ], [ null, %1462 ]
  call void @llvm.lifetime.end.p0(i64 4, ptr nonnull %111) #11
  br label %1468

1468:                                             ; preds = %1466, %1457, %1451, %1449
  %1469 = phi ptr [ %1450, %1449 ], [ %1467, %1466 ], [ null, %1451 ], [ null, %1457 ]
  %1470 = load ptr, ptr @_ZN11xercesc_2_516XMLPlatformUtils15fgMemoryManagerE, align 8, !tbaa !70
  invoke void @_ZN11xercesc_2_523NCNameDatatypeValidatorC1EPNS_17DatatypeValidatorEPNS_14RefHashTableOfINS_12KVStringPairEEEPNS_16RefArrayVectorOfItEEiPNS_13MemoryManagerE(ptr noundef nonnull align 8 dereferenceable(128) %1434, ptr noundef %1469, ptr noundef null, ptr noundef null, i32 noundef 0, ptr noundef %1470)
          to label %1471 unwind label %3850

1471:                                             ; preds = %1468
  invoke void @_ZN11xercesc_2_517DatatypeValidator11setTypeNameEPKtS2_(ptr noundef nonnull align 8 dereferenceable(103) %1434, ptr noundef nonnull @_ZN11xercesc_2_513SchemaSymbols11fgDT_NCNAMEE, ptr noundef nonnull @_ZN11xercesc_2_513SchemaSymbols21fgURI_SCHEMAFORSCHEMAE)
          to label %1472 unwind label %3834

1472:                                             ; preds = %1471
  %1473 = load ptr, ptr @_ZN11xercesc_2_524DatatypeValidatorFactory16fBuiltInRegistryE, align 8, !tbaa !70
  %1474 = getelementptr inbounds %"class.xercesc_2_5::RefHashTableOf", ptr %1473, i64 0, i32 3
  %1475 = load i32, ptr %1474, align 8, !tbaa !65
  %1476 = mul i32 %1475, 3
  %1477 = lshr i32 %1476, 2
  %1478 = getelementptr inbounds %"class.xercesc_2_5::RefHashTableOf", ptr %1473, i64 0, i32 5
  %1479 = load i32, ptr %1478, align 8, !tbaa !77
  %1480 = icmp ult i32 %1479, %1477
  br i1 %1480, label %1482, label %1481

1481:                                             ; preds = %1472
  invoke void @_ZN11xercesc_2_514RefHashTableOfINS_17DatatypeValidatorEE6rehashEv(ptr noundef nonnull align 8 dereferenceable(48) %1473)
          to label %1482 unwind label %3834

1482:                                             ; preds = %1481, %1472
  call void @llvm.lifetime.start.p0(i64 4, ptr nonnull %110) #11
  %1483 = invoke noundef ptr @_ZN11xercesc_2_514RefHashTableOfINS_17DatatypeValidatorEE14findBucketElemEPKvRj(ptr noundef nonnull align 8 dereferenceable(48) %1473, ptr noundef nonnull @_ZN11xercesc_2_513SchemaSymbols11fgDT_NCNAMEE, ptr noundef nonnull align 4 dereferenceable(4) %110)
          to label %1484 unwind label %3834

1484:                                             ; preds = %1482
  %1485 = icmp eq ptr %1483, null
  br i1 %1485, label %1499, label %1486

1486:                                             ; preds = %1484
  %1487 = getelementptr inbounds %"class.xercesc_2_5::RefHashTableOf", ptr %1473, i64 0, i32 1
  %1488 = load i8, ptr %1487, align 8, !tbaa !73, !range !74, !noundef !75
  %1489 = icmp eq i8 %1488, 0
  br i1 %1489, label %1497, label %1490

1490:                                             ; preds = %1486
  %1491 = load ptr, ptr %1483, align 8, !tbaa !76
  %1492 = icmp eq ptr %1491, null
  br i1 %1492, label %1497, label %1493

1493:                                             ; preds = %1490
  %1494 = load ptr, ptr %1491, align 8, !tbaa !56
  %1495 = getelementptr inbounds ptr, ptr %1494, i64 1
  %1496 = load ptr, ptr %1495, align 8
  invoke void %1496(ptr noundef nonnull align 8 dereferenceable(103) %1491)
          to label %1497 unwind label %3834

1497:                                             ; preds = %1493, %1490, %1486
  store ptr %1434, ptr %1483, align 8, !tbaa !76
  %1498 = getelementptr inbounds %"struct.xercesc_2_5::RefHashTableBucketElem", ptr %1483, i64 0, i32 2
  store ptr @_ZN11xercesc_2_513SchemaSymbols11fgDT_NCNAMEE, ptr %1498, align 8, !tbaa !85
  br label %1511

1499:                                             ; preds = %1484
  %1500 = load ptr, ptr %1473, align 8, !tbaa !78
  %1501 = invoke noundef ptr @_ZN11xercesc_2_57XMemorynwEmPNS_13MemoryManagerE(i64 noundef 24, ptr noundef %1500)
          to label %1502 unwind label %3834

1502:                                             ; preds = %1499
  %1503 = getelementptr inbounds %"class.xercesc_2_5::RefHashTableOf", ptr %1473, i64 0, i32 2
  %1504 = load ptr, ptr %1503, align 8, !tbaa !69
  %1505 = load i32, ptr %110, align 4, !tbaa !86
  %1506 = zext i32 %1505 to i64
  %1507 = getelementptr inbounds ptr, ptr %1504, i64 %1506
  %1508 = load ptr, ptr %1507, align 8, !tbaa !70
  store ptr %1434, ptr %1501, align 8, !tbaa !76
  %1509 = getelementptr inbounds %"struct.xercesc_2_5::RefHashTableBucketElem", ptr %1501, i64 0, i32 1
  store ptr %1508, ptr %1509, align 8, !tbaa !71
  %1510 = getelementptr inbounds %"struct.xercesc_2_5::RefHashTableBucketElem", ptr %1501, i64 0, i32 2
  store ptr @_ZN11xercesc_2_513SchemaSymbols11fgDT_NCNAMEE, ptr %1510, align 8, !tbaa !85
  store ptr %1501, ptr %1507, align 8, !tbaa !70
  br label %1511

1511:                                             ; preds = %1502, %1497
  %1512 = load i32, ptr %1478, align 8, !tbaa !77
  %1513 = add i32 %1512, 1
  store i32 %1513, ptr %1478, align 8, !tbaa !77
  call void @llvm.lifetime.end.p0(i64 4, ptr nonnull %110) #11
  %1514 = invoke noundef ptr @_ZN11xercesc_2_57XMemorynwEm(i64 noundef 48)
          to label %1515 unwind label %3834

1515:                                             ; preds = %1511
  %1516 = load ptr, ptr @_ZN11xercesc_2_516XMLPlatformUtils15fgMemoryManagerE, align 8, !tbaa !70
  store ptr %1516, ptr %1514, align 8, !tbaa !92
  %1517 = getelementptr inbounds %"class.xercesc_2_5::RefHashTableOf.1", ptr %1514, i64 0, i32 1
  store i8 1, ptr %1517, align 8, !tbaa !94
  %1518 = getelementptr inbounds %"class.xercesc_2_5::RefHashTableOf.1", ptr %1514, i64 0, i32 2
  store ptr null, ptr %1518, align 8, !tbaa !95
  %1519 = getelementptr inbounds %"class.xercesc_2_5::RefHashTableOf.1", ptr %1514, i64 0, i32 3
  store i32 3, ptr %1519, align 8, !tbaa !96
  %1520 = getelementptr inbounds %"class.xercesc_2_5::RefHashTableOf.1", ptr %1514, i64 0, i32 4
  store i32 3, ptr %1520, align 4, !tbaa !97
  %1521 = getelementptr inbounds %"class.xercesc_2_5::RefHashTableOf.1", ptr %1514, i64 0, i32 5
  store i32 0, ptr %1521, align 8, !tbaa !98
  %1522 = getelementptr inbounds %"class.xercesc_2_5::RefHashTableOf.1", ptr %1514, i64 0, i32 6
  store ptr null, ptr %1522, align 8, !tbaa !99
  %1523 = load ptr, ptr %1516, align 8, !tbaa !56
  %1524 = getelementptr inbounds ptr, ptr %1523, i64 2
  %1525 = load ptr, ptr %1524, align 8
  %1526 = invoke noundef ptr %1525(ptr noundef nonnull align 8 dereferenceable(8) %1516, i64 noundef 24)
          to label %1527 unwind label %3852

1527:                                             ; preds = %1515
  store ptr %1526, ptr %1518, align 8, !tbaa !95
  %1528 = load i32, ptr %1519, align 8, !tbaa !96
  %1529 = icmp eq i32 %1528, 0
  br i1 %1529, label %1538, label %1530

1530:                                             ; preds = %1527
  %1531 = zext i32 %1528 to i64
  br label %1532

1532:                                             ; preds = %1532, %1530
  %1533 = phi i64 [ 0, %1530 ], [ %1536, %1532 ]
  %1534 = load ptr, ptr %1518, align 8, !tbaa !95
  %1535 = getelementptr inbounds ptr, ptr %1534, i64 %1533
  store ptr null, ptr %1535, align 8, !tbaa !70
  %1536 = add nuw nsw i64 %1533, 1
  %1537 = icmp eq i64 %1536, %1531
  br i1 %1537, label %1538, label %1532

1538:                                             ; preds = %1532, %1527
  %1539 = load ptr, ptr %1514, align 8, !tbaa !92
  %1540 = invoke noundef ptr @_ZN11xercesc_2_57XMemorynwEmPNS_13MemoryManagerE(i64 noundef 8, ptr noundef %1539)
          to label %1541 unwind label %3852

1541:                                             ; preds = %1538
  invoke void @_ZN11xercesc_2_59HashXMLChC1Ev(ptr noundef nonnull align 8 dereferenceable(8) %1540)
          to label %1547 unwind label %1542

1542:                                             ; preds = %1541
  %1543 = landingpad { ptr, i32 }
          cleanup
  invoke void @_ZN11xercesc_2_57XMemorydlEPvPNS_13MemoryManagerE(ptr noundef %1540, ptr noundef %1539)
          to label %3854 unwind label %1544

1544:                                             ; preds = %1542
  %1545 = landingpad { ptr, i32 }
          catch ptr null
  %1546 = extractvalue { ptr, i32 } %1545, 0
  call void @__clang_call_terminate(ptr %1546) #10
  unreachable

1547:                                             ; preds = %1541
  store ptr %1540, ptr %1522, align 8, !tbaa !99
  %1548 = invoke noundef ptr @_ZN11xercesc_2_57XMemorynwEm(i64 noundef 48)
          to label %1549 unwind label %3834

1549:                                             ; preds = %1547
  %1550 = load ptr, ptr @_ZN11xercesc_2_516XMLPlatformUtils15fgMemoryManagerE, align 8, !tbaa !70
  invoke void @_ZN11xercesc_2_512KVStringPairC1EPKtS2_PNS_13MemoryManagerE(ptr noundef nonnull align 8 dereferenceable(48) %1548, ptr noundef nonnull @_ZN11xercesc_2_513SchemaSymbols13fgELT_PATTERNE, ptr noundef nonnull @_ZN11xercesc_2_5L12fgTokPatternE, ptr noundef %1550)
          to label %1551 unwind label %3856

1551:                                             ; preds = %1549
  %1552 = load i32, ptr %1519, align 8, !tbaa !96
  %1553 = mul i32 %1552, 3
  %1554 = lshr i32 %1553, 2
  %1555 = load i32, ptr %1521, align 8, !tbaa !98
  %1556 = icmp ult i32 %1555, %1554
  br i1 %1556, label %1558, label %1557

1557:                                             ; preds = %1551
  invoke void @_ZN11xercesc_2_514RefHashTableOfINS_12KVStringPairEE6rehashEv(ptr noundef nonnull align 8 dereferenceable(48) %1514)
          to label %1558 unwind label %3834

1558:                                             ; preds = %1557, %1551
  call void @llvm.lifetime.start.p0(i64 4, ptr nonnull %109) #11
  %1559 = invoke noundef ptr @_ZN11xercesc_2_514RefHashTableOfINS_12KVStringPairEE14findBucketElemEPKvRj(ptr noundef nonnull align 8 dereferenceable(48) %1514, ptr noundef nonnull @_ZN11xercesc_2_513SchemaSymbols13fgELT_PATTERNE, ptr noundef nonnull align 4 dereferenceable(4) %109)
          to label %1560 unwind label %3834

1560:                                             ; preds = %1558
  %1561 = icmp eq ptr %1559, null
  br i1 %1561, label %1574, label %1562

1562:                                             ; preds = %1560
  %1563 = load i8, ptr %1517, align 8, !tbaa !94, !range !74, !noundef !75
  %1564 = icmp eq i8 %1563, 0
  br i1 %1564, label %1572, label %1565

1565:                                             ; preds = %1562
  %1566 = load ptr, ptr %1559, align 8, !tbaa !100
  %1567 = icmp eq ptr %1566, null
  br i1 %1567, label %1572, label %1568

1568:                                             ; preds = %1565
  %1569 = load ptr, ptr %1566, align 8, !tbaa !56
  %1570 = getelementptr inbounds ptr, ptr %1569, i64 1
  %1571 = load ptr, ptr %1570, align 8
  invoke void %1571(ptr noundef nonnull align 8 dereferenceable(48) %1566)
          to label %1572 unwind label %3834

1572:                                             ; preds = %1568, %1565, %1562
  store ptr %1548, ptr %1559, align 8, !tbaa !100
  %1573 = getelementptr inbounds %"struct.xercesc_2_5::RefHashTableBucketElem.4", ptr %1559, i64 0, i32 2
  store ptr @_ZN11xercesc_2_513SchemaSymbols13fgELT_PATTERNE, ptr %1573, align 8, !tbaa !102
  br label %1585

1574:                                             ; preds = %1560
  %1575 = load ptr, ptr %1514, align 8, !tbaa !92
  %1576 = invoke noundef ptr @_ZN11xercesc_2_57XMemorynwEmPNS_13MemoryManagerE(i64 noundef 24, ptr noundef %1575)
          to label %1577 unwind label %3834

1577:                                             ; preds = %1574
  %1578 = load ptr, ptr %1518, align 8, !tbaa !95
  %1579 = load i32, ptr %109, align 4, !tbaa !86
  %1580 = zext i32 %1579 to i64
  %1581 = getelementptr inbounds ptr, ptr %1578, i64 %1580
  %1582 = load ptr, ptr %1581, align 8, !tbaa !70
  store ptr %1548, ptr %1576, align 8, !tbaa !100
  %1583 = getelementptr inbounds %"struct.xercesc_2_5::RefHashTableBucketElem.4", ptr %1576, i64 0, i32 1
  store ptr %1582, ptr %1583, align 8, !tbaa !103
  %1584 = getelementptr inbounds %"struct.xercesc_2_5::RefHashTableBucketElem.4", ptr %1576, i64 0, i32 2
  store ptr @_ZN11xercesc_2_513SchemaSymbols13fgELT_PATTERNE, ptr %1584, align 8, !tbaa !102
  store ptr %1576, ptr %1581, align 8, !tbaa !70
  br label %1585

1585:                                             ; preds = %1577, %1572
  %1586 = load i32, ptr %1521, align 8, !tbaa !98
  %1587 = add i32 %1586, 1
  store i32 %1587, ptr %1521, align 8, !tbaa !98
  call void @llvm.lifetime.end.p0(i64 4, ptr nonnull %109) #11
  %1588 = invoke noundef ptr @_ZN11xercesc_2_57XMemorynwEm(i64 noundef 48)
          to label %1589 unwind label %3834

1589:                                             ; preds = %1585
  %1590 = load ptr, ptr @_ZN11xercesc_2_516XMLPlatformUtils15fgMemoryManagerE, align 8, !tbaa !70
  invoke void @_ZN11xercesc_2_512KVStringPairC1EPKtS2_PNS_13MemoryManagerE(ptr noundef nonnull align 8 dereferenceable(48) %1588, ptr noundef nonnull @_ZN11xercesc_2_513SchemaSymbols16fgELT_WHITESPACEE, ptr noundef nonnull @_ZN11xercesc_2_513SchemaSymbols13fgWS_COLLAPSEE, ptr noundef %1590)
          to label %1591 unwind label %3858

1591:                                             ; preds = %1589
  %1592 = load i32, ptr %1519, align 8, !tbaa !96
  %1593 = mul i32 %1592, 3
  %1594 = lshr i32 %1593, 2
  %1595 = load i32, ptr %1521, align 8, !tbaa !98
  %1596 = icmp ult i32 %1595, %1594
  br i1 %1596, label %1598, label %1597

1597:                                             ; preds = %1591
  invoke void @_ZN11xercesc_2_514RefHashTableOfINS_12KVStringPairEE6rehashEv(ptr noundef nonnull align 8 dereferenceable(48) %1514)
          to label %1598 unwind label %3834

1598:                                             ; preds = %1597, %1591
  call void @llvm.lifetime.start.p0(i64 4, ptr nonnull %108) #11
  %1599 = invoke noundef ptr @_ZN11xercesc_2_514RefHashTableOfINS_12KVStringPairEE14findBucketElemEPKvRj(ptr noundef nonnull align 8 dereferenceable(48) %1514, ptr noundef nonnull @_ZN11xercesc_2_513SchemaSymbols16fgELT_WHITESPACEE, ptr noundef nonnull align 4 dereferenceable(4) %108)
          to label %1600 unwind label %3834

1600:                                             ; preds = %1598
  %1601 = icmp eq ptr %1599, null
  br i1 %1601, label %1614, label %1602

1602:                                             ; preds = %1600
  %1603 = load i8, ptr %1517, align 8, !tbaa !94, !range !74, !noundef !75
  %1604 = icmp eq i8 %1603, 0
  br i1 %1604, label %1612, label %1605

1605:                                             ; preds = %1602
  %1606 = load ptr, ptr %1599, align 8, !tbaa !100
  %1607 = icmp eq ptr %1606, null
  br i1 %1607, label %1612, label %1608

1608:                                             ; preds = %1605
  %1609 = load ptr, ptr %1606, align 8, !tbaa !56
  %1610 = getelementptr inbounds ptr, ptr %1609, i64 1
  %1611 = load ptr, ptr %1610, align 8
  invoke void %1611(ptr noundef nonnull align 8 dereferenceable(48) %1606)
          to label %1612 unwind label %3834

1612:                                             ; preds = %1608, %1605, %1602
  store ptr %1588, ptr %1599, align 8, !tbaa !100
  %1613 = getelementptr inbounds %"struct.xercesc_2_5::RefHashTableBucketElem.4", ptr %1599, i64 0, i32 2
  store ptr @_ZN11xercesc_2_513SchemaSymbols16fgELT_WHITESPACEE, ptr %1613, align 8, !tbaa !102
  br label %1625

1614:                                             ; preds = %1600
  %1615 = load ptr, ptr %1514, align 8, !tbaa !92
  %1616 = invoke noundef ptr @_ZN11xercesc_2_57XMemorynwEmPNS_13MemoryManagerE(i64 noundef 24, ptr noundef %1615)
          to label %1617 unwind label %3834

1617:                                             ; preds = %1614
  %1618 = load ptr, ptr %1518, align 8, !tbaa !95
  %1619 = load i32, ptr %108, align 4, !tbaa !86
  %1620 = zext i32 %1619 to i64
  %1621 = getelementptr inbounds ptr, ptr %1618, i64 %1620
  %1622 = load ptr, ptr %1621, align 8, !tbaa !70
  store ptr %1588, ptr %1616, align 8, !tbaa !100
  %1623 = getelementptr inbounds %"struct.xercesc_2_5::RefHashTableBucketElem.4", ptr %1616, i64 0, i32 1
  store ptr %1622, ptr %1623, align 8, !tbaa !103
  %1624 = getelementptr inbounds %"struct.xercesc_2_5::RefHashTableBucketElem.4", ptr %1616, i64 0, i32 2
  store ptr @_ZN11xercesc_2_513SchemaSymbols16fgELT_WHITESPACEE, ptr %1624, align 8, !tbaa !102
  store ptr %1616, ptr %1621, align 8, !tbaa !70
  br label %1625

1625:                                             ; preds = %1617, %1612
  %1626 = load i32, ptr %1521, align 8, !tbaa !98
  %1627 = add i32 %1626, 1
  store i32 %1627, ptr %1521, align 8, !tbaa !98
  call void @llvm.lifetime.end.p0(i64 4, ptr nonnull %108) #11
  %1628 = load ptr, ptr @_ZN11xercesc_2_524DatatypeValidatorFactory16fBuiltInRegistryE, align 8, !tbaa !70
  %1629 = icmp eq ptr %1628, null
  br i1 %1629, label %1643, label %1630

1630:                                             ; preds = %1625
  call void @llvm.lifetime.start.p0(i64 4, ptr nonnull %107) #11
  %1631 = invoke noundef ptr @_ZNK11xercesc_2_514RefHashTableOfINS_17DatatypeValidatorEE14findBucketElemEPKvRj(ptr noundef nonnull align 8 dereferenceable(48) %1628, ptr noundef nonnull @_ZN11xercesc_2_513SchemaSymbols10fgDT_TOKENE, ptr noundef nonnull align 4 dereferenceable(4) %107)
          to label %1632 unwind label %3834

1632:                                             ; preds = %1630
  %1633 = icmp eq ptr %1631, null
  call void @llvm.lifetime.end.p0(i64 4, ptr nonnull %107) #11
  br i1 %1633, label %1643, label %1634

1634:                                             ; preds = %1632
  %1635 = load ptr, ptr @_ZN11xercesc_2_524DatatypeValidatorFactory16fBuiltInRegistryE, align 8, !tbaa !70
  call void @llvm.lifetime.start.p0(i64 4, ptr nonnull %106) #11
  %1636 = invoke noundef ptr @_ZN11xercesc_2_514RefHashTableOfINS_17DatatypeValidatorEE14findBucketElemEPKvRj(ptr noundef nonnull align 8 dereferenceable(48) %1635, ptr noundef nonnull @_ZN11xercesc_2_513SchemaSymbols10fgDT_TOKENE, ptr noundef nonnull align 4 dereferenceable(4) %106)
          to label %1637 unwind label %3834

1637:                                             ; preds = %1634
  %1638 = icmp eq ptr %1636, null
  br i1 %1638, label %1641, label %1639

1639:                                             ; preds = %1637
  %1640 = load ptr, ptr %1636, align 8, !tbaa !76
  br label %1641

1641:                                             ; preds = %1639, %1637
  %1642 = phi ptr [ %1640, %1639 ], [ null, %1637 ]
  call void @llvm.lifetime.end.p0(i64 4, ptr nonnull %106) #11
  br label %1660

1643:                                             ; preds = %1632, %1625
  %1644 = getelementptr inbounds %"class.xercesc_2_5::DatatypeValidatorFactory", ptr %0, i64 0, i32 1
  %1645 = load ptr, ptr %1644, align 8, !tbaa !59
  %1646 = icmp eq ptr %1645, null
  br i1 %1646, label %1660, label %1647

1647:                                             ; preds = %1643
  call void @llvm.lifetime.start.p0(i64 4, ptr nonnull %105) #11
  %1648 = invoke noundef ptr @_ZNK11xercesc_2_514RefHashTableOfINS_17DatatypeValidatorEE14findBucketElemEPKvRj(ptr noundef nonnull align 8 dereferenceable(48) %1645, ptr noundef nonnull @_ZN11xercesc_2_513SchemaSymbols10fgDT_TOKENE, ptr noundef nonnull align 4 dereferenceable(4) %105)
          to label %1649 unwind label %3834

1649:                                             ; preds = %1647
  %1650 = icmp eq ptr %1648, null
  call void @llvm.lifetime.end.p0(i64 4, ptr nonnull %105) #11
  br i1 %1650, label %1660, label %1651

1651:                                             ; preds = %1649
  %1652 = load ptr, ptr %1644, align 8, !tbaa !59
  call void @llvm.lifetime.start.p0(i64 4, ptr nonnull %104) #11
  %1653 = invoke noundef ptr @_ZN11xercesc_2_514RefHashTableOfINS_17DatatypeValidatorEE14findBucketElemEPKvRj(ptr noundef nonnull align 8 dereferenceable(48) %1652, ptr noundef nonnull @_ZN11xercesc_2_513SchemaSymbols10fgDT_TOKENE, ptr noundef nonnull align 4 dereferenceable(4) %104)
          to label %1654 unwind label %3834

1654:                                             ; preds = %1651
  %1655 = icmp eq ptr %1653, null
  br i1 %1655, label %1658, label %1656

1656:                                             ; preds = %1654
  %1657 = load ptr, ptr %1653, align 8, !tbaa !76
  br label %1658

1658:                                             ; preds = %1656, %1654
  %1659 = phi ptr [ %1657, %1656 ], [ null, %1654 ]
  call void @llvm.lifetime.end.p0(i64 4, ptr nonnull %104) #11
  br label %1660

1660:                                             ; preds = %1658, %1649, %1643, %1641
  %1661 = phi ptr [ %1642, %1641 ], [ %1659, %1658 ], [ null, %1643 ], [ null, %1649 ]
  %1662 = load ptr, ptr @_ZN11xercesc_2_516XMLPlatformUtils15fgMemoryManagerE, align 8, !tbaa !70
  %1663 = invoke noundef ptr @_ZN11xercesc_2_524DatatypeValidatorFactory23createDatatypeValidatorEPKtPNS_17DatatypeValidatorEPNS_14RefHashTableOfINS_12KVStringPairEEEPNS_16RefArrayVectorOfItEEbibPNS_13MemoryManagerE(ptr noundef nonnull align 8 dereferenceable(24) %0, ptr noundef nonnull @_ZN11xercesc_2_56XMLUni15fgNmTokenStringE, ptr noundef %1661, ptr noundef nonnull %1514, ptr noundef null, i1 noundef zeroext false, i32 noundef 0, i1 noundef zeroext false, ptr noundef %1662)
          to label %1664 unwind label %3834

1664:                                             ; preds = %1660
  %1665 = load ptr, ptr @_ZN11xercesc_2_524DatatypeValidatorFactory16fBuiltInRegistryE, align 8, !tbaa !70
  %1666 = icmp eq ptr %1665, null
  br i1 %1666, label %1680, label %1667

1667:                                             ; preds = %1664
  call void @llvm.lifetime.start.p0(i64 4, ptr nonnull %103) #11
  %1668 = invoke noundef ptr @_ZNK11xercesc_2_514RefHashTableOfINS_17DatatypeValidatorEE14findBucketElemEPKvRj(ptr noundef nonnull align 8 dereferenceable(48) %1665, ptr noundef nonnull @_ZN11xercesc_2_56XMLUni15fgNmTokenStringE, ptr noundef nonnull align 4 dereferenceable(4) %103)
          to label %1669 unwind label %3834

1669:                                             ; preds = %1667
  %1670 = icmp eq ptr %1668, null
  call void @llvm.lifetime.end.p0(i64 4, ptr nonnull %103) #11
  br i1 %1670, label %1680, label %1671

1671:                                             ; preds = %1669
  %1672 = load ptr, ptr @_ZN11xercesc_2_524DatatypeValidatorFactory16fBuiltInRegistryE, align 8, !tbaa !70
  call void @llvm.lifetime.start.p0(i64 4, ptr nonnull %102) #11
  %1673 = invoke noundef ptr @_ZN11xercesc_2_514RefHashTableOfINS_17DatatypeValidatorEE14findBucketElemEPKvRj(ptr noundef nonnull align 8 dereferenceable(48) %1672, ptr noundef nonnull @_ZN11xercesc_2_56XMLUni15fgNmTokenStringE, ptr noundef nonnull align 4 dereferenceable(4) %102)
          to label %1674 unwind label %3834

1674:                                             ; preds = %1671
  %1675 = icmp eq ptr %1673, null
  br i1 %1675, label %1678, label %1676

1676:                                             ; preds = %1674
  %1677 = load ptr, ptr %1673, align 8, !tbaa !76
  br label %1678

1678:                                             ; preds = %1676, %1674
  %1679 = phi ptr [ %1677, %1676 ], [ null, %1674 ]
  call void @llvm.lifetime.end.p0(i64 4, ptr nonnull %102) #11
  br label %1697

1680:                                             ; preds = %1669, %1664
  %1681 = getelementptr inbounds %"class.xercesc_2_5::DatatypeValidatorFactory", ptr %0, i64 0, i32 1
  %1682 = load ptr, ptr %1681, align 8, !tbaa !59
  %1683 = icmp eq ptr %1682, null
  br i1 %1683, label %1697, label %1684

1684:                                             ; preds = %1680
  call void @llvm.lifetime.start.p0(i64 4, ptr nonnull %101) #11
  %1685 = invoke noundef ptr @_ZNK11xercesc_2_514RefHashTableOfINS_17DatatypeValidatorEE14findBucketElemEPKvRj(ptr noundef nonnull align 8 dereferenceable(48) %1682, ptr noundef nonnull @_ZN11xercesc_2_56XMLUni15fgNmTokenStringE, ptr noundef nonnull align 4 dereferenceable(4) %101)
          to label %1686 unwind label %3834

1686:                                             ; preds = %1684
  %1687 = icmp eq ptr %1685, null
  call void @llvm.lifetime.end.p0(i64 4, ptr nonnull %101) #11
  br i1 %1687, label %1697, label %1688

1688:                                             ; preds = %1686
  %1689 = load ptr, ptr %1681, align 8, !tbaa !59
  call void @llvm.lifetime.start.p0(i64 4, ptr nonnull %100) #11
  %1690 = invoke noundef ptr @_ZN11xercesc_2_514RefHashTableOfINS_17DatatypeValidatorEE14findBucketElemEPKvRj(ptr noundef nonnull align 8 dereferenceable(48) %1689, ptr noundef nonnull @_ZN11xercesc_2_56XMLUni15fgNmTokenStringE, ptr noundef nonnull align 4 dereferenceable(4) %100)
          to label %1691 unwind label %3834

1691:                                             ; preds = %1688
  %1692 = icmp eq ptr %1690, null
  br i1 %1692, label %1695, label %1693

1693:                                             ; preds = %1691
  %1694 = load ptr, ptr %1690, align 8, !tbaa !76
  br label %1695

1695:                                             ; preds = %1693, %1691
  %1696 = phi ptr [ %1694, %1693 ], [ null, %1691 ]
  call void @llvm.lifetime.end.p0(i64 4, ptr nonnull %100) #11
  br label %1697

1697:                                             ; preds = %1695, %1686, %1680, %1678
  %1698 = phi ptr [ %1679, %1678 ], [ %1696, %1695 ], [ null, %1680 ], [ null, %1686 ]
  %1699 = load ptr, ptr @_ZN11xercesc_2_516XMLPlatformUtils15fgMemoryManagerE, align 8, !tbaa !70
  %1700 = invoke noundef ptr @_ZN11xercesc_2_524DatatypeValidatorFactory23createDatatypeValidatorEPKtPNS_17DatatypeValidatorEPNS_14RefHashTableOfINS_12KVStringPairEEEPNS_16RefArrayVectorOfItEEbibPNS_13MemoryManagerE(ptr noundef nonnull align 8 dereferenceable(24) %0, ptr noundef nonnull @_ZN11xercesc_2_56XMLUni16fgNmTokensStringE, ptr noundef %1698, ptr noundef null, ptr noundef null, i1 noundef zeroext true, i32 noundef 0, i1 noundef zeroext false, ptr noundef %1699)
          to label %1701 unwind label %3834

1701:                                             ; preds = %1697
  %1702 = invoke noundef ptr @_ZN11xercesc_2_57XMemorynwEm(i64 noundef 48)
          to label %1703 unwind label %3834

1703:                                             ; preds = %1701
  %1704 = load ptr, ptr @_ZN11xercesc_2_516XMLPlatformUtils15fgMemoryManagerE, align 8, !tbaa !70
  store ptr %1704, ptr %1702, align 8, !tbaa !92
  %1705 = getelementptr inbounds %"class.xercesc_2_5::RefHashTableOf.1", ptr %1702, i64 0, i32 1
  store i8 1, ptr %1705, align 8, !tbaa !94
  %1706 = getelementptr inbounds %"class.xercesc_2_5::RefHashTableOf.1", ptr %1702, i64 0, i32 2
  store ptr null, ptr %1706, align 8, !tbaa !95
  %1707 = getelementptr inbounds %"class.xercesc_2_5::RefHashTableOf.1", ptr %1702, i64 0, i32 3
  store i32 3, ptr %1707, align 8, !tbaa !96
  %1708 = getelementptr inbounds %"class.xercesc_2_5::RefHashTableOf.1", ptr %1702, i64 0, i32 4
  store i32 3, ptr %1708, align 4, !tbaa !97
  %1709 = getelementptr inbounds %"class.xercesc_2_5::RefHashTableOf.1", ptr %1702, i64 0, i32 5
  store i32 0, ptr %1709, align 8, !tbaa !98
  %1710 = getelementptr inbounds %"class.xercesc_2_5::RefHashTableOf.1", ptr %1702, i64 0, i32 6
  store ptr null, ptr %1710, align 8, !tbaa !99
  %1711 = load ptr, ptr %1704, align 8, !tbaa !56
  %1712 = getelementptr inbounds ptr, ptr %1711, i64 2
  %1713 = load ptr, ptr %1712, align 8
  %1714 = invoke noundef ptr %1713(ptr noundef nonnull align 8 dereferenceable(8) %1704, i64 noundef 24)
          to label %1715 unwind label %3860

1715:                                             ; preds = %1703
  store ptr %1714, ptr %1706, align 8, !tbaa !95
  %1716 = load i32, ptr %1707, align 8, !tbaa !96
  %1717 = icmp eq i32 %1716, 0
  br i1 %1717, label %1726, label %1718

1718:                                             ; preds = %1715
  %1719 = zext i32 %1716 to i64
  br label %1720

1720:                                             ; preds = %1720, %1718
  %1721 = phi i64 [ 0, %1718 ], [ %1724, %1720 ]
  %1722 = load ptr, ptr %1706, align 8, !tbaa !95
  %1723 = getelementptr inbounds ptr, ptr %1722, i64 %1721
  store ptr null, ptr %1723, align 8, !tbaa !70
  %1724 = add nuw nsw i64 %1721, 1
  %1725 = icmp eq i64 %1724, %1719
  br i1 %1725, label %1726, label %1720

1726:                                             ; preds = %1720, %1715
  %1727 = load ptr, ptr %1702, align 8, !tbaa !92
  %1728 = invoke noundef ptr @_ZN11xercesc_2_57XMemorynwEmPNS_13MemoryManagerE(i64 noundef 8, ptr noundef %1727)
          to label %1729 unwind label %3860

1729:                                             ; preds = %1726
  invoke void @_ZN11xercesc_2_59HashXMLChC1Ev(ptr noundef nonnull align 8 dereferenceable(8) %1728)
          to label %1735 unwind label %1730

1730:                                             ; preds = %1729
  %1731 = landingpad { ptr, i32 }
          cleanup
  invoke void @_ZN11xercesc_2_57XMemorydlEPvPNS_13MemoryManagerE(ptr noundef %1728, ptr noundef %1727)
          to label %3862 unwind label %1732

1732:                                             ; preds = %1730
  %1733 = landingpad { ptr, i32 }
          catch ptr null
  %1734 = extractvalue { ptr, i32 } %1733, 0
  call void @__clang_call_terminate(ptr %1734) #10
  unreachable

1735:                                             ; preds = %1729
  store ptr %1728, ptr %1710, align 8, !tbaa !99
  %1736 = invoke noundef ptr @_ZN11xercesc_2_57XMemorynwEm(i64 noundef 48)
          to label %1737 unwind label %3834

1737:                                             ; preds = %1735
  %1738 = load ptr, ptr @_ZN11xercesc_2_516XMLPlatformUtils15fgMemoryManagerE, align 8, !tbaa !70
  invoke void @_ZN11xercesc_2_512KVStringPairC1EPKtS2_PNS_13MemoryManagerE(ptr noundef nonnull align 8 dereferenceable(48) %1736, ptr noundef nonnull @_ZN11xercesc_2_513SchemaSymbols13fgELT_PATTERNE, ptr noundef nonnull @_ZN11xercesc_2_5L13fgLangPatternE, ptr noundef %1738)
          to label %1739 unwind label %3864

1739:                                             ; preds = %1737
  %1740 = load i32, ptr %1707, align 8, !tbaa !96
  %1741 = mul i32 %1740, 3
  %1742 = lshr i32 %1741, 2
  %1743 = load i32, ptr %1709, align 8, !tbaa !98
  %1744 = icmp ult i32 %1743, %1742
  br i1 %1744, label %1746, label %1745

1745:                                             ; preds = %1739
  invoke void @_ZN11xercesc_2_514RefHashTableOfINS_12KVStringPairEE6rehashEv(ptr noundef nonnull align 8 dereferenceable(48) %1702)
          to label %1746 unwind label %3834

1746:                                             ; preds = %1745, %1739
  call void @llvm.lifetime.start.p0(i64 4, ptr nonnull %99) #11
  %1747 = invoke noundef ptr @_ZN11xercesc_2_514RefHashTableOfINS_12KVStringPairEE14findBucketElemEPKvRj(ptr noundef nonnull align 8 dereferenceable(48) %1702, ptr noundef nonnull @_ZN11xercesc_2_513SchemaSymbols13fgELT_PATTERNE, ptr noundef nonnull align 4 dereferenceable(4) %99)
          to label %1748 unwind label %3834

1748:                                             ; preds = %1746
  %1749 = icmp eq ptr %1747, null
  br i1 %1749, label %1762, label %1750

1750:                                             ; preds = %1748
  %1751 = load i8, ptr %1705, align 8, !tbaa !94, !range !74, !noundef !75
  %1752 = icmp eq i8 %1751, 0
  br i1 %1752, label %1760, label %1753

1753:                                             ; preds = %1750
  %1754 = load ptr, ptr %1747, align 8, !tbaa !100
  %1755 = icmp eq ptr %1754, null
  br i1 %1755, label %1760, label %1756

1756:                                             ; preds = %1753
  %1757 = load ptr, ptr %1754, align 8, !tbaa !56
  %1758 = getelementptr inbounds ptr, ptr %1757, i64 1
  %1759 = load ptr, ptr %1758, align 8
  invoke void %1759(ptr noundef nonnull align 8 dereferenceable(48) %1754)
          to label %1760 unwind label %3834

1760:                                             ; preds = %1756, %1753, %1750
  store ptr %1736, ptr %1747, align 8, !tbaa !100
  %1761 = getelementptr inbounds %"struct.xercesc_2_5::RefHashTableBucketElem.4", ptr %1747, i64 0, i32 2
  store ptr @_ZN11xercesc_2_513SchemaSymbols13fgELT_PATTERNE, ptr %1761, align 8, !tbaa !102
  br label %1773

1762:                                             ; preds = %1748
  %1763 = load ptr, ptr %1702, align 8, !tbaa !92
  %1764 = invoke noundef ptr @_ZN11xercesc_2_57XMemorynwEmPNS_13MemoryManagerE(i64 noundef 24, ptr noundef %1763)
          to label %1765 unwind label %3834

1765:                                             ; preds = %1762
  %1766 = load ptr, ptr %1706, align 8, !tbaa !95
  %1767 = load i32, ptr %99, align 4, !tbaa !86
  %1768 = zext i32 %1767 to i64
  %1769 = getelementptr inbounds ptr, ptr %1766, i64 %1768
  %1770 = load ptr, ptr %1769, align 8, !tbaa !70
  store ptr %1736, ptr %1764, align 8, !tbaa !100
  %1771 = getelementptr inbounds %"struct.xercesc_2_5::RefHashTableBucketElem.4", ptr %1764, i64 0, i32 1
  store ptr %1770, ptr %1771, align 8, !tbaa !103
  %1772 = getelementptr inbounds %"struct.xercesc_2_5::RefHashTableBucketElem.4", ptr %1764, i64 0, i32 2
  store ptr @_ZN11xercesc_2_513SchemaSymbols13fgELT_PATTERNE, ptr %1772, align 8, !tbaa !102
  store ptr %1764, ptr %1769, align 8, !tbaa !70
  br label %1773

1773:                                             ; preds = %1765, %1760
  %1774 = load i32, ptr %1709, align 8, !tbaa !98
  %1775 = add i32 %1774, 1
  store i32 %1775, ptr %1709, align 8, !tbaa !98
  call void @llvm.lifetime.end.p0(i64 4, ptr nonnull %99) #11
  %1776 = load ptr, ptr @_ZN11xercesc_2_524DatatypeValidatorFactory16fBuiltInRegistryE, align 8, !tbaa !70
  %1777 = icmp eq ptr %1776, null
  br i1 %1777, label %1791, label %1778

1778:                                             ; preds = %1773
  call void @llvm.lifetime.start.p0(i64 4, ptr nonnull %98) #11
  %1779 = invoke noundef ptr @_ZNK11xercesc_2_514RefHashTableOfINS_17DatatypeValidatorEE14findBucketElemEPKvRj(ptr noundef nonnull align 8 dereferenceable(48) %1776, ptr noundef nonnull @_ZN11xercesc_2_513SchemaSymbols10fgDT_TOKENE, ptr noundef nonnull align 4 dereferenceable(4) %98)
          to label %1780 unwind label %3834

1780:                                             ; preds = %1778
  %1781 = icmp eq ptr %1779, null
  call void @llvm.lifetime.end.p0(i64 4, ptr nonnull %98) #11
  br i1 %1781, label %1791, label %1782

1782:                                             ; preds = %1780
  %1783 = load ptr, ptr @_ZN11xercesc_2_524DatatypeValidatorFactory16fBuiltInRegistryE, align 8, !tbaa !70
  call void @llvm.lifetime.start.p0(i64 4, ptr nonnull %97) #11
  %1784 = invoke noundef ptr @_ZN11xercesc_2_514RefHashTableOfINS_17DatatypeValidatorEE14findBucketElemEPKvRj(ptr noundef nonnull align 8 dereferenceable(48) %1783, ptr noundef nonnull @_ZN11xercesc_2_513SchemaSymbols10fgDT_TOKENE, ptr noundef nonnull align 4 dereferenceable(4) %97)
          to label %1785 unwind label %3834

1785:                                             ; preds = %1782
  %1786 = icmp eq ptr %1784, null
  br i1 %1786, label %1789, label %1787

1787:                                             ; preds = %1785
  %1788 = load ptr, ptr %1784, align 8, !tbaa !76
  br label %1789

1789:                                             ; preds = %1787, %1785
  %1790 = phi ptr [ %1788, %1787 ], [ null, %1785 ]
  call void @llvm.lifetime.end.p0(i64 4, ptr nonnull %97) #11
  br label %1808

1791:                                             ; preds = %1780, %1773
  %1792 = getelementptr inbounds %"class.xercesc_2_5::DatatypeValidatorFactory", ptr %0, i64 0, i32 1
  %1793 = load ptr, ptr %1792, align 8, !tbaa !59
  %1794 = icmp eq ptr %1793, null
  br i1 %1794, label %1808, label %1795

1795:                                             ; preds = %1791
  call void @llvm.lifetime.start.p0(i64 4, ptr nonnull %96) #11
  %1796 = invoke noundef ptr @_ZNK11xercesc_2_514RefHashTableOfINS_17DatatypeValidatorEE14findBucketElemEPKvRj(ptr noundef nonnull align 8 dereferenceable(48) %1793, ptr noundef nonnull @_ZN11xercesc_2_513SchemaSymbols10fgDT_TOKENE, ptr noundef nonnull align 4 dereferenceable(4) %96)
          to label %1797 unwind label %3834

1797:                                             ; preds = %1795
  %1798 = icmp eq ptr %1796, null
  call void @llvm.lifetime.end.p0(i64 4, ptr nonnull %96) #11
  br i1 %1798, label %1808, label %1799

1799:                                             ; preds = %1797
  %1800 = load ptr, ptr %1792, align 8, !tbaa !59
  call void @llvm.lifetime.start.p0(i64 4, ptr nonnull %95) #11
  %1801 = invoke noundef ptr @_ZN11xercesc_2_514RefHashTableOfINS_17DatatypeValidatorEE14findBucketElemEPKvRj(ptr noundef nonnull align 8 dereferenceable(48) %1800, ptr noundef nonnull @_ZN11xercesc_2_513SchemaSymbols10fgDT_TOKENE, ptr noundef nonnull align 4 dereferenceable(4) %95)
          to label %1802 unwind label %3834

1802:                                             ; preds = %1799
  %1803 = icmp eq ptr %1801, null
  br i1 %1803, label %1806, label %1804

1804:                                             ; preds = %1802
  %1805 = load ptr, ptr %1801, align 8, !tbaa !76
  br label %1806

1806:                                             ; preds = %1804, %1802
  %1807 = phi ptr [ %1805, %1804 ], [ null, %1802 ]
  call void @llvm.lifetime.end.p0(i64 4, ptr nonnull %95) #11
  br label %1808

1808:                                             ; preds = %1806, %1797, %1791, %1789
  %1809 = phi ptr [ %1790, %1789 ], [ %1807, %1806 ], [ null, %1791 ], [ null, %1797 ]
  %1810 = load ptr, ptr @_ZN11xercesc_2_516XMLPlatformUtils15fgMemoryManagerE, align 8, !tbaa !70
  %1811 = invoke noundef ptr @_ZN11xercesc_2_524DatatypeValidatorFactory23createDatatypeValidatorEPKtPNS_17DatatypeValidatorEPNS_14RefHashTableOfINS_12KVStringPairEEEPNS_16RefArrayVectorOfItEEbibPNS_13MemoryManagerE(ptr noundef nonnull align 8 dereferenceable(24) %0, ptr noundef nonnull @_ZN11xercesc_2_513SchemaSymbols13fgDT_LANGUAGEE, ptr noundef %1809, ptr noundef nonnull %1702, ptr noundef null, i1 noundef zeroext false, i32 noundef 0, i1 noundef zeroext false, ptr noundef %1810)
          to label %1812 unwind label %3834

1812:                                             ; preds = %1808
  %1813 = invoke noundef ptr @_ZN11xercesc_2_57XMemorynwEm(i64 noundef 48)
          to label %1814 unwind label %3834

1814:                                             ; preds = %1812
  %1815 = load ptr, ptr @_ZN11xercesc_2_516XMLPlatformUtils15fgMemoryManagerE, align 8, !tbaa !70
  store ptr %1815, ptr %1813, align 8, !tbaa !92
  %1816 = getelementptr inbounds %"class.xercesc_2_5::RefHashTableOf.1", ptr %1813, i64 0, i32 1
  store i8 1, ptr %1816, align 8, !tbaa !94
  %1817 = getelementptr inbounds %"class.xercesc_2_5::RefHashTableOf.1", ptr %1813, i64 0, i32 2
  store ptr null, ptr %1817, align 8, !tbaa !95
  %1818 = getelementptr inbounds %"class.xercesc_2_5::RefHashTableOf.1", ptr %1813, i64 0, i32 3
  store i32 3, ptr %1818, align 8, !tbaa !96
  %1819 = getelementptr inbounds %"class.xercesc_2_5::RefHashTableOf.1", ptr %1813, i64 0, i32 4
  store i32 3, ptr %1819, align 4, !tbaa !97
  %1820 = getelementptr inbounds %"class.xercesc_2_5::RefHashTableOf.1", ptr %1813, i64 0, i32 5
  store i32 0, ptr %1820, align 8, !tbaa !98
  %1821 = getelementptr inbounds %"class.xercesc_2_5::RefHashTableOf.1", ptr %1813, i64 0, i32 6
  store ptr null, ptr %1821, align 8, !tbaa !99
  %1822 = load ptr, ptr %1815, align 8, !tbaa !56
  %1823 = getelementptr inbounds ptr, ptr %1822, i64 2
  %1824 = load ptr, ptr %1823, align 8
  %1825 = invoke noundef ptr %1824(ptr noundef nonnull align 8 dereferenceable(8) %1815, i64 noundef 24)
          to label %1826 unwind label %3866

1826:                                             ; preds = %1814
  store ptr %1825, ptr %1817, align 8, !tbaa !95
  %1827 = load i32, ptr %1818, align 8, !tbaa !96
  %1828 = icmp eq i32 %1827, 0
  br i1 %1828, label %1837, label %1829

1829:                                             ; preds = %1826
  %1830 = zext i32 %1827 to i64
  br label %1831

1831:                                             ; preds = %1831, %1829
  %1832 = phi i64 [ 0, %1829 ], [ %1835, %1831 ]
  %1833 = load ptr, ptr %1817, align 8, !tbaa !95
  %1834 = getelementptr inbounds ptr, ptr %1833, i64 %1832
  store ptr null, ptr %1834, align 8, !tbaa !70
  %1835 = add nuw nsw i64 %1832, 1
  %1836 = icmp eq i64 %1835, %1830
  br i1 %1836, label %1837, label %1831

1837:                                             ; preds = %1831, %1826
  %1838 = load ptr, ptr %1813, align 8, !tbaa !92
  %1839 = invoke noundef ptr @_ZN11xercesc_2_57XMemorynwEmPNS_13MemoryManagerE(i64 noundef 8, ptr noundef %1838)
          to label %1840 unwind label %3866

1840:                                             ; preds = %1837
  invoke void @_ZN11xercesc_2_59HashXMLChC1Ev(ptr noundef nonnull align 8 dereferenceable(8) %1839)
          to label %1846 unwind label %1841

1841:                                             ; preds = %1840
  %1842 = landingpad { ptr, i32 }
          cleanup
  invoke void @_ZN11xercesc_2_57XMemorydlEPvPNS_13MemoryManagerE(ptr noundef %1839, ptr noundef %1838)
          to label %3868 unwind label %1843

1843:                                             ; preds = %1841
  %1844 = landingpad { ptr, i32 }
          catch ptr null
  %1845 = extractvalue { ptr, i32 } %1844, 0
  call void @__clang_call_terminate(ptr %1845) #10
  unreachable

1846:                                             ; preds = %1840
  store ptr %1839, ptr %1821, align 8, !tbaa !99
  %1847 = invoke noundef ptr @_ZN11xercesc_2_57XMemorynwEm(i64 noundef 48)
          to label %1848 unwind label %3834

1848:                                             ; preds = %1846
  %1849 = load ptr, ptr @_ZN11xercesc_2_516XMLPlatformUtils15fgMemoryManagerE, align 8, !tbaa !70
  invoke void @_ZN11xercesc_2_512KVStringPairC1EPKtS2_PNS_13MemoryManagerE(ptr noundef nonnull align 8 dereferenceable(48) %1847, ptr noundef nonnull @_ZN11xercesc_2_513SchemaSymbols20fgELT_FRACTIONDIGITSE, ptr noundef nonnull @_ZN11xercesc_2_5L11fgValueZeroE, ptr noundef %1849)
          to label %1850 unwind label %3870

1850:                                             ; preds = %1848
  %1851 = load i32, ptr %1818, align 8, !tbaa !96
  %1852 = mul i32 %1851, 3
  %1853 = lshr i32 %1852, 2
  %1854 = load i32, ptr %1820, align 8, !tbaa !98
  %1855 = icmp ult i32 %1854, %1853
  br i1 %1855, label %1857, label %1856

1856:                                             ; preds = %1850
  invoke void @_ZN11xercesc_2_514RefHashTableOfINS_12KVStringPairEE6rehashEv(ptr noundef nonnull align 8 dereferenceable(48) %1813)
          to label %1857 unwind label %3834

1857:                                             ; preds = %1856, %1850
  call void @llvm.lifetime.start.p0(i64 4, ptr nonnull %94) #11
  %1858 = invoke noundef ptr @_ZN11xercesc_2_514RefHashTableOfINS_12KVStringPairEE14findBucketElemEPKvRj(ptr noundef nonnull align 8 dereferenceable(48) %1813, ptr noundef nonnull @_ZN11xercesc_2_513SchemaSymbols20fgELT_FRACTIONDIGITSE, ptr noundef nonnull align 4 dereferenceable(4) %94)
          to label %1859 unwind label %3834

1859:                                             ; preds = %1857
  %1860 = icmp eq ptr %1858, null
  br i1 %1860, label %1873, label %1861

1861:                                             ; preds = %1859
  %1862 = load i8, ptr %1816, align 8, !tbaa !94, !range !74, !noundef !75
  %1863 = icmp eq i8 %1862, 0
  br i1 %1863, label %1871, label %1864

1864:                                             ; preds = %1861
  %1865 = load ptr, ptr %1858, align 8, !tbaa !100
  %1866 = icmp eq ptr %1865, null
  br i1 %1866, label %1871, label %1867

1867:                                             ; preds = %1864
  %1868 = load ptr, ptr %1865, align 8, !tbaa !56
  %1869 = getelementptr inbounds ptr, ptr %1868, i64 1
  %1870 = load ptr, ptr %1869, align 8
  invoke void %1870(ptr noundef nonnull align 8 dereferenceable(48) %1865)
          to label %1871 unwind label %3834

1871:                                             ; preds = %1867, %1864, %1861
  store ptr %1847, ptr %1858, align 8, !tbaa !100
  %1872 = getelementptr inbounds %"struct.xercesc_2_5::RefHashTableBucketElem.4", ptr %1858, i64 0, i32 2
  store ptr @_ZN11xercesc_2_513SchemaSymbols20fgELT_FRACTIONDIGITSE, ptr %1872, align 8, !tbaa !102
  br label %1884

1873:                                             ; preds = %1859
  %1874 = load ptr, ptr %1813, align 8, !tbaa !92
  %1875 = invoke noundef ptr @_ZN11xercesc_2_57XMemorynwEmPNS_13MemoryManagerE(i64 noundef 24, ptr noundef %1874)
          to label %1876 unwind label %3834

1876:                                             ; preds = %1873
  %1877 = load ptr, ptr %1817, align 8, !tbaa !95
  %1878 = load i32, ptr %94, align 4, !tbaa !86
  %1879 = zext i32 %1878 to i64
  %1880 = getelementptr inbounds ptr, ptr %1877, i64 %1879
  %1881 = load ptr, ptr %1880, align 8, !tbaa !70
  store ptr %1847, ptr %1875, align 8, !tbaa !100
  %1882 = getelementptr inbounds %"struct.xercesc_2_5::RefHashTableBucketElem.4", ptr %1875, i64 0, i32 1
  store ptr %1881, ptr %1882, align 8, !tbaa !103
  %1883 = getelementptr inbounds %"struct.xercesc_2_5::RefHashTableBucketElem.4", ptr %1875, i64 0, i32 2
  store ptr @_ZN11xercesc_2_513SchemaSymbols20fgELT_FRACTIONDIGITSE, ptr %1883, align 8, !tbaa !102
  store ptr %1875, ptr %1880, align 8, !tbaa !70
  br label %1884

1884:                                             ; preds = %1876, %1871
  %1885 = load i32, ptr %1820, align 8, !tbaa !98
  %1886 = add i32 %1885, 1
  store i32 %1886, ptr %1820, align 8, !tbaa !98
  call void @llvm.lifetime.end.p0(i64 4, ptr nonnull %94) #11
  %1887 = invoke noundef ptr @_ZN11xercesc_2_57XMemorynwEm(i64 noundef 48)
          to label %1888 unwind label %3834

1888:                                             ; preds = %1884
  %1889 = load ptr, ptr @_ZN11xercesc_2_516XMLPlatformUtils15fgMemoryManagerE, align 8, !tbaa !70
  invoke void @_ZN11xercesc_2_512KVStringPairC1EPKtS2_PNS_13MemoryManagerE(ptr noundef nonnull align 8 dereferenceable(48) %1887, ptr noundef nonnull @_ZN11xercesc_2_513SchemaSymbols13fgELT_PATTERNE, ptr noundef nonnull @_ZN11xercesc_2_5L16fgIntegerPatternE, ptr noundef %1889)
          to label %1890 unwind label %3872

1890:                                             ; preds = %1888
  %1891 = load i32, ptr %1818, align 8, !tbaa !96
  %1892 = mul i32 %1891, 3
  %1893 = lshr i32 %1892, 2
  %1894 = load i32, ptr %1820, align 8, !tbaa !98
  %1895 = icmp ult i32 %1894, %1893
  br i1 %1895, label %1897, label %1896

1896:                                             ; preds = %1890
  invoke void @_ZN11xercesc_2_514RefHashTableOfINS_12KVStringPairEE6rehashEv(ptr noundef nonnull align 8 dereferenceable(48) %1813)
          to label %1897 unwind label %3834

1897:                                             ; preds = %1896, %1890
  call void @llvm.lifetime.start.p0(i64 4, ptr nonnull %93) #11
  %1898 = invoke noundef ptr @_ZN11xercesc_2_514RefHashTableOfINS_12KVStringPairEE14findBucketElemEPKvRj(ptr noundef nonnull align 8 dereferenceable(48) %1813, ptr noundef nonnull @_ZN11xercesc_2_513SchemaSymbols13fgELT_PATTERNE, ptr noundef nonnull align 4 dereferenceable(4) %93)
          to label %1899 unwind label %3834

1899:                                             ; preds = %1897
  %1900 = icmp eq ptr %1898, null
  br i1 %1900, label %1913, label %1901

1901:                                             ; preds = %1899
  %1902 = load i8, ptr %1816, align 8, !tbaa !94, !range !74, !noundef !75
  %1903 = icmp eq i8 %1902, 0
  br i1 %1903, label %1911, label %1904

1904:                                             ; preds = %1901
  %1905 = load ptr, ptr %1898, align 8, !tbaa !100
  %1906 = icmp eq ptr %1905, null
  br i1 %1906, label %1911, label %1907

1907:                                             ; preds = %1904
  %1908 = load ptr, ptr %1905, align 8, !tbaa !56
  %1909 = getelementptr inbounds ptr, ptr %1908, i64 1
  %1910 = load ptr, ptr %1909, align 8
  invoke void %1910(ptr noundef nonnull align 8 dereferenceable(48) %1905)
          to label %1911 unwind label %3834

1911:                                             ; preds = %1907, %1904, %1901
  store ptr %1887, ptr %1898, align 8, !tbaa !100
  %1912 = getelementptr inbounds %"struct.xercesc_2_5::RefHashTableBucketElem.4", ptr %1898, i64 0, i32 2
  store ptr @_ZN11xercesc_2_513SchemaSymbols13fgELT_PATTERNE, ptr %1912, align 8, !tbaa !102
  br label %1924

1913:                                             ; preds = %1899
  %1914 = load ptr, ptr %1813, align 8, !tbaa !92
  %1915 = invoke noundef ptr @_ZN11xercesc_2_57XMemorynwEmPNS_13MemoryManagerE(i64 noundef 24, ptr noundef %1914)
          to label %1916 unwind label %3834

1916:                                             ; preds = %1913
  %1917 = load ptr, ptr %1817, align 8, !tbaa !95
  %1918 = load i32, ptr %93, align 4, !tbaa !86
  %1919 = zext i32 %1918 to i64
  %1920 = getelementptr inbounds ptr, ptr %1917, i64 %1919
  %1921 = load ptr, ptr %1920, align 8, !tbaa !70
  store ptr %1887, ptr %1915, align 8, !tbaa !100
  %1922 = getelementptr inbounds %"struct.xercesc_2_5::RefHashTableBucketElem.4", ptr %1915, i64 0, i32 1
  store ptr %1921, ptr %1922, align 8, !tbaa !103
  %1923 = getelementptr inbounds %"struct.xercesc_2_5::RefHashTableBucketElem.4", ptr %1915, i64 0, i32 2
  store ptr @_ZN11xercesc_2_513SchemaSymbols13fgELT_PATTERNE, ptr %1923, align 8, !tbaa !102
  store ptr %1915, ptr %1920, align 8, !tbaa !70
  br label %1924

1924:                                             ; preds = %1916, %1911
  %1925 = load i32, ptr %1820, align 8, !tbaa !98
  %1926 = add i32 %1925, 1
  store i32 %1926, ptr %1820, align 8, !tbaa !98
  call void @llvm.lifetime.end.p0(i64 4, ptr nonnull %93) #11
  %1927 = load ptr, ptr @_ZN11xercesc_2_524DatatypeValidatorFactory16fBuiltInRegistryE, align 8, !tbaa !70
  %1928 = icmp eq ptr %1927, null
  br i1 %1928, label %1942, label %1929

1929:                                             ; preds = %1924
  call void @llvm.lifetime.start.p0(i64 4, ptr nonnull %92) #11
  %1930 = invoke noundef ptr @_ZNK11xercesc_2_514RefHashTableOfINS_17DatatypeValidatorEE14findBucketElemEPKvRj(ptr noundef nonnull align 8 dereferenceable(48) %1927, ptr noundef nonnull @_ZN11xercesc_2_513SchemaSymbols12fgDT_DECIMALE, ptr noundef nonnull align 4 dereferenceable(4) %92)
          to label %1931 unwind label %3834

1931:                                             ; preds = %1929
  %1932 = icmp eq ptr %1930, null
  call void @llvm.lifetime.end.p0(i64 4, ptr nonnull %92) #11
  br i1 %1932, label %1942, label %1933

1933:                                             ; preds = %1931
  %1934 = load ptr, ptr @_ZN11xercesc_2_524DatatypeValidatorFactory16fBuiltInRegistryE, align 8, !tbaa !70
  call void @llvm.lifetime.start.p0(i64 4, ptr nonnull %91) #11
  %1935 = invoke noundef ptr @_ZN11xercesc_2_514RefHashTableOfINS_17DatatypeValidatorEE14findBucketElemEPKvRj(ptr noundef nonnull align 8 dereferenceable(48) %1934, ptr noundef nonnull @_ZN11xercesc_2_513SchemaSymbols12fgDT_DECIMALE, ptr noundef nonnull align 4 dereferenceable(4) %91)
          to label %1936 unwind label %3834

1936:                                             ; preds = %1933
  %1937 = icmp eq ptr %1935, null
  br i1 %1937, label %1940, label %1938

1938:                                             ; preds = %1936
  %1939 = load ptr, ptr %1935, align 8, !tbaa !76
  br label %1940

1940:                                             ; preds = %1938, %1936
  %1941 = phi ptr [ %1939, %1938 ], [ null, %1936 ]
  call void @llvm.lifetime.end.p0(i64 4, ptr nonnull %91) #11
  br label %1959

1942:                                             ; preds = %1931, %1924
  %1943 = getelementptr inbounds %"class.xercesc_2_5::DatatypeValidatorFactory", ptr %0, i64 0, i32 1
  %1944 = load ptr, ptr %1943, align 8, !tbaa !59
  %1945 = icmp eq ptr %1944, null
  br i1 %1945, label %1959, label %1946

1946:                                             ; preds = %1942
  call void @llvm.lifetime.start.p0(i64 4, ptr nonnull %90) #11
  %1947 = invoke noundef ptr @_ZNK11xercesc_2_514RefHashTableOfINS_17DatatypeValidatorEE14findBucketElemEPKvRj(ptr noundef nonnull align 8 dereferenceable(48) %1944, ptr noundef nonnull @_ZN11xercesc_2_513SchemaSymbols12fgDT_DECIMALE, ptr noundef nonnull align 4 dereferenceable(4) %90)
          to label %1948 unwind label %3834

1948:                                             ; preds = %1946
  %1949 = icmp eq ptr %1947, null
  call void @llvm.lifetime.end.p0(i64 4, ptr nonnull %90) #11
  br i1 %1949, label %1959, label %1950

1950:                                             ; preds = %1948
  %1951 = load ptr, ptr %1943, align 8, !tbaa !59
  call void @llvm.lifetime.start.p0(i64 4, ptr nonnull %89) #11
  %1952 = invoke noundef ptr @_ZN11xercesc_2_514RefHashTableOfINS_17DatatypeValidatorEE14findBucketElemEPKvRj(ptr noundef nonnull align 8 dereferenceable(48) %1951, ptr noundef nonnull @_ZN11xercesc_2_513SchemaSymbols12fgDT_DECIMALE, ptr noundef nonnull align 4 dereferenceable(4) %89)
          to label %1953 unwind label %3834

1953:                                             ; preds = %1950
  %1954 = icmp eq ptr %1952, null
  br i1 %1954, label %1957, label %1955

1955:                                             ; preds = %1953
  %1956 = load ptr, ptr %1952, align 8, !tbaa !76
  br label %1957

1957:                                             ; preds = %1955, %1953
  %1958 = phi ptr [ %1956, %1955 ], [ null, %1953 ]
  call void @llvm.lifetime.end.p0(i64 4, ptr nonnull %89) #11
  br label %1959

1959:                                             ; preds = %1957, %1948, %1942, %1940
  %1960 = phi ptr [ %1941, %1940 ], [ %1958, %1957 ], [ null, %1942 ], [ null, %1948 ]
  %1961 = load ptr, ptr @_ZN11xercesc_2_516XMLPlatformUtils15fgMemoryManagerE, align 8, !tbaa !70
  %1962 = invoke noundef ptr @_ZN11xercesc_2_524DatatypeValidatorFactory23createDatatypeValidatorEPKtPNS_17DatatypeValidatorEPNS_14RefHashTableOfINS_12KVStringPairEEEPNS_16RefArrayVectorOfItEEbibPNS_13MemoryManagerE(ptr noundef nonnull align 8 dereferenceable(24) %0, ptr noundef nonnull @_ZN11xercesc_2_513SchemaSymbols12fgDT_INTEGERE, ptr noundef %1960, ptr noundef nonnull %1813, ptr noundef null, i1 noundef zeroext false, i32 noundef 0, i1 noundef zeroext false, ptr noundef %1961)
          to label %1963 unwind label %3834

1963:                                             ; preds = %1959
  %1964 = invoke noundef ptr @_ZN11xercesc_2_57XMemorynwEm(i64 noundef 48)
          to label %1965 unwind label %3834

1965:                                             ; preds = %1963
  %1966 = load ptr, ptr @_ZN11xercesc_2_516XMLPlatformUtils15fgMemoryManagerE, align 8, !tbaa !70
  store ptr %1966, ptr %1964, align 8, !tbaa !92
  %1967 = getelementptr inbounds %"class.xercesc_2_5::RefHashTableOf.1", ptr %1964, i64 0, i32 1
  store i8 1, ptr %1967, align 8, !tbaa !94
  %1968 = getelementptr inbounds %"class.xercesc_2_5::RefHashTableOf.1", ptr %1964, i64 0, i32 2
  store ptr null, ptr %1968, align 8, !tbaa !95
  %1969 = getelementptr inbounds %"class.xercesc_2_5::RefHashTableOf.1", ptr %1964, i64 0, i32 3
  store i32 2, ptr %1969, align 8, !tbaa !96
  %1970 = getelementptr inbounds %"class.xercesc_2_5::RefHashTableOf.1", ptr %1964, i64 0, i32 4
  store i32 2, ptr %1970, align 4, !tbaa !97
  %1971 = getelementptr inbounds %"class.xercesc_2_5::RefHashTableOf.1", ptr %1964, i64 0, i32 5
  store i32 0, ptr %1971, align 8, !tbaa !98
  %1972 = getelementptr inbounds %"class.xercesc_2_5::RefHashTableOf.1", ptr %1964, i64 0, i32 6
  store ptr null, ptr %1972, align 8, !tbaa !99
  %1973 = load ptr, ptr %1966, align 8, !tbaa !56
  %1974 = getelementptr inbounds ptr, ptr %1973, i64 2
  %1975 = load ptr, ptr %1974, align 8
  %1976 = invoke noundef ptr %1975(ptr noundef nonnull align 8 dereferenceable(8) %1966, i64 noundef 16)
          to label %1977 unwind label %3874

1977:                                             ; preds = %1965
  store ptr %1976, ptr %1968, align 8, !tbaa !95
  %1978 = load i32, ptr %1969, align 8, !tbaa !96
  %1979 = icmp eq i32 %1978, 0
  br i1 %1979, label %1988, label %1980

1980:                                             ; preds = %1977
  %1981 = zext i32 %1978 to i64
  br label %1982

1982:                                             ; preds = %1982, %1980
  %1983 = phi i64 [ 0, %1980 ], [ %1986, %1982 ]
  %1984 = load ptr, ptr %1968, align 8, !tbaa !95
  %1985 = getelementptr inbounds ptr, ptr %1984, i64 %1983
  store ptr null, ptr %1985, align 8, !tbaa !70
  %1986 = add nuw nsw i64 %1983, 1
  %1987 = icmp eq i64 %1986, %1981
  br i1 %1987, label %1988, label %1982

1988:                                             ; preds = %1982, %1977
  %1989 = load ptr, ptr %1964, align 8, !tbaa !92
  %1990 = invoke noundef ptr @_ZN11xercesc_2_57XMemorynwEmPNS_13MemoryManagerE(i64 noundef 8, ptr noundef %1989)
          to label %1991 unwind label %3874

1991:                                             ; preds = %1988
  invoke void @_ZN11xercesc_2_59HashXMLChC1Ev(ptr noundef nonnull align 8 dereferenceable(8) %1990)
          to label %1997 unwind label %1992

1992:                                             ; preds = %1991
  %1993 = landingpad { ptr, i32 }
          cleanup
  invoke void @_ZN11xercesc_2_57XMemorydlEPvPNS_13MemoryManagerE(ptr noundef %1990, ptr noundef %1989)
          to label %3876 unwind label %1994

1994:                                             ; preds = %1992
  %1995 = landingpad { ptr, i32 }
          catch ptr null
  %1996 = extractvalue { ptr, i32 } %1995, 0
  call void @__clang_call_terminate(ptr %1996) #10
  unreachable

1997:                                             ; preds = %1991
  store ptr %1990, ptr %1972, align 8, !tbaa !99
  %1998 = invoke noundef ptr @_ZN11xercesc_2_57XMemorynwEm(i64 noundef 48)
          to label %1999 unwind label %3834

1999:                                             ; preds = %1997
  %2000 = load ptr, ptr @_ZN11xercesc_2_516XMLPlatformUtils15fgMemoryManagerE, align 8, !tbaa !70
  invoke void @_ZN11xercesc_2_512KVStringPairC1EPKtS2_PNS_13MemoryManagerE(ptr noundef nonnull align 8 dereferenceable(48) %1998, ptr noundef nonnull @_ZN11xercesc_2_513SchemaSymbols18fgELT_MAXINCLUSIVEE, ptr noundef nonnull @_ZN11xercesc_2_5L11fgValueZeroE, ptr noundef %2000)
          to label %2001 unwind label %3878

2001:                                             ; preds = %1999
  %2002 = load i32, ptr %1969, align 8, !tbaa !96
  %2003 = mul i32 %2002, 3
  %2004 = lshr i32 %2003, 2
  %2005 = load i32, ptr %1971, align 8, !tbaa !98
  %2006 = icmp ult i32 %2005, %2004
  br i1 %2006, label %2008, label %2007

2007:                                             ; preds = %2001
  invoke void @_ZN11xercesc_2_514RefHashTableOfINS_12KVStringPairEE6rehashEv(ptr noundef nonnull align 8 dereferenceable(48) %1964)
          to label %2008 unwind label %3834

2008:                                             ; preds = %2007, %2001
  call void @llvm.lifetime.start.p0(i64 4, ptr nonnull %88) #11
  %2009 = invoke noundef ptr @_ZN11xercesc_2_514RefHashTableOfINS_12KVStringPairEE14findBucketElemEPKvRj(ptr noundef nonnull align 8 dereferenceable(48) %1964, ptr noundef nonnull @_ZN11xercesc_2_513SchemaSymbols18fgELT_MAXINCLUSIVEE, ptr noundef nonnull align 4 dereferenceable(4) %88)
          to label %2010 unwind label %3834

2010:                                             ; preds = %2008
  %2011 = icmp eq ptr %2009, null
  br i1 %2011, label %2024, label %2012

2012:                                             ; preds = %2010
  %2013 = load i8, ptr %1967, align 8, !tbaa !94, !range !74, !noundef !75
  %2014 = icmp eq i8 %2013, 0
  br i1 %2014, label %2022, label %2015

2015:                                             ; preds = %2012
  %2016 = load ptr, ptr %2009, align 8, !tbaa !100
  %2017 = icmp eq ptr %2016, null
  br i1 %2017, label %2022, label %2018

2018:                                             ; preds = %2015
  %2019 = load ptr, ptr %2016, align 8, !tbaa !56
  %2020 = getelementptr inbounds ptr, ptr %2019, i64 1
  %2021 = load ptr, ptr %2020, align 8
  invoke void %2021(ptr noundef nonnull align 8 dereferenceable(48) %2016)
          to label %2022 unwind label %3834

2022:                                             ; preds = %2018, %2015, %2012
  store ptr %1998, ptr %2009, align 8, !tbaa !100
  %2023 = getelementptr inbounds %"struct.xercesc_2_5::RefHashTableBucketElem.4", ptr %2009, i64 0, i32 2
  store ptr @_ZN11xercesc_2_513SchemaSymbols18fgELT_MAXINCLUSIVEE, ptr %2023, align 8, !tbaa !102
  br label %2035

2024:                                             ; preds = %2010
  %2025 = load ptr, ptr %1964, align 8, !tbaa !92
  %2026 = invoke noundef ptr @_ZN11xercesc_2_57XMemorynwEmPNS_13MemoryManagerE(i64 noundef 24, ptr noundef %2025)
          to label %2027 unwind label %3834

2027:                                             ; preds = %2024
  %2028 = load ptr, ptr %1968, align 8, !tbaa !95
  %2029 = load i32, ptr %88, align 4, !tbaa !86
  %2030 = zext i32 %2029 to i64
  %2031 = getelementptr inbounds ptr, ptr %2028, i64 %2030
  %2032 = load ptr, ptr %2031, align 8, !tbaa !70
  store ptr %1998, ptr %2026, align 8, !tbaa !100
  %2033 = getelementptr inbounds %"struct.xercesc_2_5::RefHashTableBucketElem.4", ptr %2026, i64 0, i32 1
  store ptr %2032, ptr %2033, align 8, !tbaa !103
  %2034 = getelementptr inbounds %"struct.xercesc_2_5::RefHashTableBucketElem.4", ptr %2026, i64 0, i32 2
  store ptr @_ZN11xercesc_2_513SchemaSymbols18fgELT_MAXINCLUSIVEE, ptr %2034, align 8, !tbaa !102
  store ptr %2026, ptr %2031, align 8, !tbaa !70
  br label %2035

2035:                                             ; preds = %2027, %2022
  %2036 = load i32, ptr %1971, align 8, !tbaa !98
  %2037 = add i32 %2036, 1
  store i32 %2037, ptr %1971, align 8, !tbaa !98
  call void @llvm.lifetime.end.p0(i64 4, ptr nonnull %88) #11
  %2038 = load ptr, ptr @_ZN11xercesc_2_524DatatypeValidatorFactory16fBuiltInRegistryE, align 8, !tbaa !70
  %2039 = icmp eq ptr %2038, null
  br i1 %2039, label %2053, label %2040

2040:                                             ; preds = %2035
  call void @llvm.lifetime.start.p0(i64 4, ptr nonnull %87) #11
  %2041 = invoke noundef ptr @_ZNK11xercesc_2_514RefHashTableOfINS_17DatatypeValidatorEE14findBucketElemEPKvRj(ptr noundef nonnull align 8 dereferenceable(48) %2038, ptr noundef nonnull @_ZN11xercesc_2_513SchemaSymbols12fgDT_INTEGERE, ptr noundef nonnull align 4 dereferenceable(4) %87)
          to label %2042 unwind label %3834

2042:                                             ; preds = %2040
  %2043 = icmp eq ptr %2041, null
  call void @llvm.lifetime.end.p0(i64 4, ptr nonnull %87) #11
  br i1 %2043, label %2053, label %2044

2044:                                             ; preds = %2042
  %2045 = load ptr, ptr @_ZN11xercesc_2_524DatatypeValidatorFactory16fBuiltInRegistryE, align 8, !tbaa !70
  call void @llvm.lifetime.start.p0(i64 4, ptr nonnull %86) #11
