; ModuleID = 'DOMDocumentImpl.cpp'
source_filename = "DOMDocumentImpl.cpp"
target datalayout = "e-m:e-p270:32:32-p271:32:32-p272:64:64-i64:64-f80:128-n8:16:32:64-S128"
target triple = "x86_64-unknown-linux-gnu"

%"class.xercesc_2_5::DOMDocumentImpl" = type <{ %"class.xercesc_2_5::DOMDocument", %"class.xercesc_2_5::DOMNodeImpl", %"class.xercesc_2_5::DOMParentNode", ptr, ptr, ptr, i8, [7 x i8], ptr, ptr, ptr, ptr, ptr, ptr, i64, ptr, ptr, ptr, ptr, ptr, ptr, ptr, ptr, ptr, ptr, i32, i8, [3 x i8] }>
%"class.xercesc_2_5::DOMDocument" = type { %"class.xercesc_2_5::DOMDocumentRange", %"class.xercesc_2_5::DOMXPathEvaluator", %"class.xercesc_2_5::DOMDocumentTraversal", %"class.xercesc_2_5::DOMNode" }
%"class.xercesc_2_5::DOMDocumentRange" = type { ptr }
%"class.xercesc_2_5::DOMXPathEvaluator" = type { ptr }
%"class.xercesc_2_5::DOMDocumentTraversal" = type { ptr }
%"class.xercesc_2_5::DOMNode" = type { ptr }
%"class.xercesc_2_5::DOMNodeImpl" = type <{ ptr, i16, [6 x i8] }>
%"class.xercesc_2_5::DOMParentNode" = type { ptr, ptr, %"class.xercesc_2_5::DOMNodeListImpl" }
%"class.xercesc_2_5::DOMNodeListImpl" = type { %"class.xercesc_2_5::DOMNodeList", ptr }
%"class.xercesc_2_5::DOMNodeList" = type { ptr }
%"class.xercesc_2_5::RefHashTableOf" = type { ptr, i8, ptr, i32, i32, i32, ptr }
%"class.xercesc_2_5::RefArrayOf" = type { i32, ptr, ptr }
%"class.xercesc_2_5::RefStackOf" = type { [8 x i8], %"class.xercesc_2_5::RefVectorOf.2" }
%"class.xercesc_2_5::RefVectorOf.2" = type { %"class.xercesc_2_5::BaseRefVectorOf.3" }
%"class.xercesc_2_5::BaseRefVectorOf.3" = type { ptr, i8, i32, i32, ptr, ptr }
%"class.xercesc_2_5::DOMDeepNodeListPool" = type { i8, ptr, i64, ptr, ptr, i64, i64, ptr }
%"struct.xercesc_2_5::DOMDeepNodeListPoolTableBucketElem" = type { ptr, ptr, ptr, ptr, ptr }
%"class.xercesc_2_5::RefStackOf.5" = type { [8 x i8], %"class.xercesc_2_5::RefVectorOf.6" }
%"class.xercesc_2_5::RefVectorOf.6" = type { %"class.xercesc_2_5::BaseRefVectorOf.7" }
%"class.xercesc_2_5::BaseRefVectorOf.7" = type { ptr, i8, i32, i32, ptr, ptr }
%"class.xercesc_2_5::BaseRefVectorOf.1" = type { ptr, i8, i32, i32, ptr, ptr }
%"class.xercesc_2_5::BaseRefVectorOf" = type { ptr, i8, i32, i32, ptr, ptr }
%"class.xercesc_2_5::DOMElementImpl" = type { %"class.xercesc_2_5::DOMElement", %"class.xercesc_2_5::DOMNodeImpl", %"class.xercesc_2_5::DOMParentNode", %"class.xercesc_2_5::DOMChildNode", ptr, ptr, ptr, ptr }
%"class.xercesc_2_5::DOMElement" = type { %"class.xercesc_2_5::DOMNode" }
%"class.xercesc_2_5::DOMChildNode" = type { ptr, ptr }
%"class.xercesc_2_5::RefHashTableOf.4" = type { ptr, i8, ptr, i32, i32, i32, ptr }
%"class.xercesc_2_5::KeyRefPair" = type { ptr, ptr }
%"struct.xercesc_2_5::RefHashTableBucketElem.8" = type { ptr, ptr, ptr }
%"struct.xercesc_2_5::RefHashTableBucketElem" = type { ptr, ptr, ptr }
%"class.xercesc_2_5::RefHashTableOfEnumerator" = type { %"class.xercesc_2_5::XMLEnumerator", i8, ptr, i32, ptr, ptr }
%"class.xercesc_2_5::XMLEnumerator" = type { ptr }
%"class.xercesc_2_5::XMLException" = type { ptr, i32, ptr, i32, ptr, ptr }

$__clang_call_terminate = comdat any

$_ZN11xercesc_2_519DOMDeepNodeListPoolINS_19DOMDeepNodeListImplEE7cleanupEv = comdat any

$_ZN11xercesc_2_510RefArrayOfINS_10RefStackOfINS_7DOMNodeEEEE17deleteAllElementsEv = comdat any

$_ZN11xercesc_2_519DOMDeepNodeListPoolINS_19DOMDeepNodeListImplEEC2Embm = comdat any

$_ZN11xercesc_2_519DOMDeepNodeListPoolINS_19DOMDeepNodeListImplEE3putEPvPtS4_PS1_ = comdat any

$_ZN11xercesc_2_514RefHashTableOfINS0_INS_10KeyRefPairIvNS_18DOMUserDataHandlerEEEEEE3putEPvPS4_ = comdat any

$_ZN11xercesc_2_514RefHashTableOfINS_10KeyRefPairIvNS_18DOMUserDataHandlerEEEE3putEPvPS3_ = comdat any

$_ZNK11xercesc_2_524RefHashTableOfEnumeratorINS_10KeyRefPairIvNS_18DOMUserDataHandlerEEEE15hasMoreElementsEv = comdat any

$_ZN11xercesc_2_524RefHashTableOfEnumeratorINS_10KeyRefPairIvNS_18DOMUserDataHandlerEEEE14nextElementKeyEv = comdat any

$_ZN11xercesc_2_524RefHashTableOfEnumeratorINS_10KeyRefPairIvNS_18DOMUserDataHandlerEEEED2Ev = comdat any

$_ZN11xercesc_2_514RefHashTableOfINS0_INS_10KeyRefPairIvNS_18DOMUserDataHandlerEEEEEE9removeAllEv = comdat any

$_ZN11xercesc_2_511RefVectorOfINS_7DOMNodeEED2Ev = comdat any

$_ZN11xercesc_2_511RefVectorOfINS_7DOMNodeEED0Ev = comdat any

$_ZN11xercesc_2_515BaseRefVectorOfINS_7DOMNodeEE12setElementAtEPS1_j = comdat any

$_ZN11xercesc_2_515BaseRefVectorOfINS_7DOMNodeEE17removeAllElementsEv = comdat any

$_ZN11xercesc_2_515BaseRefVectorOfINS_7DOMNodeEE15removeElementAtEj = comdat any

$_ZN11xercesc_2_515BaseRefVectorOfINS_7DOMNodeEE17removeLastElementEv = comdat any

$_ZN11xercesc_2_515BaseRefVectorOfINS_7DOMNodeEE7cleanupEv = comdat any

$_ZN11xercesc_2_530ArrayIndexOutOfBoundsExceptionC2EPKcjNS_10XMLExcepts5CodesEPNS_13MemoryManagerE = comdat any

$_ZN11xercesc_2_530ArrayIndexOutOfBoundsExceptionD0Ev = comdat any

$_ZNK11xercesc_2_530ArrayIndexOutOfBoundsException7getTypeEv = comdat any

$_ZNK11xercesc_2_530ArrayIndexOutOfBoundsException9duplicateEv = comdat any

$_ZN11xercesc_2_511RefVectorOfINS_9DOMBufferEED2Ev = comdat any

$_ZN11xercesc_2_511RefVectorOfINS_9DOMBufferEED0Ev = comdat any

$_ZN11xercesc_2_515BaseRefVectorOfINS_9DOMBufferEE12setElementAtEPS1_j = comdat any

$_ZN11xercesc_2_515BaseRefVectorOfINS_9DOMBufferEE17removeAllElementsEv = comdat any

$_ZN11xercesc_2_515BaseRefVectorOfINS_9DOMBufferEE15removeElementAtEj = comdat any

$_ZN11xercesc_2_515BaseRefVectorOfINS_9DOMBufferEE17removeLastElementEv = comdat any

$_ZN11xercesc_2_515BaseRefVectorOfINS_9DOMBufferEE7cleanupEv = comdat any

$_ZN11xercesc_2_511RefVectorOfINS_19DOMNodeIteratorImplEED2Ev = comdat any

$_ZN11xercesc_2_511RefVectorOfINS_19DOMNodeIteratorImplEED0Ev = comdat any

$_ZN11xercesc_2_515BaseRefVectorOfINS_19DOMNodeIteratorImplEE12setElementAtEPS1_j = comdat any

$_ZN11xercesc_2_515BaseRefVectorOfINS_19DOMNodeIteratorImplEE17removeAllElementsEv = comdat any

$_ZN11xercesc_2_515BaseRefVectorOfINS_19DOMNodeIteratorImplEE15removeElementAtEj = comdat any

$_ZN11xercesc_2_515BaseRefVectorOfINS_19DOMNodeIteratorImplEE17removeLastElementEv = comdat any

$_ZN11xercesc_2_515BaseRefVectorOfINS_19DOMNodeIteratorImplEE7cleanupEv = comdat any

$_ZN11xercesc_2_515BaseRefVectorOfINS_19DOMNodeIteratorImplEED2Ev = comdat any

$_ZN11xercesc_2_515BaseRefVectorOfINS_19DOMNodeIteratorImplEED0Ev = comdat any

$_ZN11xercesc_2_511RefVectorOfINS_12DOMRangeImplEED2Ev = comdat any

$_ZN11xercesc_2_511RefVectorOfINS_12DOMRangeImplEED0Ev = comdat any

$_ZN11xercesc_2_515BaseRefVectorOfINS_12DOMRangeImplEE12setElementAtEPS1_j = comdat any

$_ZN11xercesc_2_515BaseRefVectorOfINS_12DOMRangeImplEE17removeAllElementsEv = comdat any

$_ZN11xercesc_2_515BaseRefVectorOfINS_12DOMRangeImplEE15removeElementAtEj = comdat any

$_ZN11xercesc_2_515BaseRefVectorOfINS_12DOMRangeImplEE17removeLastElementEv = comdat any

$_ZN11xercesc_2_515BaseRefVectorOfINS_12DOMRangeImplEE7cleanupEv = comdat any

$_ZN11xercesc_2_515BaseRefVectorOfINS_12DOMRangeImplEED2Ev = comdat any

$_ZN11xercesc_2_515BaseRefVectorOfINS_12DOMRangeImplEED0Ev = comdat any

$_ZN11xercesc_2_524IllegalArgumentExceptionC2EPKcjNS_10XMLExcepts5CodesEPNS_13MemoryManagerE = comdat any

$_ZN11xercesc_2_524IllegalArgumentExceptionD0Ev = comdat any

$_ZNK11xercesc_2_524IllegalArgumentException7getTypeEv = comdat any

$_ZNK11xercesc_2_524IllegalArgumentException9duplicateEv = comdat any

$_ZN11xercesc_2_519DOMDeepNodeListPoolINS_19DOMDeepNodeListImplEE14findBucketElemEPKvPKtS6_Rm = comdat any

$_ZN11xercesc_2_516RuntimeExceptionC2EPKcjNS_10XMLExcepts5CodesEPNS_13MemoryManagerE = comdat any

$_ZN11xercesc_2_516RuntimeExceptionD0Ev = comdat any

$_ZNK11xercesc_2_516RuntimeException7getTypeEv = comdat any

$_ZNK11xercesc_2_516RuntimeException9duplicateEv = comdat any

$_ZN11xercesc_2_514RefHashTableOfINS0_INS_10KeyRefPairIvNS_18DOMUserDataHandlerEEEEEE14findBucketElemEPKvRj = comdat any

$_ZN11xercesc_2_514RefHashTableOfINS_10KeyRefPairIvNS_18DOMUserDataHandlerEEEE14findBucketElemEPKvRj = comdat any

$_ZN11xercesc_2_514RefHashTableOfINS_10KeyRefPairIvNS_18DOMUserDataHandlerEEEE16removeBucketElemEPKvRj = comdat any

$_ZN11xercesc_2_522NoSuchElementExceptionC2EPKcjNS_10XMLExcepts5CodesEPNS_13MemoryManagerE = comdat any

$_ZN11xercesc_2_522NoSuchElementExceptionD0Ev = comdat any

$_ZNK11xercesc_2_522NoSuchElementException7getTypeEv = comdat any

$_ZNK11xercesc_2_522NoSuchElementException9duplicateEv = comdat any

$_ZN11xercesc_2_514RefHashTableOfINS0_INS_10KeyRefPairIvNS_18DOMUserDataHandlerEEEEEE6rehashEv = comdat any

$_ZN11xercesc_2_514RefHashTableOfINS_10KeyRefPairIvNS_18DOMUserDataHandlerEEEE6rehashEv = comdat any

$_ZN11xercesc_2_524RefHashTableOfEnumeratorINS_10KeyRefPairIvNS_18DOMUserDataHandlerEEEED0Ev = comdat any

$_ZN11xercesc_2_524RefHashTableOfEnumeratorINS_10KeyRefPairIvNS_18DOMUserDataHandlerEEEE11nextElementEv = comdat any

$_ZN11xercesc_2_524RefHashTableOfEnumeratorINS_10KeyRefPairIvNS_18DOMUserDataHandlerEEEE5ResetEv = comdat any

$_ZN11xercesc_2_514RefHashTableOfINS0_INS_10KeyRefPairIvNS_18DOMUserDataHandlerEEEEEE9orphanKeyEPKv = comdat any

$_ZN11xercesc_2_515BaseRefVectorOfINS_7DOMNodeEED2Ev = comdat any

$_ZN11xercesc_2_515BaseRefVectorOfINS_7DOMNodeEED0Ev = comdat any

$_ZN11xercesc_2_515BaseRefVectorOfINS_9DOMBufferEED2Ev = comdat any

$_ZN11xercesc_2_515BaseRefVectorOfINS_9DOMBufferEED0Ev = comdat any

$_ZTSN11xercesc_2_520OutOfMemoryExceptionE = comdat any

$_ZTSN11xercesc_2_57XMemoryE = comdat any

$_ZTIN11xercesc_2_57XMemoryE = comdat any

$_ZTIN11xercesc_2_520OutOfMemoryExceptionE = comdat any

$_ZTSN11xercesc_2_511DOMDocumentE = comdat any

$_ZTSN11xercesc_2_516DOMDocumentRangeE = comdat any

$_ZTIN11xercesc_2_516DOMDocumentRangeE = comdat any

$_ZTSN11xercesc_2_517DOMXPathEvaluatorE = comdat any

$_ZTIN11xercesc_2_517DOMXPathEvaluatorE = comdat any

$_ZTSN11xercesc_2_520DOMDocumentTraversalE = comdat any

$_ZTIN11xercesc_2_520DOMDocumentTraversalE = comdat any

$_ZTSN11xercesc_2_57DOMNodeE = comdat any

$_ZTIN11xercesc_2_57DOMNodeE = comdat any

$_ZTIN11xercesc_2_511DOMDocumentE = comdat any

$_ZTVN11xercesc_2_511RefVectorOfINS_7DOMNodeEEE = comdat any

$_ZTSN11xercesc_2_511RefVectorOfINS_7DOMNodeEEE = comdat any

$_ZTSN11xercesc_2_515BaseRefVectorOfINS_7DOMNodeEEE = comdat any

$_ZTIN11xercesc_2_515BaseRefVectorOfINS_7DOMNodeEEE = comdat any

$_ZTIN11xercesc_2_511RefVectorOfINS_7DOMNodeEEE = comdat any

$_ZTSN11xercesc_2_530ArrayIndexOutOfBoundsExceptionE = comdat any

$_ZTIN11xercesc_2_530ArrayIndexOutOfBoundsExceptionE = comdat any

$_ZTVN11xercesc_2_530ArrayIndexOutOfBoundsExceptionE = comdat any

$_ZTVN11xercesc_2_511RefVectorOfINS_9DOMBufferEEE = comdat any

$_ZTSN11xercesc_2_511RefVectorOfINS_9DOMBufferEEE = comdat any

$_ZTSN11xercesc_2_515BaseRefVectorOfINS_9DOMBufferEEE = comdat any

$_ZTIN11xercesc_2_515BaseRefVectorOfINS_9DOMBufferEEE = comdat any

$_ZTIN11xercesc_2_511RefVectorOfINS_9DOMBufferEEE = comdat any

$_ZTVN11xercesc_2_511RefVectorOfINS_19DOMNodeIteratorImplEEE = comdat any

$_ZTSN11xercesc_2_511RefVectorOfINS_19DOMNodeIteratorImplEEE = comdat any

$_ZTSN11xercesc_2_515BaseRefVectorOfINS_19DOMNodeIteratorImplEEE = comdat any

$_ZTIN11xercesc_2_515BaseRefVectorOfINS_19DOMNodeIteratorImplEEE = comdat any

$_ZTIN11xercesc_2_511RefVectorOfINS_19DOMNodeIteratorImplEEE = comdat any

$_ZTVN11xercesc_2_515BaseRefVectorOfINS_19DOMNodeIteratorImplEEE = comdat any

$_ZTVN11xercesc_2_511RefVectorOfINS_12DOMRangeImplEEE = comdat any

$_ZTSN11xercesc_2_511RefVectorOfINS_12DOMRangeImplEEE = comdat any

$_ZTSN11xercesc_2_515BaseRefVectorOfINS_12DOMRangeImplEEE = comdat any

$_ZTIN11xercesc_2_515BaseRefVectorOfINS_12DOMRangeImplEEE = comdat any

$_ZTIN11xercesc_2_511RefVectorOfINS_12DOMRangeImplEEE = comdat any

$_ZTVN11xercesc_2_515BaseRefVectorOfINS_12DOMRangeImplEEE = comdat any

$_ZTSN11xercesc_2_524IllegalArgumentExceptionE = comdat any

$_ZTIN11xercesc_2_524IllegalArgumentExceptionE = comdat any

$_ZTVN11xercesc_2_524IllegalArgumentExceptionE = comdat any

$_ZTSN11xercesc_2_516RuntimeExceptionE = comdat any

$_ZTIN11xercesc_2_516RuntimeExceptionE = comdat any

$_ZTVN11xercesc_2_516RuntimeExceptionE = comdat any

$_ZTSN11xercesc_2_522NoSuchElementExceptionE = comdat any

$_ZTIN11xercesc_2_522NoSuchElementExceptionE = comdat any

$_ZTVN11xercesc_2_522NoSuchElementExceptionE = comdat any

$_ZTVN11xercesc_2_524RefHashTableOfEnumeratorINS_10KeyRefPairIvNS_18DOMUserDataHandlerEEEEE = comdat any

$_ZTSN11xercesc_2_524RefHashTableOfEnumeratorINS_10KeyRefPairIvNS_18DOMUserDataHandlerEEEEE = comdat any

$_ZTSN11xercesc_2_513XMLEnumeratorINS_10KeyRefPairIvNS_18DOMUserDataHandlerEEEEE = comdat any

$_ZTIN11xercesc_2_513XMLEnumeratorINS_10KeyRefPairIvNS_18DOMUserDataHandlerEEEEE = comdat any

$_ZTIN11xercesc_2_524RefHashTableOfEnumeratorINS_10KeyRefPairIvNS_18DOMUserDataHandlerEEEEE = comdat any

$_ZTVN11xercesc_2_515BaseRefVectorOfINS_7DOMNodeEEE = comdat any

$_ZTVN11xercesc_2_515BaseRefVectorOfINS_9DOMBufferEEE = comdat any

@_ZTVN11xercesc_2_515DOMDocumentImplE = dso_local unnamed_addr constant { [95 x ptr], [7 x ptr], [6 x ptr], [42 x ptr] } { [95 x ptr] [ptr null, ptr @_ZTIN11xercesc_2_515DOMDocumentImplE, ptr @_ZN11xercesc_2_515DOMDocumentImplD2Ev, ptr @_ZN11xercesc_2_515DOMDocumentImplD0Ev, ptr @_ZN11xercesc_2_515DOMDocumentImpl11createRangeEv, ptr @_ZN11xercesc_2_515DOMDocumentImpl13createElementEPKt, ptr @_ZN11xercesc_2_515DOMDocumentImpl22createDocumentFragmentEv, ptr @_ZN11xercesc_2_515DOMDocumentImpl14createTextNodeEPKt, ptr @_ZN11xercesc_2_515DOMDocumentImpl13createCommentEPKt, ptr @_ZN11xercesc_2_515DOMDocumentImpl18createCDATASectionEPKt, ptr @_ZN11xercesc_2_515DOMDocumentImpl27createProcessingInstructionEPKtS2_, ptr @_ZN11xercesc_2_515DOMDocumentImpl15createAttributeEPKt, ptr @_ZN11xercesc_2_515DOMDocumentImpl21createEntityReferenceEPKt, ptr @_ZNK11xercesc_2_515DOMDocumentImpl10getDoctypeEv, ptr @_ZNK11xercesc_2_515DOMDocumentImpl17getImplementationEv, ptr @_ZNK11xercesc_2_515DOMDocumentImpl18getDocumentElementEv, ptr @_ZNK11xercesc_2_515DOMDocumentImpl20getElementsByTagNameEPKt, ptr @_ZN11xercesc_2_515DOMDocumentImpl10importNodeEPNS_7DOMNodeEb, ptr @_ZN11xercesc_2_515DOMDocumentImpl15createElementNSEPKtS2_, ptr @_ZN11xercesc_2_515DOMDocumentImpl17createAttributeNSEPKtS2_, ptr @_ZNK11xercesc_2_515DOMDocumentImpl22getElementsByTagNameNSEPKtS2_, ptr @_ZNK11xercesc_2_515DOMDocumentImpl14getElementByIdEPKt, ptr @_ZNK11xercesc_2_515DOMDocumentImpl17getActualEncodingEv, ptr @_ZN11xercesc_2_515DOMDocumentImpl17setActualEncodingEPKt, ptr @_ZNK11xercesc_2_515DOMDocumentImpl11getEncodingEv, ptr @_ZN11xercesc_2_515DOMDocumentImpl11setEncodingEPKt, ptr @_ZNK11xercesc_2_515DOMDocumentImpl13getStandaloneEv, ptr @_ZN11xercesc_2_515DOMDocumentImpl13setStandaloneEb, ptr @_ZNK11xercesc_2_515DOMDocumentImpl10getVersionEv, ptr @_ZN11xercesc_2_515DOMDocumentImpl10setVersionEPKt, ptr @_ZNK11xercesc_2_515DOMDocumentImpl14getDocumentURIEv, ptr @_ZN11xercesc_2_515DOMDocumentImpl14setDocumentURIEPKt, ptr @_ZNK11xercesc_2_515DOMDocumentImpl22getStrictErrorCheckingEv, ptr @_ZN11xercesc_2_515DOMDocumentImpl22setStrictErrorCheckingEb, ptr @_ZN11xercesc_2_515DOMDocumentImpl10renameNodeEPNS_7DOMNodeEPKtS4_, ptr @_ZN11xercesc_2_515DOMDocumentImpl9adoptNodeEPNS_7DOMNodeE, ptr @_ZN11xercesc_2_515DOMDocumentImpl17normalizeDocumentEv, ptr @_ZNK11xercesc_2_515DOMDocumentImpl19getDOMConfigurationEv, ptr @_ZN11xercesc_2_515DOMDocumentImpl12createEntityEPKt, ptr @_ZN11xercesc_2_515DOMDocumentImpl18createDocumentTypeEPKt, ptr @_ZN11xercesc_2_515DOMDocumentImpl14createNotationEPKt, ptr @_ZN11xercesc_2_515DOMDocumentImpl15createElementNSEPKtS2_ll, ptr @_ZN11xercesc_2_515DOMDocumentImpl11appendChildEPNS_7DOMNodeE, ptr @_ZNK11xercesc_2_515DOMDocumentImpl9cloneNodeEb, ptr @_ZNK11xercesc_2_515DOMDocumentImpl13getAttributesEv, ptr @_ZNK11xercesc_2_515DOMDocumentImpl13getChildNodesEv, ptr @_ZNK11xercesc_2_515DOMDocumentImpl13getFirstChildEv, ptr @_ZNK11xercesc_2_515DOMDocumentImpl12getLastChildEv, ptr @_ZNK11xercesc_2_515DOMDocumentImpl12getLocalNameEv, ptr @_ZNK11xercesc_2_515DOMDocumentImpl15getNamespaceURIEv, ptr @_ZNK11xercesc_2_515DOMDocumentImpl14getNextSiblingEv, ptr @_ZNK11xercesc_2_515DOMDocumentImpl11getNodeNameEv, ptr @_ZNK11xercesc_2_515DOMDocumentImpl11getNodeTypeEv, ptr @_ZNK11xercesc_2_515DOMDocumentImpl12getNodeValueEv, ptr @_ZNK11xercesc_2_515DOMDocumentImpl16getOwnerDocumentEv, ptr @_ZNK11xercesc_2_515DOMDocumentImpl9getPrefixEv, ptr @_ZNK11xercesc_2_515DOMDocumentImpl13getParentNodeEv, ptr @_ZNK11xercesc_2_515DOMDocumentImpl18getPreviousSiblingEv, ptr @_ZNK11xercesc_2_515DOMDocumentImpl13hasChildNodesEv, ptr @_ZN11xercesc_2_515DOMDocumentImpl12insertBeforeEPNS_7DOMNodeES2_, ptr @_ZN11xercesc_2_515DOMDocumentImpl9normalizeEv, ptr @_ZN11xercesc_2_515DOMDocumentImpl11removeChildEPNS_7DOMNodeE, ptr @_ZN11xercesc_2_515DOMDocumentImpl12replaceChildEPNS_7DOMNodeES2_, ptr @_ZN11xercesc_2_515DOMDocumentImpl12setNodeValueEPKt, ptr @_ZNK11xercesc_2_515DOMDocumentImpl11isSupportedEPKtS2_, ptr @_ZNK11xercesc_2_515DOMDocumentImpl13hasAttributesEv, ptr @_ZN11xercesc_2_515DOMDocumentImpl9setPrefixEPKt, ptr @_ZN11xercesc_2_515DOMDocumentImpl11setUserDataEPKtPvPNS_18DOMUserDataHandlerE, ptr @_ZNK11xercesc_2_515DOMDocumentImpl11getUserDataEPKt, ptr @_ZNK11xercesc_2_515DOMDocumentImpl10isSameNodeEPKNS_7DOMNodeE, ptr @_ZNK11xercesc_2_515DOMDocumentImpl11isEqualNodeEPKNS_7DOMNodeE, ptr @_ZNK11xercesc_2_515DOMDocumentImpl10getBaseURIEv, ptr @_ZNK11xercesc_2_515DOMDocumentImpl19compareTreePositionEPKNS_7DOMNodeE, ptr @_ZNK11xercesc_2_515DOMDocumentImpl14getTextContentEv, ptr @_ZN11xercesc_2_515DOMDocumentImpl14setTextContentEPKt, ptr @_ZNK11xercesc_2_515DOMDocumentImpl21lookupNamespacePrefixEPKtb, ptr @_ZNK11xercesc_2_515DOMDocumentImpl18isDefaultNamespaceEPKt, ptr @_ZNK11xercesc_2_515DOMDocumentImpl18lookupNamespaceURIEPKt, ptr @_ZN11xercesc_2_515DOMDocumentImpl12getInterfaceEPKt, ptr @_ZN11xercesc_2_515DOMDocumentImpl7releaseEv, ptr @_ZN11xercesc_2_515DOMDocumentImpl18createDocumentTypeEPKtS2_S2_, ptr @_ZN11xercesc_2_515DOMDocumentImpl20createElementNoCheckEPKt, ptr @_ZN11xercesc_2_515DOMDocumentImpl18createNodeIteratorEPNS_7DOMNodeEmPNS_13DOMNodeFilterEb, ptr @_ZN11xercesc_2_515DOMDocumentImpl16createTreeWalkerEPNS_7DOMNodeEmPNS_13DOMNodeFilterEb, ptr @_ZNK11xercesc_2_515DOMDocumentImpl9getRangesEv, ptr @_ZNK11xercesc_2_515DOMDocumentImpl16getNodeIteratorsEv, ptr @_ZN11xercesc_2_515DOMDocumentImpl11removeRangeEPNS_12DOMRangeImplE, ptr @_ZN11xercesc_2_515DOMDocumentImpl18removeNodeIteratorEPNS_19DOMNodeIteratorImplE, ptr @_ZN11xercesc_2_515DOMDocumentImpl16createExpressionEPKtPKNS_18DOMXPathNSResolverE, ptr @_ZN11xercesc_2_515DOMDocumentImpl16createNSResolverEPNS_7DOMNodeE, ptr @_ZN11xercesc_2_515DOMDocumentImpl8evaluateEPKtPNS_7DOMNodeEPKNS_18DOMXPathNSResolverEtPv, ptr @_ZN11xercesc_2_515DOMDocumentImpl7changedEv, ptr @_ZNK11xercesc_2_515DOMDocumentImpl7changesEv, ptr @_ZN11xercesc_2_515DOMDocumentImpl19setDOMConfigurationEPNS_16DOMConfigurationE, ptr @_ZN11xercesc_2_515DOMDocumentImpl10importNodeEPNS_7DOMNodeEbb], [7 x ptr] [ptr inttoptr (i64 -8 to ptr), ptr @_ZTIN11xercesc_2_515DOMDocumentImplE, ptr @_ZThn8_N11xercesc_2_515DOMDocumentImplD1Ev, ptr @_ZThn8_N11xercesc_2_515DOMDocumentImplD0Ev, ptr @_ZThn8_N11xercesc_2_515DOMDocumentImpl16createExpressionEPKtPKNS_18DOMXPathNSResolverE, ptr @_ZThn8_N11xercesc_2_515DOMDocumentImpl16createNSResolverEPNS_7DOMNodeE, ptr @_ZThn8_N11xercesc_2_515DOMDocumentImpl8evaluateEPKtPNS_7DOMNodeEPKNS_18DOMXPathNSResolverEtPv], [6 x ptr] [ptr inttoptr (i64 -16 to ptr), ptr @_ZTIN11xercesc_2_515DOMDocumentImplE, ptr @_ZThn16_N11xercesc_2_515DOMDocumentImplD1Ev, ptr @_ZThn16_N11xercesc_2_515DOMDocumentImplD0Ev, ptr @_ZThn16_N11xercesc_2_515DOMDocumentImpl18createNodeIteratorEPNS_7DOMNodeEmPNS_13DOMNodeFilterEb, ptr @_ZThn16_N11xercesc_2_515DOMDocumentImpl16createTreeWalkerEPNS_7DOMNodeEmPNS_13DOMNodeFilterEb], [42 x ptr] [ptr inttoptr (i64 -24 to ptr), ptr @_ZTIN11xercesc_2_515DOMDocumentImplE, ptr @_ZThn24_N11xercesc_2_515DOMDocumentImplD1Ev, ptr @_ZThn24_N11xercesc_2_515DOMDocumentImplD0Ev, ptr @_ZThn24_NK11xercesc_2_515DOMDocumentImpl11getNodeNameEv, ptr @_ZThn24_NK11xercesc_2_515DOMDocumentImpl12getNodeValueEv, ptr @_ZThn24_NK11xercesc_2_515DOMDocumentImpl11getNodeTypeEv, ptr @_ZThn24_NK11xercesc_2_515DOMDocumentImpl13getParentNodeEv, ptr @_ZThn24_NK11xercesc_2_515DOMDocumentImpl13getChildNodesEv, ptr @_ZThn24_NK11xercesc_2_515DOMDocumentImpl13getFirstChildEv, ptr @_ZThn24_NK11xercesc_2_515DOMDocumentImpl12getLastChildEv, ptr @_ZThn24_NK11xercesc_2_515DOMDocumentImpl18getPreviousSiblingEv, ptr @_ZThn24_NK11xercesc_2_515DOMDocumentImpl14getNextSiblingEv, ptr @_ZThn24_NK11xercesc_2_515DOMDocumentImpl13getAttributesEv, ptr @_ZThn24_NK11xercesc_2_515DOMDocumentImpl16getOwnerDocumentEv, ptr @_ZThn24_NK11xercesc_2_515DOMDocumentImpl9cloneNodeEb, ptr @_ZThn24_N11xercesc_2_515DOMDocumentImpl12insertBeforeEPNS_7DOMNodeES2_, ptr @_ZThn24_N11xercesc_2_515DOMDocumentImpl12replaceChildEPNS_7DOMNodeES2_, ptr @_ZThn24_N11xercesc_2_515DOMDocumentImpl11removeChildEPNS_7DOMNodeE, ptr @_ZThn24_N11xercesc_2_515DOMDocumentImpl11appendChildEPNS_7DOMNodeE, ptr @_ZThn24_NK11xercesc_2_515DOMDocumentImpl13hasChildNodesEv, ptr @_ZThn24_N11xercesc_2_515DOMDocumentImpl12setNodeValueEPKt, ptr @_ZThn24_N11xercesc_2_515DOMDocumentImpl9normalizeEv, ptr @_ZThn24_NK11xercesc_2_515DOMDocumentImpl11isSupportedEPKtS2_, ptr @_ZThn24_NK11xercesc_2_515DOMDocumentImpl15getNamespaceURIEv, ptr @_ZThn24_NK11xercesc_2_515DOMDocumentImpl9getPrefixEv, ptr @_ZThn24_NK11xercesc_2_515DOMDocumentImpl12getLocalNameEv, ptr @_ZThn24_N11xercesc_2_515DOMDocumentImpl9setPrefixEPKt, ptr @_ZThn24_NK11xercesc_2_515DOMDocumentImpl13hasAttributesEv, ptr @_ZThn24_NK11xercesc_2_515DOMDocumentImpl10isSameNodeEPKNS_7DOMNodeE, ptr @_ZThn24_NK11xercesc_2_515DOMDocumentImpl11isEqualNodeEPKNS_7DOMNodeE, ptr @_ZThn24_N11xercesc_2_515DOMDocumentImpl11setUserDataEPKtPvPNS_18DOMUserDataHandlerE, ptr @_ZThn24_NK11xercesc_2_515DOMDocumentImpl11getUserDataEPKt, ptr @_ZThn24_NK11xercesc_2_515DOMDocumentImpl10getBaseURIEv, ptr @_ZThn24_NK11xercesc_2_515DOMDocumentImpl19compareTreePositionEPKNS_7DOMNodeE, ptr @_ZThn24_NK11xercesc_2_515DOMDocumentImpl14getTextContentEv, ptr @_ZThn24_N11xercesc_2_515DOMDocumentImpl14setTextContentEPKt, ptr @_ZThn24_NK11xercesc_2_515DOMDocumentImpl21lookupNamespacePrefixEPKtb, ptr @_ZThn24_NK11xercesc_2_515DOMDocumentImpl18isDefaultNamespaceEPKt, ptr @_ZThn24_NK11xercesc_2_515DOMDocumentImpl18lookupNamespaceURIEPKt, ptr @_ZThn24_N11xercesc_2_515DOMDocumentImpl12getInterfaceEPKt, ptr @_ZThn24_N11xercesc_2_515DOMDocumentImpl7releaseEv] }, align 8, !type !0, !type !1, !type !2, !type !3, !type !4, !type !5, !type !6, !type !7, !type !8, !type !9, !type !10, !type !11, !type !12, !type !13, !type !14, !type !15, !type !16, !type !17, !type !18, !type !19, !type !20, !type !21, !type !22, !type !23, !type !24, !type !25, !type !26, !type !27, !type !28, !type !29, !type !30, !type !31, !type !32, !type !33, !type !34, !type !35, !type !36, !type !37, !type !38, !type !39, !type !40, !type !41, !type !42, !type !43, !type !44, !type !45, !type !46, !type !47, !type !48, !type !49, !type !50, !type !51, !type !52, !type !53, !type !54, !type !55, !type !56, !type !57, !type !58, !type !59, !type !60, !type !61, !type !62, !type !63, !type !64, !type !65, !type !66, !type !67, !type !68, !type !69, !type !70, !type !71, !type !72, !type !73, !type !74, !type !75, !type !76, !type !77, !type !78, !type !79, !type !80, !type !81, !type !82, !type !83, !type !84, !type !85, !type !86, !type !87, !type !88, !type !89, !type !90, !type !91, !type !92, !type !93, !type !94, !type !95, !type !96, !type !97, !type !98, !type !99, !type !100, !type !101, !type !102, !type !103, !type !104, !type !105, !type !106, !type !107, !type !108, !type !109, !type !110, !type !111, !type !112, !type !113, !type !114, !type !115, !type !116, !type !117, !type !118, !type !119, !type !120, !type !121, !type !122, !type !123, !type !124, !type !125, !type !126, !type !127, !type !128, !type !129, !type !130, !type !131, !type !132, !type !133, !type !134, !type !135, !type !136, !type !137, !type !138, !type !139, !type !140, !type !141, !type !142, !type !143, !type !144, !type !145, !type !146, !type !147, !type !148, !type !149, !type !150, !type !151, !type !152, !type !153, !type !154, !type !155, !type !156, !type !157, !type !158, !type !159, !type !160, !type !161, !type !162, !type !163, !type !164, !type !165, !type !166, !type !167, !type !168, !type !169, !type !170, !type !171, !type !172, !type !173, !type !174, !type !175, !type !176, !type !177, !type !178, !type !179, !type !180, !type !181, !type !182, !type !183, !type !184, !type !185, !type !186, !type !187, !type !188, !type !189, !type !190, !type !191, !type !192, !type !193, !type !194, !type !195, !type !196, !type !197, !type !198, !type !199, !type !200, !type !201, !type !202, !type !203, !type !204, !type !205, !type !206, !type !207, !type !208, !type !209, !type !210, !type !211, !type !212, !type !213, !type !214, !type !215, !type !216, !type !217, !type !218, !type !219, !type !220, !type !221, !type !222, !type !223, !type !224, !type !225, !type !226, !type !227, !type !228, !type !229, !type !230, !type !231, !type !232, !type !233, !type !234, !type !235, !type !236, !type !237, !type !238, !type !239, !type !240, !type !241, !type !242, !type !243, !type !244, !type !245, !type !246, !type !247, !type !248, !type !249, !type !250, !type !251, !type !252, !type !253, !type !254, !type !255, !type !256, !type !257, !type !258, !type !259, !type !260, !type !261, !type !262, !type !263, !type !264, !type !265, !type !266, !type !267, !type !268, !type !269, !type !270, !type !271, !type !272, !type !273, !type !274, !type !275, !type !276, !type !277, !type !278, !type !279, !type !280, !type !281, !type !282, !type !283, !type !284, !type !285, !type !286, !type !287, !type !288, !type !289, !type !290, !type !291, !type !292, !type !293, !type !294, !type !295, !type !296, !type !297, !type !298, !type !299, !type !300, !type !301, !type !302, !type !303, !type !304, !type !305, !type !306, !type !307, !type !308, !type !309, !type !310, !type !311, !type !312, !type !313, !type !314, !type !315, !type !316, !type !317, !type !318, !type !319, !type !320, !type !321, !type !322, !type !323, !type !324, !type !325, !type !326, !type !327, !type !328, !type !329, !type !330, !type !331, !type !332, !type !333, !type !334, !type !335, !type !336, !type !337, !type !338, !type !339, !type !340, !type !341, !type !342, !type !343, !type !344, !type !345, !type !346, !type !347, !type !348, !type !349, !type !350, !type !351, !type !352, !type !353, !type !354, !type !355, !type !356, !type !357, !type !358, !type !359, !type !360, !type !361, !type !362, !type !363, !type !364, !type !365, !type !366, !type !367, !type !368, !type !369, !type !370, !type !371, !type !372, !type !373, !type !374, !type !375, !type !376, !type !377, !type !378, !type !379, !type !380, !type !381, !type !382, !type !383, !type !384, !type !385, !type !386, !type !387, !type !388, !type !389, !type !390, !type !391, !type !392, !type !393, !type !394, !type !395, !type !396, !type !397, !type !398, !type !399, !type !400, !type !401, !type !402, !type !403, !type !404, !type !405, !type !406, !type !407, !type !408, !type !409, !type !410, !type !411, !type !412, !type !413, !type !414, !type !415, !type !416, !type !417, !type !418, !type !419, !type !420, !type !421, !type !422, !type !423, !type !424, !type !425, !type !426, !type !427, !type !428, !type !429, !type !430, !type !431, !type !432, !type !433, !type !434, !type !435, !type !436, !type !437, !type !438, !type !439, !type !440, !type !441, !type !442, !type !443, !type !444, !type !445, !type !446, !type !447, !type !448, !type !449, !type !450, !type !451, !type !452, !type !453, !type !454, !type !455, !type !456, !type !457, !type !458, !type !459, !type !460, !type !461, !type !462, !type !463, !type !464, !type !465, !type !466, !type !467, !type !468, !type !469, !type !470, !type !471, !type !472, !type !473, !type !474, !type !475, !type !476, !type !477, !type !478, !type !479, !type !480, !type !481, !type !482, !type !483, !type !484, !type !485, !type !486, !type !487, !type !488, !type !489, !type !490, !type !491, !type !492, !type !493, !type !494, !type !495, !type !496, !type !497, !type !498, !type !499, !type !500, !type !501, !type !502, !type !503, !type !504, !type !505, !type !506, !type !507, !type !508, !type !509, !type !510, !type !511, !type !512, !type !513, !type !514, !type !515, !type !516, !type !517, !type !518, !type !519, !type !520, !type !521, !type !522, !type !523, !type !524, !type !525, !type !526, !type !527, !type !528, !type !529, !type !530, !type !531, !type !532, !type !533, !type !534, !type !535, !type !536, !type !537, !type !538, !type !539, !type !540, !type !541, !type !542, !type !543, !type !544, !type !545, !type !546, !type !547, !type !548, !type !549, !type !550, !type !551, !type !552, !type !553, !type !554, !type !555, !type !556, !type !557, !type !558, !type !559, !type !560, !type !561, !type !562, !type !563, !type !564, !type !565, !type !566, !type !567, !type !568, !type !569, !type !570, !type !571, !type !572, !type !573, !type !574, !type !575, !type !576, !type !577, !type !578, !type !579, !type !580, !type !581, !type !582, !type !583, !type !584, !type !585, !type !586, !type !587, !type !588, !type !589, !type !590, !type !591, !type !592, !type !593, !type !594, !type !595, !type !596, !type !597, !type !598, !type !599, !type !600, !type !601, !type !602, !type !603, !type !604, !type !605, !type !606, !type !607, !type !608, !type !609, !type !610, !type !611, !type !612, !type !613, !type !614, !type !615, !type !616, !type !617, !type !618, !type !619, !type !620, !type !621, !type !622, !type !623, !type !624, !type !625, !type !626, !type !627, !type !628, !type !629, !type !630, !type !631, !type !632, !type !633, !type !634, !type !635, !type !636, !type !637, !type !638, !type !639, !type !640, !type !641, !type !642, !type !643, !type !644, !type !645, !type !646, !type !647, !type !648, !type !649, !type !650, !type !651, !type !652, !type !653, !type !654, !type !655, !type !656, !type !657, !type !658, !type !659, !type !660, !type !661, !type !662, !type !663, !type !664, !type !665, !type !666, !type !667, !type !668, !type !669, !type !670, !type !671, !type !672, !type !673, !type !674, !type !675, !type !676, !type !677, !type !678, !type !679, !type !680, !type !681, !type !682, !type !683, !type !684, !type !685, !type !686, !type !687, !type !688, !type !689, !type !690, !type !691, !type !692, !type !693, !type !694, !type !695, !type !696, !type !697, !type !698, !type !699, !type !700, !type !701, !type !702, !type !703, !type !704, !type !705, !type !706, !type !707, !type !708, !type !709, !type !710, !type !711, !type !712, !type !713, !type !714, !type !715, !type !716, !type !717, !type !718, !type !719, !type !720, !type !721, !type !722, !type !723, !type !724, !type !725, !type !726, !type !727, !type !728, !type !729, !type !730, !type !731, !type !732, !type !733, !type !734, !type !735, !type !736, !type !737, !type !738, !type !739, !type !740, !type !741, !type !742, !type !743, !type !744, !type !745, !type !746, !type !747, !type !748, !type !749, !type !750, !type !751, !type !752, !type !753, !type !754, !type !755, !type !756, !type !757, !type !758, !type !759, !type !760, !type !761, !type !762, !type !763, !type !764, !type !765, !type !766, !type !767, !type !768, !type !769, !type !770, !type !771, !type !772, !type !773, !type !774, !type !775, !type !776, !type !777, !type !778, !type !779, !type !780, !type !781, !type !782, !type !783, !type !784, !type !785, !type !786, !type !787, !type !788, !type !789, !type !790, !type !791, !type !792, !type !793, !type !794, !type !795, !type !796, !type !797, !type !798, !type !799, !type !800, !type !801, !type !802, !type !803, !type !804, !type !805, !type !806, !type !807, !type !808, !type !809
@_ZTVN10__cxxabiv120__si_class_type_infoE = external global ptr
@_ZTSN11xercesc_2_520OutOfMemoryExceptionE = linkonce_odr dso_local constant [38 x i8] c"N11xercesc_2_520OutOfMemoryExceptionE\00", comdat, align 1
@_ZTVN10__cxxabiv117__class_type_infoE = external global ptr
@_ZTSN11xercesc_2_57XMemoryE = linkonce_odr dso_local constant [24 x i8] c"N11xercesc_2_57XMemoryE\00", comdat, align 1
@_ZTIN11xercesc_2_57XMemoryE = linkonce_odr dso_local constant { ptr, ptr } { ptr getelementptr inbounds (ptr, ptr @_ZTVN10__cxxabiv117__class_type_infoE, i64 2), ptr @_ZTSN11xercesc_2_57XMemoryE }, comdat, align 8
@_ZTIN11xercesc_2_520OutOfMemoryExceptionE = linkonce_odr dso_local constant { ptr, ptr, ptr } { ptr getelementptr inbounds (ptr, ptr @_ZTVN10__cxxabiv120__si_class_type_infoE, i64 2), ptr @_ZTSN11xercesc_2_520OutOfMemoryExceptionE, ptr @_ZTIN11xercesc_2_57XMemoryE }, comdat, align 8
@_ZTIN11xercesc_2_512DOMExceptionE = external constant ptr
@_ZZNK11xercesc_2_515DOMDocumentImpl11getNodeNameEvE3nam = internal constant [10 x i16] [i16 35, i16 100, i16 111, i16 99, i16 117, i16 109, i16 101, i16 110, i16 116, i16 0], align 16
@_ZN11xercesc_2_56XMLUni12fgVersion1_1E = external local_unnamed_addr constant [0 x i16], align 2
@_ZZN11xercesc_2_515DOMDocumentImpl7isKidOKEPNS_7DOMNodeES2_E5kidOK = internal unnamed_addr global [14 x i32] zeroinitializer, align 16
@_ZN11xercesc_2_56XMLUni12fgVersion1_0E = external local_unnamed_addr constant [0 x i16], align 2
@_ZTVN10__cxxabiv121__vmi_class_type_infoE = external global ptr
@_ZTSN11xercesc_2_515DOMDocumentImplE = dso_local constant [33 x i8] c"N11xercesc_2_515DOMDocumentImplE\00", align 1
@_ZTSN11xercesc_2_511DOMDocumentE = linkonce_odr dso_local constant [29 x i8] c"N11xercesc_2_511DOMDocumentE\00", comdat, align 1
@_ZTSN11xercesc_2_516DOMDocumentRangeE = linkonce_odr dso_local constant [34 x i8] c"N11xercesc_2_516DOMDocumentRangeE\00", comdat, align 1
@_ZTIN11xercesc_2_516DOMDocumentRangeE = linkonce_odr dso_local constant { ptr, ptr } { ptr getelementptr inbounds (ptr, ptr @_ZTVN10__cxxabiv117__class_type_infoE, i64 2), ptr @_ZTSN11xercesc_2_516DOMDocumentRangeE }, comdat, align 8
@_ZTSN11xercesc_2_517DOMXPathEvaluatorE = linkonce_odr dso_local constant [35 x i8] c"N11xercesc_2_517DOMXPathEvaluatorE\00", comdat, align 1
@_ZTIN11xercesc_2_517DOMXPathEvaluatorE = linkonce_odr dso_local constant { ptr, ptr } { ptr getelementptr inbounds (ptr, ptr @_ZTVN10__cxxabiv117__class_type_infoE, i64 2), ptr @_ZTSN11xercesc_2_517DOMXPathEvaluatorE }, comdat, align 8
@_ZTSN11xercesc_2_520DOMDocumentTraversalE = linkonce_odr dso_local constant [38 x i8] c"N11xercesc_2_520DOMDocumentTraversalE\00", comdat, align 1
@_ZTIN11xercesc_2_520DOMDocumentTraversalE = linkonce_odr dso_local constant { ptr, ptr } { ptr getelementptr inbounds (ptr, ptr @_ZTVN10__cxxabiv117__class_type_infoE, i64 2), ptr @_ZTSN11xercesc_2_520DOMDocumentTraversalE }, comdat, align 8
@_ZTSN11xercesc_2_57DOMNodeE = linkonce_odr dso_local constant [24 x i8] c"N11xercesc_2_57DOMNodeE\00", comdat, align 1
@_ZTIN11xercesc_2_57DOMNodeE = linkonce_odr dso_local constant { ptr, ptr } { ptr getelementptr inbounds (ptr, ptr @_ZTVN10__cxxabiv117__class_type_infoE, i64 2), ptr @_ZTSN11xercesc_2_57DOMNodeE }, comdat, align 8
@_ZTIN11xercesc_2_511DOMDocumentE = linkonce_odr dso_local constant { ptr, ptr, i32, i32, ptr, i64, ptr, i64, ptr, i64, ptr, i64 } { ptr getelementptr inbounds (ptr, ptr @_ZTVN10__cxxabiv121__vmi_class_type_infoE, i64 2), ptr @_ZTSN11xercesc_2_511DOMDocumentE, i32 0, i32 4, ptr @_ZTIN11xercesc_2_516DOMDocumentRangeE, i64 2, ptr @_ZTIN11xercesc_2_517DOMXPathEvaluatorE, i64 2050, ptr @_ZTIN11xercesc_2_520DOMDocumentTraversalE, i64 4098, ptr @_ZTIN11xercesc_2_57DOMNodeE, i64 6146 }, comdat, align 8
@_ZTIN11xercesc_2_515DOMDocumentImplE = dso_local constant { ptr, ptr, i32, i32, ptr, i64, ptr, i64 } { ptr getelementptr inbounds (ptr, ptr @_ZTVN10__cxxabiv121__vmi_class_type_infoE, i64 2), ptr @_ZTSN11xercesc_2_515DOMDocumentImplE, i32 0, i32 2, ptr @_ZTIN11xercesc_2_57XMemoryE, i64 2, ptr @_ZTIN11xercesc_2_511DOMDocumentE, i64 2 }, align 8
@_ZN11xercesc_2_511DOMNodeImpl7ID_ATTRE = external local_unnamed_addr constant i16, align 2
@_ZN11xercesc_2_511DOMNodeImpl8USERDATAE = external local_unnamed_addr constant i16, align 2
@_ZN11xercesc_2_511DOMNodeImpl12TOBERELEASEDE = external local_unnamed_addr constant i16, align 2
@_ZTVN11xercesc_2_511RefVectorOfINS_7DOMNodeEEE = linkonce_odr dso_local unnamed_addr constant { [9 x ptr] } { [9 x ptr] [ptr null, ptr @_ZTIN11xercesc_2_511RefVectorOfINS_7DOMNodeEEE, ptr @_ZN11xercesc_2_511RefVectorOfINS_7DOMNodeEED2Ev, ptr @_ZN11xercesc_2_511RefVectorOfINS_7DOMNodeEED0Ev, ptr @_ZN11xercesc_2_515BaseRefVectorOfINS_7DOMNodeEE12setElementAtEPS1_j, ptr @_ZN11xercesc_2_515BaseRefVectorOfINS_7DOMNodeEE17removeAllElementsEv, ptr @_ZN11xercesc_2_515BaseRefVectorOfINS_7DOMNodeEE15removeElementAtEj, ptr @_ZN11xercesc_2_515BaseRefVectorOfINS_7DOMNodeEE17removeLastElementEv, ptr @_ZN11xercesc_2_515BaseRefVectorOfINS_7DOMNodeEE7cleanupEv] }, comdat, align 8, !type !810, !type !811, !type !812, !type !813, !type !814, !type !815, !type !816, !type !817, !type !818, !type !819, !type !820, !type !821
@_ZTSN11xercesc_2_511RefVectorOfINS_7DOMNodeEEE = linkonce_odr dso_local constant [43 x i8] c"N11xercesc_2_511RefVectorOfINS_7DOMNodeEEE\00", comdat, align 1
@_ZTSN11xercesc_2_515BaseRefVectorOfINS_7DOMNodeEEE = linkonce_odr dso_local constant [47 x i8] c"N11xercesc_2_515BaseRefVectorOfINS_7DOMNodeEEE\00", comdat, align 1
@_ZTIN11xercesc_2_515BaseRefVectorOfINS_7DOMNodeEEE = linkonce_odr dso_local constant { ptr, ptr, ptr } { ptr getelementptr inbounds (ptr, ptr @_ZTVN10__cxxabiv120__si_class_type_infoE, i64 2), ptr @_ZTSN11xercesc_2_515BaseRefVectorOfINS_7DOMNodeEEE, ptr @_ZTIN11xercesc_2_57XMemoryE }, comdat, align 8
@_ZTIN11xercesc_2_511RefVectorOfINS_7DOMNodeEEE = linkonce_odr dso_local constant { ptr, ptr, ptr } { ptr getelementptr inbounds (ptr, ptr @_ZTVN10__cxxabiv120__si_class_type_infoE, i64 2), ptr @_ZTSN11xercesc_2_511RefVectorOfINS_7DOMNodeEEE, ptr @_ZTIN11xercesc_2_515BaseRefVectorOfINS_7DOMNodeEEE }, comdat, align 8
@.str = private unnamed_addr constant [33 x i8] c"./xercesc/util/BaseRefVectorOf.c\00", align 1
@_ZTSN11xercesc_2_530ArrayIndexOutOfBoundsExceptionE = linkonce_odr dso_local constant [48 x i8] c"N11xercesc_2_530ArrayIndexOutOfBoundsExceptionE\00", comdat, align 1
@_ZTIN11xercesc_2_512XMLExceptionE = external constant ptr
@_ZTIN11xercesc_2_530ArrayIndexOutOfBoundsExceptionE = linkonce_odr dso_local constant { ptr, ptr, ptr } { ptr getelementptr inbounds (ptr, ptr @_ZTVN10__cxxabiv120__si_class_type_infoE, i64 2), ptr @_ZTSN11xercesc_2_530ArrayIndexOutOfBoundsExceptionE, ptr @_ZTIN11xercesc_2_512XMLExceptionE }, comdat, align 8
@_ZTVN11xercesc_2_530ArrayIndexOutOfBoundsExceptionE = linkonce_odr dso_local unnamed_addr constant { [6 x ptr] } { [6 x ptr] [ptr null, ptr @_ZTIN11xercesc_2_530ArrayIndexOutOfBoundsExceptionE, ptr @_ZN11xercesc_2_512XMLExceptionD2Ev, ptr @_ZN11xercesc_2_530ArrayIndexOutOfBoundsExceptionD0Ev, ptr @_ZNK11xercesc_2_530ArrayIndexOutOfBoundsException7getTypeEv, ptr @_ZNK11xercesc_2_530ArrayIndexOutOfBoundsException9duplicateEv] }, comdat, align 8, !type !822, !type !823, !type !824, !type !825, !type !826, !type !827
@_ZN11xercesc_2_56XMLUni37fgArrayIndexOutOfBoundsException_NameE = external constant [0 x i16], align 2
@_ZTVN11xercesc_2_511RefVectorOfINS_9DOMBufferEEE = linkonce_odr dso_local unnamed_addr constant { [9 x ptr] } { [9 x ptr] [ptr null, ptr @_ZTIN11xercesc_2_511RefVectorOfINS_9DOMBufferEEE, ptr @_ZN11xercesc_2_511RefVectorOfINS_9DOMBufferEED2Ev, ptr @_ZN11xercesc_2_511RefVectorOfINS_9DOMBufferEED0Ev, ptr @_ZN11xercesc_2_515BaseRefVectorOfINS_9DOMBufferEE12setElementAtEPS1_j, ptr @_ZN11xercesc_2_515BaseRefVectorOfINS_9DOMBufferEE17removeAllElementsEv, ptr @_ZN11xercesc_2_515BaseRefVectorOfINS_9DOMBufferEE15removeElementAtEj, ptr @_ZN11xercesc_2_515BaseRefVectorOfINS_9DOMBufferEE17removeLastElementEv, ptr @_ZN11xercesc_2_515BaseRefVectorOfINS_9DOMBufferEE7cleanupEv] }, comdat, align 8, !type !828, !type !829, !type !830, !type !831, !type !832, !type !833, !type !834, !type !835, !type !836, !type !837, !type !838, !type !839
@_ZTSN11xercesc_2_511RefVectorOfINS_9DOMBufferEEE = linkonce_odr dso_local constant [45 x i8] c"N11xercesc_2_511RefVectorOfINS_9DOMBufferEEE\00", comdat, align 1
@_ZTSN11xercesc_2_515BaseRefVectorOfINS_9DOMBufferEEE = linkonce_odr dso_local constant [49 x i8] c"N11xercesc_2_515BaseRefVectorOfINS_9DOMBufferEEE\00", comdat, align 1
@_ZTIN11xercesc_2_515BaseRefVectorOfINS_9DOMBufferEEE = linkonce_odr dso_local constant { ptr, ptr, ptr } { ptr getelementptr inbounds (ptr, ptr @_ZTVN10__cxxabiv120__si_class_type_infoE, i64 2), ptr @_ZTSN11xercesc_2_515BaseRefVectorOfINS_9DOMBufferEEE, ptr @_ZTIN11xercesc_2_57XMemoryE }, comdat, align 8
@_ZTIN11xercesc_2_511RefVectorOfINS_9DOMBufferEEE = linkonce_odr dso_local constant { ptr, ptr, ptr } { ptr getelementptr inbounds (ptr, ptr @_ZTVN10__cxxabiv120__si_class_type_infoE, i64 2), ptr @_ZTSN11xercesc_2_511RefVectorOfINS_9DOMBufferEEE, ptr @_ZTIN11xercesc_2_515BaseRefVectorOfINS_9DOMBufferEEE }, comdat, align 8
@_ZTVN11xercesc_2_511RefVectorOfINS_19DOMNodeIteratorImplEEE = linkonce_odr dso_local unnamed_addr constant { [9 x ptr] } { [9 x ptr] [ptr null, ptr @_ZTIN11xercesc_2_511RefVectorOfINS_19DOMNodeIteratorImplEEE, ptr @_ZN11xercesc_2_511RefVectorOfINS_19DOMNodeIteratorImplEED2Ev, ptr @_ZN11xercesc_2_511RefVectorOfINS_19DOMNodeIteratorImplEED0Ev, ptr @_ZN11xercesc_2_515BaseRefVectorOfINS_19DOMNodeIteratorImplEE12setElementAtEPS1_j, ptr @_ZN11xercesc_2_515BaseRefVectorOfINS_19DOMNodeIteratorImplEE17removeAllElementsEv, ptr @_ZN11xercesc_2_515BaseRefVectorOfINS_19DOMNodeIteratorImplEE15removeElementAtEj, ptr @_ZN11xercesc_2_515BaseRefVectorOfINS_19DOMNodeIteratorImplEE17removeLastElementEv, ptr @_ZN11xercesc_2_515BaseRefVectorOfINS_19DOMNodeIteratorImplEE7cleanupEv] }, comdat, align 8, !type !840, !type !841, !type !842, !type !843, !type !844, !type !845, !type !846, !type !847, !type !848, !type !849, !type !850, !type !851
@_ZTSN11xercesc_2_511RefVectorOfINS_19DOMNodeIteratorImplEEE = linkonce_odr dso_local constant [56 x i8] c"N11xercesc_2_511RefVectorOfINS_19DOMNodeIteratorImplEEE\00", comdat, align 1
@_ZTSN11xercesc_2_515BaseRefVectorOfINS_19DOMNodeIteratorImplEEE = linkonce_odr dso_local constant [60 x i8] c"N11xercesc_2_515BaseRefVectorOfINS_19DOMNodeIteratorImplEEE\00", comdat, align 1
@_ZTIN11xercesc_2_515BaseRefVectorOfINS_19DOMNodeIteratorImplEEE = linkonce_odr dso_local constant { ptr, ptr, ptr } { ptr getelementptr inbounds (ptr, ptr @_ZTVN10__cxxabiv120__si_class_type_infoE, i64 2), ptr @_ZTSN11xercesc_2_515BaseRefVectorOfINS_19DOMNodeIteratorImplEEE, ptr @_ZTIN11xercesc_2_57XMemoryE }, comdat, align 8
@_ZTIN11xercesc_2_511RefVectorOfINS_19DOMNodeIteratorImplEEE = linkonce_odr dso_local constant { ptr, ptr, ptr } { ptr getelementptr inbounds (ptr, ptr @_ZTVN10__cxxabiv120__si_class_type_infoE, i64 2), ptr @_ZTSN11xercesc_2_511RefVectorOfINS_19DOMNodeIteratorImplEEE, ptr @_ZTIN11xercesc_2_515BaseRefVectorOfINS_19DOMNodeIteratorImplEEE }, comdat, align 8
@_ZTVN11xercesc_2_515BaseRefVectorOfINS_19DOMNodeIteratorImplEEE = linkonce_odr dso_local unnamed_addr constant { [9 x ptr] } { [9 x ptr] [ptr null, ptr @_ZTIN11xercesc_2_515BaseRefVectorOfINS_19DOMNodeIteratorImplEEE, ptr @_ZN11xercesc_2_515BaseRefVectorOfINS_19DOMNodeIteratorImplEED2Ev, ptr @_ZN11xercesc_2_515BaseRefVectorOfINS_19DOMNodeIteratorImplEED0Ev, ptr @_ZN11xercesc_2_515BaseRefVectorOfINS_19DOMNodeIteratorImplEE12setElementAtEPS1_j, ptr @_ZN11xercesc_2_515BaseRefVectorOfINS_19DOMNodeIteratorImplEE17removeAllElementsEv, ptr @_ZN11xercesc_2_515BaseRefVectorOfINS_19DOMNodeIteratorImplEE15removeElementAtEj, ptr @_ZN11xercesc_2_515BaseRefVectorOfINS_19DOMNodeIteratorImplEE17removeLastElementEv, ptr @_ZN11xercesc_2_515BaseRefVectorOfINS_19DOMNodeIteratorImplEE7cleanupEv] }, comdat, align 8, !type !846, !type !847, !type !848, !type !849, !type !850, !type !851
@_ZTVN11xercesc_2_511RefVectorOfINS_12DOMRangeImplEEE = linkonce_odr dso_local unnamed_addr constant { [9 x ptr] } { [9 x ptr] [ptr null, ptr @_ZTIN11xercesc_2_511RefVectorOfINS_12DOMRangeImplEEE, ptr @_ZN11xercesc_2_511RefVectorOfINS_12DOMRangeImplEED2Ev, ptr @_ZN11xercesc_2_511RefVectorOfINS_12DOMRangeImplEED0Ev, ptr @_ZN11xercesc_2_515BaseRefVectorOfINS_12DOMRangeImplEE12setElementAtEPS1_j, ptr @_ZN11xercesc_2_515BaseRefVectorOfINS_12DOMRangeImplEE17removeAllElementsEv, ptr @_ZN11xercesc_2_515BaseRefVectorOfINS_12DOMRangeImplEE15removeElementAtEj, ptr @_ZN11xercesc_2_515BaseRefVectorOfINS_12DOMRangeImplEE17removeLastElementEv, ptr @_ZN11xercesc_2_515BaseRefVectorOfINS_12DOMRangeImplEE7cleanupEv] }, comdat, align 8, !type !852, !type !853, !type !854, !type !855, !type !856, !type !857, !type !858, !type !859, !type !860, !type !861, !type !862, !type !863
@_ZTSN11xercesc_2_511RefVectorOfINS_12DOMRangeImplEEE = linkonce_odr dso_local constant [49 x i8] c"N11xercesc_2_511RefVectorOfINS_12DOMRangeImplEEE\00", comdat, align 1
@_ZTSN11xercesc_2_515BaseRefVectorOfINS_12DOMRangeImplEEE = linkonce_odr dso_local constant [53 x i8] c"N11xercesc_2_515BaseRefVectorOfINS_12DOMRangeImplEEE\00", comdat, align 1
@_ZTIN11xercesc_2_515BaseRefVectorOfINS_12DOMRangeImplEEE = linkonce_odr dso_local constant { ptr, ptr, ptr } { ptr getelementptr inbounds (ptr, ptr @_ZTVN10__cxxabiv120__si_class_type_infoE, i64 2), ptr @_ZTSN11xercesc_2_515BaseRefVectorOfINS_12DOMRangeImplEEE, ptr @_ZTIN11xercesc_2_57XMemoryE }, comdat, align 8
@_ZTIN11xercesc_2_511RefVectorOfINS_12DOMRangeImplEEE = linkonce_odr dso_local constant { ptr, ptr, ptr } { ptr getelementptr inbounds (ptr, ptr @_ZTVN10__cxxabiv120__si_class_type_infoE, i64 2), ptr @_ZTSN11xercesc_2_511RefVectorOfINS_12DOMRangeImplEEE, ptr @_ZTIN11xercesc_2_515BaseRefVectorOfINS_12DOMRangeImplEEE }, comdat, align 8
@_ZTVN11xercesc_2_515BaseRefVectorOfINS_12DOMRangeImplEEE = linkonce_odr dso_local unnamed_addr constant { [9 x ptr] } { [9 x ptr] [ptr null, ptr @_ZTIN11xercesc_2_515BaseRefVectorOfINS_12DOMRangeImplEEE, ptr @_ZN11xercesc_2_515BaseRefVectorOfINS_12DOMRangeImplEED2Ev, ptr @_ZN11xercesc_2_515BaseRefVectorOfINS_12DOMRangeImplEED0Ev, ptr @_ZN11xercesc_2_515BaseRefVectorOfINS_12DOMRangeImplEE12setElementAtEPS1_j, ptr @_ZN11xercesc_2_515BaseRefVectorOfINS_12DOMRangeImplEE17removeAllElementsEv, ptr @_ZN11xercesc_2_515BaseRefVectorOfINS_12DOMRangeImplEE15removeElementAtEj, ptr @_ZN11xercesc_2_515BaseRefVectorOfINS_12DOMRangeImplEE17removeLastElementEv, ptr @_ZN11xercesc_2_515BaseRefVectorOfINS_12DOMRangeImplEE7cleanupEv] }, comdat, align 8, !type !858, !type !859, !type !860, !type !861, !type !862, !type !863
@_ZN11xercesc_2_516XMLPlatformUtils15fgMemoryManagerE = external local_unnamed_addr global ptr, align 8
@.str.1 = private unnamed_addr constant [41 x i8] c"./xercesc/dom/impl/DOMDeepNodeListPool.c\00", align 1
@_ZTSN11xercesc_2_524IllegalArgumentExceptionE = linkonce_odr dso_local constant [42 x i8] c"N11xercesc_2_524IllegalArgumentExceptionE\00", comdat, align 1
@_ZTIN11xercesc_2_524IllegalArgumentExceptionE = linkonce_odr dso_local constant { ptr, ptr, ptr } { ptr getelementptr inbounds (ptr, ptr @_ZTVN10__cxxabiv120__si_class_type_infoE, i64 2), ptr @_ZTSN11xercesc_2_524IllegalArgumentExceptionE, ptr @_ZTIN11xercesc_2_512XMLExceptionE }, comdat, align 8
@_ZTVN11xercesc_2_524IllegalArgumentExceptionE = linkonce_odr dso_local unnamed_addr constant { [6 x ptr] } { [6 x ptr] [ptr null, ptr @_ZTIN11xercesc_2_524IllegalArgumentExceptionE, ptr @_ZN11xercesc_2_512XMLExceptionD2Ev, ptr @_ZN11xercesc_2_524IllegalArgumentExceptionD0Ev, ptr @_ZNK11xercesc_2_524IllegalArgumentException7getTypeEv, ptr @_ZNK11xercesc_2_524IllegalArgumentException9duplicateEv] }, comdat, align 8, !type !822, !type !823, !type !824, !type !864, !type !865, !type !866
@_ZN11xercesc_2_56XMLUni31fgIllegalArgumentException_NameE = external constant [0 x i16], align 2
@_ZTSN11xercesc_2_516RuntimeExceptionE = linkonce_odr dso_local constant [34 x i8] c"N11xercesc_2_516RuntimeExceptionE\00", comdat, align 1
@_ZTIN11xercesc_2_516RuntimeExceptionE = linkonce_odr dso_local constant { ptr, ptr, ptr } { ptr getelementptr inbounds (ptr, ptr @_ZTVN10__cxxabiv120__si_class_type_infoE, i64 2), ptr @_ZTSN11xercesc_2_516RuntimeExceptionE, ptr @_ZTIN11xercesc_2_512XMLExceptionE }, comdat, align 8
@_ZTVN11xercesc_2_516RuntimeExceptionE = linkonce_odr dso_local unnamed_addr constant { [6 x ptr] } { [6 x ptr] [ptr null, ptr @_ZTIN11xercesc_2_516RuntimeExceptionE, ptr @_ZN11xercesc_2_512XMLExceptionD2Ev, ptr @_ZN11xercesc_2_516RuntimeExceptionD0Ev, ptr @_ZNK11xercesc_2_516RuntimeException7getTypeEv, ptr @_ZNK11xercesc_2_516RuntimeException9duplicateEv] }, comdat, align 8, !type !822, !type !823, !type !824, !type !867, !type !868, !type !869
@_ZN11xercesc_2_56XMLUni23fgRuntimeException_NameE = external constant [0 x i16], align 2
@.str.2 = private unnamed_addr constant [32 x i8] c"./xercesc/util/RefHashTableOf.c\00", align 1
@_ZTSN11xercesc_2_522NoSuchElementExceptionE = linkonce_odr dso_local constant [40 x i8] c"N11xercesc_2_522NoSuchElementExceptionE\00", comdat, align 1
@_ZTIN11xercesc_2_522NoSuchElementExceptionE = linkonce_odr dso_local constant { ptr, ptr, ptr } { ptr getelementptr inbounds (ptr, ptr @_ZTVN10__cxxabiv120__si_class_type_infoE, i64 2), ptr @_ZTSN11xercesc_2_522NoSuchElementExceptionE, ptr @_ZTIN11xercesc_2_512XMLExceptionE }, comdat, align 8
@_ZTVN11xercesc_2_522NoSuchElementExceptionE = linkonce_odr dso_local unnamed_addr constant { [6 x ptr] } { [6 x ptr] [ptr null, ptr @_ZTIN11xercesc_2_522NoSuchElementExceptionE, ptr @_ZN11xercesc_2_512XMLExceptionD2Ev, ptr @_ZN11xercesc_2_522NoSuchElementExceptionD0Ev, ptr @_ZNK11xercesc_2_522NoSuchElementException7getTypeEv, ptr @_ZNK11xercesc_2_522NoSuchElementException9duplicateEv] }, comdat, align 8, !type !822, !type !823, !type !824, !type !870, !type !871, !type !872
@_ZN11xercesc_2_56XMLUni29fgNoSuchElementException_NameE = external constant [0 x i16], align 2
@_ZTVN11xercesc_2_524RefHashTableOfEnumeratorINS_10KeyRefPairIvNS_18DOMUserDataHandlerEEEEE = linkonce_odr dso_local unnamed_addr constant { [7 x ptr] } { [7 x ptr] [ptr null, ptr @_ZTIN11xercesc_2_524RefHashTableOfEnumeratorINS_10KeyRefPairIvNS_18DOMUserDataHandlerEEEEE, ptr @_ZN11xercesc_2_524RefHashTableOfEnumeratorINS_10KeyRefPairIvNS_18DOMUserDataHandlerEEEED2Ev, ptr @_ZN11xercesc_2_524RefHashTableOfEnumeratorINS_10KeyRefPairIvNS_18DOMUserDataHandlerEEEED0Ev, ptr @_ZNK11xercesc_2_524RefHashTableOfEnumeratorINS_10KeyRefPairIvNS_18DOMUserDataHandlerEEEE15hasMoreElementsEv, ptr @_ZN11xercesc_2_524RefHashTableOfEnumeratorINS_10KeyRefPairIvNS_18DOMUserDataHandlerEEEE11nextElementEv, ptr @_ZN11xercesc_2_524RefHashTableOfEnumeratorINS_10KeyRefPairIvNS_18DOMUserDataHandlerEEEE5ResetEv] }, comdat, align 8, !type !873, !type !874, !type !875, !type !876, !type !877, !type !878, !type !879, !type !880
@_ZTSN11xercesc_2_524RefHashTableOfEnumeratorINS_10KeyRefPairIvNS_18DOMUserDataHandlerEEEEE = linkonce_odr dso_local constant [87 x i8] c"N11xercesc_2_524RefHashTableOfEnumeratorINS_10KeyRefPairIvNS_18DOMUserDataHandlerEEEEE\00", comdat, align 1
@_ZTSN11xercesc_2_513XMLEnumeratorINS_10KeyRefPairIvNS_18DOMUserDataHandlerEEEEE = linkonce_odr dso_local constant [76 x i8] c"N11xercesc_2_513XMLEnumeratorINS_10KeyRefPairIvNS_18DOMUserDataHandlerEEEEE\00", comdat, align 1
@_ZTIN11xercesc_2_513XMLEnumeratorINS_10KeyRefPairIvNS_18DOMUserDataHandlerEEEEE = linkonce_odr dso_local constant { ptr, ptr } { ptr getelementptr inbounds (ptr, ptr @_ZTVN10__cxxabiv117__class_type_infoE, i64 2), ptr @_ZTSN11xercesc_2_513XMLEnumeratorINS_10KeyRefPairIvNS_18DOMUserDataHandlerEEEEE }, comdat, align 8
@_ZTIN11xercesc_2_524RefHashTableOfEnumeratorINS_10KeyRefPairIvNS_18DOMUserDataHandlerEEEEE = linkonce_odr dso_local constant { ptr, ptr, i32, i32, ptr, i64, ptr, i64 } { ptr getelementptr inbounds (ptr, ptr @_ZTVN10__cxxabiv121__vmi_class_type_infoE, i64 2), ptr @_ZTSN11xercesc_2_524RefHashTableOfEnumeratorINS_10KeyRefPairIvNS_18DOMUserDataHandlerEEEEE, i32 0, i32 2, ptr @_ZTIN11xercesc_2_513XMLEnumeratorINS_10KeyRefPairIvNS_18DOMUserDataHandlerEEEEE, i64 2, ptr @_ZTIN11xercesc_2_57XMemoryE, i64 2 }, comdat, align 8
@.str.3 = private unnamed_addr constant [28 x i8] c"./xercesc/util/RefArrayOf.c\00", align 1
@_ZTVN11xercesc_2_515BaseRefVectorOfINS_7DOMNodeEEE = linkonce_odr dso_local unnamed_addr constant { [9 x ptr] } { [9 x ptr] [ptr null, ptr @_ZTIN11xercesc_2_515BaseRefVectorOfINS_7DOMNodeEEE, ptr @_ZN11xercesc_2_515BaseRefVectorOfINS_7DOMNodeEED2Ev, ptr @_ZN11xercesc_2_515BaseRefVectorOfINS_7DOMNodeEED0Ev, ptr @_ZN11xercesc_2_515BaseRefVectorOfINS_7DOMNodeEE12setElementAtEPS1_j, ptr @_ZN11xercesc_2_515BaseRefVectorOfINS_7DOMNodeEE17removeAllElementsEv, ptr @_ZN11xercesc_2_515BaseRefVectorOfINS_7DOMNodeEE15removeElementAtEj, ptr @_ZN11xercesc_2_515BaseRefVectorOfINS_7DOMNodeEE17removeLastElementEv, ptr @_ZN11xercesc_2_515BaseRefVectorOfINS_7DOMNodeEE7cleanupEv] }, comdat, align 8, !type !816, !type !817, !type !818, !type !819, !type !820, !type !821
@_ZTVN11xercesc_2_515BaseRefVectorOfINS_9DOMBufferEEE = linkonce_odr dso_local unnamed_addr constant { [9 x ptr] } { [9 x ptr] [ptr null, ptr @_ZTIN11xercesc_2_515BaseRefVectorOfINS_9DOMBufferEEE, ptr @_ZN11xercesc_2_515BaseRefVectorOfINS_9DOMBufferEED2Ev, ptr @_ZN11xercesc_2_515BaseRefVectorOfINS_9DOMBufferEED0Ev, ptr @_ZN11xercesc_2_515BaseRefVectorOfINS_9DOMBufferEE12setElementAtEPS1_j, ptr @_ZN11xercesc_2_515BaseRefVectorOfINS_9DOMBufferEE17removeAllElementsEv, ptr @_ZN11xercesc_2_515BaseRefVectorOfINS_9DOMBufferEE15removeElementAtEj, ptr @_ZN11xercesc_2_515BaseRefVectorOfINS_9DOMBufferEE17removeLastElementEv, ptr @_ZN11xercesc_2_515BaseRefVectorOfINS_9DOMBufferEE7cleanupEv] }, comdat, align 8, !type !834, !type !835, !type !836, !type !837, !type !838, !type !839

@_ZN11xercesc_2_515DOMDocumentImplC1EPNS_13MemoryManagerE = dso_local unnamed_addr alias void (ptr, ptr), ptr @_ZN11xercesc_2_515DOMDocumentImplC2EPNS_13MemoryManagerE
@_ZN11xercesc_2_515DOMDocumentImplC1EPKtS2_PNS_15DOMDocumentTypeEPNS_13MemoryManagerE = dso_local unnamed_addr alias void (ptr, ptr, ptr, ptr, ptr), ptr @_ZN11xercesc_2_515DOMDocumentImplC2EPKtS2_PNS_15DOMDocumentTypeEPNS_13MemoryManagerE
@_ZN11xercesc_2_515DOMDocumentImplD1Ev = dso_local unnamed_addr alias void (ptr), ptr @_ZN11xercesc_2_515DOMDocumentImplD2Ev

declare i32 @__gxx_personality_v0(...)

; Function Attrs: nobuiltin nounwind
declare void @_ZdlPv(ptr noundef) local_unnamed_addr #0

; Function Attrs: uwtable
define dso_local void @_ZN11xercesc_2_515DOMDocumentImplC2EPNS_13MemoryManagerE(ptr noundef nonnull align 8 dereferenceable(253) %0, ptr noundef %1) unnamed_addr #1 align 2 personality ptr @__gxx_personality_v0 {
  %3 = getelementptr inbounds i8, ptr %0, i64 8
  %4 = getelementptr inbounds i8, ptr %0, i64 16
  %5 = getelementptr inbounds i8, ptr %0, i64 24
  store ptr getelementptr inbounds ({ [95 x ptr], [7 x ptr], [6 x ptr], [42 x ptr] }, ptr @_ZTVN11xercesc_2_515DOMDocumentImplE, i64 0, inrange i32 0, i64 2), ptr %0, align 8, !tbaa !888
  store ptr getelementptr inbounds ({ [95 x ptr], [7 x ptr], [6 x ptr], [42 x ptr] }, ptr @_ZTVN11xercesc_2_515DOMDocumentImplE, i64 0, inrange i32 1, i64 2), ptr %3, align 8, !tbaa !888
  store ptr getelementptr inbounds ({ [95 x ptr], [7 x ptr], [6 x ptr], [42 x ptr] }, ptr @_ZTVN11xercesc_2_515DOMDocumentImplE, i64 0, inrange i32 2, i64 2), ptr %4, align 8, !tbaa !888
  store ptr getelementptr inbounds ({ [95 x ptr], [7 x ptr], [6 x ptr], [42 x ptr] }, ptr @_ZTVN11xercesc_2_515DOMDocumentImplE, i64 0, inrange i32 3, i64 2), ptr %5, align 8, !tbaa !888
  %6 = getelementptr inbounds %"class.xercesc_2_5::DOMDocumentImpl", ptr %0, i64 0, i32 1
  tail call void @_ZN11xercesc_2_511DOMNodeImplC1EPNS_7DOMNodeE(ptr noundef nonnull align 8 dereferenceable(10) %6, ptr noundef nonnull %5)
  %7 = getelementptr inbounds %"class.xercesc_2_5::DOMDocumentImpl", ptr %0, i64 0, i32 2
  invoke void @_ZN11xercesc_2_513DOMParentNodeC1EPNS_11DOMDocumentE(ptr noundef nonnull align 8 dereferenceable(32) %7, ptr noundef nonnull %0)
          to label %8 unwind label %27

8:                                                ; preds = %2
  %9 = getelementptr inbounds %"class.xercesc_2_5::DOMDocumentImpl", ptr %0, i64 0, i32 3
  %10 = getelementptr inbounds %"class.xercesc_2_5::DOMDocumentImpl", ptr %0, i64 0, i32 8
  %11 = getelementptr inbounds %"class.xercesc_2_5::DOMDocumentImpl", ptr %0, i64 0, i32 24
  tail call void @llvm.memset.p0.i64(ptr noundef nonnull align 8 dereferenceable(25) %9, i8 0, i64 25, i1 false)
  tail call void @llvm.memset.p0.i64(ptr noundef nonnull align 8 dereferenceable(128) %10, i8 0, i64 128, i1 false)
  store ptr %1, ptr %11, align 8, !tbaa !891
  %12 = getelementptr inbounds %"class.xercesc_2_5::DOMDocumentImpl", ptr %0, i64 0, i32 25
  store i32 0, ptr %12, align 8, !tbaa !908
  %13 = getelementptr inbounds %"class.xercesc_2_5::DOMDocumentImpl", ptr %0, i64 0, i32 26
  store i8 1, ptr %13, align 4, !tbaa !909
  %14 = load ptr, ptr %1, align 8, !tbaa !888
  %15 = getelementptr inbounds ptr, ptr %14, i64 2
  %16 = load ptr, ptr %15, align 8
  %17 = invoke noundef ptr %16(ptr noundef nonnull align 8 dereferenceable(8) %1, i64 noundef 65536)
          to label %18 unwind label %29

18:                                               ; preds = %8
  %19 = getelementptr inbounds %"class.xercesc_2_5::DOMDocumentImpl", ptr %0, i64 0, i32 14
  %20 = getelementptr inbounds %"class.xercesc_2_5::DOMDocumentImpl", ptr %0, i64 0, i32 13
  %21 = getelementptr inbounds %"class.xercesc_2_5::DOMDocumentImpl", ptr %0, i64 0, i32 12
  %22 = load ptr, ptr %21, align 8, !tbaa !910
  store ptr %22, ptr %17, align 8, !tbaa !911
  store ptr %17, ptr %21, align 8, !tbaa !910
  %23 = getelementptr inbounds i8, ptr %17, i64 8
  %24 = getelementptr inbounds i8, ptr %17, i64 32
  store ptr %24, ptr %20, align 8, !tbaa !912
  store i64 65504, ptr %19, align 8, !tbaa !913
  invoke void @_ZN11xercesc_2_513DOMStringPoolC1EiPNS_15DOMDocumentImplE(ptr noundef nonnull align 8 dereferenceable(20) %23, i32 noundef 257, ptr noundef nonnull %0)
          to label %25 unwind label %29

25:                                               ; preds = %18
  %26 = getelementptr inbounds %"class.xercesc_2_5::DOMDocumentImpl", ptr %0, i64 0, i32 20
  store ptr %23, ptr %26, align 8, !tbaa !914
  ret void

27:                                               ; preds = %2
  %28 = landingpad { ptr, i32 }
          cleanup
  br label %32

29:                                               ; preds = %8, %18
  %30 = landingpad { ptr, i32 }
          cleanup
  %31 = getelementptr inbounds %"class.xercesc_2_5::DOMDocumentImpl", ptr %0, i64 0, i32 2, i32 2
  invoke void @_ZN11xercesc_2_515DOMNodeListImplD1Ev(ptr noundef nonnull align 8 dereferenceable(16) %31)
          to label %32 unwind label %35

32:                                               ; preds = %29, %27
  %33 = phi { ptr, i32 } [ %28, %27 ], [ %30, %29 ]
  invoke void @_ZN11xercesc_2_511DOMNodeImplD1Ev(ptr noundef nonnull align 8 dereferenceable(10) %6)
          to label %34 unwind label %35

34:                                               ; preds = %32
  resume { ptr, i32 } %33

35:                                               ; preds = %29, %32
  %36 = landingpad { ptr, i32 }
          catch ptr null
  %37 = extractvalue { ptr, i32 } %36, 0
  tail call void @__clang_call_terminate(ptr %37) #17
  unreachable
}

declare void @_ZN11xercesc_2_511DOMNodeImplC1EPNS_7DOMNodeE(ptr noundef nonnull align 8 dereferenceable(10), ptr noundef) unnamed_addr #2

declare void @_ZN11xercesc_2_513DOMParentNodeC1EPNS_11DOMDocumentE(ptr noundef nonnull align 8 dereferenceable(32), ptr noundef) unnamed_addr #2

declare void @_ZN11xercesc_2_513DOMStringPoolC1EiPNS_15DOMDocumentImplE(ptr noundef nonnull align 8 dereferenceable(20), i32 noundef, ptr noundef) unnamed_addr #2

; Function Attrs: noinline noreturn nounwind uwtable
define linkonce_odr hidden void @__clang_call_terminate(ptr noundef %0) local_unnamed_addr #3 comdat {
  %2 = tail call ptr @__cxa_begin_catch(ptr %0) #18
  tail call void @_ZSt9terminatev() #17
  unreachable
}

declare ptr @__cxa_begin_catch(ptr) local_unnamed_addr

declare void @_ZSt9terminatev() local_unnamed_addr

declare void @_ZN11xercesc_2_511DOMNodeImplD1Ev(ptr noundef nonnull align 8 dereferenceable(10)) unnamed_addr #2

; Function Attrs: uwtable
define dso_local void @_ZN11xercesc_2_515DOMDocumentImplC2EPKtS2_PNS_15DOMDocumentTypeEPNS_13MemoryManagerE(ptr noundef nonnull align 8 dereferenceable(253) %0, ptr noundef %1, ptr noundef %2, ptr noundef %3, ptr noundef %4) unnamed_addr #1 align 2 personality ptr @__gxx_personality_v0 {
  %6 = getelementptr inbounds i8, ptr %0, i64 8
  %7 = getelementptr inbounds i8, ptr %0, i64 16
  %8 = getelementptr inbounds i8, ptr %0, i64 24
  store ptr getelementptr inbounds ({ [95 x ptr], [7 x ptr], [6 x ptr], [42 x ptr] }, ptr @_ZTVN11xercesc_2_515DOMDocumentImplE, i64 0, inrange i32 0, i64 2), ptr %0, align 8, !tbaa !888
  store ptr getelementptr inbounds ({ [95 x ptr], [7 x ptr], [6 x ptr], [42 x ptr] }, ptr @_ZTVN11xercesc_2_515DOMDocumentImplE, i64 0, inrange i32 1, i64 2), ptr %6, align 8, !tbaa !888
  store ptr getelementptr inbounds ({ [95 x ptr], [7 x ptr], [6 x ptr], [42 x ptr] }, ptr @_ZTVN11xercesc_2_515DOMDocumentImplE, i64 0, inrange i32 2, i64 2), ptr %7, align 8, !tbaa !888
  store ptr getelementptr inbounds ({ [95 x ptr], [7 x ptr], [6 x ptr], [42 x ptr] }, ptr @_ZTVN11xercesc_2_515DOMDocumentImplE, i64 0, inrange i32 3, i64 2), ptr %8, align 8, !tbaa !888
  %9 = getelementptr inbounds %"class.xercesc_2_5::DOMDocumentImpl", ptr %0, i64 0, i32 1
  tail call void @_ZN11xercesc_2_511DOMNodeImplC1EPNS_7DOMNodeE(ptr noundef nonnull align 8 dereferenceable(10) %9, ptr noundef nonnull %8)
  %10 = getelementptr inbounds %"class.xercesc_2_5::DOMDocumentImpl", ptr %0, i64 0, i32 2
  invoke void @_ZN11xercesc_2_513DOMParentNodeC1EPNS_11DOMDocumentE(ptr noundef nonnull align 8 dereferenceable(32) %10, ptr noundef nonnull %0)
          to label %11 unwind label %42

11:                                               ; preds = %5
  %12 = getelementptr inbounds %"class.xercesc_2_5::DOMDocumentImpl", ptr %0, i64 0, i32 3
  %13 = getelementptr inbounds %"class.xercesc_2_5::DOMDocumentImpl", ptr %0, i64 0, i32 8
  %14 = getelementptr inbounds %"class.xercesc_2_5::DOMDocumentImpl", ptr %0, i64 0, i32 12
  %15 = getelementptr inbounds %"class.xercesc_2_5::DOMDocumentImpl", ptr %0, i64 0, i32 20
  %16 = getelementptr inbounds %"class.xercesc_2_5::DOMDocumentImpl", ptr %0, i64 0, i32 24
  tail call void @llvm.memset.p0.i64(ptr noundef nonnull align 8 dereferenceable(25) %12, i8 0, i64 25, i1 false)
  tail call void @llvm.memset.p0.i64(ptr noundef nonnull align 8 dereferenceable(128) %13, i8 0, i64 128, i1 false)
  store ptr %4, ptr %16, align 8, !tbaa !891
  %17 = getelementptr inbounds %"class.xercesc_2_5::DOMDocumentImpl", ptr %0, i64 0, i32 25
  store i32 0, ptr %17, align 8, !tbaa !908
  %18 = getelementptr inbounds %"class.xercesc_2_5::DOMDocumentImpl", ptr %0, i64 0, i32 26
  store i8 1, ptr %18, align 4, !tbaa !909
  %19 = load ptr, ptr %4, align 8, !tbaa !888
  %20 = getelementptr inbounds ptr, ptr %19, i64 2
  %21 = load ptr, ptr %20, align 8
  %22 = invoke noundef ptr %21(ptr noundef nonnull align 8 dereferenceable(8) %4, i64 noundef 65536)
          to label %23 unwind label %44

23:                                               ; preds = %11
  %24 = getelementptr inbounds %"class.xercesc_2_5::DOMDocumentImpl", ptr %0, i64 0, i32 14
  %25 = getelementptr inbounds %"class.xercesc_2_5::DOMDocumentImpl", ptr %0, i64 0, i32 13
  %26 = load ptr, ptr %14, align 8, !tbaa !910
  store ptr %26, ptr %22, align 8, !tbaa !911
  store ptr %22, ptr %14, align 8, !tbaa !910
  %27 = getelementptr inbounds i8, ptr %22, i64 8
  %28 = getelementptr inbounds i8, ptr %22, i64 32
  store ptr %28, ptr %25, align 8, !tbaa !912
  store i64 65504, ptr %24, align 8, !tbaa !913
  invoke void @_ZN11xercesc_2_513DOMStringPoolC1EiPNS_15DOMDocumentImplE(ptr noundef nonnull align 8 dereferenceable(20) %27, i32 noundef 257, ptr noundef nonnull %0)
          to label %29 unwind label %44

29:                                               ; preds = %23
  store ptr %27, ptr %15, align 8, !tbaa !914
  invoke void @_ZN11xercesc_2_515DOMDocumentImpl15setDocumentTypeEPNS_15DOMDocumentTypeE(ptr noundef nonnull align 8 dereferenceable(253) %0, ptr noundef %3)
          to label %30 unwind label %46

30:                                               ; preds = %29
  %31 = icmp eq ptr %2, null
  br i1 %31, label %48, label %32

32:                                               ; preds = %30
  %33 = load ptr, ptr %0, align 8, !tbaa !888
  %34 = getelementptr inbounds ptr, ptr %33, i64 16
  %35 = load ptr, ptr %34, align 8
  %36 = invoke noundef ptr %35(ptr noundef nonnull align 8 dereferenceable(253) %0, ptr noundef %1, ptr noundef nonnull %2)
          to label %37 unwind label %46

37:                                               ; preds = %32
  %38 = load ptr, ptr %0, align 8, !tbaa !888
  %39 = getelementptr inbounds ptr, ptr %38, i64 40
  %40 = load ptr, ptr %39, align 8
  %41 = invoke noundef ptr %40(ptr noundef nonnull align 8 dereferenceable(253) %0, ptr noundef %36)
          to label %84 unwind label %46

42:                                               ; preds = %5
  %43 = landingpad { ptr, i32 }
          cleanup
  br label %88

44:                                               ; preds = %11, %23
  %45 = landingpad { ptr, i32 }
          cleanup
  br label %85

46:                                               ; preds = %52, %37, %32, %29
  %47 = landingpad { ptr, i32 }
          catch ptr @_ZTIN11xercesc_2_520OutOfMemoryExceptionE
          catch ptr null
  br label %55

48:                                               ; preds = %30
  %49 = icmp eq ptr %1, null
  br i1 %49, label %84, label %50

50:                                               ; preds = %48
  %51 = tail call ptr @__cxa_allocate_exception(i64 24) #18
  invoke void @_ZN11xercesc_2_512DOMExceptionC1EsPKt(ptr noundef nonnull align 8 dereferenceable(24) %51, i16 noundef signext 14, ptr noundef null)
          to label %52 unwind label %53

52:                                               ; preds = %50
  invoke void @__cxa_throw(ptr nonnull %51, ptr nonnull @_ZTIN11xercesc_2_512DOMExceptionE, ptr nonnull @_ZN11xercesc_2_512DOMExceptionD1Ev) #19
          to label %94 unwind label %46

53:                                               ; preds = %50
  %54 = landingpad { ptr, i32 }
          catch ptr @_ZTIN11xercesc_2_520OutOfMemoryExceptionE
          catch ptr null
  tail call void @__cxa_free_exception(ptr %51) #18
  br label %55

55:                                               ; preds = %53, %46
  %56 = phi { ptr, i32 } [ %47, %46 ], [ %54, %53 ]
  %57 = extractvalue { ptr, i32 } %56, 0
  %58 = extractvalue { ptr, i32 } %56, 1
  %59 = tail call i32 @llvm.eh.typeid.for(ptr nonnull @_ZTIN11xercesc_2_520OutOfMemoryExceptionE) #18
  %60 = icmp eq i32 %58, %59
  %61 = tail call ptr @__cxa_begin_catch(ptr %57) #18
  br i1 %60, label %62, label %63

62:                                               ; preds = %55
  invoke void @__cxa_rethrow() #19
          to label %94 unwind label %82

63:                                               ; preds = %55
  %64 = load ptr, ptr %14, align 8, !tbaa !910
  %65 = icmp eq ptr %64, null
  br i1 %65, label %75, label %66

66:                                               ; preds = %63, %73
  %67 = phi ptr [ %68, %73 ], [ %64, %63 ]
  %68 = load ptr, ptr %67, align 8, !tbaa !911
  %69 = load ptr, ptr %16, align 8, !tbaa !891
  %70 = load ptr, ptr %69, align 8, !tbaa !888
  %71 = getelementptr inbounds ptr, ptr %70, i64 3
  %72 = load ptr, ptr %71, align 8
  invoke void %72(ptr noundef nonnull align 8 dereferenceable(8) %69, ptr noundef nonnull %67)
          to label %73 unwind label %76

73:                                               ; preds = %66
  store ptr %68, ptr %14, align 8, !tbaa !910
  %74 = icmp eq ptr %68, null
  br i1 %74, label %75, label %66

75:                                               ; preds = %73, %63
  invoke void @__cxa_rethrow() #19
          to label %94 unwind label %78

76:                                               ; preds = %66
  %77 = landingpad { ptr, i32 }
          cleanup
  br label %80

78:                                               ; preds = %75
  %79 = landingpad { ptr, i32 }
          cleanup
  br label %80

80:                                               ; preds = %78, %76
  %81 = phi { ptr, i32 } [ %77, %76 ], [ %79, %78 ]
  invoke void @__cxa_end_catch()
          to label %85 unwind label %91

82:                                               ; preds = %62
  %83 = landingpad { ptr, i32 }
          cleanup
  invoke void @__cxa_end_catch()
          to label %85 unwind label %91

84:                                               ; preds = %37, %48
  ret void

85:                                               ; preds = %82, %80, %44
  %86 = phi { ptr, i32 } [ %81, %80 ], [ %45, %44 ], [ %83, %82 ]
  %87 = getelementptr inbounds %"class.xercesc_2_5::DOMDocumentImpl", ptr %0, i64 0, i32 2, i32 2
  invoke void @_ZN11xercesc_2_515DOMNodeListImplD1Ev(ptr noundef nonnull align 8 dereferenceable(16) %87)
          to label %88 unwind label %91

88:                                               ; preds = %85, %42
  %89 = phi { ptr, i32 } [ %43, %42 ], [ %86, %85 ]
  invoke void @_ZN11xercesc_2_511DOMNodeImplD1Ev(ptr noundef nonnull align 8 dereferenceable(10) %9)
          to label %90 unwind label %91

90:                                               ; preds = %88
  resume { ptr, i32 } %89

91:                                               ; preds = %85, %88, %82, %80
  %92 = landingpad { ptr, i32 }
          catch ptr null
  %93 = extractvalue { ptr, i32 } %92, 0
  tail call void @__clang_call_terminate(ptr %93) #17
  unreachable

94:                                               ; preds = %62, %75, %52
  unreachable
}

; Function Attrs: uwtable
define dso_local void @_ZN11xercesc_2_515DOMDocumentImpl15setDocumentTypeEPNS_15DOMDocumentTypeE(ptr noundef nonnull align 8 dereferenceable(253) %0, ptr noundef %1) local_unnamed_addr #1 align 2 personality ptr @__gxx_personality_v0 {
  %3 = icmp eq ptr %1, null
  br i1 %3, label %29, label %4

4:                                                ; preds = %2
  %5 = load ptr, ptr %1, align 8, !tbaa !888
  %6 = getelementptr inbounds ptr, ptr %5, i64 12
  %7 = load ptr, ptr %6, align 8
  %8 = tail call noundef ptr %7(ptr noundef nonnull align 8 dereferenceable(8) %1)
  %9 = icmp eq ptr %8, null
  br i1 %9, label %21, label %10

10:                                               ; preds = %4
  %11 = load ptr, ptr %1, align 8, !tbaa !888
  %12 = getelementptr inbounds ptr, ptr %11, i64 12
  %13 = load ptr, ptr %12, align 8
  %14 = tail call noundef ptr %13(ptr noundef nonnull align 8 dereferenceable(8) %1)
  %15 = icmp eq ptr %14, %0
  br i1 %15, label %21, label %16

16:                                               ; preds = %10
  %17 = tail call ptr @__cxa_allocate_exception(i64 24) #18
  invoke void @_ZN11xercesc_2_512DOMExceptionC1EsPKt(ptr noundef nonnull align 8 dereferenceable(24) %17, i16 noundef signext 4, ptr noundef null)
          to label %18 unwind label %19

18:                                               ; preds = %16
  tail call void @__cxa_throw(ptr nonnull %17, ptr nonnull @_ZTIN11xercesc_2_512DOMExceptionE, ptr nonnull @_ZN11xercesc_2_512DOMExceptionD1Ev) #19
  unreachable

19:                                               ; preds = %16
  %20 = landingpad { ptr, i32 }
          cleanup
  tail call void @__cxa_free_exception(ptr %17) #18
  resume { ptr, i32 } %20

21:                                               ; preds = %10, %4
  %22 = load ptr, ptr %1, align 8, !tbaa !888
  %23 = getelementptr inbounds ptr, ptr %22, i64 49
  %24 = load ptr, ptr %23, align 8
  tail call void %24(ptr noundef nonnull align 8 dereferenceable(130) %1, ptr noundef nonnull %0)
  %25 = load ptr, ptr %0, align 8, !tbaa !888
  %26 = getelementptr inbounds ptr, ptr %25, i64 40
  %27 = load ptr, ptr %26, align 8
  %28 = tail call noundef ptr %27(ptr noundef nonnull align 8 dereferenceable(253) %0, ptr noundef nonnull %1)
  br label %29

29:                                               ; preds = %2, %21
  ret void
}

declare ptr @__cxa_allocate_exception(i64) local_unnamed_addr

declare void @_ZN11xercesc_2_512DOMExceptionC1EsPKt(ptr noundef nonnull align 8 dereferenceable(24), i16 noundef signext, ptr noundef) unnamed_addr #2

declare void @__cxa_free_exception(ptr) local_unnamed_addr

declare void @_ZN11xercesc_2_512DOMExceptionD1Ev(ptr noundef nonnull align 8 dereferenceable(24)) unnamed_addr #2

declare void @__cxa_throw(ptr, ptr, ptr) local_unnamed_addr

; Function Attrs: nofree nosync nounwind memory(none)
declare i32 @llvm.eh.typeid.for(ptr) #4

; Function Attrs: uwtable
define dso_local void @_ZN11xercesc_2_515DOMDocumentImpl10deleteHeapEv(ptr nocapture noundef nonnull align 8 dereferenceable(253) %0) local_unnamed_addr #1 align 2 {
  %2 = getelementptr inbounds %"class.xercesc_2_5::DOMDocumentImpl", ptr %0, i64 0, i32 12
  %3 = load ptr, ptr %2, align 8, !tbaa !910
  %4 = icmp eq ptr %3, null
  br i1 %4, label %15, label %5

5:                                                ; preds = %1
  %6 = getelementptr inbounds %"class.xercesc_2_5::DOMDocumentImpl", ptr %0, i64 0, i32 24
  br label %7

7:                                                ; preds = %5, %7
  %8 = phi ptr [ %3, %5 ], [ %9, %7 ]
  %9 = load ptr, ptr %8, align 8, !tbaa !911
  %10 = load ptr, ptr %6, align 8, !tbaa !891
  %11 = load ptr, ptr %10, align 8, !tbaa !888
  %12 = getelementptr inbounds ptr, ptr %11, i64 3
  %13 = load ptr, ptr %12, align 8
  tail call void %13(ptr noundef nonnull align 8 dereferenceable(8) %10, ptr noundef nonnull %8)
  store ptr %9, ptr %2, align 8, !tbaa !910
  %14 = icmp eq ptr %9, null
  br i1 %14, label %15, label %7

15:                                               ; preds = %7, %1
  ret void
}

declare void @__cxa_rethrow() local_unnamed_addr

declare void @__cxa_end_catch() local_unnamed_addr

; Function Attrs: mustprogress nocallback nofree nosync nounwind willreturn memory(argmem: readwrite)
declare void @llvm.lifetime.start.p0(i64 immarg, ptr nocapture) #5

; Function Attrs: mustprogress nocallback nofree nosync nounwind willreturn memory(argmem: readwrite)
declare void @llvm.lifetime.end.p0(i64 immarg, ptr nocapture) #5

; Function Attrs: uwtable
define dso_local void @_ZN11xercesc_2_515DOMDocumentImplD2Ev(ptr noundef nonnull align 8 dereferenceable(253) %0) unnamed_addr #1 align 2 personality ptr @__gxx_personality_v0 {
  store ptr getelementptr inbounds ({ [95 x ptr], [7 x ptr], [6 x ptr], [42 x ptr] }, ptr @_ZTVN11xercesc_2_515DOMDocumentImplE, i64 0, inrange i32 0, i64 2), ptr %0, align 8, !tbaa !888
  %2 = getelementptr inbounds i8, ptr %0, i64 8
  store ptr getelementptr inbounds ({ [95 x ptr], [7 x ptr], [6 x ptr], [42 x ptr] }, ptr @_ZTVN11xercesc_2_515DOMDocumentImplE, i64 0, inrange i32 1, i64 2), ptr %2, align 8, !tbaa !888
  %3 = getelementptr inbounds i8, ptr %0, i64 16
  store ptr getelementptr inbounds ({ [95 x ptr], [7 x ptr], [6 x ptr], [42 x ptr] }, ptr @_ZTVN11xercesc_2_515DOMDocumentImplE, i64 0, inrange i32 2, i64 2), ptr %3, align 8, !tbaa !888
  %4 = getelementptr inbounds i8, ptr %0, i64 24
  store ptr getelementptr inbounds ({ [95 x ptr], [7 x ptr], [6 x ptr], [42 x ptr] }, ptr @_ZTVN11xercesc_2_515DOMDocumentImplE, i64 0, inrange i32 3, i64 2), ptr %4, align 8, !tbaa !888
  %5 = getelementptr inbounds %"class.xercesc_2_5::DOMDocumentImpl", ptr %0, i64 0, i32 17
  %6 = load ptr, ptr %5, align 8, !tbaa !915
  %7 = icmp eq ptr %6, null
  br i1 %7, label %13, label %8

8:                                                ; preds = %1
  invoke void @_ZN11xercesc_2_519DOMDeepNodeListPoolINS_19DOMDeepNodeListImplEE7cleanupEv(ptr noundef nonnull align 8 dereferenceable(64) %6)
          to label %13 unwind label %11

9:                                                ; preds = %123
  %10 = landingpad { ptr, i32 }
          cleanup
  br label %140

11:                                               ; preds = %8, %17, %25, %49, %56, %68, %108, %116
  %12 = landingpad { ptr, i32 }
          cleanup
  br label %140

13:                                               ; preds = %8, %1
  %14 = getelementptr inbounds %"class.xercesc_2_5::DOMDocumentImpl", ptr %0, i64 0, i32 22
  %15 = load ptr, ptr %14, align 8, !tbaa !916
  %16 = icmp eq ptr %15, null
  br i1 %16, label %21, label %17

17:                                               ; preds = %13
  %18 = load ptr, ptr %15, align 8, !tbaa !888
  %19 = getelementptr inbounds ptr, ptr %18, i64 1
  %20 = load ptr, ptr %19, align 8
  invoke void %20(ptr noundef nonnull align 8 dereferenceable(40) %15)
          to label %21 unwind label %11

21:                                               ; preds = %17, %13
  %22 = getelementptr inbounds %"class.xercesc_2_5::DOMDocumentImpl", ptr %0, i64 0, i32 23
  %23 = load ptr, ptr %22, align 8, !tbaa !917
  %24 = icmp eq ptr %23, null
  br i1 %24, label %29, label %25

25:                                               ; preds = %21
  %26 = load ptr, ptr %23, align 8, !tbaa !888
  %27 = getelementptr inbounds ptr, ptr %26, i64 1
  %28 = load ptr, ptr %27, align 8
  invoke void %28(ptr noundef nonnull align 8 dereferenceable(40) %23)
          to label %29 unwind label %11

29:                                               ; preds = %25, %21
  %30 = getelementptr inbounds %"class.xercesc_2_5::DOMDocumentImpl", ptr %0, i64 0, i32 11
  %31 = load ptr, ptr %30, align 8, !tbaa !918
  %32 = icmp eq ptr %31, null
  br i1 %32, label %52, label %33

33:                                               ; preds = %29
  invoke void @_ZN11xercesc_2_514RefHashTableOfINS0_INS_10KeyRefPairIvNS_18DOMUserDataHandlerEEEEEE9removeAllEv(ptr noundef nonnull align 8 dereferenceable(48) %31)
          to label %34 unwind label %50

34:                                               ; preds = %33
  %35 = load ptr, ptr %31, align 8, !tbaa !919
  %36 = getelementptr inbounds %"class.xercesc_2_5::RefHashTableOf", ptr %31, i64 0, i32 2
  %37 = load ptr, ptr %36, align 8, !tbaa !921
  %38 = load ptr, ptr %35, align 8, !tbaa !888
  %39 = getelementptr inbounds ptr, ptr %38, i64 3
  %40 = load ptr, ptr %39, align 8
  invoke void %40(ptr noundef nonnull align 8 dereferenceable(8) %35, ptr noundef %37)
          to label %41 unwind label %50

41:                                               ; preds = %34
  %42 = getelementptr inbounds %"class.xercesc_2_5::RefHashTableOf", ptr %31, i64 0, i32 6
  %43 = load ptr, ptr %42, align 8, !tbaa !922
  %44 = icmp eq ptr %43, null
  br i1 %44, label %49, label %45

45:                                               ; preds = %41
  %46 = load ptr, ptr %43, align 8, !tbaa !888
  %47 = getelementptr inbounds ptr, ptr %46, i64 3
  %48 = load ptr, ptr %47, align 8
  invoke void %48(ptr noundef nonnull align 8 dereferenceable(8) %43)
          to label %49 unwind label %50

49:                                               ; preds = %41, %45
  invoke void @_ZN11xercesc_2_57XMemorydlEPv(ptr noundef nonnull %31)
          to label %52 unwind label %11

50:                                               ; preds = %45, %34, %33
  %51 = landingpad { ptr, i32 }
          cleanup
  invoke void @_ZN11xercesc_2_57XMemorydlEPv(ptr noundef nonnull %31)
          to label %140 unwind label %147

52:                                               ; preds = %49, %29
  %53 = getelementptr inbounds %"class.xercesc_2_5::DOMDocumentImpl", ptr %0, i64 0, i32 15
  %54 = load ptr, ptr %53, align 8, !tbaa !923
  %55 = icmp eq ptr %54, null
  br i1 %55, label %71, label %56

56:                                               ; preds = %52
  invoke void @_ZN11xercesc_2_510RefArrayOfINS_10RefStackOfINS_7DOMNodeEEEE17deleteAllElementsEv(ptr noundef nonnull align 8 dereferenceable(24) %54)
          to label %57 unwind label %11

57:                                               ; preds = %56
  %58 = load ptr, ptr %53, align 8, !tbaa !923
  %59 = icmp eq ptr %58, null
  br i1 %59, label %71, label %60

60:                                               ; preds = %57
  %61 = getelementptr inbounds %"class.xercesc_2_5::RefArrayOf", ptr %58, i64 0, i32 2
  %62 = load ptr, ptr %61, align 8, !tbaa !924
  %63 = getelementptr inbounds %"class.xercesc_2_5::RefArrayOf", ptr %58, i64 0, i32 1
  %64 = load ptr, ptr %63, align 8, !tbaa !926
  %65 = load ptr, ptr %62, align 8, !tbaa !888
  %66 = getelementptr inbounds ptr, ptr %65, i64 3
  %67 = load ptr, ptr %66, align 8
  invoke void %67(ptr noundef nonnull align 8 dereferenceable(8) %62, ptr noundef %64)
          to label %68 unwind label %69

68:                                               ; preds = %60
  invoke void @_ZN11xercesc_2_57XMemorydlEPv(ptr noundef nonnull %58)
          to label %71 unwind label %11

69:                                               ; preds = %60
  %70 = landingpad { ptr, i32 }
          cleanup
  invoke void @_ZN11xercesc_2_57XMemorydlEPv(ptr noundef nonnull %58)
          to label %140 unwind label %147

71:                                               ; preds = %57, %68, %52
  %72 = getelementptr inbounds %"class.xercesc_2_5::DOMDocumentImpl", ptr %0, i64 0, i32 16
  %73 = load ptr, ptr %72, align 8, !tbaa !927
  %74 = icmp eq ptr %73, null
  br i1 %74, label %111, label %75

75:                                               ; preds = %71
  %76 = getelementptr inbounds %"class.xercesc_2_5::RefStackOf", ptr %73, i64 0, i32 1
  store ptr getelementptr inbounds ({ [9 x ptr] }, ptr @_ZTVN11xercesc_2_511RefVectorOfINS_9DOMBufferEEE, i64 0, inrange i32 0, i64 2), ptr %76, align 8, !tbaa !888
  %77 = getelementptr inbounds %"class.xercesc_2_5::RefStackOf", ptr %73, i64 0, i32 1, i32 0, i32 1
  %78 = load i8, ptr %77, align 8, !tbaa !928, !range !930, !noundef !931
  %79 = icmp eq i8 %78, 0
  br i1 %79, label %100, label %80

80:                                               ; preds = %75
  %81 = getelementptr inbounds %"class.xercesc_2_5::RefStackOf", ptr %73, i64 0, i32 1, i32 0, i32 2
  %82 = load i32, ptr %81, align 4, !tbaa !932
  %83 = icmp eq i32 %82, 0
  br i1 %83, label %100, label %84

84:                                               ; preds = %80
  %85 = getelementptr inbounds %"class.xercesc_2_5::RefStackOf", ptr %73, i64 0, i32 1, i32 0, i32 4
  br label %86

86:                                               ; preds = %95, %84
  %87 = phi i32 [ %82, %84 ], [ %96, %95 ]
  %88 = phi i64 [ 0, %84 ], [ %97, %95 ]
  %89 = load ptr, ptr %85, align 8, !tbaa !933
  %90 = getelementptr inbounds ptr, ptr %89, i64 %88
  %91 = load ptr, ptr %90, align 8, !tbaa !911
  %92 = icmp eq ptr %91, null
  br i1 %92, label %95, label %93

93:                                               ; preds = %86
  tail call void @_ZdlPv(ptr noundef nonnull %91) #20
  %94 = load i32, ptr %81, align 4, !tbaa !932
  br label %95

95:                                               ; preds = %93, %86
  %96 = phi i32 [ %87, %86 ], [ %94, %93 ]
  %97 = add nuw nsw i64 %88, 1
  %98 = zext i32 %96 to i64
  %99 = icmp ult i64 %97, %98
  br i1 %99, label %86, label %100

100:                                              ; preds = %95, %80, %75
  %101 = getelementptr inbounds %"class.xercesc_2_5::RefStackOf", ptr %73, i64 0, i32 1, i32 0, i32 5
  %102 = load ptr, ptr %101, align 8, !tbaa !934
  %103 = getelementptr inbounds %"class.xercesc_2_5::RefStackOf", ptr %73, i64 0, i32 1, i32 0, i32 4
  %104 = load ptr, ptr %103, align 8, !tbaa !933
  %105 = load ptr, ptr %102, align 8, !tbaa !888
  %106 = getelementptr inbounds ptr, ptr %105, i64 3
  %107 = load ptr, ptr %106, align 8
  invoke void %107(ptr noundef nonnull align 8 dereferenceable(8) %102, ptr noundef %104)
          to label %108 unwind label %109

108:                                              ; preds = %100
  invoke void @_ZN11xercesc_2_57XMemorydlEPv(ptr noundef nonnull %73)
          to label %111 unwind label %11

109:                                              ; preds = %100
  %110 = landingpad { ptr, i32 }
          cleanup
  invoke void @_ZN11xercesc_2_57XMemorydlEPv(ptr noundef nonnull %73)
          to label %140 unwind label %147

111:                                              ; preds = %108, %71
  %112 = getelementptr inbounds %"class.xercesc_2_5::DOMDocumentImpl", ptr %0, i64 0, i32 21
  %113 = load ptr, ptr %112, align 8, !tbaa !935
  %114 = icmp eq ptr %113, null
  br i1 %114, label %117, label %115

115:                                              ; preds = %111
  invoke void @_ZN11xercesc_2_513DOMNormalizerD1Ev(ptr noundef nonnull align 8 dereferenceable(48) %113)
          to label %116 unwind label %136

116:                                              ; preds = %115
  invoke void @_ZN11xercesc_2_57XMemorydlEPv(ptr noundef nonnull %113)
          to label %117 unwind label %11

117:                                              ; preds = %116, %111
  %118 = getelementptr inbounds %"class.xercesc_2_5::DOMDocumentImpl", ptr %0, i64 0, i32 12
  %119 = load ptr, ptr %118, align 8, !tbaa !910
  %120 = icmp eq ptr %119, null
  br i1 %120, label %132, label %121

121:                                              ; preds = %117
  %122 = getelementptr inbounds %"class.xercesc_2_5::DOMDocumentImpl", ptr %0, i64 0, i32 24
  br label %123

123:                                              ; preds = %130, %121
  %124 = phi ptr [ %119, %121 ], [ %125, %130 ]
  %125 = load ptr, ptr %124, align 8, !tbaa !911
  %126 = load ptr, ptr %122, align 8, !tbaa !891
  %127 = load ptr, ptr %126, align 8, !tbaa !888
  %128 = getelementptr inbounds ptr, ptr %127, i64 3
  %129 = load ptr, ptr %128, align 8
  invoke void %129(ptr noundef nonnull align 8 dereferenceable(8) %126, ptr noundef nonnull %124)
          to label %130 unwind label %9

130:                                              ; preds = %123
  store ptr %125, ptr %118, align 8, !tbaa !910
  %131 = icmp eq ptr %125, null
  br i1 %131, label %132, label %123

132:                                              ; preds = %130, %117
  %133 = getelementptr inbounds %"class.xercesc_2_5::DOMDocumentImpl", ptr %0, i64 0, i32 2, i32 2
  invoke void @_ZN11xercesc_2_515DOMNodeListImplD1Ev(ptr noundef nonnull align 8 dereferenceable(16) %133)
          to label %134 unwind label %138

134:                                              ; preds = %132
  %135 = getelementptr inbounds %"class.xercesc_2_5::DOMDocumentImpl", ptr %0, i64 0, i32 1
  tail call void @_ZN11xercesc_2_511DOMNodeImplD1Ev(ptr noundef nonnull align 8 dereferenceable(10) %135)
  ret void

136:                                              ; preds = %115
  %137 = landingpad { ptr, i32 }
          cleanup
  invoke void @_ZN11xercesc_2_57XMemorydlEPv(ptr noundef nonnull %113)
          to label %140 unwind label %147

138:                                              ; preds = %132
  %139 = landingpad { ptr, i32 }
          cleanup
  br label %143

140:                                              ; preds = %9, %11, %136, %109, %69, %50
  %141 = phi { ptr, i32 } [ %137, %136 ], [ %110, %109 ], [ %70, %69 ], [ %51, %50 ], [ %10, %9 ], [ %12, %11 ]
  %142 = getelementptr inbounds %"class.xercesc_2_5::DOMDocumentImpl", ptr %0, i64 0, i32 2, i32 2
  invoke void @_ZN11xercesc_2_515DOMNodeListImplD1Ev(ptr noundef nonnull align 8 dereferenceable(16) %142)
          to label %143 unwind label %147

143:                                              ; preds = %140, %138
  %144 = phi { ptr, i32 } [ %139, %138 ], [ %141, %140 ]
  %145 = getelementptr inbounds %"class.xercesc_2_5::DOMDocumentImpl", ptr %0, i64 0, i32 1
  invoke void @_ZN11xercesc_2_511DOMNodeImplD1Ev(ptr noundef nonnull align 8 dereferenceable(10) %145)
          to label %146 unwind label %147

146:                                              ; preds = %143
  resume { ptr, i32 } %144

147:                                              ; preds = %140, %143, %136, %109, %69, %50
  %148 = landingpad { ptr, i32 }
          catch ptr null
  %149 = extractvalue { ptr, i32 } %148, 0
  tail call void @__clang_call_terminate(ptr %149) #17
  unreachable
}

; Function Attrs: uwtable
define linkonce_odr dso_local void @_ZN11xercesc_2_519DOMDeepNodeListPoolINS_19DOMDeepNodeListImplEE7cleanupEv(ptr noundef nonnull align 8 dereferenceable(64) %0) local_unnamed_addr #1 comdat align 2 personality ptr @__gxx_personality_v0 {
  %2 = getelementptr inbounds %"class.xercesc_2_5::DOMDeepNodeListPool", ptr %0, i64 0, i32 2
  %3 = load i64, ptr %2, align 8, !tbaa !936
  %4 = icmp eq i64 %3, 0
  br i1 %4, label %51, label %5

5:                                                ; preds = %1
  %6 = getelementptr inbounds %"class.xercesc_2_5::DOMDeepNodeListPool", ptr %0, i64 0, i32 1
  %7 = getelementptr inbounds %"class.xercesc_2_5::DOMDeepNodeListPool", ptr %0, i64 0, i32 7
  br label %8

8:                                                ; preds = %45, %5
  %9 = phi i64 [ %3, %5 ], [ %46, %45 ]
  %10 = phi i64 [ 0, %5 ], [ %49, %45 ]
  %11 = load ptr, ptr %6, align 8, !tbaa !938
  %12 = getelementptr inbounds ptr, ptr %11, i64 %10
  %13 = load ptr, ptr %12, align 8, !tbaa !911
  %14 = icmp eq ptr %13, null
  br i1 %14, label %45, label %15

15:                                               ; preds = %8, %28
  %16 = phi ptr [ %18, %28 ], [ %13, %8 ]
  %17 = getelementptr inbounds %"struct.xercesc_2_5::DOMDeepNodeListPoolTableBucketElem", ptr %16, i64 0, i32 1
  %18 = load ptr, ptr %17, align 8, !tbaa !939
  %19 = load i8, ptr %0, align 8, !tbaa !941, !range !930, !noundef !931
  %20 = icmp eq i8 %19, 0
  br i1 %20, label %28, label %21

21:                                               ; preds = %15
  %22 = load ptr, ptr %16, align 8, !tbaa !942
  %23 = icmp eq ptr %22, null
  br i1 %23, label %28, label %24

24:                                               ; preds = %21
  %25 = load ptr, ptr %22, align 8, !tbaa !888
  %26 = getelementptr inbounds ptr, ptr %25, i64 1
  %27 = load ptr, ptr %26, align 8
  tail call void %27(ptr noundef nonnull align 8 dereferenceable(58) %22)
  br label %28

28:                                               ; preds = %24, %21, %15
  %29 = load ptr, ptr %7, align 8, !tbaa !943
  %30 = getelementptr inbounds %"struct.xercesc_2_5::DOMDeepNodeListPoolTableBucketElem", ptr %16, i64 0, i32 3
  %31 = load ptr, ptr %30, align 8, !tbaa !944
  %32 = load ptr, ptr %29, align 8, !tbaa !888
  %33 = getelementptr inbounds ptr, ptr %32, i64 3
  %34 = load ptr, ptr %33, align 8
  tail call void %34(ptr noundef nonnull align 8 dereferenceable(8) %29, ptr noundef %31)
  %35 = load ptr, ptr %7, align 8, !tbaa !943
  %36 = getelementptr inbounds %"struct.xercesc_2_5::DOMDeepNodeListPoolTableBucketElem", ptr %16, i64 0, i32 4
  %37 = load ptr, ptr %36, align 8, !tbaa !945
  %38 = load ptr, ptr %35, align 8, !tbaa !888
  %39 = getelementptr inbounds ptr, ptr %38, i64 3
  %40 = load ptr, ptr %39, align 8
  tail call void %40(ptr noundef nonnull align 8 dereferenceable(8) %35, ptr noundef %37)
  tail call void @_ZN11xercesc_2_57XMemorydlEPv(ptr noundef nonnull %16)
  %41 = icmp eq ptr %18, null
  br i1 %41, label %42, label %15

42:                                               ; preds = %28
  %43 = load ptr, ptr %6, align 8, !tbaa !938
  %44 = load i64, ptr %2, align 8, !tbaa !936
  br label %45

45:                                               ; preds = %42, %8
  %46 = phi i64 [ %44, %42 ], [ %9, %8 ]
  %47 = phi ptr [ %43, %42 ], [ %11, %8 ]
  %48 = getelementptr inbounds ptr, ptr %47, i64 %10
  store ptr null, ptr %48, align 8, !tbaa !911
  %49 = add nuw i64 %10, 1
  %50 = icmp ult i64 %49, %46
  br i1 %50, label %8, label %51

51:                                               ; preds = %45, %1
  %52 = getelementptr inbounds %"class.xercesc_2_5::DOMDeepNodeListPool", ptr %0, i64 0, i32 6
  store i64 0, ptr %52, align 8, !tbaa !946
  %53 = getelementptr inbounds %"class.xercesc_2_5::DOMDeepNodeListPool", ptr %0, i64 0, i32 7
  %54 = load ptr, ptr %53, align 8, !tbaa !943
  %55 = getelementptr inbounds %"class.xercesc_2_5::DOMDeepNodeListPool", ptr %0, i64 0, i32 4
  %56 = load ptr, ptr %55, align 8, !tbaa !947
  %57 = load ptr, ptr %54, align 8, !tbaa !888
  %58 = getelementptr inbounds ptr, ptr %57, i64 3
  %59 = load ptr, ptr %58, align 8
  tail call void %59(ptr noundef nonnull align 8 dereferenceable(8) %54, ptr noundef %56)
  %60 = load ptr, ptr %53, align 8, !tbaa !943
  %61 = getelementptr inbounds %"class.xercesc_2_5::DOMDeepNodeListPool", ptr %0, i64 0, i32 1
  %62 = load ptr, ptr %61, align 8, !tbaa !938
  %63 = load ptr, ptr %60, align 8, !tbaa !888
  %64 = getelementptr inbounds ptr, ptr %63, i64 3
  %65 = load ptr, ptr %64, align 8
  tail call void %65(ptr noundef nonnull align 8 dereferenceable(8) %60, ptr noundef %62)
  %66 = getelementptr inbounds %"class.xercesc_2_5::DOMDeepNodeListPool", ptr %0, i64 0, i32 3
  %67 = load ptr, ptr %66, align 8, !tbaa !948
  %68 = icmp eq ptr %67, null
  br i1 %68, label %73, label %69

69:                                               ; preds = %51
  %70 = load ptr, ptr %67, align 8, !tbaa !888
  %71 = getelementptr inbounds ptr, ptr %70, i64 3
  %72 = load ptr, ptr %71, align 8
  tail call void %72(ptr noundef nonnull align 8 dereferenceable(8) %67)
  br label %73

73:                                               ; preds = %69, %51
  ret void
}

declare void @_ZN11xercesc_2_57XMemorydlEPv(ptr noundef) local_unnamed_addr #2

; Function Attrs: uwtable
define linkonce_odr dso_local void @_ZN11xercesc_2_510RefArrayOfINS_10RefStackOfINS_7DOMNodeEEEE17deleteAllElementsEv(ptr noundef nonnull align 8 dereferenceable(24) %0) local_unnamed_addr #1 comdat align 2 personality ptr @__gxx_personality_v0 {
  %2 = load i32, ptr %0, align 8, !tbaa !949
  %3 = icmp eq i32 %2, 0
  br i1 %3, label %6, label %4

4:                                                ; preds = %1
  %5 = getelementptr inbounds %"class.xercesc_2_5::RefArrayOf", ptr %0, i64 0, i32 1
  br label %7

6:                                                ; preds = %54, %1
  ret void

7:                                                ; preds = %4, %54
  %8 = phi i32 [ %2, %4 ], [ %55, %54 ]
  %9 = phi i64 [ 0, %4 ], [ %58, %54 ]
  %10 = load ptr, ptr %5, align 8, !tbaa !926
  %11 = getelementptr inbounds ptr, ptr %10, i64 %9
  %12 = load ptr, ptr %11, align 8, !tbaa !911
  %13 = icmp eq ptr %12, null
  br i1 %13, label %54, label %14

14:                                               ; preds = %7
  %15 = getelementptr inbounds %"class.xercesc_2_5::RefStackOf.5", ptr %12, i64 0, i32 1
  store ptr getelementptr inbounds ({ [9 x ptr] }, ptr @_ZTVN11xercesc_2_511RefVectorOfINS_7DOMNodeEEE, i64 0, inrange i32 0, i64 2), ptr %15, align 8, !tbaa !888
  %16 = getelementptr inbounds %"class.xercesc_2_5::RefStackOf.5", ptr %12, i64 0, i32 1, i32 0, i32 1
  %17 = load i8, ptr %16, align 8, !tbaa !950, !range !930, !noundef !931
  %18 = icmp eq i8 %17, 0
  br i1 %18, label %43, label %19

19:                                               ; preds = %14
  %20 = getelementptr inbounds %"class.xercesc_2_5::RefStackOf.5", ptr %12, i64 0, i32 1, i32 0, i32 2
  %21 = load i32, ptr %20, align 4, !tbaa !952
  %22 = icmp eq i32 %21, 0
  br i1 %22, label %43, label %23

23:                                               ; preds = %19
  %24 = getelementptr inbounds %"class.xercesc_2_5::RefStackOf.5", ptr %12, i64 0, i32 1, i32 0, i32 4
  br label %25

25:                                               ; preds = %38, %23
  %26 = phi i32 [ %21, %23 ], [ %39, %38 ]
  %27 = phi i64 [ 0, %23 ], [ %40, %38 ]
  %28 = load ptr, ptr %24, align 8, !tbaa !953
  %29 = getelementptr inbounds ptr, ptr %28, i64 %27
  %30 = load ptr, ptr %29, align 8, !tbaa !911
  %31 = icmp eq ptr %30, null
  br i1 %31, label %38, label %32

32:                                               ; preds = %25
  %33 = load ptr, ptr %30, align 8, !tbaa !888
  %34 = getelementptr inbounds ptr, ptr %33, i64 1
  %35 = load ptr, ptr %34, align 8
  invoke void %35(ptr noundef nonnull align 8 dereferenceable(8) %30)
          to label %36 unwind label %61

36:                                               ; preds = %32
  %37 = load i32, ptr %20, align 4, !tbaa !952
  br label %38

38:                                               ; preds = %36, %25
  %39 = phi i32 [ %37, %36 ], [ %26, %25 ]
  %40 = add nuw nsw i64 %27, 1
  %41 = zext i32 %39 to i64
  %42 = icmp ult i64 %40, %41
  br i1 %42, label %25, label %43

43:                                               ; preds = %38, %19, %14
  %44 = getelementptr inbounds %"class.xercesc_2_5::RefStackOf.5", ptr %12, i64 0, i32 1, i32 0, i32 5
  %45 = load ptr, ptr %44, align 8, !tbaa !954
  %46 = getelementptr inbounds %"class.xercesc_2_5::RefStackOf.5", ptr %12, i64 0, i32 1, i32 0, i32 4
  %47 = load ptr, ptr %46, align 8, !tbaa !953
  %48 = load ptr, ptr %45, align 8, !tbaa !888
  %49 = getelementptr inbounds ptr, ptr %48, i64 3
  %50 = load ptr, ptr %49, align 8
  invoke void %50(ptr noundef nonnull align 8 dereferenceable(8) %45, ptr noundef %47)
          to label %51 unwind label %63

51:                                               ; preds = %43
  tail call void @_ZN11xercesc_2_57XMemorydlEPv(ptr noundef nonnull %12)
  %52 = load ptr, ptr %5, align 8, !tbaa !926
  %53 = load i32, ptr %0, align 8, !tbaa !949
  br label %54

54:                                               ; preds = %51, %7
  %55 = phi i32 [ %53, %51 ], [ %8, %7 ]
  %56 = phi ptr [ %52, %51 ], [ %10, %7 ]
  %57 = getelementptr inbounds ptr, ptr %56, i64 %9
  store ptr null, ptr %57, align 8, !tbaa !911
  %58 = add nuw nsw i64 %9, 1
  %59 = zext i32 %55 to i64
  %60 = icmp ult i64 %58, %59
  br i1 %60, label %7, label %6

61:                                               ; preds = %32
  %62 = landingpad { ptr, i32 }
          cleanup
  br label %65

63:                                               ; preds = %43
  %64 = landingpad { ptr, i32 }
          cleanup
  br label %65

65:                                               ; preds = %63, %61
  %66 = phi { ptr, i32 } [ %62, %61 ], [ %64, %63 ]
  invoke void @_ZN11xercesc_2_57XMemorydlEPv(ptr noundef nonnull %12)
          to label %67 unwind label %68

67:                                               ; preds = %65
  resume { ptr, i32 } %66

68:                                               ; preds = %65
  %69 = landingpad { ptr, i32 }
          catch ptr null
  %70 = extractvalue { ptr, i32 } %69, 0
  tail call void @__clang_call_terminate(ptr %70) #17
  unreachable
}

declare void @_ZN11xercesc_2_513DOMNormalizerD1Ev(ptr noundef nonnull align 8 dereferenceable(48)) unnamed_addr #2

; Function Attrs: uwtable
define dso_local void @_ZThn8_N11xercesc_2_515DOMDocumentImplD1Ev(ptr noundef %0) unnamed_addr #1 align 2 {
  %2 = getelementptr inbounds i8, ptr %0, i64 -8
  tail call void @_ZN11xercesc_2_515DOMDocumentImplD2Ev(ptr noundef nonnull align 8 dereferenceable(253) %2)
  ret void
}

; Function Attrs: uwtable
define dso_local void @_ZThn16_N11xercesc_2_515DOMDocumentImplD1Ev(ptr noundef %0) unnamed_addr #1 align 2 {
  %2 = getelementptr inbounds i8, ptr %0, i64 -16
  tail call void @_ZN11xercesc_2_515DOMDocumentImplD2Ev(ptr noundef nonnull align 8 dereferenceable(253) %2)
  ret void
}

; Function Attrs: uwtable
define dso_local void @_ZThn24_N11xercesc_2_515DOMDocumentImplD1Ev(ptr noundef %0) unnamed_addr #1 align 2 {
  %2 = getelementptr inbounds i8, ptr %0, i64 -24
  tail call void @_ZN11xercesc_2_515DOMDocumentImplD2Ev(ptr noundef nonnull align 8 dereferenceable(253) %2)
  ret void
}

; Function Attrs: uwtable
define dso_local void @_ZN11xercesc_2_515DOMDocumentImplD0Ev(ptr noundef nonnull align 8 dereferenceable(253) %0) unnamed_addr #1 align 2 personality ptr @__gxx_personality_v0 {
  invoke void @_ZN11xercesc_2_515DOMDocumentImplD2Ev(ptr noundef nonnull align 8 dereferenceable(253) %0)
          to label %2 unwind label %3

2:                                                ; preds = %1
  tail call void @_ZN11xercesc_2_57XMemorydlEPv(ptr noundef nonnull %0)
  ret void

3:                                                ; preds = %1
  %4 = landingpad { ptr, i32 }
          cleanup
  invoke void @_ZN11xercesc_2_57XMemorydlEPv(ptr noundef nonnull %0)
          to label %5 unwind label %6

5:                                                ; preds = %3
  resume { ptr, i32 } %4

6:                                                ; preds = %3
  %7 = landingpad { ptr, i32 }
          catch ptr null
  %8 = extractvalue { ptr, i32 } %7, 0
  tail call void @__clang_call_terminate(ptr %8) #17
  unreachable
}

; Function Attrs: uwtable
define dso_local void @_ZThn8_N11xercesc_2_515DOMDocumentImplD0Ev(ptr noundef %0) unnamed_addr #1 align 2 personality ptr @__gxx_personality_v0 {
  %2 = getelementptr inbounds i8, ptr %0, i64 -8
  invoke void @_ZN11xercesc_2_515DOMDocumentImplD2Ev(ptr noundef nonnull align 8 dereferenceable(253) %2)
          to label %9 unwind label %3

3:                                                ; preds = %1
  %4 = landingpad { ptr, i32 }
          cleanup
  invoke void @_ZN11xercesc_2_57XMemorydlEPv(ptr noundef nonnull %2)
          to label %5 unwind label %6

5:                                                ; preds = %3
  resume { ptr, i32 } %4

6:                                                ; preds = %3
  %7 = landingpad { ptr, i32 }
          catch ptr null
  %8 = extractvalue { ptr, i32 } %7, 0
  tail call void @__clang_call_terminate(ptr %8) #17
  unreachable

9:                                                ; preds = %1
  tail call void @_ZN11xercesc_2_57XMemorydlEPv(ptr noundef nonnull %2)
  ret void
}

; Function Attrs: uwtable
define dso_local void @_ZThn16_N11xercesc_2_515DOMDocumentImplD0Ev(ptr noundef %0) unnamed_addr #1 align 2 personality ptr @__gxx_personality_v0 {
  %2 = getelementptr inbounds i8, ptr %0, i64 -16
  invoke void @_ZN11xercesc_2_515DOMDocumentImplD2Ev(ptr noundef nonnull align 8 dereferenceable(253) %2)
          to label %9 unwind label %3

3:                                                ; preds = %1
  %4 = landingpad { ptr, i32 }
          cleanup
  invoke void @_ZN11xercesc_2_57XMemorydlEPv(ptr noundef nonnull %2)
          to label %5 unwind label %6

5:                                                ; preds = %3
  resume { ptr, i32 } %4

6:                                                ; preds = %3
  %7 = landingpad { ptr, i32 }
          catch ptr null
  %8 = extractvalue { ptr, i32 } %7, 0
  tail call void @__clang_call_terminate(ptr %8) #17
  unreachable

9:                                                ; preds = %1
  tail call void @_ZN11xercesc_2_57XMemorydlEPv(ptr noundef nonnull %2)
  ret void
}

; Function Attrs: uwtable
define dso_local void @_ZThn24_N11xercesc_2_515DOMDocumentImplD0Ev(ptr noundef %0) unnamed_addr #1 align 2 personality ptr @__gxx_personality_v0 {
  %2 = getelementptr inbounds i8, ptr %0, i64 -24
  invoke void @_ZN11xercesc_2_515DOMDocumentImplD2Ev(ptr noundef nonnull align 8 dereferenceable(253) %2)
          to label %9 unwind label %3

3:                                                ; preds = %1
  %4 = landingpad { ptr, i32 }
          cleanup
  invoke void @_ZN11xercesc_2_57XMemorydlEPv(ptr noundef nonnull %2)
          to label %5 unwind label %6

5:                                                ; preds = %3
  resume { ptr, i32 } %4

6:                                                ; preds = %3
  %7 = landingpad { ptr, i32 }
          catch ptr null
  %8 = extractvalue { ptr, i32 } %7, 0
  tail call void @__clang_call_terminate(ptr %8) #17
  unreachable

9:                                                ; preds = %1
  tail call void @_ZN11xercesc_2_57XMemorydlEPv(ptr noundef nonnull %2)
  ret void
}

; Function Attrs: uwtable
define dso_local noundef ptr @_ZNK11xercesc_2_515DOMDocumentImpl9cloneNodeEb(ptr noundef nonnull align 8 dereferenceable(253) %0, i1 noundef zeroext %1) unnamed_addr #1 align 2 personality ptr @__gxx_personality_v0 {
  %3 = getelementptr inbounds %"class.xercesc_2_5::DOMDocumentImpl", ptr %0, i64 0, i32 24
  %4 = load ptr, ptr %3, align 8, !tbaa !891
  %5 = tail call noundef ptr @_ZN11xercesc_2_57XMemorynwEmPNS_13MemoryManagerE(i64 noundef 256, ptr noundef %4)
  %6 = load ptr, ptr %3, align 8, !tbaa !891
  invoke void @_ZN11xercesc_2_515DOMDocumentImplC2EPNS_13MemoryManagerE(ptr noundef nonnull align 8 dereferenceable(253) %5, ptr noundef %6)
          to label %7 unwind label %14

7:                                                ; preds = %2
  br i1 %1, label %8, label %32

8:                                                ; preds = %7
  %9 = load ptr, ptr %0, align 8, !tbaa !888
  %10 = getelementptr inbounds ptr, ptr %9, i64 44
  %11 = load ptr, ptr %10, align 8
  %12 = tail call noundef ptr %11(ptr noundef nonnull align 8 dereferenceable(253) %0)
  %13 = icmp eq ptr %12, null
  br i1 %13, label %32, label %17

14:                                               ; preds = %2
  %15 = landingpad { ptr, i32 }
          cleanup
  invoke void @_ZN11xercesc_2_57XMemorydlEPvPNS_13MemoryManagerE(ptr noundef %5, ptr noundef %4)
          to label %16 unwind label %36

16:                                               ; preds = %14
  resume { ptr, i32 } %15

17:                                               ; preds = %8, %17
  %18 = phi ptr [ %30, %17 ], [ %12, %8 ]
  %19 = load ptr, ptr %5, align 8, !tbaa !888
  %20 = getelementptr inbounds ptr, ptr %19, i64 92
  %21 = load ptr, ptr %20, align 8
  %22 = tail call noundef ptr %21(ptr noundef nonnull align 8 dereferenceable(253) %5, ptr noundef nonnull %18, i1 noundef zeroext true, i1 noundef zeroext true)
  %23 = load ptr, ptr %5, align 8, !tbaa !888
  %24 = getelementptr inbounds ptr, ptr %23, i64 40
  %25 = load ptr, ptr %24, align 8
  %26 = tail call noundef ptr %25(ptr noundef nonnull align 8 dereferenceable(253) %5, ptr noundef %22)
  %27 = load ptr, ptr %18, align 8, !tbaa !888
  %28 = getelementptr inbounds ptr, ptr %27, i64 10
  %29 = load ptr, ptr %28, align 8
  %30 = tail call noundef ptr %29(ptr noundef nonnull align 8 dereferenceable(8) %18)
  %31 = icmp eq ptr %30, null
  br i1 %31, label %32, label %17

32:                                               ; preds = %17, %8, %7
  %33 = getelementptr inbounds %"class.xercesc_2_5::DOMDocumentImpl", ptr %0, i64 0, i32 1
  %34 = getelementptr inbounds i8, ptr %0, i64 24
  %35 = getelementptr inbounds i8, ptr %5, i64 24
  tail call void @_ZNK11xercesc_2_511DOMNodeImpl20callUserDataHandlersENS_18DOMUserDataHandler16DOMOperationTypeEPKNS_7DOMNodeES5_(ptr noundef nonnull align 8 dereferenceable(10) %33, i32 noundef 1, ptr noundef nonnull %34, ptr noundef nonnull %35)
  ret ptr %35

36:                                               ; preds = %14
  %37 = landingpad { ptr, i32 }
          catch ptr null
  %38 = extractvalue { ptr, i32 } %37, 0
  tail call void @__clang_call_terminate(ptr %38) #17
  unreachable
}

declare noundef ptr @_ZN11xercesc_2_57XMemorynwEmPNS_13MemoryManagerE(i64 noundef, ptr noundef) local_unnamed_addr #2

declare void @_ZN11xercesc_2_57XMemorydlEPvPNS_13MemoryManagerE(ptr noundef, ptr noundef) local_unnamed_addr #2

declare void @_ZNK11xercesc_2_511DOMNodeImpl20callUserDataHandlersENS_18DOMUserDataHandler16DOMOperationTypeEPKNS_7DOMNodeES5_(ptr noundef nonnull align 8 dereferenceable(10), i32 noundef, ptr noundef, ptr noundef) local_unnamed_addr #2

; Function Attrs: uwtable
define dso_local noundef ptr @_ZThn24_NK11xercesc_2_515DOMDocumentImpl9cloneNodeEb(ptr noundef %0, i1 noundef zeroext %1) unnamed_addr #1 align 2 {
  %3 = getelementptr inbounds i8, ptr %0, i64 -24
  %4 = tail call noundef ptr @_ZNK11xercesc_2_515DOMDocumentImpl9cloneNodeEb(ptr noundef nonnull align 8 dereferenceable(253) %3, i1 noundef zeroext %1)
  ret ptr %4
}

; Function Attrs: mustprogress nofree norecurse nosync nounwind willreturn memory(none) uwtable
define dso_local noundef nonnull ptr @_ZNK11xercesc_2_515DOMDocumentImpl11getNodeNameEv(ptr nocapture nonnull readnone align 8 %0) unnamed_addr #6 align 2 {
  ret ptr @_ZZNK11xercesc_2_515DOMDocumentImpl11getNodeNameEvE3nam
}

; Function Attrs: mustprogress nofree norecurse nosync nounwind willreturn memory(none) uwtable
define dso_local noundef nonnull ptr @_ZThn24_NK11xercesc_2_515DOMDocumentImpl11getNodeNameEv(ptr nocapture readnone %0) unnamed_addr #6 align 2 {
  ret ptr @_ZZNK11xercesc_2_515DOMDocumentImpl11getNodeNameEvE3nam
}

; Function Attrs: mustprogress nofree norecurse nosync nounwind willreturn memory(none) uwtable
define dso_local noundef signext i16 @_ZNK11xercesc_2_515DOMDocumentImpl11getNodeTypeEv(ptr nocapture nonnull readnone align 8 %0) unnamed_addr #6 align 2 {
  ret i16 9
}

; Function Attrs: mustprogress nofree norecurse nosync nounwind willreturn memory(none) uwtable
define dso_local noundef signext i16 @_ZThn24_NK11xercesc_2_515DOMDocumentImpl11getNodeTypeEv(ptr nocapture readnone %0) unnamed_addr #6 align 2 {
  ret i16 9
}

; Function Attrs: mustprogress nofree norecurse nosync nounwind willreturn memory(none) uwtable
define dso_local noalias noundef ptr @_ZNK11xercesc_2_515DOMDocumentImpl16getOwnerDocumentEv(ptr nocapture nonnull readnone align 8 %0) unnamed_addr #6 align 2 {
  ret ptr null
}

; Function Attrs: mustprogress nofree norecurse nosync nounwind willreturn memory(none) uwtable
define dso_local noalias noundef ptr @_ZThn24_NK11xercesc_2_515DOMDocumentImpl16getOwnerDocumentEv(ptr nocapture readnone %0) unnamed_addr #6 align 2 {
  ret ptr null
}

; Function Attrs: uwtable
define dso_local noundef ptr @_ZN11xercesc_2_515DOMDocumentImpl15createAttributeEPKt(ptr noundef nonnull align 8 dereferenceable(253) %0, ptr noundef %1) unnamed_addr #1 align 2 personality ptr @__gxx_personality_v0 {
  %3 = icmp eq ptr %1, null
  br i1 %3, label %60, label %4

4:                                                ; preds = %2
  %5 = getelementptr inbounds %"class.xercesc_2_5::DOMDocumentImpl", ptr %0, i64 0, i32 8
  %6 = load ptr, ptr %5, align 8, !tbaa !955
  %7 = icmp eq ptr %6, null
  br i1 %7, label %12, label %8

8:                                                ; preds = %4
  %9 = load i16, ptr %6, align 2, !tbaa !956
  %10 = load i16, ptr @_ZN11xercesc_2_56XMLUni12fgVersion1_1E, align 2, !tbaa !956
  %11 = icmp eq i16 %9, %10
  br i1 %11, label %15, label %43

12:                                               ; preds = %4
  %13 = load i16, ptr @_ZN11xercesc_2_56XMLUni12fgVersion1_1E, align 2, !tbaa !956
  %14 = icmp eq i16 %13, 0
  br i1 %14, label %26, label %43

15:                                               ; preds = %8, %20
  %16 = phi i16 [ %23, %20 ], [ %9, %8 ]
  %17 = phi ptr [ %22, %20 ], [ @_ZN11xercesc_2_56XMLUni12fgVersion1_1E, %8 ]
  %18 = phi ptr [ %21, %20 ], [ %6, %8 ]
  %19 = icmp eq i16 %16, 0
  br i1 %19, label %26, label %20

20:                                               ; preds = %15
  %21 = getelementptr inbounds i16, ptr %18, i64 1
  %22 = getelementptr inbounds i16, ptr %17, i64 1
  %23 = load i16, ptr %21, align 2, !tbaa !956
  %24 = load i16, ptr %22, align 2, !tbaa !956
  %25 = icmp eq i16 %23, %24
  br i1 %25, label %15, label %43

26:                                               ; preds = %15, %12
  %27 = load i16, ptr %1, align 2, !tbaa !956
  %28 = icmp eq i16 %27, 0
  br i1 %28, label %40, label %29

29:                                               ; preds = %26, %29
  %30 = phi ptr [ %31, %29 ], [ %1, %26 ]
  %31 = getelementptr inbounds i16, ptr %30, i64 1
  %32 = load i16, ptr %31, align 2, !tbaa !956
  %33 = icmp eq i16 %32, 0
  br i1 %33, label %34, label %29

34:                                               ; preds = %29
  %35 = ptrtoint ptr %31 to i64
  %36 = ptrtoint ptr %1 to i64
  %37 = sub i64 %35, %36
  %38 = lshr exact i64 %37, 1
  %39 = trunc i64 %38 to i32
  br label %40

40:                                               ; preds = %34, %26
  %41 = phi i32 [ %39, %34 ], [ 0, %26 ]
  %42 = tail call noundef zeroext i1 @_ZN11xercesc_2_510XMLChar1_111isValidNameEPKtj(ptr noundef nonnull %1, i32 noundef %41)
  br i1 %42, label %65, label %60

43:                                               ; preds = %20, %8, %12
  %44 = load i16, ptr %1, align 2, !tbaa !956
  %45 = icmp eq i16 %44, 0
  br i1 %45, label %57, label %46

46:                                               ; preds = %43, %46
  %47 = phi ptr [ %48, %46 ], [ %1, %43 ]
  %48 = getelementptr inbounds i16, ptr %47, i64 1
  %49 = load i16, ptr %48, align 2, !tbaa !956
  %50 = icmp eq i16 %49, 0
  br i1 %50, label %51, label %46

51:                                               ; preds = %46
  %52 = ptrtoint ptr %48 to i64
  %53 = ptrtoint ptr %1 to i64
  %54 = sub i64 %52, %53
  %55 = lshr exact i64 %54, 1
  %56 = trunc i64 %55 to i32
  br label %57

57:                                               ; preds = %43, %51
  %58 = phi i32 [ %56, %51 ], [ 0, %43 ]
  %59 = tail call noundef zeroext i1 @_ZN11xercesc_2_510XMLChar1_011isValidNameEPKtj(ptr noundef nonnull %1, i32 noundef %58)
  br i1 %59, label %65, label %60

60:                                               ; preds = %40, %57, %2
  %61 = tail call ptr @__cxa_allocate_exception(i64 24) #18
  invoke void @_ZN11xercesc_2_512DOMExceptionC1EsPKt(ptr noundef nonnull align 8 dereferenceable(24) %61, i16 noundef signext 5, ptr noundef null)
          to label %62 unwind label %63

62:                                               ; preds = %60
  tail call void @__cxa_throw(ptr nonnull %61, ptr nonnull @_ZTIN11xercesc_2_512DOMExceptionE, ptr nonnull @_ZN11xercesc_2_512DOMExceptionD1Ev) #19
  unreachable

63:                                               ; preds = %60
  %64 = landingpad { ptr, i32 }
          cleanup
  tail call void @__cxa_free_exception(ptr %61) #18
  resume { ptr, i32 } %64

65:                                               ; preds = %40, %57
  %66 = tail call noundef ptr @_ZN11xercesc_2_515DOMDocumentImpl8allocateEmNS0_14NodeObjectTypeE(ptr noundef nonnull align 8 dereferenceable(253) %0, i64 noundef 72, i32 noundef 0)
  tail call void @_ZN11xercesc_2_511DOMAttrImplC1EPNS_11DOMDocumentEPKt(ptr noundef nonnull align 8 dereferenceable(72) %66, ptr noundef nonnull %0, ptr noundef nonnull %1)
  ret ptr %66
}

; Function Attrs: uwtable
define dso_local noundef zeroext i1 @_ZN11xercesc_2_515DOMDocumentImpl9isXMLNameEPKt(ptr nocapture noundef nonnull readonly align 8 dereferenceable(253) %0, ptr noundef %1) local_unnamed_addr #1 align 2 {
  %3 = getelementptr inbounds %"class.xercesc_2_5::DOMDocumentImpl", ptr %0, i64 0, i32 8
  %4 = load ptr, ptr %3, align 8, !tbaa !955
  %5 = icmp eq ptr %4, null
  br i1 %5, label %10, label %6

6:                                                ; preds = %2
  %7 = load i16, ptr %4, align 2, !tbaa !956
  %8 = load i16, ptr @_ZN11xercesc_2_56XMLUni12fgVersion1_1E, align 2, !tbaa !956
  %9 = icmp eq i16 %7, %8
  br i1 %9, label %13, label %43

10:                                               ; preds = %2
  %11 = load i16, ptr @_ZN11xercesc_2_56XMLUni12fgVersion1_1E, align 2, !tbaa !956
  %12 = icmp eq i16 %11, 0
  br i1 %12, label %24, label %43

13:                                               ; preds = %6, %18
  %14 = phi i16 [ %21, %18 ], [ %7, %6 ]
  %15 = phi ptr [ %20, %18 ], [ @_ZN11xercesc_2_56XMLUni12fgVersion1_1E, %6 ]
  %16 = phi ptr [ %19, %18 ], [ %4, %6 ]
  %17 = icmp eq i16 %14, 0
  br i1 %17, label %24, label %18

18:                                               ; preds = %13
  %19 = getelementptr inbounds i16, ptr %16, i64 1
  %20 = getelementptr inbounds i16, ptr %15, i64 1
  %21 = load i16, ptr %19, align 2, !tbaa !956
  %22 = load i16, ptr %20, align 2, !tbaa !956
  %23 = icmp eq i16 %21, %22
  br i1 %23, label %13, label %43

24:                                               ; preds = %13, %10
  %25 = icmp eq ptr %1, null
  br i1 %25, label %40, label %26

26:                                               ; preds = %24
  %27 = load i16, ptr %1, align 2, !tbaa !956
  %28 = icmp eq i16 %27, 0
  br i1 %28, label %40, label %29

29:                                               ; preds = %26, %29
  %30 = phi ptr [ %31, %29 ], [ %1, %26 ]
  %31 = getelementptr inbounds i16, ptr %30, i64 1
  %32 = load i16, ptr %31, align 2, !tbaa !956
  %33 = icmp eq i16 %32, 0
  br i1 %33, label %34, label %29

34:                                               ; preds = %29
  %35 = ptrtoint ptr %31 to i64
  %36 = ptrtoint ptr %1 to i64
  %37 = sub i64 %35, %36
  %38 = lshr exact i64 %37, 1
  %39 = trunc i64 %38 to i32
  br label %40

40:                                               ; preds = %24, %26, %34
  %41 = phi i32 [ %39, %34 ], [ 0, %26 ], [ 0, %24 ]
  %42 = tail call noundef zeroext i1 @_ZN11xercesc_2_510XMLChar1_111isValidNameEPKtj(ptr noundef %1, i32 noundef %41)
  br label %62

43:                                               ; preds = %18, %10, %6
  %44 = icmp eq ptr %1, null
  br i1 %44, label %59, label %45

45:                                               ; preds = %43
  %46 = load i16, ptr %1, align 2, !tbaa !956
  %47 = icmp eq i16 %46, 0
  br i1 %47, label %59, label %48

48:                                               ; preds = %45, %48
  %49 = phi ptr [ %50, %48 ], [ %1, %45 ]
  %50 = getelementptr inbounds i16, ptr %49, i64 1
  %51 = load i16, ptr %50, align 2, !tbaa !956
  %52 = icmp eq i16 %51, 0
  br i1 %52, label %53, label %48

53:                                               ; preds = %48
  %54 = ptrtoint ptr %50 to i64
  %55 = ptrtoint ptr %1 to i64
  %56 = sub i64 %54, %55
  %57 = lshr exact i64 %56, 1
  %58 = trunc i64 %57 to i32
  br label %59

59:                                               ; preds = %43, %45, %53
  %60 = phi i32 [ %58, %53 ], [ 0, %45 ], [ 0, %43 ]
  %61 = tail call noundef zeroext i1 @_ZN11xercesc_2_510XMLChar1_011isValidNameEPKtj(ptr noundef %1, i32 noundef %60)
  br label %62

62:                                               ; preds = %59, %40
  %63 = phi i1 [ %42, %40 ], [ %61, %59 ]
  ret i1 %63
}

declare void @_ZN11xercesc_2_511DOMAttrImplC1EPNS_11DOMDocumentEPKt(ptr noundef nonnull align 8 dereferenceable(72), ptr noundef, ptr noundef) unnamed_addr #2

; Function Attrs: uwtable
define dso_local noundef ptr @_ZN11xercesc_2_515DOMDocumentImpl18createCDATASectionEPKt(ptr noundef nonnull align 8 dereferenceable(253) %0, ptr noundef %1) unnamed_addr #1 align 2 {
  %3 = tail call noundef ptr @_ZN11xercesc_2_515DOMDocumentImpl8allocateEmNS0_14NodeObjectTypeE(ptr noundef nonnull align 8 dereferenceable(253) %0, i64 noundef 88, i32 noundef 2)
  tail call void @_ZN11xercesc_2_519DOMCDATASectionImplC1EPNS_11DOMDocumentEPKt(ptr noundef nonnull align 8 dereferenceable(88) %3, ptr noundef nonnull %0, ptr noundef %1)
  ret ptr %3
}

declare void @_ZN11xercesc_2_519DOMCDATASectionImplC1EPNS_11DOMDocumentEPKt(ptr noundef nonnull align 8 dereferenceable(88), ptr noundef, ptr noundef) unnamed_addr #2

; Function Attrs: uwtable
define dso_local noundef ptr @_ZN11xercesc_2_515DOMDocumentImpl13createCommentEPKt(ptr noundef nonnull align 8 dereferenceable(253) %0, ptr noundef %1) unnamed_addr #1 align 2 {
  %3 = tail call noundef ptr @_ZN11xercesc_2_515DOMDocumentImpl8allocateEmNS0_14NodeObjectTypeE(ptr noundef nonnull align 8 dereferenceable(253) %0, i64 noundef 56, i32 noundef 3)
  tail call void @_ZN11xercesc_2_514DOMCommentImplC1EPNS_11DOMDocumentEPKt(ptr noundef nonnull align 8 dereferenceable(56) %3, ptr noundef nonnull %0, ptr noundef %1)
  ret ptr %3
}

declare void @_ZN11xercesc_2_514DOMCommentImplC1EPNS_11DOMDocumentEPKt(ptr noundef nonnull align 8 dereferenceable(56), ptr noundef, ptr noundef) unnamed_addr #2

; Function Attrs: uwtable
define dso_local noundef ptr @_ZN11xercesc_2_515DOMDocumentImpl22createDocumentFragmentEv(ptr noundef nonnull align 8 dereferenceable(253) %0) unnamed_addr #1 align 2 {
  %2 = tail call noundef ptr @_ZN11xercesc_2_515DOMDocumentImpl8allocateEmNS0_14NodeObjectTypeE(ptr noundef nonnull align 8 dereferenceable(253) %0, i64 noundef 56, i32 noundef 4)
  tail call void @_ZN11xercesc_2_523DOMDocumentFragmentImplC1EPNS_11DOMDocumentE(ptr noundef nonnull align 8 dereferenceable(56) %2, ptr noundef nonnull %0)
  ret ptr %2
}

declare void @_ZN11xercesc_2_523DOMDocumentFragmentImplC1EPNS_11DOMDocumentE(ptr noundef nonnull align 8 dereferenceable(56), ptr noundef) unnamed_addr #2

; Function Attrs: uwtable
define dso_local noundef ptr @_ZN11xercesc_2_515DOMDocumentImpl18createDocumentTypeEPKt(ptr noundef nonnull align 8 dereferenceable(253) %0, ptr noundef %1) unnamed_addr #1 align 2 personality ptr @__gxx_personality_v0 {
  %3 = icmp eq ptr %1, null
  br i1 %3, label %60, label %4

4:                                                ; preds = %2
  %5 = getelementptr inbounds %"class.xercesc_2_5::DOMDocumentImpl", ptr %0, i64 0, i32 8
  %6 = load ptr, ptr %5, align 8, !tbaa !955
  %7 = icmp eq ptr %6, null
  br i1 %7, label %12, label %8

8:                                                ; preds = %4
  %9 = load i16, ptr %6, align 2, !tbaa !956
  %10 = load i16, ptr @_ZN11xercesc_2_56XMLUni12fgVersion1_1E, align 2, !tbaa !956
  %11 = icmp eq i16 %9, %10
  br i1 %11, label %15, label %43

12:                                               ; preds = %4
  %13 = load i16, ptr @_ZN11xercesc_2_56XMLUni12fgVersion1_1E, align 2, !tbaa !956
  %14 = icmp eq i16 %13, 0
  br i1 %14, label %26, label %43

15:                                               ; preds = %8, %20
  %16 = phi i16 [ %23, %20 ], [ %9, %8 ]
  %17 = phi ptr [ %22, %20 ], [ @_ZN11xercesc_2_56XMLUni12fgVersion1_1E, %8 ]
  %18 = phi ptr [ %21, %20 ], [ %6, %8 ]
  %19 = icmp eq i16 %16, 0
  br i1 %19, label %26, label %20

20:                                               ; preds = %15
  %21 = getelementptr inbounds i16, ptr %18, i64 1
  %22 = getelementptr inbounds i16, ptr %17, i64 1
  %23 = load i16, ptr %21, align 2, !tbaa !956
  %24 = load i16, ptr %22, align 2, !tbaa !956
  %25 = icmp eq i16 %23, %24
  br i1 %25, label %15, label %43

26:                                               ; preds = %15, %12
  %27 = load i16, ptr %1, align 2, !tbaa !956
  %28 = icmp eq i16 %27, 0
  br i1 %28, label %40, label %29

29:                                               ; preds = %26, %29
  %30 = phi ptr [ %31, %29 ], [ %1, %26 ]
  %31 = getelementptr inbounds i16, ptr %30, i64 1
  %32 = load i16, ptr %31, align 2, !tbaa !956
  %33 = icmp eq i16 %32, 0
  br i1 %33, label %34, label %29

34:                                               ; preds = %29
  %35 = ptrtoint ptr %31 to i64
  %36 = ptrtoint ptr %1 to i64
  %37 = sub i64 %35, %36
  %38 = lshr exact i64 %37, 1
  %39 = trunc i64 %38 to i32
  br label %40

40:                                               ; preds = %34, %26
  %41 = phi i32 [ %39, %34 ], [ 0, %26 ]
  %42 = tail call noundef zeroext i1 @_ZN11xercesc_2_510XMLChar1_111isValidNameEPKtj(ptr noundef nonnull %1, i32 noundef %41)
  br i1 %42, label %65, label %60

43:                                               ; preds = %20, %8, %12
  %44 = load i16, ptr %1, align 2, !tbaa !956
  %45 = icmp eq i16 %44, 0
  br i1 %45, label %57, label %46

46:                                               ; preds = %43, %46
  %47 = phi ptr [ %48, %46 ], [ %1, %43 ]
  %48 = getelementptr inbounds i16, ptr %47, i64 1
  %49 = load i16, ptr %48, align 2, !tbaa !956
  %50 = icmp eq i16 %49, 0
  br i1 %50, label %51, label %46

51:                                               ; preds = %46
  %52 = ptrtoint ptr %48 to i64
  %53 = ptrtoint ptr %1 to i64
  %54 = sub i64 %52, %53
  %55 = lshr exact i64 %54, 1
  %56 = trunc i64 %55 to i32
  br label %57

57:                                               ; preds = %43, %51
  %58 = phi i32 [ %56, %51 ], [ 0, %43 ]
  %59 = tail call noundef zeroext i1 @_ZN11xercesc_2_510XMLChar1_011isValidNameEPKtj(ptr noundef nonnull %1, i32 noundef %58)
  br i1 %59, label %65, label %60

60:                                               ; preds = %40, %57, %2
  %61 = tail call ptr @__cxa_allocate_exception(i64 24) #18
  invoke void @_ZN11xercesc_2_512DOMExceptionC1EsPKt(ptr noundef nonnull align 8 dereferenceable(24) %61, i16 noundef signext 5, ptr noundef null)
          to label %62 unwind label %63

62:                                               ; preds = %60
  tail call void @__cxa_throw(ptr nonnull %61, ptr nonnull @_ZTIN11xercesc_2_512DOMExceptionE, ptr nonnull @_ZN11xercesc_2_512DOMExceptionD1Ev) #19
  unreachable

63:                                               ; preds = %60
  %64 = landingpad { ptr, i32 }
          cleanup
  tail call void @__cxa_free_exception(ptr %61) #18
  resume { ptr, i32 } %64

65:                                               ; preds = %40, %57
  %66 = tail call noundef ptr @_ZN11xercesc_2_515DOMDocumentImpl8allocateEmNS0_14NodeObjectTypeE(ptr noundef nonnull align 8 dereferenceable(253) %0, i64 noundef 136, i32 noundef 5)
  tail call void @_ZN11xercesc_2_519DOMDocumentTypeImplC1EPNS_11DOMDocumentEPKtb(ptr noundef nonnull align 8 dereferenceable(130) %66, ptr noundef nonnull %0, ptr noundef nonnull %1, i1 noundef zeroext false)
  ret ptr %66
}

declare void @_ZN11xercesc_2_519DOMDocumentTypeImplC1EPNS_11DOMDocumentEPKtb(ptr noundef nonnull align 8 dereferenceable(130), ptr noundef, ptr noundef, i1 noundef zeroext) unnamed_addr #2

; Function Attrs: uwtable
define dso_local noundef ptr @_ZN11xercesc_2_515DOMDocumentImpl18createDocumentTypeEPKtS2_S2_(ptr noundef nonnull align 8 dereferenceable(253) %0, ptr noundef %1, ptr noundef %2, ptr noundef %3) unnamed_addr #1 align 2 personality ptr @__gxx_personality_v0 {
  %5 = icmp eq ptr %1, null
  br i1 %5, label %62, label %6

6:                                                ; preds = %4
  %7 = getelementptr inbounds %"class.xercesc_2_5::DOMDocumentImpl", ptr %0, i64 0, i32 8
  %8 = load ptr, ptr %7, align 8, !tbaa !955
  %9 = icmp eq ptr %8, null
  br i1 %9, label %14, label %10

10:                                               ; preds = %6
  %11 = load i16, ptr %8, align 2, !tbaa !956
  %12 = load i16, ptr @_ZN11xercesc_2_56XMLUni12fgVersion1_1E, align 2, !tbaa !956
  %13 = icmp eq i16 %11, %12
  br i1 %13, label %17, label %45

14:                                               ; preds = %6
  %15 = load i16, ptr @_ZN11xercesc_2_56XMLUni12fgVersion1_1E, align 2, !tbaa !956
  %16 = icmp eq i16 %15, 0
  br i1 %16, label %28, label %45

17:                                               ; preds = %10, %22
  %18 = phi i16 [ %25, %22 ], [ %11, %10 ]
  %19 = phi ptr [ %24, %22 ], [ @_ZN11xercesc_2_56XMLUni12fgVersion1_1E, %10 ]
  %20 = phi ptr [ %23, %22 ], [ %8, %10 ]
  %21 = icmp eq i16 %18, 0
  br i1 %21, label %28, label %22

22:                                               ; preds = %17
  %23 = getelementptr inbounds i16, ptr %20, i64 1
  %24 = getelementptr inbounds i16, ptr %19, i64 1
  %25 = load i16, ptr %23, align 2, !tbaa !956
  %26 = load i16, ptr %24, align 2, !tbaa !956
  %27 = icmp eq i16 %25, %26
  br i1 %27, label %17, label %45

28:                                               ; preds = %17, %14
  %29 = load i16, ptr %1, align 2, !tbaa !956
  %30 = icmp eq i16 %29, 0
  br i1 %30, label %42, label %31

31:                                               ; preds = %28, %31
  %32 = phi ptr [ %33, %31 ], [ %1, %28 ]
  %33 = getelementptr inbounds i16, ptr %32, i64 1
  %34 = load i16, ptr %33, align 2, !tbaa !956
  %35 = icmp eq i16 %34, 0
  br i1 %35, label %36, label %31

36:                                               ; preds = %31
  %37 = ptrtoint ptr %33 to i64
  %38 = ptrtoint ptr %1 to i64
  %39 = sub i64 %37, %38
  %40 = lshr exact i64 %39, 1
  %41 = trunc i64 %40 to i32
  br label %42

42:                                               ; preds = %36, %28
  %43 = phi i32 [ %41, %36 ], [ 0, %28 ]
  %44 = tail call noundef zeroext i1 @_ZN11xercesc_2_510XMLChar1_111isValidNameEPKtj(ptr noundef nonnull %1, i32 noundef %43)
  br i1 %44, label %67, label %62

45:                                               ; preds = %22, %10, %14
  %46 = load i16, ptr %1, align 2, !tbaa !956
  %47 = icmp eq i16 %46, 0
  br i1 %47, label %59, label %48

48:                                               ; preds = %45, %48
  %49 = phi ptr [ %50, %48 ], [ %1, %45 ]
  %50 = getelementptr inbounds i16, ptr %49, i64 1
  %51 = load i16, ptr %50, align 2, !tbaa !956
  %52 = icmp eq i16 %51, 0
  br i1 %52, label %53, label %48

53:                                               ; preds = %48
  %54 = ptrtoint ptr %50 to i64
  %55 = ptrtoint ptr %1 to i64
  %56 = sub i64 %54, %55
  %57 = lshr exact i64 %56, 1
  %58 = trunc i64 %57 to i32
  br label %59

59:                                               ; preds = %45, %53
  %60 = phi i32 [ %58, %53 ], [ 0, %45 ]
  %61 = tail call noundef zeroext i1 @_ZN11xercesc_2_510XMLChar1_011isValidNameEPKtj(ptr noundef nonnull %1, i32 noundef %60)
  br i1 %61, label %67, label %62

62:                                               ; preds = %42, %59, %4
  %63 = tail call ptr @__cxa_allocate_exception(i64 24) #18
  invoke void @_ZN11xercesc_2_512DOMExceptionC1EsPKt(ptr noundef nonnull align 8 dereferenceable(24) %63, i16 noundef signext 5, ptr noundef null)
          to label %64 unwind label %65

64:                                               ; preds = %62
  tail call void @__cxa_throw(ptr nonnull %63, ptr nonnull @_ZTIN11xercesc_2_512DOMExceptionE, ptr nonnull @_ZN11xercesc_2_512DOMExceptionD1Ev) #19
  unreachable

65:                                               ; preds = %62
  %66 = landingpad { ptr, i32 }
          cleanup
  tail call void @__cxa_free_exception(ptr %63) #18
  resume { ptr, i32 } %66

67:                                               ; preds = %42, %59
  %68 = tail call noundef ptr @_ZN11xercesc_2_515DOMDocumentImpl8allocateEmNS0_14NodeObjectTypeE(ptr noundef nonnull align 8 dereferenceable(253) %0, i64 noundef 136, i32 noundef 5)
  tail call void @_ZN11xercesc_2_519DOMDocumentTypeImplC1EPNS_11DOMDocumentEPKtS4_S4_b(ptr noundef nonnull align 8 dereferenceable(130) %68, ptr noundef nonnull %0, ptr noundef nonnull %1, ptr noundef %2, ptr noundef %3, i1 noundef zeroext false)
  ret ptr %68
}

declare void @_ZN11xercesc_2_519DOMDocumentTypeImplC1EPNS_11DOMDocumentEPKtS4_S4_b(ptr noundef nonnull align 8 dereferenceable(130), ptr noundef, ptr noundef, ptr noundef, ptr noundef, i1 noundef zeroext) unnamed_addr #2

; Function Attrs: uwtable
define dso_local noundef ptr @_ZN11xercesc_2_515DOMDocumentImpl13createElementEPKt(ptr noundef nonnull align 8 dereferenceable(253) %0, ptr noundef %1) unnamed_addr #1 align 2 personality ptr @__gxx_personality_v0 {
  %3 = icmp eq ptr %1, null
  br i1 %3, label %60, label %4

4:                                                ; preds = %2
  %5 = getelementptr inbounds %"class.xercesc_2_5::DOMDocumentImpl", ptr %0, i64 0, i32 8
  %6 = load ptr, ptr %5, align 8, !tbaa !955
  %7 = icmp eq ptr %6, null
  br i1 %7, label %12, label %8

8:                                                ; preds = %4
  %9 = load i16, ptr %6, align 2, !tbaa !956
  %10 = load i16, ptr @_ZN11xercesc_2_56XMLUni12fgVersion1_1E, align 2, !tbaa !956
  %11 = icmp eq i16 %9, %10
  br i1 %11, label %15, label %43

12:                                               ; preds = %4
  %13 = load i16, ptr @_ZN11xercesc_2_56XMLUni12fgVersion1_1E, align 2, !tbaa !956
  %14 = icmp eq i16 %13, 0
  br i1 %14, label %26, label %43

15:                                               ; preds = %8, %20
  %16 = phi i16 [ %23, %20 ], [ %9, %8 ]
  %17 = phi ptr [ %22, %20 ], [ @_ZN11xercesc_2_56XMLUni12fgVersion1_1E, %8 ]
  %18 = phi ptr [ %21, %20 ], [ %6, %8 ]
  %19 = icmp eq i16 %16, 0
  br i1 %19, label %26, label %20

20:                                               ; preds = %15
  %21 = getelementptr inbounds i16, ptr %18, i64 1
  %22 = getelementptr inbounds i16, ptr %17, i64 1
  %23 = load i16, ptr %21, align 2, !tbaa !956
  %24 = load i16, ptr %22, align 2, !tbaa !956
  %25 = icmp eq i16 %23, %24
  br i1 %25, label %15, label %43

26:                                               ; preds = %15, %12
  %27 = load i16, ptr %1, align 2, !tbaa !956
  %28 = icmp eq i16 %27, 0
  br i1 %28, label %40, label %29

29:                                               ; preds = %26, %29
  %30 = phi ptr [ %31, %29 ], [ %1, %26 ]
  %31 = getelementptr inbounds i16, ptr %30, i64 1
  %32 = load i16, ptr %31, align 2, !tbaa !956
  %33 = icmp eq i16 %32, 0
  br i1 %33, label %34, label %29

34:                                               ; preds = %29
  %35 = ptrtoint ptr %31 to i64
  %36 = ptrtoint ptr %1 to i64
  %37 = sub i64 %35, %36
  %38 = lshr exact i64 %37, 1
  %39 = trunc i64 %38 to i32
  br label %40

40:                                               ; preds = %34, %26
  %41 = phi i32 [ %39, %34 ], [ 0, %26 ]
  %42 = tail call noundef zeroext i1 @_ZN11xercesc_2_510XMLChar1_111isValidNameEPKtj(ptr noundef nonnull %1, i32 noundef %41)
  br i1 %42, label %65, label %60

43:                                               ; preds = %20, %8, %12
  %44 = load i16, ptr %1, align 2, !tbaa !956
  %45 = icmp eq i16 %44, 0
  br i1 %45, label %57, label %46

46:                                               ; preds = %43, %46
  %47 = phi ptr [ %48, %46 ], [ %1, %43 ]
  %48 = getelementptr inbounds i16, ptr %47, i64 1
  %49 = load i16, ptr %48, align 2, !tbaa !956
  %50 = icmp eq i16 %49, 0
  br i1 %50, label %51, label %46

51:                                               ; preds = %46
  %52 = ptrtoint ptr %48 to i64
  %53 = ptrtoint ptr %1 to i64
  %54 = sub i64 %52, %53
  %55 = lshr exact i64 %54, 1
  %56 = trunc i64 %55 to i32
  br label %57

57:                                               ; preds = %43, %51
  %58 = phi i32 [ %56, %51 ], [ 0, %43 ]
  %59 = tail call noundef zeroext i1 @_ZN11xercesc_2_510XMLChar1_011isValidNameEPKtj(ptr noundef nonnull %1, i32 noundef %58)
  br i1 %59, label %65, label %60

60:                                               ; preds = %40, %57, %2
  %61 = tail call ptr @__cxa_allocate_exception(i64 24) #18
  invoke void @_ZN11xercesc_2_512DOMExceptionC1EsPKt(ptr noundef nonnull align 8 dereferenceable(24) %61, i16 noundef signext 5, ptr noundef null)
          to label %62 unwind label %63

62:                                               ; preds = %60
  tail call void @__cxa_throw(ptr nonnull %61, ptr nonnull @_ZTIN11xercesc_2_512DOMExceptionE, ptr nonnull @_ZN11xercesc_2_512DOMExceptionD1Ev) #19
  unreachable

63:                                               ; preds = %60
  %64 = landingpad { ptr, i32 }
          cleanup
  tail call void @__cxa_free_exception(ptr %61) #18
  resume { ptr, i32 } %64

65:                                               ; preds = %40, %57
  %66 = tail call noundef ptr @_ZN11xercesc_2_515DOMDocumentImpl8allocateEmNS0_14NodeObjectTypeE(ptr noundef nonnull align 8 dereferenceable(253) %0, i64 noundef 104, i32 noundef 6)
  tail call void @_ZN11xercesc_2_514DOMElementImplC1EPNS_11DOMDocumentEPKt(ptr noundef nonnull align 8 dereferenceable(104) %66, ptr noundef nonnull %0, ptr noundef nonnull %1)
  ret ptr %66
}

declare void @_ZN11xercesc_2_514DOMElementImplC1EPNS_11DOMDocumentEPKt(ptr noundef nonnull align 8 dereferenceable(104), ptr noundef, ptr noundef) unnamed_addr #2

; Function Attrs: uwtable
define dso_local noundef ptr @_ZN11xercesc_2_515DOMDocumentImpl20createElementNoCheckEPKt(ptr noundef nonnull align 8 dereferenceable(253) %0, ptr noundef %1) unnamed_addr #1 align 2 {
  %3 = tail call noundef ptr @_ZN11xercesc_2_515DOMDocumentImpl8allocateEmNS0_14NodeObjectTypeE(ptr noundef nonnull align 8 dereferenceable(253) %0, i64 noundef 104, i32 noundef 6)
  tail call void @_ZN11xercesc_2_514DOMElementImplC1EPNS_11DOMDocumentEPKt(ptr noundef nonnull align 8 dereferenceable(104) %3, ptr noundef nonnull %0, ptr noundef %1)
  ret ptr %3
}

; Function Attrs: uwtable
define dso_local noundef ptr @_ZN11xercesc_2_515DOMDocumentImpl12createEntityEPKt(ptr noundef nonnull align 8 dereferenceable(253) %0, ptr noundef %1) unnamed_addr #1 align 2 personality ptr @__gxx_personality_v0 {
  %3 = icmp eq ptr %1, null
  br i1 %3, label %60, label %4

4:                                                ; preds = %2
  %5 = getelementptr inbounds %"class.xercesc_2_5::DOMDocumentImpl", ptr %0, i64 0, i32 8
  %6 = load ptr, ptr %5, align 8, !tbaa !955
  %7 = icmp eq ptr %6, null
  br i1 %7, label %12, label %8

8:                                                ; preds = %4
  %9 = load i16, ptr %6, align 2, !tbaa !956
  %10 = load i16, ptr @_ZN11xercesc_2_56XMLUni12fgVersion1_1E, align 2, !tbaa !956
  %11 = icmp eq i16 %9, %10
  br i1 %11, label %15, label %43

12:                                               ; preds = %4
  %13 = load i16, ptr @_ZN11xercesc_2_56XMLUni12fgVersion1_1E, align 2, !tbaa !956
  %14 = icmp eq i16 %13, 0
  br i1 %14, label %26, label %43

15:                                               ; preds = %8, %20
  %16 = phi i16 [ %23, %20 ], [ %9, %8 ]
  %17 = phi ptr [ %22, %20 ], [ @_ZN11xercesc_2_56XMLUni12fgVersion1_1E, %8 ]
  %18 = phi ptr [ %21, %20 ], [ %6, %8 ]
  %19 = icmp eq i16 %16, 0
  br i1 %19, label %26, label %20

20:                                               ; preds = %15
  %21 = getelementptr inbounds i16, ptr %18, i64 1
  %22 = getelementptr inbounds i16, ptr %17, i64 1
  %23 = load i16, ptr %21, align 2, !tbaa !956
  %24 = load i16, ptr %22, align 2, !tbaa !956
  %25 = icmp eq i16 %23, %24
  br i1 %25, label %15, label %43

26:                                               ; preds = %15, %12
  %27 = load i16, ptr %1, align 2, !tbaa !956
  %28 = icmp eq i16 %27, 0
  br i1 %28, label %40, label %29

29:                                               ; preds = %26, %29
  %30 = phi ptr [ %31, %29 ], [ %1, %26 ]
  %31 = getelementptr inbounds i16, ptr %30, i64 1
  %32 = load i16, ptr %31, align 2, !tbaa !956
  %33 = icmp eq i16 %32, 0
  br i1 %33, label %34, label %29

34:                                               ; preds = %29
  %35 = ptrtoint ptr %31 to i64
  %36 = ptrtoint ptr %1 to i64
  %37 = sub i64 %35, %36
  %38 = lshr exact i64 %37, 1
  %39 = trunc i64 %38 to i32
  br label %40

40:                                               ; preds = %34, %26
  %41 = phi i32 [ %39, %34 ], [ 0, %26 ]
  %42 = tail call noundef zeroext i1 @_ZN11xercesc_2_510XMLChar1_111isValidNameEPKtj(ptr noundef nonnull %1, i32 noundef %41)
  br i1 %42, label %65, label %60

43:                                               ; preds = %20, %8, %12
  %44 = load i16, ptr %1, align 2, !tbaa !956
  %45 = icmp eq i16 %44, 0
  br i1 %45, label %57, label %46

46:                                               ; preds = %43, %46
  %47 = phi ptr [ %48, %46 ], [ %1, %43 ]
  %48 = getelementptr inbounds i16, ptr %47, i64 1
  %49 = load i16, ptr %48, align 2, !tbaa !956
  %50 = icmp eq i16 %49, 0
  br i1 %50, label %51, label %46

51:                                               ; preds = %46
  %52 = ptrtoint ptr %48 to i64
  %53 = ptrtoint ptr %1 to i64
  %54 = sub i64 %52, %53
  %55 = lshr exact i64 %54, 1
  %56 = trunc i64 %55 to i32
  br label %57

57:                                               ; preds = %43, %51
  %58 = phi i32 [ %56, %51 ], [ 0, %43 ]
  %59 = tail call noundef zeroext i1 @_ZN11xercesc_2_510XMLChar1_011isValidNameEPKtj(ptr noundef nonnull %1, i32 noundef %58)
  br i1 %59, label %65, label %60

60:                                               ; preds = %40, %57, %2
  %61 = tail call ptr @__cxa_allocate_exception(i64 24) #18
  invoke void @_ZN11xercesc_2_512DOMExceptionC1EsPKt(ptr noundef nonnull align 8 dereferenceable(24) %61, i16 noundef signext 5, ptr noundef null)
          to label %62 unwind label %63

62:                                               ; preds = %60
  tail call void @__cxa_throw(ptr nonnull %61, ptr nonnull @_ZTIN11xercesc_2_512DOMExceptionE, ptr nonnull @_ZN11xercesc_2_512DOMExceptionD1Ev) #19
  unreachable

63:                                               ; preds = %60
  %64 = landingpad { ptr, i32 }
          cleanup
  tail call void @__cxa_free_exception(ptr %61) #18
  resume { ptr, i32 } %64

65:                                               ; preds = %40, %57
  %66 = tail call noundef ptr @_ZN11xercesc_2_515DOMDocumentImpl8allocateEmNS0_14NodeObjectTypeE(ptr noundef nonnull align 8 dereferenceable(253) %0, i64 noundef 136, i32 noundef 8)
  tail call void @_ZN11xercesc_2_513DOMEntityImplC1EPNS_11DOMDocumentEPKt(ptr noundef nonnull align 8 dereferenceable(129) %66, ptr noundef nonnull %0, ptr noundef nonnull %1)
  ret ptr %66
}

declare void @_ZN11xercesc_2_513DOMEntityImplC1EPNS_11DOMDocumentEPKt(ptr noundef nonnull align 8 dereferenceable(129), ptr noundef, ptr noundef) unnamed_addr #2

; Function Attrs: uwtable
define dso_local noundef ptr @_ZN11xercesc_2_515DOMDocumentImpl21createEntityReferenceEPKt(ptr noundef nonnull align 8 dereferenceable(253) %0, ptr noundef %1) unnamed_addr #1 align 2 personality ptr @__gxx_personality_v0 {
  %3 = icmp eq ptr %1, null
  br i1 %3, label %60, label %4

4:                                                ; preds = %2
  %5 = getelementptr inbounds %"class.xercesc_2_5::DOMDocumentImpl", ptr %0, i64 0, i32 8
  %6 = load ptr, ptr %5, align 8, !tbaa !955
  %7 = icmp eq ptr %6, null
  br i1 %7, label %12, label %8

8:                                                ; preds = %4
  %9 = load i16, ptr %6, align 2, !tbaa !956
  %10 = load i16, ptr @_ZN11xercesc_2_56XMLUni12fgVersion1_1E, align 2, !tbaa !956
  %11 = icmp eq i16 %9, %10
  br i1 %11, label %15, label %43

12:                                               ; preds = %4
  %13 = load i16, ptr @_ZN11xercesc_2_56XMLUni12fgVersion1_1E, align 2, !tbaa !956
  %14 = icmp eq i16 %13, 0
  br i1 %14, label %26, label %43

15:                                               ; preds = %8, %20
  %16 = phi i16 [ %23, %20 ], [ %9, %8 ]
  %17 = phi ptr [ %22, %20 ], [ @_ZN11xercesc_2_56XMLUni12fgVersion1_1E, %8 ]
  %18 = phi ptr [ %21, %20 ], [ %6, %8 ]
  %19 = icmp eq i16 %16, 0
  br i1 %19, label %26, label %20

20:                                               ; preds = %15
  %21 = getelementptr inbounds i16, ptr %18, i64 1
  %22 = getelementptr inbounds i16, ptr %17, i64 1
  %23 = load i16, ptr %21, align 2, !tbaa !956
  %24 = load i16, ptr %22, align 2, !tbaa !956
  %25 = icmp eq i16 %23, %24
  br i1 %25, label %15, label %43

26:                                               ; preds = %15, %12
  %27 = load i16, ptr %1, align 2, !tbaa !956
  %28 = icmp eq i16 %27, 0
  br i1 %28, label %40, label %29

29:                                               ; preds = %26, %29
  %30 = phi ptr [ %31, %29 ], [ %1, %26 ]
  %31 = getelementptr inbounds i16, ptr %30, i64 1
  %32 = load i16, ptr %31, align 2, !tbaa !956
  %33 = icmp eq i16 %32, 0
  br i1 %33, label %34, label %29

34:                                               ; preds = %29
  %35 = ptrtoint ptr %31 to i64
  %36 = ptrtoint ptr %1 to i64
  %37 = sub i64 %35, %36
  %38 = lshr exact i64 %37, 1
  %39 = trunc i64 %38 to i32
  br label %40

40:                                               ; preds = %34, %26
  %41 = phi i32 [ %39, %34 ], [ 0, %26 ]
  %42 = tail call noundef zeroext i1 @_ZN11xercesc_2_510XMLChar1_111isValidNameEPKtj(ptr noundef nonnull %1, i32 noundef %41)
  br i1 %42, label %65, label %60

43:                                               ; preds = %20, %8, %12
  %44 = load i16, ptr %1, align 2, !tbaa !956
  %45 = icmp eq i16 %44, 0
  br i1 %45, label %57, label %46

46:                                               ; preds = %43, %46
  %47 = phi ptr [ %48, %46 ], [ %1, %43 ]
  %48 = getelementptr inbounds i16, ptr %47, i64 1
  %49 = load i16, ptr %48, align 2, !tbaa !956
  %50 = icmp eq i16 %49, 0
  br i1 %50, label %51, label %46

51:                                               ; preds = %46
  %52 = ptrtoint ptr %48 to i64
  %53 = ptrtoint ptr %1 to i64
  %54 = sub i64 %52, %53
  %55 = lshr exact i64 %54, 1
  %56 = trunc i64 %55 to i32
  br label %57

57:                                               ; preds = %43, %51
  %58 = phi i32 [ %56, %51 ], [ 0, %43 ]
  %59 = tail call noundef zeroext i1 @_ZN11xercesc_2_510XMLChar1_011isValidNameEPKtj(ptr noundef nonnull %1, i32 noundef %58)
  br i1 %59, label %65, label %60

60:                                               ; preds = %40, %57, %2
  %61 = tail call ptr @__cxa_allocate_exception(i64 24) #18
  invoke void @_ZN11xercesc_2_512DOMExceptionC1EsPKt(ptr noundef nonnull align 8 dereferenceable(24) %61, i16 noundef signext 5, ptr noundef null)
          to label %62 unwind label %63

62:                                               ; preds = %60
  tail call void @__cxa_throw(ptr nonnull %61, ptr nonnull @_ZTIN11xercesc_2_512DOMExceptionE, ptr nonnull @_ZN11xercesc_2_512DOMExceptionD1Ev) #19
  unreachable

63:                                               ; preds = %60
  %64 = landingpad { ptr, i32 }
          cleanup
  tail call void @__cxa_free_exception(ptr %61) #18
  resume { ptr, i32 } %64

65:                                               ; preds = %40, %57
  %66 = tail call noundef ptr @_ZN11xercesc_2_515DOMDocumentImpl8allocateEmNS0_14NodeObjectTypeE(ptr noundef nonnull align 8 dereferenceable(253) %0, i64 noundef 88, i32 noundef 9)
  tail call void @_ZN11xercesc_2_522DOMEntityReferenceImplC1EPNS_11DOMDocumentEPKt(ptr noundef nonnull align 8 dereferenceable(88) %66, ptr noundef nonnull %0, ptr noundef nonnull %1)
  ret ptr %66
}

declare void @_ZN11xercesc_2_522DOMEntityReferenceImplC1EPNS_11DOMDocumentEPKt(ptr noundef nonnull align 8 dereferenceable(88), ptr noundef, ptr noundef) unnamed_addr #2

; Function Attrs: uwtable
define dso_local noundef ptr @_ZN11xercesc_2_515DOMDocumentImpl29createEntityReferenceByParserEPKt(ptr noundef nonnull align 8 dereferenceable(253) %0, ptr noundef %1) local_unnamed_addr #1 align 2 personality ptr @__gxx_personality_v0 {
  %3 = icmp eq ptr %1, null
  br i1 %3, label %60, label %4

4:                                                ; preds = %2
  %5 = getelementptr inbounds %"class.xercesc_2_5::DOMDocumentImpl", ptr %0, i64 0, i32 8
  %6 = load ptr, ptr %5, align 8, !tbaa !955
  %7 = icmp eq ptr %6, null
  br i1 %7, label %12, label %8

8:                                                ; preds = %4
  %9 = load i16, ptr %6, align 2, !tbaa !956
  %10 = load i16, ptr @_ZN11xercesc_2_56XMLUni12fgVersion1_1E, align 2, !tbaa !956
  %11 = icmp eq i16 %9, %10
  br i1 %11, label %15, label %43

12:                                               ; preds = %4
  %13 = load i16, ptr @_ZN11xercesc_2_56XMLUni12fgVersion1_1E, align 2, !tbaa !956
  %14 = icmp eq i16 %13, 0
  br i1 %14, label %26, label %43

15:                                               ; preds = %8, %20
  %16 = phi i16 [ %23, %20 ], [ %9, %8 ]
  %17 = phi ptr [ %22, %20 ], [ @_ZN11xercesc_2_56XMLUni12fgVersion1_1E, %8 ]
  %18 = phi ptr [ %21, %20 ], [ %6, %8 ]
  %19 = icmp eq i16 %16, 0
  br i1 %19, label %26, label %20

20:                                               ; preds = %15
  %21 = getelementptr inbounds i16, ptr %18, i64 1
  %22 = getelementptr inbounds i16, ptr %17, i64 1
  %23 = load i16, ptr %21, align 2, !tbaa !956
  %24 = load i16, ptr %22, align 2, !tbaa !956
  %25 = icmp eq i16 %23, %24
  br i1 %25, label %15, label %43

26:                                               ; preds = %15, %12
  %27 = load i16, ptr %1, align 2, !tbaa !956
  %28 = icmp eq i16 %27, 0
  br i1 %28, label %40, label %29

29:                                               ; preds = %26, %29
  %30 = phi ptr [ %31, %29 ], [ %1, %26 ]
  %31 = getelementptr inbounds i16, ptr %30, i64 1
  %32 = load i16, ptr %31, align 2, !tbaa !956
  %33 = icmp eq i16 %32, 0
  br i1 %33, label %34, label %29

34:                                               ; preds = %29
  %35 = ptrtoint ptr %31 to i64
  %36 = ptrtoint ptr %1 to i64
  %37 = sub i64 %35, %36
  %38 = lshr exact i64 %37, 1
  %39 = trunc i64 %38 to i32
  br label %40

40:                                               ; preds = %34, %26
  %41 = phi i32 [ %39, %34 ], [ 0, %26 ]
  %42 = tail call noundef zeroext i1 @_ZN11xercesc_2_510XMLChar1_111isValidNameEPKtj(ptr noundef nonnull %1, i32 noundef %41)
  br i1 %42, label %65, label %60

43:                                               ; preds = %20, %8, %12
  %44 = load i16, ptr %1, align 2, !tbaa !956
  %45 = icmp eq i16 %44, 0
  br i1 %45, label %57, label %46

46:                                               ; preds = %43, %46
  %47 = phi ptr [ %48, %46 ], [ %1, %43 ]
  %48 = getelementptr inbounds i16, ptr %47, i64 1
  %49 = load i16, ptr %48, align 2, !tbaa !956
  %50 = icmp eq i16 %49, 0
  br i1 %50, label %51, label %46

51:                                               ; preds = %46
  %52 = ptrtoint ptr %48 to i64
  %53 = ptrtoint ptr %1 to i64
  %54 = sub i64 %52, %53
  %55 = lshr exact i64 %54, 1
  %56 = trunc i64 %55 to i32
  br label %57

57:                                               ; preds = %43, %51
  %58 = phi i32 [ %56, %51 ], [ 0, %43 ]
  %59 = tail call noundef zeroext i1 @_ZN11xercesc_2_510XMLChar1_011isValidNameEPKtj(ptr noundef nonnull %1, i32 noundef %58)
  br i1 %59, label %65, label %60

60:                                               ; preds = %40, %57, %2
  %61 = tail call ptr @__cxa_allocate_exception(i64 24) #18
  invoke void @_ZN11xercesc_2_512DOMExceptionC1EsPKt(ptr noundef nonnull align 8 dereferenceable(24) %61, i16 noundef signext 5, ptr noundef null)
          to label %62 unwind label %63

62:                                               ; preds = %60
  tail call void @__cxa_throw(ptr nonnull %61, ptr nonnull @_ZTIN11xercesc_2_512DOMExceptionE, ptr nonnull @_ZN11xercesc_2_512DOMExceptionD1Ev) #19
  unreachable

63:                                               ; preds = %60
  %64 = landingpad { ptr, i32 }
          cleanup
  tail call void @__cxa_free_exception(ptr %61) #18
  resume { ptr, i32 } %64

65:                                               ; preds = %40, %57
  %66 = tail call noundef ptr @_ZN11xercesc_2_515DOMDocumentImpl8allocateEmNS0_14NodeObjectTypeE(ptr noundef nonnull align 8 dereferenceable(253) %0, i64 noundef 88, i32 noundef 9)
  tail call void @_ZN11xercesc_2_522DOMEntityReferenceImplC1EPNS_11DOMDocumentEPKtb(ptr noundef nonnull align 8 dereferenceable(88) %66, ptr noundef nonnull %0, ptr noundef nonnull %1, i1 noundef zeroext false)
  ret ptr %66
}

declare void @_ZN11xercesc_2_522DOMEntityReferenceImplC1EPNS_11DOMDocumentEPKtb(ptr noundef nonnull align 8 dereferenceable(88), ptr noundef, ptr noundef, i1 noundef zeroext) unnamed_addr #2

; Function Attrs: uwtable
define dso_local noundef ptr @_ZN11xercesc_2_515DOMDocumentImpl14createNotationEPKt(ptr noundef nonnull align 8 dereferenceable(253) %0, ptr noundef %1) unnamed_addr #1 align 2 personality ptr @__gxx_personality_v0 {
  %3 = icmp eq ptr %1, null
  br i1 %3, label %60, label %4

4:                                                ; preds = %2
  %5 = getelementptr inbounds %"class.xercesc_2_5::DOMDocumentImpl", ptr %0, i64 0, i32 8
  %6 = load ptr, ptr %5, align 8, !tbaa !955
  %7 = icmp eq ptr %6, null
  br i1 %7, label %12, label %8

8:                                                ; preds = %4
  %9 = load i16, ptr %6, align 2, !tbaa !956
  %10 = load i16, ptr @_ZN11xercesc_2_56XMLUni12fgVersion1_1E, align 2, !tbaa !956
  %11 = icmp eq i16 %9, %10
  br i1 %11, label %15, label %43

12:                                               ; preds = %4
  %13 = load i16, ptr @_ZN11xercesc_2_56XMLUni12fgVersion1_1E, align 2, !tbaa !956
  %14 = icmp eq i16 %13, 0
  br i1 %14, label %26, label %43

15:                                               ; preds = %8, %20
  %16 = phi i16 [ %23, %20 ], [ %9, %8 ]
  %17 = phi ptr [ %22, %20 ], [ @_ZN11xercesc_2_56XMLUni12fgVersion1_1E, %8 ]
  %18 = phi ptr [ %21, %20 ], [ %6, %8 ]
  %19 = icmp eq i16 %16, 0
  br i1 %19, label %26, label %20

20:                                               ; preds = %15
  %21 = getelementptr inbounds i16, ptr %18, i64 1
  %22 = getelementptr inbounds i16, ptr %17, i64 1
  %23 = load i16, ptr %21, align 2, !tbaa !956
  %24 = load i16, ptr %22, align 2, !tbaa !956
  %25 = icmp eq i16 %23, %24
  br i1 %25, label %15, label %43

26:                                               ; preds = %15, %12
  %27 = load i16, ptr %1, align 2, !tbaa !956
  %28 = icmp eq i16 %27, 0
  br i1 %28, label %40, label %29

29:                                               ; preds = %26, %29
  %30 = phi ptr [ %31, %29 ], [ %1, %26 ]
  %31 = getelementptr inbounds i16, ptr %30, i64 1
  %32 = load i16, ptr %31, align 2, !tbaa !956
  %33 = icmp eq i16 %32, 0
  br i1 %33, label %34, label %29

34:                                               ; preds = %29
  %35 = ptrtoint ptr %31 to i64
  %36 = ptrtoint ptr %1 to i64
  %37 = sub i64 %35, %36
  %38 = lshr exact i64 %37, 1
  %39 = trunc i64 %38 to i32
  br label %40

40:                                               ; preds = %34, %26
  %41 = phi i32 [ %39, %34 ], [ 0, %26 ]
  %42 = tail call noundef zeroext i1 @_ZN11xercesc_2_510XMLChar1_111isValidNameEPKtj(ptr noundef nonnull %1, i32 noundef %41)
  br i1 %42, label %65, label %60

43:                                               ; preds = %20, %8, %12
  %44 = load i16, ptr %1, align 2, !tbaa !956
  %45 = icmp eq i16 %44, 0
  br i1 %45, label %57, label %46

46:                                               ; preds = %43, %46
  %47 = phi ptr [ %48, %46 ], [ %1, %43 ]
  %48 = getelementptr inbounds i16, ptr %47, i64 1
  %49 = load i16, ptr %48, align 2, !tbaa !956
  %50 = icmp eq i16 %49, 0
  br i1 %50, label %51, label %46

51:                                               ; preds = %46
  %52 = ptrtoint ptr %48 to i64
  %53 = ptrtoint ptr %1 to i64
  %54 = sub i64 %52, %53
  %55 = lshr exact i64 %54, 1
  %56 = trunc i64 %55 to i32
  br label %57

57:                                               ; preds = %43, %51
  %58 = phi i32 [ %56, %51 ], [ 0, %43 ]
  %59 = tail call noundef zeroext i1 @_ZN11xercesc_2_510XMLChar1_011isValidNameEPKtj(ptr noundef nonnull %1, i32 noundef %58)
  br i1 %59, label %65, label %60

60:                                               ; preds = %40, %57, %2
  %61 = tail call ptr @__cxa_allocate_exception(i64 24) #18
  invoke void @_ZN11xercesc_2_512DOMExceptionC1EsPKt(ptr noundef nonnull align 8 dereferenceable(24) %61, i16 noundef signext 5, ptr noundef null)
          to label %62 unwind label %63

62:                                               ; preds = %60
  tail call void @__cxa_throw(ptr nonnull %61, ptr nonnull @_ZTIN11xercesc_2_512DOMExceptionE, ptr nonnull @_ZN11xercesc_2_512DOMExceptionD1Ev) #19
  unreachable

63:                                               ; preds = %60
  %64 = landingpad { ptr, i32 }
          cleanup
  tail call void @__cxa_free_exception(ptr %61) #18
  resume { ptr, i32 } %64

65:                                               ; preds = %40, %57
  %66 = tail call noundef ptr @_ZN11xercesc_2_515DOMDocumentImpl8allocateEmNS0_14NodeObjectTypeE(ptr noundef nonnull align 8 dereferenceable(253) %0, i64 noundef 56, i32 noundef 10)
  tail call void @_ZN11xercesc_2_515DOMNotationImplC1EPNS_11DOMDocumentEPKt(ptr noundef nonnull align 8 dereferenceable(56) %66, ptr noundef nonnull %0, ptr noundef nonnull %1)
  ret ptr %66
}

declare void @_ZN11xercesc_2_515DOMNotationImplC1EPNS_11DOMDocumentEPKt(ptr noundef nonnull align 8 dereferenceable(56), ptr noundef, ptr noundef) unnamed_addr #2

; Function Attrs: uwtable
define dso_local noundef ptr @_ZN11xercesc_2_515DOMDocumentImpl27createProcessingInstructionEPKtS2_(ptr noundef nonnull align 8 dereferenceable(253) %0, ptr noundef %1, ptr noundef %2) unnamed_addr #1 align 2 personality ptr @__gxx_personality_v0 {
  %4 = icmp eq ptr %1, null
  br i1 %4, label %61, label %5

5:                                                ; preds = %3
  %6 = getelementptr inbounds %"class.xercesc_2_5::DOMDocumentImpl", ptr %0, i64 0, i32 8
  %7 = load ptr, ptr %6, align 8, !tbaa !955
  %8 = icmp eq ptr %7, null
  br i1 %8, label %13, label %9

9:                                                ; preds = %5
  %10 = load i16, ptr %7, align 2, !tbaa !956
  %11 = load i16, ptr @_ZN11xercesc_2_56XMLUni12fgVersion1_1E, align 2, !tbaa !956
  %12 = icmp eq i16 %10, %11
  br i1 %12, label %16, label %44

13:                                               ; preds = %5
  %14 = load i16, ptr @_ZN11xercesc_2_56XMLUni12fgVersion1_1E, align 2, !tbaa !956
  %15 = icmp eq i16 %14, 0
  br i1 %15, label %27, label %44

16:                                               ; preds = %9, %21
  %17 = phi i16 [ %24, %21 ], [ %10, %9 ]
  %18 = phi ptr [ %23, %21 ], [ @_ZN11xercesc_2_56XMLUni12fgVersion1_1E, %9 ]
  %19 = phi ptr [ %22, %21 ], [ %7, %9 ]
  %20 = icmp eq i16 %17, 0
  br i1 %20, label %27, label %21

21:                                               ; preds = %16
  %22 = getelementptr inbounds i16, ptr %19, i64 1
  %23 = getelementptr inbounds i16, ptr %18, i64 1
  %24 = load i16, ptr %22, align 2, !tbaa !956
  %25 = load i16, ptr %23, align 2, !tbaa !956
  %26 = icmp eq i16 %24, %25
  br i1 %26, label %16, label %44

27:                                               ; preds = %16, %13
  %28 = load i16, ptr %1, align 2, !tbaa !956
  %29 = icmp eq i16 %28, 0
  br i1 %29, label %41, label %30

30:                                               ; preds = %27, %30
  %31 = phi ptr [ %32, %30 ], [ %1, %27 ]
  %32 = getelementptr inbounds i16, ptr %31, i64 1
  %33 = load i16, ptr %32, align 2, !tbaa !956
  %34 = icmp eq i16 %33, 0
  br i1 %34, label %35, label %30

35:                                               ; preds = %30
  %36 = ptrtoint ptr %32 to i64
  %37 = ptrtoint ptr %1 to i64
  %38 = sub i64 %36, %37
  %39 = lshr exact i64 %38, 1
  %40 = trunc i64 %39 to i32
  br label %41

41:                                               ; preds = %35, %27
  %42 = phi i32 [ %40, %35 ], [ 0, %27 ]
  %43 = tail call noundef zeroext i1 @_ZN11xercesc_2_510XMLChar1_111isValidNameEPKtj(ptr noundef nonnull %1, i32 noundef %42)
  br i1 %43, label %66, label %61

44:                                               ; preds = %21, %9, %13
  %45 = load i16, ptr %1, align 2, !tbaa !956
  %46 = icmp eq i16 %45, 0
  br i1 %46, label %58, label %47

47:                                               ; preds = %44, %47
  %48 = phi ptr [ %49, %47 ], [ %1, %44 ]
  %49 = getelementptr inbounds i16, ptr %48, i64 1
  %50 = load i16, ptr %49, align 2, !tbaa !956
  %51 = icmp eq i16 %50, 0
  br i1 %51, label %52, label %47

52:                                               ; preds = %47
  %53 = ptrtoint ptr %49 to i64
  %54 = ptrtoint ptr %1 to i64
  %55 = sub i64 %53, %54
  %56 = lshr exact i64 %55, 1
  %57 = trunc i64 %56 to i32
  br label %58

58:                                               ; preds = %44, %52
  %59 = phi i32 [ %57, %52 ], [ 0, %44 ]
  %60 = tail call noundef zeroext i1 @_ZN11xercesc_2_510XMLChar1_011isValidNameEPKtj(ptr noundef nonnull %1, i32 noundef %59)
  br i1 %60, label %66, label %61

61:                                               ; preds = %41, %58, %3
  %62 = tail call ptr @__cxa_allocate_exception(i64 24) #18
  invoke void @_ZN11xercesc_2_512DOMExceptionC1EsPKt(ptr noundef nonnull align 8 dereferenceable(24) %62, i16 noundef signext 5, ptr noundef null)
          to label %63 unwind label %64

63:                                               ; preds = %61
  tail call void @__cxa_throw(ptr nonnull %62, ptr nonnull @_ZTIN11xercesc_2_512DOMExceptionE, ptr nonnull @_ZN11xercesc_2_512DOMExceptionD1Ev) #19
  unreachable

64:                                               ; preds = %61
  %65 = landingpad { ptr, i32 }
          cleanup
  tail call void @__cxa_free_exception(ptr %62) #18
  resume { ptr, i32 } %65

66:                                               ; preds = %41, %58
  %67 = tail call noundef ptr @_ZN11xercesc_2_515DOMDocumentImpl8allocateEmNS0_14NodeObjectTypeE(ptr noundef nonnull align 8 dereferenceable(253) %0, i64 noundef 72, i32 noundef 11)
  tail call void @_ZN11xercesc_2_528DOMProcessingInstructionImplC1EPNS_11DOMDocumentEPKtS4_(ptr noundef nonnull align 8 dereferenceable(72) %67, ptr noundef nonnull %0, ptr noundef nonnull %1, ptr noundef %2)
  ret ptr %67
}

declare void @_ZN11xercesc_2_528DOMProcessingInstructionImplC1EPNS_11DOMDocumentEPKtS4_(ptr noundef nonnull align 8 dereferenceable(72), ptr noundef, ptr noundef, ptr noundef) unnamed_addr #2

; Function Attrs: uwtable
define dso_local noundef ptr @_ZN11xercesc_2_515DOMDocumentImpl14createTextNodeEPKt(ptr noundef nonnull align 8 dereferenceable(253) %0, ptr noundef %1) unnamed_addr #1 align 2 {
  %3 = tail call noundef ptr @_ZN11xercesc_2_515DOMDocumentImpl8allocateEmNS0_14NodeObjectTypeE(ptr noundef nonnull align 8 dereferenceable(253) %0, i64 noundef 56, i32 noundef 12)
  tail call void @_ZN11xercesc_2_511DOMTextImplC1EPNS_11DOMDocumentEPKt(ptr noundef nonnull align 8 dereferenceable(56) %3, ptr noundef nonnull %0, ptr noundef %1)
  ret ptr %3
}

declare void @_ZN11xercesc_2_511DOMTextImplC1EPNS_11DOMDocumentEPKt(ptr noundef nonnull align 8 dereferenceable(56), ptr noundef, ptr noundef) unnamed_addr #2

; Function Attrs: uwtable
define dso_local noundef ptr @_ZN11xercesc_2_515DOMDocumentImpl18createNodeIteratorEPNS_7DOMNodeEmPNS_13DOMNodeFilterEb(ptr noundef nonnull align 8 dereferenceable(253) %0, ptr noundef %1, i64 noundef %2, ptr noundef %3, i1 noundef zeroext %4) unnamed_addr #1 align 2 personality ptr @__gxx_personality_v0 {
  %6 = icmp eq ptr %1, null
  br i1 %6, label %7, label %12

7:                                                ; preds = %5
  %8 = tail call ptr @__cxa_allocate_exception(i64 24) #18
  invoke void @_ZN11xercesc_2_512DOMExceptionC1EsPKt(ptr noundef nonnull align 8 dereferenceable(24) %8, i16 noundef signext 9, ptr noundef null)
          to label %9 unwind label %10

9:                                                ; preds = %7
  tail call void @__cxa_throw(ptr nonnull %8, ptr nonnull @_ZTIN11xercesc_2_512DOMExceptionE, ptr nonnull @_ZN11xercesc_2_512DOMExceptionD1Ev) #19
  unreachable

10:                                               ; preds = %7
  %11 = landingpad { ptr, i32 }
          cleanup
  tail call void @__cxa_free_exception(ptr %8) #18
  br label %116

12:                                               ; preds = %5
  %13 = getelementptr inbounds %"class.xercesc_2_5::DOMDocumentImpl", ptr %0, i64 0, i32 14
  %14 = load i64, ptr %13, align 8, !tbaa !913
  %15 = icmp ult i64 %14, 64
  br i1 %15, label %20, label %16

16:                                               ; preds = %12
  %17 = getelementptr inbounds %"class.xercesc_2_5::DOMDocumentImpl", ptr %0, i64 0, i32 13
  %18 = load ptr, ptr %17, align 8, !tbaa !912
  %19 = add i64 %14, -64
  br label %30

20:                                               ; preds = %12
  %21 = getelementptr inbounds %"class.xercesc_2_5::DOMDocumentImpl", ptr %0, i64 0, i32 24
  %22 = load ptr, ptr %21, align 8, !tbaa !891
  %23 = load ptr, ptr %22, align 8, !tbaa !888
  %24 = getelementptr inbounds ptr, ptr %23, i64 2
  %25 = load ptr, ptr %24, align 8
  %26 = tail call noundef ptr %25(ptr noundef nonnull align 8 dereferenceable(8) %22, i64 noundef 65536)
  %27 = getelementptr inbounds %"class.xercesc_2_5::DOMDocumentImpl", ptr %0, i64 0, i32 12
  %28 = load ptr, ptr %27, align 8, !tbaa !910
  store ptr %28, ptr %26, align 8, !tbaa !911
  store ptr %26, ptr %27, align 8, !tbaa !910
  %29 = getelementptr inbounds i8, ptr %26, i64 8
  br label %30

30:                                               ; preds = %16, %20
  %31 = phi i64 [ %19, %16 ], [ 65464, %20 ]
  %32 = phi ptr [ %18, %16 ], [ %29, %20 ]
  %33 = getelementptr inbounds %"class.xercesc_2_5::DOMDocumentImpl", ptr %0, i64 0, i32 13
  %34 = getelementptr inbounds i8, ptr %32, i64 64
  store ptr %34, ptr %33, align 8, !tbaa !912
  store i64 %31, ptr %13, align 8, !tbaa !913
  tail call void @_ZN11xercesc_2_519DOMNodeIteratorImplC1EPNS_11DOMDocumentEPNS_7DOMNodeEmPNS_13DOMNodeFilterEb(ptr noundef nonnull align 8 dereferenceable(57) %32, ptr noundef nonnull %0, ptr noundef nonnull %1, i64 noundef %2, ptr noundef %3, i1 noundef zeroext %4)
  %35 = getelementptr inbounds %"class.xercesc_2_5::DOMDocumentImpl", ptr %0, i64 0, i32 23
  %36 = load ptr, ptr %35, align 8, !tbaa !917
  %37 = icmp eq ptr %36, null
  br i1 %37, label %38, label %55

38:                                               ; preds = %30
  %39 = getelementptr inbounds %"class.xercesc_2_5::DOMDocumentImpl", ptr %0, i64 0, i32 24
  %40 = load ptr, ptr %39, align 8, !tbaa !891
  %41 = tail call noundef ptr @_ZN11xercesc_2_57XMemorynwEmPNS_13MemoryManagerE(i64 noundef 40, ptr noundef %40)
  %42 = load ptr, ptr %39, align 8, !tbaa !891
  store ptr getelementptr inbounds ({ [9 x ptr] }, ptr @_ZTVN11xercesc_2_515BaseRefVectorOfINS_19DOMNodeIteratorImplEEE, i64 0, inrange i32 0, i64 2), ptr %41, align 8, !tbaa !888
  %43 = getelementptr inbounds %"class.xercesc_2_5::BaseRefVectorOf.1", ptr %41, i64 0, i32 1
  store i8 0, ptr %43, align 8, !tbaa !957
  %44 = getelementptr inbounds %"class.xercesc_2_5::BaseRefVectorOf.1", ptr %41, i64 0, i32 2
  store i32 0, ptr %44, align 4, !tbaa !959
  %45 = getelementptr inbounds %"class.xercesc_2_5::BaseRefVectorOf.1", ptr %41, i64 0, i32 3
  store i32 1, ptr %45, align 8, !tbaa !960
  %46 = getelementptr inbounds %"class.xercesc_2_5::BaseRefVectorOf.1", ptr %41, i64 0, i32 4
  store ptr null, ptr %46, align 8, !tbaa !961
  %47 = getelementptr inbounds %"class.xercesc_2_5::BaseRefVectorOf.1", ptr %41, i64 0, i32 5
  store ptr %42, ptr %47, align 8, !tbaa !962
  %48 = load ptr, ptr %42, align 8, !tbaa !888
  %49 = getelementptr inbounds ptr, ptr %48, i64 2
  %50 = load ptr, ptr %49, align 8
  %51 = invoke noundef ptr %50(ptr noundef nonnull align 8 dereferenceable(8) %42, i64 noundef 8)
          to label %52 unwind label %53

52:                                               ; preds = %38
  store ptr %51, ptr %46, align 8, !tbaa !961
  store ptr null, ptr %51, align 8, !tbaa !911
  store ptr getelementptr inbounds ({ [9 x ptr] }, ptr @_ZTVN11xercesc_2_511RefVectorOfINS_19DOMNodeIteratorImplEEE, i64 0, inrange i32 0, i64 2), ptr %41, align 8, !tbaa !888
  store ptr %41, ptr %35, align 8, !tbaa !917
  br label %55

53:                                               ; preds = %38
  %54 = landingpad { ptr, i32 }
          cleanup
  invoke void @_ZN11xercesc_2_57XMemorydlEPvPNS_13MemoryManagerE(ptr noundef nonnull %41, ptr noundef %40)
          to label %116 unwind label %118

55:                                               ; preds = %52, %30
  %56 = phi ptr [ %41, %52 ], [ %36, %30 ]
  %57 = getelementptr inbounds %"class.xercesc_2_5::BaseRefVectorOf.1", ptr %56, i64 0, i32 2
  %58 = load i32, ptr %57, align 4, !tbaa !959
  %59 = add i32 %58, 1
  %60 = getelementptr inbounds %"class.xercesc_2_5::BaseRefVectorOf.1", ptr %56, i64 0, i32 3
  %61 = load i32, ptr %60, align 8, !tbaa !960
  %62 = icmp ult i32 %59, %61
  br i1 %62, label %63, label %66

63:                                               ; preds = %55
  %64 = getelementptr inbounds %"class.xercesc_2_5::BaseRefVectorOf.1", ptr %56, i64 0, i32 4
  %65 = load ptr, ptr %64, align 8, !tbaa !961
  br label %110

66:                                               ; preds = %55
  %67 = add i32 %61, 32
  %68 = tail call i32 @llvm.umax.i32(i32 %59, i32 %67)
  %69 = getelementptr inbounds %"class.xercesc_2_5::BaseRefVectorOf.1", ptr %56, i64 0, i32 5
  %70 = load ptr, ptr %69, align 8, !tbaa !962
  %71 = zext i32 %68 to i64
  %72 = shl nuw nsw i64 %71, 3
  %73 = load ptr, ptr %70, align 8, !tbaa !888
  %74 = getelementptr inbounds ptr, ptr %73, i64 2
  %75 = load ptr, ptr %74, align 8
  %76 = tail call noundef ptr %75(ptr noundef nonnull align 8 dereferenceable(8) %70, i64 noundef %72)
  %77 = load i32, ptr %57, align 4, !tbaa !959
  %78 = icmp eq i32 %77, 0
  br i1 %78, label %82, label %79

79:                                               ; preds = %66
  %80 = getelementptr inbounds %"class.xercesc_2_5::BaseRefVectorOf.1", ptr %56, i64 0, i32 4
  %81 = zext i32 %77 to i64
  br label %93

82:                                               ; preds = %93, %66
  %83 = icmp ult i32 %77, %68
  br i1 %83, label %84, label %101

84:                                               ; preds = %82
  %85 = zext i32 %77 to i64
  %86 = shl nuw nsw i64 %85, 3
  %87 = getelementptr i8, ptr %76, i64 %86
  %88 = xor i32 %77, -1
  %89 = add i32 %68, %88
  %90 = zext i32 %89 to i64
  %91 = shl nuw nsw i64 %90, 3
  %92 = add nuw nsw i64 %91, 8
  tail call void @llvm.memset.p0.i64(ptr noundef nonnull align 8 dereferenceable(1) %87, i8 0, i64 %92, i1 false), !tbaa !911
  br label %101

93:                                               ; preds = %93, %79
  %94 = phi i64 [ 0, %79 ], [ %99, %93 ]
  %95 = load ptr, ptr %80, align 8, !tbaa !961
  %96 = getelementptr inbounds ptr, ptr %95, i64 %94
  %97 = load ptr, ptr %96, align 8, !tbaa !911
  %98 = getelementptr inbounds ptr, ptr %76, i64 %94
  store ptr %97, ptr %98, align 8, !tbaa !911
  %99 = add nuw nsw i64 %94, 1
  %100 = icmp eq i64 %99, %81
  br i1 %100, label %82, label %93

101:                                              ; preds = %84, %82
  %102 = load ptr, ptr %69, align 8, !tbaa !962
  %103 = getelementptr inbounds %"class.xercesc_2_5::BaseRefVectorOf.1", ptr %56, i64 0, i32 4
  %104 = load ptr, ptr %103, align 8, !tbaa !961
  %105 = load ptr, ptr %102, align 8, !tbaa !888
  %106 = getelementptr inbounds ptr, ptr %105, i64 3
  %107 = load ptr, ptr %106, align 8
  tail call void %107(ptr noundef nonnull align 8 dereferenceable(8) %102, ptr noundef %104)
  store ptr %76, ptr %103, align 8, !tbaa !961
  store i32 %68, ptr %60, align 8, !tbaa !960
  %108 = load i32, ptr %57, align 4, !tbaa !959
  %109 = add i32 %108, 1
  br label %110

110:                                              ; preds = %63, %101
  %111 = phi i32 [ %59, %63 ], [ %109, %101 ]
  %112 = phi i32 [ %58, %63 ], [ %108, %101 ]
  %113 = phi ptr [ %65, %63 ], [ %76, %101 ]
  %114 = zext i32 %112 to i64
  %115 = getelementptr inbounds ptr, ptr %113, i64 %114
  store ptr %32, ptr %115, align 8, !tbaa !911
  store i32 %111, ptr %57, align 4, !tbaa !959
  ret ptr %32

116:                                              ; preds = %53, %10
  %117 = phi { ptr, i32 } [ %11, %10 ], [ %54, %53 ]
  resume { ptr, i32 } %117

118:                                              ; preds = %53
  %119 = landingpad { ptr, i32 }
          catch ptr null
  %120 = extractvalue { ptr, i32 } %119, 0
  tail call void @__clang_call_terminate(ptr %120) #17
  unreachable
}

declare void @_ZN11xercesc_2_519DOMNodeIteratorImplC1EPNS_11DOMDocumentEPNS_7DOMNodeEmPNS_13DOMNodeFilterEb(ptr noundef nonnull align 8 dereferenceable(57), ptr noundef, ptr noundef, i64 noundef, ptr noundef, i1 noundef zeroext) unnamed_addr #2

; Function Attrs: uwtable
define dso_local noundef ptr @_ZThn16_N11xercesc_2_515DOMDocumentImpl18createNodeIteratorEPNS_7DOMNodeEmPNS_13DOMNodeFilterEb(ptr noundef %0, ptr noundef %1, i64 noundef %2, ptr noundef %3, i1 noundef zeroext %4) unnamed_addr #1 align 2 {
  %6 = getelementptr inbounds i8, ptr %0, i64 -16
  %7 = tail call noundef ptr @_ZN11xercesc_2_515DOMDocumentImpl18createNodeIteratorEPNS_7DOMNodeEmPNS_13DOMNodeFilterEb(ptr noundef nonnull align 8 dereferenceable(253) %6, ptr noundef %1, i64 noundef %2, ptr noundef %3, i1 noundef zeroext %4)
  ret ptr %7
}

; Function Attrs: mustprogress nofree norecurse nosync nounwind willreturn memory(argmem: read) uwtable
define dso_local noundef ptr @_ZNK11xercesc_2_515DOMDocumentImpl16getNodeIteratorsEv(ptr nocapture noundef nonnull readonly align 8 dereferenceable(253) %0) unnamed_addr #7 align 2 {
  %2 = getelementptr inbounds %"class.xercesc_2_5::DOMDocumentImpl", ptr %0, i64 0, i32 23
  %3 = load ptr, ptr %2, align 8, !tbaa !917
  ret ptr %3
}

; Function Attrs: uwtable
define dso_local void @_ZN11xercesc_2_515DOMDocumentImpl18removeNodeIteratorEPNS_19DOMNodeIteratorImplE(ptr nocapture noundef nonnull readonly align 8 dereferenceable(253) %0, ptr noundef readnone %1) unnamed_addr #1 align 2 personality ptr @__gxx_personality_v0 {
  %3 = getelementptr inbounds %"class.xercesc_2_5::DOMDocumentImpl", ptr %0, i64 0, i32 23
  %4 = load ptr, ptr %3, align 8, !tbaa !917
  %5 = icmp eq ptr %4, null
  br i1 %5, label %37, label %6

6:                                                ; preds = %2
  %7 = getelementptr inbounds %"class.xercesc_2_5::BaseRefVectorOf.1", ptr %4, i64 0, i32 2
  %8 = load i32, ptr %7, align 4, !tbaa !959
  %9 = zext i32 %8 to i64
  %10 = icmp eq i32 %8, 0
  br i1 %10, label %37, label %11

11:                                               ; preds = %6
  %12 = getelementptr inbounds %"class.xercesc_2_5::BaseRefVectorOf.1", ptr %4, i64 0, i32 4
  br label %16

13:                                               ; preds = %27
  %14 = add nuw nsw i64 %17, 1
  %15 = icmp eq i64 %14, %9
  br i1 %15, label %37, label %16

16:                                               ; preds = %11, %13
  %17 = phi i64 [ 0, %11 ], [ %14, %13 ]
  %18 = trunc i64 %17 to i32
  %19 = icmp eq i32 %8, %18
  br i1 %19, label %20, label %27

20:                                               ; preds = %16
  %21 = tail call ptr @__cxa_allocate_exception(i64 48) #18
  %22 = getelementptr inbounds %"class.xercesc_2_5::BaseRefVectorOf.1", ptr %4, i64 0, i32 5
  %23 = load ptr, ptr %22, align 8, !tbaa !962
  invoke void @_ZN11xercesc_2_530ArrayIndexOutOfBoundsExceptionC2EPKcjNS_10XMLExcepts5CodesEPNS_13MemoryManagerE(ptr noundef nonnull align 8 dereferenceable(48) %21, ptr noundef nonnull @.str, i32 noundef 289, i32 noundef 109, ptr noundef %23)
          to label %24 unwind label %25

24:                                               ; preds = %20
  tail call void @__cxa_throw(ptr nonnull %21, ptr nonnull @_ZTIN11xercesc_2_530ArrayIndexOutOfBoundsExceptionE, ptr nonnull @_ZN11xercesc_2_512XMLExceptionD2Ev) #19
  unreachable

25:                                               ; preds = %20
  %26 = landingpad { ptr, i32 }
          cleanup
  tail call void @__cxa_free_exception(ptr %21) #18
  resume { ptr, i32 } %26

27:                                               ; preds = %16
  %28 = load ptr, ptr %12, align 8, !tbaa !961
  %29 = and i64 %17, 4294967295
  %30 = getelementptr inbounds ptr, ptr %28, i64 %29
  %31 = load ptr, ptr %30, align 8, !tbaa !911
  %32 = icmp eq ptr %31, %1
  br i1 %32, label %33, label %13

33:                                               ; preds = %27
  %34 = load ptr, ptr %4, align 8, !tbaa !888
  %35 = getelementptr inbounds ptr, ptr %34, i64 4
  %36 = load ptr, ptr %35, align 8
  tail call void %36(ptr noundef nonnull align 8 dereferenceable(40) %4, i32 noundef %18)
  br label %37

37:                                               ; preds = %13, %6, %33, %2
  ret void
}

; Function Attrs: noreturn uwtable
define dso_local noalias noundef nonnull ptr @_ZN11xercesc_2_515DOMDocumentImpl16createExpressionEPKtPKNS_18DOMXPathNSResolverE(ptr nocapture nonnull readnone align 8 %0, ptr nocapture readnone %1, ptr nocapture readnone %2) unnamed_addr #8 align 2 personality ptr @__gxx_personality_v0 {
  %4 = tail call ptr @__cxa_allocate_exception(i64 24) #18
  invoke void @_ZN11xercesc_2_512DOMExceptionC1EsPKt(ptr noundef nonnull align 8 dereferenceable(24) %4, i16 noundef signext 9, ptr noundef null)
          to label %5 unwind label %6

5:                                                ; preds = %3
  tail call void @__cxa_throw(ptr nonnull %4, ptr nonnull @_ZTIN11xercesc_2_512DOMExceptionE, ptr nonnull @_ZN11xercesc_2_512DOMExceptionD1Ev) #19
  unreachable

6:                                                ; preds = %3
  %7 = landingpad { ptr, i32 }
          cleanup
  tail call void @__cxa_free_exception(ptr %4) #18
  resume { ptr, i32 } %7
}

; Function Attrs: noreturn uwtable
define dso_local noalias noundef nonnull ptr @_ZThn8_N11xercesc_2_515DOMDocumentImpl16createExpressionEPKtPKNS_18DOMXPathNSResolverE(ptr nocapture readnone %0, ptr nocapture readnone %1, ptr nocapture readnone %2) unnamed_addr #8 align 2 personality ptr @__gxx_personality_v0 {
  %4 = tail call ptr @__cxa_allocate_exception(i64 24) #18
  invoke void @_ZN11xercesc_2_512DOMExceptionC1EsPKt(ptr noundef nonnull align 8 dereferenceable(24) %4, i16 noundef signext 9, ptr noundef null)
          to label %5 unwind label %6

5:                                                ; preds = %3
  tail call void @__cxa_throw(ptr nonnull %4, ptr nonnull @_ZTIN11xercesc_2_512DOMExceptionE, ptr nonnull @_ZN11xercesc_2_512DOMExceptionD1Ev) #19
  unreachable

6:                                                ; preds = %3
  %7 = landingpad { ptr, i32 }
          cleanup
  tail call void @__cxa_free_exception(ptr %4) #18
  resume { ptr, i32 } %7
}

; Function Attrs: noreturn uwtable
define dso_local noalias noundef nonnull ptr @_ZN11xercesc_2_515DOMDocumentImpl16createNSResolverEPNS_7DOMNodeE(ptr nocapture nonnull readnone align 8 %0, ptr nocapture readnone %1) unnamed_addr #8 align 2 personality ptr @__gxx_personality_v0 {
  %3 = tail call ptr @__cxa_allocate_exception(i64 24) #18
  invoke void @_ZN11xercesc_2_512DOMExceptionC1EsPKt(ptr noundef nonnull align 8 dereferenceable(24) %3, i16 noundef signext 9, ptr noundef null)
          to label %4 unwind label %5

4:                                                ; preds = %2
  tail call void @__cxa_throw(ptr nonnull %3, ptr nonnull @_ZTIN11xercesc_2_512DOMExceptionE, ptr nonnull @_ZN11xercesc_2_512DOMExceptionD1Ev) #19
  unreachable

5:                                                ; preds = %2
  %6 = landingpad { ptr, i32 }
          cleanup
  tail call void @__cxa_free_exception(ptr %3) #18
  resume { ptr, i32 } %6
}

; Function Attrs: noreturn uwtable
define dso_local noalias noundef nonnull ptr @_ZThn8_N11xercesc_2_515DOMDocumentImpl16createNSResolverEPNS_7DOMNodeE(ptr nocapture readnone %0, ptr nocapture readnone %1) unnamed_addr #8 align 2 personality ptr @__gxx_personality_v0 {
  %3 = tail call ptr @__cxa_allocate_exception(i64 24) #18
  invoke void @_ZN11xercesc_2_512DOMExceptionC1EsPKt(ptr noundef nonnull align 8 dereferenceable(24) %3, i16 noundef signext 9, ptr noundef null)
          to label %4 unwind label %5

4:                                                ; preds = %2
  tail call void @__cxa_throw(ptr nonnull %3, ptr nonnull @_ZTIN11xercesc_2_512DOMExceptionE, ptr nonnull @_ZN11xercesc_2_512DOMExceptionD1Ev) #19
  unreachable

5:                                                ; preds = %2
  %6 = landingpad { ptr, i32 }
          cleanup
  tail call void @__cxa_free_exception(ptr %3) #18
  resume { ptr, i32 } %6
}

; Function Attrs: noreturn uwtable
define dso_local noalias noundef nonnull ptr @_ZN11xercesc_2_515DOMDocumentImpl8evaluateEPKtPNS_7DOMNodeEPKNS_18DOMXPathNSResolverEtPv(ptr nocapture nonnull readnone align 8 %0, ptr nocapture readnone %1, ptr nocapture readnone %2, ptr nocapture readnone %3, i16 zeroext %4, ptr nocapture readnone %5) unnamed_addr #8 align 2 personality ptr @__gxx_personality_v0 {
  %7 = tail call ptr @__cxa_allocate_exception(i64 24) #18
  invoke void @_ZN11xercesc_2_512DOMExceptionC1EsPKt(ptr noundef nonnull align 8 dereferenceable(24) %7, i16 noundef signext 9, ptr noundef null)
          to label %8 unwind label %9

8:                                                ; preds = %6
  tail call void @__cxa_throw(ptr nonnull %7, ptr nonnull @_ZTIN11xercesc_2_512DOMExceptionE, ptr nonnull @_ZN11xercesc_2_512DOMExceptionD1Ev) #19
  unreachable

9:                                                ; preds = %6
  %10 = landingpad { ptr, i32 }
          cleanup
  tail call void @__cxa_free_exception(ptr %7) #18
  resume { ptr, i32 } %10
}

; Function Attrs: noreturn uwtable
define dso_local noalias noundef nonnull ptr @_ZThn8_N11xercesc_2_515DOMDocumentImpl8evaluateEPKtPNS_7DOMNodeEPKNS_18DOMXPathNSResolverEtPv(ptr nocapture readnone %0, ptr nocapture readnone %1, ptr nocapture readnone %2, ptr nocapture readnone %3, i16 zeroext %4, ptr nocapture readnone %5) unnamed_addr #8 align 2 personality ptr @__gxx_personality_v0 {
  %7 = tail call ptr @__cxa_allocate_exception(i64 24) #18
  invoke void @_ZN11xercesc_2_512DOMExceptionC1EsPKt(ptr noundef nonnull align 8 dereferenceable(24) %7, i16 noundef signext 9, ptr noundef null)
          to label %8 unwind label %9

8:                                                ; preds = %6
  tail call void @__cxa_throw(ptr nonnull %7, ptr nonnull @_ZTIN11xercesc_2_512DOMExceptionE, ptr nonnull @_ZN11xercesc_2_512DOMExceptionD1Ev) #19
  unreachable

9:                                                ; preds = %6
  %10 = landingpad { ptr, i32 }
          cleanup
  tail call void @__cxa_free_exception(ptr %7) #18
  resume { ptr, i32 } %10
}

; Function Attrs: uwtable
define dso_local noundef ptr @_ZN11xercesc_2_515DOMDocumentImpl16createTreeWalkerEPNS_7DOMNodeEmPNS_13DOMNodeFilterEb(ptr nocapture noundef nonnull align 8 dereferenceable(253) %0, ptr noundef %1, i64 noundef %2, ptr noundef %3, i1 noundef zeroext %4) unnamed_addr #1 align 2 personality ptr @__gxx_personality_v0 {
  %6 = icmp eq ptr %1, null
  br i1 %6, label %7, label %12

7:                                                ; preds = %5
  %8 = tail call ptr @__cxa_allocate_exception(i64 24) #18
  invoke void @_ZN11xercesc_2_512DOMExceptionC1EsPKt(ptr noundef nonnull align 8 dereferenceable(24) %8, i16 noundef signext 9, ptr noundef null)
          to label %9 unwind label %10

9:                                                ; preds = %7
  tail call void @__cxa_throw(ptr nonnull %8, ptr nonnull @_ZTIN11xercesc_2_512DOMExceptionE, ptr nonnull @_ZN11xercesc_2_512DOMExceptionD1Ev) #19
  unreachable

10:                                               ; preds = %7
  %11 = landingpad { ptr, i32 }
          cleanup
  tail call void @__cxa_free_exception(ptr %8) #18
  resume { ptr, i32 } %11

12:                                               ; preds = %5
  %13 = getelementptr inbounds %"class.xercesc_2_5::DOMDocumentImpl", ptr %0, i64 0, i32 14
  %14 = load i64, ptr %13, align 8, !tbaa !913
  %15 = icmp ult i64 %14, 48
  br i1 %15, label %20, label %16

16:                                               ; preds = %12
  %17 = getelementptr inbounds %"class.xercesc_2_5::DOMDocumentImpl", ptr %0, i64 0, i32 13
  %18 = load ptr, ptr %17, align 8, !tbaa !912
  %19 = add i64 %14, -48
  br label %30

20:                                               ; preds = %12
  %21 = getelementptr inbounds %"class.xercesc_2_5::DOMDocumentImpl", ptr %0, i64 0, i32 24
  %22 = load ptr, ptr %21, align 8, !tbaa !891
  %23 = load ptr, ptr %22, align 8, !tbaa !888
  %24 = getelementptr inbounds ptr, ptr %23, i64 2
  %25 = load ptr, ptr %24, align 8
  %26 = tail call noundef ptr %25(ptr noundef nonnull align 8 dereferenceable(8) %22, i64 noundef 65536)
  %27 = getelementptr inbounds %"class.xercesc_2_5::DOMDocumentImpl", ptr %0, i64 0, i32 12
  %28 = load ptr, ptr %27, align 8, !tbaa !910
  store ptr %28, ptr %26, align 8, !tbaa !911
  store ptr %26, ptr %27, align 8, !tbaa !910
  %29 = getelementptr inbounds i8, ptr %26, i64 8
  br label %30

30:                                               ; preds = %16, %20
  %31 = phi i64 [ %19, %16 ], [ 65480, %20 ]
  %32 = phi ptr [ %18, %16 ], [ %29, %20 ]
  %33 = getelementptr inbounds %"class.xercesc_2_5::DOMDocumentImpl", ptr %0, i64 0, i32 13
  %34 = getelementptr inbounds i8, ptr %32, i64 48
  store ptr %34, ptr %33, align 8, !tbaa !912
  store i64 %31, ptr %13, align 8, !tbaa !913
  tail call void @_ZN11xercesc_2_517DOMTreeWalkerImplC1EPNS_7DOMNodeEmPNS_13DOMNodeFilterEb(ptr noundef nonnull align 8 dereferenceable(41) %32, ptr noundef nonnull %1, i64 noundef %2, ptr noundef %3, i1 noundef zeroext %4)
  ret ptr %32
}

declare void @_ZN11xercesc_2_517DOMTreeWalkerImplC1EPNS_7DOMNodeEmPNS_13DOMNodeFilterEb(ptr noundef nonnull align 8 dereferenceable(41), ptr noundef, i64 noundef, ptr noundef, i1 noundef zeroext) unnamed_addr #2

; Function Attrs: uwtable
define dso_local noundef ptr @_ZThn16_N11xercesc_2_515DOMDocumentImpl16createTreeWalkerEPNS_7DOMNodeEmPNS_13DOMNodeFilterEb(ptr nocapture noundef %0, ptr noundef %1, i64 noundef %2, ptr noundef %3, i1 noundef zeroext %4) unnamed_addr #1 align 2 {
  %6 = getelementptr inbounds i8, ptr %0, i64 -16
  %7 = tail call noundef ptr @_ZN11xercesc_2_515DOMDocumentImpl16createTreeWalkerEPNS_7DOMNodeEmPNS_13DOMNodeFilterEb(ptr noundef nonnull align 8 dereferenceable(253) %6, ptr noundef %1, i64 noundef %2, ptr noundef %3, i1 noundef zeroext %4)
  ret ptr %7
}

; Function Attrs: mustprogress nofree norecurse nosync nounwind willreturn memory(argmem: read) uwtable
define dso_local noundef ptr @_ZNK11xercesc_2_515DOMDocumentImpl10getDoctypeEv(ptr nocapture noundef nonnull readonly align 8 dereferenceable(253) %0) unnamed_addr #7 align 2 {
  %2 = getelementptr inbounds %"class.xercesc_2_5::DOMDocumentImpl", ptr %0, i64 0, i32 18
  %3 = load ptr, ptr %2, align 8, !tbaa !963
  ret ptr %3
}

; Function Attrs: mustprogress nofree norecurse nosync nounwind willreturn memory(argmem: read) uwtable
define dso_local noundef ptr @_ZNK11xercesc_2_515DOMDocumentImpl18getDocumentElementEv(ptr nocapture noundef nonnull readonly align 8 dereferenceable(253) %0) unnamed_addr #7 align 2 {
  %2 = getelementptr inbounds %"class.xercesc_2_5::DOMDocumentImpl", ptr %0, i64 0, i32 19
  %3 = load ptr, ptr %2, align 8, !tbaa !964
  ret ptr %3
}

; Function Attrs: uwtable
define dso_local noundef ptr @_ZNK11xercesc_2_515DOMDocumentImpl20getElementsByTagNameEPKt(ptr noundef nonnull align 8 dereferenceable(253) %0, ptr noundef %1) unnamed_addr #1 align 2 {
  %3 = getelementptr inbounds i8, ptr %0, i64 24
  %4 = tail call noundef ptr @_ZN11xercesc_2_515DOMDocumentImpl15getDeepNodeListEPKNS_7DOMNodeEPKt(ptr noundef nonnull align 8 dereferenceable(253) %0, ptr noundef nonnull %3, ptr noundef %1)
  ret ptr %4
}

; Function Attrs: uwtable
define dso_local noundef ptr @_ZN11xercesc_2_515DOMDocumentImpl15getDeepNodeListEPKNS_7DOMNodeEPKt(ptr nocapture noundef nonnull align 8 dereferenceable(253) %0, ptr noundef %1, ptr noundef %2) local_unnamed_addr #1 align 2 personality ptr @__gxx_personality_v0 {
  %4 = alloca i64, align 8
  %5 = getelementptr inbounds %"class.xercesc_2_5::DOMDocumentImpl", ptr %0, i64 0, i32 17
  %6 = load ptr, ptr %5, align 8, !tbaa !915
  %7 = icmp eq ptr %6, null
  br i1 %7, label %8, label %31

8:                                                ; preds = %3
  %9 = getelementptr inbounds %"class.xercesc_2_5::DOMDocumentImpl", ptr %0, i64 0, i32 14
  %10 = load i64, ptr %9, align 8, !tbaa !913
  %11 = icmp ult i64 %10, 64
  br i1 %11, label %16, label %12

12:                                               ; preds = %8
  %13 = getelementptr inbounds %"class.xercesc_2_5::DOMDocumentImpl", ptr %0, i64 0, i32 13
  %14 = load ptr, ptr %13, align 8, !tbaa !912
  %15 = add i64 %10, -64
  br label %26

16:                                               ; preds = %8
  %17 = getelementptr inbounds %"class.xercesc_2_5::DOMDocumentImpl", ptr %0, i64 0, i32 24
  %18 = load ptr, ptr %17, align 8, !tbaa !891
  %19 = load ptr, ptr %18, align 8, !tbaa !888
  %20 = getelementptr inbounds ptr, ptr %19, i64 2
  %21 = load ptr, ptr %20, align 8
  %22 = tail call noundef ptr %21(ptr noundef nonnull align 8 dereferenceable(8) %18, i64 noundef 65536)
  %23 = getelementptr inbounds %"class.xercesc_2_5::DOMDocumentImpl", ptr %0, i64 0, i32 12
  %24 = load ptr, ptr %23, align 8, !tbaa !910
  store ptr %24, ptr %22, align 8, !tbaa !911
  store ptr %22, ptr %23, align 8, !tbaa !910
  %25 = getelementptr inbounds i8, ptr %22, i64 8
  br label %26

26:                                               ; preds = %12, %16
  %27 = phi i64 [ %15, %12 ], [ 65464, %16 ]
  %28 = phi ptr [ %14, %12 ], [ %25, %16 ]
  %29 = getelementptr inbounds %"class.xercesc_2_5::DOMDocumentImpl", ptr %0, i64 0, i32 13
  %30 = getelementptr inbounds i8, ptr %28, i64 64
  store ptr %30, ptr %29, align 8, !tbaa !912
  store i64 %27, ptr %9, align 8, !tbaa !913
  tail call void @_ZN11xercesc_2_519DOMDeepNodeListPoolINS_19DOMDeepNodeListImplEEC2Embm(ptr noundef nonnull align 8 dereferenceable(64) %28, i64 noundef 109, i1 noundef zeroext false, i64 noundef 128)
  store ptr %28, ptr %5, align 8, !tbaa !915
  br label %31

31:                                               ; preds = %26, %3
  %32 = phi ptr [ %28, %26 ], [ %6, %3 ]
  call void @llvm.lifetime.start.p0(i64 8, ptr nonnull %4) #18
  %33 = call noundef ptr @_ZN11xercesc_2_519DOMDeepNodeListPoolINS_19DOMDeepNodeListImplEE14findBucketElemEPKvPKtS6_Rm(ptr noundef nonnull align 8 dereferenceable(64) %32, ptr noundef %1, ptr noundef %2, ptr noundef null, ptr noundef nonnull align 8 dereferenceable(8) %4)
  %34 = icmp eq ptr %33, null
  br i1 %34, label %35, label %36

35:                                               ; preds = %31
  call void @llvm.lifetime.end.p0(i64 8, ptr nonnull %4) #18
  br label %39

36:                                               ; preds = %31
  %37 = load ptr, ptr %33, align 8, !tbaa !942
  call void @llvm.lifetime.end.p0(i64 8, ptr nonnull %4) #18
  %38 = icmp eq ptr %37, null
  br i1 %38, label %39, label %84

39:                                               ; preds = %35, %36
  %40 = load ptr, ptr %5, align 8, !tbaa !915
  %41 = getelementptr inbounds %"class.xercesc_2_5::DOMDocumentImpl", ptr %0, i64 0, i32 14
  %42 = load i64, ptr %41, align 8, !tbaa !913
  %43 = icmp ult i64 %42, 64
  br i1 %43, label %48, label %44

44:                                               ; preds = %39
  %45 = getelementptr inbounds %"class.xercesc_2_5::DOMDocumentImpl", ptr %0, i64 0, i32 13
  %46 = load ptr, ptr %45, align 8, !tbaa !912
  %47 = add i64 %42, -64
  br label %58

48:                                               ; preds = %39
  %49 = getelementptr inbounds %"class.xercesc_2_5::DOMDocumentImpl", ptr %0, i64 0, i32 24
  %50 = load ptr, ptr %49, align 8, !tbaa !891
  %51 = load ptr, ptr %50, align 8, !tbaa !888
  %52 = getelementptr inbounds ptr, ptr %51, i64 2
  %53 = load ptr, ptr %52, align 8
  %54 = call noundef ptr %53(ptr noundef nonnull align 8 dereferenceable(8) %50, i64 noundef 65536)
  %55 = getelementptr inbounds %"class.xercesc_2_5::DOMDocumentImpl", ptr %0, i64 0, i32 12
  %56 = load ptr, ptr %55, align 8, !tbaa !910
  store ptr %56, ptr %54, align 8, !tbaa !911
  store ptr %54, ptr %55, align 8, !tbaa !910
  %57 = getelementptr inbounds i8, ptr %54, i64 8
  br label %58

58:                                               ; preds = %44, %48
  %59 = phi i64 [ %47, %44 ], [ 65464, %48 ]
  %60 = phi ptr [ %46, %44 ], [ %57, %48 ]
  %61 = getelementptr inbounds %"class.xercesc_2_5::DOMDocumentImpl", ptr %0, i64 0, i32 13
  %62 = getelementptr inbounds i8, ptr %60, i64 64
  store ptr %62, ptr %61, align 8, !tbaa !912
  store i64 %59, ptr %41, align 8, !tbaa !913
  call void @_ZN11xercesc_2_519DOMDeepNodeListImplC1EPKNS_7DOMNodeEPKt(ptr noundef nonnull align 8 dereferenceable(58) %60, ptr noundef %1, ptr noundef %2)
  %63 = call noundef i64 @_ZN11xercesc_2_519DOMDeepNodeListPoolINS_19DOMDeepNodeListImplEE3putEPvPtS4_PS1_(ptr noundef nonnull align 8 dereferenceable(64) %40, ptr noundef %1, ptr noundef %2, ptr noundef null, ptr noundef nonnull %60)
  %64 = load ptr, ptr %5, align 8, !tbaa !915
  %65 = shl i64 %63, 32
  %66 = ashr exact i64 %65, 32
  %67 = getelementptr inbounds %"class.xercesc_2_5::DOMDeepNodeListPool", ptr %64, i64 0, i32 6
  %68 = load i64, ptr %67, align 8
  %69 = freeze i64 %68
  %70 = add nsw i64 %66, -1
  %71 = icmp ult i64 %70, %69
  br i1 %71, label %79, label %72

72:                                               ; preds = %58
  %73 = call ptr @__cxa_allocate_exception(i64 48) #18
  %74 = getelementptr inbounds %"class.xercesc_2_5::DOMDeepNodeListPool", ptr %64, i64 0, i32 7
  %75 = load ptr, ptr %74, align 8, !tbaa !943
  invoke void @_ZN11xercesc_2_524IllegalArgumentExceptionC2EPKcjNS_10XMLExcepts5CodesEPNS_13MemoryManagerE(ptr noundef nonnull align 8 dereferenceable(48) %73, ptr noundef nonnull @.str.1, i32 noundef 298, i32 noundef 66, ptr noundef %75)
          to label %76 unwind label %77

76:                                               ; preds = %72
  call void @__cxa_throw(ptr nonnull %73, ptr nonnull @_ZTIN11xercesc_2_524IllegalArgumentExceptionE, ptr nonnull @_ZN11xercesc_2_512XMLExceptionD2Ev) #19
  unreachable

77:                                               ; preds = %72
  %78 = landingpad { ptr, i32 }
          cleanup
  call void @__cxa_free_exception(ptr %73) #18
  resume { ptr, i32 } %78

79:                                               ; preds = %58
  %80 = getelementptr inbounds %"class.xercesc_2_5::DOMDeepNodeListPool", ptr %64, i64 0, i32 4
  %81 = load ptr, ptr %80, align 8, !tbaa !947
  %82 = getelementptr inbounds ptr, ptr %81, i64 %66
  %83 = load ptr, ptr %82, align 8, !tbaa !911
  br label %84

84:                                               ; preds = %79, %36
  %85 = phi ptr [ %37, %36 ], [ %83, %79 ]
  ret ptr %85
}

; Function Attrs: uwtable
define dso_local noundef ptr @_ZNK11xercesc_2_515DOMDocumentImpl17getImplementationEv(ptr nocapture nonnull readnone align 8 %0) unnamed_addr #1 align 2 {
  %2 = tail call noundef ptr @_ZN11xercesc_2_517DOMImplementation17getImplementationEv()
  ret ptr %2
}

declare noundef ptr @_ZN11xercesc_2_517DOMImplementation17getImplementationEv() local_unnamed_addr #2

; Function Attrs: uwtable
define dso_local noundef ptr @_ZN11xercesc_2_515DOMDocumentImpl12insertBeforeEPNS_7DOMNodeES2_(ptr noundef nonnull align 8 dereferenceable(253) %0, ptr noundef returned %1, ptr noundef %2) unnamed_addr #1 align 2 personality ptr @__gxx_personality_v0 {
  %4 = load ptr, ptr %1, align 8, !tbaa !888
  %5 = getelementptr inbounds ptr, ptr %4, i64 4
  %6 = load ptr, ptr %5, align 8
  %7 = tail call noundef signext i16 %6(ptr noundef nonnull align 8 dereferenceable(8) %1)
  %8 = icmp ne i16 %7, 1
  %9 = getelementptr inbounds %"class.xercesc_2_5::DOMDocumentImpl", ptr %0, i64 0, i32 19
  %10 = load ptr, ptr %9, align 8
  %11 = icmp eq ptr %10, null
  %12 = select i1 %8, i1 true, i1 %11
  br i1 %12, label %13, label %23

13:                                               ; preds = %3
  %14 = load ptr, ptr %1, align 8, !tbaa !888
  %15 = getelementptr inbounds ptr, ptr %14, i64 4
  %16 = load ptr, ptr %15, align 8
  %17 = tail call noundef signext i16 %16(ptr noundef nonnull align 8 dereferenceable(8) %1)
  %18 = icmp ne i16 %17, 10
  %19 = getelementptr inbounds %"class.xercesc_2_5::DOMDocumentImpl", ptr %0, i64 0, i32 18
  %20 = load ptr, ptr %19, align 8
  %21 = icmp eq ptr %20, null
  %22 = select i1 %18, i1 true, i1 %21
  br i1 %22, label %28, label %23

23:                                               ; preds = %13, %3
  %24 = tail call ptr @__cxa_allocate_exception(i64 24) #18
  invoke void @_ZN11xercesc_2_512DOMExceptionC1EsPKt(ptr noundef nonnull align 8 dereferenceable(24) %24, i16 noundef signext 3, ptr noundef null)
          to label %25 unwind label %26

25:                                               ; preds = %23
  tail call void @__cxa_throw(ptr nonnull %24, ptr nonnull @_ZTIN11xercesc_2_512DOMExceptionE, ptr nonnull @_ZN11xercesc_2_512DOMExceptionD1Ev) #19
  unreachable

26:                                               ; preds = %23
  %27 = landingpad { ptr, i32 }
          cleanup
  tail call void @__cxa_free_exception(ptr %24) #18
  resume { ptr, i32 } %27

28:                                               ; preds = %13
  %29 = load ptr, ptr %1, align 8, !tbaa !888
  %30 = getelementptr inbounds ptr, ptr %29, i64 4
  %31 = load ptr, ptr %30, align 8
  %32 = tail call noundef signext i16 %31(ptr noundef nonnull align 8 dereferenceable(8) %1)
  %33 = icmp eq i16 %32, 10
  br i1 %33, label %34, label %44

34:                                               ; preds = %28
  %35 = load ptr, ptr %1, align 8, !tbaa !888
  %36 = getelementptr inbounds ptr, ptr %35, i64 12
  %37 = load ptr, ptr %36, align 8
  %38 = tail call noundef ptr %37(ptr noundef nonnull align 8 dereferenceable(8) %1)
  %39 = icmp eq ptr %38, null
  br i1 %39, label %40, label %44

40:                                               ; preds = %34
  %41 = load ptr, ptr %1, align 8, !tbaa !888
  %42 = getelementptr inbounds ptr, ptr %41, i64 49
  %43 = load ptr, ptr %42, align 8
  tail call void %43(ptr noundef nonnull align 8 dereferenceable(130) %1, ptr noundef nonnull %0)
  br label %44

44:                                               ; preds = %40, %34, %28
  %45 = getelementptr inbounds %"class.xercesc_2_5::DOMDocumentImpl", ptr %0, i64 0, i32 2
  %46 = tail call noundef ptr @_ZN11xercesc_2_513DOMParentNode12insertBeforeEPNS_7DOMNodeES2_(ptr noundef nonnull align 8 dereferenceable(32) %45, ptr noundef nonnull %1, ptr noundef %2)
  %47 = load ptr, ptr %1, align 8, !tbaa !888
  %48 = getelementptr inbounds ptr, ptr %47, i64 4
  %49 = load ptr, ptr %48, align 8
  %50 = tail call noundef signext i16 %49(ptr noundef nonnull align 8 dereferenceable(8) %1)
  %51 = icmp eq i16 %50, 1
  br i1 %51, label %58, label %52

52:                                               ; preds = %44
  %53 = load ptr, ptr %1, align 8, !tbaa !888
  %54 = getelementptr inbounds ptr, ptr %53, i64 4
  %55 = load ptr, ptr %54, align 8
  %56 = tail call noundef signext i16 %55(ptr noundef nonnull align 8 dereferenceable(8) %1)
  %57 = icmp eq i16 %56, 10
  br i1 %57, label %58, label %60

58:                                               ; preds = %52, %44
  %59 = phi ptr [ %9, %44 ], [ %19, %52 ]
  store ptr %1, ptr %59, align 8, !tbaa !911
  br label %60

60:                                               ; preds = %58, %52
  ret ptr %1
}

declare noundef ptr @_ZN11xercesc_2_513DOMParentNode12insertBeforeEPNS_7DOMNodeES2_(ptr noundef nonnull align 8 dereferenceable(32), ptr noundef, ptr noundef) local_unnamed_addr #2

; Function Attrs: uwtable
define dso_local noundef ptr @_ZThn24_N11xercesc_2_515DOMDocumentImpl12insertBeforeEPNS_7DOMNodeES2_(ptr noundef %0, ptr noundef returned %1, ptr noundef %2) unnamed_addr #1 align 2 {
  %4 = getelementptr inbounds i8, ptr %0, i64 -24
  %5 = tail call noundef ptr @_ZN11xercesc_2_515DOMDocumentImpl12insertBeforeEPNS_7DOMNodeES2_(ptr noundef nonnull align 8 dereferenceable(253) %4, ptr noundef %1, ptr noundef %2)
  ret ptr %1
}

; Function Attrs: uwtable
define dso_local noundef ptr @_ZN11xercesc_2_515DOMDocumentImpl12replaceChildEPNS_7DOMNodeES2_(ptr noundef nonnull align 8 dereferenceable(253) %0, ptr noundef %1, ptr noundef %2) unnamed_addr #1 align 2 personality ptr @__gxx_personality_v0 {
  %4 = getelementptr inbounds %"class.xercesc_2_5::DOMDocumentImpl", ptr %0, i64 0, i32 18
  %5 = load ptr, ptr %4, align 8, !tbaa !963
  %6 = getelementptr inbounds %"class.xercesc_2_5::DOMDocumentImpl", ptr %0, i64 0, i32 19
  %7 = load ptr, ptr %6, align 8, !tbaa !964
  %8 = load ptr, ptr %2, align 8, !tbaa !888
  %9 = getelementptr inbounds ptr, ptr %8, i64 4
  %10 = load ptr, ptr %9, align 8
  %11 = tail call noundef signext i16 %10(ptr noundef nonnull align 8 dereferenceable(8) %2)
  %12 = icmp eq i16 %11, 10
  br i1 %12, label %19, label %13

13:                                               ; preds = %3
  %14 = load ptr, ptr %2, align 8, !tbaa !888
  %15 = getelementptr inbounds ptr, ptr %14, i64 4
  %16 = load ptr, ptr %15, align 8
  %17 = tail call noundef signext i16 %16(ptr noundef nonnull align 8 dereferenceable(8) %2)
  %18 = icmp eq i16 %17, 1
  br i1 %18, label %19, label %21

19:                                               ; preds = %13, %3
  %20 = phi ptr [ %4, %3 ], [ %6, %13 ]
  store ptr null, ptr %20, align 8, !tbaa !911
  br label %21

21:                                               ; preds = %19, %13
  %22 = load ptr, ptr %0, align 8, !tbaa !888
  %23 = getelementptr inbounds ptr, ptr %22, i64 57
  %24 = load ptr, ptr %23, align 8
  %25 = invoke noundef ptr %24(ptr noundef nonnull align 8 dereferenceable(253) %0, ptr noundef %1, ptr noundef nonnull %2)
          to label %26 unwind label %43

26:                                               ; preds = %21
  %27 = load ptr, ptr %2, align 8, !tbaa !888
  %28 = getelementptr inbounds ptr, ptr %27, i64 4
  %29 = load ptr, ptr %28, align 8
  %30 = invoke noundef signext i16 %29(ptr noundef nonnull align 8 dereferenceable(8) %2)
          to label %31 unwind label %43

31:                                               ; preds = %26
  %32 = icmp eq i16 %30, 10
  br i1 %32, label %40, label %33

33:                                               ; preds = %31
  %34 = load ptr, ptr %2, align 8, !tbaa !888
  %35 = getelementptr inbounds ptr, ptr %34, i64 4
  %36 = load ptr, ptr %35, align 8
  %37 = invoke noundef signext i16 %36(ptr noundef nonnull align 8 dereferenceable(8) %2)
          to label %38 unwind label %43

38:                                               ; preds = %33
  %39 = icmp eq i16 %37, 1
  br i1 %39, label %40, label %52

40:                                               ; preds = %38, %31
  %41 = getelementptr inbounds %"class.xercesc_2_5::DOMDocumentImpl", ptr %0, i64 0, i32 2
  %42 = invoke noundef ptr @_ZN11xercesc_2_513DOMParentNode11removeChildEPNS_7DOMNodeE(ptr noundef nonnull align 8 dereferenceable(32) %41, ptr noundef nonnull %2)
          to label %61 unwind label %43

43:                                               ; preds = %52, %40, %33, %26, %21
  %44 = landingpad { ptr, i32 }
          catch ptr @_ZTIN11xercesc_2_520OutOfMemoryExceptionE
          catch ptr null
  %45 = extractvalue { ptr, i32 } %44, 0
  %46 = extractvalue { ptr, i32 } %44, 1
  %47 = tail call i32 @llvm.eh.typeid.for(ptr nonnull @_ZTIN11xercesc_2_520OutOfMemoryExceptionE) #18
  %48 = icmp eq i32 %46, %47
  %49 = tail call ptr @__cxa_begin_catch(ptr %45) #18
  br i1 %48, label %50, label %51

50:                                               ; preds = %43
  invoke void @__cxa_rethrow() #19
          to label %68 unwind label %59

51:                                               ; preds = %43
  store ptr %5, ptr %4, align 8, !tbaa !963
  store ptr %7, ptr %6, align 8, !tbaa !964
  invoke void @__cxa_rethrow() #19
          to label %68 unwind label %57

52:                                               ; preds = %38
  %53 = load ptr, ptr %0, align 8, !tbaa !888
  %54 = getelementptr inbounds ptr, ptr %53, i64 59
  %55 = load ptr, ptr %54, align 8
  %56 = invoke noundef ptr %55(ptr noundef nonnull align 8 dereferenceable(253) %0, ptr noundef nonnull %2)
          to label %61 unwind label %43

57:                                               ; preds = %51
  %58 = landingpad { ptr, i32 }
          cleanup
  invoke void @__cxa_end_catch()
          to label %63 unwind label %65

59:                                               ; preds = %50
  %60 = landingpad { ptr, i32 }
          cleanup
  invoke void @__cxa_end_catch()
          to label %63 unwind label %65

61:                                               ; preds = %52, %40
  %62 = phi ptr [ %42, %40 ], [ %56, %52 ]
  ret ptr %62

63:                                               ; preds = %59, %57
  %64 = phi { ptr, i32 } [ %58, %57 ], [ %60, %59 ]
  resume { ptr, i32 } %64

65:                                               ; preds = %59, %57
  %66 = landingpad { ptr, i32 }
          catch ptr null
  %67 = extractvalue { ptr, i32 } %66, 0
  tail call void @__clang_call_terminate(ptr %67) #17
  unreachable

68:                                               ; preds = %50, %51
  unreachable
}

declare noundef ptr @_ZN11xercesc_2_513DOMParentNode11removeChildEPNS_7DOMNodeE(ptr noundef nonnull align 8 dereferenceable(32), ptr noundef) local_unnamed_addr #2

; Function Attrs: uwtable
define dso_local noundef ptr @_ZThn24_N11xercesc_2_515DOMDocumentImpl12replaceChildEPNS_7DOMNodeES2_(ptr noundef %0, ptr noundef %1, ptr noundef %2) unnamed_addr #1 align 2 {
  %4 = getelementptr inbounds i8, ptr %0, i64 -24
  %5 = tail call noundef ptr @_ZN11xercesc_2_515DOMDocumentImpl12replaceChildEPNS_7DOMNodeES2_(ptr noundef nonnull align 8 dereferenceable(253) %4, ptr noundef %1, ptr noundef %2)
  ret ptr %5
}

declare noundef zeroext i1 @_ZN11xercesc_2_510XMLChar1_111isValidNameEPKtj(ptr noundef, i32 noundef) local_unnamed_addr #2

declare noundef zeroext i1 @_ZN11xercesc_2_510XMLChar1_011isValidNameEPKtj(ptr noundef, i32 noundef) local_unnamed_addr #2

; Function Attrs: uwtable
define dso_local noundef ptr @_ZN11xercesc_2_515DOMDocumentImpl11removeChildEPNS_7DOMNodeE(ptr noundef nonnull align 8 dereferenceable(253) %0, ptr noundef returned %1) unnamed_addr #1 align 2 {
  %3 = getelementptr inbounds %"class.xercesc_2_5::DOMDocumentImpl", ptr %0, i64 0, i32 2
  %4 = tail call noundef ptr @_ZN11xercesc_2_513DOMParentNode11removeChildEPNS_7DOMNodeE(ptr noundef nonnull align 8 dereferenceable(32) %3, ptr noundef %1)
  %5 = load ptr, ptr %1, align 8, !tbaa !888
  %6 = getelementptr inbounds ptr, ptr %5, i64 4
  %7 = load ptr, ptr %6, align 8
  %8 = tail call noundef signext i16 %7(ptr noundef nonnull align 8 dereferenceable(8) %1)
  %9 = icmp eq i16 %8, 1
  br i1 %9, label %10, label %12

10:                                               ; preds = %2
  %11 = getelementptr inbounds %"class.xercesc_2_5::DOMDocumentImpl", ptr %0, i64 0, i32 19
  br label %20

12:                                               ; preds = %2
  %13 = load ptr, ptr %1, align 8, !tbaa !888
  %14 = getelementptr inbounds ptr, ptr %13, i64 4
  %15 = load ptr, ptr %14, align 8
  %16 = tail call noundef signext i16 %15(ptr noundef nonnull align 8 dereferenceable(8) %1)
  %17 = icmp eq i16 %16, 10
  br i1 %17, label %18, label %22

18:                                               ; preds = %12
  %19 = getelementptr inbounds %"class.xercesc_2_5::DOMDocumentImpl", ptr %0, i64 0, i32 18
  br label %20

20:                                               ; preds = %10, %18
  %21 = phi ptr [ %19, %18 ], [ %11, %10 ]
  store ptr null, ptr %21, align 8, !tbaa !911
  br label %22

22:                                               ; preds = %20, %12
  ret ptr %1
}

; Function Attrs: uwtable
define dso_local noundef ptr @_ZThn24_N11xercesc_2_515DOMDocumentImpl11removeChildEPNS_7DOMNodeE(ptr noundef %0, ptr noundef returned %1) unnamed_addr #1 align 2 {
  %3 = getelementptr inbounds i8, ptr %0, i64 24
  %4 = tail call noundef ptr @_ZN11xercesc_2_513DOMParentNode11removeChildEPNS_7DOMNodeE(ptr noundef nonnull align 8 dereferenceable(32) %3, ptr noundef %1)
  %5 = load ptr, ptr %1, align 8, !tbaa !888
  %6 = getelementptr inbounds ptr, ptr %5, i64 4
  %7 = load ptr, ptr %6, align 8
  %8 = tail call noundef signext i16 %7(ptr noundef nonnull align 8 dereferenceable(8) %1)
  %9 = icmp eq i16 %8, 1
  br i1 %9, label %16, label %10

10:                                               ; preds = %2
  %11 = load ptr, ptr %1, align 8, !tbaa !888
  %12 = getelementptr inbounds ptr, ptr %11, i64 4
  %13 = load ptr, ptr %12, align 8
  %14 = tail call noundef signext i16 %13(ptr noundef nonnull align 8 dereferenceable(8) %1)
  %15 = icmp eq i16 %14, 10
  br i1 %15, label %16, label %19

16:                                               ; preds = %10, %2
  %17 = phi i64 [ 176, %2 ], [ 168, %10 ]
  %18 = getelementptr inbounds i8, ptr %0, i64 %17
  store ptr null, ptr %18, align 8, !tbaa !911
  br label %19

19:                                               ; preds = %10, %16
  ret ptr %1
}

; Function Attrs: uwtable
define dso_local void @_ZN11xercesc_2_515DOMDocumentImpl12setNodeValueEPKt(ptr noundef nonnull align 8 dereferenceable(253) %0, ptr noundef %1) unnamed_addr #1 align 2 {
  %3 = getelementptr inbounds %"class.xercesc_2_5::DOMDocumentImpl", ptr %0, i64 0, i32 1
  tail call void @_ZN11xercesc_2_511DOMNodeImpl12setNodeValueEPKt(ptr noundef nonnull align 8 dereferenceable(10) %3, ptr noundef %1)
  ret void
}

declare void @_ZN11xercesc_2_511DOMNodeImpl12setNodeValueEPKt(ptr noundef nonnull align 8 dereferenceable(10), ptr noundef) local_unnamed_addr #2

; Function Attrs: uwtable
define dso_local void @_ZThn24_N11xercesc_2_515DOMDocumentImpl12setNodeValueEPKt(ptr noundef %0, ptr noundef %1) unnamed_addr #1 align 2 {
  %3 = getelementptr inbounds i8, ptr %0, i64 8
  tail call void @_ZN11xercesc_2_511DOMNodeImpl12setNodeValueEPKt(ptr noundef nonnull align 8 dereferenceable(10) %3, ptr noundef %1)
  ret void
}

; Function Attrs: uwtable
define dso_local noundef ptr @_ZN11xercesc_2_515DOMDocumentImpl10importNodeEPNS_7DOMNodeEb(ptr noundef nonnull align 8 dereferenceable(253) %0, ptr noundef %1, i1 noundef zeroext %2) unnamed_addr #1 align 2 {
  %4 = load ptr, ptr %0, align 8, !tbaa !888
  %5 = getelementptr inbounds ptr, ptr %4, i64 92
  %6 = load ptr, ptr %5, align 8
  %7 = tail call noundef ptr %6(ptr noundef nonnull align 8 dereferenceable(253) %0, ptr noundef %1, i1 noundef zeroext %2, i1 noundef zeroext false)
  ret ptr %7
}

; Function Attrs: uwtable
define dso_local noundef ptr @_ZN11xercesc_2_515DOMDocumentImpl15createElementNSEPKtS2_(ptr noundef nonnull align 8 dereferenceable(253) %0, ptr noundef %1, ptr noundef %2) unnamed_addr #1 align 2 personality ptr @__gxx_personality_v0 {
  %4 = icmp eq ptr %2, null
  br i1 %4, label %61, label %5

5:                                                ; preds = %3
  %6 = getelementptr inbounds %"class.xercesc_2_5::DOMDocumentImpl", ptr %0, i64 0, i32 8
  %7 = load ptr, ptr %6, align 8, !tbaa !955
  %8 = icmp eq ptr %7, null
  br i1 %8, label %13, label %9

9:                                                ; preds = %5
  %10 = load i16, ptr %7, align 2, !tbaa !956
  %11 = load i16, ptr @_ZN11xercesc_2_56XMLUni12fgVersion1_1E, align 2, !tbaa !956
  %12 = icmp eq i16 %10, %11
  br i1 %12, label %16, label %44

13:                                               ; preds = %5
  %14 = load i16, ptr @_ZN11xercesc_2_56XMLUni12fgVersion1_1E, align 2, !tbaa !956
  %15 = icmp eq i16 %14, 0
  br i1 %15, label %27, label %44

16:                                               ; preds = %9, %21
  %17 = phi i16 [ %24, %21 ], [ %10, %9 ]
  %18 = phi ptr [ %23, %21 ], [ @_ZN11xercesc_2_56XMLUni12fgVersion1_1E, %9 ]
  %19 = phi ptr [ %22, %21 ], [ %7, %9 ]
  %20 = icmp eq i16 %17, 0
  br i1 %20, label %27, label %21

21:                                               ; preds = %16
  %22 = getelementptr inbounds i16, ptr %19, i64 1
  %23 = getelementptr inbounds i16, ptr %18, i64 1
  %24 = load i16, ptr %22, align 2, !tbaa !956
  %25 = load i16, ptr %23, align 2, !tbaa !956
  %26 = icmp eq i16 %24, %25
  br i1 %26, label %16, label %44

27:                                               ; preds = %16, %13
  %28 = load i16, ptr %2, align 2, !tbaa !956
  %29 = icmp eq i16 %28, 0
  br i1 %29, label %41, label %30

30:                                               ; preds = %27, %30
  %31 = phi ptr [ %32, %30 ], [ %2, %27 ]
  %32 = getelementptr inbounds i16, ptr %31, i64 1
  %33 = load i16, ptr %32, align 2, !tbaa !956
  %34 = icmp eq i16 %33, 0
  br i1 %34, label %35, label %30

35:                                               ; preds = %30
  %36 = ptrtoint ptr %32 to i64
  %37 = ptrtoint ptr %2 to i64
  %38 = sub i64 %36, %37
  %39 = lshr exact i64 %38, 1
  %40 = trunc i64 %39 to i32
  br label %41

41:                                               ; preds = %35, %27
  %42 = phi i32 [ %40, %35 ], [ 0, %27 ]
  %43 = tail call noundef zeroext i1 @_ZN11xercesc_2_510XMLChar1_111isValidNameEPKtj(ptr noundef nonnull %2, i32 noundef %42)
  br i1 %43, label %66, label %61

44:                                               ; preds = %21, %9, %13
  %45 = load i16, ptr %2, align 2, !tbaa !956
  %46 = icmp eq i16 %45, 0
  br i1 %46, label %58, label %47

47:                                               ; preds = %44, %47
  %48 = phi ptr [ %49, %47 ], [ %2, %44 ]
  %49 = getelementptr inbounds i16, ptr %48, i64 1
  %50 = load i16, ptr %49, align 2, !tbaa !956
  %51 = icmp eq i16 %50, 0
  br i1 %51, label %52, label %47

52:                                               ; preds = %47
  %53 = ptrtoint ptr %49 to i64
  %54 = ptrtoint ptr %2 to i64
  %55 = sub i64 %53, %54
  %56 = lshr exact i64 %55, 1
  %57 = trunc i64 %56 to i32
  br label %58

58:                                               ; preds = %44, %52
  %59 = phi i32 [ %57, %52 ], [ 0, %44 ]
  %60 = tail call noundef zeroext i1 @_ZN11xercesc_2_510XMLChar1_011isValidNameEPKtj(ptr noundef nonnull %2, i32 noundef %59)
  br i1 %60, label %66, label %61

61:                                               ; preds = %41, %58, %3
  %62 = tail call ptr @__cxa_allocate_exception(i64 24) #18
  invoke void @_ZN11xercesc_2_512DOMExceptionC1EsPKt(ptr noundef nonnull align 8 dereferenceable(24) %62, i16 noundef signext 5, ptr noundef null)
          to label %63 unwind label %64

63:                                               ; preds = %61
  tail call void @__cxa_throw(ptr nonnull %62, ptr nonnull @_ZTIN11xercesc_2_512DOMExceptionE, ptr nonnull @_ZN11xercesc_2_512DOMExceptionD1Ev) #19
  unreachable

64:                                               ; preds = %61
  %65 = landingpad { ptr, i32 }
          cleanup
  tail call void @__cxa_free_exception(ptr %62) #18
  resume { ptr, i32 } %65

66:                                               ; preds = %41, %58
  %67 = tail call noundef ptr @_ZN11xercesc_2_515DOMDocumentImpl8allocateEmNS0_14NodeObjectTypeE(ptr noundef nonnull align 8 dereferenceable(253) %0, i64 noundef 128, i32 noundef 7)
  tail call void @_ZN11xercesc_2_516DOMElementNSImplC1EPNS_11DOMDocumentEPKtS4_(ptr noundef nonnull align 8 dereferenceable(128) %67, ptr noundef nonnull %0, ptr noundef %1, ptr noundef nonnull %2)
  ret ptr %67
}

declare void @_ZN11xercesc_2_516DOMElementNSImplC1EPNS_11DOMDocumentEPKtS4_(ptr noundef nonnull align 8 dereferenceable(128), ptr noundef, ptr noundef, ptr noundef) unnamed_addr #2

; Function Attrs: uwtable
define dso_local noundef ptr @_ZN11xercesc_2_515DOMDocumentImpl15createElementNSEPKtS2_ll(ptr noundef nonnull align 8 dereferenceable(253) %0, ptr noundef %1, ptr noundef %2, i64 noundef %3, i64 noundef %4) unnamed_addr #1 align 2 personality ptr @__gxx_personality_v0 {
  %6 = icmp eq ptr %2, null
  br i1 %6, label %63, label %7

7:                                                ; preds = %5
  %8 = getelementptr inbounds %"class.xercesc_2_5::DOMDocumentImpl", ptr %0, i64 0, i32 8
  %9 = load ptr, ptr %8, align 8, !tbaa !955
  %10 = icmp eq ptr %9, null
  br i1 %10, label %15, label %11

11:                                               ; preds = %7
  %12 = load i16, ptr %9, align 2, !tbaa !956
  %13 = load i16, ptr @_ZN11xercesc_2_56XMLUni12fgVersion1_1E, align 2, !tbaa !956
  %14 = icmp eq i16 %12, %13
  br i1 %14, label %18, label %46

15:                                               ; preds = %7
  %16 = load i16, ptr @_ZN11xercesc_2_56XMLUni12fgVersion1_1E, align 2, !tbaa !956
  %17 = icmp eq i16 %16, 0
  br i1 %17, label %29, label %46

18:                                               ; preds = %11, %23
  %19 = phi i16 [ %26, %23 ], [ %12, %11 ]
  %20 = phi ptr [ %25, %23 ], [ @_ZN11xercesc_2_56XMLUni12fgVersion1_1E, %11 ]
  %21 = phi ptr [ %24, %23 ], [ %9, %11 ]
  %22 = icmp eq i16 %19, 0
  br i1 %22, label %29, label %23

23:                                               ; preds = %18
  %24 = getelementptr inbounds i16, ptr %21, i64 1
  %25 = getelementptr inbounds i16, ptr %20, i64 1
  %26 = load i16, ptr %24, align 2, !tbaa !956
  %27 = load i16, ptr %25, align 2, !tbaa !956
  %28 = icmp eq i16 %26, %27
  br i1 %28, label %18, label %46

29:                                               ; preds = %18, %15
  %30 = load i16, ptr %2, align 2, !tbaa !956
  %31 = icmp eq i16 %30, 0
  br i1 %31, label %43, label %32

32:                                               ; preds = %29, %32
  %33 = phi ptr [ %34, %32 ], [ %2, %29 ]
  %34 = getelementptr inbounds i16, ptr %33, i64 1
  %35 = load i16, ptr %34, align 2, !tbaa !956
  %36 = icmp eq i16 %35, 0
  br i1 %36, label %37, label %32

37:                                               ; preds = %32
  %38 = ptrtoint ptr %34 to i64
  %39 = ptrtoint ptr %2 to i64
  %40 = sub i64 %38, %39
  %41 = lshr exact i64 %40, 1
  %42 = trunc i64 %41 to i32
  br label %43

43:                                               ; preds = %37, %29
  %44 = phi i32 [ %42, %37 ], [ 0, %29 ]
  %45 = tail call noundef zeroext i1 @_ZN11xercesc_2_510XMLChar1_111isValidNameEPKtj(ptr noundef nonnull %2, i32 noundef %44)
  br i1 %45, label %68, label %63

46:                                               ; preds = %23, %11, %15
  %47 = load i16, ptr %2, align 2, !tbaa !956
  %48 = icmp eq i16 %47, 0
  br i1 %48, label %60, label %49

49:                                               ; preds = %46, %49
  %50 = phi ptr [ %51, %49 ], [ %2, %46 ]
  %51 = getelementptr inbounds i16, ptr %50, i64 1
  %52 = load i16, ptr %51, align 2, !tbaa !956
  %53 = icmp eq i16 %52, 0
  br i1 %53, label %54, label %49

54:                                               ; preds = %49
  %55 = ptrtoint ptr %51 to i64
  %56 = ptrtoint ptr %2 to i64
  %57 = sub i64 %55, %56
  %58 = lshr exact i64 %57, 1
  %59 = trunc i64 %58 to i32
  br label %60

60:                                               ; preds = %46, %54
  %61 = phi i32 [ %59, %54 ], [ 0, %46 ]
  %62 = tail call noundef zeroext i1 @_ZN11xercesc_2_510XMLChar1_011isValidNameEPKtj(ptr noundef nonnull %2, i32 noundef %61)
  br i1 %62, label %68, label %63

63:                                               ; preds = %43, %60, %5
  %64 = tail call ptr @__cxa_allocate_exception(i64 24) #18
  invoke void @_ZN11xercesc_2_512DOMExceptionC1EsPKt(ptr noundef nonnull align 8 dereferenceable(24) %64, i16 noundef signext 5, ptr noundef null)
          to label %65 unwind label %66

65:                                               ; preds = %63
  tail call void @__cxa_throw(ptr nonnull %64, ptr nonnull @_ZTIN11xercesc_2_512DOMExceptionE, ptr nonnull @_ZN11xercesc_2_512DOMExceptionD1Ev) #19
  unreachable

66:                                               ; preds = %63
  %67 = landingpad { ptr, i32 }
          cleanup
  tail call void @__cxa_free_exception(ptr %64) #18
  resume { ptr, i32 } %67

68:                                               ; preds = %43, %60
  %69 = getelementptr inbounds %"class.xercesc_2_5::DOMDocumentImpl", ptr %0, i64 0, i32 14
  %70 = load i64, ptr %69, align 8, !tbaa !913
  %71 = icmp ult i64 %70, 144
  br i1 %71, label %76, label %72

72:                                               ; preds = %68
  %73 = getelementptr inbounds %"class.xercesc_2_5::DOMDocumentImpl", ptr %0, i64 0, i32 13
  %74 = load ptr, ptr %73, align 8, !tbaa !912
  %75 = add i64 %70, -144
  br label %86

76:                                               ; preds = %68
  %77 = getelementptr inbounds %"class.xercesc_2_5::DOMDocumentImpl", ptr %0, i64 0, i32 24
  %78 = load ptr, ptr %77, align 8, !tbaa !891
  %79 = load ptr, ptr %78, align 8, !tbaa !888
  %80 = getelementptr inbounds ptr, ptr %79, i64 2
  %81 = load ptr, ptr %80, align 8
  %82 = tail call noundef ptr %81(ptr noundef nonnull align 8 dereferenceable(8) %78, i64 noundef 65536)
  %83 = getelementptr inbounds %"class.xercesc_2_5::DOMDocumentImpl", ptr %0, i64 0, i32 12
  %84 = load ptr, ptr %83, align 8, !tbaa !910
  store ptr %84, ptr %82, align 8, !tbaa !911
  store ptr %82, ptr %83, align 8, !tbaa !910
  %85 = getelementptr inbounds i8, ptr %82, i64 8
  br label %86

86:                                               ; preds = %72, %76
  %87 = phi i64 [ %75, %72 ], [ 65384, %76 ]
  %88 = phi ptr [ %74, %72 ], [ %85, %76 ]
  %89 = getelementptr inbounds %"class.xercesc_2_5::DOMDocumentImpl", ptr %0, i64 0, i32 13
  %90 = getelementptr inbounds i8, ptr %88, i64 144
  store ptr %90, ptr %89, align 8, !tbaa !912
  store i64 %87, ptr %69, align 8, !tbaa !913
  tail call void @_ZN11xercesc_2_516XSDElementNSImplC1EPNS_11DOMDocumentEPKtS4_ll(ptr noundef nonnull align 8 dereferenceable(144) %88, ptr noundef nonnull %0, ptr noundef %1, ptr noundef nonnull %2, i64 noundef %3, i64 noundef %4)
  ret ptr %88
}

declare void @_ZN11xercesc_2_516XSDElementNSImplC1EPNS_11DOMDocumentEPKtS4_ll(ptr noundef nonnull align 8 dereferenceable(144), ptr noundef, ptr noundef, ptr noundef, i64 noundef, i64 noundef) unnamed_addr #2

; Function Attrs: uwtable
define dso_local noundef ptr @_ZN11xercesc_2_515DOMDocumentImpl17createAttributeNSEPKtS2_(ptr noundef nonnull align 8 dereferenceable(253) %0, ptr noundef %1, ptr noundef %2) unnamed_addr #1 align 2 personality ptr @__gxx_personality_v0 {
  %4 = icmp eq ptr %2, null
  br i1 %4, label %61, label %5

5:                                                ; preds = %3
  %6 = getelementptr inbounds %"class.xercesc_2_5::DOMDocumentImpl", ptr %0, i64 0, i32 8
  %7 = load ptr, ptr %6, align 8, !tbaa !955
  %8 = icmp eq ptr %7, null
  br i1 %8, label %13, label %9

9:                                                ; preds = %5
  %10 = load i16, ptr %7, align 2, !tbaa !956
  %11 = load i16, ptr @_ZN11xercesc_2_56XMLUni12fgVersion1_1E, align 2, !tbaa !956
  %12 = icmp eq i16 %10, %11
  br i1 %12, label %16, label %44

13:                                               ; preds = %5
  %14 = load i16, ptr @_ZN11xercesc_2_56XMLUni12fgVersion1_1E, align 2, !tbaa !956
  %15 = icmp eq i16 %14, 0
  br i1 %15, label %27, label %44

16:                                               ; preds = %9, %21
  %17 = phi i16 [ %24, %21 ], [ %10, %9 ]
  %18 = phi ptr [ %23, %21 ], [ @_ZN11xercesc_2_56XMLUni12fgVersion1_1E, %9 ]
  %19 = phi ptr [ %22, %21 ], [ %7, %9 ]
  %20 = icmp eq i16 %17, 0
  br i1 %20, label %27, label %21

21:                                               ; preds = %16
  %22 = getelementptr inbounds i16, ptr %19, i64 1
  %23 = getelementptr inbounds i16, ptr %18, i64 1
  %24 = load i16, ptr %22, align 2, !tbaa !956
  %25 = load i16, ptr %23, align 2, !tbaa !956
  %26 = icmp eq i16 %24, %25
  br i1 %26, label %16, label %44

27:                                               ; preds = %16, %13
  %28 = load i16, ptr %2, align 2, !tbaa !956
  %29 = icmp eq i16 %28, 0
  br i1 %29, label %41, label %30

30:                                               ; preds = %27, %30
  %31 = phi ptr [ %32, %30 ], [ %2, %27 ]
  %32 = getelementptr inbounds i16, ptr %31, i64 1
  %33 = load i16, ptr %32, align 2, !tbaa !956
  %34 = icmp eq i16 %33, 0
  br i1 %34, label %35, label %30

35:                                               ; preds = %30
  %36 = ptrtoint ptr %32 to i64
  %37 = ptrtoint ptr %2 to i64
  %38 = sub i64 %36, %37
  %39 = lshr exact i64 %38, 1
  %40 = trunc i64 %39 to i32
  br label %41

41:                                               ; preds = %35, %27
  %42 = phi i32 [ %40, %35 ], [ 0, %27 ]
  %43 = tail call noundef zeroext i1 @_ZN11xercesc_2_510XMLChar1_111isValidNameEPKtj(ptr noundef nonnull %2, i32 noundef %42)
  br i1 %43, label %66, label %61

44:                                               ; preds = %21, %9, %13
  %45 = load i16, ptr %2, align 2, !tbaa !956
  %46 = icmp eq i16 %45, 0
  br i1 %46, label %58, label %47

47:                                               ; preds = %44, %47
  %48 = phi ptr [ %49, %47 ], [ %2, %44 ]
  %49 = getelementptr inbounds i16, ptr %48, i64 1
  %50 = load i16, ptr %49, align 2, !tbaa !956
  %51 = icmp eq i16 %50, 0
  br i1 %51, label %52, label %47

52:                                               ; preds = %47
  %53 = ptrtoint ptr %49 to i64
  %54 = ptrtoint ptr %2 to i64
  %55 = sub i64 %53, %54
  %56 = lshr exact i64 %55, 1
  %57 = trunc i64 %56 to i32
  br label %58

58:                                               ; preds = %44, %52
  %59 = phi i32 [ %57, %52 ], [ 0, %44 ]
  %60 = tail call noundef zeroext i1 @_ZN11xercesc_2_510XMLChar1_011isValidNameEPKtj(ptr noundef nonnull %2, i32 noundef %59)
  br i1 %60, label %66, label %61

61:                                               ; preds = %41, %58, %3
  %62 = tail call ptr @__cxa_allocate_exception(i64 24) #18
  invoke void @_ZN11xercesc_2_512DOMExceptionC1EsPKt(ptr noundef nonnull align 8 dereferenceable(24) %62, i16 noundef signext 5, ptr noundef null)
          to label %63 unwind label %64

63:                                               ; preds = %61
  tail call void @__cxa_throw(ptr nonnull %62, ptr nonnull @_ZTIN11xercesc_2_512DOMExceptionE, ptr nonnull @_ZN11xercesc_2_512DOMExceptionD1Ev) #19
  unreachable

64:                                               ; preds = %61
  %65 = landingpad { ptr, i32 }
          cleanup
  tail call void @__cxa_free_exception(ptr %62) #18
  resume { ptr, i32 } %65

66:                                               ; preds = %41, %58
  %67 = tail call noundef ptr @_ZN11xercesc_2_515DOMDocumentImpl8allocateEmNS0_14NodeObjectTypeE(ptr noundef nonnull align 8 dereferenceable(253) %0, i64 noundef 96, i32 noundef 1)
  tail call void @_ZN11xercesc_2_513DOMAttrNSImplC1EPNS_11DOMDocumentEPKtS4_(ptr noundef nonnull align 8 dereferenceable(96) %67, ptr noundef nonnull %0, ptr noundef %1, ptr noundef nonnull %2)
  ret ptr %67
}

declare void @_ZN11xercesc_2_513DOMAttrNSImplC1EPNS_11DOMDocumentEPKtS4_(ptr noundef nonnull align 8 dereferenceable(96), ptr noundef, ptr noundef, ptr noundef) unnamed_addr #2

; Function Attrs: uwtable
define dso_local noundef ptr @_ZNK11xercesc_2_515DOMDocumentImpl22getElementsByTagNameNSEPKtS2_(ptr noundef nonnull align 8 dereferenceable(253) %0, ptr noundef %1, ptr noundef %2) unnamed_addr #1 align 2 {
  %4 = getelementptr inbounds i8, ptr %0, i64 24
  %5 = tail call noundef ptr @_ZN11xercesc_2_515DOMDocumentImpl15getDeepNodeListEPKNS_7DOMNodeEPKtS5_(ptr noundef nonnull align 8 dereferenceable(253) %0, ptr noundef nonnull %4, ptr noundef %1, ptr noundef %2)
  ret ptr %5
}

; Function Attrs: uwtable
define dso_local noundef ptr @_ZN11xercesc_2_515DOMDocumentImpl15getDeepNodeListEPKNS_7DOMNodeEPKtS5_(ptr nocapture noundef nonnull align 8 dereferenceable(253) %0, ptr noundef %1, ptr noundef %2, ptr noundef %3) local_unnamed_addr #1 align 2 personality ptr @__gxx_personality_v0 {
  %5 = alloca i64, align 8
  %6 = getelementptr inbounds %"class.xercesc_2_5::DOMDocumentImpl", ptr %0, i64 0, i32 17
  %7 = load ptr, ptr %6, align 8, !tbaa !915
  %8 = icmp eq ptr %7, null
  br i1 %8, label %9, label %32

9:                                                ; preds = %4
  %10 = getelementptr inbounds %"class.xercesc_2_5::DOMDocumentImpl", ptr %0, i64 0, i32 14
  %11 = load i64, ptr %10, align 8, !tbaa !913
  %12 = icmp ult i64 %11, 64
  br i1 %12, label %17, label %13

13:                                               ; preds = %9
  %14 = getelementptr inbounds %"class.xercesc_2_5::DOMDocumentImpl", ptr %0, i64 0, i32 13
  %15 = load ptr, ptr %14, align 8, !tbaa !912
  %16 = add i64 %11, -64
  br label %27

17:                                               ; preds = %9
  %18 = getelementptr inbounds %"class.xercesc_2_5::DOMDocumentImpl", ptr %0, i64 0, i32 24
  %19 = load ptr, ptr %18, align 8, !tbaa !891
  %20 = load ptr, ptr %19, align 8, !tbaa !888
  %21 = getelementptr inbounds ptr, ptr %20, i64 2
  %22 = load ptr, ptr %21, align 8
  %23 = tail call noundef ptr %22(ptr noundef nonnull align 8 dereferenceable(8) %19, i64 noundef 65536)
  %24 = getelementptr inbounds %"class.xercesc_2_5::DOMDocumentImpl", ptr %0, i64 0, i32 12
  %25 = load ptr, ptr %24, align 8, !tbaa !910
  store ptr %25, ptr %23, align 8, !tbaa !911
  store ptr %23, ptr %24, align 8, !tbaa !910
  %26 = getelementptr inbounds i8, ptr %23, i64 8
  br label %27

27:                                               ; preds = %13, %17
  %28 = phi i64 [ %16, %13 ], [ 65464, %17 ]
  %29 = phi ptr [ %15, %13 ], [ %26, %17 ]
  %30 = getelementptr inbounds %"class.xercesc_2_5::DOMDocumentImpl", ptr %0, i64 0, i32 13
  %31 = getelementptr inbounds i8, ptr %29, i64 64
  store ptr %31, ptr %30, align 8, !tbaa !912
  store i64 %28, ptr %10, align 8, !tbaa !913
  tail call void @_ZN11xercesc_2_519DOMDeepNodeListPoolINS_19DOMDeepNodeListImplEEC2Embm(ptr noundef nonnull align 8 dereferenceable(64) %29, i64 noundef 109, i1 noundef zeroext false, i64 noundef 128)
  store ptr %29, ptr %6, align 8, !tbaa !915
  br label %32

32:                                               ; preds = %27, %4
  %33 = phi ptr [ %29, %27 ], [ %7, %4 ]
  call void @llvm.lifetime.start.p0(i64 8, ptr nonnull %5) #18
  %34 = call noundef ptr @_ZN11xercesc_2_519DOMDeepNodeListPoolINS_19DOMDeepNodeListImplEE14findBucketElemEPKvPKtS6_Rm(ptr noundef nonnull align 8 dereferenceable(64) %33, ptr noundef %1, ptr noundef %3, ptr noundef %2, ptr noundef nonnull align 8 dereferenceable(8) %5)
  %35 = icmp eq ptr %34, null
  br i1 %35, label %36, label %37

36:                                               ; preds = %32
  call void @llvm.lifetime.end.p0(i64 8, ptr nonnull %5) #18
  br label %40

37:                                               ; preds = %32
  %38 = load ptr, ptr %34, align 8, !tbaa !942
  call void @llvm.lifetime.end.p0(i64 8, ptr nonnull %5) #18
  %39 = icmp eq ptr %38, null
  br i1 %39, label %40, label %85

40:                                               ; preds = %36, %37
  %41 = load ptr, ptr %6, align 8, !tbaa !915
  %42 = getelementptr inbounds %"class.xercesc_2_5::DOMDocumentImpl", ptr %0, i64 0, i32 14
  %43 = load i64, ptr %42, align 8, !tbaa !913
  %44 = icmp ult i64 %43, 64
  br i1 %44, label %49, label %45

45:                                               ; preds = %40
  %46 = getelementptr inbounds %"class.xercesc_2_5::DOMDocumentImpl", ptr %0, i64 0, i32 13
  %47 = load ptr, ptr %46, align 8, !tbaa !912
  %48 = add i64 %43, -64
  br label %59

49:                                               ; preds = %40
  %50 = getelementptr inbounds %"class.xercesc_2_5::DOMDocumentImpl", ptr %0, i64 0, i32 24
  %51 = load ptr, ptr %50, align 8, !tbaa !891
  %52 = load ptr, ptr %51, align 8, !tbaa !888
  %53 = getelementptr inbounds ptr, ptr %52, i64 2
  %54 = load ptr, ptr %53, align 8
  %55 = call noundef ptr %54(ptr noundef nonnull align 8 dereferenceable(8) %51, i64 noundef 65536)
  %56 = getelementptr inbounds %"class.xercesc_2_5::DOMDocumentImpl", ptr %0, i64 0, i32 12
  %57 = load ptr, ptr %56, align 8, !tbaa !910
  store ptr %57, ptr %55, align 8, !tbaa !911
  store ptr %55, ptr %56, align 8, !tbaa !910
  %58 = getelementptr inbounds i8, ptr %55, i64 8
  br label %59

59:                                               ; preds = %45, %49
  %60 = phi i64 [ %48, %45 ], [ 65464, %49 ]
  %61 = phi ptr [ %47, %45 ], [ %58, %49 ]
  %62 = getelementptr inbounds %"class.xercesc_2_5::DOMDocumentImpl", ptr %0, i64 0, i32 13
  %63 = getelementptr inbounds i8, ptr %61, i64 64
  store ptr %63, ptr %62, align 8, !tbaa !912
  store i64 %60, ptr %42, align 8, !tbaa !913
  call void @_ZN11xercesc_2_519DOMDeepNodeListImplC1EPKNS_7DOMNodeEPKtS5_(ptr noundef nonnull align 8 dereferenceable(58) %61, ptr noundef %1, ptr noundef %2, ptr noundef %3)
  %64 = call noundef i64 @_ZN11xercesc_2_519DOMDeepNodeListPoolINS_19DOMDeepNodeListImplEE3putEPvPtS4_PS1_(ptr noundef nonnull align 8 dereferenceable(64) %41, ptr noundef %1, ptr noundef %3, ptr noundef %2, ptr noundef nonnull %61)
  %65 = load ptr, ptr %6, align 8, !tbaa !915
  %66 = shl i64 %64, 32
  %67 = ashr exact i64 %66, 32
  %68 = getelementptr inbounds %"class.xercesc_2_5::DOMDeepNodeListPool", ptr %65, i64 0, i32 6
  %69 = load i64, ptr %68, align 8
  %70 = freeze i64 %69
  %71 = add nsw i64 %67, -1
  %72 = icmp ult i64 %71, %70
  br i1 %72, label %80, label %73

73:                                               ; preds = %59
  %74 = call ptr @__cxa_allocate_exception(i64 48) #18
  %75 = getelementptr inbounds %"class.xercesc_2_5::DOMDeepNodeListPool", ptr %65, i64 0, i32 7
  %76 = load ptr, ptr %75, align 8, !tbaa !943
  invoke void @_ZN11xercesc_2_524IllegalArgumentExceptionC2EPKcjNS_10XMLExcepts5CodesEPNS_13MemoryManagerE(ptr noundef nonnull align 8 dereferenceable(48) %74, ptr noundef nonnull @.str.1, i32 noundef 298, i32 noundef 66, ptr noundef %76)
          to label %77 unwind label %78

77:                                               ; preds = %73
  call void @__cxa_throw(ptr nonnull %74, ptr nonnull @_ZTIN11xercesc_2_524IllegalArgumentExceptionE, ptr nonnull @_ZN11xercesc_2_512XMLExceptionD2Ev) #19
  unreachable

78:                                               ; preds = %73
  %79 = landingpad { ptr, i32 }
          cleanup
  call void @__cxa_free_exception(ptr %74) #18
  resume { ptr, i32 } %79

80:                                               ; preds = %59
  %81 = getelementptr inbounds %"class.xercesc_2_5::DOMDeepNodeListPool", ptr %65, i64 0, i32 4
  %82 = load ptr, ptr %81, align 8, !tbaa !947
  %83 = getelementptr inbounds ptr, ptr %82, i64 %67
  %84 = load ptr, ptr %83, align 8, !tbaa !911
  br label %85

85:                                               ; preds = %80, %37
  %86 = phi ptr [ %38, %37 ], [ %84, %80 ]
  ret ptr %86
}

; Function Attrs: uwtable
define dso_local noundef ptr @_ZNK11xercesc_2_515DOMDocumentImpl14getElementByIdEPKt(ptr nocapture noundef nonnull readonly align 8 dereferenceable(253) %0, ptr noundef %1) unnamed_addr #1 align 2 {
  %3 = getelementptr inbounds %"class.xercesc_2_5::DOMDocumentImpl", ptr %0, i64 0, i32 3
  %4 = load ptr, ptr %3, align 8, !tbaa !965
  %5 = icmp eq ptr %4, null
  br i1 %5, label %14, label %6

6:                                                ; preds = %2
  %7 = tail call noundef ptr @_ZN11xercesc_2_512DOMNodeIDMap4findEPKt(ptr noundef nonnull align 8 dereferenceable(56) %4, ptr noundef %1)
  %8 = icmp eq ptr %7, null
  br i1 %8, label %14, label %9

9:                                                ; preds = %6
  %10 = load ptr, ptr %7, align 8, !tbaa !888
  %11 = getelementptr inbounds ptr, ptr %10, i64 44
  %12 = load ptr, ptr %11, align 8
  %13 = tail call noundef ptr %12(ptr noundef nonnull align 8 dereferenceable(8) %7)
  br label %14

14:                                               ; preds = %9, %6, %2
  %15 = phi ptr [ null, %2 ], [ %13, %9 ], [ null, %6 ]
  ret ptr %15
}

declare noundef ptr @_ZN11xercesc_2_512DOMNodeIDMap4findEPKt(ptr noundef nonnull align 8 dereferenceable(56), ptr noundef) local_unnamed_addr #2

; Function Attrs: nofree norecurse nosync nounwind memory(read, inaccessiblemem: none) uwtable
define dso_local noundef i32 @_ZN11xercesc_2_515DOMDocumentImpl20indexofQualifiedNameEPKt(ptr noundef %0) local_unnamed_addr #9 align 2 {
  %2 = icmp eq ptr %0, null
  br i1 %2, label %20, label %3

3:                                                ; preds = %1
  %4 = load i16, ptr %0, align 2, !tbaa !956
  %5 = icmp eq i16 %4, 0
  br i1 %5, label %20, label %6

6:                                                ; preds = %3, %6
  %7 = phi ptr [ %8, %6 ], [ %0, %3 ]
  %8 = getelementptr inbounds i16, ptr %7, i64 1
  %9 = load i16, ptr %8, align 2, !tbaa !956
  %10 = icmp eq i16 %9, 0
  br i1 %10, label %11, label %6

11:                                               ; preds = %6
  %12 = ptrtoint ptr %8 to i64
  %13 = ptrtoint ptr %0 to i64
  %14 = sub i64 %12, %13
  %15 = lshr exact i64 %14, 1
  %16 = trunc i64 %15 to i32
  %17 = icmp sgt i32 %16, 0
  br i1 %17, label %18, label %20

18:                                               ; preds = %11
  %19 = and i64 %15, 4294967295
  br label %35

20:                                               ; preds = %35, %1, %3, %11
  %21 = phi i32 [ %16, %11 ], [ 0, %3 ], [ 0, %1 ], [ %16, %35 ]
  %22 = phi i32 [ -1, %11 ], [ -1, %3 ], [ -1, %1 ], [ %44, %35 ]
  %23 = phi i32 [ 0, %11 ], [ 0, %3 ], [ 0, %1 ], [ %46, %35 ]
  %24 = icmp eq i32 %21, 0
  %25 = icmp ugt i32 %23, 1
  %26 = or i1 %24, %25
  %27 = icmp eq i32 %22, 0
  %28 = select i1 %26, i1 true, i1 %27
  %29 = add nsw i32 %21, -1
  %30 = icmp eq i32 %22, %29
  %31 = select i1 %28, i1 true, i1 %30
  %32 = icmp eq i32 %23, 0
  %33 = select i1 %32, i32 0, i32 %22
  %34 = select i1 %31, i32 -1, i32 %33
  ret i32 %34

35:                                               ; preds = %18, %35
  %36 = phi i64 [ 0, %18 ], [ %47, %35 ]
  %37 = phi i32 [ 0, %18 ], [ %46, %35 ]
  %38 = phi i32 [ -1, %18 ], [ %44, %35 ]
  %39 = getelementptr inbounds i16, ptr %0, i64 %36
  %40 = load i16, ptr %39, align 2, !tbaa !956
  %41 = freeze i16 %40
  %42 = icmp eq i16 %41, 58
  %43 = trunc i64 %36 to i32
  %44 = select i1 %42, i32 %43, i32 %38
  %45 = zext i1 %42 to i32
  %46 = add i32 %37, %45
  %47 = add nuw nsw i64 %36, 1
  %48 = icmp eq i64 %47, %19
  br i1 %48, label %20, label %35
}

; Function Attrs: mustprogress nofree norecurse nosync nounwind willreturn memory(argmem: read) uwtable
define dso_local noundef ptr @_ZNK11xercesc_2_515DOMDocumentImpl10getBaseURIEv(ptr nocapture noundef nonnull readonly align 8 dereferenceable(253) %0) unnamed_addr #7 align 2 {
  %2 = getelementptr inbounds %"class.xercesc_2_5::DOMDocumentImpl", ptr %0, i64 0, i32 9
  %3 = load ptr, ptr %2, align 8, !tbaa !966
  ret ptr %3
}

; Function Attrs: mustprogress nofree norecurse nosync nounwind willreturn memory(argmem: read) uwtable
define dso_local noundef ptr @_ZThn24_NK11xercesc_2_515DOMDocumentImpl10getBaseURIEv(ptr nocapture noundef readonly %0) unnamed_addr #7 align 2 {
  %2 = getelementptr inbounds i8, ptr %0, i64 96
  %3 = load ptr, ptr %2, align 8, !tbaa !966
  ret ptr %3
}

; Function Attrs: uwtable
define dso_local noundef ptr @_ZN11xercesc_2_515DOMDocumentImpl11createRangeEv(ptr noundef nonnull align 8 dereferenceable(253) %0) unnamed_addr #1 align 2 personality ptr @__gxx_personality_v0 {
  %2 = getelementptr inbounds %"class.xercesc_2_5::DOMDocumentImpl", ptr %0, i64 0, i32 14
  %3 = load i64, ptr %2, align 8, !tbaa !913
  %4 = icmp ult i64 %3, 80
  br i1 %4, label %9, label %5

5:                                                ; preds = %1
  %6 = getelementptr inbounds %"class.xercesc_2_5::DOMDocumentImpl", ptr %0, i64 0, i32 13
  %7 = load ptr, ptr %6, align 8, !tbaa !912
  %8 = add i64 %3, -80
  br label %19

9:                                                ; preds = %1
  %10 = getelementptr inbounds %"class.xercesc_2_5::DOMDocumentImpl", ptr %0, i64 0, i32 24
  %11 = load ptr, ptr %10, align 8, !tbaa !891
  %12 = load ptr, ptr %11, align 8, !tbaa !888
  %13 = getelementptr inbounds ptr, ptr %12, i64 2
  %14 = load ptr, ptr %13, align 8
  %15 = tail call noundef ptr %14(ptr noundef nonnull align 8 dereferenceable(8) %11, i64 noundef 65536)
  %16 = getelementptr inbounds %"class.xercesc_2_5::DOMDocumentImpl", ptr %0, i64 0, i32 12
  %17 = load ptr, ptr %16, align 8, !tbaa !910
  store ptr %17, ptr %15, align 8, !tbaa !911
  store ptr %15, ptr %16, align 8, !tbaa !910
  %18 = getelementptr inbounds i8, ptr %15, i64 8
  br label %19

19:                                               ; preds = %5, %9
  %20 = phi i64 [ %8, %5 ], [ 65448, %9 ]
  %21 = phi ptr [ %7, %5 ], [ %18, %9 ]
  %22 = getelementptr inbounds %"class.xercesc_2_5::DOMDocumentImpl", ptr %0, i64 0, i32 13
  %23 = getelementptr inbounds i8, ptr %21, i64 80
  store ptr %23, ptr %22, align 8, !tbaa !912
  store i64 %20, ptr %2, align 8, !tbaa !913
  %24 = getelementptr inbounds %"class.xercesc_2_5::DOMDocumentImpl", ptr %0, i64 0, i32 24
  %25 = load ptr, ptr %24, align 8, !tbaa !891
  tail call void @_ZN11xercesc_2_512DOMRangeImplC1EPNS_11DOMDocumentEPNS_13MemoryManagerE(ptr noundef nonnull align 8 dereferenceable(80) %21, ptr noundef nonnull %0, ptr noundef %25)
  %26 = getelementptr inbounds %"class.xercesc_2_5::DOMDocumentImpl", ptr %0, i64 0, i32 22
  %27 = load ptr, ptr %26, align 8, !tbaa !916
  %28 = icmp eq ptr %27, null
  br i1 %28, label %29, label %46

29:                                               ; preds = %19
  %30 = load ptr, ptr %24, align 8, !tbaa !891
  %31 = tail call noundef ptr @_ZN11xercesc_2_57XMemorynwEmPNS_13MemoryManagerE(i64 noundef 40, ptr noundef %30)
  %32 = load ptr, ptr %24, align 8, !tbaa !891
  store ptr getelementptr inbounds ({ [9 x ptr] }, ptr @_ZTVN11xercesc_2_515BaseRefVectorOfINS_12DOMRangeImplEEE, i64 0, inrange i32 0, i64 2), ptr %31, align 8, !tbaa !888
  %33 = getelementptr inbounds %"class.xercesc_2_5::BaseRefVectorOf", ptr %31, i64 0, i32 1
  store i8 0, ptr %33, align 8, !tbaa !967
  %34 = getelementptr inbounds %"class.xercesc_2_5::BaseRefVectorOf", ptr %31, i64 0, i32 2
  store i32 0, ptr %34, align 4, !tbaa !969
  %35 = getelementptr inbounds %"class.xercesc_2_5::BaseRefVectorOf", ptr %31, i64 0, i32 3
  store i32 1, ptr %35, align 8, !tbaa !970
  %36 = getelementptr inbounds %"class.xercesc_2_5::BaseRefVectorOf", ptr %31, i64 0, i32 4
  store ptr null, ptr %36, align 8, !tbaa !971
  %37 = getelementptr inbounds %"class.xercesc_2_5::BaseRefVectorOf", ptr %31, i64 0, i32 5
  store ptr %32, ptr %37, align 8, !tbaa !972
  %38 = load ptr, ptr %32, align 8, !tbaa !888
  %39 = getelementptr inbounds ptr, ptr %38, i64 2
  %40 = load ptr, ptr %39, align 8
  %41 = invoke noundef ptr %40(ptr noundef nonnull align 8 dereferenceable(8) %32, i64 noundef 8)
          to label %42 unwind label %43

42:                                               ; preds = %29
  store ptr %41, ptr %36, align 8, !tbaa !971
  store ptr null, ptr %41, align 8, !tbaa !911
  store ptr getelementptr inbounds ({ [9 x ptr] }, ptr @_ZTVN11xercesc_2_511RefVectorOfINS_12DOMRangeImplEEE, i64 0, inrange i32 0, i64 2), ptr %31, align 8, !tbaa !888
  store ptr %31, ptr %26, align 8, !tbaa !916
  br label %46

43:                                               ; preds = %29
  %44 = landingpad { ptr, i32 }
          cleanup
  invoke void @_ZN11xercesc_2_57XMemorydlEPvPNS_13MemoryManagerE(ptr noundef nonnull %31, ptr noundef %30)
          to label %45 unwind label %107

45:                                               ; preds = %43
  resume { ptr, i32 } %44

46:                                               ; preds = %42, %19
  %47 = phi ptr [ %31, %42 ], [ %27, %19 ]
  %48 = getelementptr inbounds %"class.xercesc_2_5::BaseRefVectorOf", ptr %47, i64 0, i32 2
  %49 = load i32, ptr %48, align 4, !tbaa !969
  %50 = add i32 %49, 1
  %51 = getelementptr inbounds %"class.xercesc_2_5::BaseRefVectorOf", ptr %47, i64 0, i32 3
  %52 = load i32, ptr %51, align 8, !tbaa !970
  %53 = icmp ult i32 %50, %52
  br i1 %53, label %54, label %57

54:                                               ; preds = %46
  %55 = getelementptr inbounds %"class.xercesc_2_5::BaseRefVectorOf", ptr %47, i64 0, i32 4
  %56 = load ptr, ptr %55, align 8, !tbaa !971
  br label %101

57:                                               ; preds = %46
  %58 = add i32 %52, 32
  %59 = tail call i32 @llvm.umax.i32(i32 %50, i32 %58)
  %60 = getelementptr inbounds %"class.xercesc_2_5::BaseRefVectorOf", ptr %47, i64 0, i32 5
  %61 = load ptr, ptr %60, align 8, !tbaa !972
  %62 = zext i32 %59 to i64
  %63 = shl nuw nsw i64 %62, 3
  %64 = load ptr, ptr %61, align 8, !tbaa !888
  %65 = getelementptr inbounds ptr, ptr %64, i64 2
  %66 = load ptr, ptr %65, align 8
  %67 = tail call noundef ptr %66(ptr noundef nonnull align 8 dereferenceable(8) %61, i64 noundef %63)
  %68 = load i32, ptr %48, align 4, !tbaa !969
  %69 = icmp eq i32 %68, 0
  br i1 %69, label %73, label %70

70:                                               ; preds = %57
  %71 = getelementptr inbounds %"class.xercesc_2_5::BaseRefVectorOf", ptr %47, i64 0, i32 4
  %72 = zext i32 %68 to i64
  br label %84

73:                                               ; preds = %84, %57
  %74 = icmp ult i32 %68, %59
  br i1 %74, label %75, label %92

75:                                               ; preds = %73
  %76 = zext i32 %68 to i64
  %77 = shl nuw nsw i64 %76, 3
  %78 = getelementptr i8, ptr %67, i64 %77
  %79 = xor i32 %68, -1
  %80 = add i32 %59, %79
  %81 = zext i32 %80 to i64
  %82 = shl nuw nsw i64 %81, 3
  %83 = add nuw nsw i64 %82, 8
  tail call void @llvm.memset.p0.i64(ptr noundef nonnull align 8 dereferenceable(1) %78, i8 0, i64 %83, i1 false), !tbaa !911
  br label %92

84:                                               ; preds = %84, %70
  %85 = phi i64 [ 0, %70 ], [ %90, %84 ]
  %86 = load ptr, ptr %71, align 8, !tbaa !971
  %87 = getelementptr inbounds ptr, ptr %86, i64 %85
  %88 = load ptr, ptr %87, align 8, !tbaa !911
  %89 = getelementptr inbounds ptr, ptr %67, i64 %85
  store ptr %88, ptr %89, align 8, !tbaa !911
  %90 = add nuw nsw i64 %85, 1
  %91 = icmp eq i64 %90, %72
  br i1 %91, label %73, label %84

92:                                               ; preds = %75, %73
  %93 = load ptr, ptr %60, align 8, !tbaa !972
  %94 = getelementptr inbounds %"class.xercesc_2_5::BaseRefVectorOf", ptr %47, i64 0, i32 4
  %95 = load ptr, ptr %94, align 8, !tbaa !971
  %96 = load ptr, ptr %93, align 8, !tbaa !888
  %97 = getelementptr inbounds ptr, ptr %96, i64 3
  %98 = load ptr, ptr %97, align 8
  tail call void %98(ptr noundef nonnull align 8 dereferenceable(8) %93, ptr noundef %95)
  store ptr %67, ptr %94, align 8, !tbaa !971
  store i32 %59, ptr %51, align 8, !tbaa !970
  %99 = load i32, ptr %48, align 4, !tbaa !969
  %100 = add i32 %99, 1
  br label %101

101:                                              ; preds = %54, %92
  %102 = phi i32 [ %50, %54 ], [ %100, %92 ]
  %103 = phi i32 [ %49, %54 ], [ %99, %92 ]
  %104 = phi ptr [ %56, %54 ], [ %67, %92 ]
  %105 = zext i32 %103 to i64
  %106 = getelementptr inbounds ptr, ptr %104, i64 %105
  store ptr %21, ptr %106, align 8, !tbaa !911
  store i32 %102, ptr %48, align 4, !tbaa !969
  ret ptr %21

107:                                              ; preds = %43
  %108 = landingpad { ptr, i32 }
          catch ptr null
  %109 = extractvalue { ptr, i32 } %108, 0
  tail call void @__clang_call_terminate(ptr %109) #17
  unreachable
}

declare void @_ZN11xercesc_2_512DOMRangeImplC1EPNS_11DOMDocumentEPNS_13MemoryManagerE(ptr noundef nonnull align 8 dereferenceable(80), ptr noundef, ptr noundef) unnamed_addr #2

; Function Attrs: mustprogress nofree norecurse nosync nounwind willreturn memory(argmem: read) uwtable
define dso_local noundef ptr @_ZNK11xercesc_2_515DOMDocumentImpl9getRangesEv(ptr nocapture noundef nonnull readonly align 8 dereferenceable(253) %0) unnamed_addr #7 align 2 {
  %2 = getelementptr inbounds %"class.xercesc_2_5::DOMDocumentImpl", ptr %0, i64 0, i32 22
  %3 = load ptr, ptr %2, align 8, !tbaa !916
  ret ptr %3
}

; Function Attrs: uwtable
define dso_local void @_ZN11xercesc_2_515DOMDocumentImpl11removeRangeEPNS_12DOMRangeImplE(ptr nocapture noundef nonnull readonly align 8 dereferenceable(253) %0, ptr noundef readnone %1) unnamed_addr #1 align 2 personality ptr @__gxx_personality_v0 {
  %3 = getelementptr inbounds %"class.xercesc_2_5::DOMDocumentImpl", ptr %0, i64 0, i32 22
  %4 = load ptr, ptr %3, align 8, !tbaa !916
  %5 = icmp eq ptr %4, null
  br i1 %5, label %37, label %6

6:                                                ; preds = %2
  %7 = getelementptr inbounds %"class.xercesc_2_5::BaseRefVectorOf", ptr %4, i64 0, i32 2
  %8 = load i32, ptr %7, align 4, !tbaa !969
  %9 = zext i32 %8 to i64
  %10 = icmp eq i32 %8, 0
  br i1 %10, label %37, label %11

11:                                               ; preds = %6
  %12 = getelementptr inbounds %"class.xercesc_2_5::BaseRefVectorOf", ptr %4, i64 0, i32 4
  br label %16

13:                                               ; preds = %27
  %14 = add nuw nsw i64 %17, 1
  %15 = icmp eq i64 %14, %9
  br i1 %15, label %37, label %16

16:                                               ; preds = %11, %13
  %17 = phi i64 [ 0, %11 ], [ %14, %13 ]
  %18 = trunc i64 %17 to i32
  %19 = icmp eq i32 %8, %18
  br i1 %19, label %20, label %27

20:                                               ; preds = %16
  %21 = tail call ptr @__cxa_allocate_exception(i64 48) #18
  %22 = getelementptr inbounds %"class.xercesc_2_5::BaseRefVectorOf", ptr %4, i64 0, i32 5
  %23 = load ptr, ptr %22, align 8, !tbaa !972
  invoke void @_ZN11xercesc_2_530ArrayIndexOutOfBoundsExceptionC2EPKcjNS_10XMLExcepts5CodesEPNS_13MemoryManagerE(ptr noundef nonnull align 8 dereferenceable(48) %21, ptr noundef nonnull @.str, i32 noundef 289, i32 noundef 109, ptr noundef %23)
          to label %24 unwind label %25

24:                                               ; preds = %20
  tail call void @__cxa_throw(ptr nonnull %21, ptr nonnull @_ZTIN11xercesc_2_530ArrayIndexOutOfBoundsExceptionE, ptr nonnull @_ZN11xercesc_2_512XMLExceptionD2Ev) #19
  unreachable

25:                                               ; preds = %20
  %26 = landingpad { ptr, i32 }
          cleanup
  tail call void @__cxa_free_exception(ptr %21) #18
  resume { ptr, i32 } %26

27:                                               ; preds = %16
  %28 = load ptr, ptr %12, align 8, !tbaa !971
  %29 = and i64 %17, 4294967295
  %30 = getelementptr inbounds ptr, ptr %28, i64 %29
  %31 = load ptr, ptr %30, align 8, !tbaa !911
  %32 = icmp eq ptr %31, %1
  br i1 %32, label %33, label %13

33:                                               ; preds = %27
  %34 = load ptr, ptr %4, align 8, !tbaa !888
  %35 = getelementptr inbounds ptr, ptr %34, i64 4
  %36 = load ptr, ptr %35, align 8
  tail call void %36(ptr noundef nonnull align 8 dereferenceable(40) %4, i32 noundef %18)
  br label %37

37:                                               ; preds = %13, %6, %33, %2
  ret void
}

