; ModuleID = 'DOMParser.cpp'
source_filename = "DOMParser.cpp"
target datalayout = "e-m:e-p270:32:32-p271:32:32-p272:64:64-i64:64-f80:128-n8:16:32:64-S128"
target triple = "x86_64-unknown-linux-gnu"

%"class.xercesc_2_5::DOMParser" = type { %"class.xercesc_2_5::XMLDocumentHandler", %"class.xercesc_2_5::XMLErrorReporter", %"class.xercesc_2_5::XMLEntityHandler", %"class.xercesc_2_5::DocTypeHandler", i8, i8, i8, i8, i8, %"class.xercesc_2_5::DOM_Node", %"class.xercesc_2_5::DOM_Node", %"class.xercesc_2_5::DOM_Document", ptr, ptr, ptr, ptr, ptr, ptr, ptr, ptr, ptr, ptr, ptr, ptr }
%"class.xercesc_2_5::XMLDocumentHandler" = type { ptr }
%"class.xercesc_2_5::XMLErrorReporter" = type { ptr }
%"class.xercesc_2_5::XMLEntityHandler" = type { ptr }
%"class.xercesc_2_5::DocTypeHandler" = type { ptr }
%"class.xercesc_2_5::DOM_Node" = type { ptr }
%"class.xercesc_2_5::DOM_Document" = type { %"class.xercesc_2_5::DOM_Node" }
%"class.xercesc_2_5::GrammarResolver" = type { i8, i8, i8, ptr, ptr, ptr, ptr, ptr, ptr, ptr, ptr, ptr }
%"class.xercesc_2_5::XMLScanner" = type { ptr, i8, i8, i8, i8, i8, i8, i8, i8, i8, i8, i8, i8, i8, i8, i8, i8, i32, i32, i32, i32, i32, i32, i32, i32, ptr, i32, i32, i32, i32, i32, ptr, ptr, ptr, ptr, ptr, ptr, ptr, ptr, i8, %"class.xercesc_2_5::ReaderMgr", ptr, i32, ptr, ptr, ptr, ptr, ptr, ptr, ptr, ptr, ptr, i32, ptr, %"class.xercesc_2_5::XMLBufferMgr", %"class.xercesc_2_5::XMLBuffer", %"class.xercesc_2_5::XMLBuffer", %"class.xercesc_2_5::XMLBuffer", %"class.xercesc_2_5::XMLBuffer", %"class.xercesc_2_5::XMLBuffer", %"class.xercesc_2_5::XMLBuffer", %"class.xercesc_2_5::ElemStack" }
%"class.xercesc_2_5::ReaderMgr" = type { %"class.xercesc_2_5::Locator", ptr, ptr, ptr, ptr, i32, ptr, i8, i32, i8, ptr }
%"class.xercesc_2_5::Locator" = type { ptr }
%"class.xercesc_2_5::XMLBufferMgr" = type { i32, ptr, ptr }
%"class.xercesc_2_5::XMLBuffer" = type { i8, i32, i32, ptr, ptr }
%"class.xercesc_2_5::ElemStack" = type { i32, i32, %"class.xercesc_2_5::XMLStringPool", ptr, i32, i32, i32, i32, i32, i32, i32, ptr, ptr }
%"class.xercesc_2_5::XMLStringPool" = type { %"class.xercesc_2_5::XSerializable", ptr, ptr, ptr, i32, i32 }
%"class.xercesc_2_5::XSerializable" = type { ptr }
%"class.xercesc_2_5::ValueStackOf" = type { [8 x i8], %"class.xercesc_2_5::ValueVectorOf" }
%"class.xercesc_2_5::ValueVectorOf" = type { i8, i32, i32, ptr, ptr }
%"class.xercesc_2_5::SAXParseException" = type { %"class.xercesc_2_5::SAXException", i64, i64, ptr, ptr }
%"class.xercesc_2_5::SAXException" = type { ptr, ptr, ptr }
%"class.xercesc_2_5::XMLResourceIdentifier" = type { i32, ptr, ptr, ptr, ptr }
%"class.xercesc_2_5::DOM_CDATASection" = type { %"class.xercesc_2_5::DOM_Text" }
%"class.xercesc_2_5::DOM_Text" = type { %"class.xercesc_2_5::DOM_CharacterData" }
%"class.xercesc_2_5::DOM_CharacterData" = type { %"class.xercesc_2_5::DOM_Node" }
%"class.xercesc_2_5::DOMString" = type { ptr }
%"class.xercesc_2_5::DOM_Comment" = type { %"class.xercesc_2_5::DOM_CharacterData" }
%"class.xercesc_2_5::DOM_ProcessingInstruction" = type { %"class.xercesc_2_5::DOM_Node" }
%"class.xercesc_2_5::DOM_Element" = type { %"class.xercesc_2_5::DOM_Node" }
%"class.xercesc_2_5::XMLElementDecl" = type <{ %"class.xercesc_2_5::XSerializable", ptr, ptr, i32, i32, i8, [7 x i8] }>
%"class.xercesc_2_5::QName" = type { %"class.xercesc_2_5::XSerializable", ptr, ptr, i32, ptr, i32, ptr, i32, i32 }
%"class.xercesc_2_5::BaseRefVectorOf" = type { ptr, i8, i32, i32, ptr, ptr }
%"class.xercesc_2_5::DocumentImpl" = type { %"class.xercesc_2_5::ParentNode.base", ptr, ptr, ptr, ptr, ptr, ptr, ptr, ptr, i32, i8, ptr }
%"class.xercesc_2_5::ParentNode.base" = type <{ %"class.xercesc_2_5::ChildNode", ptr, ptr, i32, [4 x i8], ptr, i32 }>
%"class.xercesc_2_5::ChildNode" = type { %"class.xercesc_2_5::NodeImpl.base", ptr, ptr }
%"class.xercesc_2_5::NodeImpl.base" = type <{ %"class.xercesc_2_5::NodeListImpl.base", [4 x i8], ptr, i16 }>
%"class.xercesc_2_5::NodeListImpl.base" = type { %"class.xercesc_2_5::RefCountedImpl.base" }
%"class.xercesc_2_5::RefCountedImpl.base" = type <{ ptr, i32 }>
%"class.xercesc_2_5::XMLAttr" = type <{ i8, [3 x i8], i32, i32, [4 x i8], ptr, ptr, ptr, ptr, i8, [7 x i8] }>
%"class.xercesc_2_5::NodeImpl" = type <{ %"class.xercesc_2_5::NodeListImpl.base", [4 x i8], ptr, i16, [6 x i8] }>
%"class.xercesc_2_5::DOM_EntityReference" = type { %"class.xercesc_2_5::DOM_Node" }
%"class.xercesc_2_5::XMLEntityDecl" = type { %"class.xercesc_2_5::XSerializable", i32, i32, ptr, ptr, ptr, ptr, ptr, ptr, ptr }
%"class.xercesc_2_5::DocumentTypeImpl" = type <{ %"class.xercesc_2_5::ParentNode.base", [4 x i8], %"class.xercesc_2_5::DOMString", ptr, ptr, ptr, %"class.xercesc_2_5::DOMString", %"class.xercesc_2_5::DOMString", %"class.xercesc_2_5::DOMString", i8, [7 x i8] }>
%"class.xercesc_2_5::DOM_XMLDecl" = type { %"class.xercesc_2_5::DOM_Node" }
%"class.xercesc_2_5::XMLAttDef" = type { %"class.xercesc_2_5::XSerializable", i32, i32, i32, i8, i8, i32, ptr, ptr, ptr }
%"class.xercesc_2_5::DOM_DocumentType" = type { %"class.xercesc_2_5::DOM_Node" }
%"class.xercesc_2_5::RefCountedImpl" = type <{ ptr, i32, [4 x i8] }>
%"class.xercesc_2_5::XMLNotationDecl" = type { %"class.xercesc_2_5::XSerializable", i32, ptr, ptr, ptr, ptr, i32, ptr }
%"class.xercesc_2_5::XMLException" = type { ptr, i32, ptr, i32, ptr, ptr }

$__clang_call_terminate = comdat any

$_ZN11xercesc_2_511IOExceptionC2EPKcjNS_10XMLExcepts5CodesEPNS_13MemoryManagerE = comdat any

$_ZN11xercesc_2_512ValueStackOfINS_8DOM_NodeEE3popEv = comdat any

$_ZN11xercesc_2_518XMLDocumentHandler15elementTypeInfoEPKtS2_ = comdat any

$_ZN11xercesc_2_59DOMParser14endInputSourceERKNS_11InputSourceE = comdat any

$_ZN11xercesc_2_59DOMParser14expandSystemIdEPKtRNS_9XMLBufferE = comdat any

$_ZN11xercesc_2_59DOMParser13resetEntitiesEv = comdat any

$_ZN11xercesc_2_59DOMParser16startInputSourceERKNS_11InputSourceE = comdat any

$_ZThn16_N11xercesc_2_59DOMParser14endInputSourceERKNS_11InputSourceE = comdat any

$_ZThn16_N11xercesc_2_59DOMParser14expandSystemIdEPKtRNS_9XMLBufferE = comdat any

$_ZThn16_N11xercesc_2_59DOMParser13resetEntitiesEv = comdat any

$_ZThn16_N11xercesc_2_59DOMParser16startInputSourceERKNS_11InputSourceE = comdat any

$_ZN11xercesc_2_511IOExceptionD0Ev = comdat any

$_ZNK11xercesc_2_511IOException7getTypeEv = comdat any

$_ZNK11xercesc_2_511IOException9duplicateEv = comdat any

$_ZN11xercesc_2_519EmptyStackExceptionC2EPKcjNS_10XMLExcepts5CodesEPNS_13MemoryManagerE = comdat any

$_ZN11xercesc_2_513ValueVectorOfINS_8DOM_NodeEE15removeElementAtEj = comdat any

$_ZN11xercesc_2_519EmptyStackExceptionD0Ev = comdat any

$_ZNK11xercesc_2_519EmptyStackException7getTypeEv = comdat any

$_ZNK11xercesc_2_519EmptyStackException9duplicateEv = comdat any

$_ZN11xercesc_2_530ArrayIndexOutOfBoundsExceptionC2EPKcjNS_10XMLExcepts5CodesEPNS_13MemoryManagerE = comdat any

$_ZN11xercesc_2_530ArrayIndexOutOfBoundsExceptionD0Ev = comdat any

$_ZNK11xercesc_2_530ArrayIndexOutOfBoundsException7getTypeEv = comdat any

$_ZNK11xercesc_2_530ArrayIndexOutOfBoundsException9duplicateEv = comdat any

$_ZTSN11xercesc_2_520OutOfMemoryExceptionE = comdat any

$_ZTSN11xercesc_2_57XMemoryE = comdat any

$_ZTIN11xercesc_2_57XMemoryE = comdat any

$_ZTIN11xercesc_2_520OutOfMemoryExceptionE = comdat any

$_ZTSN11xercesc_2_511IOExceptionE = comdat any

$_ZTIN11xercesc_2_511IOExceptionE = comdat any

$_ZTSN11xercesc_2_518XMLDocumentHandlerE = comdat any

$_ZTIN11xercesc_2_518XMLDocumentHandlerE = comdat any

$_ZTSN11xercesc_2_516XMLErrorReporterE = comdat any

$_ZTIN11xercesc_2_516XMLErrorReporterE = comdat any

$_ZTSN11xercesc_2_516XMLEntityHandlerE = comdat any

$_ZTIN11xercesc_2_516XMLEntityHandlerE = comdat any

$_ZTSN11xercesc_2_514DocTypeHandlerE = comdat any

$_ZTIN11xercesc_2_514DocTypeHandlerE = comdat any

$_ZTVN11xercesc_2_511IOExceptionE = comdat any

$_ZTSN11xercesc_2_519EmptyStackExceptionE = comdat any

$_ZTIN11xercesc_2_519EmptyStackExceptionE = comdat any

$_ZTVN11xercesc_2_519EmptyStackExceptionE = comdat any

$_ZTSN11xercesc_2_530ArrayIndexOutOfBoundsExceptionE = comdat any

$_ZTIN11xercesc_2_530ArrayIndexOutOfBoundsExceptionE = comdat any

$_ZTVN11xercesc_2_530ArrayIndexOutOfBoundsExceptionE = comdat any

@_ZTVN11xercesc_2_59DOMParserE = dso_local unnamed_addr constant { [41 x ptr], [6 x ptr], [10 x ptr], [20 x ptr] } { [41 x ptr] [ptr null, ptr @_ZTIN11xercesc_2_59DOMParserE, ptr @_ZN11xercesc_2_59DOMParserD2Ev, ptr @_ZN11xercesc_2_59DOMParserD0Ev, ptr @_ZN11xercesc_2_59DOMParser13docCharactersEPKtjb, ptr @_ZN11xercesc_2_59DOMParser10docCommentEPKt, ptr @_ZN11xercesc_2_59DOMParser5docPIEPKtS2_, ptr @_ZN11xercesc_2_59DOMParser11endDocumentEv, ptr @_ZN11xercesc_2_59DOMParser10endElementERKNS_14XMLElementDeclEjbPKt, ptr @_ZN11xercesc_2_59DOMParser18endEntityReferenceERKNS_13XMLEntityDeclE, ptr @_ZN11xercesc_2_59DOMParser19ignorableWhitespaceEPKtjb, ptr @_ZN11xercesc_2_59DOMParser13resetDocumentEv, ptr @_ZN11xercesc_2_59DOMParser13startDocumentEv, ptr @_ZN11xercesc_2_59DOMParser12startElementERKNS_14XMLElementDeclEjPKtRKNS_11RefVectorOfINS_7XMLAttrEEEjbb, ptr @_ZN11xercesc_2_59DOMParser20startEntityReferenceERKNS_13XMLEntityDeclE, ptr @_ZN11xercesc_2_59DOMParser7XMLDeclEPKtS2_S2_S2_, ptr @_ZN11xercesc_2_518XMLDocumentHandler15elementTypeInfoEPKtS2_, ptr @_ZN11xercesc_2_59DOMParser5errorEjPKtNS_16XMLErrorReporter8ErrTypesES2_S2_S2_ll, ptr @_ZN11xercesc_2_59DOMParser11resetErrorsEv, ptr @_ZN11xercesc_2_59DOMParser14endInputSourceERKNS_11InputSourceE, ptr @_ZN11xercesc_2_59DOMParser14expandSystemIdEPKtRNS_9XMLBufferE, ptr @_ZN11xercesc_2_59DOMParser13resetEntitiesEv, ptr @_ZN11xercesc_2_59DOMParser13resolveEntityEPKtS2_S2_, ptr @_ZN11xercesc_2_59DOMParser13resolveEntityEPNS_21XMLResourceIdentifierE, ptr @_ZN11xercesc_2_59DOMParser16startInputSourceERKNS_11InputSourceE, ptr @_ZN11xercesc_2_59DOMParser6attDefERKNS_14DTDElementDeclERKNS_9DTDAttDefEb, ptr @_ZN11xercesc_2_59DOMParser14doctypeCommentEPKt, ptr @_ZN11xercesc_2_59DOMParser11doctypeDeclERKNS_14DTDElementDeclEPKtS5_bb, ptr @_ZN11xercesc_2_59DOMParser9doctypePIEPKtS2_, ptr @_ZN11xercesc_2_59DOMParser17doctypeWhitespaceEPKtj, ptr @_ZN11xercesc_2_59DOMParser11elementDeclERKNS_14DTDElementDeclEb, ptr @_ZN11xercesc_2_59DOMParser10endAttListERKNS_14DTDElementDeclE, ptr @_ZN11xercesc_2_59DOMParser12endIntSubsetEv, ptr @_ZN11xercesc_2_59DOMParser12endExtSubsetEv, ptr @_ZN11xercesc_2_59DOMParser10entityDeclERKNS_13DTDEntityDeclEbb, ptr @_ZN11xercesc_2_59DOMParser12resetDocTypeEv, ptr @_ZN11xercesc_2_59DOMParser12notationDeclERKNS_15XMLNotationDeclEb, ptr @_ZN11xercesc_2_59DOMParser12startAttListERKNS_14DTDElementDeclE, ptr @_ZN11xercesc_2_59DOMParser14startIntSubsetEv, ptr @_ZN11xercesc_2_59DOMParser14startExtSubsetEv, ptr @_ZN11xercesc_2_59DOMParser8TextDeclEPKtS2_], [6 x ptr] [ptr inttoptr (i64 -8 to ptr), ptr @_ZTIN11xercesc_2_59DOMParserE, ptr @_ZThn8_N11xercesc_2_59DOMParserD1Ev, ptr @_ZThn8_N11xercesc_2_59DOMParserD0Ev, ptr @_ZThn8_N11xercesc_2_59DOMParser5errorEjPKtNS_16XMLErrorReporter8ErrTypesES2_S2_S2_ll, ptr @_ZThn8_N11xercesc_2_59DOMParser11resetErrorsEv], [10 x ptr] [ptr inttoptr (i64 -16 to ptr), ptr @_ZTIN11xercesc_2_59DOMParserE, ptr @_ZThn16_N11xercesc_2_59DOMParserD1Ev, ptr @_ZThn16_N11xercesc_2_59DOMParserD0Ev, ptr @_ZThn16_N11xercesc_2_59DOMParser14endInputSourceERKNS_11InputSourceE, ptr @_ZThn16_N11xercesc_2_59DOMParser14expandSystemIdEPKtRNS_9XMLBufferE, ptr @_ZThn16_N11xercesc_2_59DOMParser13resetEntitiesEv, ptr @_ZThn16_N11xercesc_2_59DOMParser13resolveEntityEPKtS2_S2_, ptr @_ZThn16_N11xercesc_2_59DOMParser13resolveEntityEPNS_21XMLResourceIdentifierE, ptr @_ZThn16_N11xercesc_2_59DOMParser16startInputSourceERKNS_11InputSourceE], [20 x ptr] [ptr inttoptr (i64 -24 to ptr), ptr @_ZTIN11xercesc_2_59DOMParserE, ptr @_ZThn24_N11xercesc_2_59DOMParserD1Ev, ptr @_ZThn24_N11xercesc_2_59DOMParserD0Ev, ptr @_ZThn24_N11xercesc_2_59DOMParser6attDefERKNS_14DTDElementDeclERKNS_9DTDAttDefEb, ptr @_ZThn24_N11xercesc_2_59DOMParser14doctypeCommentEPKt, ptr @_ZThn24_N11xercesc_2_59DOMParser11doctypeDeclERKNS_14DTDElementDeclEPKtS5_bb, ptr @_ZThn24_N11xercesc_2_59DOMParser9doctypePIEPKtS2_, ptr @_ZThn24_N11xercesc_2_59DOMParser17doctypeWhitespaceEPKtj, ptr @_ZThn24_N11xercesc_2_59DOMParser11elementDeclERKNS_14DTDElementDeclEb, ptr @_ZThn24_N11xercesc_2_59DOMParser10endAttListERKNS_14DTDElementDeclE, ptr @_ZThn24_N11xercesc_2_59DOMParser12endIntSubsetEv, ptr @_ZThn24_N11xercesc_2_59DOMParser12endExtSubsetEv, ptr @_ZThn24_N11xercesc_2_59DOMParser10entityDeclERKNS_13DTDEntityDeclEbb, ptr @_ZThn24_N11xercesc_2_59DOMParser12resetDocTypeEv, ptr @_ZThn24_N11xercesc_2_59DOMParser12notationDeclERKNS_15XMLNotationDeclEb, ptr @_ZThn24_N11xercesc_2_59DOMParser12startAttListERKNS_14DTDElementDeclE, ptr @_ZThn24_N11xercesc_2_59DOMParser14startIntSubsetEv, ptr @_ZThn24_N11xercesc_2_59DOMParser14startExtSubsetEv, ptr @_ZThn24_N11xercesc_2_59DOMParser8TextDeclEPKtS2_] }, align 8, !type !0, !type !1, !type !2, !type !3, !type !4, !type !5, !type !6, !type !7, !type !8, !type !9, !type !10, !type !11, !type !12, !type !13, !type !14, !type !15, !type !16, !type !17, !type !18, !type !19, !type !20, !type !21, !type !22, !type !23, !type !24, !type !25, !type !26, !type !27, !type !28, !type !29, !type !30, !type !31, !type !32, !type !33, !type !34, !type !35, !type !36, !type !37, !type !38, !type !39, !type !40, !type !41, !type !42, !type !43, !type !44, !type !45, !type !46, !type !47, !type !48, !type !49, !type !50, !type !51, !type !52, !type !53, !type !54, !type !55, !type !56, !type !57, !type !58, !type !59, !type !60, !type !61, !type !62, !type !63, !type !64, !type !65, !type !66, !type !67, !type !68, !type !69, !type !70, !type !71, !type !72, !type !73, !type !74, !type !75, !type !76, !type !77, !type !78, !type !79, !type !80, !type !81, !type !82, !type !83, !type !84, !type !85, !type !86, !type !87, !type !88, !type !89, !type !90, !type !91, !type !92, !type !93, !type !94, !type !95, !type !96, !type !97, !type !98, !type !99, !type !100, !type !101, !type !102, !type !103, !type !104, !type !105, !type !106, !type !107, !type !108, !type !109, !type !110, !type !111, !type !112, !type !113, !type !114, !type !115, !type !116, !type !117, !type !118, !type !119, !type !120, !type !121, !type !122, !type !123, !type !124, !type !125, !type !126, !type !127, !type !128, !type !129, !type !130, !type !131, !type !132, !type !133, !type !134, !type !135, !type !136, !type !137, !type !138, !type !139, !type !140, !type !141, !type !142, !type !143, !type !144, !type !145, !type !146, !type !147, !type !148, !type !149, !type !150, !type !151, !type !152, !type !153, !type !154, !type !155, !type !156, !type !157, !type !158, !type !159, !type !160, !type !161, !type !162, !type !163, !type !164, !type !165, !type !166, !type !167, !type !168, !type !169, !type !170, !type !171, !type !172, !type !173, !type !174, !type !175, !type !176, !type !177, !type !178, !type !179, !type !180, !type !181, !type !182, !type !183, !type !184, !type !185, !type !186, !type !187, !type !188, !type !189, !type !190, !type !191, !type !192, !type !193, !type !194, !type !195, !type !196, !type !197, !type !198, !type !199, !type !200, !type !201, !type !202, !type !203, !type !204, !type !205, !type !206, !type !207, !type !208, !type !209, !type !210, !type !211, !type !212, !type !213, !type !214, !type !215, !type !216, !type !217, !type !218, !type !219, !type !220, !type !221, !type !222, !type !223, !type !224, !type !225, !type !226, !type !227, !type !228, !type !229, !type !230, !type !231, !type !232, !type !233, !type !234, !type !235, !type !236, !type !237, !type !238, !type !239, !type !240, !type !241, !type !242, !type !243, !type !244, !type !245, !type !246, !type !247, !type !248, !type !249, !type !250, !type !251, !type !252, !type !253, !type !254, !type !255, !type !256, !type !257, !type !258, !type !259, !type !260, !type !261, !type !262, !type !263, !type !264, !type !265, !type !266, !type !267, !type !268, !type !269, !type !270, !type !271, !type !272, !type !273, !type !274, !type !275, !type !276, !type !277, !type !278, !type !279, !type !280, !type !281, !type !282, !type !283, !type !284, !type !285, !type !286, !type !287, !type !288, !type !289, !type !290, !type !291, !type !292, !type !293, !type !294, !type !295, !type !296, !type !297, !type !298, !type !299, !type !300, !type !301, !type !302, !type !303, !type !304, !type !305, !type !306, !type !307, !type !308, !type !309
@_ZTVN10__cxxabiv120__si_class_type_infoE = external global ptr
@_ZTSN11xercesc_2_520OutOfMemoryExceptionE = linkonce_odr dso_local constant [38 x i8] c"N11xercesc_2_520OutOfMemoryExceptionE\00", comdat, align 1
@_ZTVN10__cxxabiv117__class_type_infoE = external global ptr
@_ZTSN11xercesc_2_57XMemoryE = linkonce_odr dso_local constant [24 x i8] c"N11xercesc_2_57XMemoryE\00", comdat, align 1
@_ZTIN11xercesc_2_57XMemoryE = linkonce_odr dso_local constant { ptr, ptr } { ptr getelementptr inbounds (ptr, ptr @_ZTVN10__cxxabiv117__class_type_infoE, i64 2), ptr @_ZTSN11xercesc_2_57XMemoryE }, comdat, align 8
@_ZTIN11xercesc_2_520OutOfMemoryExceptionE = linkonce_odr dso_local constant { ptr, ptr, ptr } { ptr getelementptr inbounds (ptr, ptr @_ZTVN10__cxxabiv120__si_class_type_infoE, i64 2), ptr @_ZTSN11xercesc_2_520OutOfMemoryExceptionE, ptr @_ZTIN11xercesc_2_57XMemoryE }, comdat, align 8
@.str = private unnamed_addr constant [14 x i8] c"DOMParser.cpp\00", align 1
@_ZTSN11xercesc_2_511IOExceptionE = linkonce_odr dso_local constant [29 x i8] c"N11xercesc_2_511IOExceptionE\00", comdat, align 1
@_ZTIN11xercesc_2_512XMLExceptionE = external constant ptr
@_ZTIN11xercesc_2_511IOExceptionE = linkonce_odr dso_local constant { ptr, ptr, ptr } { ptr getelementptr inbounds (ptr, ptr @_ZTVN10__cxxabiv120__si_class_type_infoE, i64 2), ptr @_ZTSN11xercesc_2_511IOExceptionE, ptr @_ZTIN11xercesc_2_512XMLExceptionE }, comdat, align 8
@_ZTIN11xercesc_2_517SAXParseExceptionE = external constant ptr
@_ZZN11xercesc_2_59DOMParser12startElementERKNS_14XMLElementDeclEjPKtRKNS_11RefVectorOfINS_7XMLAttrEEEjbbE5XMLNS = internal constant [6 x i16] [i16 120, i16 109, i16 108, i16 110, i16 115, i16 0], align 2
@_ZN11xercesc_2_56XMLUni15fgAttListStringE = external constant [0 x i16], align 2
@_ZN11xercesc_2_56XMLUni13fgCDATAStringE = external constant [0 x i16], align 2
@_ZN11xercesc_2_56XMLUni10fgIDStringE = external constant [0 x i16], align 2
@_ZN11xercesc_2_56XMLUni13fgIDRefStringE = external constant [0 x i16], align 2
@_ZN11xercesc_2_56XMLUni14fgIDRefsStringE = external constant [0 x i16], align 2
@_ZN11xercesc_2_56XMLUni14fgEntityStringE = external constant [0 x i16], align 2
@_ZN11xercesc_2_56XMLUni16fgEntitiesStringE = external constant [0 x i16], align 2
@_ZN11xercesc_2_56XMLUni15fgNmTokenStringE = external constant [0 x i16], align 2
@_ZN11xercesc_2_56XMLUni16fgNmTokensStringE = external constant [0 x i16], align 2
@_ZN11xercesc_2_56XMLUni16fgNotationStringE = external constant [0 x i16], align 2
@_ZN11xercesc_2_56XMLUni16fgRequiredStringE = external constant [0 x i16], align 2
@_ZN11xercesc_2_56XMLUni15fgImpliedStringE = external constant [0 x i16], align 2
@_ZN11xercesc_2_56XMLUni13fgFixedStringE = external constant [0 x i16], align 2
@_ZN11xercesc_2_56XMLUni15fgCommentStringE = external constant [0 x i16], align 2
@_ZN11xercesc_2_56XMLUni12fgElemStringE = external constant [0 x i16], align 2
@_ZZN11xercesc_2_59DOMParser10endAttListERKNS_14DTDElementDeclEE5XMLNS = internal constant [6 x i16] [i16 120, i16 109, i16 108, i16 110, i16 115, i16 0], align 2
@_ZN11xercesc_2_56XMLUni14fgXMLNSURINameE = external constant [0 x i16], align 2
@_ZN11xercesc_2_56XMLUni12fgXMLURINameE = external constant [0 x i16], align 2
@_ZN11xercesc_2_56XMLUni13fgPubIDStringE = external constant [0 x i16], align 2
@_ZN11xercesc_2_56XMLUni13fgSysIDStringE = external constant [0 x i16], align 2
@_ZN11xercesc_2_56XMLUni13fgNDATAStringE = external constant [0 x i16], align 2
@_ZTVN10__cxxabiv121__vmi_class_type_infoE = external global ptr
@_ZTSN11xercesc_2_59DOMParserE = dso_local constant [26 x i8] c"N11xercesc_2_59DOMParserE\00", align 1
@_ZTSN11xercesc_2_518XMLDocumentHandlerE = linkonce_odr dso_local constant [36 x i8] c"N11xercesc_2_518XMLDocumentHandlerE\00", comdat, align 1
@_ZTIN11xercesc_2_518XMLDocumentHandlerE = linkonce_odr dso_local constant { ptr, ptr } { ptr getelementptr inbounds (ptr, ptr @_ZTVN10__cxxabiv117__class_type_infoE, i64 2), ptr @_ZTSN11xercesc_2_518XMLDocumentHandlerE }, comdat, align 8
@_ZTSN11xercesc_2_516XMLErrorReporterE = linkonce_odr dso_local constant [34 x i8] c"N11xercesc_2_516XMLErrorReporterE\00", comdat, align 1
@_ZTIN11xercesc_2_516XMLErrorReporterE = linkonce_odr dso_local constant { ptr, ptr } { ptr getelementptr inbounds (ptr, ptr @_ZTVN10__cxxabiv117__class_type_infoE, i64 2), ptr @_ZTSN11xercesc_2_516XMLErrorReporterE }, comdat, align 8
@_ZTSN11xercesc_2_516XMLEntityHandlerE = linkonce_odr dso_local constant [34 x i8] c"N11xercesc_2_516XMLEntityHandlerE\00", comdat, align 1
@_ZTIN11xercesc_2_516XMLEntityHandlerE = linkonce_odr dso_local constant { ptr, ptr } { ptr getelementptr inbounds (ptr, ptr @_ZTVN10__cxxabiv117__class_type_infoE, i64 2), ptr @_ZTSN11xercesc_2_516XMLEntityHandlerE }, comdat, align 8
@_ZTSN11xercesc_2_514DocTypeHandlerE = linkonce_odr dso_local constant [32 x i8] c"N11xercesc_2_514DocTypeHandlerE\00", comdat, align 1
@_ZTIN11xercesc_2_514DocTypeHandlerE = linkonce_odr dso_local constant { ptr, ptr } { ptr getelementptr inbounds (ptr, ptr @_ZTVN10__cxxabiv117__class_type_infoE, i64 2), ptr @_ZTSN11xercesc_2_514DocTypeHandlerE }, comdat, align 8
@_ZTIN11xercesc_2_59DOMParserE = dso_local constant { ptr, ptr, i32, i32, ptr, i64, ptr, i64, ptr, i64, ptr, i64, ptr, i64 } { ptr getelementptr inbounds (ptr, ptr @_ZTVN10__cxxabiv121__vmi_class_type_infoE, i64 2), ptr @_ZTSN11xercesc_2_59DOMParserE, i32 0, i32 5, ptr @_ZTIN11xercesc_2_518XMLDocumentHandlerE, i64 2, ptr @_ZTIN11xercesc_2_516XMLErrorReporterE, i64 2050, ptr @_ZTIN11xercesc_2_516XMLEntityHandlerE, i64 4098, ptr @_ZTIN11xercesc_2_514DocTypeHandlerE, i64 6146, ptr @_ZTIN11xercesc_2_57XMemoryE, i64 2 }, align 8
@_ZTVN11xercesc_2_511IOExceptionE = linkonce_odr dso_local unnamed_addr constant { [6 x ptr] } { [6 x ptr] [ptr null, ptr @_ZTIN11xercesc_2_511IOExceptionE, ptr @_ZN11xercesc_2_512XMLExceptionD2Ev, ptr @_ZN11xercesc_2_511IOExceptionD0Ev, ptr @_ZNK11xercesc_2_511IOException7getTypeEv, ptr @_ZNK11xercesc_2_511IOException9duplicateEv] }, comdat, align 8, !type !310, !type !311, !type !312, !type !313, !type !314, !type !315
@_ZN11xercesc_2_56XMLUni18fgIOException_NameE = external constant [0 x i16], align 2
@_ZN11xercesc_2_58NodeImpl7ID_ATTRE = external local_unnamed_addr constant i16, align 2
@.str.1 = private unnamed_addr constant [30 x i8] c"./xercesc/util/ValueStackOf.c\00", align 1
@_ZTSN11xercesc_2_519EmptyStackExceptionE = linkonce_odr dso_local constant [37 x i8] c"N11xercesc_2_519EmptyStackExceptionE\00", comdat, align 1
@_ZTIN11xercesc_2_519EmptyStackExceptionE = linkonce_odr dso_local constant { ptr, ptr, ptr } { ptr getelementptr inbounds (ptr, ptr @_ZTVN10__cxxabiv120__si_class_type_infoE, i64 2), ptr @_ZTSN11xercesc_2_519EmptyStackExceptionE, ptr @_ZTIN11xercesc_2_512XMLExceptionE }, comdat, align 8
@_ZTVN11xercesc_2_519EmptyStackExceptionE = linkonce_odr dso_local unnamed_addr constant { [6 x ptr] } { [6 x ptr] [ptr null, ptr @_ZTIN11xercesc_2_519EmptyStackExceptionE, ptr @_ZN11xercesc_2_512XMLExceptionD2Ev, ptr @_ZN11xercesc_2_519EmptyStackExceptionD0Ev, ptr @_ZNK11xercesc_2_519EmptyStackException7getTypeEv, ptr @_ZNK11xercesc_2_519EmptyStackException9duplicateEv] }, comdat, align 8, !type !313, !type !314, !type !315, !type !316, !type !317, !type !318
@_ZN11xercesc_2_56XMLUni26fgEmptyStackException_NameE = external constant [0 x i16], align 2
@.str.2 = private unnamed_addr constant [31 x i8] c"./xercesc/util/ValueVectorOf.c\00", align 1
@_ZTSN11xercesc_2_530ArrayIndexOutOfBoundsExceptionE = linkonce_odr dso_local constant [48 x i8] c"N11xercesc_2_530ArrayIndexOutOfBoundsExceptionE\00", comdat, align 1
@_ZTIN11xercesc_2_530ArrayIndexOutOfBoundsExceptionE = linkonce_odr dso_local constant { ptr, ptr, ptr } { ptr getelementptr inbounds (ptr, ptr @_ZTVN10__cxxabiv120__si_class_type_infoE, i64 2), ptr @_ZTSN11xercesc_2_530ArrayIndexOutOfBoundsExceptionE, ptr @_ZTIN11xercesc_2_512XMLExceptionE }, comdat, align 8
@_ZTVN11xercesc_2_530ArrayIndexOutOfBoundsExceptionE = linkonce_odr dso_local unnamed_addr constant { [6 x ptr] } { [6 x ptr] [ptr null, ptr @_ZTIN11xercesc_2_530ArrayIndexOutOfBoundsExceptionE, ptr @_ZN11xercesc_2_512XMLExceptionD2Ev, ptr @_ZN11xercesc_2_530ArrayIndexOutOfBoundsExceptionD0Ev, ptr @_ZNK11xercesc_2_530ArrayIndexOutOfBoundsException7getTypeEv, ptr @_ZNK11xercesc_2_530ArrayIndexOutOfBoundsException9duplicateEv] }, comdat, align 8, !type !313, !type !314, !type !315, !type !319, !type !320, !type !321
@_ZN11xercesc_2_56XMLUni37fgArrayIndexOutOfBoundsException_NameE = external constant [0 x i16], align 2
@.str.3 = private unnamed_addr constant [33 x i8] c"./xercesc/util/BaseRefVectorOf.c\00", align 1

@_ZN11xercesc_2_59DOMParserC1EPNS_12XMLValidatorEPNS_13MemoryManagerEPNS_14XMLGrammarPoolE = dso_local unnamed_addr alias void (ptr, ptr, ptr, ptr), ptr @_ZN11xercesc_2_59DOMParserC2EPNS_12XMLValidatorEPNS_13MemoryManagerEPNS_14XMLGrammarPoolE
@_ZN11xercesc_2_59DOMParserD1Ev = dso_local unnamed_addr alias void (ptr), ptr @_ZN11xercesc_2_59DOMParserD2Ev

declare i32 @__gxx_personality_v0(...)

; Function Attrs: noinline noreturn nounwind uwtable
define linkonce_odr hidden void @__clang_call_terminate(ptr noundef %0) local_unnamed_addr #0 comdat {
  %2 = tail call ptr @__cxa_begin_catch(ptr %0) #17
  tail call void @_ZSt9terminatev() #18
  unreachable
}

declare ptr @__cxa_begin_catch(ptr) local_unnamed_addr

declare void @_ZSt9terminatev() local_unnamed_addr

declare void @_ZN11xercesc_2_57XMemorydlEPv(ptr noundef) local_unnamed_addr #1

; Function Attrs: uwtable
define dso_local void @_ZN11xercesc_2_59DOMParserC2EPNS_12XMLValidatorEPNS_13MemoryManagerEPNS_14XMLGrammarPoolE(ptr noundef nonnull align 8 dereferenceable(160) %0, ptr noundef %1, ptr noundef %2, ptr noundef %3) unnamed_addr #2 align 2 personality ptr @__gxx_personality_v0 {
  %5 = getelementptr inbounds i8, ptr %0, i64 8
  %6 = getelementptr inbounds i8, ptr %0, i64 16
  %7 = getelementptr inbounds i8, ptr %0, i64 24
  store ptr getelementptr inbounds ({ [41 x ptr], [6 x ptr], [10 x ptr], [20 x ptr] }, ptr @_ZTVN11xercesc_2_59DOMParserE, i64 0, inrange i32 0, i64 2), ptr %0, align 8, !tbaa !329
  store ptr getelementptr inbounds ({ [41 x ptr], [6 x ptr], [10 x ptr], [20 x ptr] }, ptr @_ZTVN11xercesc_2_59DOMParserE, i64 0, inrange i32 1, i64 2), ptr %5, align 8, !tbaa !329
  store ptr getelementptr inbounds ({ [41 x ptr], [6 x ptr], [10 x ptr], [20 x ptr] }, ptr @_ZTVN11xercesc_2_59DOMParserE, i64 0, inrange i32 2, i64 2), ptr %6, align 8, !tbaa !329
  store ptr getelementptr inbounds ({ [41 x ptr], [6 x ptr], [10 x ptr], [20 x ptr] }, ptr @_ZTVN11xercesc_2_59DOMParserE, i64 0, inrange i32 3, i64 2), ptr %7, align 8, !tbaa !329
  %8 = getelementptr inbounds %"class.xercesc_2_5::DOMParser", ptr %0, i64 0, i32 4
  store i8 0, ptr %8, align 8, !tbaa !332
  %9 = getelementptr inbounds %"class.xercesc_2_5::DOMParser", ptr %0, i64 0, i32 5
  store i8 1, ptr %9, align 1, !tbaa !343
  %10 = getelementptr inbounds %"class.xercesc_2_5::DOMParser", ptr %0, i64 0, i32 6
  store i8 1, ptr %10, align 2, !tbaa !344
  %11 = getelementptr inbounds %"class.xercesc_2_5::DOMParser", ptr %0, i64 0, i32 7
  store i8 0, ptr %11, align 1, !tbaa !345
  %12 = getelementptr inbounds %"class.xercesc_2_5::DOMParser", ptr %0, i64 0, i32 8
  store i8 0, ptr %12, align 4, !tbaa !346
  %13 = getelementptr inbounds %"class.xercesc_2_5::DOMParser", ptr %0, i64 0, i32 9
  tail call void @_ZN11xercesc_2_58DOM_NodeC1Ev(ptr noundef nonnull align 8 dereferenceable(8) %13)
  %14 = getelementptr inbounds %"class.xercesc_2_5::DOMParser", ptr %0, i64 0, i32 10
  invoke void @_ZN11xercesc_2_58DOM_NodeC1Ev(ptr noundef nonnull align 8 dereferenceable(8) %14)
          to label %15 unwind label %22

15:                                               ; preds = %4
  %16 = getelementptr inbounds %"class.xercesc_2_5::DOMParser", ptr %0, i64 0, i32 11
  invoke void @_ZN11xercesc_2_512DOM_DocumentC1Ev(ptr noundef nonnull align 8 dereferenceable(8) %16)
          to label %17 unwind label %24

17:                                               ; preds = %15
  %18 = getelementptr inbounds %"class.xercesc_2_5::DOMParser", ptr %0, i64 0, i32 12
  %19 = getelementptr inbounds %"class.xercesc_2_5::DOMParser", ptr %0, i64 0, i32 21
  tail call void @llvm.memset.p0.i64(ptr noundef nonnull align 8 dereferenceable(72) %18, i8 0, i64 72, i1 false)
  store ptr %1, ptr %19, align 8, !tbaa !347
  %20 = getelementptr inbounds %"class.xercesc_2_5::DOMParser", ptr %0, i64 0, i32 22
  store ptr %2, ptr %20, align 8, !tbaa !348
  %21 = getelementptr inbounds %"class.xercesc_2_5::DOMParser", ptr %0, i64 0, i32 23
  store ptr %3, ptr %21, align 8, !tbaa !349
  invoke void @_ZN11xercesc_2_59DOMParser10initializeEv(ptr noundef nonnull align 8 dereferenceable(160) %0)
          to label %40 unwind label %26

22:                                               ; preds = %4
  %23 = landingpad { ptr, i32 }
          cleanup
  br label %45

24:                                               ; preds = %15
  %25 = landingpad { ptr, i32 }
          cleanup
  br label %43

26:                                               ; preds = %17
  %27 = landingpad { ptr, i32 }
          catch ptr @_ZTIN11xercesc_2_520OutOfMemoryExceptionE
          catch ptr null
  %28 = extractvalue { ptr, i32 } %27, 0
  %29 = extractvalue { ptr, i32 } %27, 1
  %30 = tail call i32 @llvm.eh.typeid.for(ptr nonnull @_ZTIN11xercesc_2_520OutOfMemoryExceptionE) #17
  %31 = icmp eq i32 %29, %30
  %32 = tail call ptr @__cxa_begin_catch(ptr %28) #17
  br i1 %31, label %33, label %34

33:                                               ; preds = %26
  invoke void @__cxa_rethrow() #19
          to label %51 unwind label %38

34:                                               ; preds = %26
  invoke void @_ZN11xercesc_2_59DOMParser7cleanUpEv(ptr noundef nonnull align 8 dereferenceable(160) %0)
          to label %35 unwind label %36

35:                                               ; preds = %34
  invoke void @__cxa_rethrow() #19
          to label %51 unwind label %36

36:                                               ; preds = %35, %34
  %37 = landingpad { ptr, i32 }
          cleanup
  invoke void @__cxa_end_catch()
          to label %41 unwind label %48

38:                                               ; preds = %33
  %39 = landingpad { ptr, i32 }
          cleanup
  invoke void @__cxa_end_catch()
          to label %41 unwind label %48

40:                                               ; preds = %17
  ret void

41:                                               ; preds = %38, %36
  %42 = phi { ptr, i32 } [ %37, %36 ], [ %39, %38 ]
  invoke void @_ZN11xercesc_2_512DOM_DocumentD1Ev(ptr noundef nonnull align 8 dereferenceable(8) %16)
          to label %43 unwind label %48

43:                                               ; preds = %41, %24
  %44 = phi { ptr, i32 } [ %42, %41 ], [ %25, %24 ]
  invoke void @_ZN11xercesc_2_58DOM_NodeD1Ev(ptr noundef nonnull align 8 dereferenceable(8) %14)
          to label %45 unwind label %48

45:                                               ; preds = %43, %22
  %46 = phi { ptr, i32 } [ %44, %43 ], [ %23, %22 ]
  invoke void @_ZN11xercesc_2_58DOM_NodeD1Ev(ptr noundef nonnull align 8 dereferenceable(8) %13)
          to label %47 unwind label %48

47:                                               ; preds = %45
  resume { ptr, i32 } %46

48:                                               ; preds = %45, %43, %41, %38, %36
  %49 = landingpad { ptr, i32 }
          catch ptr null
  %50 = extractvalue { ptr, i32 } %49, 0
  tail call void @__clang_call_terminate(ptr %50) #18
  unreachable

51:                                               ; preds = %33, %35
  unreachable
}

declare void @_ZN11xercesc_2_58DOM_NodeC1Ev(ptr noundef nonnull align 8 dereferenceable(8)) unnamed_addr #1

declare void @_ZN11xercesc_2_512DOM_DocumentC1Ev(ptr noundef nonnull align 8 dereferenceable(8)) unnamed_addr #1

; Function Attrs: uwtable
define dso_local void @_ZN11xercesc_2_59DOMParser10initializeEv(ptr noundef nonnull align 8 dereferenceable(160) %0) local_unnamed_addr #2 align 2 personality ptr @__gxx_personality_v0 {
  %2 = getelementptr inbounds %"class.xercesc_2_5::DOMParser", ptr %0, i64 0, i32 22
  %3 = load ptr, ptr %2, align 8, !tbaa !348
  %4 = tail call noundef ptr @_ZN11xercesc_2_57XMemorynwEmPNS_13MemoryManagerE(i64 noundef 80, ptr noundef %3)
  %5 = getelementptr inbounds %"class.xercesc_2_5::DOMParser", ptr %0, i64 0, i32 23
  %6 = load ptr, ptr %5, align 8, !tbaa !349
  %7 = load ptr, ptr %2, align 8, !tbaa !348
  invoke void @_ZN11xercesc_2_515GrammarResolverC1EPNS_14XMLGrammarPoolEPNS_13MemoryManagerE(ptr noundef nonnull align 8 dereferenceable(80) %4, ptr noundef %6, ptr noundef %7)
          to label %8 unwind label %39

8:                                                ; preds = %1
  %9 = getelementptr inbounds %"class.xercesc_2_5::DOMParser", ptr %0, i64 0, i32 19
  store ptr %4, ptr %9, align 8, !tbaa !350
  %10 = getelementptr inbounds %"class.xercesc_2_5::GrammarResolver", ptr %4, i64 0, i32 3
  %11 = load ptr, ptr %10, align 8, !tbaa !351
  %12 = getelementptr inbounds %"class.xercesc_2_5::DOMParser", ptr %0, i64 0, i32 20
  store ptr %11, ptr %12, align 8, !tbaa !353
  %13 = getelementptr inbounds %"class.xercesc_2_5::DOMParser", ptr %0, i64 0, i32 21
  %14 = load ptr, ptr %13, align 8, !tbaa !347
  %15 = load ptr, ptr %2, align 8, !tbaa !348
  %16 = tail call noundef ptr @_ZN11xercesc_2_518XMLScannerResolver17getDefaultScannerEPNS_12XMLValidatorEPNS_15GrammarResolverEPNS_13MemoryManagerE(ptr noundef %14, ptr noundef nonnull %4, ptr noundef %15)
  %17 = getelementptr inbounds %"class.xercesc_2_5::DOMParser", ptr %0, i64 0, i32 17
  store ptr %16, ptr %17, align 8, !tbaa !354
  %18 = getelementptr inbounds %"class.xercesc_2_5::XMLScanner", ptr %16, i64 0, i32 32
  store ptr %0, ptr %18, align 8, !tbaa !355
  %19 = getelementptr inbounds i8, ptr %0, i64 24
  %20 = getelementptr inbounds %"class.xercesc_2_5::XMLScanner", ptr %16, i64 0, i32 33
  store ptr %19, ptr %20, align 8, !tbaa !367
  %21 = load ptr, ptr %12, align 8, !tbaa !353
  tail call void @_ZN11xercesc_2_510XMLScanner16setURIStringPoolEPNS_13XMLStringPoolE(ptr noundef nonnull align 8 dereferenceable(664) %16, ptr noundef %21)
  %22 = load ptr, ptr %2, align 8, !tbaa !348
  %23 = tail call noundef ptr @_ZN11xercesc_2_57XMemorynwEmPNS_13MemoryManagerE(i64 noundef 40, ptr noundef %22)
  %24 = load ptr, ptr %2, align 8, !tbaa !348
  %25 = getelementptr inbounds %"class.xercesc_2_5::ValueStackOf", ptr %23, i64 0, i32 1
  store i8 1, ptr %25, align 8, !tbaa !368
  %26 = getelementptr inbounds %"class.xercesc_2_5::ValueStackOf", ptr %23, i64 0, i32 1, i32 1
  store i32 0, ptr %26, align 4, !tbaa !370
  %27 = getelementptr inbounds %"class.xercesc_2_5::ValueStackOf", ptr %23, i64 0, i32 1, i32 2
  store i32 64, ptr %27, align 8, !tbaa !371
  %28 = getelementptr inbounds %"class.xercesc_2_5::ValueStackOf", ptr %23, i64 0, i32 1, i32 3
  store ptr null, ptr %28, align 8, !tbaa !372
  %29 = getelementptr inbounds %"class.xercesc_2_5::ValueStackOf", ptr %23, i64 0, i32 1, i32 4
  store ptr %24, ptr %29, align 8, !tbaa !373
  %30 = load ptr, ptr %24, align 8, !tbaa !329
  %31 = getelementptr inbounds ptr, ptr %30, i64 2
  %32 = load ptr, ptr %31, align 8
  %33 = invoke noundef ptr %32(ptr noundef nonnull align 8 dereferenceable(8) %24, i64 noundef 512)
          to label %34 unwind label %41

34:                                               ; preds = %8
  store ptr %33, ptr %28, align 8, !tbaa !372
  %35 = load i32, ptr %27, align 8, !tbaa !371
  %36 = zext i32 %35 to i64
  %37 = shl nuw nsw i64 %36, 3
  tail call void @llvm.memset.p0.i64(ptr align 8 %33, i8 0, i64 %37, i1 false)
  %38 = getelementptr inbounds %"class.xercesc_2_5::DOMParser", ptr %0, i64 0, i32 16
  store ptr %23, ptr %38, align 8, !tbaa !374
  tail call void @_ZN11xercesc_2_59DOMParser5resetEv(ptr noundef nonnull align 8 dereferenceable(160) %0)
  ret void

39:                                               ; preds = %1
  %40 = landingpad { ptr, i32 }
          cleanup
  invoke void @_ZN11xercesc_2_57XMemorydlEPvPNS_13MemoryManagerE(ptr noundef %4, ptr noundef %3)
          to label %43 unwind label %45

41:                                               ; preds = %8
  %42 = landingpad { ptr, i32 }
          cleanup
  invoke void @_ZN11xercesc_2_57XMemorydlEPvPNS_13MemoryManagerE(ptr noundef nonnull %23, ptr noundef %22)
          to label %43 unwind label %45

43:                                               ; preds = %41, %39
  %44 = phi { ptr, i32 } [ %42, %41 ], [ %40, %39 ]
  resume { ptr, i32 } %44

45:                                               ; preds = %41, %39
  %46 = landingpad { ptr, i32 }
          catch ptr null
  %47 = extractvalue { ptr, i32 } %46, 0
  tail call void @__clang_call_terminate(ptr %47) #18
  unreachable
}

; Function Attrs: nofree nosync nounwind memory(none)
declare i32 @llvm.eh.typeid.for(ptr) #3

; Function Attrs: uwtable
define dso_local void @_ZN11xercesc_2_59DOMParser7cleanUpEv(ptr nocapture noundef nonnull readonly align 8 dereferenceable(160) %0) local_unnamed_addr #2 align 2 personality ptr @__gxx_personality_v0 {
  %2 = getelementptr inbounds %"class.xercesc_2_5::DOMParser", ptr %0, i64 0, i32 16
  %3 = load ptr, ptr %2, align 8, !tbaa !374
  %4 = icmp eq ptr %3, null
  br i1 %4, label %33, label %5

5:                                                ; preds = %1
  %6 = getelementptr inbounds %"class.xercesc_2_5::ValueStackOf", ptr %3, i64 0, i32 1
  %7 = load i8, ptr %6, align 8, !tbaa !368, !range !375, !noundef !376
  %8 = icmp eq i8 %7, 0
  br i1 %8, label %24, label %9

9:                                                ; preds = %5
  %10 = getelementptr inbounds %"class.xercesc_2_5::ValueStackOf", ptr %3, i64 0, i32 1, i32 2
  %11 = load i32, ptr %10, align 8, !tbaa !371
  %12 = add i32 %11, -1
  %13 = icmp sgt i32 %12, -1
  br i1 %13, label %14, label %24

14:                                               ; preds = %9
  %15 = getelementptr inbounds %"class.xercesc_2_5::ValueStackOf", ptr %3, i64 0, i32 1, i32 3
  %16 = zext i32 %12 to i64
  br label %17

17:                                               ; preds = %21, %14
  %18 = phi i64 [ %22, %21 ], [ %16, %14 ]
  %19 = load ptr, ptr %15, align 8, !tbaa !372
  %20 = getelementptr inbounds %"class.xercesc_2_5::DOM_Node", ptr %19, i64 %18
  invoke void @_ZN11xercesc_2_58DOM_NodeD1Ev(ptr noundef nonnull align 8 dereferenceable(8) %20)
          to label %21 unwind label %55

21:                                               ; preds = %17
  %22 = add nsw i64 %18, -1
  %23 = icmp eq i64 %18, 0
  br i1 %23, label %24, label %17

24:                                               ; preds = %21, %9, %5
  %25 = getelementptr inbounds %"class.xercesc_2_5::ValueStackOf", ptr %3, i64 0, i32 1, i32 4
  %26 = load ptr, ptr %25, align 8, !tbaa !373
  %27 = getelementptr inbounds %"class.xercesc_2_5::ValueStackOf", ptr %3, i64 0, i32 1, i32 3
  %28 = load ptr, ptr %27, align 8, !tbaa !372
  %29 = load ptr, ptr %26, align 8, !tbaa !329
  %30 = getelementptr inbounds ptr, ptr %29, i64 3
  %31 = load ptr, ptr %30, align 8
  invoke void %31(ptr noundef nonnull align 8 dereferenceable(8) %26, ptr noundef %28)
          to label %32 unwind label %57

32:                                               ; preds = %24
  tail call void @_ZN11xercesc_2_57XMemorydlEPv(ptr noundef nonnull %3)
  br label %33

33:                                               ; preds = %32, %1
  %34 = getelementptr inbounds %"class.xercesc_2_5::DOMParser", ptr %0, i64 0, i32 17
  %35 = load ptr, ptr %34, align 8, !tbaa !354
  %36 = icmp eq ptr %35, null
  br i1 %36, label %41, label %37

37:                                               ; preds = %33
  %38 = load ptr, ptr %35, align 8, !tbaa !329
  %39 = getelementptr inbounds ptr, ptr %38, i64 1
  %40 = load ptr, ptr %39, align 8
  tail call void %40(ptr noundef nonnull align 8 dereferenceable(664) %35)
  br label %41

41:                                               ; preds = %37, %33
  %42 = getelementptr inbounds %"class.xercesc_2_5::DOMParser", ptr %0, i64 0, i32 19
  %43 = load ptr, ptr %42, align 8, !tbaa !350
  %44 = icmp eq ptr %43, null
  br i1 %44, label %47, label %45

45:                                               ; preds = %41
  invoke void @_ZN11xercesc_2_515GrammarResolverD1Ev(ptr noundef nonnull align 8 dereferenceable(80) %43)
          to label %46 unwind label %61

46:                                               ; preds = %45
  tail call void @_ZN11xercesc_2_57XMemorydlEPv(ptr noundef nonnull %43)
  br label %47

47:                                               ; preds = %46, %41
  %48 = getelementptr inbounds %"class.xercesc_2_5::DOMParser", ptr %0, i64 0, i32 21
  %49 = load ptr, ptr %48, align 8, !tbaa !347
  %50 = icmp eq ptr %49, null
  br i1 %50, label %63, label %51

51:                                               ; preds = %47
  %52 = load ptr, ptr %49, align 8, !tbaa !329
  %53 = getelementptr inbounds ptr, ptr %52, i64 1
  %54 = load ptr, ptr %53, align 8
  tail call void %54(ptr noundef nonnull align 8 dereferenceable(40) %49)
  br label %63

55:                                               ; preds = %17
  %56 = landingpad { ptr, i32 }
          cleanup
  br label %59

57:                                               ; preds = %24
  %58 = landingpad { ptr, i32 }
          cleanup
  br label %59

59:                                               ; preds = %57, %55
  %60 = phi { ptr, i32 } [ %56, %55 ], [ %58, %57 ]
  invoke void @_ZN11xercesc_2_57XMemorydlEPv(ptr noundef nonnull %3)
          to label %64 unwind label %66

61:                                               ; preds = %45
  %62 = landingpad { ptr, i32 }
          cleanup
  invoke void @_ZN11xercesc_2_57XMemorydlEPv(ptr noundef nonnull %43)
          to label %64 unwind label %66

63:                                               ; preds = %51, %47
  ret void

64:                                               ; preds = %61, %59
  %65 = phi { ptr, i32 } [ %62, %61 ], [ %60, %59 ]
  resume { ptr, i32 } %65

66:                                               ; preds = %61, %59
  %67 = landingpad { ptr, i32 }
          catch ptr null
  %68 = extractvalue { ptr, i32 } %67, 0
  tail call void @__clang_call_terminate(ptr %68) #18
  unreachable
}

declare void @__cxa_rethrow() local_unnamed_addr

declare void @__cxa_end_catch() local_unnamed_addr

; Function Attrs: mustprogress nocallback nofree nosync nounwind willreturn memory(argmem: readwrite)
declare void @llvm.lifetime.start.p0(i64 immarg, ptr nocapture) #4

; Function Attrs: mustprogress nocallback nofree nosync nounwind willreturn memory(argmem: readwrite)
declare void @llvm.lifetime.end.p0(i64 immarg, ptr nocapture) #4

declare void @_ZN11xercesc_2_512DOM_DocumentD1Ev(ptr noundef nonnull align 8 dereferenceable(8)) unnamed_addr #1

declare void @_ZN11xercesc_2_58DOM_NodeD1Ev(ptr noundef nonnull align 8 dereferenceable(8)) unnamed_addr #1

; Function Attrs: uwtable
define dso_local void @_ZN11xercesc_2_59DOMParserD2Ev(ptr noundef nonnull align 8 dereferenceable(160) %0) unnamed_addr #2 align 2 personality ptr @__gxx_personality_v0 {
  store ptr getelementptr inbounds ({ [41 x ptr], [6 x ptr], [10 x ptr], [20 x ptr] }, ptr @_ZTVN11xercesc_2_59DOMParserE, i64 0, inrange i32 0, i64 2), ptr %0, align 8, !tbaa !329
  %2 = getelementptr inbounds i8, ptr %0, i64 8
  store ptr getelementptr inbounds ({ [41 x ptr], [6 x ptr], [10 x ptr], [20 x ptr] }, ptr @_ZTVN11xercesc_2_59DOMParserE, i64 0, inrange i32 1, i64 2), ptr %2, align 8, !tbaa !329
  %3 = getelementptr inbounds i8, ptr %0, i64 16
  store ptr getelementptr inbounds ({ [41 x ptr], [6 x ptr], [10 x ptr], [20 x ptr] }, ptr @_ZTVN11xercesc_2_59DOMParserE, i64 0, inrange i32 2, i64 2), ptr %3, align 8, !tbaa !329
  %4 = getelementptr inbounds i8, ptr %0, i64 24
  store ptr getelementptr inbounds ({ [41 x ptr], [6 x ptr], [10 x ptr], [20 x ptr] }, ptr @_ZTVN11xercesc_2_59DOMParserE, i64 0, inrange i32 3, i64 2), ptr %4, align 8, !tbaa !329
  invoke void @_ZN11xercesc_2_59DOMParser7cleanUpEv(ptr noundef nonnull align 8 dereferenceable(160) %0)
          to label %5 unwind label %11

5:                                                ; preds = %1
  %6 = getelementptr inbounds %"class.xercesc_2_5::DOMParser", ptr %0, i64 0, i32 11
  invoke void @_ZN11xercesc_2_512DOM_DocumentD1Ev(ptr noundef nonnull align 8 dereferenceable(8) %6)
          to label %7 unwind label %14

7:                                                ; preds = %5
  %8 = getelementptr inbounds %"class.xercesc_2_5::DOMParser", ptr %0, i64 0, i32 10
  invoke void @_ZN11xercesc_2_58DOM_NodeD1Ev(ptr noundef nonnull align 8 dereferenceable(8) %8)
          to label %9 unwind label %16

9:                                                ; preds = %7
  %10 = getelementptr inbounds %"class.xercesc_2_5::DOMParser", ptr %0, i64 0, i32 9
  tail call void @_ZN11xercesc_2_58DOM_NodeD1Ev(ptr noundef nonnull align 8 dereferenceable(8) %10)
  ret void

11:                                               ; preds = %1
  %12 = landingpad { ptr, i32 }
          cleanup
  %13 = getelementptr inbounds %"class.xercesc_2_5::DOMParser", ptr %0, i64 0, i32 11
  invoke void @_ZN11xercesc_2_512DOM_DocumentD1Ev(ptr noundef nonnull align 8 dereferenceable(8) %13)
          to label %18 unwind label %25

14:                                               ; preds = %5
  %15 = landingpad { ptr, i32 }
          cleanup
  br label %18

16:                                               ; preds = %7
  %17 = landingpad { ptr, i32 }
          cleanup
  br label %21

18:                                               ; preds = %11, %14
  %19 = phi { ptr, i32 } [ %15, %14 ], [ %12, %11 ]
  %20 = getelementptr inbounds %"class.xercesc_2_5::DOMParser", ptr %0, i64 0, i32 10
  invoke void @_ZN11xercesc_2_58DOM_NodeD1Ev(ptr noundef nonnull align 8 dereferenceable(8) %20)
          to label %21 unwind label %25

21:                                               ; preds = %18, %16
  %22 = phi { ptr, i32 } [ %17, %16 ], [ %19, %18 ]
  %23 = getelementptr inbounds %"class.xercesc_2_5::DOMParser", ptr %0, i64 0, i32 9
  invoke void @_ZN11xercesc_2_58DOM_NodeD1Ev(ptr noundef nonnull align 8 dereferenceable(8) %23)
          to label %24 unwind label %25

24:                                               ; preds = %21
  resume { ptr, i32 } %22

25:                                               ; preds = %21, %18, %11
  %26 = landingpad { ptr, i32 }
          catch ptr null
  %27 = extractvalue { ptr, i32 } %26, 0
  tail call void @__clang_call_terminate(ptr %27) #18
  unreachable
}

; Function Attrs: uwtable
define dso_local void @_ZThn8_N11xercesc_2_59DOMParserD1Ev(ptr noundef %0) unnamed_addr #2 align 2 {
  %2 = getelementptr inbounds i8, ptr %0, i64 -8
  tail call void @_ZN11xercesc_2_59DOMParserD2Ev(ptr noundef nonnull align 8 dereferenceable(160) %2)
  ret void
}

; Function Attrs: uwtable
define dso_local void @_ZThn16_N11xercesc_2_59DOMParserD1Ev(ptr noundef %0) unnamed_addr #2 align 2 {
  %2 = getelementptr inbounds i8, ptr %0, i64 -16
  tail call void @_ZN11xercesc_2_59DOMParserD2Ev(ptr noundef nonnull align 8 dereferenceable(160) %2)
  ret void
}

; Function Attrs: uwtable
define dso_local void @_ZThn24_N11xercesc_2_59DOMParserD1Ev(ptr noundef %0) unnamed_addr #2 align 2 {
  %2 = getelementptr inbounds i8, ptr %0, i64 -24
  tail call void @_ZN11xercesc_2_59DOMParserD2Ev(ptr noundef nonnull align 8 dereferenceable(160) %2)
  ret void
}

; Function Attrs: uwtable
define dso_local void @_ZN11xercesc_2_59DOMParserD0Ev(ptr noundef nonnull align 8 dereferenceable(160) %0) unnamed_addr #2 align 2 personality ptr @__gxx_personality_v0 {
  invoke void @_ZN11xercesc_2_59DOMParserD2Ev(ptr noundef nonnull align 8 dereferenceable(160) %0)
          to label %2 unwind label %3

2:                                                ; preds = %1
  tail call void @_ZN11xercesc_2_57XMemorydlEPv(ptr noundef nonnull %0)
  ret void

3:                                                ; preds = %1
  %4 = landingpad { ptr, i32 }
          cleanup
  invoke void @_ZN11xercesc_2_57XMemorydlEPv(ptr noundef nonnull %0)
          to label %5 unwind label %6

5:                                                ; preds = %3
  resume { ptr, i32 } %4

6:                                                ; preds = %3
  %7 = landingpad { ptr, i32 }
          catch ptr null
  %8 = extractvalue { ptr, i32 } %7, 0
  tail call void @__clang_call_terminate(ptr %8) #18
  unreachable
}

; Function Attrs: uwtable
define dso_local void @_ZThn8_N11xercesc_2_59DOMParserD0Ev(ptr noundef %0) unnamed_addr #2 align 2 personality ptr @__gxx_personality_v0 {
  %2 = getelementptr inbounds i8, ptr %0, i64 -8
  invoke void @_ZN11xercesc_2_59DOMParserD2Ev(ptr noundef nonnull align 8 dereferenceable(160) %2)
          to label %9 unwind label %3

3:                                                ; preds = %1
  %4 = landingpad { ptr, i32 }
          cleanup
  invoke void @_ZN11xercesc_2_57XMemorydlEPv(ptr noundef nonnull %2)
          to label %5 unwind label %6

5:                                                ; preds = %3
  resume { ptr, i32 } %4

6:                                                ; preds = %3
  %7 = landingpad { ptr, i32 }
          catch ptr null
  %8 = extractvalue { ptr, i32 } %7, 0
  tail call void @__clang_call_terminate(ptr %8) #18
  unreachable

9:                                                ; preds = %1
  tail call void @_ZN11xercesc_2_57XMemorydlEPv(ptr noundef nonnull %2)
  ret void
}

; Function Attrs: uwtable
define dso_local void @_ZThn16_N11xercesc_2_59DOMParserD0Ev(ptr noundef %0) unnamed_addr #2 align 2 personality ptr @__gxx_personality_v0 {
  %2 = getelementptr inbounds i8, ptr %0, i64 -16
  invoke void @_ZN11xercesc_2_59DOMParserD2Ev(ptr noundef nonnull align 8 dereferenceable(160) %2)
          to label %9 unwind label %3

3:                                                ; preds = %1
  %4 = landingpad { ptr, i32 }
          cleanup
  invoke void @_ZN11xercesc_2_57XMemorydlEPv(ptr noundef nonnull %2)
          to label %5 unwind label %6

5:                                                ; preds = %3
  resume { ptr, i32 } %4

6:                                                ; preds = %3
  %7 = landingpad { ptr, i32 }
          catch ptr null
  %8 = extractvalue { ptr, i32 } %7, 0
  tail call void @__clang_call_terminate(ptr %8) #18
  unreachable

9:                                                ; preds = %1
  tail call void @_ZN11xercesc_2_57XMemorydlEPv(ptr noundef nonnull %2)
  ret void
}

; Function Attrs: uwtable
define dso_local void @_ZThn24_N11xercesc_2_59DOMParserD0Ev(ptr noundef %0) unnamed_addr #2 align 2 personality ptr @__gxx_personality_v0 {
  %2 = getelementptr inbounds i8, ptr %0, i64 -24
  invoke void @_ZN11xercesc_2_59DOMParserD2Ev(ptr noundef nonnull align 8 dereferenceable(160) %2)
          to label %9 unwind label %3

3:                                                ; preds = %1
  %4 = landingpad { ptr, i32 }
          cleanup
  invoke void @_ZN11xercesc_2_57XMemorydlEPv(ptr noundef nonnull %2)
          to label %5 unwind label %6

5:                                                ; preds = %3
  resume { ptr, i32 } %4

6:                                                ; preds = %3
  %7 = landingpad { ptr, i32 }
          catch ptr null
  %8 = extractvalue { ptr, i32 } %7, 0
  tail call void @__clang_call_terminate(ptr %8) #18
  unreachable

9:                                                ; preds = %1
  tail call void @_ZN11xercesc_2_57XMemorydlEPv(ptr noundef nonnull %2)
  ret void
}

declare noundef ptr @_ZN11xercesc_2_57XMemorynwEmPNS_13MemoryManagerE(i64 noundef, ptr noundef) local_unnamed_addr #1

declare void @_ZN11xercesc_2_515GrammarResolverC1EPNS_14XMLGrammarPoolEPNS_13MemoryManagerE(ptr noundef nonnull align 8 dereferenceable(80), ptr noundef, ptr noundef) unnamed_addr #1

declare void @_ZN11xercesc_2_57XMemorydlEPvPNS_13MemoryManagerE(ptr noundef, ptr noundef) local_unnamed_addr #1

declare noundef ptr @_ZN11xercesc_2_518XMLScannerResolver17getDefaultScannerEPNS_12XMLValidatorEPNS_15GrammarResolverEPNS_13MemoryManagerE(ptr noundef, ptr noundef, ptr noundef) local_unnamed_addr #1

declare void @_ZN11xercesc_2_510XMLScanner16setURIStringPoolEPNS_13XMLStringPoolE(ptr noundef nonnull align 8 dereferenceable(664), ptr noundef) local_unnamed_addr #1

; Function Attrs: uwtable
define dso_local void @_ZN11xercesc_2_59DOMParser5resetEv(ptr noundef nonnull align 8 dereferenceable(160) %0) local_unnamed_addr #2 align 2 personality ptr @__gxx_personality_v0 {
  %2 = alloca %"class.xercesc_2_5::DOM_Document", align 8
  call void @llvm.lifetime.start.p0(i64 8, ptr nonnull %2) #17
  %3 = getelementptr inbounds %"class.xercesc_2_5::DOMParser", ptr %0, i64 0, i32 22
  %4 = load ptr, ptr %3, align 8, !tbaa !348
  call void @_ZN11xercesc_2_512DOM_Document14createDocumentEPNS_13MemoryManagerE(ptr nonnull sret(%"class.xercesc_2_5::DOM_Document") align 8 %2, ptr noundef %4)
  %5 = getelementptr inbounds %"class.xercesc_2_5::DOMParser", ptr %0, i64 0, i32 11
  %6 = invoke noundef nonnull align 8 dereferenceable(8) ptr @_ZN11xercesc_2_512DOM_DocumentaSERKS0_(ptr noundef nonnull align 8 dereferenceable(8) %5, ptr noundef nonnull align 8 dereferenceable(8) %2)
          to label %7 unwind label %20

7:                                                ; preds = %1
  call void @_ZN11xercesc_2_512DOM_DocumentD1Ev(ptr noundef nonnull align 8 dereferenceable(8) %2)
  call void @llvm.lifetime.end.p0(i64 8, ptr nonnull %2) #17
  %8 = load ptr, ptr %0, align 8, !tbaa !329
  %9 = getelementptr inbounds ptr, ptr %8, i64 33
  %10 = load ptr, ptr %9, align 8
  call void %10(ptr noundef nonnull align 8 dereferenceable(160) %0)
  %11 = getelementptr inbounds %"class.xercesc_2_5::DOMParser", ptr %0, i64 0, i32 9
  %12 = call noundef nonnull align 8 dereferenceable(8) ptr @_ZN11xercesc_2_58DOM_NodeaSEPKNS_11DOM_NullPtrE(ptr noundef nonnull align 8 dereferenceable(8) %11, ptr noundef null)
  %13 = getelementptr inbounds %"class.xercesc_2_5::DOMParser", ptr %0, i64 0, i32 10
  %14 = call noundef nonnull align 8 dereferenceable(8) ptr @_ZN11xercesc_2_58DOM_NodeaSEPKNS_11DOM_NullPtrE(ptr noundef nonnull align 8 dereferenceable(8) %13, ptr noundef null)
  %15 = getelementptr inbounds %"class.xercesc_2_5::DOMParser", ptr %0, i64 0, i32 7
  store i8 0, ptr %15, align 1, !tbaa !345
  %16 = getelementptr inbounds %"class.xercesc_2_5::DOMParser", ptr %0, i64 0, i32 8
  store i8 0, ptr %16, align 4, !tbaa !346
  %17 = getelementptr inbounds %"class.xercesc_2_5::DOMParser", ptr %0, i64 0, i32 16
  %18 = load ptr, ptr %17, align 8, !tbaa !374
  %19 = getelementptr inbounds %"class.xercesc_2_5::ValueStackOf", ptr %18, i64 0, i32 1, i32 1
  store i32 0, ptr %19, align 4, !tbaa !370
  ret void

20:                                               ; preds = %1
  %21 = landingpad { ptr, i32 }
          cleanup
  invoke void @_ZN11xercesc_2_512DOM_DocumentD1Ev(ptr noundef nonnull align 8 dereferenceable(8) %2)
          to label %22 unwind label %23

22:                                               ; preds = %20
  call void @llvm.lifetime.end.p0(i64 8, ptr nonnull %2) #17
  resume { ptr, i32 } %21

23:                                               ; preds = %20
  %24 = landingpad { ptr, i32 }
          catch ptr null
  %25 = extractvalue { ptr, i32 } %24, 0
  call void @__clang_call_terminate(ptr %25) #18
  unreachable
}

declare void @_ZN11xercesc_2_515GrammarResolverD1Ev(ptr noundef nonnull align 8 dereferenceable(80)) unnamed_addr #1

declare void @_ZN11xercesc_2_512DOM_Document14createDocumentEPNS_13MemoryManagerE(ptr sret(%"class.xercesc_2_5::DOM_Document") align 8, ptr noundef) local_unnamed_addr #1

declare noundef nonnull align 8 dereferenceable(8) ptr @_ZN11xercesc_2_512DOM_DocumentaSERKS0_(ptr noundef nonnull align 8 dereferenceable(8), ptr noundef nonnull align 8 dereferenceable(8)) local_unnamed_addr #1

declare noundef nonnull align 8 dereferenceable(8) ptr @_ZN11xercesc_2_58DOM_NodeaSEPKNS_11DOM_NullPtrE(ptr noundef nonnull align 8 dereferenceable(8), ptr noundef) local_unnamed_addr #1

; Function Attrs: mustprogress nofree norecurse nosync nounwind willreturn memory(read, inaccessiblemem: none) uwtable
define dso_local noundef nonnull align 8 dereferenceable(40) ptr @_ZNK11xercesc_2_59DOMParser12getValidatorEv(ptr nocapture noundef nonnull readonly align 8 dereferenceable(160) %0) local_unnamed_addr #5 align 2 {
  %2 = getelementptr inbounds %"class.xercesc_2_5::DOMParser", ptr %0, i64 0, i32 17
  %3 = load ptr, ptr %2, align 8, !tbaa !354
  %4 = getelementptr inbounds %"class.xercesc_2_5::XMLScanner", ptr %3, i64 0, i32 41
  %5 = load ptr, ptr %4, align 8, !tbaa !377
  ret ptr %5
}

; Function Attrs: mustprogress nofree norecurse nosync nounwind willreturn memory(read, inaccessiblemem: none) uwtable
define dso_local noundef zeroext i1 @_ZNK11xercesc_2_59DOMParser15getDoNamespacesEv(ptr nocapture noundef nonnull readonly align 8 dereferenceable(160) %0) local_unnamed_addr #5 align 2 {
  %2 = getelementptr inbounds %"class.xercesc_2_5::DOMParser", ptr %0, i64 0, i32 17
  %3 = load ptr, ptr %2, align 8, !tbaa !354
  %4 = getelementptr inbounds %"class.xercesc_2_5::XMLScanner", ptr %3, i64 0, i32 3
  %5 = load i8, ptr %4, align 2, !tbaa !378, !range !375, !noundef !376
  %6 = icmp ne i8 %5, 0
  ret i1 %6
}

; Function Attrs: mustprogress nofree norecurse nosync nounwind willreturn memory(read, inaccessiblemem: none) uwtable
define dso_local noundef zeroext i1 @_ZNK11xercesc_2_59DOMParser24getExitOnFirstFatalErrorEv(ptr nocapture noundef nonnull readonly align 8 dereferenceable(160) %0) local_unnamed_addr #5 align 2 {
  %2 = getelementptr inbounds %"class.xercesc_2_5::DOMParser", ptr %0, i64 0, i32 17
  %3 = load ptr, ptr %2, align 8, !tbaa !354
  %4 = getelementptr inbounds %"class.xercesc_2_5::XMLScanner", ptr %3, i64 0, i32 4
  %5 = load i8, ptr %4, align 1, !tbaa !379, !range !375, !noundef !376
  %6 = icmp ne i8 %5, 0
  ret i1 %6
}

; Function Attrs: mustprogress nofree norecurse nosync nounwind willreturn memory(read, inaccessiblemem: none) uwtable
define dso_local noundef zeroext i1 @_ZNK11xercesc_2_59DOMParser28getValidationConstraintFatalEv(ptr nocapture noundef nonnull readonly align 8 dereferenceable(160) %0) local_unnamed_addr #5 align 2 {
  %2 = getelementptr inbounds %"class.xercesc_2_5::DOMParser", ptr %0, i64 0, i32 17
  %3 = load ptr, ptr %2, align 8, !tbaa !354
  %4 = getelementptr inbounds %"class.xercesc_2_5::XMLScanner", ptr %3, i64 0, i32 5
  %5 = load i8, ptr %4, align 4, !tbaa !380, !range !375, !noundef !376
  %6 = icmp ne i8 %5, 0
  ret i1 %6
}

; Function Attrs: mustprogress nofree norecurse nosync nounwind willreturn memory(read, inaccessiblemem: none) uwtable
define dso_local noundef i32 @_ZNK11xercesc_2_59DOMParser19getValidationSchemeEv(ptr nocapture noundef nonnull readonly align 8 dereferenceable(160) %0) local_unnamed_addr #5 align 2 {
  %2 = getelementptr inbounds %"class.xercesc_2_5::DOMParser", ptr %0, i64 0, i32 17
  %3 = load ptr, ptr %2, align 8, !tbaa !354
  %4 = getelementptr inbounds %"class.xercesc_2_5::XMLScanner", ptr %3, i64 0, i32 42
  %5 = load i32, ptr %4, align 8, !tbaa !381
  %6 = icmp eq i32 %5, 0
  %7 = select i1 %6, i32 0, i32 2
  %8 = icmp eq i32 %5, 1
  %9 = select i1 %8, i32 1, i32 %7
  ret i32 %9
}

; Function Attrs: mustprogress nofree norecurse nosync nounwind willreturn memory(read, inaccessiblemem: none) uwtable
define dso_local noundef zeroext i1 @_ZNK11xercesc_2_59DOMParser11getDoSchemaEv(ptr nocapture noundef nonnull readonly align 8 dereferenceable(160) %0) local_unnamed_addr #5 align 2 {
  %2 = getelementptr inbounds %"class.xercesc_2_5::DOMParser", ptr %0, i64 0, i32 17
  %3 = load ptr, ptr %2, align 8, !tbaa !354
  %4 = getelementptr inbounds %"class.xercesc_2_5::XMLScanner", ptr %3, i64 0, i32 11
  %5 = load i8, ptr %4, align 2, !tbaa !382, !range !375, !noundef !376
  %6 = icmp ne i8 %5, 0
  ret i1 %6
}

; Function Attrs: mustprogress nofree norecurse nosync nounwind willreturn memory(read, inaccessiblemem: none) uwtable
define dso_local noundef zeroext i1 @_ZNK11xercesc_2_59DOMParser31getValidationSchemaFullCheckingEv(ptr nocapture noundef nonnull readonly align 8 dereferenceable(160) %0) local_unnamed_addr #5 align 2 {
  %2 = getelementptr inbounds %"class.xercesc_2_5::DOMParser", ptr %0, i64 0, i32 17
  %3 = load ptr, ptr %2, align 8, !tbaa !354
  %4 = getelementptr inbounds %"class.xercesc_2_5::XMLScanner", ptr %3, i64 0, i32 12
  %5 = load i8, ptr %4, align 1, !tbaa !383, !range !375, !noundef !376
  %6 = icmp ne i8 %5, 0
  ret i1 %6
}

; Function Attrs: mustprogress nofree norecurse nosync nounwind willreturn memory(read, inaccessiblemem: none) uwtable
define dso_local noundef i32 @_ZNK11xercesc_2_59DOMParser13getErrorCountEv(ptr nocapture noundef nonnull readonly align 8 dereferenceable(160) %0) local_unnamed_addr #5 align 2 {
  %2 = getelementptr inbounds %"class.xercesc_2_5::DOMParser", ptr %0, i64 0, i32 17
  %3 = load ptr, ptr %2, align 8, !tbaa !354
  %4 = getelementptr inbounds %"class.xercesc_2_5::XMLScanner", ptr %3, i64 0, i32 17
  %5 = load i32, ptr %4, align 8, !tbaa !384
  ret i32 %5
}

; Function Attrs: mustprogress nofree norecurse nosync nounwind willreturn memory(read, inaccessiblemem: none) uwtable
define dso_local noundef ptr @_ZNK11xercesc_2_59DOMParser25getExternalSchemaLocationEv(ptr nocapture noundef nonnull readonly align 8 dereferenceable(160) %0) local_unnamed_addr #5 align 2 {
  %2 = getelementptr inbounds %"class.xercesc_2_5::DOMParser", ptr %0, i64 0, i32 17
  %3 = load ptr, ptr %2, align 8, !tbaa !354
  %4 = getelementptr inbounds %"class.xercesc_2_5::XMLScanner", ptr %3, i64 0, i32 49
  %5 = load ptr, ptr %4, align 8, !tbaa !385
  ret ptr %5
}

; Function Attrs: mustprogress nofree norecurse nosync nounwind willreturn memory(read, inaccessiblemem: none) uwtable
define dso_local noundef ptr @_ZNK11xercesc_2_59DOMParser36getExternalNoNamespaceSchemaLocationEv(ptr nocapture noundef nonnull readonly align 8 dereferenceable(160) %0) local_unnamed_addr #5 align 2 {
  %2 = getelementptr inbounds %"class.xercesc_2_5::DOMParser", ptr %0, i64 0, i32 17
  %3 = load ptr, ptr %2, align 8, !tbaa !354
  %4 = getelementptr inbounds %"class.xercesc_2_5::XMLScanner", ptr %3, i64 0, i32 50
  %5 = load ptr, ptr %4, align 8, !tbaa !386
  ret ptr %5
}

; Function Attrs: mustprogress nofree norecurse nosync nounwind willreturn memory(read, inaccessiblemem: none) uwtable
define dso_local noundef zeroext i1 @_ZNK11xercesc_2_59DOMParser25isCachingGrammarFromParseEv(ptr nocapture noundef nonnull readonly align 8 dereferenceable(160) %0) local_unnamed_addr #5 align 2 {
  %2 = getelementptr inbounds %"class.xercesc_2_5::DOMParser", ptr %0, i64 0, i32 17
  %3 = load ptr, ptr %2, align 8, !tbaa !354
  %4 = getelementptr inbounds %"class.xercesc_2_5::XMLScanner", ptr %3, i64 0, i32 13
  %5 = load i8, ptr %4, align 4, !tbaa !387, !range !375, !noundef !376
  %6 = icmp ne i8 %5, 0
  ret i1 %6
}

; Function Attrs: mustprogress nofree norecurse nosync nounwind willreturn memory(read, inaccessiblemem: none) uwtable
define dso_local noundef zeroext i1 @_ZNK11xercesc_2_59DOMParser27isUsingCachedGrammarInParseEv(ptr nocapture noundef nonnull readonly align 8 dereferenceable(160) %0) local_unnamed_addr #5 align 2 {
  %2 = getelementptr inbounds %"class.xercesc_2_5::DOMParser", ptr %0, i64 0, i32 17
  %3 = load ptr, ptr %2, align 8, !tbaa !354
  %4 = getelementptr inbounds %"class.xercesc_2_5::XMLScanner", ptr %3, i64 0, i32 14
  %5 = load i8, ptr %4, align 1, !tbaa !388, !range !375, !noundef !376
  %6 = icmp ne i8 %5, 0
  ret i1 %6
}

; Function Attrs: uwtable
define dso_local noundef ptr @_ZN11xercesc_2_59DOMParser10getGrammarEPKt(ptr nocapture noundef nonnull readonly align 8 dereferenceable(160) %0, ptr noundef %1) local_unnamed_addr #2 align 2 {
  %3 = getelementptr inbounds %"class.xercesc_2_5::DOMParser", ptr %0, i64 0, i32 19
  %4 = load ptr, ptr %3, align 8, !tbaa !350
  %5 = tail call noundef ptr @_ZN11xercesc_2_515GrammarResolver10getGrammarEPKt(ptr noundef nonnull align 8 dereferenceable(80) %4, ptr noundef %1)
  ret ptr %5
}

declare noundef ptr @_ZN11xercesc_2_515GrammarResolver10getGrammarEPKt(ptr noundef nonnull align 8 dereferenceable(80), ptr noundef) local_unnamed_addr #1

; Function Attrs: mustprogress nofree norecurse nosync nounwind willreturn memory(read, inaccessiblemem: none) uwtable
define dso_local noundef ptr @_ZN11xercesc_2_59DOMParser14getRootGrammarEv(ptr nocapture noundef nonnull readonly align 8 dereferenceable(160) %0) local_unnamed_addr #5 align 2 {
  %2 = getelementptr inbounds %"class.xercesc_2_5::DOMParser", ptr %0, i64 0, i32 17
  %3 = load ptr, ptr %2, align 8, !tbaa !354
  %4 = getelementptr inbounds %"class.xercesc_2_5::XMLScanner", ptr %3, i64 0, i32 46
  %5 = load ptr, ptr %4, align 8, !tbaa !389
  ret ptr %5
}

; Function Attrs: uwtable
define dso_local noundef ptr @_ZNK11xercesc_2_59DOMParser10getURITextEj(ptr nocapture noundef nonnull readonly align 8 dereferenceable(160) %0, i32 noundef %1) local_unnamed_addr #2 align 2 {
  %3 = getelementptr inbounds %"class.xercesc_2_5::DOMParser", ptr %0, i64 0, i32 17
  %4 = load ptr, ptr %3, align 8, !tbaa !354
  %5 = tail call noundef ptr @_ZNK11xercesc_2_510XMLScanner10getURITextEj(ptr noundef nonnull align 8 dereferenceable(664) %4, i32 noundef %1)
  ret ptr %5
}

declare noundef ptr @_ZNK11xercesc_2_510XMLScanner10getURITextEj(ptr noundef nonnull align 8 dereferenceable(664), i32 noundef) local_unnamed_addr #1

; Function Attrs: mustprogress nofree norecurse nosync nounwind willreturn memory(read, inaccessiblemem: none) uwtable
define dso_local noundef zeroext i1 @_ZNK11xercesc_2_59DOMParser18getCalculateSrcOfsEv(ptr nocapture noundef nonnull readonly align 8 dereferenceable(160) %0) local_unnamed_addr #5 align 2 {
  %2 = getelementptr inbounds %"class.xercesc_2_5::DOMParser", ptr %0, i64 0, i32 17
  %3 = load ptr, ptr %2, align 8, !tbaa !354
  %4 = getelementptr inbounds %"class.xercesc_2_5::XMLScanner", ptr %3, i64 0, i32 2
  %5 = load i8, ptr %4, align 1, !tbaa !390, !range !375, !noundef !376
  %6 = icmp ne i8 %5, 0
  ret i1 %6
}

; Function Attrs: mustprogress nofree norecurse nosync nounwind willreturn memory(read, inaccessiblemem: none) uwtable
define dso_local noundef zeroext i1 @_ZNK11xercesc_2_59DOMParser24getStandardUriConformantEv(ptr nocapture noundef nonnull readonly align 8 dereferenceable(160) %0) local_unnamed_addr #5 align 2 {
  %2 = getelementptr inbounds %"class.xercesc_2_5::DOMParser", ptr %0, i64 0, i32 17
  %3 = load ptr, ptr %2, align 8, !tbaa !354
  %4 = getelementptr inbounds %"class.xercesc_2_5::XMLScanner", ptr %3, i64 0, i32 1
  %5 = load i8, ptr %4, align 8, !tbaa !391, !range !375, !noundef !376
  %6 = icmp ne i8 %5, 0
  ret i1 %6
}

; Function Attrs: uwtable
define dso_local noundef i32 @_ZNK11xercesc_2_59DOMParser12getSrcOffsetEv(ptr nocapture noundef nonnull readonly align 8 dereferenceable(160) %0) local_unnamed_addr #2 align 2 {
  %2 = getelementptr inbounds %"class.xercesc_2_5::DOMParser", ptr %0, i64 0, i32 17
  %3 = load ptr, ptr %2, align 8, !tbaa !354
  %4 = getelementptr inbounds %"class.xercesc_2_5::XMLScanner", ptr %3, i64 0, i32 40, i32 2
  %5 = load ptr, ptr %4, align 8, !tbaa !392
  %6 = tail call noundef i32 @_ZNK11xercesc_2_59XMLReader12getSrcOffsetEv(ptr noundef nonnull align 8 dereferenceable(98456) %5)
  ret i32 %6
}

; Function Attrs: mustprogress nofree norecurse nosync nounwind willreturn memory(write, argmem: readwrite, inaccessiblemem: none) uwtable
define dso_local void @_ZN11xercesc_2_59DOMParser15setDoNamespacesEb(ptr nocapture noundef nonnull readonly align 8 dereferenceable(160) %0, i1 noundef zeroext %1) local_unnamed_addr #6 align 2 {
  %3 = getelementptr inbounds %"class.xercesc_2_5::DOMParser", ptr %0, i64 0, i32 17
  %4 = load ptr, ptr %3, align 8, !tbaa !354
  %5 = zext i1 %1 to i8
  %6 = getelementptr inbounds %"class.xercesc_2_5::XMLScanner", ptr %4, i64 0, i32 3
  store i8 %5, ptr %6, align 2, !tbaa !378
  ret void
}

; Function Attrs: mustprogress nofree nosync nounwind willreturn memory(write, argmem: readwrite, inaccessiblemem: none) uwtable
define dso_local void @_ZN11xercesc_2_59DOMParser15setErrorHandlerEPNS_12ErrorHandlerE(ptr noundef nonnull align 8 dereferenceable(160) %0, ptr noundef %1) local_unnamed_addr #7 align 2 {
  %3 = getelementptr inbounds %"class.xercesc_2_5::DOMParser", ptr %0, i64 0, i32 14
  store ptr %1, ptr %3, align 8, !tbaa !393
  %4 = icmp eq ptr %1, null
  %5 = getelementptr inbounds %"class.xercesc_2_5::DOMParser", ptr %0, i64 0, i32 17
  %6 = load ptr, ptr %5, align 8, !tbaa !354
  br i1 %4, label %11, label %7

7:                                                ; preds = %2
  %8 = getelementptr inbounds i8, ptr %0, i64 8
  %9 = getelementptr inbounds %"class.xercesc_2_5::XMLScanner", ptr %6, i64 0, i32 35
  store ptr %8, ptr %9, align 8, !tbaa !394
  %10 = getelementptr inbounds %"class.xercesc_2_5::XMLScanner", ptr %6, i64 0, i32 36
  store ptr %1, ptr %10, align 8, !tbaa !395
  br label %13

11:                                               ; preds = %2
  %12 = getelementptr inbounds %"class.xercesc_2_5::XMLScanner", ptr %6, i64 0, i32 35
  tail call void @llvm.memset.p0.i64(ptr noundef nonnull align 8 dereferenceable(16) %12, i8 0, i64 16, i1 false)
  br label %13

13:                                               ; preds = %11, %7
  ret void
}

; Function Attrs: mustprogress nofree norecurse nosync nounwind willreturn memory(write, argmem: readwrite, inaccessiblemem: none) uwtable
define dso_local void @_ZN11xercesc_2_59DOMParser14setPSVIHandlerEPNS_11PSVIHandlerE(ptr nocapture noundef nonnull align 8 dereferenceable(160) %0, ptr noundef %1) local_unnamed_addr #6 align 2 {
  %3 = getelementptr inbounds %"class.xercesc_2_5::DOMParser", ptr %0, i64 0, i32 15
  store ptr %1, ptr %3, align 8, !tbaa !396
  %4 = getelementptr inbounds %"class.xercesc_2_5::DOMParser", ptr %0, i64 0, i32 17
  %5 = load ptr, ptr %4, align 8, !tbaa !354
  %6 = getelementptr inbounds %"class.xercesc_2_5::XMLScanner", ptr %5, i64 0, i32 37
  store ptr %1, ptr %6, align 8, !tbaa !397
  ret void
}

; Function Attrs: mustprogress nofree norecurse nosync nounwind willreturn memory(write, argmem: readwrite, inaccessiblemem: none) uwtable
define dso_local void @_ZN11xercesc_2_59DOMParser17setEntityResolverEPNS_14EntityResolverE(ptr noundef nonnull align 8 dereferenceable(160) %0, ptr noundef %1) local_unnamed_addr #6 align 2 {
  %3 = getelementptr inbounds %"class.xercesc_2_5::DOMParser", ptr %0, i64 0, i32 12
  store ptr %1, ptr %3, align 8, !tbaa !398
  %4 = icmp eq ptr %1, null
  %5 = getelementptr inbounds %"class.xercesc_2_5::DOMParser", ptr %0, i64 0, i32 17
  %6 = load ptr, ptr %5, align 8, !tbaa !354
  br i1 %4, label %12, label %7

7:                                                ; preds = %2
  %8 = getelementptr inbounds i8, ptr %0, i64 16
  %9 = getelementptr inbounds %"class.xercesc_2_5::XMLScanner", ptr %6, i64 0, i32 34
  store ptr %8, ptr %9, align 8, !tbaa !399
  %10 = getelementptr inbounds %"class.xercesc_2_5::XMLScanner", ptr %6, i64 0, i32 40, i32 3
  store ptr %8, ptr %10, align 8, !tbaa !400
  %11 = getelementptr inbounds %"class.xercesc_2_5::DOMParser", ptr %0, i64 0, i32 13
  br label %15

12:                                               ; preds = %2
  %13 = getelementptr inbounds %"class.xercesc_2_5::XMLScanner", ptr %6, i64 0, i32 34
  store ptr null, ptr %13, align 8, !tbaa !399
  %14 = getelementptr inbounds %"class.xercesc_2_5::XMLScanner", ptr %6, i64 0, i32 40, i32 3
  br label %15

15:                                               ; preds = %12, %7
  %16 = phi ptr [ %14, %12 ], [ %11, %7 ]
  store ptr null, ptr %16, align 8, !tbaa !401
  ret void
}

; Function Attrs: mustprogress nofree norecurse nosync nounwind willreturn memory(write, argmem: readwrite, inaccessiblemem: none) uwtable
define dso_local void @_ZN11xercesc_2_59DOMParser20setXMLEntityResolverEPNS_17XMLEntityResolverE(ptr noundef nonnull align 8 dereferenceable(160) %0, ptr noundef %1) local_unnamed_addr #6 align 2 {
  %3 = getelementptr inbounds %"class.xercesc_2_5::DOMParser", ptr %0, i64 0, i32 13
  store ptr %1, ptr %3, align 8, !tbaa !402
  %4 = icmp eq ptr %1, null
  br i1 %4, label %8, label %5

5:                                                ; preds = %2
  %6 = getelementptr inbounds %"class.xercesc_2_5::DOMParser", ptr %0, i64 0, i32 12
  store ptr null, ptr %6, align 8, !tbaa !398
  %7 = getelementptr inbounds i8, ptr %0, i64 16
  br label %8

8:                                                ; preds = %2, %5
  %9 = phi ptr [ %7, %5 ], [ null, %2 ]
  %10 = getelementptr inbounds %"class.xercesc_2_5::DOMParser", ptr %0, i64 0, i32 17
  %11 = load ptr, ptr %10, align 8, !tbaa !354
  %12 = getelementptr inbounds %"class.xercesc_2_5::XMLScanner", ptr %11, i64 0, i32 34
  store ptr %9, ptr %12, align 8, !tbaa !399
  %13 = getelementptr inbounds %"class.xercesc_2_5::XMLScanner", ptr %11, i64 0, i32 40, i32 3
  store ptr %9, ptr %13, align 8, !tbaa !400
  ret void
}

; Function Attrs: mustprogress nofree norecurse nosync nounwind willreturn memory(write, argmem: readwrite, inaccessiblemem: none) uwtable
define dso_local void @_ZN11xercesc_2_59DOMParser24setExitOnFirstFatalErrorEb(ptr nocapture noundef nonnull readonly align 8 dereferenceable(160) %0, i1 noundef zeroext %1) local_unnamed_addr #6 align 2 {
  %3 = getelementptr inbounds %"class.xercesc_2_5::DOMParser", ptr %0, i64 0, i32 17
  %4 = load ptr, ptr %3, align 8, !tbaa !354
  %5 = zext i1 %1 to i8
  %6 = getelementptr inbounds %"class.xercesc_2_5::XMLScanner", ptr %4, i64 0, i32 4
  store i8 %5, ptr %6, align 1, !tbaa !379
  ret void
}

; Function Attrs: mustprogress nofree norecurse nosync nounwind willreturn memory(write, argmem: readwrite, inaccessiblemem: none) uwtable
define dso_local void @_ZN11xercesc_2_59DOMParser28setValidationConstraintFatalEb(ptr nocapture noundef nonnull readonly align 8 dereferenceable(160) %0, i1 noundef zeroext %1) local_unnamed_addr #6 align 2 {
  %3 = getelementptr inbounds %"class.xercesc_2_5::DOMParser", ptr %0, i64 0, i32 17
  %4 = load ptr, ptr %3, align 8, !tbaa !354
  %5 = zext i1 %1 to i8
  %6 = getelementptr inbounds %"class.xercesc_2_5::XMLScanner", ptr %4, i64 0, i32 5
  store i8 %5, ptr %6, align 4, !tbaa !380
  ret void
}

; Function Attrs: mustprogress nofree norecurse nosync nounwind willreturn memory(write, argmem: readwrite, inaccessiblemem: none) uwtable
define dso_local void @_ZN11xercesc_2_59DOMParser19setValidationSchemeENS0_10ValSchemesE(ptr nocapture noundef nonnull readonly align 8 dereferenceable(160) %0, i32 noundef %1) local_unnamed_addr #6 align 2 {
  switch i32 %1, label %4 [
    i32 0, label %5
    i32 1, label %3
  ]

3:                                                ; preds = %2
  br label %5

4:                                                ; preds = %2
  br label %5

5:                                                ; preds = %2, %3, %4
  %6 = phi i32 [ 1, %3 ], [ 2, %4 ], [ %1, %2 ]
  %7 = phi i8 [ 1, %3 ], [ 0, %4 ], [ 0, %2 ]
  %8 = getelementptr inbounds %"class.xercesc_2_5::DOMParser", ptr %0, i64 0, i32 17
  %9 = load ptr, ptr %8, align 8, !tbaa !354
  %10 = getelementptr inbounds %"class.xercesc_2_5::XMLScanner", ptr %9, i64 0, i32 42
  store i32 %6, ptr %10, align 8, !tbaa !381
  %11 = getelementptr inbounds %"class.xercesc_2_5::XMLScanner", ptr %9, i64 0, i32 9
  store i8 %7, ptr %11, align 8
  ret void
}

; Function Attrs: mustprogress nofree norecurse nosync nounwind willreturn memory(write, argmem: readwrite, inaccessiblemem: none) uwtable
define dso_local void @_ZN11xercesc_2_59DOMParser11setDoSchemaEb(ptr nocapture noundef nonnull readonly align 8 dereferenceable(160) %0, i1 noundef zeroext %1) local_unnamed_addr #6 align 2 {
  %3 = getelementptr inbounds %"class.xercesc_2_5::DOMParser", ptr %0, i64 0, i32 17
  %4 = load ptr, ptr %3, align 8, !tbaa !354
  %5 = zext i1 %1 to i8
  %6 = getelementptr inbounds %"class.xercesc_2_5::XMLScanner", ptr %4, i64 0, i32 11
  store i8 %5, ptr %6, align 2, !tbaa !382
  ret void
}

; Function Attrs: mustprogress nofree norecurse nosync nounwind willreturn memory(write, argmem: readwrite, inaccessiblemem: none) uwtable
define dso_local void @_ZN11xercesc_2_59DOMParser31setValidationSchemaFullCheckingEb(ptr nocapture noundef nonnull readonly align 8 dereferenceable(160) %0, i1 noundef zeroext %1) local_unnamed_addr #6 align 2 {
  %3 = getelementptr inbounds %"class.xercesc_2_5::DOMParser", ptr %0, i64 0, i32 17
  %4 = load ptr, ptr %3, align 8, !tbaa !354
  %5 = zext i1 %1 to i8
  %6 = getelementptr inbounds %"class.xercesc_2_5::XMLScanner", ptr %4, i64 0, i32 12
  store i8 %5, ptr %6, align 1, !tbaa !383
  ret void
}

; Function Attrs: uwtable
define dso_local void @_ZN11xercesc_2_59DOMParser25setExternalSchemaLocationEPKt(ptr nocapture noundef nonnull readonly align 8 dereferenceable(160) %0, ptr noundef %1) local_unnamed_addr #2 align 2 {
  %3 = getelementptr inbounds %"class.xercesc_2_5::DOMParser", ptr %0, i64 0, i32 17
  %4 = load ptr, ptr %3, align 8, !tbaa !354
  %5 = getelementptr inbounds %"class.xercesc_2_5::XMLScanner", ptr %4, i64 0, i32 53
  %6 = load ptr, ptr %5, align 8, !tbaa !403
  %7 = getelementptr inbounds %"class.xercesc_2_5::XMLScanner", ptr %4, i64 0, i32 49
  %8 = load ptr, ptr %7, align 8, !tbaa !385
  %9 = load ptr, ptr %6, align 8, !tbaa !329
  %10 = getelementptr inbounds ptr, ptr %9, i64 3
  %11 = load ptr, ptr %10, align 8
  tail call void %11(ptr noundef nonnull align 8 dereferenceable(8) %6, ptr noundef %8)
  %12 = load ptr, ptr %5, align 8, !tbaa !403
  %13 = icmp eq ptr %1, null
  br i1 %13, label %34, label %14

14:                                               ; preds = %2
  %15 = load i16, ptr %1, align 2, !tbaa !404
  %16 = icmp eq i16 %15, 0
  br i1 %16, label %28, label %17

17:                                               ; preds = %14, %17
  %18 = phi ptr [ %19, %17 ], [ %1, %14 ]
  %19 = getelementptr inbounds i16, ptr %18, i64 1
  %20 = load i16, ptr %19, align 2, !tbaa !404
  %21 = icmp eq i16 %20, 0
  br i1 %21, label %22, label %17

22:                                               ; preds = %17
  %23 = ptrtoint ptr %19 to i64
  %24 = ptrtoint ptr %1 to i64
  %25 = sub i64 %23, %24
  %26 = add i64 %25, 2
  %27 = and i64 %26, 8589934590
  br label %28

28:                                               ; preds = %22, %14
  %29 = phi i64 [ %27, %22 ], [ 2, %14 ]
  %30 = load ptr, ptr %12, align 8, !tbaa !329
  %31 = getelementptr inbounds ptr, ptr %30, i64 2
  %32 = load ptr, ptr %31, align 8
  %33 = tail call noundef ptr %32(ptr noundef nonnull align 8 dereferenceable(8) %12, i64 noundef %29)
  tail call void @llvm.memcpy.p0.p0.i64(ptr align 2 %33, ptr nonnull align 2 %1, i64 %29, i1 false)
  br label %34

34:                                               ; preds = %2, %28
  %35 = phi ptr [ %33, %28 ], [ null, %2 ]
  store ptr %35, ptr %7, align 8, !tbaa !385
  ret void
}

; Function Attrs: uwtable
define dso_local void @_ZN11xercesc_2_59DOMParser36setExternalNoNamespaceSchemaLocationEPKt(ptr nocapture noundef nonnull readonly align 8 dereferenceable(160) %0, ptr noundef %1) local_unnamed_addr #2 align 2 {
  %3 = getelementptr inbounds %"class.xercesc_2_5::DOMParser", ptr %0, i64 0, i32 17
  %4 = load ptr, ptr %3, align 8, !tbaa !354
  %5 = getelementptr inbounds %"class.xercesc_2_5::XMLScanner", ptr %4, i64 0, i32 53
  %6 = load ptr, ptr %5, align 8, !tbaa !403
  %7 = getelementptr inbounds %"class.xercesc_2_5::XMLScanner", ptr %4, i64 0, i32 50
  %8 = load ptr, ptr %7, align 8, !tbaa !386
  %9 = load ptr, ptr %6, align 8, !tbaa !329
  %10 = getelementptr inbounds ptr, ptr %9, i64 3
  %11 = load ptr, ptr %10, align 8
  tail call void %11(ptr noundef nonnull align 8 dereferenceable(8) %6, ptr noundef %8)
  %12 = load ptr, ptr %5, align 8, !tbaa !403
  %13 = icmp eq ptr %1, null
  br i1 %13, label %34, label %14

14:                                               ; preds = %2
  %15 = load i16, ptr %1, align 2, !tbaa !404
  %16 = icmp eq i16 %15, 0
  br i1 %16, label %28, label %17

17:                                               ; preds = %14, %17
  %18 = phi ptr [ %19, %17 ], [ %1, %14 ]
  %19 = getelementptr inbounds i16, ptr %18, i64 1
  %20 = load i16, ptr %19, align 2, !tbaa !404
  %21 = icmp eq i16 %20, 0
  br i1 %21, label %22, label %17

22:                                               ; preds = %17
  %23 = ptrtoint ptr %19 to i64
  %24 = ptrtoint ptr %1 to i64
  %25 = sub i64 %23, %24
  %26 = add i64 %25, 2
  %27 = and i64 %26, 8589934590
  br label %28

28:                                               ; preds = %22, %14
  %29 = phi i64 [ %27, %22 ], [ 2, %14 ]
  %30 = load ptr, ptr %12, align 8, !tbaa !329
  %31 = getelementptr inbounds ptr, ptr %30, i64 2
  %32 = load ptr, ptr %31, align 8
  %33 = tail call noundef ptr %32(ptr noundef nonnull align 8 dereferenceable(8) %12, i64 noundef %29)
  tail call void @llvm.memcpy.p0.p0.i64(ptr align 2 %33, ptr nonnull align 2 %1, i64 %29, i1 false)
  br label %34

34:                                               ; preds = %2, %28
  %35 = phi ptr [ %33, %28 ], [ null, %2 ]
  store ptr %35, ptr %7, align 8, !tbaa !386
  ret void
}

; Function Attrs: uwtable
define dso_local void @_ZN11xercesc_2_59DOMParser25setExternalSchemaLocationEPKc(ptr nocapture noundef nonnull readonly align 8 dereferenceable(160) %0, ptr noundef %1) local_unnamed_addr #2 align 2 {
  %3 = getelementptr inbounds %"class.xercesc_2_5::DOMParser", ptr %0, i64 0, i32 17
  %4 = load ptr, ptr %3, align 8, !tbaa !354
  %5 = getelementptr inbounds %"class.xercesc_2_5::XMLScanner", ptr %4, i64 0, i32 53
  %6 = load ptr, ptr %5, align 8, !tbaa !403
  %7 = getelementptr inbounds %"class.xercesc_2_5::XMLScanner", ptr %4, i64 0, i32 49
  %8 = load ptr, ptr %7, align 8, !tbaa !385
  %9 = load ptr, ptr %6, align 8, !tbaa !329
  %10 = getelementptr inbounds ptr, ptr %9, i64 3
  %11 = load ptr, ptr %10, align 8
  tail call void %11(ptr noundef nonnull align 8 dereferenceable(8) %6, ptr noundef %8)
  %12 = load ptr, ptr %5, align 8, !tbaa !403
  %13 = tail call noundef ptr @_ZN11xercesc_2_59XMLString9transcodeEPKcPNS_13MemoryManagerE(ptr noundef %1, ptr noundef %12)
  store ptr %13, ptr %7, align 8, !tbaa !385
  ret void
}

; Function Attrs: uwtable
define dso_local void @_ZN11xercesc_2_59DOMParser36setExternalNoNamespaceSchemaLocationEPKc(ptr nocapture noundef nonnull readonly align 8 dereferenceable(160) %0, ptr noundef %1) local_unnamed_addr #2 align 2 {
  %3 = getelementptr inbounds %"class.xercesc_2_5::DOMParser", ptr %0, i64 0, i32 17
  %4 = load ptr, ptr %3, align 8, !tbaa !354
  %5 = getelementptr inbounds %"class.xercesc_2_5::XMLScanner", ptr %4, i64 0, i32 53
  %6 = load ptr, ptr %5, align 8, !tbaa !403
  %7 = getelementptr inbounds %"class.xercesc_2_5::XMLScanner", ptr %4, i64 0, i32 50
  %8 = load ptr, ptr %7, align 8, !tbaa !386
  %9 = load ptr, ptr %6, align 8, !tbaa !329
  %10 = getelementptr inbounds ptr, ptr %9, i64 3
  %11 = load ptr, ptr %10, align 8
  tail call void %11(ptr noundef nonnull align 8 dereferenceable(8) %6, ptr noundef %8)
  %12 = load ptr, ptr %5, align 8, !tbaa !403
  %13 = tail call noundef ptr @_ZN11xercesc_2_59XMLString9transcodeEPKcPNS_13MemoryManagerE(ptr noundef %1, ptr noundef %12)
  store ptr %13, ptr %7, align 8, !tbaa !386
  ret void
}

; Function Attrs: mustprogress nofree norecurse nosync nounwind willreturn memory(write, argmem: readwrite, inaccessiblemem: none) uwtable
define dso_local void @_ZN11xercesc_2_59DOMParser21cacheGrammarFromParseEb(ptr nocapture noundef nonnull readonly align 8 dereferenceable(160) %0, i1 noundef zeroext %1) local_unnamed_addr #6 align 2 {
  %3 = getelementptr inbounds %"class.xercesc_2_5::DOMParser", ptr %0, i64 0, i32 17
  %4 = load ptr, ptr %3, align 8, !tbaa !354
  %5 = zext i1 %1 to i8
  %6 = getelementptr inbounds %"class.xercesc_2_5::XMLScanner", ptr %4, i64 0, i32 13
  store i8 %5, ptr %6, align 4, !tbaa !387
  br i1 %1, label %7, label %9

7:                                                ; preds = %2
  %8 = getelementptr inbounds %"class.xercesc_2_5::XMLScanner", ptr %4, i64 0, i32 14
  store i8 1, ptr %8, align 1, !tbaa !388
  br label %9

9:                                                ; preds = %7, %2
  ret void
}

; Function Attrs: mustprogress nofree norecurse nosync nounwind willreturn memory(readwrite, inaccessiblemem: none) uwtable
define dso_local void @_ZN11xercesc_2_59DOMParser23useCachedGrammarInParseEb(ptr nocapture noundef nonnull readonly align 8 dereferenceable(160) %0, i1 noundef zeroext %1) local_unnamed_addr #8 align 2 {
  %3 = getelementptr inbounds %"class.xercesc_2_5::DOMParser", ptr %0, i64 0, i32 17
  %4 = load ptr, ptr %3, align 8, !tbaa !354
  br i1 %1, label %9, label %5

5:                                                ; preds = %2
  %6 = getelementptr inbounds %"class.xercesc_2_5::XMLScanner", ptr %4, i64 0, i32 13
  %7 = load i8, ptr %6, align 4, !tbaa !387, !range !375, !noundef !376
  %8 = icmp eq i8 %7, 0
  br i1 %8, label %9, label %12

9:                                                ; preds = %2, %5
  %10 = zext i1 %1 to i8
  %11 = getelementptr inbounds %"class.xercesc_2_5::XMLScanner", ptr %4, i64 0, i32 14
  store i8 %10, ptr %11, align 1, !tbaa !388
  br label %12

12:                                               ; preds = %9, %5
  ret void
}

; Function Attrs: mustprogress nofree norecurse nosync nounwind willreturn memory(write, argmem: readwrite, inaccessiblemem: none) uwtable
define dso_local void @_ZN11xercesc_2_59DOMParser18setCalculateSrcOfsEb(ptr nocapture noundef nonnull readonly align 8 dereferenceable(160) %0, i1 noundef zeroext %1) local_unnamed_addr #6 align 2 {
  %3 = getelementptr inbounds %"class.xercesc_2_5::DOMParser", ptr %0, i64 0, i32 17
  %4 = load ptr, ptr %3, align 8, !tbaa !354
  %5 = zext i1 %1 to i8
  %6 = getelementptr inbounds %"class.xercesc_2_5::XMLScanner", ptr %4, i64 0, i32 2
  store i8 %5, ptr %6, align 1, !tbaa !390
  ret void
}

; Function Attrs: mustprogress nofree norecurse nosync nounwind willreturn memory(write, argmem: readwrite, inaccessiblemem: none) uwtable
define dso_local void @_ZN11xercesc_2_59DOMParser24setStandardUriConformantEb(ptr nocapture noundef nonnull readonly align 8 dereferenceable(160) %0, i1 noundef zeroext %1) local_unnamed_addr #6 align 2 {
  %3 = getelementptr inbounds %"class.xercesc_2_5::DOMParser", ptr %0, i64 0, i32 17
  %4 = load ptr, ptr %3, align 8, !tbaa !354
  %5 = zext i1 %1 to i8
  %6 = getelementptr inbounds %"class.xercesc_2_5::XMLScanner", ptr %4, i64 0, i32 1
  store i8 %5, ptr %6, align 8, !tbaa !391
  %7 = getelementptr inbounds %"class.xercesc_2_5::XMLScanner", ptr %4, i64 0, i32 40, i32 9
  store i8 %5, ptr %7, align 8, !tbaa !406
  ret void
}

; Function Attrs: uwtable
define dso_local void @_ZN11xercesc_2_59DOMParser10useScannerEPKt(ptr nocapture noundef nonnull align 8 dereferenceable(160) %0, ptr noundef %1) local_unnamed_addr #2 align 2 {
  %3 = getelementptr inbounds %"class.xercesc_2_5::DOMParser", ptr %0, i64 0, i32 21
  %4 = load ptr, ptr %3, align 8, !tbaa !347
  %5 = getelementptr inbounds %"class.xercesc_2_5::DOMParser", ptr %0, i64 0, i32 19
  %6 = load ptr, ptr %5, align 8, !tbaa !350
  %7 = getelementptr inbounds %"class.xercesc_2_5::DOMParser", ptr %0, i64 0, i32 22
  %8 = load ptr, ptr %7, align 8, !tbaa !348
  %9 = tail call noundef ptr @_ZN11xercesc_2_518XMLScannerResolver14resolveScannerEPKtPNS_12XMLValidatorEPNS_15GrammarResolverEPNS_13MemoryManagerE(ptr noundef %1, ptr noundef %4, ptr noundef %6, ptr noundef %8)
  %10 = icmp eq ptr %9, null
  br i1 %10, label %23, label %11

11:                                               ; preds = %2
  %12 = getelementptr inbounds %"class.xercesc_2_5::DOMParser", ptr %0, i64 0, i32 17
  %13 = load ptr, ptr %12, align 8, !tbaa !354
  tail call void @_ZN11xercesc_2_510XMLScanner16setParseSettingsEPS0_(ptr noundef nonnull align 8 dereferenceable(664) %9, ptr noundef %13)
  %14 = getelementptr inbounds %"class.xercesc_2_5::DOMParser", ptr %0, i64 0, i32 20
  %15 = load ptr, ptr %14, align 8, !tbaa !353
  tail call void @_ZN11xercesc_2_510XMLScanner16setURIStringPoolEPNS_13XMLStringPoolE(ptr noundef nonnull align 8 dereferenceable(664) %9, ptr noundef %15)
  %16 = load ptr, ptr %12, align 8, !tbaa !354
  %17 = icmp eq ptr %16, null
  br i1 %17, label %22, label %18

18:                                               ; preds = %11
  %19 = load ptr, ptr %16, align 8, !tbaa !329
  %20 = getelementptr inbounds ptr, ptr %19, i64 1
  %21 = load ptr, ptr %20, align 8
  tail call void %21(ptr noundef nonnull align 8 dereferenceable(664) %16)
  br label %22

22:                                               ; preds = %18, %11
  store ptr %9, ptr %12, align 8, !tbaa !354
  br label %23

23:                                               ; preds = %22, %2
  ret void
}

declare noundef ptr @_ZN11xercesc_2_518XMLScannerResolver14resolveScannerEPKtPNS_12XMLValidatorEPNS_15GrammarResolverEPNS_13MemoryManagerE(ptr noundef, ptr noundef, ptr noundef, ptr noundef) local_unnamed_addr #1

declare void @_ZN11xercesc_2_510XMLScanner16setParseSettingsEPS0_(ptr noundef nonnull align 8 dereferenceable(664), ptr noundef) local_unnamed_addr #1

; Function Attrs: uwtable
define dso_local void @_ZN11xercesc_2_59DOMParser5parseERKNS_11InputSourceE(ptr nocapture noundef nonnull align 8 dereferenceable(160) %0, ptr noundef nonnull align 1 %1) local_unnamed_addr #2 align 2 personality ptr @__gxx_personality_v0 {
  %3 = getelementptr inbounds %"class.xercesc_2_5::DOMParser", ptr %0, i64 0, i32 7
  %4 = load i8, ptr %3, align 1, !tbaa !345, !range !375, !noundef !376
  %5 = icmp eq i8 %4, 0
  br i1 %5, label %13, label %6

6:                                                ; preds = %2
  %7 = tail call ptr @__cxa_allocate_exception(i64 48) #17
  %8 = getelementptr inbounds %"class.xercesc_2_5::DOMParser", ptr %0, i64 0, i32 22
  %9 = load ptr, ptr %8, align 8, !tbaa !348
  invoke void @_ZN11xercesc_2_511IOExceptionC2EPKcjNS_10XMLExcepts5CodesEPNS_13MemoryManagerE(ptr noundef nonnull align 8 dereferenceable(48) %7, ptr noundef nonnull @.str, i32 noundef 456, i32 noundef 43, ptr noundef %9)
          to label %10 unwind label %11

10:                                               ; preds = %6
  tail call void @__cxa_throw(ptr nonnull %7, ptr nonnull @_ZTIN11xercesc_2_511IOExceptionE, ptr nonnull @_ZN11xercesc_2_512XMLExceptionD2Ev) #19
  unreachable

11:                                               ; preds = %6
  %12 = landingpad { ptr, i32 }
          cleanup
  tail call void @__cxa_free_exception(ptr %7) #17
  br label %33

13:                                               ; preds = %2
  store i8 1, ptr %3, align 1, !tbaa !345
  %14 = getelementptr inbounds %"class.xercesc_2_5::DOMParser", ptr %0, i64 0, i32 17
  %15 = load ptr, ptr %14, align 8, !tbaa !354
  %16 = load ptr, ptr %15, align 8, !tbaa !329
  %17 = getelementptr inbounds ptr, ptr %16, i64 6
  %18 = load ptr, ptr %17, align 8
  invoke void %18(ptr noundef nonnull align 8 dereferenceable(664) %15, ptr noundef nonnull align 1 %1)
          to label %19 unwind label %20

19:                                               ; preds = %13
  store i8 0, ptr %3, align 1, !tbaa !345
  ret void

20:                                               ; preds = %13
  %21 = landingpad { ptr, i32 }
          catch ptr @_ZTIN11xercesc_2_520OutOfMemoryExceptionE
          catch ptr null
  %22 = extractvalue { ptr, i32 } %21, 0
  %23 = extractvalue { ptr, i32 } %21, 1
  %24 = tail call i32 @llvm.eh.typeid.for(ptr nonnull @_ZTIN11xercesc_2_520OutOfMemoryExceptionE) #17
  %25 = icmp eq i32 %23, %24
  %26 = tail call ptr @__cxa_begin_catch(ptr %22) #17
  br i1 %25, label %27, label %28

27:                                               ; preds = %20
  invoke void @__cxa_rethrow() #19
          to label %38 unwind label %31

28:                                               ; preds = %20
  store i8 0, ptr %3, align 1, !tbaa !345
  invoke void @__cxa_rethrow() #19
          to label %38 unwind label %29

29:                                               ; preds = %28
  %30 = landingpad { ptr, i32 }
          cleanup
  invoke void @__cxa_end_catch()
          to label %33 unwind label %35

31:                                               ; preds = %27
  %32 = landingpad { ptr, i32 }
          cleanup
  invoke void @__cxa_end_catch()
          to label %33 unwind label %35

33:                                               ; preds = %31, %29, %11
  %34 = phi { ptr, i32 } [ %12, %11 ], [ %30, %29 ], [ %32, %31 ]
  resume { ptr, i32 } %34

35:                                               ; preds = %31, %29
  %36 = landingpad { ptr, i32 }
          catch ptr null
  %37 = extractvalue { ptr, i32 } %36, 0
  tail call void @__clang_call_terminate(ptr %37) #18
  unreachable

38:                                               ; preds = %27, %28
  unreachable
}

declare ptr @__cxa_allocate_exception(i64) local_unnamed_addr

; Function Attrs: uwtable
define linkonce_odr dso_local void @_ZN11xercesc_2_511IOExceptionC2EPKcjNS_10XMLExcepts5CodesEPNS_13MemoryManagerE(ptr noundef nonnull align 8 dereferenceable(48) %0, ptr noundef %1, i32 noundef %2, i32 noundef %3, ptr noundef %4) unnamed_addr #2 comdat align 2 personality ptr @__gxx_personality_v0 {
  tail call void @_ZN11xercesc_2_512XMLExceptionC2EPKcjPNS_13MemoryManagerE(ptr noundef nonnull align 8 dereferenceable(48) %0, ptr noundef %1, i32 noundef %2, ptr noundef %4)
  store ptr getelementptr inbounds ({ [6 x ptr] }, ptr @_ZTVN11xercesc_2_511IOExceptionE, i64 0, inrange i32 0, i64 2), ptr %0, align 8, !tbaa !329
  invoke void @_ZN11xercesc_2_512XMLException14loadExceptTextENS_10XMLExcepts5CodesE(ptr noundef nonnull align 8 dereferenceable(48) %0, i32 noundef %3)
          to label %6 unwind label %7

6:                                                ; preds = %5
  ret void

7:                                                ; preds = %5
  %8 = landingpad { ptr, i32 }
          cleanup
  invoke void @_ZN11xercesc_2_512XMLExceptionD2Ev(ptr noundef nonnull align 8 dereferenceable(48) %0)
          to label %9 unwind label %10

9:                                                ; preds = %7
  resume { ptr, i32 } %8

10:                                               ; preds = %7
  %11 = landingpad { ptr, i32 }
          catch ptr null
  %12 = extractvalue { ptr, i32 } %11, 0
  tail call void @__clang_call_terminate(ptr %12) #18
  unreachable
}

declare void @__cxa_free_exception(ptr) local_unnamed_addr

declare void @__cxa_throw(ptr, ptr, ptr) local_unnamed_addr

; Function Attrs: uwtable
define dso_local void @_ZN11xercesc_2_59DOMParser5parseEPKt(ptr nocapture noundef nonnull align 8 dereferenceable(160) %0, ptr noundef %1) local_unnamed_addr #2 align 2 personality ptr @__gxx_personality_v0 {
  %3 = getelementptr inbounds %"class.xercesc_2_5::DOMParser", ptr %0, i64 0, i32 7
  %4 = load i8, ptr %3, align 1, !tbaa !345, !range !375, !noundef !376
  %5 = icmp eq i8 %4, 0
  br i1 %5, label %13, label %6

6:                                                ; preds = %2
  %7 = tail call ptr @__cxa_allocate_exception(i64 48) #17
  %8 = getelementptr inbounds %"class.xercesc_2_5::DOMParser", ptr %0, i64 0, i32 22
  %9 = load ptr, ptr %8, align 8, !tbaa !348
  invoke void @_ZN11xercesc_2_511IOExceptionC2EPKcjNS_10XMLExcepts5CodesEPNS_13MemoryManagerE(ptr noundef nonnull align 8 dereferenceable(48) %7, ptr noundef nonnull @.str, i32 noundef 479, i32 noundef 43, ptr noundef %9)
          to label %10 unwind label %11

10:                                               ; preds = %6
  tail call void @__cxa_throw(ptr nonnull %7, ptr nonnull @_ZTIN11xercesc_2_511IOExceptionE, ptr nonnull @_ZN11xercesc_2_512XMLExceptionD2Ev) #19
  unreachable

11:                                               ; preds = %6
  %12 = landingpad { ptr, i32 }
          cleanup
  tail call void @__cxa_free_exception(ptr %7) #17
  br label %30

13:                                               ; preds = %2
  store i8 1, ptr %3, align 1, !tbaa !345
  %14 = getelementptr inbounds %"class.xercesc_2_5::DOMParser", ptr %0, i64 0, i32 17
  %15 = load ptr, ptr %14, align 8, !tbaa !354
  invoke void @_ZN11xercesc_2_510XMLScanner12scanDocumentEPKt(ptr noundef nonnull align 8 dereferenceable(664) %15, ptr noundef %1)
          to label %16 unwind label %17

16:                                               ; preds = %13
  store i8 0, ptr %3, align 1, !tbaa !345
  ret void

17:                                               ; preds = %13
  %18 = landingpad { ptr, i32 }
          catch ptr @_ZTIN11xercesc_2_520OutOfMemoryExceptionE
          catch ptr null
  %19 = extractvalue { ptr, i32 } %18, 0
  %20 = extractvalue { ptr, i32 } %18, 1
  %21 = tail call i32 @llvm.eh.typeid.for(ptr nonnull @_ZTIN11xercesc_2_520OutOfMemoryExceptionE) #17
  %22 = icmp eq i32 %20, %21
  %23 = tail call ptr @__cxa_begin_catch(ptr %19) #17
  br i1 %22, label %24, label %25

24:                                               ; preds = %17
  invoke void @__cxa_rethrow() #19
          to label %35 unwind label %28

25:                                               ; preds = %17
  store i8 0, ptr %3, align 1, !tbaa !345
  invoke void @__cxa_rethrow() #19
          to label %35 unwind label %26

26:                                               ; preds = %25
  %27 = landingpad { ptr, i32 }
          cleanup
  invoke void @__cxa_end_catch()
          to label %30 unwind label %32

28:                                               ; preds = %24
  %29 = landingpad { ptr, i32 }
          cleanup
  invoke void @__cxa_end_catch()
          to label %30 unwind label %32

30:                                               ; preds = %28, %26, %11
  %31 = phi { ptr, i32 } [ %12, %11 ], [ %27, %26 ], [ %29, %28 ]
  resume { ptr, i32 } %31

32:                                               ; preds = %28, %26
  %33 = landingpad { ptr, i32 }
          catch ptr null
  %34 = extractvalue { ptr, i32 } %33, 0
  tail call void @__clang_call_terminate(ptr %34) #18
  unreachable

35:                                               ; preds = %24, %25
  unreachable
}

declare void @_ZN11xercesc_2_510XMLScanner12scanDocumentEPKt(ptr noundef nonnull align 8 dereferenceable(664), ptr noundef) local_unnamed_addr #1

; Function Attrs: uwtable
define dso_local void @_ZN11xercesc_2_59DOMParser5parseEPKc(ptr nocapture noundef nonnull align 8 dereferenceable(160) %0, ptr noundef %1) local_unnamed_addr #2 align 2 personality ptr @__gxx_personality_v0 {
  %3 = getelementptr inbounds %"class.xercesc_2_5::DOMParser", ptr %0, i64 0, i32 7
  %4 = load i8, ptr %3, align 1, !tbaa !345, !range !375, !noundef !376
  %5 = icmp eq i8 %4, 0
  br i1 %5, label %13, label %6

6:                                                ; preds = %2
  %7 = tail call ptr @__cxa_allocate_exception(i64 48) #17
  %8 = getelementptr inbounds %"class.xercesc_2_5::DOMParser", ptr %0, i64 0, i32 22
  %9 = load ptr, ptr %8, align 8, !tbaa !348
  invoke void @_ZN11xercesc_2_511IOExceptionC2EPKcjNS_10XMLExcepts5CodesEPNS_13MemoryManagerE(ptr noundef nonnull align 8 dereferenceable(48) %7, ptr noundef nonnull @.str, i32 noundef 502, i32 noundef 43, ptr noundef %9)
          to label %10 unwind label %11

10:                                               ; preds = %6
  tail call void @__cxa_throw(ptr nonnull %7, ptr nonnull @_ZTIN11xercesc_2_511IOExceptionE, ptr nonnull @_ZN11xercesc_2_512XMLExceptionD2Ev) #19
  unreachable

11:                                               ; preds = %6
  %12 = landingpad { ptr, i32 }
          cleanup
  tail call void @__cxa_free_exception(ptr %7) #17
  br label %30

13:                                               ; preds = %2
  store i8 1, ptr %3, align 1, !tbaa !345
  %14 = getelementptr inbounds %"class.xercesc_2_5::DOMParser", ptr %0, i64 0, i32 17
  %15 = load ptr, ptr %14, align 8, !tbaa !354
  invoke void @_ZN11xercesc_2_510XMLScanner12scanDocumentEPKc(ptr noundef nonnull align 8 dereferenceable(664) %15, ptr noundef %1)
          to label %16 unwind label %17

16:                                               ; preds = %13
  store i8 0, ptr %3, align 1, !tbaa !345
  ret void

17:                                               ; preds = %13
  %18 = landingpad { ptr, i32 }
          catch ptr @_ZTIN11xercesc_2_520OutOfMemoryExceptionE
          catch ptr null
  %19 = extractvalue { ptr, i32 } %18, 0
  %20 = extractvalue { ptr, i32 } %18, 1
  %21 = tail call i32 @llvm.eh.typeid.for(ptr nonnull @_ZTIN11xercesc_2_520OutOfMemoryExceptionE) #17
  %22 = icmp eq i32 %20, %21
  %23 = tail call ptr @__cxa_begin_catch(ptr %19) #17
  br i1 %22, label %24, label %25

24:                                               ; preds = %17
  invoke void @__cxa_rethrow() #19
          to label %35 unwind label %28

25:                                               ; preds = %17
  store i8 0, ptr %3, align 1, !tbaa !345
  invoke void @__cxa_rethrow() #19
          to label %35 unwind label %26

26:                                               ; preds = %25
  %27 = landingpad { ptr, i32 }
          cleanup
  invoke void @__cxa_end_catch()
          to label %30 unwind label %32

28:                                               ; preds = %24
  %29 = landingpad { ptr, i32 }
          cleanup
  invoke void @__cxa_end_catch()
          to label %30 unwind label %32

30:                                               ; preds = %28, %26, %11
  %31 = phi { ptr, i32 } [ %12, %11 ], [ %27, %26 ], [ %29, %28 ]
  resume { ptr, i32 } %31

32:                                               ; preds = %28, %26
  %33 = landingpad { ptr, i32 }
          catch ptr null
  %34 = extractvalue { ptr, i32 } %33, 0
  tail call void @__clang_call_terminate(ptr %34) #18
  unreachable

35:                                               ; preds = %24, %25
  unreachable
}

declare void @_ZN11xercesc_2_510XMLScanner12scanDocumentEPKc(ptr noundef nonnull align 8 dereferenceable(664), ptr noundef) local_unnamed_addr #1

; Function Attrs: uwtable
define dso_local noundef zeroext i1 @_ZN11xercesc_2_59DOMParser10parseFirstEPKtRNS_13XMLPScanTokenE(ptr nocapture noundef nonnull readonly align 8 dereferenceable(160) %0, ptr noundef %1, ptr noundef nonnull align 1 %2) local_unnamed_addr #2 align 2 personality ptr @__gxx_personality_v0 {
  %4 = getelementptr inbounds %"class.xercesc_2_5::DOMParser", ptr %0, i64 0, i32 7
  %5 = load i8, ptr %4, align 1, !tbaa !345, !range !375, !noundef !376
  %6 = icmp eq i8 %5, 0
  br i1 %6, label %14, label %7

7:                                                ; preds = %3
  %8 = tail call ptr @__cxa_allocate_exception(i64 48) #17
  %9 = getelementptr inbounds %"class.xercesc_2_5::DOMParser", ptr %0, i64 0, i32 22
  %10 = load ptr, ptr %9, align 8, !tbaa !348
  invoke void @_ZN11xercesc_2_511IOExceptionC2EPKcjNS_10XMLExcepts5CodesEPNS_13MemoryManagerE(ptr noundef nonnull align 8 dereferenceable(48) %8, ptr noundef nonnull @.str, i32 noundef 534, i32 noundef 43, ptr noundef %10)
          to label %11 unwind label %12

11:                                               ; preds = %7
  tail call void @__cxa_throw(ptr nonnull %8, ptr nonnull @_ZTIN11xercesc_2_511IOExceptionE, ptr nonnull @_ZN11xercesc_2_512XMLExceptionD2Ev) #19
  unreachable

12:                                               ; preds = %7
  %13 = landingpad { ptr, i32 }
          cleanup
  tail call void @__cxa_free_exception(ptr %8) #17
  resume { ptr, i32 } %13

14:                                               ; preds = %3
  %15 = getelementptr inbounds %"class.xercesc_2_5::DOMParser", ptr %0, i64 0, i32 17
  %16 = load ptr, ptr %15, align 8, !tbaa !354
  %17 = tail call noundef zeroext i1 @_ZN11xercesc_2_510XMLScanner9scanFirstEPKtRNS_13XMLPScanTokenE(ptr noundef nonnull align 8 dereferenceable(664) %16, ptr noundef %1, ptr noundef nonnull align 1 %2)
  ret i1 %17
}

declare noundef zeroext i1 @_ZN11xercesc_2_510XMLScanner9scanFirstEPKtRNS_13XMLPScanTokenE(ptr noundef nonnull align 8 dereferenceable(664), ptr noundef, ptr noundef nonnull align 1) local_unnamed_addr #1

; Function Attrs: uwtable
define dso_local noundef zeroext i1 @_ZN11xercesc_2_59DOMParser10parseFirstEPKcRNS_13XMLPScanTokenE(ptr nocapture noundef nonnull readonly align 8 dereferenceable(160) %0, ptr noundef %1, ptr noundef nonnull align 1 %2) local_unnamed_addr #2 align 2 personality ptr @__gxx_personality_v0 {
  %4 = getelementptr inbounds %"class.xercesc_2_5::DOMParser", ptr %0, i64 0, i32 7
  %5 = load i8, ptr %4, align 1, !tbaa !345, !range !375, !noundef !376
  %6 = icmp eq i8 %5, 0
  br i1 %6, label %14, label %7

7:                                                ; preds = %3
  %8 = tail call ptr @__cxa_allocate_exception(i64 48) #17
  %9 = getelementptr inbounds %"class.xercesc_2_5::DOMParser", ptr %0, i64 0, i32 22
  %10 = load ptr, ptr %9, align 8, !tbaa !348
  invoke void @_ZN11xercesc_2_511IOExceptionC2EPKcjNS_10XMLExcepts5CodesEPNS_13MemoryManagerE(ptr noundef nonnull align 8 dereferenceable(48) %8, ptr noundef nonnull @.str, i32 noundef 547, i32 noundef 43, ptr noundef %10)
          to label %11 unwind label %12

11:                                               ; preds = %7
  tail call void @__cxa_throw(ptr nonnull %8, ptr nonnull @_ZTIN11xercesc_2_511IOExceptionE, ptr nonnull @_ZN11xercesc_2_512XMLExceptionD2Ev) #19
  unreachable

12:                                               ; preds = %7
  %13 = landingpad { ptr, i32 }
          cleanup
  tail call void @__cxa_free_exception(ptr %8) #17
  resume { ptr, i32 } %13

14:                                               ; preds = %3
  %15 = getelementptr inbounds %"class.xercesc_2_5::DOMParser", ptr %0, i64 0, i32 17
  %16 = load ptr, ptr %15, align 8, !tbaa !354
  %17 = tail call noundef zeroext i1 @_ZN11xercesc_2_510XMLScanner9scanFirstEPKcRNS_13XMLPScanTokenE(ptr noundef nonnull align 8 dereferenceable(664) %16, ptr noundef %1, ptr noundef nonnull align 1 %2)
  ret i1 %17
}

declare noundef zeroext i1 @_ZN11xercesc_2_510XMLScanner9scanFirstEPKcRNS_13XMLPScanTokenE(ptr noundef nonnull align 8 dereferenceable(664), ptr noundef, ptr noundef nonnull align 1) local_unnamed_addr #1

; Function Attrs: uwtable
define dso_local noundef zeroext i1 @_ZN11xercesc_2_59DOMParser10parseFirstERKNS_11InputSourceERNS_13XMLPScanTokenE(ptr nocapture noundef nonnull readonly align 8 dereferenceable(160) %0, ptr noundef nonnull align 1 %1, ptr noundef nonnull align 1 %2) local_unnamed_addr #2 align 2 personality ptr @__gxx_personality_v0 {
  %4 = getelementptr inbounds %"class.xercesc_2_5::DOMParser", ptr %0, i64 0, i32 7
  %5 = load i8, ptr %4, align 1, !tbaa !345, !range !375, !noundef !376
  %6 = icmp eq i8 %5, 0
  br i1 %6, label %14, label %7

7:                                                ; preds = %3
  %8 = tail call ptr @__cxa_allocate_exception(i64 48) #17
  %9 = getelementptr inbounds %"class.xercesc_2_5::DOMParser", ptr %0, i64 0, i32 22
  %10 = load ptr, ptr %9, align 8, !tbaa !348
  invoke void @_ZN11xercesc_2_511IOExceptionC2EPKcjNS_10XMLExcepts5CodesEPNS_13MemoryManagerE(ptr noundef nonnull align 8 dereferenceable(48) %8, ptr noundef nonnull @.str, i32 noundef 560, i32 noundef 43, ptr noundef %10)
          to label %11 unwind label %12

11:                                               ; preds = %7
  tail call void @__cxa_throw(ptr nonnull %8, ptr nonnull @_ZTIN11xercesc_2_511IOExceptionE, ptr nonnull @_ZN11xercesc_2_512XMLExceptionD2Ev) #19
  unreachable

12:                                               ; preds = %7
  %13 = landingpad { ptr, i32 }
          cleanup
  tail call void @__cxa_free_exception(ptr %8) #17
  resume { ptr, i32 } %13

14:                                               ; preds = %3
  %15 = getelementptr inbounds %"class.xercesc_2_5::DOMParser", ptr %0, i64 0, i32 17
  %16 = load ptr, ptr %15, align 8, !tbaa !354
  %17 = tail call noundef zeroext i1 @_ZN11xercesc_2_510XMLScanner9scanFirstERKNS_11InputSourceERNS_13XMLPScanTokenE(ptr noundef nonnull align 8 dereferenceable(664) %16, ptr noundef nonnull align 1 %1, ptr noundef nonnull align 1 %2)
  ret i1 %17
}

declare noundef zeroext i1 @_ZN11xercesc_2_510XMLScanner9scanFirstERKNS_11InputSourceERNS_13XMLPScanTokenE(ptr noundef nonnull align 8 dereferenceable(664), ptr noundef nonnull align 1, ptr noundef nonnull align 1) local_unnamed_addr #1

; Function Attrs: uwtable
define dso_local noundef zeroext i1 @_ZN11xercesc_2_59DOMParser9parseNextERNS_13XMLPScanTokenE(ptr nocapture noundef nonnull readonly align 8 dereferenceable(160) %0, ptr noundef nonnull align 1 %1) local_unnamed_addr #2 align 2 {
  %3 = getelementptr inbounds %"class.xercesc_2_5::DOMParser", ptr %0, i64 0, i32 17
  %4 = load ptr, ptr %3, align 8, !tbaa !354
  %5 = load ptr, ptr %4, align 8, !tbaa !329
  %6 = getelementptr inbounds ptr, ptr %5, i64 7
  %7 = load ptr, ptr %6, align 8
  %8 = tail call noundef zeroext i1 %7(ptr noundef nonnull align 8 dereferenceable(664) %4, ptr noundef nonnull align 1 %1)
  ret i1 %8
}

; Function Attrs: uwtable
define dso_local void @_ZN11xercesc_2_59DOMParser10parseResetERNS_13XMLPScanTokenE(ptr noundef nonnull align 8 dereferenceable(160) %0, ptr noundef nonnull align 1 %1) local_unnamed_addr #2 align 2 {
  %3 = getelementptr inbounds %"class.xercesc_2_5::DOMParser", ptr %0, i64 0, i32 17
  %4 = load ptr, ptr %3, align 8, !tbaa !354
  tail call void @_ZN11xercesc_2_510XMLScanner9scanResetERNS_13XMLPScanTokenE(ptr noundef nonnull align 8 dereferenceable(664) %4, ptr noundef nonnull align 1 %1)
  tail call void @_ZN11xercesc_2_59DOMParser5resetEv(ptr noundef nonnull align 8 dereferenceable(160) %0)
  ret void
}

declare void @_ZN11xercesc_2_510XMLScanner9scanResetERNS_13XMLPScanTokenE(ptr noundef nonnull align 8 dereferenceable(664), ptr noundef nonnull align 1) local_unnamed_addr #1

; Function Attrs: uwtable
define dso_local void @_ZN11xercesc_2_59DOMParser5errorEjPKtNS_16XMLErrorReporter8ErrTypesES2_S2_S2_ll(ptr nocapture noundef nonnull readonly align 8 dereferenceable(160) %0, i32 %1, ptr nocapture readnone %2, i32 noundef %3, ptr noundef %4, ptr noundef %5, ptr noundef %6, i64 noundef %7, i64 noundef %8) unnamed_addr #2 align 2 personality ptr @__gxx_personality_v0 {
  %10 = alloca %"class.xercesc_2_5::SAXParseException", align 8
  call void @llvm.lifetime.start.p0(i64 56, ptr nonnull %10) #17
  %11 = getelementptr inbounds %"class.xercesc_2_5::DOMParser", ptr %0, i64 0, i32 22
  %12 = load ptr, ptr %11, align 8, !tbaa !348
  call void @_ZN11xercesc_2_517SAXParseExceptionC1EPKtS2_S2_llPNS_13MemoryManagerE(ptr noundef nonnull align 8 dereferenceable(56) %10, ptr noundef %4, ptr noundef %6, ptr noundef %5, i64 noundef %7, i64 noundef %8, ptr noundef %12)
  %13 = getelementptr inbounds %"class.xercesc_2_5::DOMParser", ptr %0, i64 0, i32 14
  %14 = load ptr, ptr %13, align 8, !tbaa !393
  %15 = icmp eq ptr %14, null
  br i1 %15, label %16, label %25

16:                                               ; preds = %9
  %17 = icmp eq i32 %3, 2
  br i1 %17, label %18, label %40

18:                                               ; preds = %16
  %19 = call ptr @__cxa_allocate_exception(i64 56) #17
  invoke void @_ZN11xercesc_2_517SAXParseExceptionC1ERKS0_(ptr noundef nonnull align 8 dereferenceable(56) %19, ptr noundef nonnull align 8 dereferenceable(56) %10)
          to label %20 unwind label %21

20:                                               ; preds = %18
  invoke void @__cxa_throw(ptr nonnull %19, ptr nonnull @_ZTIN11xercesc_2_517SAXParseExceptionE, ptr nonnull @_ZN11xercesc_2_517SAXParseExceptionD1Ev) #19
          to label %47 unwind label %23

21:                                               ; preds = %18
  %22 = landingpad { ptr, i32 }
          cleanup
  call void @__cxa_free_exception(ptr %19) #17
  br label %41

23:                                               ; preds = %37, %20
  %24 = landingpad { ptr, i32 }
          cleanup
  br label %41

25:                                               ; preds = %9
  %26 = icmp eq i32 %3, 0
  br i1 %26, label %27, label %30

27:                                               ; preds = %25
  %28 = load ptr, ptr %14, align 8, !tbaa !329
  %29 = getelementptr inbounds ptr, ptr %28, i64 2
  br label %37

30:                                               ; preds = %25
  %31 = icmp sgt i32 %3, 1
  %32 = load ptr, ptr %14, align 8, !tbaa !329
  br i1 %31, label %33, label %35

33:                                               ; preds = %30
  %34 = getelementptr inbounds ptr, ptr %32, i64 4
  br label %37

35:                                               ; preds = %30
  %36 = getelementptr inbounds ptr, ptr %32, i64 3
  br label %37

37:                                               ; preds = %27, %33, %35
  %38 = phi ptr [ %29, %27 ], [ %34, %33 ], [ %36, %35 ]
  %39 = load ptr, ptr %38, align 8
  invoke void %39(ptr noundef nonnull align 8 dereferenceable(8) %14, ptr noundef nonnull align 8 dereferenceable(56) %10)
          to label %40 unwind label %23

40:                                               ; preds = %37, %16
  call void @_ZN11xercesc_2_517SAXParseExceptionD1Ev(ptr noundef nonnull align 8 dereferenceable(56) %10)
  call void @llvm.lifetime.end.p0(i64 56, ptr nonnull %10) #17
  ret void

41:                                               ; preds = %23, %21
  %42 = phi { ptr, i32 } [ %24, %23 ], [ %22, %21 ]
  invoke void @_ZN11xercesc_2_517SAXParseExceptionD1Ev(ptr noundef nonnull align 8 dereferenceable(56) %10)
          to label %43 unwind label %44

43:                                               ; preds = %41
  call void @llvm.lifetime.end.p0(i64 56, ptr nonnull %10) #17
  resume { ptr, i32 } %42

44:                                               ; preds = %41
  %45 = landingpad { ptr, i32 }
          catch ptr null
  %46 = extractvalue { ptr, i32 } %45, 0
  call void @__clang_call_terminate(ptr %46) #18
  unreachable

47:                                               ; preds = %20
  unreachable
}

declare void @_ZN11xercesc_2_517SAXParseExceptionC1EPKtS2_S2_llPNS_13MemoryManagerE(ptr noundef nonnull align 8 dereferenceable(56), ptr noundef, ptr noundef, ptr noundef, i64 noundef, i64 noundef, ptr noundef) unnamed_addr #1

declare void @_ZN11xercesc_2_517SAXParseExceptionC1ERKS0_(ptr noundef nonnull align 8 dereferenceable(56), ptr noundef nonnull align 8 dereferenceable(56)) unnamed_addr #1

declare void @_ZN11xercesc_2_517SAXParseExceptionD1Ev(ptr noundef nonnull align 8 dereferenceable(56)) unnamed_addr #1

; Function Attrs: uwtable
define dso_local void @_ZThn8_N11xercesc_2_59DOMParser5errorEjPKtNS_16XMLErrorReporter8ErrTypesES2_S2_S2_ll(ptr nocapture noundef readonly %0, i32 %1, ptr nocapture readnone %2, i32 noundef %3, ptr noundef %4, ptr noundef %5, ptr noundef %6, i64 noundef %7, i64 noundef %8) unnamed_addr #2 align 2 {
  %10 = getelementptr inbounds i8, ptr %0, i64 -8
  tail call void @_ZN11xercesc_2_59DOMParser5errorEjPKtNS_16XMLErrorReporter8ErrTypesES2_S2_S2_ll(ptr noundef nonnull align 8 dereferenceable(160) %10, i32 poison, ptr poison, i32 noundef %3, ptr noundef %4, ptr noundef %5, ptr noundef %6, i64 noundef %7, i64 noundef %8)
  ret void
}

; Function Attrs: mustprogress nofree norecurse nosync nounwind willreturn memory(none) uwtable
define dso_local void @_ZN11xercesc_2_59DOMParser11resetErrorsEv(ptr nocapture nonnull align 8 %0) unnamed_addr #9 align 2 {
  ret void
}

; Function Attrs: mustprogress nofree norecurse nosync nounwind willreturn memory(none) uwtable
define dso_local void @_ZThn8_N11xercesc_2_59DOMParser11resetErrorsEv(ptr nocapture readnone %0) unnamed_addr #9 align 2 {
  ret void
}

; Function Attrs: uwtable
define dso_local noundef ptr @_ZN11xercesc_2_59DOMParser13resolveEntityEPKtS2_S2_(ptr nocapture noundef nonnull readonly align 8 dereferenceable(160) %0, ptr noundef %1, ptr noundef %2, ptr nocapture readnone %3) unnamed_addr #2 align 2 {
  %5 = getelementptr inbounds %"class.xercesc_2_5::DOMParser", ptr %0, i64 0, i32 12
  %6 = load ptr, ptr %5, align 8, !tbaa !398
  %7 = icmp eq ptr %6, null
  br i1 %7, label %13, label %8

8:                                                ; preds = %4
  %9 = load ptr, ptr %6, align 8, !tbaa !329
  %10 = getelementptr inbounds ptr, ptr %9, i64 2
  %11 = load ptr, ptr %10, align 8
  %12 = tail call noundef ptr %11(ptr noundef nonnull align 8 dereferenceable(8) %6, ptr noundef %1, ptr noundef %2)
  br label %13

13:                                               ; preds = %4, %8
  %14 = phi ptr [ %12, %8 ], [ null, %4 ]
  ret ptr %14
}

; Function Attrs: uwtable
define dso_local noundef ptr @_ZThn16_N11xercesc_2_59DOMParser13resolveEntityEPKtS2_S2_(ptr nocapture noundef readonly %0, ptr noundef %1, ptr noundef %2, ptr nocapture readnone %3) unnamed_addr #2 align 2 {
  %5 = getelementptr inbounds i8, ptr %0, i64 48
  %6 = load ptr, ptr %5, align 8, !tbaa !398
  %7 = icmp eq ptr %6, null
  br i1 %7, label %13, label %8

8:                                                ; preds = %4
  %9 = load ptr, ptr %6, align 8, !tbaa !329
  %10 = getelementptr inbounds ptr, ptr %9, i64 2
  %11 = load ptr, ptr %10, align 8
  %12 = tail call noundef ptr %11(ptr noundef nonnull align 8 dereferenceable(8) %6, ptr noundef %1, ptr noundef %2)
  br label %13

13:                                               ; preds = %4, %8
  %14 = phi ptr [ %12, %8 ], [ null, %4 ]
  ret ptr %14
}

; Function Attrs: uwtable
define dso_local noundef ptr @_ZN11xercesc_2_59DOMParser13resolveEntityEPNS_21XMLResourceIdentifierE(ptr nocapture noundef nonnull readonly align 8 dereferenceable(160) %0, ptr noundef %1) unnamed_addr #2 align 2 {
  %3 = getelementptr inbounds %"class.xercesc_2_5::DOMParser", ptr %0, i64 0, i32 12
  %4 = load ptr, ptr %3, align 8, !tbaa !398
  %5 = icmp eq ptr %4, null
  br i1 %5, label %15, label %6

6:                                                ; preds = %2
  %7 = getelementptr inbounds %"class.xercesc_2_5::XMLResourceIdentifier", ptr %1, i64 0, i32 1
  %8 = load ptr, ptr %7, align 8, !tbaa !407
  %9 = getelementptr inbounds %"class.xercesc_2_5::XMLResourceIdentifier", ptr %1, i64 0, i32 2
  %10 = load ptr, ptr %9, align 8, !tbaa !410
  %11 = load ptr, ptr %4, align 8, !tbaa !329
  %12 = getelementptr inbounds ptr, ptr %11, i64 2
  %13 = load ptr, ptr %12, align 8
  %14 = tail call noundef ptr %13(ptr noundef nonnull align 8 dereferenceable(8) %4, ptr noundef %8, ptr noundef %10)
  br label %24

15:                                               ; preds = %2
  %16 = getelementptr inbounds %"class.xercesc_2_5::DOMParser", ptr %0, i64 0, i32 13
  %17 = load ptr, ptr %16, align 8, !tbaa !402
  %18 = icmp eq ptr %17, null
  br i1 %18, label %24, label %19

19:                                               ; preds = %15
  %20 = load ptr, ptr %17, align 8, !tbaa !329
  %21 = getelementptr inbounds ptr, ptr %20, i64 2
  %22 = load ptr, ptr %21, align 8
  %23 = tail call noundef ptr %22(ptr noundef nonnull align 8 dereferenceable(8) %17, ptr noundef %1)
  br label %24

24:                                               ; preds = %15, %19, %6
  %25 = phi ptr [ %14, %6 ], [ %23, %19 ], [ null, %15 ]
  ret ptr %25
}

; Function Attrs: uwtable
define dso_local noundef ptr @_ZThn16_N11xercesc_2_59DOMParser13resolveEntityEPNS_21XMLResourceIdentifierE(ptr nocapture noundef readonly %0, ptr noundef %1) unnamed_addr #2 align 2 {
  %3 = getelementptr inbounds i8, ptr %0, i64 48
  %4 = load ptr, ptr %3, align 8, !tbaa !398
  %5 = icmp eq ptr %4, null
  br i1 %5, label %15, label %6

6:                                                ; preds = %2
  %7 = getelementptr inbounds %"class.xercesc_2_5::XMLResourceIdentifier", ptr %1, i64 0, i32 1
  %8 = load ptr, ptr %7, align 8, !tbaa !407
  %9 = getelementptr inbounds %"class.xercesc_2_5::XMLResourceIdentifier", ptr %1, i64 0, i32 2
  %10 = load ptr, ptr %9, align 8, !tbaa !410
  %11 = load ptr, ptr %4, align 8, !tbaa !329
  %12 = getelementptr inbounds ptr, ptr %11, i64 2
  %13 = load ptr, ptr %12, align 8
  %14 = tail call noundef ptr %13(ptr noundef nonnull align 8 dereferenceable(8) %4, ptr noundef %8, ptr noundef %10)
  br label %24

15:                                               ; preds = %2
  %16 = getelementptr inbounds i8, ptr %0, i64 56
  %17 = load ptr, ptr %16, align 8, !tbaa !402
  %18 = icmp eq ptr %17, null
  br i1 %18, label %24, label %19

19:                                               ; preds = %15
  %20 = load ptr, ptr %17, align 8, !tbaa !329
  %21 = getelementptr inbounds ptr, ptr %20, i64 2
  %22 = load ptr, ptr %21, align 8
  %23 = tail call noundef ptr %22(ptr noundef nonnull align 8 dereferenceable(8) %17, ptr noundef %1)
  br label %24

24:                                               ; preds = %6, %15, %19
  %25 = phi ptr [ %14, %6 ], [ %23, %19 ], [ null, %15 ]
  ret ptr %25
}

; Function Attrs: uwtable
define dso_local void @_ZN11xercesc_2_59DOMParser13docCharactersEPKtjb(ptr noundef nonnull align 8 dereferenceable(160) %0, ptr noundef %1, i32 noundef %2, i1 noundef zeroext %3) unnamed_addr #2 align 2 personality ptr @__gxx_personality_v0 {
  %5 = alloca %"class.xercesc_2_5::DOM_CDATASection", align 8
  %6 = alloca %"class.xercesc_2_5::DOMString", align 8
  %7 = alloca %"class.xercesc_2_5::DOM_Node", align 8
  %8 = alloca %"class.xercesc_2_5::DOM_Text", align 8
  %9 = alloca %"class.xercesc_2_5::DOMString", align 8
  %10 = alloca %"class.xercesc_2_5::DOM_Text", align 8
  %11 = alloca %"class.xercesc_2_5::DOMString", align 8
  %12 = alloca %"class.xercesc_2_5::DOM_Node", align 8
  %13 = getelementptr inbounds %"class.xercesc_2_5::DOMParser", ptr %0, i64 0, i32 8
  %14 = load i8, ptr %13, align 4, !tbaa !346, !range !375, !noundef !376
  %15 = icmp eq i8 %14, 0
  br i1 %15, label %63, label %16

16:                                               ; preds = %4
  br i1 %3, label %17, label %33

17:                                               ; preds = %16
  call void @llvm.lifetime.start.p0(i64 8, ptr nonnull %5) #17
  %18 = getelementptr inbounds %"class.xercesc_2_5::DOMParser", ptr %0, i64 0, i32 11
  call void @llvm.lifetime.start.p0(i64 8, ptr nonnull %6) #17
  call void @_ZN11xercesc_2_59DOMStringC1EPKtj(ptr noundef nonnull align 8 dereferenceable(8) %6, ptr noundef %1, i32 noundef %2)
  invoke void @_ZN11xercesc_2_512DOM_Document18createCDATASectionERKNS_9DOMStringE(ptr nonnull sret(%"class.xercesc_2_5::DOM_CDATASection") align 8 %5, ptr noundef nonnull align 8 dereferenceable(8) %18, ptr noundef nonnull align 8 dereferenceable(8) %6)
          to label %19 unwind label %26

19:                                               ; preds = %17
  call void @_ZN11xercesc_2_59DOMStringD1Ev(ptr noundef nonnull align 8 dereferenceable(8) %6)
  call void @llvm.lifetime.end.p0(i64 8, ptr nonnull %6) #17
  %20 = getelementptr inbounds %"class.xercesc_2_5::DOMParser", ptr %0, i64 0, i32 9
  invoke void @_ZN11xercesc_2_58DOM_Node11appendChildERKS0_(ptr nonnull sret(%"class.xercesc_2_5::DOM_Node") align 8 %7, ptr noundef nonnull align 8 dereferenceable(8) %20, ptr noundef nonnull align 8 dereferenceable(8) %5)
          to label %21 unwind label %29

21:                                               ; preds = %19
  invoke void @_ZN11xercesc_2_58DOM_NodeD1Ev(ptr noundef nonnull align 8 dereferenceable(8) %7)
          to label %22 unwind label %29

22:                                               ; preds = %21
  %23 = getelementptr inbounds %"class.xercesc_2_5::DOMParser", ptr %0, i64 0, i32 10
  %24 = invoke noundef nonnull align 8 dereferenceable(8) ptr @_ZN11xercesc_2_58DOM_NodeaSERKS0_(ptr noundef nonnull align 8 dereferenceable(8) %23, ptr noundef nonnull align 8 dereferenceable(8) %5)
          to label %25 unwind label %29

25:                                               ; preds = %22
  call void @_ZN11xercesc_2_516DOM_CDATASectionD1Ev(ptr noundef nonnull align 8 dereferenceable(8) %5)
  call void @llvm.lifetime.end.p0(i64 8, ptr nonnull %5) #17
  br label %63

26:                                               ; preds = %17
  %27 = landingpad { ptr, i32 }
          cleanup
  invoke void @_ZN11xercesc_2_59DOMStringD1Ev(ptr noundef nonnull align 8 dereferenceable(8) %6)
          to label %28 unwind label %66

28:                                               ; preds = %26
  call void @llvm.lifetime.end.p0(i64 8, ptr nonnull %6) #17
  br label %31

29:                                               ; preds = %22, %21, %19
  %30 = landingpad { ptr, i32 }
          cleanup
  invoke void @_ZN11xercesc_2_516DOM_CDATASectionD1Ev(ptr noundef nonnull align 8 dereferenceable(8) %5)
          to label %31 unwind label %66

31:                                               ; preds = %29, %28
  %32 = phi { ptr, i32 } [ %30, %29 ], [ %27, %28 ]
  call void @llvm.lifetime.end.p0(i64 8, ptr nonnull %5) #17
  br label %64

33:                                               ; preds = %16
  %34 = getelementptr inbounds %"class.xercesc_2_5::DOMParser", ptr %0, i64 0, i32 10
  %35 = tail call noundef signext i16 @_ZNK11xercesc_2_58DOM_Node11getNodeTypeEv(ptr noundef nonnull align 8 dereferenceable(8) %34)
  %36 = icmp eq i16 %35, 3
  br i1 %36, label %37, label %48

37:                                               ; preds = %33
  call void @llvm.lifetime.start.p0(i64 8, ptr nonnull %8) #17
  call void @_ZN11xercesc_2_58DOM_TextC1ERKS0_(ptr noundef nonnull align 8 dereferenceable(8) %8, ptr noundef nonnull align 8 dereferenceable(8) %34)
  call void @llvm.lifetime.start.p0(i64 8, ptr nonnull %9) #17
  invoke void @_ZN11xercesc_2_59DOMStringC1EPKtj(ptr noundef nonnull align 8 dereferenceable(8) %9, ptr noundef %1, i32 noundef %2)
          to label %38 unwind label %41

38:                                               ; preds = %37
  invoke void @_ZN11xercesc_2_517DOM_CharacterData10appendDataERKNS_9DOMStringE(ptr noundef nonnull align 8 dereferenceable(8) %8, ptr noundef nonnull align 8 dereferenceable(8) %9)
          to label %39 unwind label %43

39:                                               ; preds = %38
  invoke void @_ZN11xercesc_2_59DOMStringD1Ev(ptr noundef nonnull align 8 dereferenceable(8) %9)
          to label %40 unwind label %41

40:                                               ; preds = %39
  call void @llvm.lifetime.end.p0(i64 8, ptr nonnull %9) #17
  call void @_ZN11xercesc_2_58DOM_TextD1Ev(ptr noundef nonnull align 8 dereferenceable(8) %8)
  call void @llvm.lifetime.end.p0(i64 8, ptr nonnull %8) #17
  br label %63

41:                                               ; preds = %39, %37
  %42 = landingpad { ptr, i32 }
          cleanup
  br label %45

43:                                               ; preds = %38
  %44 = landingpad { ptr, i32 }
          cleanup
  invoke void @_ZN11xercesc_2_59DOMStringD1Ev(ptr noundef nonnull align 8 dereferenceable(8) %9)
          to label %45 unwind label %66

45:                                               ; preds = %43, %41
  %46 = phi { ptr, i32 } [ %42, %41 ], [ %44, %43 ]
  call void @llvm.lifetime.end.p0(i64 8, ptr nonnull %9) #17
  invoke void @_ZN11xercesc_2_58DOM_TextD1Ev(ptr noundef nonnull align 8 dereferenceable(8) %8)
          to label %47 unwind label %66

47:                                               ; preds = %45
  call void @llvm.lifetime.end.p0(i64 8, ptr nonnull %8) #17
  br label %64

48:                                               ; preds = %33
  call void @llvm.lifetime.start.p0(i64 8, ptr nonnull %10) #17
  %49 = getelementptr inbounds %"class.xercesc_2_5::DOMParser", ptr %0, i64 0, i32 11
  call void @llvm.lifetime.start.p0(i64 8, ptr nonnull %11) #17
  call void @_ZN11xercesc_2_59DOMStringC1EPKtj(ptr noundef nonnull align 8 dereferenceable(8) %11, ptr noundef %1, i32 noundef %2)
  invoke void @_ZN11xercesc_2_512DOM_Document14createTextNodeERKNS_9DOMStringE(ptr nonnull sret(%"class.xercesc_2_5::DOM_Text") align 8 %10, ptr noundef nonnull align 8 dereferenceable(8) %49, ptr noundef nonnull align 8 dereferenceable(8) %11)
          to label %50 unwind label %56

50:                                               ; preds = %48
  call void @_ZN11xercesc_2_59DOMStringD1Ev(ptr noundef nonnull align 8 dereferenceable(8) %11)
  call void @llvm.lifetime.end.p0(i64 8, ptr nonnull %11) #17
  %51 = getelementptr inbounds %"class.xercesc_2_5::DOMParser", ptr %0, i64 0, i32 9
  invoke void @_ZN11xercesc_2_58DOM_Node11appendChildERKS0_(ptr nonnull sret(%"class.xercesc_2_5::DOM_Node") align 8 %12, ptr noundef nonnull align 8 dereferenceable(8) %51, ptr noundef nonnull align 8 dereferenceable(8) %10)
          to label %52 unwind label %59

52:                                               ; preds = %50
  invoke void @_ZN11xercesc_2_58DOM_NodeD1Ev(ptr noundef nonnull align 8 dereferenceable(8) %12)
          to label %53 unwind label %59

53:                                               ; preds = %52
  %54 = invoke noundef nonnull align 8 dereferenceable(8) ptr @_ZN11xercesc_2_58DOM_NodeaSERKS0_(ptr noundef nonnull align 8 dereferenceable(8) %34, ptr noundef nonnull align 8 dereferenceable(8) %10)
          to label %55 unwind label %59

55:                                               ; preds = %53
  call void @_ZN11xercesc_2_58DOM_TextD1Ev(ptr noundef nonnull align 8 dereferenceable(8) %10)
  call void @llvm.lifetime.end.p0(i64 8, ptr nonnull %10) #17
  br label %63

56:                                               ; preds = %48
  %57 = landingpad { ptr, i32 }
          cleanup
  invoke void @_ZN11xercesc_2_59DOMStringD1Ev(ptr noundef nonnull align 8 dereferenceable(8) %11)
          to label %58 unwind label %66

58:                                               ; preds = %56
  call void @llvm.lifetime.end.p0(i64 8, ptr nonnull %11) #17
  br label %61

59:                                               ; preds = %53, %52, %50
  %60 = landingpad { ptr, i32 }
          cleanup
  invoke void @_ZN11xercesc_2_58DOM_TextD1Ev(ptr noundef nonnull align 8 dereferenceable(8) %10)
          to label %61 unwind label %66

61:                                               ; preds = %59, %58
  %62 = phi { ptr, i32 } [ %60, %59 ], [ %57, %58 ]
  call void @llvm.lifetime.end.p0(i64 8, ptr nonnull %10) #17
  br label %64

63:                                               ; preds = %40, %55, %4, %25
  ret void

64:                                               ; preds = %61, %47, %31
  %65 = phi { ptr, i32 } [ %32, %31 ], [ %46, %47 ], [ %62, %61 ]
  resume { ptr, i32 } %65

66:                                               ; preds = %59, %56, %45, %43, %29, %26
  %67 = landingpad { ptr, i32 }
          catch ptr null
  %68 = extractvalue { ptr, i32 } %67, 0
  call void @__clang_call_terminate(ptr %68) #18
  unreachable
}

declare void @_ZN11xercesc_2_512DOM_Document18createCDATASectionERKNS_9DOMStringE(ptr sret(%"class.xercesc_2_5::DOM_CDATASection") align 8, ptr noundef nonnull align 8 dereferenceable(8), ptr noundef nonnull align 8 dereferenceable(8)) local_unnamed_addr #1

declare void @_ZN11xercesc_2_59DOMStringC1EPKtj(ptr noundef nonnull align 8 dereferenceable(8), ptr noundef, i32 noundef) unnamed_addr #1

declare void @_ZN11xercesc_2_59DOMStringD1Ev(ptr noundef nonnull align 8 dereferenceable(8)) unnamed_addr #1

declare void @_ZN11xercesc_2_58DOM_Node11appendChildERKS0_(ptr sret(%"class.xercesc_2_5::DOM_Node") align 8, ptr noundef nonnull align 8 dereferenceable(8), ptr noundef nonnull align 8 dereferenceable(8)) local_unnamed_addr #1

declare noundef nonnull align 8 dereferenceable(8) ptr @_ZN11xercesc_2_58DOM_NodeaSERKS0_(ptr noundef nonnull align 8 dereferenceable(8), ptr noundef nonnull align 8 dereferenceable(8)) local_unnamed_addr #1

declare void @_ZN11xercesc_2_516DOM_CDATASectionD1Ev(ptr noundef nonnull align 8 dereferenceable(8)) unnamed_addr #1

declare noundef signext i16 @_ZNK11xercesc_2_58DOM_Node11getNodeTypeEv(ptr noundef nonnull align 8 dereferenceable(8)) local_unnamed_addr #1

declare void @_ZN11xercesc_2_58DOM_TextC1ERKS0_(ptr noundef nonnull align 8 dereferenceable(8), ptr noundef nonnull align 8 dereferenceable(8)) unnamed_addr #1

declare void @_ZN11xercesc_2_517DOM_CharacterData10appendDataERKNS_9DOMStringE(ptr noundef nonnull align 8 dereferenceable(8), ptr noundef nonnull align 8 dereferenceable(8)) local_unnamed_addr #1

declare void @_ZN11xercesc_2_58DOM_TextD1Ev(ptr noundef nonnull align 8 dereferenceable(8)) unnamed_addr #1

declare void @_ZN11xercesc_2_512DOM_Document14createTextNodeERKNS_9DOMStringE(ptr sret(%"class.xercesc_2_5::DOM_Text") align 8, ptr noundef nonnull align 8 dereferenceable(8), ptr noundef nonnull align 8 dereferenceable(8)) local_unnamed_addr #1

; Function Attrs: uwtable
define dso_local void @_ZN11xercesc_2_59DOMParser10docCommentEPKt(ptr noundef nonnull align 8 dereferenceable(160) %0, ptr noundef %1) unnamed_addr #2 align 2 personality ptr @__gxx_personality_v0 {
  %3 = alloca %"class.xercesc_2_5::DOM_Comment", align 8
  %4 = alloca %"class.xercesc_2_5::DOMString", align 8
  %5 = alloca %"class.xercesc_2_5::DOM_Node", align 8
  call void @llvm.lifetime.start.p0(i64 8, ptr nonnull %3) #17
  %6 = getelementptr inbounds %"class.xercesc_2_5::DOMParser", ptr %0, i64 0, i32 11
  call void @llvm.lifetime.start.p0(i64 8, ptr nonnull %4) #17
  call void @_ZN11xercesc_2_59DOMStringC1EPKt(ptr noundef nonnull align 8 dereferenceable(8) %4, ptr noundef %1)
  invoke void @_ZN11xercesc_2_512DOM_Document13createCommentERKNS_9DOMStringE(ptr nonnull sret(%"class.xercesc_2_5::DOM_Comment") align 8 %3, ptr noundef nonnull align 8 dereferenceable(8) %6, ptr noundef nonnull align 8 dereferenceable(8) %4)
          to label %7 unwind label %14

7:                                                ; preds = %2
  call void @_ZN11xercesc_2_59DOMStringD1Ev(ptr noundef nonnull align 8 dereferenceable(8) %4)
  call void @llvm.lifetime.end.p0(i64 8, ptr nonnull %4) #17
  %8 = getelementptr inbounds %"class.xercesc_2_5::DOMParser", ptr %0, i64 0, i32 9
  invoke void @_ZN11xercesc_2_58DOM_Node11appendChildERKS0_(ptr nonnull sret(%"class.xercesc_2_5::DOM_Node") align 8 %5, ptr noundef nonnull align 8 dereferenceable(8) %8, ptr noundef nonnull align 8 dereferenceable(8) %3)
          to label %9 unwind label %17

9:                                                ; preds = %7
  invoke void @_ZN11xercesc_2_58DOM_NodeD1Ev(ptr noundef nonnull align 8 dereferenceable(8) %5)
          to label %10 unwind label %17

10:                                               ; preds = %9
  %11 = getelementptr inbounds %"class.xercesc_2_5::DOMParser", ptr %0, i64 0, i32 10
  %12 = invoke noundef nonnull align 8 dereferenceable(8) ptr @_ZN11xercesc_2_58DOM_NodeaSERKS0_(ptr noundef nonnull align 8 dereferenceable(8) %11, ptr noundef nonnull align 8 dereferenceable(8) %3)
          to label %13 unwind label %17

13:                                               ; preds = %10
  call void @_ZN11xercesc_2_511DOM_CommentD1Ev(ptr noundef nonnull align 8 dereferenceable(8) %3)
  call void @llvm.lifetime.end.p0(i64 8, ptr nonnull %3) #17
  ret void

14:                                               ; preds = %2
  %15 = landingpad { ptr, i32 }
          cleanup
  invoke void @_ZN11xercesc_2_59DOMStringD1Ev(ptr noundef nonnull align 8 dereferenceable(8) %4)
          to label %16 unwind label %21

16:                                               ; preds = %14
  call void @llvm.lifetime.end.p0(i64 8, ptr nonnull %4) #17
  br label %19

17:                                               ; preds = %10, %9, %7
  %18 = landingpad { ptr, i32 }
          cleanup
  invoke void @_ZN11xercesc_2_511DOM_CommentD1Ev(ptr noundef nonnull align 8 dereferenceable(8) %3)
          to label %19 unwind label %21

19:                                               ; preds = %17, %16
  %20 = phi { ptr, i32 } [ %18, %17 ], [ %15, %16 ]
  call void @llvm.lifetime.end.p0(i64 8, ptr nonnull %3) #17
  resume { ptr, i32 } %20

21:                                               ; preds = %17, %14
  %22 = landingpad { ptr, i32 }
          catch ptr null
  %23 = extractvalue { ptr, i32 } %22, 0
  call void @__clang_call_terminate(ptr %23) #18
  unreachable
}

declare void @_ZN11xercesc_2_512DOM_Document13createCommentERKNS_9DOMStringE(ptr sret(%"class.xercesc_2_5::DOM_Comment") align 8, ptr noundef nonnull align 8 dereferenceable(8), ptr noundef nonnull align 8 dereferenceable(8)) local_unnamed_addr #1

declare void @_ZN11xercesc_2_59DOMStringC1EPKt(ptr noundef nonnull align 8 dereferenceable(8), ptr noundef) unnamed_addr #1

declare void @_ZN11xercesc_2_511DOM_CommentD1Ev(ptr noundef nonnull align 8 dereferenceable(8)) unnamed_addr #1

; Function Attrs: uwtable
define dso_local void @_ZN11xercesc_2_59DOMParser5docPIEPKtS2_(ptr noundef nonnull align 8 dereferenceable(160) %0, ptr noundef %1, ptr noundef %2) unnamed_addr #2 align 2 personality ptr @__gxx_personality_v0 {
  %4 = alloca %"class.xercesc_2_5::DOM_ProcessingInstruction", align 8
  %5 = alloca %"class.xercesc_2_5::DOMString", align 8
  %6 = alloca %"class.xercesc_2_5::DOMString", align 8
  %7 = alloca %"class.xercesc_2_5::DOM_Node", align 8
  call void @llvm.lifetime.start.p0(i64 8, ptr nonnull %4) #17
  call void @llvm.lifetime.start.p0(i64 8, ptr nonnull %5) #17
  call void @_ZN11xercesc_2_59DOMStringC1EPKt(ptr noundef nonnull align 8 dereferenceable(8) %5, ptr noundef %1)
  call void @llvm.lifetime.start.p0(i64 8, ptr nonnull %6) #17
  invoke void @_ZN11xercesc_2_59DOMStringC1EPKt(ptr noundef nonnull align 8 dereferenceable(8) %6, ptr noundef %2)
          to label %8 unwind label %18

8:                                                ; preds = %3
  %9 = getelementptr inbounds %"class.xercesc_2_5::DOMParser", ptr %0, i64 0, i32 11
  invoke void @_ZN11xercesc_2_512DOM_Document27createProcessingInstructionERKNS_9DOMStringES3_(ptr nonnull sret(%"class.xercesc_2_5::DOM_ProcessingInstruction") align 8 %4, ptr noundef nonnull align 8 dereferenceable(8) %9, ptr noundef nonnull align 8 dereferenceable(8) %5, ptr noundef nonnull align 8 dereferenceable(8) %6)
          to label %10 unwind label %20

10:                                               ; preds = %8
  invoke void @_ZN11xercesc_2_59DOMStringD1Ev(ptr noundef nonnull align 8 dereferenceable(8) %6)
          to label %11 unwind label %18

11:                                               ; preds = %10
  call void @llvm.lifetime.end.p0(i64 8, ptr nonnull %6) #17
  call void @_ZN11xercesc_2_59DOMStringD1Ev(ptr noundef nonnull align 8 dereferenceable(8) %5)
  call void @llvm.lifetime.end.p0(i64 8, ptr nonnull %5) #17
  %12 = getelementptr inbounds %"class.xercesc_2_5::DOMParser", ptr %0, i64 0, i32 9
  invoke void @_ZN11xercesc_2_58DOM_Node11appendChildERKS0_(ptr nonnull sret(%"class.xercesc_2_5::DOM_Node") align 8 %7, ptr noundef nonnull align 8 dereferenceable(8) %12, ptr noundef nonnull align 8 dereferenceable(8) %4)
          to label %13 unwind label %25

13:                                               ; preds = %11
  invoke void @_ZN11xercesc_2_58DOM_NodeD1Ev(ptr noundef nonnull align 8 dereferenceable(8) %7)
          to label %14 unwind label %25

14:                                               ; preds = %13
  %15 = getelementptr inbounds %"class.xercesc_2_5::DOMParser", ptr %0, i64 0, i32 10
  %16 = invoke noundef nonnull align 8 dereferenceable(8) ptr @_ZN11xercesc_2_58DOM_NodeaSERKS0_(ptr noundef nonnull align 8 dereferenceable(8) %15, ptr noundef nonnull align 8 dereferenceable(8) %4)
          to label %17 unwind label %25

17:                                               ; preds = %14
  call void @_ZN11xercesc_2_525DOM_ProcessingInstructionD1Ev(ptr noundef nonnull align 8 dereferenceable(8) %4)
  call void @llvm.lifetime.end.p0(i64 8, ptr nonnull %4) #17
  ret void

18:                                               ; preds = %10, %3
  %19 = landingpad { ptr, i32 }
          cleanup
  br label %22

20:                                               ; preds = %8
  %21 = landingpad { ptr, i32 }
          cleanup
  invoke void @_ZN11xercesc_2_59DOMStringD1Ev(ptr noundef nonnull align 8 dereferenceable(8) %6)
          to label %22 unwind label %29

22:                                               ; preds = %20, %18
  %23 = phi { ptr, i32 } [ %19, %18 ], [ %21, %20 ]
  call void @llvm.lifetime.end.p0(i64 8, ptr nonnull %6) #17
  invoke void @_ZN11xercesc_2_59DOMStringD1Ev(ptr noundef nonnull align 8 dereferenceable(8) %5)
          to label %24 unwind label %29

24:                                               ; preds = %22
  call void @llvm.lifetime.end.p0(i64 8, ptr nonnull %5) #17
  br label %27

25:                                               ; preds = %14, %13, %11
  %26 = landingpad { ptr, i32 }
          cleanup
  invoke void @_ZN11xercesc_2_525DOM_ProcessingInstructionD1Ev(ptr noundef nonnull align 8 dereferenceable(8) %4)
          to label %27 unwind label %29

27:                                               ; preds = %25, %24
  %28 = phi { ptr, i32 } [ %26, %25 ], [ %23, %24 ]
  call void @llvm.lifetime.end.p0(i64 8, ptr nonnull %4) #17
  resume { ptr, i32 } %28

29:                                               ; preds = %25, %22, %20
  %30 = landingpad { ptr, i32 }
          catch ptr null
  %31 = extractvalue { ptr, i32 } %30, 0
  call void @__clang_call_terminate(ptr %31) #18
  unreachable
}

declare void @_ZN11xercesc_2_512DOM_Document27createProcessingInstructionERKNS_9DOMStringES3_(ptr sret(%"class.xercesc_2_5::DOM_ProcessingInstruction") align 8, ptr noundef nonnull align 8 dereferenceable(8), ptr noundef nonnull align 8 dereferenceable(8), ptr noundef nonnull align 8 dereferenceable(8)) local_unnamed_addr #1

declare void @_ZN11xercesc_2_525DOM_ProcessingInstructionD1Ev(ptr noundef nonnull align 8 dereferenceable(8)) unnamed_addr #1

; Function Attrs: uwtable
define dso_local void @_ZN11xercesc_2_59DOMParser18endEntityReferenceERKNS_13XMLEntityDeclE(ptr noundef nonnull align 8 dereferenceable(160) %0, ptr nocapture nonnull readnone align 8 %1) unnamed_addr #2 align 2 personality ptr @__gxx_personality_v0 {
  %3 = alloca %"class.xercesc_2_5::DOM_Node", align 8
  %4 = getelementptr inbounds %"class.xercesc_2_5::DOMParser", ptr %0, i64 0, i32 5
  %5 = load i8, ptr %4, align 1, !tbaa !343, !range !375, !noundef !376
  %6 = icmp eq i8 %5, 0
  br i1 %6, label %26, label %7

7:                                                ; preds = %2
  %8 = getelementptr inbounds %"class.xercesc_2_5::DOMParser", ptr %0, i64 0, i32 9
  %9 = tail call noundef signext i16 @_ZNK11xercesc_2_58DOM_Node11getNodeTypeEv(ptr noundef nonnull align 8 dereferenceable(8) %8)
  %10 = icmp eq i16 %9, 5
  br i1 %10, label %11, label %16

11:                                               ; preds = %7
  %12 = load ptr, ptr %8, align 8, !tbaa !411
  %13 = load ptr, ptr %12, align 8, !tbaa !329
  %14 = getelementptr inbounds ptr, ptr %13, i64 35
  %15 = load ptr, ptr %14, align 8
  tail call void %15(ptr noundef nonnull align 8 dereferenceable(26) %12, i1 noundef zeroext true, i1 noundef zeroext true)
  br label %16

16:                                               ; preds = %11, %7
  call void @llvm.lifetime.start.p0(i64 8, ptr nonnull %3) #17
  %17 = getelementptr inbounds %"class.xercesc_2_5::DOMParser", ptr %0, i64 0, i32 16
  %18 = load ptr, ptr %17, align 8, !tbaa !374
  call void @_ZN11xercesc_2_512ValueStackOfINS_8DOM_NodeEE3popEv(ptr nonnull sret(%"class.xercesc_2_5::DOM_Node") align 8 %3, ptr noundef nonnull align 8 dereferenceable(40) %18)
  %19 = invoke noundef nonnull align 8 dereferenceable(8) ptr @_ZN11xercesc_2_58DOM_NodeaSERKS0_(ptr noundef nonnull align 8 dereferenceable(8) %8, ptr noundef nonnull align 8 dereferenceable(8) %3)
          to label %20 unwind label %23

20:                                               ; preds = %16
  call void @_ZN11xercesc_2_58DOM_NodeD1Ev(ptr noundef nonnull align 8 dereferenceable(8) %3)
  call void @llvm.lifetime.end.p0(i64 8, ptr nonnull %3) #17
  %21 = getelementptr inbounds %"class.xercesc_2_5::DOMParser", ptr %0, i64 0, i32 10
  %22 = call noundef nonnull align 8 dereferenceable(8) ptr @_ZN11xercesc_2_58DOM_NodeaSERKS0_(ptr noundef nonnull align 8 dereferenceable(8) %21, ptr noundef nonnull align 8 dereferenceable(8) %8)
  br label %26

23:                                               ; preds = %16
  %24 = landingpad { ptr, i32 }
          cleanup
  invoke void @_ZN11xercesc_2_58DOM_NodeD1Ev(ptr noundef nonnull align 8 dereferenceable(8) %3)
          to label %25 unwind label %27

25:                                               ; preds = %23
  call void @llvm.lifetime.end.p0(i64 8, ptr nonnull %3) #17
  resume { ptr, i32 } %24

26:                                               ; preds = %20, %2
  ret void

27:                                               ; preds = %23
  %28 = landingpad { ptr, i32 }
          catch ptr null
  %29 = extractvalue { ptr, i32 } %28, 0
  call void @__clang_call_terminate(ptr %29) #18
  unreachable
}

; Function Attrs: uwtable
define linkonce_odr dso_local void @_ZN11xercesc_2_512ValueStackOfINS_8DOM_NodeEE3popEv(ptr noalias sret(%"class.xercesc_2_5::DOM_Node") align 8 %0, ptr noundef nonnull align 8 dereferenceable(40) %1) local_unnamed_addr #2 comdat align 2 personality ptr @__gxx_personality_v0 {
  %3 = getelementptr inbounds %"class.xercesc_2_5::ValueStackOf", ptr %1, i64 0, i32 1, i32 1
  %4 = load i32, ptr %3, align 4, !tbaa !370
  %5 = icmp eq i32 %4, 0
  br i1 %5, label %6, label %15

6:                                                ; preds = %2
  %7 = tail call ptr @__cxa_allocate_exception(i64 48) #17
  %8 = getelementptr inbounds %"class.xercesc_2_5::ValueStackOf", ptr %1, i64 0, i32 1, i32 4
  %9 = load ptr, ptr %8, align 8, !tbaa !373
  invoke void @_ZN11xercesc_2_519EmptyStackExceptionC2EPKcjNS_10XMLExcepts5CodesEPNS_13MemoryManagerE(ptr noundef nonnull align 8 dereferenceable(48) %7, ptr noundef nonnull @.str.1, i32 noundef 139, i32 noundef 78, ptr noundef %9)
          to label %10 unwind label %11

10:                                               ; preds = %6
  tail call void @__cxa_throw(ptr nonnull %7, ptr nonnull @_ZTIN11xercesc_2_519EmptyStackExceptionE, ptr nonnull @_ZN11xercesc_2_512XMLExceptionD2Ev) #19
  unreachable

11:                                               ; preds = %6
  %12 = landingpad { ptr, i32 }
          cleanup
  tail call void @__cxa_free_exception(ptr %7) #17
  br label %13

13:                                               ; preds = %11, %22
  %14 = phi { ptr, i32 } [ %12, %11 ], [ %23, %22 ]
  resume { ptr, i32 } %14

15:                                               ; preds = %2
  %16 = getelementptr inbounds %"class.xercesc_2_5::ValueStackOf", ptr %1, i64 0, i32 1
  %17 = add nsw i32 %4, -1
  %18 = getelementptr inbounds %"class.xercesc_2_5::ValueStackOf", ptr %1, i64 0, i32 1, i32 3
  %19 = load ptr, ptr %18, align 8, !tbaa !372
  %20 = zext i32 %17 to i64
  %21 = getelementptr inbounds %"class.xercesc_2_5::DOM_Node", ptr %19, i64 %20
  tail call void @_ZN11xercesc_2_58DOM_NodeC1ERKS0_(ptr noundef nonnull align 8 dereferenceable(8) %0, ptr noundef nonnull align 8 dereferenceable(8) %21)
  invoke void @_ZN11xercesc_2_513ValueVectorOfINS_8DOM_NodeEE15removeElementAtEj(ptr noundef nonnull align 8 dereferenceable(32) %16, i32 noundef %17)
          to label %24 unwind label %22

22:                                               ; preds = %15
  %23 = landingpad { ptr, i32 }
          cleanup
  invoke void @_ZN11xercesc_2_58DOM_NodeD1Ev(ptr noundef nonnull align 8 dereferenceable(8) %0)
          to label %13 unwind label %25

24:                                               ; preds = %15
  ret void

25:                                               ; preds = %22
  %26 = landingpad { ptr, i32 }
          catch ptr null
  %27 = extractvalue { ptr, i32 } %26, 0
  tail call void @__clang_call_terminate(ptr %27) #18
  unreachable
}

; Function Attrs: uwtable
define dso_local void @_ZN11xercesc_2_59DOMParser10endElementERKNS_14XMLElementDeclEjbPKt(ptr noundef nonnull align 8 dereferenceable(160) %0, ptr nocapture nonnull readnone align 8 %1, i32 %2, i1 zeroext %3, ptr nocapture readnone %4) unnamed_addr #2 align 2 personality ptr @__gxx_personality_v0 {
  %6 = alloca %"class.xercesc_2_5::DOM_Node", align 8
  %7 = getelementptr inbounds %"class.xercesc_2_5::DOMParser", ptr %0, i64 0, i32 9
  %8 = getelementptr inbounds %"class.xercesc_2_5::DOMParser", ptr %0, i64 0, i32 10
  %9 = tail call noundef nonnull align 8 dereferenceable(8) ptr @_ZN11xercesc_2_58DOM_NodeaSERKS0_(ptr noundef nonnull align 8 dereferenceable(8) %8, ptr noundef nonnull align 8 dereferenceable(8) %7)
  call void @llvm.lifetime.start.p0(i64 8, ptr nonnull %6) #17
  %10 = getelementptr inbounds %"class.xercesc_2_5::DOMParser", ptr %0, i64 0, i32 16
  %11 = load ptr, ptr %10, align 8, !tbaa !374
  call void @_ZN11xercesc_2_512ValueStackOfINS_8DOM_NodeEE3popEv(ptr nonnull sret(%"class.xercesc_2_5::DOM_Node") align 8 %6, ptr noundef nonnull align 8 dereferenceable(40) %11)
  %12 = invoke noundef nonnull align 8 dereferenceable(8) ptr @_ZN11xercesc_2_58DOM_NodeaSERKS0_(ptr noundef nonnull align 8 dereferenceable(8) %7, ptr noundef nonnull align 8 dereferenceable(8) %6)
          to label %13 unwind label %20

13:                                               ; preds = %5
  call void @_ZN11xercesc_2_58DOM_NodeD1Ev(ptr noundef nonnull align 8 dereferenceable(8) %6)
  call void @llvm.lifetime.end.p0(i64 8, ptr nonnull %6) #17
  %14 = load ptr, ptr %10, align 8, !tbaa !374
  %15 = getelementptr inbounds %"class.xercesc_2_5::ValueStackOf", ptr %14, i64 0, i32 1, i32 1
  %16 = load i32, ptr %15, align 4, !tbaa !370
  %17 = icmp eq i32 %16, 0
  br i1 %17, label %18, label %23

18:                                               ; preds = %13
  %19 = getelementptr inbounds %"class.xercesc_2_5::DOMParser", ptr %0, i64 0, i32 8
  store i8 0, ptr %19, align 4, !tbaa !346
  br label %23

20:                                               ; preds = %5
  %21 = landingpad { ptr, i32 }
          cleanup
  invoke void @_ZN11xercesc_2_58DOM_NodeD1Ev(ptr noundef nonnull align 8 dereferenceable(8) %6)
          to label %22 unwind label %24

22:                                               ; preds = %20
  call void @llvm.lifetime.end.p0(i64 8, ptr nonnull %6) #17
  resume { ptr, i32 } %21

23:                                               ; preds = %18, %13
  ret void

24:                                               ; preds = %20
  %25 = landingpad { ptr, i32 }
          catch ptr null
  %26 = extractvalue { ptr, i32 } %25, 0
  call void @__clang_call_terminate(ptr %26) #18
  unreachable
}

; Function Attrs: uwtable
define dso_local void @_ZN11xercesc_2_59DOMParser19ignorableWhitespaceEPKtjb(ptr noundef nonnull align 8 dereferenceable(160) %0, ptr noundef %1, i32 noundef %2, i1 zeroext %3) unnamed_addr #2 align 2 personality ptr @__gxx_personality_v0 {
  %5 = alloca %"class.xercesc_2_5::DOM_Text", align 8
  %6 = alloca %"class.xercesc_2_5::DOMString", align 8
  %7 = alloca %"class.xercesc_2_5::DOM_Text", align 8
  %8 = alloca %"class.xercesc_2_5::DOMString", align 8
  %9 = alloca %"class.xercesc_2_5::DOM_Node", align 8
  %10 = getelementptr inbounds %"class.xercesc_2_5::DOMParser", ptr %0, i64 0, i32 8
  %11 = load i8, ptr %10, align 4, !tbaa !346, !range !375, !noundef !376
  %12 = icmp eq i8 %11, 0
  %13 = getelementptr inbounds %"class.xercesc_2_5::DOMParser", ptr %0, i64 0, i32 6
  %14 = load i8, ptr %13, align 2, !range !375
  %15 = icmp eq i8 %14, 0
  %16 = select i1 %12, i1 true, i1 %15
  br i1 %16, label %52, label %17

17:                                               ; preds = %4
  %18 = getelementptr inbounds %"class.xercesc_2_5::DOMParser", ptr %0, i64 0, i32 10
  %19 = tail call noundef signext i16 @_ZNK11xercesc_2_58DOM_Node11getNodeTypeEv(ptr noundef nonnull align 8 dereferenceable(8) %18)
  %20 = icmp eq i16 %19, 3
  br i1 %20, label %21, label %32

21:                                               ; preds = %17
  call void @llvm.lifetime.start.p0(i64 8, ptr nonnull %5) #17
  call void @_ZN11xercesc_2_58DOM_TextC1ERKS0_(ptr noundef nonnull align 8 dereferenceable(8) %5, ptr noundef nonnull align 8 dereferenceable(8) %18)
  call void @llvm.lifetime.start.p0(i64 8, ptr nonnull %6) #17
  invoke void @_ZN11xercesc_2_59DOMStringC1EPKtj(ptr noundef nonnull align 8 dereferenceable(8) %6, ptr noundef %1, i32 noundef %2)
          to label %22 unwind label %25

22:                                               ; preds = %21
  invoke void @_ZN11xercesc_2_517DOM_CharacterData10appendDataERKNS_9DOMStringE(ptr noundef nonnull align 8 dereferenceable(8) %5, ptr noundef nonnull align 8 dereferenceable(8) %6)
          to label %23 unwind label %27

23:                                               ; preds = %22
  invoke void @_ZN11xercesc_2_59DOMStringD1Ev(ptr noundef nonnull align 8 dereferenceable(8) %6)
          to label %24 unwind label %25

24:                                               ; preds = %23
  call void @llvm.lifetime.end.p0(i64 8, ptr nonnull %6) #17
  call void @_ZN11xercesc_2_58DOM_TextD1Ev(ptr noundef nonnull align 8 dereferenceable(8) %5)
  call void @llvm.lifetime.end.p0(i64 8, ptr nonnull %5) #17
  br label %52

25:                                               ; preds = %23, %21
  %26 = landingpad { ptr, i32 }
          cleanup
  br label %29

27:                                               ; preds = %22
  %28 = landingpad { ptr, i32 }
          cleanup
  invoke void @_ZN11xercesc_2_59DOMStringD1Ev(ptr noundef nonnull align 8 dereferenceable(8) %6)
          to label %29 unwind label %55

29:                                               ; preds = %27, %25
  %30 = phi { ptr, i32 } [ %26, %25 ], [ %28, %27 ]
  call void @llvm.lifetime.end.p0(i64 8, ptr nonnull %6) #17
  invoke void @_ZN11xercesc_2_58DOM_TextD1Ev(ptr noundef nonnull align 8 dereferenceable(8) %5)
          to label %31 unwind label %55

31:                                               ; preds = %29
  call void @llvm.lifetime.end.p0(i64 8, ptr nonnull %5) #17
  br label %53

32:                                               ; preds = %17
  call void @llvm.lifetime.start.p0(i64 8, ptr nonnull %7) #17
  %33 = getelementptr inbounds %"class.xercesc_2_5::DOMParser", ptr %0, i64 0, i32 11
  call void @llvm.lifetime.start.p0(i64 8, ptr nonnull %8) #17
  call void @_ZN11xercesc_2_59DOMStringC1EPKtj(ptr noundef nonnull align 8 dereferenceable(8) %8, ptr noundef %1, i32 noundef %2)
  invoke void @_ZN11xercesc_2_512DOM_Document14createTextNodeERKNS_9DOMStringE(ptr nonnull sret(%"class.xercesc_2_5::DOM_Text") align 8 %7, ptr noundef nonnull align 8 dereferenceable(8) %33, ptr noundef nonnull align 8 dereferenceable(8) %8)
          to label %34 unwind label %45

34:                                               ; preds = %32
  call void @_ZN11xercesc_2_59DOMStringD1Ev(ptr noundef nonnull align 8 dereferenceable(8) %8)
  call void @llvm.lifetime.end.p0(i64 8, ptr nonnull %8) #17
  %35 = load ptr, ptr %7, align 8, !tbaa !411
  %36 = load ptr, ptr %35, align 8, !tbaa !329
  %37 = getelementptr inbounds ptr, ptr %36, i64 57
  %38 = load ptr, ptr %37, align 8
  invoke void %38(ptr noundef nonnull align 8 dereferenceable(56) %35, i1 noundef zeroext true)
          to label %39 unwind label %48

39:                                               ; preds = %34
  %40 = getelementptr inbounds %"class.xercesc_2_5::DOMParser", ptr %0, i64 0, i32 9
  invoke void @_ZN11xercesc_2_58DOM_Node11appendChildERKS0_(ptr nonnull sret(%"class.xercesc_2_5::DOM_Node") align 8 %9, ptr noundef nonnull align 8 dereferenceable(8) %40, ptr noundef nonnull align 8 dereferenceable(8) %7)
          to label %41 unwind label %48

41:                                               ; preds = %39
  invoke void @_ZN11xercesc_2_58DOM_NodeD1Ev(ptr noundef nonnull align 8 dereferenceable(8) %9)
          to label %42 unwind label %48

42:                                               ; preds = %41
  %43 = invoke noundef nonnull align 8 dereferenceable(8) ptr @_ZN11xercesc_2_58DOM_NodeaSERKS0_(ptr noundef nonnull align 8 dereferenceable(8) %18, ptr noundef nonnull align 8 dereferenceable(8) %7)
          to label %44 unwind label %48

44:                                               ; preds = %42
  call void @_ZN11xercesc_2_58DOM_TextD1Ev(ptr noundef nonnull align 8 dereferenceable(8) %7)
  call void @llvm.lifetime.end.p0(i64 8, ptr nonnull %7) #17
  br label %52

45:                                               ; preds = %32
  %46 = landingpad { ptr, i32 }
          cleanup
  invoke void @_ZN11xercesc_2_59DOMStringD1Ev(ptr noundef nonnull align 8 dereferenceable(8) %8)
          to label %47 unwind label %55

47:                                               ; preds = %45
  call void @llvm.lifetime.end.p0(i64 8, ptr nonnull %8) #17
  br label %50

48:                                               ; preds = %42, %41, %39, %34
  %49 = landingpad { ptr, i32 }
          cleanup
  invoke void @_ZN11xercesc_2_58DOM_TextD1Ev(ptr noundef nonnull align 8 dereferenceable(8) %7)
          to label %50 unwind label %55

50:                                               ; preds = %48, %47
  %51 = phi { ptr, i32 } [ %49, %48 ], [ %46, %47 ]
  call void @llvm.lifetime.end.p0(i64 8, ptr nonnull %7) #17
  br label %53

52:                                               ; preds = %4, %44, %24
  ret void

53:                                               ; preds = %50, %31
  %54 = phi { ptr, i32 } [ %30, %31 ], [ %51, %50 ]
  resume { ptr, i32 } %54

55:                                               ; preds = %48, %45, %29, %27
  %56 = landingpad { ptr, i32 }
          catch ptr null
  %57 = extractvalue { ptr, i32 } %56, 0
  call void @__clang_call_terminate(ptr %57) #18
  unreachable
}

; Function Attrs: uwtable
define dso_local void @_ZN11xercesc_2_59DOMParser13resetDocumentEv(ptr noundef nonnull align 8 dereferenceable(160) %0) unnamed_addr #2 align 2 {
  tail call void @_ZN11xercesc_2_59DOMParser5resetEv(ptr noundef nonnull align 8 dereferenceable(160) %0)
  ret void
}

; Function Attrs: uwtable
define dso_local void @_ZN11xercesc_2_59DOMParser13startDocumentEv(ptr noundef nonnull align 8 dereferenceable(160) %0) unnamed_addr #2 align 2 {
  %2 = getelementptr inbounds %"class.xercesc_2_5::DOMParser", ptr %0, i64 0, i32 11
  %3 = getelementptr inbounds %"class.xercesc_2_5::DOMParser", ptr %0, i64 0, i32 9
  %4 = tail call noundef nonnull align 8 dereferenceable(8) ptr @_ZN11xercesc_2_58DOM_NodeaSERKS0_(ptr noundef nonnull align 8 dereferenceable(8) %3, ptr noundef nonnull align 8 dereferenceable(8) %2)
  %5 = getelementptr inbounds %"class.xercesc_2_5::DOMParser", ptr %0, i64 0, i32 10
  %6 = tail call noundef nonnull align 8 dereferenceable(8) ptr @_ZN11xercesc_2_58DOM_NodeaSERKS0_(ptr noundef nonnull align 8 dereferenceable(8) %5, ptr noundef nonnull align 8 dereferenceable(8) %2)
  tail call void @_ZN11xercesc_2_512DOM_Document16setErrorCheckingEb(ptr noundef nonnull align 8 dereferenceable(8) %2, i1 noundef zeroext false)
  ret void
}

declare void @_ZN11xercesc_2_512DOM_Document16setErrorCheckingEb(ptr noundef nonnull align 8 dereferenceable(8), i1 noundef zeroext) local_unnamed_addr #1

; Function Attrs: uwtable
define dso_local void @_ZN11xercesc_2_59DOMParser11endDocumentEv(ptr noundef nonnull align 8 dereferenceable(160) %0) unnamed_addr #2 align 2 {
  %2 = getelementptr inbounds %"class.xercesc_2_5::DOMParser", ptr %0, i64 0, i32 11
  tail call void @_ZN11xercesc_2_512DOM_Document16setErrorCheckingEb(ptr noundef nonnull align 8 dereferenceable(8) %2, i1 noundef zeroext true)
  ret void
}

; Function Attrs: uwtable
define dso_local void @_ZN11xercesc_2_59DOMParser12startElementERKNS_14XMLElementDeclEjPKtRKNS_11RefVectorOfINS_7XMLAttrEEEjbb(ptr noundef nonnull align 8 dereferenceable(160) %0, ptr noundef nonnull align 8 dereferenceable(33) %1, i32 noundef %2, ptr noundef %3, ptr nocapture noundef nonnull readonly align 8 dereferenceable(40) %4, i32 noundef %5, i1 noundef zeroext %6, i1 noundef zeroext %7) unnamed_addr #2 align 2 personality ptr @__gxx_personality_v0 {
  %9 = alloca %"class.xercesc_2_5::DOM_Element", align 8
  %10 = alloca %"class.xercesc_2_5::XMLBuffer", align 8
  %11 = alloca %"class.xercesc_2_5::DOMString", align 8
  %12 = alloca %"class.xercesc_2_5::DOMString", align 8
  %13 = alloca %"class.xercesc_2_5::DOMString", align 8
  %14 = alloca %"class.xercesc_2_5::DOM_Element", align 8
  %15 = alloca %"class.xercesc_2_5::DOMString", align 8
  %16 = alloca %"class.xercesc_2_5::DOMString", align 8
  %17 = alloca %"class.xercesc_2_5::DOMString", align 8
  %18 = alloca %"class.xercesc_2_5::DOM_Element", align 8
  %19 = alloca %"class.xercesc_2_5::DOMString", align 8
  %20 = alloca %"class.xercesc_2_5::DOMString", align 8
  %21 = alloca %"class.xercesc_2_5::DOM_Node", align 8
  call void @llvm.lifetime.start.p0(i64 8, ptr nonnull %9) #17
  call void @_ZN11xercesc_2_511DOM_ElementC1Ev(ptr noundef nonnull align 8 dereferenceable(8) %9)
  %22 = getelementptr inbounds %"class.xercesc_2_5::DOMParser", ptr %0, i64 0, i32 11
  %23 = load ptr, ptr %22, align 8, !tbaa !411
  %24 = getelementptr inbounds %"class.xercesc_2_5::DOMParser", ptr %0, i64 0, i32 17
  %25 = load ptr, ptr %24, align 8, !tbaa !354
  %26 = getelementptr inbounds %"class.xercesc_2_5::XMLScanner", ptr %25, i64 0, i32 3
  %27 = load i8, ptr %26, align 2, !tbaa !378, !range !375, !noundef !376
  %28 = icmp eq i8 %27, 0
  br i1 %28, label %242, label %29

29:                                               ; preds = %8
  call void @llvm.lifetime.start.p0(i64 32, ptr nonnull %10) #17
  %30 = getelementptr inbounds %"class.xercesc_2_5::DOMParser", ptr %0, i64 0, i32 22
  %31 = load ptr, ptr %30, align 8, !tbaa !348
  store i8 0, ptr %10, align 8, !tbaa !412
  %32 = getelementptr inbounds %"class.xercesc_2_5::XMLBuffer", ptr %10, i64 0, i32 1
  store i32 0, ptr %32, align 4, !tbaa !413
  %33 = getelementptr inbounds %"class.xercesc_2_5::XMLBuffer", ptr %10, i64 0, i32 2
  store i32 1023, ptr %33, align 8, !tbaa !414
  %34 = getelementptr inbounds %"class.xercesc_2_5::XMLBuffer", ptr %10, i64 0, i32 3
  store ptr %31, ptr %34, align 8, !tbaa !415
  %35 = getelementptr inbounds %"class.xercesc_2_5::XMLBuffer", ptr %10, i64 0, i32 4
  store ptr null, ptr %35, align 8, !tbaa !416
  %36 = load ptr, ptr %31, align 8, !tbaa !329
  %37 = getelementptr inbounds ptr, ptr %36, i64 2
  %38 = load ptr, ptr %37, align 8
  %39 = invoke noundef ptr %38(ptr noundef nonnull align 8 dereferenceable(8) %31, i64 noundef 2048)
          to label %40 unwind label %68

40:                                               ; preds = %29
  store ptr %39, ptr %35, align 8, !tbaa !416
  store i16 0, ptr %39, align 2, !tbaa !404
  call void @llvm.lifetime.start.p0(i64 8, ptr nonnull %11) #17
  invoke void @_ZN11xercesc_2_59DOMStringC1Ei(ptr noundef nonnull align 8 dereferenceable(8) %11, i32 noundef 0)
          to label %41 unwind label %70

41:                                               ; preds = %40
  call void @llvm.lifetime.start.p0(i64 8, ptr nonnull %12) #17
  invoke void @_ZN11xercesc_2_59DOMStringC1Ei(ptr noundef nonnull align 8 dereferenceable(8) %12, i32 noundef 0)
          to label %42 unwind label %72

42:                                               ; preds = %41
  %43 = load ptr, ptr %24, align 8, !tbaa !354
  %44 = getelementptr inbounds %"class.xercesc_2_5::XMLScanner", ptr %43, i64 0, i32 20
  %45 = load i32, ptr %44, align 4, !tbaa !417
  %46 = icmp eq i32 %45, %2
  br i1 %46, label %82, label %47

47:                                               ; preds = %42
  %48 = invoke noundef zeroext i1 @_ZNK11xercesc_2_510XMLScanner10getURITextEjRNS_9XMLBufferE(ptr noundef nonnull align 8 dereferenceable(664) %43, i32 noundef %2, ptr noundef nonnull align 8 dereferenceable(32) %10)
          to label %49 unwind label %74

49:                                               ; preds = %47
  call void @llvm.lifetime.start.p0(i64 8, ptr nonnull %13) #17
  %50 = load ptr, ptr %35, align 8, !tbaa !416
  %51 = load i32, ptr %32, align 4, !tbaa !413
  %52 = zext i32 %51 to i64
  %53 = getelementptr inbounds i16, ptr %50, i64 %52
  store i16 0, ptr %53, align 2, !tbaa !404
  invoke void @_ZN11xercesc_2_59DOMStringC1EPKt(ptr noundef nonnull align 8 dereferenceable(8) %13, ptr noundef nonnull %50)
          to label %54 unwind label %76

54:                                               ; preds = %49
  %55 = invoke noundef nonnull align 8 dereferenceable(8) ptr @_ZN11xercesc_2_59DOMStringaSERKS0_(ptr noundef nonnull align 8 dereferenceable(8) %11, ptr noundef nonnull align 8 dereferenceable(8) %13)
          to label %56 unwind label %78

56:                                               ; preds = %54
  invoke void @_ZN11xercesc_2_59DOMStringD1Ev(ptr noundef nonnull align 8 dereferenceable(8) %13)
          to label %57 unwind label %76

57:                                               ; preds = %56
  call void @llvm.lifetime.end.p0(i64 8, ptr nonnull %13) #17
  %58 = icmp eq ptr %3, null
  br i1 %58, label %82, label %59

59:                                               ; preds = %57
  %60 = load i16, ptr %3, align 2, !tbaa !404
  %61 = icmp eq i16 %60, 0
  br i1 %61, label %82, label %62

62:                                               ; preds = %59
  invoke void @_ZN11xercesc_2_59DOMString10appendDataEPKt(ptr noundef nonnull align 8 dereferenceable(8) %12, ptr noundef nonnull %3)
          to label %63 unwind label %74

63:                                               ; preds = %62
  invoke void @_ZN11xercesc_2_59DOMString10appendDataEt(ptr noundef nonnull align 8 dereferenceable(8) %12, i16 noundef zeroext 58)
          to label %82 unwind label %74

64:                                               ; preds = %383
  %65 = landingpad { ptr, i32 }
          cleanup
  br label %414

66:                                               ; preds = %341, %343, %400, %404, %409, %356, %374, %394
  %67 = landingpad { ptr, i32 }
          cleanup
  br label %414

68:                                               ; preds = %222, %29
  %69 = landingpad { ptr, i32 }
          cleanup
  br label %240

70:                                               ; preds = %221, %40
  %71 = landingpad { ptr, i32 }
          cleanup
  br label %233

72:                                               ; preds = %100, %41
  %73 = landingpad { ptr, i32 }
          cleanup
  br label %231

74:                                               ; preds = %82, %63, %62, %47
  %75 = landingpad { ptr, i32 }
          cleanup
  br label %229

76:                                               ; preds = %56, %49
  %77 = landingpad { ptr, i32 }
          cleanup
  br label %80

78:                                               ; preds = %54
  %79 = landingpad { ptr, i32 }
          cleanup
  invoke void @_ZN11xercesc_2_59DOMStringD1Ev(ptr noundef nonnull align 8 dereferenceable(8) %13)
          to label %80 unwind label %417

80:                                               ; preds = %78, %76
  %81 = phi { ptr, i32 } [ %77, %76 ], [ %79, %78 ]
  call void @llvm.lifetime.end.p0(i64 8, ptr nonnull %13) #17
  br label %229

82:                                               ; preds = %42, %63, %59, %57
  %83 = getelementptr inbounds %"class.xercesc_2_5::XMLElementDecl", ptr %1, i64 0, i32 2
  %84 = load ptr, ptr %83, align 8, !tbaa !418
  %85 = getelementptr inbounds %"class.xercesc_2_5::QName", ptr %84, i64 0, i32 4
  %86 = load ptr, ptr %85, align 8, !tbaa !421
  invoke void @_ZN11xercesc_2_59DOMString10appendDataEPKt(ptr noundef nonnull align 8 dereferenceable(8) %12, ptr noundef %86)
          to label %87 unwind label %74

87:                                               ; preds = %82
  call void @llvm.lifetime.start.p0(i64 8, ptr nonnull %14) #17
  invoke void @_ZN11xercesc_2_512DOM_Document15createElementNSERKNS_9DOMStringES3_(ptr nonnull sret(%"class.xercesc_2_5::DOM_Element") align 8 %14, ptr noundef nonnull align 8 dereferenceable(8) %22, ptr noundef nonnull align 8 dereferenceable(8) %11, ptr noundef nonnull align 8 dereferenceable(8) %12)
          to label %88 unwind label %101

88:                                               ; preds = %87
  %89 = invoke noundef nonnull align 8 dereferenceable(8) ptr @_ZN11xercesc_2_511DOM_ElementaSERKS0_(ptr noundef nonnull align 8 dereferenceable(8) %9, ptr noundef nonnull align 8 dereferenceable(8) %14)
          to label %90 unwind label %103

90:                                               ; preds = %88
  invoke void @_ZN11xercesc_2_511DOM_ElementD1Ev(ptr noundef nonnull align 8 dereferenceable(8) %14)
          to label %91 unwind label %101

91:                                               ; preds = %90
  call void @llvm.lifetime.end.p0(i64 8, ptr nonnull %14) #17
  %92 = load ptr, ptr %9, align 8, !tbaa !411
  %93 = icmp eq i32 %5, 0
  br i1 %93, label %100, label %94

94:                                               ; preds = %91
  %95 = getelementptr inbounds %"class.xercesc_2_5::BaseRefVectorOf", ptr %4, i64 0, i32 2
  %96 = getelementptr inbounds %"class.xercesc_2_5::BaseRefVectorOf", ptr %4, i64 0, i32 4
  %97 = getelementptr inbounds %"class.xercesc_2_5::DocumentImpl", ptr %23, i64 0, i32 4
  %98 = load i16, ptr @_ZN11xercesc_2_58NodeImpl7ID_ATTRE, align 2
  %99 = zext i32 %5 to i64
  br label %107

100:                                              ; preds = %218, %91
  invoke void @_ZN11xercesc_2_59DOMStringD1Ev(ptr noundef nonnull align 8 dereferenceable(8) %12)
          to label %221 unwind label %72

101:                                              ; preds = %90, %87
  %102 = landingpad { ptr, i32 }
          cleanup
  br label %105

103:                                              ; preds = %88
  %104 = landingpad { ptr, i32 }
          cleanup
  invoke void @_ZN11xercesc_2_511DOM_ElementD1Ev(ptr noundef nonnull align 8 dereferenceable(8) %14)
          to label %105 unwind label %417

105:                                              ; preds = %103, %101
  %106 = phi { ptr, i32 } [ %102, %101 ], [ %104, %103 ]
  call void @llvm.lifetime.end.p0(i64 8, ptr nonnull %14) #17
  br label %229

107:                                              ; preds = %94, %218
  %108 = phi i64 [ 0, %94 ], [ %219, %218 ]
  %109 = load i32, ptr %95, align 4, !tbaa !423
  %110 = zext i32 %109 to i64
  %111 = icmp ult i64 %108, %110
  br i1 %111, label %120, label %112

112:                                              ; preds = %107
  %113 = call ptr @__cxa_allocate_exception(i64 48) #17
  %114 = getelementptr inbounds %"class.xercesc_2_5::BaseRefVectorOf", ptr %4, i64 0, i32 5
  %115 = load ptr, ptr %114, align 8, !tbaa !425
  invoke void @_ZN11xercesc_2_530ArrayIndexOutOfBoundsExceptionC2EPKcjNS_10XMLExcepts5CodesEPNS_13MemoryManagerE(ptr noundef nonnull align 8 dereferenceable(48) %113, ptr noundef nonnull @.str.3, i32 noundef 281, i32 noundef 109, ptr noundef %115)
          to label %116 unwind label %118

116:                                              ; preds = %112
  invoke void @__cxa_throw(ptr nonnull %113, ptr nonnull @_ZTIN11xercesc_2_530ArrayIndexOutOfBoundsExceptionE, ptr nonnull @_ZN11xercesc_2_512XMLExceptionD2Ev) #19
          to label %117 unwind label %140

117:                                              ; preds = %116
  unreachable

118:                                              ; preds = %112
  %119 = landingpad { ptr, i32 }
          cleanup
  call void @__cxa_free_exception(ptr %113) #17
  br label %229

120:                                              ; preds = %107
  %121 = load ptr, ptr %96, align 8, !tbaa !426
  %122 = getelementptr inbounds ptr, ptr %121, i64 %108
  %123 = load ptr, ptr %122, align 8, !tbaa !401
  %124 = getelementptr inbounds %"class.xercesc_2_5::XMLAttr", ptr %123, i64 0, i32 6
  %125 = load ptr, ptr %124, align 8, !tbaa !427
  %126 = getelementptr inbounds %"class.xercesc_2_5::QName", ptr %125, i64 0, i32 8
  %127 = load i32, ptr %126, align 4, !tbaa !430
  %128 = invoke noundef nonnull align 8 dereferenceable(8) ptr @_ZN11xercesc_2_59DOMStringaSEPNS_11DOM_NullPtrE(ptr noundef nonnull align 8 dereferenceable(8) %11, ptr noundef null)
          to label %129 unwind label %142

129:                                              ; preds = %120
  %130 = load ptr, ptr %124, align 8, !tbaa !427
  %131 = getelementptr inbounds %"class.xercesc_2_5::QName", ptr %130, i64 0, i32 4
  %132 = load ptr, ptr %131, align 8, !tbaa !421
  %133 = invoke noundef i32 @_ZN11xercesc_2_59XMLString13compareStringEPKtS2_(ptr noundef %132, ptr noundef nonnull @_ZZN11xercesc_2_59DOMParser12startElementERKNS_14XMLElementDeclEjPKtRKNS_11RefVectorOfINS_7XMLAttrEEEjbbE5XMLNS)
          to label %134 unwind label %142

134:                                              ; preds = %129
  %135 = icmp eq i32 %133, 0
  %136 = load ptr, ptr %24, align 8, !tbaa !354
  br i1 %135, label %137, label %144

137:                                              ; preds = %134
  %138 = getelementptr inbounds %"class.xercesc_2_5::XMLScanner", ptr %136, i64 0, i32 23
  %139 = load i32, ptr %138, align 8, !tbaa !431
  br label %144

140:                                              ; preds = %116
  %141 = landingpad { ptr, i32 }
          cleanup
  br label %229

142:                                              ; preds = %149, %129, %120
  %143 = landingpad { ptr, i32 }
          cleanup
  br label %229

144:                                              ; preds = %137, %134
  %145 = phi i32 [ %127, %134 ], [ %139, %137 ]
  %146 = getelementptr inbounds %"class.xercesc_2_5::XMLScanner", ptr %136, i64 0, i32 20
  %147 = load i32, ptr %146, align 4, !tbaa !417
  %148 = icmp eq i32 %145, %147
  br i1 %148, label %166, label %149

149:                                              ; preds = %144
  %150 = invoke noundef zeroext i1 @_ZNK11xercesc_2_510XMLScanner10getURITextEjRNS_9XMLBufferE(ptr noundef nonnull align 8 dereferenceable(664) %136, i32 noundef %145, ptr noundef nonnull align 8 dereferenceable(32) %10)
          to label %151 unwind label %142

151:                                              ; preds = %149
  call void @llvm.lifetime.start.p0(i64 8, ptr nonnull %15) #17
  %152 = load ptr, ptr %35, align 8, !tbaa !416
  %153 = load i32, ptr %32, align 4, !tbaa !413
  %154 = zext i32 %153 to i64
  %155 = getelementptr inbounds i16, ptr %152, i64 %154
  store i16 0, ptr %155, align 2, !tbaa !404
  invoke void @_ZN11xercesc_2_59DOMStringC1EPKt(ptr noundef nonnull align 8 dereferenceable(8) %15, ptr noundef nonnull %152)
          to label %156 unwind label %160

156:                                              ; preds = %151
  %157 = invoke noundef nonnull align 8 dereferenceable(8) ptr @_ZN11xercesc_2_59DOMStringaSERKS0_(ptr noundef nonnull align 8 dereferenceable(8) %11, ptr noundef nonnull align 8 dereferenceable(8) %15)
          to label %158 unwind label %162

158:                                              ; preds = %156
  invoke void @_ZN11xercesc_2_59DOMStringD1Ev(ptr noundef nonnull align 8 dereferenceable(8) %15)
          to label %159 unwind label %160

159:                                              ; preds = %158
  call void @llvm.lifetime.end.p0(i64 8, ptr nonnull %15) #17
  br label %166

160:                                              ; preds = %158, %151
  %161 = landingpad { ptr, i32 }
          cleanup
  br label %164

162:                                              ; preds = %156
  %163 = landingpad { ptr, i32 }
          cleanup
  invoke void @_ZN11xercesc_2_59DOMStringD1Ev(ptr noundef nonnull align 8 dereferenceable(8) %15)
          to label %164 unwind label %417

164:                                              ; preds = %162, %160
  %165 = phi { ptr, i32 } [ %161, %160 ], [ %163, %162 ]
  call void @llvm.lifetime.end.p0(i64 8, ptr nonnull %15) #17
  br label %229

166:                                              ; preds = %159, %144
  call void @llvm.lifetime.start.p0(i64 8, ptr nonnull %16) #17
  %167 = invoke noundef ptr @_ZNK11xercesc_2_57XMLAttr8getQNameEv(ptr noundef nonnull align 8 dereferenceable(49) %123)
          to label %168 unwind label %192

168:                                              ; preds = %166
  invoke void @_ZN11xercesc_2_59DOMStringC1EPKt(ptr noundef nonnull align 8 dereferenceable(8) %16, ptr noundef %167)
          to label %169 unwind label %192

169:                                              ; preds = %168
  call void @llvm.lifetime.start.p0(i64 8, ptr nonnull %17) #17
  %170 = getelementptr inbounds %"class.xercesc_2_5::XMLAttr", ptr %123, i64 0, i32 5
  %171 = load ptr, ptr %170, align 8, !tbaa !432
  invoke void @_ZN11xercesc_2_59DOMStringC1EPKt(ptr noundef nonnull align 8 dereferenceable(8) %17, ptr noundef %171)
          to label %172 unwind label %194

172:                                              ; preds = %169
  %173 = load ptr, ptr %92, align 8, !tbaa !329
  %174 = getelementptr inbounds ptr, ptr %173, i64 56
  %175 = load ptr, ptr %174, align 8
  %176 = invoke noundef ptr %175(ptr noundef nonnull align 8 dereferenceable(104) %92, ptr noundef nonnull align 8 dereferenceable(8) %11, ptr noundef nonnull align 8 dereferenceable(8) %16, ptr noundef nonnull align 8 dereferenceable(8) %17)
          to label %177 unwind label %196

177:                                              ; preds = %172
  invoke void @_ZN11xercesc_2_59DOMStringD1Ev(ptr noundef nonnull align 8 dereferenceable(8) %17)
          to label %178 unwind label %194

178:                                              ; preds = %177
  call void @llvm.lifetime.end.p0(i64 8, ptr nonnull %17) #17
  invoke void @_ZN11xercesc_2_59DOMStringD1Ev(ptr noundef nonnull align 8 dereferenceable(8) %16)
          to label %179 unwind label %192

179:                                              ; preds = %178
  call void @llvm.lifetime.end.p0(i64 8, ptr nonnull %16) #17
  %180 = getelementptr inbounds %"class.xercesc_2_5::XMLAttr", ptr %123, i64 0, i32 2
  %181 = load i32, ptr %180, align 4, !tbaa !433
  %182 = icmp eq i32 %181, 1
  br i1 %182, label %183, label %212

183:                                              ; preds = %179
  %184 = load ptr, ptr %97, align 8, !tbaa !434
  %185 = icmp eq ptr %184, null
  br i1 %185, label %186, label %206

186:                                              ; preds = %183
  %187 = load ptr, ptr %30, align 8, !tbaa !348
  %188 = invoke noundef ptr @_ZN11xercesc_2_57XMemorynwEmPNS_13MemoryManagerE(i64 noundef 40, ptr noundef %187)
          to label %189 unwind label %202

189:                                              ; preds = %186
  %190 = load ptr, ptr %30, align 8, !tbaa !348
  invoke void @_ZN11xercesc_2_59NodeIDMapC1EiPNS_13MemoryManagerE(ptr noundef nonnull align 8 dereferenceable(40) %188, i32 noundef 500, ptr noundef %190)
          to label %191 unwind label %204

191:                                              ; preds = %189
  store ptr %188, ptr %97, align 8, !tbaa !434
  br label %206

192:                                              ; preds = %178, %168, %166
  %193 = landingpad { ptr, i32 }
          cleanup
  br label %200

194:                                              ; preds = %177, %169
  %195 = landingpad { ptr, i32 }
          cleanup
  br label %198

196:                                              ; preds = %172
  %197 = landingpad { ptr, i32 }
          cleanup
  invoke void @_ZN11xercesc_2_59DOMStringD1Ev(ptr noundef nonnull align 8 dereferenceable(8) %17)
          to label %198 unwind label %417

198:                                              ; preds = %196, %194
  %199 = phi { ptr, i32 } [ %195, %194 ], [ %197, %196 ]
  call void @llvm.lifetime.end.p0(i64 8, ptr nonnull %17) #17
  invoke void @_ZN11xercesc_2_59DOMStringD1Ev(ptr noundef nonnull align 8 dereferenceable(8) %16)
          to label %200 unwind label %417

200:                                              ; preds = %198, %192
  %201 = phi { ptr, i32 } [ %193, %192 ], [ %199, %198 ]
  call void @llvm.lifetime.end.p0(i64 8, ptr nonnull %16) #17
  br label %229

202:                                              ; preds = %212, %206, %186
  %203 = landingpad { ptr, i32 }
          cleanup
  br label %229

204:                                              ; preds = %189
  %205 = landingpad { ptr, i32 }
          cleanup
  invoke void @_ZN11xercesc_2_57XMemorydlEPvPNS_13MemoryManagerE(ptr noundef %188, ptr noundef %187)
          to label %229 unwind label %417

206:                                              ; preds = %191, %183
  %207 = phi ptr [ %188, %191 ], [ %184, %183 ]
  invoke void @_ZN11xercesc_2_59NodeIDMap3addEPNS_8AttrImplE(ptr noundef nonnull align 8 dereferenceable(40) %207, ptr noundef %176)
          to label %208 unwind label %202

208:                                              ; preds = %206
  %209 = getelementptr inbounds %"class.xercesc_2_5::NodeImpl", ptr %176, i64 0, i32 3
  %210 = load i16, ptr %209, align 8, !tbaa !441
  %211 = or i16 %98, %210
  store i16 %211, ptr %209, align 8, !tbaa !441
  br label %212

212:                                              ; preds = %208, %179
  %213 = load i8, ptr %123, align 8, !tbaa !442, !range !375, !noundef !376
  %214 = icmp ne i8 %213, 0
  %215 = load ptr, ptr %176, align 8, !tbaa !329
  %216 = getelementptr inbounds ptr, ptr %215, i64 50
  %217 = load ptr, ptr %216, align 8
  invoke void %217(ptr noundef nonnull align 8 dereferenceable(48) %176, i1 noundef zeroext %214)
          to label %218 unwind label %202

218:                                              ; preds = %212
  %219 = add nuw nsw i64 %108, 1
  %220 = icmp eq i64 %219, %99
  br i1 %220, label %100, label %107

221:                                              ; preds = %100
  call void @llvm.lifetime.end.p0(i64 8, ptr nonnull %12) #17
  invoke void @_ZN11xercesc_2_59DOMStringD1Ev(ptr noundef nonnull align 8 dereferenceable(8) %11)
          to label %222 unwind label %70

222:                                              ; preds = %221
  call void @llvm.lifetime.end.p0(i64 8, ptr nonnull %11) #17
  %223 = load ptr, ptr %34, align 8, !tbaa !415
  %224 = load ptr, ptr %35, align 8, !tbaa !416
  %225 = load ptr, ptr %223, align 8, !tbaa !329
  %226 = getelementptr inbounds ptr, ptr %225, i64 3
  %227 = load ptr, ptr %226, align 8
  invoke void %227(ptr noundef nonnull align 8 dereferenceable(8) %223, ptr noundef %224)
          to label %228 unwind label %68

228:                                              ; preds = %222
  call void @llvm.lifetime.end.p0(i64 32, ptr nonnull %10) #17
  br label %341

229:                                              ; preds = %140, %118, %200, %202, %204, %164, %142, %105, %80, %74
  %230 = phi { ptr, i32 } [ %106, %105 ], [ %75, %74 ], [ %81, %80 ], [ %165, %164 ], [ %143, %142 ], [ %203, %202 ], [ %205, %204 ], [ %201, %200 ], [ %141, %140 ], [ %119, %118 ]
  invoke void @_ZN11xercesc_2_59DOMStringD1Ev(ptr noundef nonnull align 8 dereferenceable(8) %12)
          to label %231 unwind label %417

231:                                              ; preds = %229, %72
  %232 = phi { ptr, i32 } [ %230, %229 ], [ %73, %72 ]
  call void @llvm.lifetime.end.p0(i64 8, ptr nonnull %12) #17
  invoke void @_ZN11xercesc_2_59DOMStringD1Ev(ptr noundef nonnull align 8 dereferenceable(8) %11)
          to label %233 unwind label %417

233:                                              ; preds = %231, %70
  %234 = phi { ptr, i32 } [ %232, %231 ], [ %71, %70 ]
  call void @llvm.lifetime.end.p0(i64 8, ptr nonnull %11) #17
  %235 = load ptr, ptr %34, align 8, !tbaa !415
  %236 = load ptr, ptr %35, align 8, !tbaa !416
  %237 = load ptr, ptr %235, align 8, !tbaa !329
  %238 = getelementptr inbounds ptr, ptr %237, i64 3
  %239 = load ptr, ptr %238, align 8
  invoke void %239(ptr noundef nonnull align 8 dereferenceable(8) %235, ptr noundef %236)
          to label %240 unwind label %417

240:                                              ; preds = %233, %68
  %241 = phi { ptr, i32 } [ %69, %68 ], [ %234, %233 ]
  call void @llvm.lifetime.end.p0(i64 32, ptr nonnull %10) #17
  br label %414

242:                                              ; preds = %8
  call void @llvm.lifetime.start.p0(i64 8, ptr nonnull %18) #17
  %243 = getelementptr inbounds %"class.xercesc_2_5::XMLElementDecl", ptr %1, i64 0, i32 2
  %244 = load ptr, ptr %243, align 8, !tbaa !418
  %245 = invoke noundef ptr @_ZN11xercesc_2_55QName10getRawNameEv(ptr noundef nonnull align 8 dereferenceable(64) %244)
          to label %246 unwind label %260

246:                                              ; preds = %242
  invoke void @_ZN11xercesc_2_512DOM_Document13createElementEPKt(ptr nonnull sret(%"class.xercesc_2_5::DOM_Element") align 8 %18, ptr noundef nonnull align 8 dereferenceable(8) %22, ptr noundef %245)
          to label %247 unwind label %260

247:                                              ; preds = %246
  %248 = invoke noundef nonnull align 8 dereferenceable(8) ptr @_ZN11xercesc_2_511DOM_ElementaSERKS0_(ptr noundef nonnull align 8 dereferenceable(8) %9, ptr noundef nonnull align 8 dereferenceable(8) %18)
          to label %249 unwind label %262

249:                                              ; preds = %247
  invoke void @_ZN11xercesc_2_511DOM_ElementD1Ev(ptr noundef nonnull align 8 dereferenceable(8) %18)
          to label %250 unwind label %260

250:                                              ; preds = %249
  call void @llvm.lifetime.end.p0(i64 8, ptr nonnull %18) #17
  %251 = load ptr, ptr %9, align 8, !tbaa !411
  %252 = icmp eq i32 %5, 0
  br i1 %252, label %341, label %253

253:                                              ; preds = %250
  %254 = getelementptr inbounds %"class.xercesc_2_5::BaseRefVectorOf", ptr %4, i64 0, i32 2
  %255 = getelementptr inbounds %"class.xercesc_2_5::BaseRefVectorOf", ptr %4, i64 0, i32 4
  %256 = getelementptr inbounds %"class.xercesc_2_5::DocumentImpl", ptr %23, i64 0, i32 4
  %257 = getelementptr inbounds %"class.xercesc_2_5::DOMParser", ptr %0, i64 0, i32 22
  %258 = load i16, ptr @_ZN11xercesc_2_58NodeImpl7ID_ATTRE, align 2
  %259 = zext i32 %5 to i64
  br label %266

260:                                              ; preds = %242, %249, %246
  %261 = landingpad { ptr, i32 }
          cleanup
  br label %264

262:                                              ; preds = %247
  %263 = landingpad { ptr, i32 }
          cleanup
  invoke void @_ZN11xercesc_2_511DOM_ElementD1Ev(ptr noundef nonnull align 8 dereferenceable(8) %18)
          to label %264 unwind label %417

264:                                              ; preds = %262, %260
  %265 = phi { ptr, i32 } [ %261, %260 ], [ %263, %262 ]
  call void @llvm.lifetime.end.p0(i64 8, ptr nonnull %18) #17
  br label %414

266:                                              ; preds = %253, %338
  %267 = phi i64 [ 0, %253 ], [ %339, %338 ]
  %268 = load i32, ptr %254, align 4, !tbaa !423
  %269 = zext i32 %268 to i64
  %270 = icmp ult i64 %267, %269
  br i1 %270, label %279, label %271

271:                                              ; preds = %266
  %272 = call ptr @__cxa_allocate_exception(i64 48) #17
  %273 = getelementptr inbounds %"class.xercesc_2_5::BaseRefVectorOf", ptr %4, i64 0, i32 5
  %274 = load ptr, ptr %273, align 8, !tbaa !425
  invoke void @_ZN11xercesc_2_530ArrayIndexOutOfBoundsExceptionC2EPKcjNS_10XMLExcepts5CodesEPNS_13MemoryManagerE(ptr noundef nonnull align 8 dereferenceable(48) %272, ptr noundef nonnull @.str.3, i32 noundef 281, i32 noundef 109, ptr noundef %274)
          to label %275 unwind label %277

275:                                              ; preds = %271
  invoke void @__cxa_throw(ptr nonnull %272, ptr nonnull @_ZTIN11xercesc_2_530ArrayIndexOutOfBoundsExceptionE, ptr nonnull @_ZN11xercesc_2_512XMLExceptionD2Ev) #19
          to label %276 unwind label %316

276:                                              ; preds = %275
  unreachable

277:                                              ; preds = %271
  %278 = landingpad { ptr, i32 }
          cleanup
  call void @__cxa_free_exception(ptr %272) #17
  br label %414

279:                                              ; preds = %266
  %280 = load ptr, ptr %255, align 8, !tbaa !426
  %281 = getelementptr inbounds ptr, ptr %280, i64 %267
  %282 = load ptr, ptr %281, align 8, !tbaa !401
  call void @llvm.lifetime.start.p0(i64 8, ptr nonnull %19) #17
  %283 = getelementptr inbounds %"class.xercesc_2_5::XMLAttr", ptr %282, i64 0, i32 6
  %284 = load ptr, ptr %283, align 8, !tbaa !427
  %285 = getelementptr inbounds %"class.xercesc_2_5::QName", ptr %284, i64 0, i32 4
  %286 = load ptr, ptr %285, align 8, !tbaa !421
  invoke void @_ZN11xercesc_2_59DOMStringC1EPKt(ptr noundef nonnull align 8 dereferenceable(8) %19, ptr noundef %286)
          to label %287 unwind label %318

287:                                              ; preds = %279
  call void @llvm.lifetime.start.p0(i64 8, ptr nonnull %20) #17
  %288 = getelementptr inbounds %"class.xercesc_2_5::XMLAttr", ptr %282, i64 0, i32 5
  %289 = load ptr, ptr %288, align 8, !tbaa !432
  invoke void @_ZN11xercesc_2_59DOMStringC1EPKt(ptr noundef nonnull align 8 dereferenceable(8) %20, ptr noundef %289)
          to label %290 unwind label %320

290:                                              ; preds = %287
  %291 = load ptr, ptr %251, align 8, !tbaa !329
  %292 = getelementptr inbounds ptr, ptr %291, i64 53
  %293 = load ptr, ptr %292, align 8
  %294 = invoke noundef ptr %293(ptr noundef nonnull align 8 dereferenceable(104) %251, ptr noundef nonnull align 8 dereferenceable(8) %19, ptr noundef nonnull align 8 dereferenceable(8) %20)
          to label %295 unwind label %322

295:                                              ; preds = %290
  invoke void @_ZN11xercesc_2_59DOMStringD1Ev(ptr noundef nonnull align 8 dereferenceable(8) %20)
          to label %296 unwind label %320

296:                                              ; preds = %295
  call void @llvm.lifetime.end.p0(i64 8, ptr nonnull %20) #17
  invoke void @_ZN11xercesc_2_59DOMStringD1Ev(ptr noundef nonnull align 8 dereferenceable(8) %19)
          to label %297 unwind label %318

297:                                              ; preds = %296
  call void @llvm.lifetime.end.p0(i64 8, ptr nonnull %19) #17
  %298 = load i8, ptr %282, align 8, !tbaa !442, !range !375, !noundef !376
  %299 = icmp ne i8 %298, 0
  %300 = load ptr, ptr %294, align 8, !tbaa !329
  %301 = getelementptr inbounds ptr, ptr %300, i64 50
  %302 = load ptr, ptr %301, align 8
  invoke void %302(ptr noundef nonnull align 8 dereferenceable(48) %294, i1 noundef zeroext %299)
          to label %303 unwind label %328

303:                                              ; preds = %297
  %304 = getelementptr inbounds %"class.xercesc_2_5::XMLAttr", ptr %282, i64 0, i32 2
  %305 = load i32, ptr %304, align 4, !tbaa !433
  %306 = icmp eq i32 %305, 1
  br i1 %306, label %307, label %338

307:                                              ; preds = %303
  %308 = load ptr, ptr %256, align 8, !tbaa !434
  %309 = icmp eq ptr %308, null
  br i1 %309, label %310, label %332

310:                                              ; preds = %307
  %311 = load ptr, ptr %257, align 8, !tbaa !348
  %312 = invoke noundef ptr @_ZN11xercesc_2_57XMemorynwEmPNS_13MemoryManagerE(i64 noundef 40, ptr noundef %311)
          to label %313 unwind label %328

313:                                              ; preds = %310
  %314 = load ptr, ptr %257, align 8, !tbaa !348
  invoke void @_ZN11xercesc_2_59NodeIDMapC1EiPNS_13MemoryManagerE(ptr noundef nonnull align 8 dereferenceable(40) %312, i32 noundef 500, ptr noundef %314)
          to label %315 unwind label %330

315:                                              ; preds = %313
  store ptr %312, ptr %256, align 8, !tbaa !434
  br label %332

316:                                              ; preds = %275
  %317 = landingpad { ptr, i32 }
          cleanup
  br label %414

318:                                              ; preds = %296, %279
  %319 = landingpad { ptr, i32 }
          cleanup
  br label %326

320:                                              ; preds = %295, %287
  %321 = landingpad { ptr, i32 }
          cleanup
  br label %324

322:                                              ; preds = %290
  %323 = landingpad { ptr, i32 }
          cleanup
  invoke void @_ZN11xercesc_2_59DOMStringD1Ev(ptr noundef nonnull align 8 dereferenceable(8) %20)
          to label %324 unwind label %417

324:                                              ; preds = %322, %320
  %325 = phi { ptr, i32 } [ %321, %320 ], [ %323, %322 ]
  call void @llvm.lifetime.end.p0(i64 8, ptr nonnull %20) #17
  invoke void @_ZN11xercesc_2_59DOMStringD1Ev(ptr noundef nonnull align 8 dereferenceable(8) %19)
          to label %326 unwind label %417

326:                                              ; preds = %324, %318
  %327 = phi { ptr, i32 } [ %319, %318 ], [ %325, %324 ]
  call void @llvm.lifetime.end.p0(i64 8, ptr nonnull %19) #17
  br label %414

328:                                              ; preds = %332, %310, %297
  %329 = landingpad { ptr, i32 }
          cleanup
  br label %414

330:                                              ; preds = %313
  %331 = landingpad { ptr, i32 }
          cleanup
  invoke void @_ZN11xercesc_2_57XMemorydlEPvPNS_13MemoryManagerE(ptr noundef %312, ptr noundef %311)
          to label %414 unwind label %417

332:                                              ; preds = %315, %307
  %333 = phi ptr [ %312, %315 ], [ %308, %307 ]
  invoke void @_ZN11xercesc_2_59NodeIDMap3addEPNS_8AttrImplE(ptr noundef nonnull align 8 dereferenceable(40) %333, ptr noundef nonnull %294)
          to label %334 unwind label %328

334:                                              ; preds = %332
  %335 = getelementptr inbounds %"class.xercesc_2_5::NodeImpl", ptr %294, i64 0, i32 3
  %336 = load i16, ptr %335, align 8, !tbaa !441
  %337 = or i16 %258, %336
  store i16 %337, ptr %335, align 8, !tbaa !441
  br label %338

338:                                              ; preds = %334, %303
  %339 = add nuw nsw i64 %267, 1
  %340 = icmp eq i64 %339, %259
  br i1 %340, label %341, label %266

341:                                              ; preds = %338, %250, %228
  %342 = getelementptr inbounds %"class.xercesc_2_5::DOMParser", ptr %0, i64 0, i32 9
  invoke void @_ZN11xercesc_2_58DOM_Node11appendChildERKS0_(ptr nonnull sret(%"class.xercesc_2_5::DOM_Node") align 8 %21, ptr noundef nonnull align 8 dereferenceable(8) %342, ptr noundef nonnull align 8 dereferenceable(8) %9)
          to label %343 unwind label %66

343:                                              ; preds = %341
  invoke void @_ZN11xercesc_2_58DOM_NodeD1Ev(ptr noundef nonnull align 8 dereferenceable(8) %21)
          to label %344 unwind label %66

344:                                              ; preds = %343
  %345 = getelementptr inbounds %"class.xercesc_2_5::DOMParser", ptr %0, i64 0, i32 16
  %346 = load ptr, ptr %345, align 8, !tbaa !374
  %347 = getelementptr inbounds %"class.xercesc_2_5::ValueStackOf", ptr %346, i64 0, i32 1, i32 1
  %348 = load i32, ptr %347, align 4, !tbaa !370
  %349 = add i32 %348, 1
  %350 = getelementptr inbounds %"class.xercesc_2_5::ValueStackOf", ptr %346, i64 0, i32 1, i32 2
  %351 = load i32, ptr %350, align 8, !tbaa !371
  %352 = icmp ult i32 %349, %351
  br i1 %352, label %353, label %356

353:                                              ; preds = %344
  %354 = getelementptr inbounds %"class.xercesc_2_5::ValueStackOf", ptr %346, i64 0, i32 1, i32 3
  %355 = load ptr, ptr %354, align 8, !tbaa !372
  br label %394

356:                                              ; preds = %344
  %357 = uitofp i32 %348 to double
  %358 = fmul reassoc nnan ninf nsz arcp afn double %357, 1.250000e+00
  %359 = fptoui double %358 to i32
  %360 = call i32 @llvm.umax.i32(i32 %349, i32 %359)
  %361 = getelementptr inbounds %"class.xercesc_2_5::ValueStackOf", ptr %346, i64 0, i32 1, i32 4
  %362 = load ptr, ptr %361, align 8, !tbaa !373
  %363 = zext i32 %360 to i64
  %364 = shl nuw nsw i64 %363, 3
  %365 = load ptr, ptr %362, align 8, !tbaa !329
  %366 = getelementptr inbounds ptr, ptr %365, i64 2
  %367 = load ptr, ptr %366, align 8
  %368 = invoke noundef ptr %367(ptr noundef nonnull align 8 dereferenceable(8) %362, i64 noundef %364)
          to label %369 unwind label %66

369:                                              ; preds = %356
  %370 = load i32, ptr %347, align 4, !tbaa !370
  %371 = icmp eq i32 %370, 0
  br i1 %371, label %374, label %372

372:                                              ; preds = %369
  %373 = getelementptr inbounds %"class.xercesc_2_5::ValueStackOf", ptr %346, i64 0, i32 1, i32 3
  br label %383

374:                                              ; preds = %389, %369
  %375 = load ptr, ptr %361, align 8, !tbaa !373
  %376 = getelementptr inbounds %"class.xercesc_2_5::ValueStackOf", ptr %346, i64 0, i32 1, i32 3
  %377 = load ptr, ptr %376, align 8, !tbaa !372
  %378 = load ptr, ptr %375, align 8, !tbaa !329
  %379 = getelementptr inbounds ptr, ptr %378, i64 3
  %380 = load ptr, ptr %379, align 8
  invoke void %380(ptr noundef nonnull align 8 dereferenceable(8) %375, ptr noundef %377)
          to label %381 unwind label %66

381:                                              ; preds = %374
  store ptr %368, ptr %376, align 8, !tbaa !372
  store i32 %360, ptr %350, align 8, !tbaa !371
  %382 = load i32, ptr %347, align 4, !tbaa !370
  br label %394

383:                                              ; preds = %389, %372
  %384 = phi i64 [ 0, %372 ], [ %390, %389 ]
  %385 = load ptr, ptr %373, align 8, !tbaa !372
  %386 = getelementptr inbounds %"class.xercesc_2_5::DOM_Node", ptr %385, i64 %384
  %387 = getelementptr inbounds %"class.xercesc_2_5::DOM_Node", ptr %368, i64 %384
  %388 = invoke noundef nonnull align 8 dereferenceable(8) ptr @_ZN11xercesc_2_58DOM_NodeaSERKS0_(ptr noundef nonnull align 8 dereferenceable(8) %387, ptr noundef nonnull align 8 dereferenceable(8) %386)
          to label %389 unwind label %64

389:                                              ; preds = %383
  %390 = add nuw nsw i64 %384, 1
  %391 = load i32, ptr %347, align 4, !tbaa !370
  %392 = zext i32 %391 to i64
  %393 = icmp ult i64 %390, %392
  br i1 %393, label %383, label %374

394:                                              ; preds = %381, %353
  %395 = phi i32 [ %348, %353 ], [ %382, %381 ]
  %396 = phi ptr [ %355, %353 ], [ %368, %381 ]
  %397 = zext i32 %395 to i64
  %398 = getelementptr inbounds %"class.xercesc_2_5::DOM_Node", ptr %396, i64 %397
  %399 = invoke noundef nonnull align 8 dereferenceable(8) ptr @_ZN11xercesc_2_58DOM_NodeaSERKS0_(ptr noundef nonnull align 8 dereferenceable(8) %398, ptr noundef nonnull align 8 dereferenceable(8) %342)
          to label %400 unwind label %66

400:                                              ; preds = %394
  %401 = load i32, ptr %347, align 4, !tbaa !370
  %402 = add i32 %401, 1
  store i32 %402, ptr %347, align 4, !tbaa !370
  %403 = invoke noundef nonnull align 8 dereferenceable(8) ptr @_ZN11xercesc_2_58DOM_NodeaSERKS0_(ptr noundef nonnull align 8 dereferenceable(8) %342, ptr noundef nonnull align 8 dereferenceable(8) %9)
          to label %404 unwind label %66

404:                                              ; preds = %400
  %405 = getelementptr inbounds %"class.xercesc_2_5::DOMParser", ptr %0, i64 0, i32 10
  %406 = invoke noundef nonnull align 8 dereferenceable(8) ptr @_ZN11xercesc_2_58DOM_NodeaSERKS0_(ptr noundef nonnull align 8 dereferenceable(8) %405, ptr noundef nonnull align 8 dereferenceable(8) %9)
          to label %407 unwind label %66

407:                                              ; preds = %404
  %408 = getelementptr inbounds %"class.xercesc_2_5::DOMParser", ptr %0, i64 0, i32 8
  store i8 1, ptr %408, align 4, !tbaa !346
  br i1 %6, label %409, label %413

409:                                              ; preds = %407
  %410 = load ptr, ptr %0, align 8, !tbaa !329
  %411 = getelementptr inbounds ptr, ptr %410, i64 6
  %412 = load ptr, ptr %411, align 8
  invoke void %412(ptr noundef nonnull align 8 dereferenceable(160) %0, ptr noundef nonnull align 8 dereferenceable(33) %1, i32 noundef %2, i1 noundef zeroext %7, ptr noundef %3)
          to label %413 unwind label %66

413:                                              ; preds = %409, %407
  call void @_ZN11xercesc_2_511DOM_ElementD1Ev(ptr noundef nonnull align 8 dereferenceable(8) %9)
  call void @llvm.lifetime.end.p0(i64 8, ptr nonnull %9) #17
  ret void

414:                                              ; preds = %64, %66, %316, %277, %330, %328, %326, %264, %240
  %415 = phi { ptr, i32 } [ %241, %240 ], [ %265, %264 ], [ %329, %328 ], [ %331, %330 ], [ %327, %326 ], [ %317, %316 ], [ %278, %277 ], [ %65, %64 ], [ %67, %66 ]
  invoke void @_ZN11xercesc_2_511DOM_ElementD1Ev(ptr noundef nonnull align 8 dereferenceable(8) %9)
          to label %416 unwind label %417

416:                                              ; preds = %414
  call void @llvm.lifetime.end.p0(i64 8, ptr nonnull %9) #17
  resume { ptr, i32 } %415

417:                                              ; preds = %233, %414, %330, %324, %322, %262, %231, %229, %204, %198, %196, %162, %103, %78
  %418 = landingpad { ptr, i32 }
          catch ptr null
  %419 = extractvalue { ptr, i32 } %418, 0
  call void @__clang_call_terminate(ptr %419) #18
  unreachable
}

declare void @_ZN11xercesc_2_511DOM_ElementC1Ev(ptr noundef nonnull align 8 dereferenceable(8)) unnamed_addr #1

declare void @_ZN11xercesc_2_59DOMStringC1Ei(ptr noundef nonnull align 8 dereferenceable(8), i32 noundef) unnamed_addr #1

declare noundef zeroext i1 @_ZNK11xercesc_2_510XMLScanner10getURITextEjRNS_9XMLBufferE(ptr noundef nonnull align 8 dereferenceable(664), i32 noundef, ptr noundef nonnull align 8 dereferenceable(32)) local_unnamed_addr #1

declare noundef nonnull align 8 dereferenceable(8) ptr @_ZN11xercesc_2_59DOMStringaSERKS0_(ptr noundef nonnull align 8 dereferenceable(8), ptr noundef nonnull align 8 dereferenceable(8)) local_unnamed_addr #1

declare void @_ZN11xercesc_2_59DOMString10appendDataEPKt(ptr noundef nonnull align 8 dereferenceable(8), ptr noundef) local_unnamed_addr #1

declare void @_ZN11xercesc_2_59DOMString10appendDataEt(ptr noundef nonnull align 8 dereferenceable(8), i16 noundef zeroext) local_unnamed_addr #1

declare void @_ZN11xercesc_2_512DOM_Document15createElementNSERKNS_9DOMStringES3_(ptr sret(%"class.xercesc_2_5::DOM_Element") align 8, ptr noundef nonnull align 8 dereferenceable(8), ptr noundef nonnull align 8 dereferenceable(8), ptr noundef nonnull align 8 dereferenceable(8)) local_unnamed_addr #1

declare noundef nonnull align 8 dereferenceable(8) ptr @_ZN11xercesc_2_511DOM_ElementaSERKS0_(ptr noundef nonnull align 8 dereferenceable(8), ptr noundef nonnull align 8 dereferenceable(8)) local_unnamed_addr #1

declare void @_ZN11xercesc_2_511DOM_ElementD1Ev(ptr noundef nonnull align 8 dereferenceable(8)) unnamed_addr #1

declare noundef nonnull align 8 dereferenceable(8) ptr @_ZN11xercesc_2_59DOMStringaSEPNS_11DOM_NullPtrE(ptr noundef nonnull align 8 dereferenceable(8), ptr noundef) local_unnamed_addr #1

declare noundef i32 @_ZN11xercesc_2_59XMLString13compareStringEPKtS2_(ptr noundef, ptr noundef) local_unnamed_addr #1

declare noundef ptr @_ZNK11xercesc_2_57XMLAttr8getQNameEv(ptr noundef nonnull align 8 dereferenceable(49)) local_unnamed_addr #1

declare void @_ZN11xercesc_2_59NodeIDMapC1EiPNS_13MemoryManagerE(ptr noundef nonnull align 8 dereferenceable(40), i32 noundef, ptr noundef) unnamed_addr #1

declare void @_ZN11xercesc_2_59NodeIDMap3addEPNS_8AttrImplE(ptr noundef nonnull align 8 dereferenceable(40), ptr noundef) local_unnamed_addr #1

declare void @_ZN11xercesc_2_512DOM_Document13createElementEPKt(ptr sret(%"class.xercesc_2_5::DOM_Element") align 8, ptr noundef nonnull align 8 dereferenceable(8), ptr noundef) local_unnamed_addr #1

; Function Attrs: uwtable
define dso_local void @_ZN11xercesc_2_59DOMParser20startEntityReferenceERKNS_13XMLEntityDeclE(ptr noundef nonnull align 8 dereferenceable(160) %0, ptr nocapture noundef nonnull readonly align 8 dereferenceable(72) %1) unnamed_addr #2 align 2 personality ptr @__gxx_personality_v0 {
  %3 = alloca %"class.xercesc_2_5::DOMString", align 8
  %4 = alloca %"class.xercesc_2_5::DOM_EntityReference", align 8
  %5 = alloca %"class.xercesc_2_5::DOM_Node", align 8
  %6 = getelementptr inbounds %"class.xercesc_2_5::DOMParser", ptr %0, i64 0, i32 5
  %7 = load i8, ptr %6, align 1, !tbaa !343, !range !375, !noundef !376
  %8 = icmp eq i8 %7, 0
  br i1 %8, label %113, label %9

9:                                                ; preds = %2
  call void @llvm.lifetime.start.p0(i64 8, ptr nonnull %3) #17
  %10 = getelementptr inbounds %"class.xercesc_2_5::XMLEntityDecl", ptr %1, i64 0, i32 4
  %11 = load ptr, ptr %10, align 8, !tbaa !443
  call void @_ZN11xercesc_2_59DOMStringC1EPKt(ptr noundef nonnull align 8 dereferenceable(8) %3, ptr noundef %11)
  call void @llvm.lifetime.start.p0(i64 8, ptr nonnull %4) #17
  %12 = getelementptr inbounds %"class.xercesc_2_5::DOMParser", ptr %0, i64 0, i32 11
  invoke void @_ZN11xercesc_2_512DOM_Document21createEntityReferenceERKNS_9DOMStringE(ptr nonnull sret(%"class.xercesc_2_5::DOM_EntityReference") align 8 %4, ptr noundef nonnull align 8 dereferenceable(8) %12, ptr noundef nonnull align 8 dereferenceable(8) %3)
          to label %13 unwind label %100

13:                                               ; preds = %9
  %14 = load ptr, ptr %4, align 8, !tbaa !411
  %15 = load ptr, ptr %14, align 8, !tbaa !329
  %16 = getelementptr inbounds ptr, ptr %15, i64 35
  %17 = load ptr, ptr %16, align 8
  invoke void %17(ptr noundef nonnull align 8 dereferenceable(26) %14, i1 noundef zeroext false, i1 noundef zeroext true)
          to label %18 unwind label %104

18:                                               ; preds = %13
  %19 = getelementptr inbounds %"class.xercesc_2_5::DOMParser", ptr %0, i64 0, i32 9
  invoke void @_ZN11xercesc_2_58DOM_Node11appendChildERKS0_(ptr nonnull sret(%"class.xercesc_2_5::DOM_Node") align 8 %5, ptr noundef nonnull align 8 dereferenceable(8) %19, ptr noundef nonnull align 8 dereferenceable(8) %4)
          to label %20 unwind label %104

20:                                               ; preds = %18
  invoke void @_ZN11xercesc_2_58DOM_NodeD1Ev(ptr noundef nonnull align 8 dereferenceable(8) %5)
          to label %21 unwind label %104

21:                                               ; preds = %20
  %22 = getelementptr inbounds %"class.xercesc_2_5::DOMParser", ptr %0, i64 0, i32 16
  %23 = load ptr, ptr %22, align 8, !tbaa !374
  %24 = getelementptr inbounds %"class.xercesc_2_5::ValueStackOf", ptr %23, i64 0, i32 1, i32 1
  %25 = load i32, ptr %24, align 4, !tbaa !370
  %26 = add i32 %25, 1
  %27 = getelementptr inbounds %"class.xercesc_2_5::ValueStackOf", ptr %23, i64 0, i32 1, i32 2
  %28 = load i32, ptr %27, align 8, !tbaa !371
  %29 = icmp ult i32 %26, %28
  br i1 %29, label %30, label %33

30:                                               ; preds = %21
  %31 = getelementptr inbounds %"class.xercesc_2_5::ValueStackOf", ptr %23, i64 0, i32 1, i32 3
  %32 = load ptr, ptr %31, align 8, !tbaa !372
  br label %71

33:                                               ; preds = %21
  %34 = uitofp i32 %25 to double
  %35 = fmul reassoc nnan ninf nsz arcp afn double %34, 1.250000e+00
  %36 = fptoui double %35 to i32
  %37 = call i32 @llvm.umax.i32(i32 %26, i32 %36)
  %38 = getelementptr inbounds %"class.xercesc_2_5::ValueStackOf", ptr %23, i64 0, i32 1, i32 4
  %39 = load ptr, ptr %38, align 8, !tbaa !373
  %40 = zext i32 %37 to i64
  %41 = shl nuw nsw i64 %40, 3
  %42 = load ptr, ptr %39, align 8, !tbaa !329
  %43 = getelementptr inbounds ptr, ptr %42, i64 2
  %44 = load ptr, ptr %43, align 8
  %45 = invoke noundef ptr %44(ptr noundef nonnull align 8 dereferenceable(8) %39, i64 noundef %41)
          to label %46 unwind label %104

46:                                               ; preds = %33
  %47 = load i32, ptr %24, align 4, !tbaa !370
  %48 = icmp eq i32 %47, 0
  br i1 %48, label %51, label %49

49:                                               ; preds = %46
  %50 = getelementptr inbounds %"class.xercesc_2_5::ValueStackOf", ptr %23, i64 0, i32 1, i32 3
  br label %60

51:                                               ; preds = %66, %46
  %52 = load ptr, ptr %38, align 8, !tbaa !373
  %53 = getelementptr inbounds %"class.xercesc_2_5::ValueStackOf", ptr %23, i64 0, i32 1, i32 3
  %54 = load ptr, ptr %53, align 8, !tbaa !372
  %55 = load ptr, ptr %52, align 8, !tbaa !329
  %56 = getelementptr inbounds ptr, ptr %55, i64 3
  %57 = load ptr, ptr %56, align 8
  invoke void %57(ptr noundef nonnull align 8 dereferenceable(8) %52, ptr noundef %54)
          to label %58 unwind label %104

58:                                               ; preds = %51
  store ptr %45, ptr %53, align 8, !tbaa !372
  store i32 %37, ptr %27, align 8, !tbaa !371
  %59 = load i32, ptr %24, align 4, !tbaa !370
  br label %71

60:                                               ; preds = %66, %49
  %61 = phi i64 [ 0, %49 ], [ %67, %66 ]
  %62 = load ptr, ptr %50, align 8, !tbaa !372
  %63 = getelementptr inbounds %"class.xercesc_2_5::DOM_Node", ptr %62, i64 %61
  %64 = getelementptr inbounds %"class.xercesc_2_5::DOM_Node", ptr %45, i64 %61
  %65 = invoke noundef nonnull align 8 dereferenceable(8) ptr @_ZN11xercesc_2_58DOM_NodeaSERKS0_(ptr noundef nonnull align 8 dereferenceable(8) %64, ptr noundef nonnull align 8 dereferenceable(8) %63)
          to label %66 unwind label %102

66:                                               ; preds = %60
  %67 = add nuw nsw i64 %61, 1
  %68 = load i32, ptr %24, align 4, !tbaa !370
  %69 = zext i32 %68 to i64
  %70 = icmp ult i64 %67, %69
  br i1 %70, label %60, label %51

71:                                               ; preds = %58, %30
  %72 = phi i32 [ %25, %30 ], [ %59, %58 ]
  %73 = phi ptr [ %32, %30 ], [ %45, %58 ]
  %74 = zext i32 %72 to i64
  %75 = getelementptr inbounds %"class.xercesc_2_5::DOM_Node", ptr %73, i64 %74
  %76 = invoke noundef nonnull align 8 dereferenceable(8) ptr @_ZN11xercesc_2_58DOM_NodeaSERKS0_(ptr noundef nonnull align 8 dereferenceable(8) %75, ptr noundef nonnull align 8 dereferenceable(8) %19)
          to label %77 unwind label %104

77:                                               ; preds = %71
  %78 = load i32, ptr %24, align 4, !tbaa !370
  %79 = add i32 %78, 1
  store i32 %79, ptr %24, align 4, !tbaa !370
  %80 = invoke noundef nonnull align 8 dereferenceable(8) ptr @_ZN11xercesc_2_58DOM_NodeaSERKS0_(ptr noundef nonnull align 8 dereferenceable(8) %19, ptr noundef nonnull align 8 dereferenceable(8) %4)
          to label %81 unwind label %104

81:                                               ; preds = %77
  %82 = getelementptr inbounds %"class.xercesc_2_5::DOMParser", ptr %0, i64 0, i32 10
  %83 = invoke noundef nonnull align 8 dereferenceable(8) ptr @_ZN11xercesc_2_58DOM_NodeaSERKS0_(ptr noundef nonnull align 8 dereferenceable(8) %82, ptr noundef nonnull align 8 dereferenceable(8) %4)
          to label %84 unwind label %104

84:                                               ; preds = %81
  %85 = getelementptr inbounds %"class.xercesc_2_5::DOMParser", ptr %0, i64 0, i32 18
  %86 = load ptr, ptr %85, align 8, !tbaa !445
  %87 = getelementptr inbounds %"class.xercesc_2_5::DocumentTypeImpl", ptr %86, i64 0, i32 3
  %88 = load ptr, ptr %87, align 8, !tbaa !446
  %89 = load ptr, ptr %88, align 8, !tbaa !329
  %90 = getelementptr inbounds ptr, ptr %89, i64 6
  %91 = load ptr, ptr %90, align 8
  %92 = invoke noundef ptr %91(ptr noundef nonnull align 8 dereferenceable(32) %88, ptr noundef nonnull align 8 dereferenceable(8) %3)
          to label %93 unwind label %106

93:                                               ; preds = %84
  %94 = load ptr, ptr %4, align 8, !tbaa !411
  %95 = load ptr, ptr %92, align 8, !tbaa !329
  %96 = getelementptr inbounds ptr, ptr %95, i64 53
  %97 = load ptr, ptr %96, align 8
  invoke void %97(ptr noundef nonnull align 8 dereferenceable(128) %92, ptr noundef %94)
          to label %98 unwind label %106

98:                                               ; preds = %93
  invoke void @_ZN11xercesc_2_519DOM_EntityReferenceD1Ev(ptr noundef nonnull align 8 dereferenceable(8) %4)
          to label %99 unwind label %100

99:                                               ; preds = %98
  call void @llvm.lifetime.end.p0(i64 8, ptr nonnull %4) #17
  call void @_ZN11xercesc_2_59DOMStringD1Ev(ptr noundef nonnull align 8 dereferenceable(8) %3)
  call void @llvm.lifetime.end.p0(i64 8, ptr nonnull %3) #17
  br label %113

100:                                              ; preds = %98, %9
  %101 = landingpad { ptr, i32 }
          cleanup
  br label %110

102:                                              ; preds = %60
  %103 = landingpad { ptr, i32 }
          cleanup
  br label %108

104:                                              ; preds = %13, %18, %20, %77, %81, %33, %51, %71
  %105 = landingpad { ptr, i32 }
          cleanup
  br label %108

106:                                              ; preds = %93, %84
  %107 = landingpad { ptr, i32 }
          cleanup
  br label %108

108:                                              ; preds = %102, %104, %106
  %109 = phi { ptr, i32 } [ %107, %106 ], [ %103, %102 ], [ %105, %104 ]
  invoke void @_ZN11xercesc_2_519DOM_EntityReferenceD1Ev(ptr noundef nonnull align 8 dereferenceable(8) %4)
          to label %110 unwind label %114

110:                                              ; preds = %108, %100
  %111 = phi { ptr, i32 } [ %101, %100 ], [ %109, %108 ]
  call void @llvm.lifetime.end.p0(i64 8, ptr nonnull %4) #17
  invoke void @_ZN11xercesc_2_59DOMStringD1Ev(ptr noundef nonnull align 8 dereferenceable(8) %3)
          to label %112 unwind label %114

112:                                              ; preds = %110
  call void @llvm.lifetime.end.p0(i64 8, ptr nonnull %3) #17
  resume { ptr, i32 } %111

113:                                              ; preds = %99, %2
  ret void

114:                                              ; preds = %110, %108
  %115 = landingpad { ptr, i32 }
          catch ptr null
  %116 = extractvalue { ptr, i32 } %115, 0
  call void @__clang_call_terminate(ptr %116) #18
  unreachable
}

declare void @_ZN11xercesc_2_512DOM_Document21createEntityReferenceERKNS_9DOMStringE(ptr sret(%"class.xercesc_2_5::DOM_EntityReference") align 8, ptr noundef nonnull align 8 dereferenceable(8), ptr noundef nonnull align 8 dereferenceable(8)) local_unnamed_addr #1

declare void @_ZN11xercesc_2_519DOM_EntityReferenceD1Ev(ptr noundef nonnull align 8 dereferenceable(8)) unnamed_addr #1

; Function Attrs: uwtable
define dso_local void @_ZN11xercesc_2_59DOMParser7XMLDeclEPKtS2_S2_S2_(ptr noundef nonnull align 8 dereferenceable(160) %0, ptr noundef %1, ptr noundef %2, ptr noundef %3, ptr nocapture readnone %4) unnamed_addr #2 align 2 personality ptr @__gxx_personality_v0 {
  %6 = alloca %"class.xercesc_2_5::DOMString", align 8
  %7 = alloca %"class.xercesc_2_5::DOMString", align 8
  %8 = alloca %"class.xercesc_2_5::DOMString", align 8
  %9 = alloca %"class.xercesc_2_5::DOM_XMLDecl", align 8
  %10 = alloca %"class.xercesc_2_5::DOM_Node", align 8
  %11 = getelementptr inbounds %"class.xercesc_2_5::DOMParser", ptr %0, i64 0, i32 4
  %12 = load i8, ptr %11, align 8, !tbaa !332, !range !375, !noundef !376
  %13 = icmp eq i8 %12, 0
  br i1 %13, label %40, label %14

14:                                               ; preds = %5
  call void @llvm.lifetime.start.p0(i64 8, ptr nonnull %6) #17
  call void @_ZN11xercesc_2_59DOMStringC1EPKt(ptr noundef nonnull align 8 dereferenceable(8) %6, ptr noundef %1)
  call void @llvm.lifetime.start.p0(i64 8, ptr nonnull %7) #17
  invoke void @_ZN11xercesc_2_59DOMStringC1EPKt(ptr noundef nonnull align 8 dereferenceable(8) %7, ptr noundef %2)
          to label %15 unwind label %25

15:                                               ; preds = %14
  call void @llvm.lifetime.start.p0(i64 8, ptr nonnull %8) #17
  invoke void @_ZN11xercesc_2_59DOMStringC1EPKt(ptr noundef nonnull align 8 dereferenceable(8) %8, ptr noundef %3)
          to label %16 unwind label %27

16:                                               ; preds = %15
  call void @llvm.lifetime.start.p0(i64 8, ptr nonnull %9) #17
  %17 = getelementptr inbounds %"class.xercesc_2_5::DOMParser", ptr %0, i64 0, i32 11
  invoke void @_ZN11xercesc_2_512DOM_Document13createXMLDeclERKNS_9DOMStringES3_S3_(ptr nonnull sret(%"class.xercesc_2_5::DOM_XMLDecl") align 8 %9, ptr noundef nonnull align 8 dereferenceable(8) %17, ptr noundef nonnull align 8 dereferenceable(8) %6, ptr noundef nonnull align 8 dereferenceable(8) %7, ptr noundef nonnull align 8 dereferenceable(8) %8)
          to label %18 unwind label %29

18:                                               ; preds = %16
  %19 = getelementptr inbounds %"class.xercesc_2_5::DOMParser", ptr %0, i64 0, i32 9
  invoke void @_ZN11xercesc_2_58DOM_Node11appendChildERKS0_(ptr nonnull sret(%"class.xercesc_2_5::DOM_Node") align 8 %10, ptr noundef nonnull align 8 dereferenceable(8) %19, ptr noundef nonnull align 8 dereferenceable(8) %9)
          to label %20 unwind label %31

20:                                               ; preds = %18
  invoke void @_ZN11xercesc_2_58DOM_NodeD1Ev(ptr noundef nonnull align 8 dereferenceable(8) %10)
          to label %21 unwind label %31

21:                                               ; preds = %20
  invoke void @_ZN11xercesc_2_511DOM_XMLDeclD1Ev(ptr noundef nonnull align 8 dereferenceable(8) %9)
          to label %22 unwind label %29

22:                                               ; preds = %21
  call void @llvm.lifetime.end.p0(i64 8, ptr nonnull %9) #17
  invoke void @_ZN11xercesc_2_59DOMStringD1Ev(ptr noundef nonnull align 8 dereferenceable(8) %8)
          to label %23 unwind label %27

23:                                               ; preds = %22
  call void @llvm.lifetime.end.p0(i64 8, ptr nonnull %8) #17
  invoke void @_ZN11xercesc_2_59DOMStringD1Ev(ptr noundef nonnull align 8 dereferenceable(8) %7)
          to label %24 unwind label %25

24:                                               ; preds = %23
  call void @llvm.lifetime.end.p0(i64 8, ptr nonnull %7) #17
  call void @_ZN11xercesc_2_59DOMStringD1Ev(ptr noundef nonnull align 8 dereferenceable(8) %6)
  call void @llvm.lifetime.end.p0(i64 8, ptr nonnull %6) #17
  br label %40

25:                                               ; preds = %23, %14
  %26 = landingpad { ptr, i32 }
          cleanup
  br label %37

27:                                               ; preds = %22, %15
  %28 = landingpad { ptr, i32 }
          cleanup
  br label %35

29:                                               ; preds = %21, %16
  %30 = landingpad { ptr, i32 }
          cleanup
  br label %33

31:                                               ; preds = %20, %18
  %32 = landingpad { ptr, i32 }
          cleanup
  invoke void @_ZN11xercesc_2_511DOM_XMLDeclD1Ev(ptr noundef nonnull align 8 dereferenceable(8) %9)
          to label %33 unwind label %41

33:                                               ; preds = %31, %29
  %34 = phi { ptr, i32 } [ %30, %29 ], [ %32, %31 ]
  call void @llvm.lifetime.end.p0(i64 8, ptr nonnull %9) #17
  invoke void @_ZN11xercesc_2_59DOMStringD1Ev(ptr noundef nonnull align 8 dereferenceable(8) %8)
          to label %35 unwind label %41

35:                                               ; preds = %33, %27
  %36 = phi { ptr, i32 } [ %28, %27 ], [ %34, %33 ]
  call void @llvm.lifetime.end.p0(i64 8, ptr nonnull %8) #17
  invoke void @_ZN11xercesc_2_59DOMStringD1Ev(ptr noundef nonnull align 8 dereferenceable(8) %7)
          to label %37 unwind label %41

37:                                               ; preds = %35, %25
  %38 = phi { ptr, i32 } [ %26, %25 ], [ %36, %35 ]
  call void @llvm.lifetime.end.p0(i64 8, ptr nonnull %7) #17
  invoke void @_ZN11xercesc_2_59DOMStringD1Ev(ptr noundef nonnull align 8 dereferenceable(8) %6)
          to label %39 unwind label %41

39:                                               ; preds = %37
  call void @llvm.lifetime.end.p0(i64 8, ptr nonnull %6) #17
  resume { ptr, i32 } %38

40:                                               ; preds = %24, %5
  ret void

41:                                               ; preds = %37, %35, %33, %31
  %42 = landingpad { ptr, i32 }
          catch ptr null
  %43 = extractvalue { ptr, i32 } %42, 0
  call void @__clang_call_terminate(ptr %43) #18
  unreachable
}

declare void @_ZN11xercesc_2_512DOM_Document13createXMLDeclERKNS_9DOMStringES3_S3_(ptr sret(%"class.xercesc_2_5::DOM_XMLDecl") align 8, ptr noundef nonnull align 8 dereferenceable(8), ptr noundef nonnull align 8 dereferenceable(8), ptr noundef nonnull align 8 dereferenceable(8), ptr noundef nonnull align 8 dereferenceable(8)) local_unnamed_addr #1

declare void @_ZN11xercesc_2_511DOM_XMLDeclD1Ev(ptr noundef nonnull align 8 dereferenceable(8)) unnamed_addr #1

; Function Attrs: mustprogress nofree norecurse nosync nounwind willreturn memory(read, inaccessiblemem: none) uwtable
define dso_local noundef zeroext i1 @_ZNK11xercesc_2_59DOMParser15getDoValidationEv(ptr nocapture noundef nonnull readonly align 8 dereferenceable(160) %0) local_unnamed_addr #5 align 2 {
  %2 = getelementptr inbounds %"class.xercesc_2_5::DOMParser", ptr %0, i64 0, i32 17
  %3 = load ptr, ptr %2, align 8, !tbaa !354
  %4 = getelementptr inbounds %"class.xercesc_2_5::XMLScanner", ptr %3, i64 0, i32 42
  %5 = load i32, ptr %4, align 8, !tbaa !381
  %6 = icmp eq i32 %5, 1
  ret i1 %6
}

; Function Attrs: mustprogress nofree norecurse nosync nounwind willreturn memory(write, argmem: readwrite, inaccessiblemem: none) uwtable
define dso_local void @_ZN11xercesc_2_59DOMParser15setDoValidationEb(ptr nocapture noundef nonnull readonly align 8 dereferenceable(160) %0, i1 noundef zeroext %1) local_unnamed_addr #6 align 2 {
  %3 = getelementptr inbounds %"class.xercesc_2_5::DOMParser", ptr %0, i64 0, i32 17
  %4 = load ptr, ptr %3, align 8, !tbaa !354
  %5 = zext i1 %1 to i8
  %6 = getelementptr inbounds %"class.xercesc_2_5::XMLScanner", ptr %4, i64 0, i32 9
  store i8 %5, ptr %6, align 8, !tbaa !449
  %7 = zext i1 %1 to i32
  %8 = getelementptr inbounds %"class.xercesc_2_5::XMLScanner", ptr %4, i64 0, i32 42
  store i32 %7, ptr %8, align 8
  ret void
}

; Function Attrs: uwtable
define dso_local void @_ZN11xercesc_2_59DOMParser6attDefERKNS_14DTDElementDeclERKNS_9DTDAttDefEb(ptr nocapture noundef nonnull readonly align 8 dereferenceable(160) %0, ptr noundef nonnull align 8 dereferenceable(88) %1, ptr noundef nonnull align 8 dereferenceable(72) %2, i1 zeroext %3) unnamed_addr #2 align 2 personality ptr @__gxx_personality_v0 {
  %5 = alloca %"class.xercesc_2_5::DOMString", align 8
  %6 = alloca %"class.xercesc_2_5::DOMString", align 8
  %7 = getelementptr inbounds %"class.xercesc_2_5::DOMParser", ptr %0, i64 0, i32 18
  %8 = load ptr, ptr %7, align 8, !tbaa !445
  %9 = tail call noundef zeroext i1 @_ZN11xercesc_2_516DocumentTypeImpl18isIntSubsetReadingEv(ptr noundef nonnull align 8 dereferenceable(145) %8)
  br i1 %9, label %10, label %126

10:                                               ; preds = %4
  call void @llvm.lifetime.start.p0(i64 8, ptr nonnull %5) #17
  call void @_ZN11xercesc_2_59DOMStringC1Ev(ptr noundef nonnull align 8 dereferenceable(8) %5)
  %11 = load ptr, ptr %1, align 8, !tbaa !329
  %12 = getelementptr inbounds ptr, ptr %11, i64 8
  %13 = load ptr, ptr %12, align 8
  %14 = invoke noundef zeroext i1 %13(ptr noundef nonnull align 8 dereferenceable(88) %1)
          to label %15 unwind label %35

15:                                               ; preds = %10
  br i1 %14, label %16, label %122

16:                                               ; preds = %15
  invoke void @_ZN11xercesc_2_59DOMString10appendDataEt(ptr noundef nonnull align 8 dereferenceable(8) %5, i16 noundef zeroext 60)
          to label %17 unwind label %35

17:                                               ; preds = %16
  invoke void @_ZN11xercesc_2_59DOMString10appendDataEt(ptr noundef nonnull align 8 dereferenceable(8) %5, i16 noundef zeroext 33)
          to label %18 unwind label %35

18:                                               ; preds = %17
  invoke void @_ZN11xercesc_2_59DOMString10appendDataEPKt(ptr noundef nonnull align 8 dereferenceable(8) %5, ptr noundef nonnull @_ZN11xercesc_2_56XMLUni15fgAttListStringE)
          to label %19 unwind label %35

19:                                               ; preds = %18
  invoke void @_ZN11xercesc_2_59DOMString10appendDataEt(ptr noundef nonnull align 8 dereferenceable(8) %5, i16 noundef zeroext 32)
          to label %20 unwind label %35

20:                                               ; preds = %19
  %21 = getelementptr inbounds %"class.xercesc_2_5::XMLElementDecl", ptr %1, i64 0, i32 2
  %22 = load ptr, ptr %21, align 8, !tbaa !418
  %23 = invoke noundef ptr @_ZN11xercesc_2_55QName10getRawNameEv(ptr noundef nonnull align 8 dereferenceable(64) %22)
          to label %24 unwind label %35

24:                                               ; preds = %20
  invoke void @_ZN11xercesc_2_59DOMString10appendDataEPKt(ptr noundef nonnull align 8 dereferenceable(8) %5, ptr noundef %23)
          to label %25 unwind label %35

25:                                               ; preds = %24
  invoke void @_ZN11xercesc_2_59DOMString10appendDataEt(ptr noundef nonnull align 8 dereferenceable(8) %5, i16 noundef zeroext 32)
          to label %26 unwind label %35

26:                                               ; preds = %25
  %27 = load ptr, ptr %2, align 8, !tbaa !329
  %28 = getelementptr inbounds ptr, ptr %27, i64 5
  %29 = load ptr, ptr %28, align 8
  %30 = invoke noundef ptr %29(ptr noundef nonnull align 8 dereferenceable(72) %2)
          to label %31 unwind label %35

31:                                               ; preds = %26
  invoke void @_ZN11xercesc_2_59DOMString10appendDataEPKt(ptr noundef nonnull align 8 dereferenceable(8) %5, ptr noundef %30)
          to label %32 unwind label %35

32:                                               ; preds = %31
  %33 = getelementptr inbounds %"class.xercesc_2_5::XMLAttDef", ptr %2, i64 0, i32 2
  %34 = load i32, ptr %33, align 4, !tbaa !450
  switch i32 %34, label %98 [
    i32 0, label %39
    i32 1, label %40
    i32 2, label %41
    i32 3, label %42
    i32 4, label %43
    i32 5, label %44
    i32 6, label %45
    i32 7, label %46
    i32 8, label %47
    i32 9, label %50
  ]

35:                                               ; preds = %20, %31, %26, %25, %24, %19, %18, %17, %16, %10
  %36 = landingpad { ptr, i32 }
          cleanup
  br label %123

37:                                               ; preds = %48, %50, %47, %46, %45, %44, %43, %42, %41, %40, %39
  %38 = landingpad { ptr, i32 }
          cleanup
  br label %123

39:                                               ; preds = %32
  invoke void @_ZN11xercesc_2_59DOMString10appendDataEt(ptr noundef nonnull align 8 dereferenceable(8) %5, i16 noundef zeroext 32)
          to label %48 unwind label %37

40:                                               ; preds = %32
  invoke void @_ZN11xercesc_2_59DOMString10appendDataEt(ptr noundef nonnull align 8 dereferenceable(8) %5, i16 noundef zeroext 32)
          to label %48 unwind label %37

41:                                               ; preds = %32
  invoke void @_ZN11xercesc_2_59DOMString10appendDataEt(ptr noundef nonnull align 8 dereferenceable(8) %5, i16 noundef zeroext 32)
          to label %48 unwind label %37

42:                                               ; preds = %32
  invoke void @_ZN11xercesc_2_59DOMString10appendDataEt(ptr noundef nonnull align 8 dereferenceable(8) %5, i16 noundef zeroext 32)
          to label %48 unwind label %37

43:                                               ; preds = %32
  invoke void @_ZN11xercesc_2_59DOMString10appendDataEt(ptr noundef nonnull align 8 dereferenceable(8) %5, i16 noundef zeroext 32)
          to label %48 unwind label %37

44:                                               ; preds = %32
  invoke void @_ZN11xercesc_2_59DOMString10appendDataEt(ptr noundef nonnull align 8 dereferenceable(8) %5, i16 noundef zeroext 32)
          to label %48 unwind label %37

45:                                               ; preds = %32
  invoke void @_ZN11xercesc_2_59DOMString10appendDataEt(ptr noundef nonnull align 8 dereferenceable(8) %5, i16 noundef zeroext 32)
          to label %48 unwind label %37

46:                                               ; preds = %32
  invoke void @_ZN11xercesc_2_59DOMString10appendDataEt(ptr noundef nonnull align 8 dereferenceable(8) %5, i16 noundef zeroext 32)
          to label %48 unwind label %37

47:                                               ; preds = %32
  invoke void @_ZN11xercesc_2_59DOMString10appendDataEt(ptr noundef nonnull align 8 dereferenceable(8) %5, i16 noundef zeroext 32)
          to label %48 unwind label %37

48:                                               ; preds = %47, %46, %45, %44, %43, %42, %41, %40, %39
  %49 = phi ptr [ @_ZN11xercesc_2_56XMLUni13fgCDATAStringE, %39 ], [ @_ZN11xercesc_2_56XMLUni10fgIDStringE, %40 ], [ @_ZN11xercesc_2_56XMLUni13fgIDRefStringE, %41 ], [ @_ZN11xercesc_2_56XMLUni14fgIDRefsStringE, %42 ], [ @_ZN11xercesc_2_56XMLUni14fgEntityStringE, %43 ], [ @_ZN11xercesc_2_56XMLUni16fgEntitiesStringE, %44 ], [ @_ZN11xercesc_2_56XMLUni15fgNmTokenStringE, %45 ], [ @_ZN11xercesc_2_56XMLUni16fgNmTokensStringE, %46 ], [ @_ZN11xercesc_2_56XMLUni16fgNotationStringE, %47 ]
  invoke void @_ZN11xercesc_2_59DOMString10appendDataEPKt(ptr noundef nonnull align 8 dereferenceable(8) %5, ptr noundef nonnull %49)
          to label %98 unwind label %37

50:                                               ; preds = %32
  invoke void @_ZN11xercesc_2_59DOMString10appendDataEt(ptr noundef nonnull align 8 dereferenceable(8) %5, i16 noundef zeroext 32)
          to label %51 unwind label %37

51:                                               ; preds = %50
  %52 = getelementptr inbounds %"class.xercesc_2_5::XMLAttDef", ptr %2, i64 0, i32 8
  %53 = load ptr, ptr %52, align 8, !tbaa !454
  %54 = icmp eq ptr %53, null
  br i1 %54, label %98, label %55

55:                                               ; preds = %51
  %56 = load i16, ptr %53, align 2, !tbaa !404
  %57 = icmp eq i16 %56, 0
  br i1 %57, label %98, label %58

58:                                               ; preds = %55, %58
  %59 = phi ptr [ %60, %58 ], [ %53, %55 ]
  %60 = getelementptr inbounds i16, ptr %59, i64 1
  %61 = load i16, ptr %60, align 2, !tbaa !404
  %62 = icmp eq i16 %61, 0
  br i1 %62, label %63, label %58

63:                                               ; preds = %58
  %64 = ptrtoint ptr %60 to i64
  %65 = ptrtoint ptr %53 to i64
  %66 = sub i64 %64, %65
  %67 = lshr exact i64 %66, 1
  %68 = trunc i64 %67 to i32
  %69 = icmp sgt i32 %68, 0
  br i1 %69, label %70, label %98

70:                                               ; preds = %63
  call void @llvm.lifetime.start.p0(i64 8, ptr nonnull %6) #17
  invoke void @_ZN11xercesc_2_59DOMStringC1Ev(ptr noundef nonnull align 8 dereferenceable(8) %6)
          to label %71 unwind label %76

71:                                               ; preds = %70
  invoke void @_ZN11xercesc_2_59DOMString10appendDataEt(ptr noundef nonnull align 8 dereferenceable(8) %6, i16 noundef zeroext 40)
          to label %72 unwind label %78

72:                                               ; preds = %71
  %73 = shl i64 %66, 31
  %74 = ashr i64 %73, 32
  br label %80

75:                                               ; preds = %88
  invoke void @_ZN11xercesc_2_59DOMString10appendDataEt(ptr noundef nonnull align 8 dereferenceable(8) %6, i16 noundef zeroext 41)
          to label %91 unwind label %78

76:                                               ; preds = %92, %70
  %77 = landingpad { ptr, i32 }
          cleanup
  br label %96

78:                                               ; preds = %91, %75, %71
  %79 = landingpad { ptr, i32 }
          cleanup
  br label %94

80:                                               ; preds = %72, %88
  %81 = phi i64 [ 0, %72 ], [ %89, %88 ]
  %82 = getelementptr inbounds i16, ptr %53, i64 %81
  %83 = load i16, ptr %82, align 2, !tbaa !404
  %84 = icmp eq i16 %83, 32
  %85 = select i1 %84, i16 124, i16 %83
  invoke void @_ZN11xercesc_2_59DOMString10appendDataEt(ptr noundef nonnull align 8 dereferenceable(8) %6, i16 noundef zeroext %85)
          to label %88 unwind label %86

86:                                               ; preds = %80
  %87 = landingpad { ptr, i32 }
          cleanup
  br label %94

88:                                               ; preds = %80
  %89 = add nuw nsw i64 %81, 1
  %90 = icmp slt i64 %89, %74
  br i1 %90, label %80, label %75

91:                                               ; preds = %75
  invoke void @_ZN11xercesc_2_59DOMString10appendDataERKS0_(ptr noundef nonnull align 8 dereferenceable(8) %5, ptr noundef nonnull align 8 dereferenceable(8) %6)
          to label %92 unwind label %78

92:                                               ; preds = %91
  invoke void @_ZN11xercesc_2_59DOMStringD1Ev(ptr noundef nonnull align 8 dereferenceable(8) %6)
          to label %93 unwind label %76

93:                                               ; preds = %92
  call void @llvm.lifetime.end.p0(i64 8, ptr nonnull %6) #17
  br label %98

94:                                               ; preds = %86, %78
  %95 = phi { ptr, i32 } [ %87, %86 ], [ %79, %78 ]
  invoke void @_ZN11xercesc_2_59DOMStringD1Ev(ptr noundef nonnull align 8 dereferenceable(8) %6)
          to label %96 unwind label %127

96:                                               ; preds = %94, %76
  %97 = phi { ptr, i32 } [ %95, %94 ], [ %77, %76 ]
  call void @llvm.lifetime.end.p0(i64 8, ptr nonnull %6) #17
  br label %123

98:                                               ; preds = %48, %51, %55, %63, %93, %32
  %99 = getelementptr inbounds %"class.xercesc_2_5::XMLAttDef", ptr %2, i64 0, i32 1
  %100 = load i32, ptr %99, align 8, !tbaa !455
  switch i32 %100, label %108 [
    i32 2, label %103
    i32 4, label %104
    i32 1, label %105
  ]

101:                                              ; preds = %106, %105, %104, %103
  %102 = landingpad { ptr, i32 }
          cleanup
  br label %123

103:                                              ; preds = %98
  invoke void @_ZN11xercesc_2_59DOMString10appendDataEt(ptr noundef nonnull align 8 dereferenceable(8) %5, i16 noundef zeroext 32)
          to label %106 unwind label %101

104:                                              ; preds = %98
  invoke void @_ZN11xercesc_2_59DOMString10appendDataEt(ptr noundef nonnull align 8 dereferenceable(8) %5, i16 noundef zeroext 32)
          to label %106 unwind label %101

105:                                              ; preds = %98
  invoke void @_ZN11xercesc_2_59DOMString10appendDataEt(ptr noundef nonnull align 8 dereferenceable(8) %5, i16 noundef zeroext 32)
          to label %106 unwind label %101

106:                                              ; preds = %105, %104, %103
  %107 = phi ptr [ @_ZN11xercesc_2_56XMLUni16fgRequiredStringE, %103 ], [ @_ZN11xercesc_2_56XMLUni15fgImpliedStringE, %104 ], [ @_ZN11xercesc_2_56XMLUni13fgFixedStringE, %105 ]
  invoke void @_ZN11xercesc_2_59DOMString10appendDataEPKt(ptr noundef nonnull align 8 dereferenceable(8) %5, ptr noundef nonnull %107)
          to label %108 unwind label %101

108:                                              ; preds = %106, %98
  %109 = getelementptr inbounds %"class.xercesc_2_5::XMLAttDef", ptr %2, i64 0, i32 7
  %110 = load ptr, ptr %109, align 8, !tbaa !456
  %111 = icmp eq ptr %110, null
  br i1 %111, label %118, label %112

112:                                              ; preds = %108
  invoke void @_ZN11xercesc_2_59DOMString10appendDataEt(ptr noundef nonnull align 8 dereferenceable(8) %5, i16 noundef zeroext 32)
          to label %113 unwind label %116

113:                                              ; preds = %112
  invoke void @_ZN11xercesc_2_59DOMString10appendDataEt(ptr noundef nonnull align 8 dereferenceable(8) %5, i16 noundef zeroext 34)
          to label %114 unwind label %116

114:                                              ; preds = %113
  invoke void @_ZN11xercesc_2_59DOMString10appendDataEPKt(ptr noundef nonnull align 8 dereferenceable(8) %5, ptr noundef nonnull %110)
          to label %115 unwind label %116

115:                                              ; preds = %114
  invoke void @_ZN11xercesc_2_59DOMString10appendDataEt(ptr noundef nonnull align 8 dereferenceable(8) %5, i16 noundef zeroext 34)
          to label %118 unwind label %116

116:                                              ; preds = %119, %118, %115, %114, %113, %112
  %117 = landingpad { ptr, i32 }
          cleanup
  br label %123

118:                                              ; preds = %115, %108
  invoke void @_ZN11xercesc_2_59DOMString10appendDataEt(ptr noundef nonnull align 8 dereferenceable(8) %5, i16 noundef zeroext 62)
          to label %119 unwind label %116

119:                                              ; preds = %118
  %120 = load ptr, ptr %7, align 8, !tbaa !445
  %121 = getelementptr inbounds %"class.xercesc_2_5::DocumentTypeImpl", ptr %120, i64 0, i32 8
  invoke void @_ZN11xercesc_2_59DOMString10appendDataERKS0_(ptr noundef nonnull align 8 dereferenceable(8) %121, ptr noundef nonnull align 8 dereferenceable(8) %5)
          to label %122 unwind label %116

122:                                              ; preds = %119, %15
  call void @_ZN11xercesc_2_59DOMStringD1Ev(ptr noundef nonnull align 8 dereferenceable(8) %5)
  call void @llvm.lifetime.end.p0(i64 8, ptr nonnull %5) #17
  br label %126

123:                                              ; preds = %37, %96, %116, %101, %35
  %124 = phi { ptr, i32 } [ %36, %35 ], [ %97, %96 ], [ %38, %37 ], [ %117, %116 ], [ %102, %101 ]
  invoke void @_ZN11xercesc_2_59DOMStringD1Ev(ptr noundef nonnull align 8 dereferenceable(8) %5)
          to label %125 unwind label %127

125:                                              ; preds = %123
  call void @llvm.lifetime.end.p0(i64 8, ptr nonnull %5) #17
  resume { ptr, i32 } %124

126:                                              ; preds = %122, %4
  ret void

127:                                              ; preds = %123, %94
  %128 = landingpad { ptr, i32 }
          catch ptr null
  %129 = extractvalue { ptr, i32 } %128, 0
  call void @__clang_call_terminate(ptr %129) #18
  unreachable
}

declare noundef zeroext i1 @_ZN11xercesc_2_516DocumentTypeImpl18isIntSubsetReadingEv(ptr noundef nonnull align 8 dereferenceable(145)) local_unnamed_addr #1

declare void @_ZN11xercesc_2_59DOMStringC1Ev(ptr noundef nonnull align 8 dereferenceable(8)) unnamed_addr #1

declare void @_ZN11xercesc_2_59DOMString10appendDataERKS0_(ptr noundef nonnull align 8 dereferenceable(8), ptr noundef nonnull align 8 dereferenceable(8)) local_unnamed_addr #1

; Function Attrs: uwtable
define dso_local void @_ZThn24_N11xercesc_2_59DOMParser6attDefERKNS_14DTDElementDeclERKNS_9DTDAttDefEb(ptr nocapture noundef readonly %0, ptr noundef nonnull align 8 dereferenceable(88) %1, ptr noundef nonnull align 8 dereferenceable(72) %2, i1 zeroext %3) unnamed_addr #2 align 2 {
  %5 = getelementptr inbounds i8, ptr %0, i64 -24
  tail call void @_ZN11xercesc_2_59DOMParser6attDefERKNS_14DTDElementDeclERKNS_9DTDAttDefEb(ptr noundef nonnull align 8 dereferenceable(160) %5, ptr noundef nonnull align 8 dereferenceable(88) %1, ptr noundef nonnull align 8 dereferenceable(72) %2, i1 zeroext poison)
  ret void
}

; Function Attrs: uwtable
define dso_local void @_ZN11xercesc_2_59DOMParser14doctypeCommentEPKt(ptr nocapture noundef nonnull readonly align 8 dereferenceable(160) %0, ptr noundef %1) unnamed_addr #2 align 2 personality ptr @__gxx_personality_v0 {
  %3 = alloca %"class.xercesc_2_5::DOMString", align 8
  %4 = getelementptr inbounds %"class.xercesc_2_5::DOMParser", ptr %0, i64 0, i32 18
  %5 = load ptr, ptr %4, align 8, !tbaa !445
  %6 = tail call noundef zeroext i1 @_ZN11xercesc_2_516DocumentTypeImpl18isIntSubsetReadingEv(ptr noundef nonnull align 8 dereferenceable(145) %5)
  %7 = icmp ne ptr %1, null
  %8 = and i1 %7, %6
  br i1 %8, label %9, label %23

9:                                                ; preds = %2
  call void @llvm.lifetime.start.p0(i64 8, ptr nonnull %3) #17
  call void @_ZN11xercesc_2_59DOMStringC1Ev(ptr noundef nonnull align 8 dereferenceable(8) %3)
  invoke void @_ZN11xercesc_2_59DOMString10appendDataEPKt(ptr noundef nonnull align 8 dereferenceable(8) %3, ptr noundef nonnull @_ZN11xercesc_2_56XMLUni15fgCommentStringE)
          to label %10 unwind label %20

10:                                               ; preds = %9
  invoke void @_ZN11xercesc_2_59DOMString10appendDataEt(ptr noundef nonnull align 8 dereferenceable(8) %3, i16 noundef zeroext 32)
          to label %11 unwind label %20

11:                                               ; preds = %10
  invoke void @_ZN11xercesc_2_59DOMString10appendDataEPKt(ptr noundef nonnull align 8 dereferenceable(8) %3, ptr noundef nonnull %1)
          to label %12 unwind label %20

12:                                               ; preds = %11
  invoke void @_ZN11xercesc_2_59DOMString10appendDataEt(ptr noundef nonnull align 8 dereferenceable(8) %3, i16 noundef zeroext 32)
          to label %13 unwind label %20

13:                                               ; preds = %12
  invoke void @_ZN11xercesc_2_59DOMString10appendDataEt(ptr noundef nonnull align 8 dereferenceable(8) %3, i16 noundef zeroext 45)
          to label %14 unwind label %20

14:                                               ; preds = %13
  invoke void @_ZN11xercesc_2_59DOMString10appendDataEt(ptr noundef nonnull align 8 dereferenceable(8) %3, i16 noundef zeroext 45)
          to label %15 unwind label %20

15:                                               ; preds = %14
  invoke void @_ZN11xercesc_2_59DOMString10appendDataEt(ptr noundef nonnull align 8 dereferenceable(8) %3, i16 noundef zeroext 62)
          to label %16 unwind label %20

16:                                               ; preds = %15
  %17 = load ptr, ptr %4, align 8, !tbaa !445
  %18 = getelementptr inbounds %"class.xercesc_2_5::DocumentTypeImpl", ptr %17, i64 0, i32 8
  invoke void @_ZN11xercesc_2_59DOMString10appendDataERKS0_(ptr noundef nonnull align 8 dereferenceable(8) %18, ptr noundef nonnull align 8 dereferenceable(8) %3)
          to label %19 unwind label %20

19:                                               ; preds = %16
  call void @_ZN11xercesc_2_59DOMStringD1Ev(ptr noundef nonnull align 8 dereferenceable(8) %3)
  call void @llvm.lifetime.end.p0(i64 8, ptr nonnull %3) #17
  br label %23

20:                                               ; preds = %16, %15, %14, %13, %12, %11, %10, %9
  %21 = landingpad { ptr, i32 }
          cleanup
  invoke void @_ZN11xercesc_2_59DOMStringD1Ev(ptr noundef nonnull align 8 dereferenceable(8) %3)
          to label %22 unwind label %24

22:                                               ; preds = %20
  call void @llvm.lifetime.end.p0(i64 8, ptr nonnull %3) #17
  resume { ptr, i32 } %21

23:                                               ; preds = %19, %2
  ret void

24:                                               ; preds = %20
  %25 = landingpad { ptr, i32 }
          catch ptr null
  %26 = extractvalue { ptr, i32 } %25, 0
  call void @__clang_call_terminate(ptr %26) #18
  unreachable
}

; Function Attrs: uwtable
define dso_local void @_ZThn24_N11xercesc_2_59DOMParser14doctypeCommentEPKt(ptr nocapture noundef readonly %0, ptr noundef %1) unnamed_addr #2 align 2 {
  %3 = getelementptr inbounds i8, ptr %0, i64 -24
  tail call void @_ZN11xercesc_2_59DOMParser14doctypeCommentEPKt(ptr noundef nonnull align 8 dereferenceable(160) %3, ptr noundef %1)
  ret void
}

; Function Attrs: uwtable
define dso_local void @_ZN11xercesc_2_59DOMParser11doctypeDeclERKNS_14DTDElementDeclEPKtS5_bb(ptr noundef nonnull align 8 dereferenceable(160) %0, ptr nocapture noundef nonnull readonly align 8 dereferenceable(88) %1, ptr noundef %2, ptr noundef %3, i1 zeroext %4, i1 zeroext %5) unnamed_addr #2 align 2 personality ptr @__gxx_personality_v0 {
  %7 = alloca %"class.xercesc_2_5::DOM_DocumentType", align 8
  %8 = alloca %"class.xercesc_2_5::DOM_DocumentType", align 8
  %9 = alloca %"class.xercesc_2_5::DOMString", align 8
  %10 = alloca %"class.xercesc_2_5::DOMString", align 8
  %11 = alloca %"class.xercesc_2_5::DOMString", align 8
  call void @llvm.lifetime.start.p0(i64 8, ptr nonnull %7) #17
  call void @_ZN11xercesc_2_516DOM_DocumentTypeC1Ev(ptr noundef nonnull align 8 dereferenceable(8) %7)
  call void @llvm.lifetime.start.p0(i64 8, ptr nonnull %8) #17
  %12 = getelementptr inbounds %"class.xercesc_2_5::DOMParser", ptr %0, i64 0, i32 11
  %13 = invoke noundef nonnull align 1 dereferenceable(1) ptr @_ZNK11xercesc_2_512DOM_Document17getImplementationEv(ptr noundef nonnull align 8 dereferenceable(8) %12)
          to label %14 unwind label %33

14:                                               ; preds = %6
  call void @llvm.lifetime.start.p0(i64 8, ptr nonnull %9) #17
  %15 = getelementptr inbounds %"class.xercesc_2_5::XMLElementDecl", ptr %1, i64 0, i32 2
  %16 = load ptr, ptr %15, align 8, !tbaa !418
  %17 = invoke noundef ptr @_ZN11xercesc_2_55QName10getRawNameEv(ptr noundef nonnull align 8 dereferenceable(64) %16)
          to label %18 unwind label %35

18:                                               ; preds = %14
  invoke void @_ZN11xercesc_2_59DOMStringC1EPKt(ptr noundef nonnull align 8 dereferenceable(8) %9, ptr noundef %17)
          to label %19 unwind label %35

19:                                               ; preds = %18
  call void @llvm.lifetime.start.p0(i64 8, ptr nonnull %10) #17
  invoke void @_ZN11xercesc_2_59DOMStringC1EPKt(ptr noundef nonnull align 8 dereferenceable(8) %10, ptr noundef %2)
          to label %20 unwind label %37

20:                                               ; preds = %19
  call void @llvm.lifetime.start.p0(i64 8, ptr nonnull %11) #17
  invoke void @_ZN11xercesc_2_59DOMStringC1EPKt(ptr noundef nonnull align 8 dereferenceable(8) %11, ptr noundef %3)
          to label %21 unwind label %39

21:                                               ; preds = %20
  invoke void @_ZN11xercesc_2_521DOM_DOMImplementation18createDocumentTypeERKNS_9DOMStringES3_S3_(ptr nonnull sret(%"class.xercesc_2_5::DOM_DocumentType") align 8 %8, ptr noundef nonnull align 1 dereferenceable(1) %13, ptr noundef nonnull align 8 dereferenceable(8) %9, ptr noundef nonnull align 8 dereferenceable(8) %10, ptr noundef nonnull align 8 dereferenceable(8) %11)
          to label %22 unwind label %41

22:                                               ; preds = %21
  %23 = invoke noundef nonnull align 8 dereferenceable(8) ptr @_ZN11xercesc_2_516DOM_DocumentTypeaSERKS0_(ptr noundef nonnull align 8 dereferenceable(8) %7, ptr noundef nonnull align 8 dereferenceable(8) %8)
          to label %24 unwind label %43

24:                                               ; preds = %22
  invoke void @_ZN11xercesc_2_516DOM_DocumentTypeD1Ev(ptr noundef nonnull align 8 dereferenceable(8) %8)
          to label %25 unwind label %41

25:                                               ; preds = %24
  invoke void @_ZN11xercesc_2_59DOMStringD1Ev(ptr noundef nonnull align 8 dereferenceable(8) %11)
          to label %26 unwind label %39

26:                                               ; preds = %25
  call void @llvm.lifetime.end.p0(i64 8, ptr nonnull %11) #17
  invoke void @_ZN11xercesc_2_59DOMStringD1Ev(ptr noundef nonnull align 8 dereferenceable(8) %10)
          to label %27 unwind label %37

27:                                               ; preds = %26
  call void @llvm.lifetime.end.p0(i64 8, ptr nonnull %10) #17
  invoke void @_ZN11xercesc_2_59DOMStringD1Ev(ptr noundef nonnull align 8 dereferenceable(8) %9)
          to label %28 unwind label %35

28:                                               ; preds = %27
  call void @llvm.lifetime.end.p0(i64 8, ptr nonnull %9) #17
  call void @llvm.lifetime.end.p0(i64 8, ptr nonnull %8) #17
  %29 = load ptr, ptr %7, align 8, !tbaa !411
  %30 = getelementptr inbounds %"class.xercesc_2_5::DOMParser", ptr %0, i64 0, i32 18
  store ptr %29, ptr %30, align 8, !tbaa !445
  %31 = load ptr, ptr %12, align 8, !tbaa !411
  invoke void @_ZN11xercesc_2_512DocumentImpl15setDocumentTypeEPNS_16DocumentTypeImplE(ptr noundef nonnull align 8 dereferenceable(168) %31, ptr noundef %29)
