; ModuleID = 'DOMRangeImpl.cpp'
source_filename = "DOMRangeImpl.cpp"
target datalayout = "e-m:e-p270:32:32-p271:32:32-p272:64:64-i64:64-f80:128-n8:16:32:64-S128"
target triple = "x86_64-unknown-linux-gnu"

%"class.xercesc_2_5::DOMRangeImpl" = type { %"class.xercesc_2_5::DOMRange", ptr, i64, ptr, i64, i8, ptr, i8, ptr, ptr }
%"class.xercesc_2_5::DOMRange" = type { ptr }
%"class.xercesc_2_5::RefVectorOf" = type { %"class.xercesc_2_5::BaseRefVectorOf" }
%"class.xercesc_2_5::BaseRefVectorOf" = type { ptr, i8, i32, i32, ptr, ptr }
%"class.xercesc_2_5::DOMDocumentImpl" = type <{ %"class.xercesc_2_5::DOMDocument", %"class.xercesc_2_5::DOMNodeImpl", %"class.xercesc_2_5::DOMParentNode", ptr, ptr, ptr, i8, [7 x i8], ptr, ptr, ptr, ptr, ptr, ptr, i64, ptr, ptr, ptr, ptr, ptr, ptr, ptr, ptr, ptr, ptr, i32, i8, [3 x i8] }>
%"class.xercesc_2_5::DOMDocument" = type { %"class.xercesc_2_5::DOMDocumentRange", %"class.xercesc_2_5::DOMXPathEvaluator", %"class.xercesc_2_5::DOMDocumentTraversal", %"class.xercesc_2_5::DOMNode" }
%"class.xercesc_2_5::DOMDocumentRange" = type { ptr }
%"class.xercesc_2_5::DOMXPathEvaluator" = type { ptr }
%"class.xercesc_2_5::DOMDocumentTraversal" = type { ptr }
%"class.xercesc_2_5::DOMNode" = type { ptr }
%"class.xercesc_2_5::DOMNodeImpl" = type <{ ptr, i16, [6 x i8] }>
%"class.xercesc_2_5::DOMParentNode" = type { ptr, ptr, %"class.xercesc_2_5::DOMNodeListImpl" }
%"class.xercesc_2_5::DOMNodeListImpl" = type { %"class.xercesc_2_5::DOMNodeList", ptr }
%"class.xercesc_2_5::DOMNodeList" = type { ptr }
%"class.xercesc_2_5::DOMElementImpl" = type { %"class.xercesc_2_5::DOMElement", %"class.xercesc_2_5::DOMNodeImpl", %"class.xercesc_2_5::DOMParentNode", %"class.xercesc_2_5::DOMChildNode", ptr, ptr, ptr, ptr }
%"class.xercesc_2_5::DOMElement" = type { %"class.xercesc_2_5::DOMNode" }
%"class.xercesc_2_5::DOMChildNode" = type { ptr, ptr }
%"class.xercesc_2_5::XMLBuffer" = type { i8, i32, i32, ptr, ptr }
%"class.xercesc_2_5::ArrayJanitor" = type { ptr, ptr }
%"class.xercesc_2_5::XMLException" = type { ptr, i32, ptr, i32, ptr, ptr }

$__clang_call_terminate = comdat any

$_ZN11xercesc_2_511RefVectorOfINS_7DOMNodeEED2Ev = comdat any

$_ZN11xercesc_2_512ArrayJanitorItED2Ev = comdat any

$_ZN11xercesc_2_511RefVectorOfINS_7DOMNodeEED0Ev = comdat any

$_ZN11xercesc_2_515BaseRefVectorOfINS_7DOMNodeEE12setElementAtEPS1_j = comdat any

$_ZN11xercesc_2_515BaseRefVectorOfINS_7DOMNodeEE17removeAllElementsEv = comdat any

$_ZN11xercesc_2_515BaseRefVectorOfINS_7DOMNodeEE15removeElementAtEj = comdat any

$_ZN11xercesc_2_515BaseRefVectorOfINS_7DOMNodeEE17removeLastElementEv = comdat any

$_ZN11xercesc_2_515BaseRefVectorOfINS_7DOMNodeEE7cleanupEv = comdat any

$_ZN11xercesc_2_530ArrayIndexOutOfBoundsExceptionC2EPKcjNS_10XMLExcepts5CodesEPNS_13MemoryManagerE = comdat any

$_ZN11xercesc_2_530ArrayIndexOutOfBoundsExceptionD0Ev = comdat any

$_ZNK11xercesc_2_530ArrayIndexOutOfBoundsException7getTypeEv = comdat any

$_ZNK11xercesc_2_530ArrayIndexOutOfBoundsException9duplicateEv = comdat any

$_ZTSN11xercesc_2_58DOMRangeE = comdat any

$_ZTIN11xercesc_2_58DOMRangeE = comdat any

$_ZTVN11xercesc_2_511RefVectorOfINS_7DOMNodeEEE = comdat any

$_ZTSN11xercesc_2_511RefVectorOfINS_7DOMNodeEEE = comdat any

$_ZTSN11xercesc_2_515BaseRefVectorOfINS_7DOMNodeEEE = comdat any

$_ZTSN11xercesc_2_57XMemoryE = comdat any

$_ZTIN11xercesc_2_57XMemoryE = comdat any

$_ZTIN11xercesc_2_515BaseRefVectorOfINS_7DOMNodeEEE = comdat any

$_ZTIN11xercesc_2_511RefVectorOfINS_7DOMNodeEEE = comdat any

$_ZTSN11xercesc_2_530ArrayIndexOutOfBoundsExceptionE = comdat any

$_ZTIN11xercesc_2_530ArrayIndexOutOfBoundsExceptionE = comdat any

$_ZTVN11xercesc_2_530ArrayIndexOutOfBoundsExceptionE = comdat any

@_ZTVN11xercesc_2_512DOMRangeImplE = dso_local unnamed_addr constant { [29 x ptr] } { [29 x ptr] [ptr null, ptr @_ZTIN11xercesc_2_512DOMRangeImplE, ptr @_ZN11xercesc_2_512DOMRangeImplD2Ev, ptr @_ZN11xercesc_2_512DOMRangeImplD0Ev, ptr @_ZNK11xercesc_2_512DOMRangeImpl17getStartContainerEv, ptr @_ZNK11xercesc_2_512DOMRangeImpl14getStartOffsetEv, ptr @_ZNK11xercesc_2_512DOMRangeImpl15getEndContainerEv, ptr @_ZNK11xercesc_2_512DOMRangeImpl12getEndOffsetEv, ptr @_ZNK11xercesc_2_512DOMRangeImpl12getCollapsedEv, ptr @_ZNK11xercesc_2_512DOMRangeImpl26getCommonAncestorContainerEv, ptr @_ZN11xercesc_2_512DOMRangeImpl8setStartEPKNS_7DOMNodeEm, ptr @_ZN11xercesc_2_512DOMRangeImpl6setEndEPKNS_7DOMNodeEm, ptr @_ZN11xercesc_2_512DOMRangeImpl14setStartBeforeEPKNS_7DOMNodeE, ptr @_ZN11xercesc_2_512DOMRangeImpl13setStartAfterEPKNS_7DOMNodeE, ptr @_ZN11xercesc_2_512DOMRangeImpl12setEndBeforeEPKNS_7DOMNodeE, ptr @_ZN11xercesc_2_512DOMRangeImpl11setEndAfterEPKNS_7DOMNodeE, ptr @_ZN11xercesc_2_512DOMRangeImpl8collapseEb, ptr @_ZN11xercesc_2_512DOMRangeImpl10selectNodeEPKNS_7DOMNodeE, ptr @_ZN11xercesc_2_512DOMRangeImpl18selectNodeContentsEPKNS_7DOMNodeE, ptr @_ZNK11xercesc_2_512DOMRangeImpl21compareBoundaryPointsENS_8DOMRange10CompareHowEPKS1_, ptr @_ZN11xercesc_2_512DOMRangeImpl14deleteContentsEv, ptr @_ZN11xercesc_2_512DOMRangeImpl15extractContentsEv, ptr @_ZNK11xercesc_2_512DOMRangeImpl13cloneContentsEv, ptr @_ZN11xercesc_2_512DOMRangeImpl10insertNodeEPNS_7DOMNodeE, ptr @_ZN11xercesc_2_512DOMRangeImpl16surroundContentsEPNS_7DOMNodeE, ptr @_ZNK11xercesc_2_512DOMRangeImpl10cloneRangeEv, ptr @_ZNK11xercesc_2_512DOMRangeImpl8toStringEv, ptr @_ZN11xercesc_2_512DOMRangeImpl6detachEv, ptr @_ZN11xercesc_2_512DOMRangeImpl7releaseEv] }, align 8, !type !0, !type !1, !type !2, !type !3, !type !4, !type !5, !type !6, !type !7, !type !8, !type !9, !type !10, !type !11, !type !12, !type !13, !type !14, !type !15, !type !16, !type !17, !type !18, !type !19, !type !20, !type !21, !type !22, !type !23, !type !24, !type !25, !type !26, !type !27, !type !28, !type !29, !type !30, !type !31, !type !32, !type !33, !type !34, !type !35, !type !36, !type !37, !type !38, !type !39, !type !40, !type !41, !type !42, !type !43, !type !44, !type !45, !type !46, !type !47, !type !48, !type !49, !type !50, !type !51
@_ZTIN11xercesc_2_512DOMExceptionE = external constant ptr
@_ZTIN11xercesc_2_517DOMRangeExceptionE = external constant ptr
@_ZN11xercesc_2_56XMLUni15fgZeroLenStringE = external constant [0 x i16], align 2
@_ZTVN10__cxxabiv117__class_type_infoE = external global ptr
@_ZTVN10__cxxabiv120__si_class_type_infoE = external global ptr
@_ZTSN11xercesc_2_512DOMRangeImplE = dso_local constant [30 x i8] c"N11xercesc_2_512DOMRangeImplE\00", align 1
@_ZTSN11xercesc_2_58DOMRangeE = linkonce_odr dso_local constant [25 x i8] c"N11xercesc_2_58DOMRangeE\00", comdat, align 1
@_ZTIN11xercesc_2_58DOMRangeE = linkonce_odr dso_local constant { ptr, ptr } { ptr getelementptr inbounds (ptr, ptr @_ZTVN10__cxxabiv117__class_type_infoE, i64 2), ptr @_ZTSN11xercesc_2_58DOMRangeE }, comdat, align 8
@_ZTIN11xercesc_2_512DOMRangeImplE = dso_local constant { ptr, ptr, ptr } { ptr getelementptr inbounds (ptr, ptr @_ZTVN10__cxxabiv120__si_class_type_infoE, i64 2), ptr @_ZTSN11xercesc_2_512DOMRangeImplE, ptr @_ZTIN11xercesc_2_58DOMRangeE }, align 8
@_ZN11xercesc_2_511DOMNodeImpl8READONLYE = external local_unnamed_addr constant i16, align 2
@_ZTVN11xercesc_2_511RefVectorOfINS_7DOMNodeEEE = linkonce_odr dso_local unnamed_addr constant { [9 x ptr] } { [9 x ptr] [ptr null, ptr @_ZTIN11xercesc_2_511RefVectorOfINS_7DOMNodeEEE, ptr @_ZN11xercesc_2_511RefVectorOfINS_7DOMNodeEED2Ev, ptr @_ZN11xercesc_2_511RefVectorOfINS_7DOMNodeEED0Ev, ptr @_ZN11xercesc_2_515BaseRefVectorOfINS_7DOMNodeEE12setElementAtEPS1_j, ptr @_ZN11xercesc_2_515BaseRefVectorOfINS_7DOMNodeEE17removeAllElementsEv, ptr @_ZN11xercesc_2_515BaseRefVectorOfINS_7DOMNodeEE15removeElementAtEj, ptr @_ZN11xercesc_2_515BaseRefVectorOfINS_7DOMNodeEE17removeLastElementEv, ptr @_ZN11xercesc_2_515BaseRefVectorOfINS_7DOMNodeEE7cleanupEv] }, comdat, align 8, !type !52, !type !53, !type !54, !type !55, !type !56, !type !57, !type !58, !type !59, !type !60, !type !61, !type !62, !type !63
@_ZTSN11xercesc_2_511RefVectorOfINS_7DOMNodeEEE = linkonce_odr dso_local constant [43 x i8] c"N11xercesc_2_511RefVectorOfINS_7DOMNodeEEE\00", comdat, align 1
@_ZTSN11xercesc_2_515BaseRefVectorOfINS_7DOMNodeEEE = linkonce_odr dso_local constant [47 x i8] c"N11xercesc_2_515BaseRefVectorOfINS_7DOMNodeEEE\00", comdat, align 1
@_ZTSN11xercesc_2_57XMemoryE = linkonce_odr dso_local constant [24 x i8] c"N11xercesc_2_57XMemoryE\00", comdat, align 1
@_ZTIN11xercesc_2_57XMemoryE = linkonce_odr dso_local constant { ptr, ptr } { ptr getelementptr inbounds (ptr, ptr @_ZTVN10__cxxabiv117__class_type_infoE, i64 2), ptr @_ZTSN11xercesc_2_57XMemoryE }, comdat, align 8
@_ZTIN11xercesc_2_515BaseRefVectorOfINS_7DOMNodeEEE = linkonce_odr dso_local constant { ptr, ptr, ptr } { ptr getelementptr inbounds (ptr, ptr @_ZTVN10__cxxabiv120__si_class_type_infoE, i64 2), ptr @_ZTSN11xercesc_2_515BaseRefVectorOfINS_7DOMNodeEEE, ptr @_ZTIN11xercesc_2_57XMemoryE }, comdat, align 8
@_ZTIN11xercesc_2_511RefVectorOfINS_7DOMNodeEEE = linkonce_odr dso_local constant { ptr, ptr, ptr } { ptr getelementptr inbounds (ptr, ptr @_ZTVN10__cxxabiv120__si_class_type_infoE, i64 2), ptr @_ZTSN11xercesc_2_511RefVectorOfINS_7DOMNodeEEE, ptr @_ZTIN11xercesc_2_515BaseRefVectorOfINS_7DOMNodeEEE }, comdat, align 8
@.str = private unnamed_addr constant [33 x i8] c"./xercesc/util/BaseRefVectorOf.c\00", align 1
@_ZTSN11xercesc_2_530ArrayIndexOutOfBoundsExceptionE = linkonce_odr dso_local constant [48 x i8] c"N11xercesc_2_530ArrayIndexOutOfBoundsExceptionE\00", comdat, align 1
@_ZTIN11xercesc_2_512XMLExceptionE = external constant ptr
@_ZTIN11xercesc_2_530ArrayIndexOutOfBoundsExceptionE = linkonce_odr dso_local constant { ptr, ptr, ptr } { ptr getelementptr inbounds (ptr, ptr @_ZTVN10__cxxabiv120__si_class_type_infoE, i64 2), ptr @_ZTSN11xercesc_2_530ArrayIndexOutOfBoundsExceptionE, ptr @_ZTIN11xercesc_2_512XMLExceptionE }, comdat, align 8
@_ZTVN11xercesc_2_530ArrayIndexOutOfBoundsExceptionE = linkonce_odr dso_local unnamed_addr constant { [6 x ptr] } { [6 x ptr] [ptr null, ptr @_ZTIN11xercesc_2_530ArrayIndexOutOfBoundsExceptionE, ptr @_ZN11xercesc_2_512XMLExceptionD2Ev, ptr @_ZN11xercesc_2_530ArrayIndexOutOfBoundsExceptionD0Ev, ptr @_ZNK11xercesc_2_530ArrayIndexOutOfBoundsException7getTypeEv, ptr @_ZNK11xercesc_2_530ArrayIndexOutOfBoundsException9duplicateEv] }, comdat, align 8, !type !64, !type !65, !type !66, !type !67, !type !68, !type !69
@_ZN11xercesc_2_56XMLUni37fgArrayIndexOutOfBoundsException_NameE = external constant [0 x i16], align 2

@_ZN11xercesc_2_512DOMRangeImplC1EPNS_11DOMDocumentEPNS_13MemoryManagerE = dso_local unnamed_addr alias void (ptr, ptr, ptr), ptr @_ZN11xercesc_2_512DOMRangeImplC2EPNS_11DOMDocumentEPNS_13MemoryManagerE
@_ZN11xercesc_2_512DOMRangeImplC1ERKS0_ = dso_local unnamed_addr alias void (ptr, ptr), ptr @_ZN11xercesc_2_512DOMRangeImplC2ERKS0_
@_ZN11xercesc_2_512DOMRangeImplD1Ev = dso_local unnamed_addr alias void (ptr), ptr @_ZN11xercesc_2_512DOMRangeImplD2Ev

declare i32 @__gxx_personality_v0(...)

; Function Attrs: nobuiltin nounwind
declare void @_ZdlPv(ptr noundef) local_unnamed_addr #0

; Function Attrs: mustprogress nofree norecurse nosync nounwind willreturn memory(argmem: write) uwtable
define dso_local void @_ZN11xercesc_2_512DOMRangeImplC2EPNS_11DOMDocumentEPNS_13MemoryManagerE(ptr nocapture noundef nonnull writeonly align 8 dereferenceable(80) %0, ptr noundef %1, ptr noundef %2) unnamed_addr #1 align 2 {
  store ptr getelementptr inbounds ({ [29 x ptr] }, ptr @_ZTVN11xercesc_2_512DOMRangeImplE, i64 0, inrange i32 0, i64 2), ptr %0, align 8, !tbaa !77
  %4 = getelementptr inbounds %"class.xercesc_2_5::DOMRangeImpl", ptr %0, i64 0, i32 1
  %5 = icmp eq ptr %1, null
  %6 = getelementptr inbounds i8, ptr %1, i64 24
  %7 = select i1 %5, ptr null, ptr %6
  store ptr %7, ptr %4, align 8, !tbaa !80
  %8 = getelementptr inbounds %"class.xercesc_2_5::DOMRangeImpl", ptr %0, i64 0, i32 2
  store i64 0, ptr %8, align 8, !tbaa !87
  %9 = getelementptr inbounds %"class.xercesc_2_5::DOMRangeImpl", ptr %0, i64 0, i32 3
  store ptr %7, ptr %9, align 8, !tbaa !88
  %10 = getelementptr inbounds %"class.xercesc_2_5::DOMRangeImpl", ptr %0, i64 0, i32 4
  store i64 0, ptr %10, align 8, !tbaa !89
  %11 = getelementptr inbounds %"class.xercesc_2_5::DOMRangeImpl", ptr %0, i64 0, i32 5
  store i8 1, ptr %11, align 8, !tbaa !90
  %12 = getelementptr inbounds %"class.xercesc_2_5::DOMRangeImpl", ptr %0, i64 0, i32 6
  store ptr %1, ptr %12, align 8, !tbaa !91
  %13 = getelementptr inbounds %"class.xercesc_2_5::DOMRangeImpl", ptr %0, i64 0, i32 7
  store i8 0, ptr %13, align 8, !tbaa !92
  %14 = getelementptr inbounds %"class.xercesc_2_5::DOMRangeImpl", ptr %0, i64 0, i32 8
  store ptr null, ptr %14, align 8, !tbaa !93
  %15 = getelementptr inbounds %"class.xercesc_2_5::DOMRangeImpl", ptr %0, i64 0, i32 9
  store ptr %2, ptr %15, align 8, !tbaa !94
  ret void
}

; Function Attrs: mustprogress nofree norecurse nosync nounwind willreturn memory(argmem: readwrite) uwtable
define dso_local void @_ZN11xercesc_2_512DOMRangeImplC2ERKS0_(ptr nocapture noundef nonnull writeonly align 8 dereferenceable(80) %0, ptr nocapture noundef nonnull readonly align 8 dereferenceable(80) %1) unnamed_addr #2 align 2 {
  store ptr getelementptr inbounds ({ [29 x ptr] }, ptr @_ZTVN11xercesc_2_512DOMRangeImplE, i64 0, inrange i32 0, i64 2), ptr %0, align 8, !tbaa !77
  %3 = getelementptr inbounds %"class.xercesc_2_5::DOMRangeImpl", ptr %0, i64 0, i32 1
  %4 = getelementptr inbounds %"class.xercesc_2_5::DOMRangeImpl", ptr %1, i64 0, i32 1
  %5 = load ptr, ptr %4, align 8, !tbaa !80
  store ptr %5, ptr %3, align 8, !tbaa !80
  %6 = getelementptr inbounds %"class.xercesc_2_5::DOMRangeImpl", ptr %0, i64 0, i32 2
  %7 = getelementptr inbounds %"class.xercesc_2_5::DOMRangeImpl", ptr %1, i64 0, i32 2
  %8 = load i64, ptr %7, align 8, !tbaa !87
  store i64 %8, ptr %6, align 8, !tbaa !87
  %9 = getelementptr inbounds %"class.xercesc_2_5::DOMRangeImpl", ptr %0, i64 0, i32 3
  %10 = getelementptr inbounds %"class.xercesc_2_5::DOMRangeImpl", ptr %1, i64 0, i32 3
  %11 = load ptr, ptr %10, align 8, !tbaa !88
  store ptr %11, ptr %9, align 8, !tbaa !88
  %12 = getelementptr inbounds %"class.xercesc_2_5::DOMRangeImpl", ptr %0, i64 0, i32 4
  %13 = getelementptr inbounds %"class.xercesc_2_5::DOMRangeImpl", ptr %1, i64 0, i32 4
  %14 = load i64, ptr %13, align 8, !tbaa !89
  store i64 %14, ptr %12, align 8, !tbaa !89
  %15 = getelementptr inbounds %"class.xercesc_2_5::DOMRangeImpl", ptr %0, i64 0, i32 5
  %16 = getelementptr inbounds %"class.xercesc_2_5::DOMRangeImpl", ptr %1, i64 0, i32 5
  %17 = load i8, ptr %16, align 8, !tbaa !90, !range !95, !noundef !96
  store i8 %17, ptr %15, align 8, !tbaa !90
  %18 = getelementptr inbounds %"class.xercesc_2_5::DOMRangeImpl", ptr %0, i64 0, i32 6
  %19 = getelementptr inbounds %"class.xercesc_2_5::DOMRangeImpl", ptr %1, i64 0, i32 6
  %20 = load ptr, ptr %19, align 8, !tbaa !91
  store ptr %20, ptr %18, align 8, !tbaa !91
  %21 = getelementptr inbounds %"class.xercesc_2_5::DOMRangeImpl", ptr %0, i64 0, i32 7
  %22 = getelementptr inbounds %"class.xercesc_2_5::DOMRangeImpl", ptr %1, i64 0, i32 7
  %23 = load i8, ptr %22, align 8, !tbaa !92, !range !95, !noundef !96
  store i8 %23, ptr %21, align 8, !tbaa !92
  %24 = getelementptr inbounds %"class.xercesc_2_5::DOMRangeImpl", ptr %0, i64 0, i32 8
  %25 = getelementptr inbounds %"class.xercesc_2_5::DOMRangeImpl", ptr %1, i64 0, i32 8
  %26 = load ptr, ptr %25, align 8, !tbaa !93
  store ptr %26, ptr %24, align 8, !tbaa !93
  %27 = getelementptr inbounds %"class.xercesc_2_5::DOMRangeImpl", ptr %0, i64 0, i32 9
  %28 = getelementptr inbounds %"class.xercesc_2_5::DOMRangeImpl", ptr %1, i64 0, i32 9
  %29 = load ptr, ptr %28, align 8, !tbaa !94
  store ptr %29, ptr %27, align 8, !tbaa !94
  ret void
}

; Function Attrs: mustprogress nofree norecurse nosync nounwind willreturn memory(none) uwtable
define dso_local void @_ZN11xercesc_2_512DOMRangeImplD2Ev(ptr nocapture nonnull readnone align 8 %0) unnamed_addr #3 align 2 {
  ret void
}

; Function Attrs: nounwind uwtable
define dso_local void @_ZN11xercesc_2_512DOMRangeImplD0Ev(ptr noundef nonnull align 8 dereferenceable(80) %0) unnamed_addr #4 align 2 personality ptr @__gxx_personality_v0 {
  tail call void @_ZdlPv(ptr noundef nonnull %0) #13
  ret void
}

; Function Attrs: uwtable
define dso_local noundef ptr @_ZNK11xercesc_2_512DOMRangeImpl17getStartContainerEv(ptr nocapture noundef nonnull readonly align 8 dereferenceable(80) %0) unnamed_addr #5 align 2 personality ptr @__gxx_personality_v0 {
  %2 = getelementptr inbounds %"class.xercesc_2_5::DOMRangeImpl", ptr %0, i64 0, i32 7
  %3 = load i8, ptr %2, align 8, !tbaa !92, !range !95, !noundef !96
  %4 = icmp eq i8 %3, 0
  br i1 %4, label %10, label %5

5:                                                ; preds = %1
  %6 = tail call ptr @__cxa_allocate_exception(i64 24) #14
  invoke void @_ZN11xercesc_2_512DOMExceptionC1EsPKt(ptr noundef nonnull align 8 dereferenceable(24) %6, i16 noundef signext 11, ptr noundef null)
          to label %7 unwind label %8

7:                                                ; preds = %5
  tail call void @__cxa_throw(ptr nonnull %6, ptr nonnull @_ZTIN11xercesc_2_512DOMExceptionE, ptr nonnull @_ZN11xercesc_2_512DOMExceptionD1Ev) #15
  unreachable

8:                                                ; preds = %5
  %9 = landingpad { ptr, i32 }
          cleanup
  tail call void @__cxa_free_exception(ptr %6) #14
  resume { ptr, i32 } %9

10:                                               ; preds = %1
  %11 = getelementptr inbounds %"class.xercesc_2_5::DOMRangeImpl", ptr %0, i64 0, i32 1
  %12 = load ptr, ptr %11, align 8, !tbaa !80
  ret ptr %12
}

declare ptr @__cxa_allocate_exception(i64) local_unnamed_addr

declare void @_ZN11xercesc_2_512DOMExceptionC1EsPKt(ptr noundef nonnull align 8 dereferenceable(24), i16 noundef signext, ptr noundef) unnamed_addr #6

declare void @__cxa_free_exception(ptr) local_unnamed_addr

declare void @_ZN11xercesc_2_512DOMExceptionD1Ev(ptr noundef nonnull align 8 dereferenceable(24)) unnamed_addr #6

declare void @__cxa_throw(ptr, ptr, ptr) local_unnamed_addr

; Function Attrs: uwtable
define dso_local noundef i64 @_ZNK11xercesc_2_512DOMRangeImpl14getStartOffsetEv(ptr nocapture noundef nonnull readonly align 8 dereferenceable(80) %0) unnamed_addr #5 align 2 personality ptr @__gxx_personality_v0 {
  %2 = getelementptr inbounds %"class.xercesc_2_5::DOMRangeImpl", ptr %0, i64 0, i32 7
  %3 = load i8, ptr %2, align 8, !tbaa !92, !range !95, !noundef !96
  %4 = icmp eq i8 %3, 0
  br i1 %4, label %10, label %5

5:                                                ; preds = %1
  %6 = tail call ptr @__cxa_allocate_exception(i64 24) #14
  invoke void @_ZN11xercesc_2_512DOMExceptionC1EsPKt(ptr noundef nonnull align 8 dereferenceable(24) %6, i16 noundef signext 11, ptr noundef null)
          to label %7 unwind label %8

7:                                                ; preds = %5
  tail call void @__cxa_throw(ptr nonnull %6, ptr nonnull @_ZTIN11xercesc_2_512DOMExceptionE, ptr nonnull @_ZN11xercesc_2_512DOMExceptionD1Ev) #15
  unreachable

8:                                                ; preds = %5
  %9 = landingpad { ptr, i32 }
          cleanup
  tail call void @__cxa_free_exception(ptr %6) #14
  resume { ptr, i32 } %9

10:                                               ; preds = %1
  %11 = getelementptr inbounds %"class.xercesc_2_5::DOMRangeImpl", ptr %0, i64 0, i32 2
  %12 = load i64, ptr %11, align 8, !tbaa !87
  ret i64 %12
}

; Function Attrs: uwtable
define dso_local noundef ptr @_ZNK11xercesc_2_512DOMRangeImpl15getEndContainerEv(ptr nocapture noundef nonnull readonly align 8 dereferenceable(80) %0) unnamed_addr #5 align 2 personality ptr @__gxx_personality_v0 {
  %2 = getelementptr inbounds %"class.xercesc_2_5::DOMRangeImpl", ptr %0, i64 0, i32 7
  %3 = load i8, ptr %2, align 8, !tbaa !92, !range !95, !noundef !96
  %4 = icmp eq i8 %3, 0
  br i1 %4, label %10, label %5

5:                                                ; preds = %1
  %6 = tail call ptr @__cxa_allocate_exception(i64 24) #14
  invoke void @_ZN11xercesc_2_512DOMExceptionC1EsPKt(ptr noundef nonnull align 8 dereferenceable(24) %6, i16 noundef signext 11, ptr noundef null)
          to label %7 unwind label %8

7:                                                ; preds = %5
  tail call void @__cxa_throw(ptr nonnull %6, ptr nonnull @_ZTIN11xercesc_2_512DOMExceptionE, ptr nonnull @_ZN11xercesc_2_512DOMExceptionD1Ev) #15
  unreachable

8:                                                ; preds = %5
  %9 = landingpad { ptr, i32 }
          cleanup
  tail call void @__cxa_free_exception(ptr %6) #14
  resume { ptr, i32 } %9

10:                                               ; preds = %1
  %11 = getelementptr inbounds %"class.xercesc_2_5::DOMRangeImpl", ptr %0, i64 0, i32 3
  %12 = load ptr, ptr %11, align 8, !tbaa !88
  ret ptr %12
}

; Function Attrs: uwtable
define dso_local noundef i64 @_ZNK11xercesc_2_512DOMRangeImpl12getEndOffsetEv(ptr nocapture noundef nonnull readonly align 8 dereferenceable(80) %0) unnamed_addr #5 align 2 personality ptr @__gxx_personality_v0 {
  %2 = getelementptr inbounds %"class.xercesc_2_5::DOMRangeImpl", ptr %0, i64 0, i32 7
  %3 = load i8, ptr %2, align 8, !tbaa !92, !range !95, !noundef !96
  %4 = icmp eq i8 %3, 0
  br i1 %4, label %10, label %5

5:                                                ; preds = %1
  %6 = tail call ptr @__cxa_allocate_exception(i64 24) #14
  invoke void @_ZN11xercesc_2_512DOMExceptionC1EsPKt(ptr noundef nonnull align 8 dereferenceable(24) %6, i16 noundef signext 11, ptr noundef null)
          to label %7 unwind label %8

7:                                                ; preds = %5
  tail call void @__cxa_throw(ptr nonnull %6, ptr nonnull @_ZTIN11xercesc_2_512DOMExceptionE, ptr nonnull @_ZN11xercesc_2_512DOMExceptionD1Ev) #15
  unreachable

8:                                                ; preds = %5
  %9 = landingpad { ptr, i32 }
          cleanup
  tail call void @__cxa_free_exception(ptr %6) #14
  resume { ptr, i32 } %9

10:                                               ; preds = %1
  %11 = getelementptr inbounds %"class.xercesc_2_5::DOMRangeImpl", ptr %0, i64 0, i32 4
  %12 = load i64, ptr %11, align 8, !tbaa !89
  ret i64 %12
}

; Function Attrs: uwtable
define dso_local noundef zeroext i1 @_ZNK11xercesc_2_512DOMRangeImpl12getCollapsedEv(ptr nocapture noundef nonnull readonly align 8 dereferenceable(80) %0) unnamed_addr #5 align 2 personality ptr @__gxx_personality_v0 {
  %2 = getelementptr inbounds %"class.xercesc_2_5::DOMRangeImpl", ptr %0, i64 0, i32 7
  %3 = load i8, ptr %2, align 8, !tbaa !92, !range !95, !noundef !96
  %4 = icmp eq i8 %3, 0
  br i1 %4, label %10, label %5

5:                                                ; preds = %1
  %6 = tail call ptr @__cxa_allocate_exception(i64 24) #14
  invoke void @_ZN11xercesc_2_512DOMExceptionC1EsPKt(ptr noundef nonnull align 8 dereferenceable(24) %6, i16 noundef signext 11, ptr noundef null)
          to label %7 unwind label %8

7:                                                ; preds = %5
  tail call void @__cxa_throw(ptr nonnull %6, ptr nonnull @_ZTIN11xercesc_2_512DOMExceptionE, ptr nonnull @_ZN11xercesc_2_512DOMExceptionD1Ev) #15
  unreachable

8:                                                ; preds = %5
  %9 = landingpad { ptr, i32 }
          cleanup
  tail call void @__cxa_free_exception(ptr %6) #14
  resume { ptr, i32 } %9

10:                                               ; preds = %1
  %11 = getelementptr inbounds %"class.xercesc_2_5::DOMRangeImpl", ptr %0, i64 0, i32 1
  %12 = load ptr, ptr %11, align 8, !tbaa !80
  %13 = getelementptr inbounds %"class.xercesc_2_5::DOMRangeImpl", ptr %0, i64 0, i32 3
  %14 = load ptr, ptr %13, align 8, !tbaa !88
  %15 = icmp eq ptr %12, %14
  %16 = getelementptr inbounds %"class.xercesc_2_5::DOMRangeImpl", ptr %0, i64 0, i32 2
  %17 = load i64, ptr %16, align 8
  %18 = getelementptr inbounds %"class.xercesc_2_5::DOMRangeImpl", ptr %0, i64 0, i32 4
  %19 = load i64, ptr %18, align 8
  %20 = icmp eq i64 %17, %19
  %21 = select i1 %15, i1 %20, i1 false
  ret i1 %21
}

; Function Attrs: uwtable
define dso_local void @_ZN11xercesc_2_512DOMRangeImpl17setStartContainerEPKNS_7DOMNodeE(ptr nocapture noundef nonnull align 8 dereferenceable(80) %0, ptr noundef %1) local_unnamed_addr #5 align 2 personality ptr @__gxx_personality_v0 {
  %3 = getelementptr inbounds %"class.xercesc_2_5::DOMRangeImpl", ptr %0, i64 0, i32 7
  %4 = load i8, ptr %3, align 8, !tbaa !92, !range !95, !noundef !96
  %5 = icmp eq i8 %4, 0
  br i1 %5, label %11, label %6

6:                                                ; preds = %2
  %7 = tail call ptr @__cxa_allocate_exception(i64 24) #14
  invoke void @_ZN11xercesc_2_512DOMExceptionC1EsPKt(ptr noundef nonnull align 8 dereferenceable(24) %7, i16 noundef signext 11, ptr noundef null)
          to label %8 unwind label %9

8:                                                ; preds = %6
  tail call void @__cxa_throw(ptr nonnull %7, ptr nonnull @_ZTIN11xercesc_2_512DOMExceptionE, ptr nonnull @_ZN11xercesc_2_512DOMExceptionD1Ev) #15
  unreachable

9:                                                ; preds = %6
  %10 = landingpad { ptr, i32 }
          cleanup
  tail call void @__cxa_free_exception(ptr %7) #14
  resume { ptr, i32 } %10

11:                                               ; preds = %2
  %12 = getelementptr inbounds %"class.xercesc_2_5::DOMRangeImpl", ptr %0, i64 0, i32 1
  store ptr %1, ptr %12, align 8, !tbaa !80
  ret void
}

; Function Attrs: uwtable
define dso_local void @_ZN11xercesc_2_512DOMRangeImpl14setStartOffsetEm(ptr nocapture noundef nonnull align 8 dereferenceable(80) %0, i64 noundef %1) local_unnamed_addr #5 align 2 personality ptr @__gxx_personality_v0 {
  %3 = getelementptr inbounds %"class.xercesc_2_5::DOMRangeImpl", ptr %0, i64 0, i32 7
  %4 = load i8, ptr %3, align 8, !tbaa !92, !range !95, !noundef !96
  %5 = icmp eq i8 %4, 0
  br i1 %5, label %11, label %6

6:                                                ; preds = %2
  %7 = tail call ptr @__cxa_allocate_exception(i64 24) #14
  invoke void @_ZN11xercesc_2_512DOMExceptionC1EsPKt(ptr noundef nonnull align 8 dereferenceable(24) %7, i16 noundef signext 11, ptr noundef null)
          to label %8 unwind label %9

8:                                                ; preds = %6
  tail call void @__cxa_throw(ptr nonnull %7, ptr nonnull @_ZTIN11xercesc_2_512DOMExceptionE, ptr nonnull @_ZN11xercesc_2_512DOMExceptionD1Ev) #15
  unreachable

9:                                                ; preds = %6
  %10 = landingpad { ptr, i32 }
          cleanup
  tail call void @__cxa_free_exception(ptr %7) #14
  resume { ptr, i32 } %10

11:                                               ; preds = %2
  %12 = getelementptr inbounds %"class.xercesc_2_5::DOMRangeImpl", ptr %0, i64 0, i32 2
  store i64 %1, ptr %12, align 8, !tbaa !87
  ret void
}

; Function Attrs: uwtable
define dso_local void @_ZN11xercesc_2_512DOMRangeImpl15setEndContainerEPKNS_7DOMNodeE(ptr nocapture noundef nonnull align 8 dereferenceable(80) %0, ptr noundef %1) local_unnamed_addr #5 align 2 personality ptr @__gxx_personality_v0 {
  %3 = getelementptr inbounds %"class.xercesc_2_5::DOMRangeImpl", ptr %0, i64 0, i32 7
  %4 = load i8, ptr %3, align 8, !tbaa !92, !range !95, !noundef !96
  %5 = icmp eq i8 %4, 0
  br i1 %5, label %11, label %6

6:                                                ; preds = %2
  %7 = tail call ptr @__cxa_allocate_exception(i64 24) #14
  invoke void @_ZN11xercesc_2_512DOMExceptionC1EsPKt(ptr noundef nonnull align 8 dereferenceable(24) %7, i16 noundef signext 11, ptr noundef null)
          to label %8 unwind label %9

8:                                                ; preds = %6
  tail call void @__cxa_throw(ptr nonnull %7, ptr nonnull @_ZTIN11xercesc_2_512DOMExceptionE, ptr nonnull @_ZN11xercesc_2_512DOMExceptionD1Ev) #15
  unreachable

9:                                                ; preds = %6
  %10 = landingpad { ptr, i32 }
          cleanup
  tail call void @__cxa_free_exception(ptr %7) #14
  resume { ptr, i32 } %10

11:                                               ; preds = %2
  %12 = getelementptr inbounds %"class.xercesc_2_5::DOMRangeImpl", ptr %0, i64 0, i32 3
  store ptr %1, ptr %12, align 8, !tbaa !88
  ret void
}

; Function Attrs: uwtable
define dso_local void @_ZN11xercesc_2_512DOMRangeImpl12setEndOffsetEm(ptr nocapture noundef nonnull align 8 dereferenceable(80) %0, i64 noundef %1) local_unnamed_addr #5 align 2 personality ptr @__gxx_personality_v0 {
  %3 = getelementptr inbounds %"class.xercesc_2_5::DOMRangeImpl", ptr %0, i64 0, i32 7
  %4 = load i8, ptr %3, align 8, !tbaa !92, !range !95, !noundef !96
  %5 = icmp eq i8 %4, 0
  br i1 %5, label %11, label %6

6:                                                ; preds = %2
  %7 = tail call ptr @__cxa_allocate_exception(i64 24) #14
  invoke void @_ZN11xercesc_2_512DOMExceptionC1EsPKt(ptr noundef nonnull align 8 dereferenceable(24) %7, i16 noundef signext 11, ptr noundef null)
          to label %8 unwind label %9

8:                                                ; preds = %6
  tail call void @__cxa_throw(ptr nonnull %7, ptr nonnull @_ZTIN11xercesc_2_512DOMExceptionE, ptr nonnull @_ZN11xercesc_2_512DOMExceptionD1Ev) #15
  unreachable

9:                                                ; preds = %6
  %10 = landingpad { ptr, i32 }
          cleanup
  tail call void @__cxa_free_exception(ptr %7) #14
  resume { ptr, i32 } %10

11:                                               ; preds = %2
  %12 = getelementptr inbounds %"class.xercesc_2_5::DOMRangeImpl", ptr %0, i64 0, i32 4
  store i64 %1, ptr %12, align 8, !tbaa !89
  ret void
}

; Function Attrs: uwtable
define dso_local void @_ZN11xercesc_2_512DOMRangeImpl8setStartEPKNS_7DOMNodeEm(ptr noundef nonnull align 8 dereferenceable(80) %0, ptr noundef %1, i64 noundef %2) unnamed_addr #5 align 2 personality ptr @__gxx_personality_v0 {
  tail call void @_ZNK11xercesc_2_512DOMRangeImpl12validateNodeEPKNS_7DOMNodeE(ptr noundef nonnull align 8 dereferenceable(80) %0, ptr noundef %1)
  tail call void @_ZNK11xercesc_2_512DOMRangeImpl10checkIndexEPKNS_7DOMNodeEm(ptr nonnull align 8 poison, ptr noundef %1, i64 noundef %2)
  %4 = getelementptr inbounds %"class.xercesc_2_5::DOMRangeImpl", ptr %0, i64 0, i32 6
  %5 = load ptr, ptr %4, align 8, !tbaa !91
  %6 = load ptr, ptr %1, align 8, !tbaa !77
  %7 = getelementptr inbounds ptr, ptr %6, i64 12
  %8 = load ptr, ptr %7, align 8
  %9 = tail call noundef ptr %8(ptr noundef nonnull align 8 dereferenceable(8) %1)
  %10 = icmp eq ptr %5, %9
  br i1 %10, label %26, label %11

11:                                               ; preds = %3
  %12 = load ptr, ptr %4, align 8, !tbaa !91
  %13 = icmp eq ptr %12, null
  %14 = getelementptr inbounds i8, ptr %12, i64 24
  %15 = select i1 %13, ptr null, ptr %14
  %16 = icmp eq ptr %15, %1
  br i1 %16, label %26, label %17

17:                                               ; preds = %11
  %18 = load ptr, ptr %0, align 8, !tbaa !77
  %19 = getelementptr inbounds ptr, ptr %18, i64 14
  %20 = load ptr, ptr %19, align 8
  tail call void %20(ptr noundef nonnull align 8 dereferenceable(80) %0, i1 noundef zeroext true)
  %21 = getelementptr inbounds %"class.xercesc_2_5::DOMRangeImpl", ptr %0, i64 0, i32 5
  store i8 1, ptr %21, align 8, !tbaa !90
  %22 = tail call ptr @__cxa_allocate_exception(i64 24) #14
  invoke void @_ZN11xercesc_2_512DOMExceptionC1EsPKt(ptr noundef nonnull align 8 dereferenceable(24) %22, i16 noundef signext 4, ptr noundef null)
          to label %23 unwind label %24

23:                                               ; preds = %17
  tail call void @__cxa_throw(ptr nonnull %22, ptr nonnull @_ZTIN11xercesc_2_512DOMExceptionE, ptr nonnull @_ZN11xercesc_2_512DOMExceptionD1Ev) #15
  unreachable

24:                                               ; preds = %17
  %25 = landingpad { ptr, i32 }
          cleanup
  tail call void @__cxa_free_exception(ptr %22) #14
  resume { ptr, i32 } %25

26:                                               ; preds = %11, %3
  %27 = getelementptr inbounds %"class.xercesc_2_5::DOMRangeImpl", ptr %0, i64 0, i32 1
  store ptr %1, ptr %27, align 8, !tbaa !80
  %28 = getelementptr inbounds %"class.xercesc_2_5::DOMRangeImpl", ptr %0, i64 0, i32 2
  store i64 %2, ptr %28, align 8, !tbaa !87
  %29 = getelementptr inbounds %"class.xercesc_2_5::DOMRangeImpl", ptr %0, i64 0, i32 3
  %30 = load ptr, ptr %29, align 8, !tbaa !88
  %31 = tail call noundef ptr @_ZNK11xercesc_2_512DOMRangeImpl16commonAncestorOfEPKNS_7DOMNodeES3_(ptr noundef nonnull align 8 dereferenceable(80) %0, ptr noundef nonnull %1, ptr noundef %30)
  %32 = icmp eq ptr %31, null
  br i1 %32, label %33, label %37

33:                                               ; preds = %26
  %34 = load ptr, ptr %0, align 8, !tbaa !77
  %35 = getelementptr inbounds ptr, ptr %34, i64 14
  %36 = load ptr, ptr %35, align 8
  tail call void %36(ptr noundef nonnull align 8 dereferenceable(80) %0, i1 noundef zeroext true)
  br label %37

37:                                               ; preds = %33, %26
  %38 = load ptr, ptr %0, align 8, !tbaa !77
  %39 = getelementptr inbounds ptr, ptr %38, i64 17
  %40 = load ptr, ptr %39, align 8
  %41 = tail call noundef signext i16 %40(ptr noundef nonnull align 8 dereferenceable(80) %0, i32 noundef 3, ptr noundef nonnull %0)
  %42 = icmp eq i16 %41, 1
  br i1 %42, label %43, label %47

43:                                               ; preds = %37
  %44 = load ptr, ptr %0, align 8, !tbaa !77
  %45 = getelementptr inbounds ptr, ptr %44, i64 14
  %46 = load ptr, ptr %45, align 8
  tail call void %46(ptr noundef nonnull align 8 dereferenceable(80) %0, i1 noundef zeroext true)
  br label %49

47:                                               ; preds = %37
  %48 = getelementptr inbounds %"class.xercesc_2_5::DOMRangeImpl", ptr %0, i64 0, i32 5
  store i8 0, ptr %48, align 8, !tbaa !90
  br label %49

49:                                               ; preds = %47, %43
  ret void
}

; Function Attrs: uwtable
define dso_local void @_ZNK11xercesc_2_512DOMRangeImpl12validateNodeEPKNS_7DOMNodeE(ptr nocapture noundef nonnull readonly align 8 dereferenceable(80) %0, ptr noundef %1) local_unnamed_addr #5 align 2 personality ptr @__gxx_personality_v0 {
  %3 = getelementptr inbounds %"class.xercesc_2_5::DOMRangeImpl", ptr %0, i64 0, i32 7
  %4 = load i8, ptr %3, align 8, !tbaa !92, !range !95, !noundef !96
  %5 = icmp eq i8 %4, 0
  br i1 %5, label %11, label %6

6:                                                ; preds = %2
  %7 = tail call ptr @__cxa_allocate_exception(i64 24) #14
  invoke void @_ZN11xercesc_2_512DOMExceptionC1EsPKt(ptr noundef nonnull align 8 dereferenceable(24) %7, i16 noundef signext 11, ptr noundef null)
          to label %8 unwind label %9

8:                                                ; preds = %6
  tail call void @__cxa_throw(ptr nonnull %7, ptr nonnull @_ZTIN11xercesc_2_512DOMExceptionE, ptr nonnull @_ZN11xercesc_2_512DOMExceptionD1Ev) #15
  unreachable

9:                                                ; preds = %6
  %10 = landingpad { ptr, i32 }
          cleanup
  br label %31

11:                                               ; preds = %2
  %12 = icmp eq ptr %1, null
  br i1 %12, label %30, label %13

13:                                               ; preds = %11, %19
  %14 = phi ptr [ %23, %19 ], [ %1, %11 ]
  %15 = load ptr, ptr %14, align 8, !tbaa !77
  %16 = getelementptr inbounds ptr, ptr %15, i64 4
  %17 = load ptr, ptr %16, align 8
  %18 = tail call noundef signext i16 %17(ptr noundef nonnull align 8 dereferenceable(8) %14)
  switch i16 %18, label %19 [
    i16 12, label %25
    i16 10, label %25
    i16 6, label %25
  ]

19:                                               ; preds = %13
  %20 = load ptr, ptr %14, align 8, !tbaa !77
  %21 = getelementptr inbounds ptr, ptr %20, i64 5
  %22 = load ptr, ptr %21, align 8
  %23 = tail call noundef ptr %22(ptr noundef nonnull align 8 dereferenceable(8) %14)
  %24 = icmp eq ptr %23, null
  br i1 %24, label %30, label %13

25:                                               ; preds = %13, %13, %13
  %26 = tail call ptr @__cxa_allocate_exception(i64 32) #14
  invoke void @_ZN11xercesc_2_517DOMRangeExceptionC1ENS0_18RangeExceptionCodeEPKt(ptr noundef nonnull align 8 dereferenceable(28) %26, i32 noundef 2, ptr noundef null)
          to label %27 unwind label %28

27:                                               ; preds = %25
  tail call void @__cxa_throw(ptr nonnull %26, ptr nonnull @_ZTIN11xercesc_2_517DOMRangeExceptionE, ptr nonnull @_ZN11xercesc_2_517DOMRangeExceptionD1Ev) #15
  unreachable

28:                                               ; preds = %25
  %29 = landingpad { ptr, i32 }
          cleanup
  br label %31

30:                                               ; preds = %19, %11
  ret void

31:                                               ; preds = %28, %9
  %32 = phi ptr [ %26, %28 ], [ %7, %9 ]
  %33 = phi { ptr, i32 } [ %29, %28 ], [ %10, %9 ]
  tail call void @__cxa_free_exception(ptr %32) #14
  resume { ptr, i32 } %33
}

; Function Attrs: uwtable
define dso_local void @_ZNK11xercesc_2_512DOMRangeImpl10checkIndexEPKNS_7DOMNodeEm(ptr nocapture nonnull readnone align 8 %0, ptr noundef %1, i64 noundef %2) local_unnamed_addr #5 align 2 personality ptr @__gxx_personality_v0 {
  %4 = load ptr, ptr %1, align 8, !tbaa !77
  %5 = getelementptr inbounds ptr, ptr %4, i64 4
  %6 = load ptr, ptr %5, align 8
  %7 = tail call noundef signext i16 %6(ptr noundef nonnull align 8 dereferenceable(8) %1)
  switch i16 %7, label %36 [
    i16 8, label %8
    i16 7, label %8
    i16 4, label %8
    i16 3, label %8
  ]

8:                                                ; preds = %3, %3, %3, %3
  %9 = load ptr, ptr %1, align 8, !tbaa !77
  %10 = getelementptr inbounds ptr, ptr %9, i64 3
  %11 = load ptr, ptr %10, align 8
  %12 = tail call noundef ptr %11(ptr noundef nonnull align 8 dereferenceable(8) %1)
  %13 = icmp eq ptr %12, null
  br i1 %13, label %28, label %14

14:                                               ; preds = %8
  %15 = load i16, ptr %12, align 2, !tbaa !97
  %16 = icmp eq i16 %15, 0
  br i1 %16, label %28, label %17

17:                                               ; preds = %14, %17
  %18 = phi ptr [ %19, %17 ], [ %12, %14 ]
  %19 = getelementptr inbounds i16, ptr %18, i64 1
  %20 = load i16, ptr %19, align 2, !tbaa !97
  %21 = icmp eq i16 %20, 0
  br i1 %21, label %22, label %17

22:                                               ; preds = %17
  %23 = ptrtoint ptr %19 to i64
  %24 = ptrtoint ptr %12 to i64
  %25 = sub i64 %23, %24
  %26 = lshr exact i64 %25, 1
  %27 = and i64 %26, 4294967295
  br label %28

28:                                               ; preds = %8, %14, %22
  %29 = phi i64 [ %27, %22 ], [ 0, %14 ], [ 0, %8 ]
  %30 = icmp ult i64 %29, %2
  br i1 %30, label %31, label %59

31:                                               ; preds = %28
  %32 = tail call ptr @__cxa_allocate_exception(i64 24) #14
  invoke void @_ZN11xercesc_2_512DOMExceptionC1EsPKt(ptr noundef nonnull align 8 dereferenceable(24) %32, i16 noundef signext 1, ptr noundef null)
          to label %33 unwind label %34

33:                                               ; preds = %31
  tail call void @__cxa_throw(ptr nonnull %32, ptr nonnull @_ZTIN11xercesc_2_512DOMExceptionE, ptr nonnull @_ZN11xercesc_2_512DOMExceptionD1Ev) #15
  unreachable

34:                                               ; preds = %31
  %35 = landingpad { ptr, i32 }
          cleanup
  br label %60

36:                                               ; preds = %3
  %37 = load ptr, ptr %1, align 8, !tbaa !77
  %38 = getelementptr inbounds ptr, ptr %37, i64 7
  %39 = load ptr, ptr %38, align 8
  %40 = tail call noundef ptr %39(ptr noundef nonnull align 8 dereferenceable(8) %1)
  %41 = icmp eq ptr %40, null
  br i1 %41, label %51, label %42

42:                                               ; preds = %36, %42
  %43 = phi i64 [ %49, %42 ], [ 0, %36 ]
  %44 = phi ptr [ %48, %42 ], [ %40, %36 ]
  %45 = load ptr, ptr %44, align 8, !tbaa !77
  %46 = getelementptr inbounds ptr, ptr %45, i64 10
  %47 = load ptr, ptr %46, align 8
  %48 = tail call noundef ptr %47(ptr noundef nonnull align 8 dereferenceable(8) %44)
  %49 = add i64 %43, 1
  %50 = icmp eq ptr %48, null
  br i1 %50, label %51, label %42

51:                                               ; preds = %42, %36
  %52 = phi i64 [ 0, %36 ], [ %49, %42 ]
  %53 = icmp ult i64 %52, %2
  br i1 %53, label %54, label %59

54:                                               ; preds = %51
  %55 = tail call ptr @__cxa_allocate_exception(i64 24) #14
  invoke void @_ZN11xercesc_2_512DOMExceptionC1EsPKt(ptr noundef nonnull align 8 dereferenceable(24) %55, i16 noundef signext 1, ptr noundef null)
          to label %56 unwind label %57

56:                                               ; preds = %54
  tail call void @__cxa_throw(ptr nonnull %55, ptr nonnull @_ZTIN11xercesc_2_512DOMExceptionE, ptr nonnull @_ZN11xercesc_2_512DOMExceptionD1Ev) #15
  unreachable

57:                                               ; preds = %54
  %58 = landingpad { ptr, i32 }
          cleanup
  br label %60

59:                                               ; preds = %51, %28
  ret void

60:                                               ; preds = %34, %57
  %61 = phi ptr [ %32, %34 ], [ %55, %57 ]
  %62 = phi { ptr, i32 } [ %35, %34 ], [ %58, %57 ]
  tail call void @__cxa_free_exception(ptr %61) #14
  resume { ptr, i32 } %62
}

; Function Attrs: uwtable
define dso_local noundef ptr @_ZNK11xercesc_2_512DOMRangeImpl16commonAncestorOfEPKNS_7DOMNodeES3_(ptr nocapture noundef nonnull readonly align 8 dereferenceable(80) %0, ptr noundef %1, ptr noundef %2) local_unnamed_addr #5 align 2 personality ptr @__gxx_personality_v0 {
  %4 = alloca %"class.xercesc_2_5::RefVectorOf", align 8
  %5 = alloca %"class.xercesc_2_5::RefVectorOf", align 8
  %6 = getelementptr inbounds %"class.xercesc_2_5::DOMRangeImpl", ptr %0, i64 0, i32 7
  %7 = load i8, ptr %6, align 8, !tbaa !92, !range !95, !noundef !96
  %8 = icmp eq i8 %7, 0
  br i1 %8, label %14, label %9

9:                                                ; preds = %3
  %10 = tail call ptr @__cxa_allocate_exception(i64 24) #14
  invoke void @_ZN11xercesc_2_512DOMExceptionC1EsPKt(ptr noundef nonnull align 8 dereferenceable(24) %10, i16 noundef signext 11, ptr noundef null)
          to label %11 unwind label %12

11:                                               ; preds = %9
  tail call void @__cxa_throw(ptr nonnull %10, ptr nonnull @_ZTIN11xercesc_2_512DOMExceptionE, ptr nonnull @_ZN11xercesc_2_512DOMExceptionD1Ev) #15
  unreachable

12:                                               ; preds = %9
  %13 = landingpad { ptr, i32 }
          cleanup
  tail call void @__cxa_free_exception(ptr %10) #14
  br label %234

14:                                               ; preds = %3
  %15 = icmp eq ptr %1, %2
  br i1 %15, label %232, label %16

16:                                               ; preds = %14
  call void @llvm.lifetime.start.p0(i64 40, ptr nonnull %4) #14
  %17 = getelementptr inbounds %"class.xercesc_2_5::DOMRangeImpl", ptr %0, i64 0, i32 6
  %18 = load ptr, ptr %17, align 8, !tbaa !91
  %19 = getelementptr inbounds %"class.xercesc_2_5::DOMDocumentImpl", ptr %18, i64 0, i32 24
  %20 = load ptr, ptr %19, align 8, !tbaa !99
  %21 = getelementptr inbounds %"class.xercesc_2_5::BaseRefVectorOf", ptr %4, i64 0, i32 1
  store i8 0, ptr %21, align 8, !tbaa !111
  %22 = getelementptr inbounds %"class.xercesc_2_5::BaseRefVectorOf", ptr %4, i64 0, i32 2
  store i32 0, ptr %22, align 4, !tbaa !113
  %23 = getelementptr inbounds %"class.xercesc_2_5::BaseRefVectorOf", ptr %4, i64 0, i32 3
  store i32 1, ptr %23, align 8, !tbaa !114
  %24 = getelementptr inbounds %"class.xercesc_2_5::BaseRefVectorOf", ptr %4, i64 0, i32 4
  %25 = getelementptr inbounds %"class.xercesc_2_5::BaseRefVectorOf", ptr %4, i64 0, i32 5
  store ptr %20, ptr %25, align 8, !tbaa !115
  %26 = load ptr, ptr %20, align 8, !tbaa !77
  %27 = getelementptr inbounds ptr, ptr %26, i64 2
  %28 = load ptr, ptr %27, align 8
  %29 = tail call noundef ptr %28(ptr noundef nonnull align 8 dereferenceable(8) %20, i64 noundef 8)
  store ptr %29, ptr %24, align 8, !tbaa !116
  store ptr null, ptr %29, align 8, !tbaa !117
  store ptr getelementptr inbounds ({ [9 x ptr] }, ptr @_ZTVN11xercesc_2_511RefVectorOfINS_7DOMNodeEEE, i64 0, inrange i32 0, i64 2), ptr %4, align 8, !tbaa !77
  br label %30

30:                                               ; preds = %80, %16
  %31 = phi i32 [ 1, %16 ], [ %81, %80 ]
  %32 = phi i32 [ 0, %16 ], [ %36, %80 ]
  %33 = phi ptr [ %1, %16 ], [ %88, %80 ]
  %34 = icmp eq ptr %33, null
  br i1 %34, label %91, label %35

35:                                               ; preds = %30
  %36 = add i32 %32, 1
  %37 = icmp ult i32 %36, %31
  br i1 %37, label %38, label %40

38:                                               ; preds = %35
  %39 = load ptr, ptr %24, align 8, !tbaa !116
  br label %80

40:                                               ; preds = %35
  %41 = add i32 %31, 32
  %42 = tail call i32 @llvm.umax.i32(i32 %36, i32 %41)
  %43 = load ptr, ptr %25, align 8, !tbaa !115
  %44 = zext i32 %42 to i64
  %45 = shl nuw nsw i64 %44, 3
  %46 = load ptr, ptr %43, align 8, !tbaa !77
  %47 = getelementptr inbounds ptr, ptr %46, i64 2
  %48 = load ptr, ptr %47, align 8
  %49 = invoke noundef ptr %48(ptr noundef nonnull align 8 dereferenceable(8) %43, i64 noundef %45)
          to label %50 unwind label %89

50:                                               ; preds = %40
  %51 = icmp eq i32 %32, 0
  br i1 %51, label %54, label %52

52:                                               ; preds = %50
  %53 = zext i32 %32 to i64
  br label %65

54:                                               ; preds = %65, %50
  %55 = icmp ult i32 %32, %42
  br i1 %55, label %56, label %73

56:                                               ; preds = %54
  %57 = zext i32 %32 to i64
  %58 = shl nuw nsw i64 %57, 3
  %59 = getelementptr i8, ptr %49, i64 %58
  %60 = xor i32 %32, -1
  %61 = add i32 %42, %60
  %62 = zext i32 %61 to i64
  %63 = shl nuw nsw i64 %62, 3
  %64 = add nuw nsw i64 %63, 8
  tail call void @llvm.memset.p0.i64(ptr noundef nonnull align 8 dereferenceable(1) %59, i8 0, i64 %64, i1 false), !tbaa !117
  br label %73

65:                                               ; preds = %65, %52
  %66 = phi i64 [ 0, %52 ], [ %71, %65 ]
  %67 = load ptr, ptr %24, align 8, !tbaa !116
  %68 = getelementptr inbounds ptr, ptr %67, i64 %66
  %69 = load ptr, ptr %68, align 8, !tbaa !117
  %70 = getelementptr inbounds ptr, ptr %49, i64 %66
  store ptr %69, ptr %70, align 8, !tbaa !117
  %71 = add nuw nsw i64 %66, 1
  %72 = icmp eq i64 %71, %53
  br i1 %72, label %54, label %65

73:                                               ; preds = %56, %54
  %74 = load ptr, ptr %25, align 8, !tbaa !115
  %75 = load ptr, ptr %24, align 8, !tbaa !116
  %76 = load ptr, ptr %74, align 8, !tbaa !77
  %77 = getelementptr inbounds ptr, ptr %76, i64 3
  %78 = load ptr, ptr %77, align 8
  invoke void %78(ptr noundef nonnull align 8 dereferenceable(8) %74, ptr noundef %75)
          to label %79 unwind label %89

79:                                               ; preds = %73
  store ptr %49, ptr %24, align 8, !tbaa !116
  store i32 %42, ptr %23, align 8, !tbaa !114
  br label %80

80:                                               ; preds = %79, %38
  %81 = phi i32 [ %31, %38 ], [ %42, %79 ]
  %82 = phi ptr [ %39, %38 ], [ %49, %79 ]
  %83 = zext i32 %32 to i64
  %84 = getelementptr inbounds ptr, ptr %82, i64 %83
  store ptr %33, ptr %84, align 8, !tbaa !117
  store i32 %36, ptr %22, align 4, !tbaa !113
  %85 = load ptr, ptr %33, align 8, !tbaa !77
  %86 = getelementptr inbounds ptr, ptr %85, i64 5
  %87 = load ptr, ptr %86, align 8
  %88 = invoke noundef ptr %87(ptr noundef nonnull align 8 dereferenceable(8) %33)
          to label %30 unwind label %89

89:                                               ; preds = %73, %40, %80
  %90 = landingpad { ptr, i32 }
          cleanup
  br label %229

91:                                               ; preds = %30
  call void @llvm.lifetime.start.p0(i64 40, ptr nonnull %5) #14
  %92 = load ptr, ptr %17, align 8, !tbaa !91
  %93 = getelementptr inbounds %"class.xercesc_2_5::DOMDocumentImpl", ptr %92, i64 0, i32 24
  %94 = load ptr, ptr %93, align 8, !tbaa !99
  %95 = getelementptr inbounds %"class.xercesc_2_5::BaseRefVectorOf", ptr %5, i64 0, i32 1
  store i8 0, ptr %95, align 8, !tbaa !111
  %96 = getelementptr inbounds %"class.xercesc_2_5::BaseRefVectorOf", ptr %5, i64 0, i32 2
  store i32 0, ptr %96, align 4, !tbaa !113
  %97 = getelementptr inbounds %"class.xercesc_2_5::BaseRefVectorOf", ptr %5, i64 0, i32 3
  store i32 1, ptr %97, align 8, !tbaa !114
  %98 = getelementptr inbounds %"class.xercesc_2_5::BaseRefVectorOf", ptr %5, i64 0, i32 4
  %99 = getelementptr inbounds %"class.xercesc_2_5::BaseRefVectorOf", ptr %5, i64 0, i32 5
  store ptr %94, ptr %99, align 8, !tbaa !115
  %100 = load ptr, ptr %94, align 8, !tbaa !77
  %101 = getelementptr inbounds ptr, ptr %100, i64 2
  %102 = load ptr, ptr %101, align 8
  %103 = invoke noundef ptr %102(ptr noundef nonnull align 8 dereferenceable(8) %94, i64 noundef 8)
          to label %104 unwind label %164

104:                                              ; preds = %91
  store ptr %103, ptr %98, align 8, !tbaa !116
  store ptr null, ptr %103, align 8, !tbaa !117
  store ptr getelementptr inbounds ({ [9 x ptr] }, ptr @_ZTVN11xercesc_2_511RefVectorOfINS_7DOMNodeEEE, i64 0, inrange i32 0, i64 2), ptr %5, align 8, !tbaa !77
  br label %105

105:                                              ; preds = %104, %155
  %106 = phi i32 [ 1, %104 ], [ %156, %155 ]
  %107 = phi i32 [ 0, %104 ], [ %111, %155 ]
  %108 = phi ptr [ %2, %104 ], [ %163, %155 ]
  %109 = icmp eq ptr %108, null
  br i1 %109, label %168, label %110

110:                                              ; preds = %105
  %111 = add i32 %107, 1
  %112 = icmp ult i32 %111, %106
  br i1 %112, label %113, label %115

113:                                              ; preds = %110
  %114 = load ptr, ptr %98, align 8, !tbaa !116
  br label %155

115:                                              ; preds = %110
  %116 = add i32 %106, 32
  %117 = tail call i32 @llvm.umax.i32(i32 %111, i32 %116)
  %118 = load ptr, ptr %99, align 8, !tbaa !115
  %119 = zext i32 %117 to i64
  %120 = shl nuw nsw i64 %119, 3
  %121 = load ptr, ptr %118, align 8, !tbaa !77
  %122 = getelementptr inbounds ptr, ptr %121, i64 2
  %123 = load ptr, ptr %122, align 8
  %124 = invoke noundef ptr %123(ptr noundef nonnull align 8 dereferenceable(8) %118, i64 noundef %120)
          to label %125 unwind label %166

125:                                              ; preds = %115
  %126 = icmp eq i32 %107, 0
  br i1 %126, label %129, label %127

127:                                              ; preds = %125
  %128 = zext i32 %107 to i64
  br label %140

129:                                              ; preds = %140, %125
  %130 = icmp ult i32 %107, %117
  br i1 %130, label %131, label %148

131:                                              ; preds = %129
  %132 = zext i32 %107 to i64
  %133 = shl nuw nsw i64 %132, 3
  %134 = getelementptr i8, ptr %124, i64 %133
  %135 = xor i32 %107, -1
  %136 = add i32 %117, %135
  %137 = zext i32 %136 to i64
  %138 = shl nuw nsw i64 %137, 3
  %139 = add nuw nsw i64 %138, 8
  tail call void @llvm.memset.p0.i64(ptr noundef nonnull align 8 dereferenceable(1) %134, i8 0, i64 %139, i1 false), !tbaa !117
  br label %148

140:                                              ; preds = %140, %127
  %141 = phi i64 [ 0, %127 ], [ %146, %140 ]
  %142 = load ptr, ptr %98, align 8, !tbaa !116
  %143 = getelementptr inbounds ptr, ptr %142, i64 %141
  %144 = load ptr, ptr %143, align 8, !tbaa !117
  %145 = getelementptr inbounds ptr, ptr %124, i64 %141
  store ptr %144, ptr %145, align 8, !tbaa !117
  %146 = add nuw nsw i64 %141, 1
  %147 = icmp eq i64 %146, %128
  br i1 %147, label %129, label %140

148:                                              ; preds = %131, %129
  %149 = load ptr, ptr %99, align 8, !tbaa !115
  %150 = load ptr, ptr %98, align 8, !tbaa !116
  %151 = load ptr, ptr %149, align 8, !tbaa !77
  %152 = getelementptr inbounds ptr, ptr %151, i64 3
  %153 = load ptr, ptr %152, align 8
  invoke void %153(ptr noundef nonnull align 8 dereferenceable(8) %149, ptr noundef %150)
          to label %154 unwind label %166

154:                                              ; preds = %148
  store ptr %124, ptr %98, align 8, !tbaa !116
  store i32 %117, ptr %97, align 8, !tbaa !114
  br label %155

155:                                              ; preds = %154, %113
  %156 = phi i32 [ %106, %113 ], [ %117, %154 ]
  %157 = phi ptr [ %114, %113 ], [ %124, %154 ]
  %158 = zext i32 %107 to i64
  %159 = getelementptr inbounds ptr, ptr %157, i64 %158
  store ptr %108, ptr %159, align 8, !tbaa !117
  store i32 %111, ptr %96, align 4, !tbaa !113
  %160 = load ptr, ptr %108, align 8, !tbaa !77
  %161 = getelementptr inbounds ptr, ptr %160, i64 5
  %162 = load ptr, ptr %161, align 8
  %163 = invoke noundef ptr %162(ptr noundef nonnull align 8 dereferenceable(8) %108)
          to label %105 unwind label %166

164:                                              ; preds = %91, %212
  %165 = landingpad { ptr, i32 }
          cleanup
  br label %227

166:                                              ; preds = %148, %115, %155
  %167 = landingpad { ptr, i32 }
          cleanup
  br label %225

168:                                              ; preds = %105
  %169 = add i32 %107, -1
  %170 = add i32 %32, -1
  %171 = or i32 %170, %169
  %172 = icmp sgt i32 %171, -1
  br i1 %172, label %173, label %212

173:                                              ; preds = %168
  %174 = load ptr, ptr %24, align 8
  %175 = load ptr, ptr %98, align 8
  br label %182

176:                                              ; preds = %202
  %177 = add nsw i32 %184, -1
  %178 = add nsw i32 %183, -1
  %179 = icmp sgt i32 %183, 0
  %180 = icmp sgt i32 %184, 0
  %181 = select i1 %179, i1 %180, i1 false
  br i1 %181, label %182, label %212

182:                                              ; preds = %173, %176
  %183 = phi i32 [ %170, %173 ], [ %178, %176 ]
  %184 = phi i32 [ %169, %173 ], [ %177, %176 ]
  %185 = phi ptr [ null, %173 ], [ %205, %176 ]
  %186 = icmp ugt i32 %32, %183
  br i1 %186, label %195, label %187

187:                                              ; preds = %182
  %188 = tail call ptr @__cxa_allocate_exception(i64 48) #14
  %189 = load ptr, ptr %25, align 8, !tbaa !115
  invoke void @_ZN11xercesc_2_530ArrayIndexOutOfBoundsExceptionC2EPKcjNS_10XMLExcepts5CodesEPNS_13MemoryManagerE(ptr noundef nonnull align 8 dereferenceable(48) %188, ptr noundef nonnull @.str, i32 noundef 289, i32 noundef 109, ptr noundef %189)
          to label %190 unwind label %193

190:                                              ; preds = %197, %187
  %191 = phi ptr [ %188, %187 ], [ %198, %197 ]
  invoke void @__cxa_throw(ptr nonnull %191, ptr nonnull @_ZTIN11xercesc_2_530ArrayIndexOutOfBoundsExceptionE, ptr nonnull @_ZN11xercesc_2_512XMLExceptionD2Ev) #15
          to label %192 unwind label %210

192:                                              ; preds = %190
  unreachable

193:                                              ; preds = %187
  %194 = landingpad { ptr, i32 }
          cleanup
  tail call void @__cxa_free_exception(ptr %188) #14
  br label %225

195:                                              ; preds = %182
  %196 = icmp ugt i32 %107, %184
  br i1 %196, label %202, label %197

197:                                              ; preds = %195
  %198 = tail call ptr @__cxa_allocate_exception(i64 48) #14
  %199 = load ptr, ptr %99, align 8, !tbaa !115
  invoke void @_ZN11xercesc_2_530ArrayIndexOutOfBoundsExceptionC2EPKcjNS_10XMLExcepts5CodesEPNS_13MemoryManagerE(ptr noundef nonnull align 8 dereferenceable(48) %198, ptr noundef nonnull @.str, i32 noundef 289, i32 noundef 109, ptr noundef %199)
          to label %190 unwind label %200

200:                                              ; preds = %197
  %201 = landingpad { ptr, i32 }
          cleanup
  tail call void @__cxa_free_exception(ptr %198) #14
  br label %225

202:                                              ; preds = %195
  %203 = zext i32 %183 to i64
  %204 = getelementptr inbounds ptr, ptr %174, i64 %203
  %205 = load ptr, ptr %204, align 8, !tbaa !117
  %206 = zext i32 %184 to i64
  %207 = getelementptr inbounds ptr, ptr %175, i64 %206
  %208 = load ptr, ptr %207, align 8, !tbaa !117
  %209 = icmp eq ptr %205, %208
  br i1 %209, label %176, label %212

210:                                              ; preds = %190
  %211 = landingpad { ptr, i32 }
          cleanup
  br label %225

212:                                              ; preds = %176, %202, %168
  %213 = phi ptr [ null, %168 ], [ %185, %202 ], [ %205, %176 ]
  store ptr getelementptr inbounds ({ [9 x ptr] }, ptr @_ZTVN11xercesc_2_511RefVectorOfINS_7DOMNodeEEE, i64 0, inrange i32 0, i64 2), ptr %5, align 8, !tbaa !77
  %214 = load ptr, ptr %98, align 8, !tbaa !116
  %215 = load ptr, ptr %99, align 8, !tbaa !115
  %216 = load ptr, ptr %215, align 8, !tbaa !77
  %217 = getelementptr inbounds ptr, ptr %216, i64 3
  %218 = load ptr, ptr %217, align 8
  invoke void %218(ptr noundef nonnull align 8 dereferenceable(8) %215, ptr noundef %214)
          to label %219 unwind label %164

219:                                              ; preds = %212
  call void @llvm.lifetime.end.p0(i64 40, ptr nonnull %5) #14
  %220 = load ptr, ptr %24, align 8, !tbaa !116
  %221 = load ptr, ptr %25, align 8, !tbaa !115
  %222 = load ptr, ptr %221, align 8, !tbaa !77
  %223 = getelementptr inbounds ptr, ptr %222, i64 3
  %224 = load ptr, ptr %223, align 8
  tail call void %224(ptr noundef nonnull align 8 dereferenceable(8) %221, ptr noundef %220)
  call void @llvm.lifetime.end.p0(i64 40, ptr nonnull %4) #14
  br label %232

225:                                              ; preds = %193, %200, %210, %166
  %226 = phi { ptr, i32 } [ %167, %166 ], [ %194, %193 ], [ %211, %210 ], [ %201, %200 ]
  invoke void @_ZN11xercesc_2_511RefVectorOfINS_7DOMNodeEED2Ev(ptr noundef nonnull align 8 dereferenceable(40) %5)
          to label %227 unwind label %236

227:                                              ; preds = %164, %225
  %228 = phi { ptr, i32 } [ %226, %225 ], [ %165, %164 ]
  call void @llvm.lifetime.end.p0(i64 40, ptr nonnull %5) #14
  br label %229

229:                                              ; preds = %227, %89
  %230 = phi { ptr, i32 } [ %90, %89 ], [ %228, %227 ]
  invoke void @_ZN11xercesc_2_511RefVectorOfINS_7DOMNodeEED2Ev(ptr noundef nonnull align 8 dereferenceable(40) %4)
          to label %231 unwind label %236

231:                                              ; preds = %229
  call void @llvm.lifetime.end.p0(i64 40, ptr nonnull %4) #14
  br label %234

232:                                              ; preds = %14, %219
  %233 = phi ptr [ %213, %219 ], [ %1, %14 ]
  ret ptr %233

234:                                              ; preds = %231, %12
  %235 = phi { ptr, i32 } [ %13, %12 ], [ %230, %231 ]
  resume { ptr, i32 } %235

236:                                              ; preds = %229, %225
  %237 = landingpad { ptr, i32 }
          catch ptr null
  %238 = extractvalue { ptr, i32 } %237, 0
  call void @__clang_call_terminate(ptr %238) #16
  unreachable
}

; Function Attrs: uwtable
define dso_local void @_ZN11xercesc_2_512DOMRangeImpl6setEndEPKNS_7DOMNodeEm(ptr noundef nonnull align 8 dereferenceable(80) %0, ptr noundef %1, i64 noundef %2) unnamed_addr #5 align 2 personality ptr @__gxx_personality_v0 {
  tail call void @_ZNK11xercesc_2_512DOMRangeImpl12validateNodeEPKNS_7DOMNodeE(ptr noundef nonnull align 8 dereferenceable(80) %0, ptr noundef %1)
  tail call void @_ZNK11xercesc_2_512DOMRangeImpl10checkIndexEPKNS_7DOMNodeEm(ptr nonnull align 8 poison, ptr noundef %1, i64 noundef %2)
  %4 = getelementptr inbounds %"class.xercesc_2_5::DOMRangeImpl", ptr %0, i64 0, i32 6
  %5 = load ptr, ptr %4, align 8, !tbaa !91
  %6 = load ptr, ptr %1, align 8, !tbaa !77
  %7 = getelementptr inbounds ptr, ptr %6, i64 12
  %8 = load ptr, ptr %7, align 8
  %9 = tail call noundef ptr %8(ptr noundef nonnull align 8 dereferenceable(8) %1)
  %10 = icmp eq ptr %5, %9
  br i1 %10, label %26, label %11

11:                                               ; preds = %3
  %12 = load ptr, ptr %4, align 8, !tbaa !91
  %13 = icmp eq ptr %12, null
  %14 = getelementptr inbounds i8, ptr %12, i64 24
  %15 = select i1 %13, ptr null, ptr %14
  %16 = icmp eq ptr %15, %1
  br i1 %16, label %26, label %17

17:                                               ; preds = %11
  %18 = load ptr, ptr %0, align 8, !tbaa !77
  %19 = getelementptr inbounds ptr, ptr %18, i64 14
  %20 = load ptr, ptr %19, align 8
  tail call void %20(ptr noundef nonnull align 8 dereferenceable(80) %0, i1 noundef zeroext false)
  %21 = getelementptr inbounds %"class.xercesc_2_5::DOMRangeImpl", ptr %0, i64 0, i32 5
  store i8 1, ptr %21, align 8, !tbaa !90
  %22 = tail call ptr @__cxa_allocate_exception(i64 24) #14
  invoke void @_ZN11xercesc_2_512DOMExceptionC1EsPKt(ptr noundef nonnull align 8 dereferenceable(24) %22, i16 noundef signext 4, ptr noundef null)
          to label %23 unwind label %24

23:                                               ; preds = %17
  tail call void @__cxa_throw(ptr nonnull %22, ptr nonnull @_ZTIN11xercesc_2_512DOMExceptionE, ptr nonnull @_ZN11xercesc_2_512DOMExceptionD1Ev) #15
  unreachable

24:                                               ; preds = %17
  %25 = landingpad { ptr, i32 }
          cleanup
  tail call void @__cxa_free_exception(ptr %22) #14
  resume { ptr, i32 } %25

26:                                               ; preds = %11, %3
  %27 = getelementptr inbounds %"class.xercesc_2_5::DOMRangeImpl", ptr %0, i64 0, i32 3
  store ptr %1, ptr %27, align 8, !tbaa !88
  %28 = getelementptr inbounds %"class.xercesc_2_5::DOMRangeImpl", ptr %0, i64 0, i32 4
  store i64 %2, ptr %28, align 8, !tbaa !89
  %29 = getelementptr inbounds %"class.xercesc_2_5::DOMRangeImpl", ptr %0, i64 0, i32 1
  %30 = load ptr, ptr %29, align 8, !tbaa !80
  %31 = tail call noundef ptr @_ZNK11xercesc_2_512DOMRangeImpl16commonAncestorOfEPKNS_7DOMNodeES3_(ptr noundef nonnull align 8 dereferenceable(80) %0, ptr noundef nonnull %1, ptr noundef %30)
  %32 = icmp eq ptr %31, null
  br i1 %32, label %33, label %37

33:                                               ; preds = %26
  %34 = load ptr, ptr %0, align 8, !tbaa !77
  %35 = getelementptr inbounds ptr, ptr %34, i64 14
  %36 = load ptr, ptr %35, align 8
  tail call void %36(ptr noundef nonnull align 8 dereferenceable(80) %0, i1 noundef zeroext false)
  br label %37

37:                                               ; preds = %33, %26
  %38 = load ptr, ptr %0, align 8, !tbaa !77
  %39 = getelementptr inbounds ptr, ptr %38, i64 17
  %40 = load ptr, ptr %39, align 8
  %41 = tail call noundef signext i16 %40(ptr noundef nonnull align 8 dereferenceable(80) %0, i32 noundef 3, ptr noundef nonnull %0)
  %42 = icmp eq i16 %41, 1
  br i1 %42, label %43, label %47

43:                                               ; preds = %37
  %44 = load ptr, ptr %0, align 8, !tbaa !77
  %45 = getelementptr inbounds ptr, ptr %44, i64 14
  %46 = load ptr, ptr %45, align 8
  tail call void %46(ptr noundef nonnull align 8 dereferenceable(80) %0, i1 noundef zeroext false)
  br label %49

47:                                               ; preds = %37
  %48 = getelementptr inbounds %"class.xercesc_2_5::DOMRangeImpl", ptr %0, i64 0, i32 5
  store i8 0, ptr %48, align 8, !tbaa !90
  br label %49

49:                                               ; preds = %47, %43
  ret void
}

; Function Attrs: uwtable
define dso_local void @_ZN11xercesc_2_512DOMRangeImpl14setStartBeforeEPKNS_7DOMNodeE(ptr noundef nonnull align 8 dereferenceable(80) %0, ptr noundef %1) unnamed_addr #5 align 2 personality ptr @__gxx_personality_v0 {
  %3 = getelementptr inbounds %"class.xercesc_2_5::DOMRangeImpl", ptr %0, i64 0, i32 7
  %4 = load i8, ptr %3, align 8, !tbaa !92, !range !95, !noundef !96
  %5 = icmp eq i8 %4, 0
  br i1 %5, label %11, label %6

6:                                                ; preds = %2
  %7 = tail call ptr @__cxa_allocate_exception(i64 24) #14
  invoke void @_ZN11xercesc_2_512DOMExceptionC1EsPKt(ptr noundef nonnull align 8 dereferenceable(24) %7, i16 noundef signext 11, ptr noundef null)
          to label %8 unwind label %9

8:                                                ; preds = %6
  tail call void @__cxa_throw(ptr nonnull %7, ptr nonnull @_ZTIN11xercesc_2_512DOMExceptionE, ptr nonnull @_ZN11xercesc_2_512DOMExceptionD1Ev) #15
  unreachable

9:                                                ; preds = %6
  %10 = landingpad { ptr, i32 }
          cleanup
  br label %111

11:                                               ; preds = %2
  %12 = icmp eq ptr %1, null
  br i1 %12, label %43, label %13

13:                                               ; preds = %11
  %14 = load ptr, ptr %1, align 8, !tbaa !77
  %15 = getelementptr inbounds ptr, ptr %14, i64 5
  %16 = load ptr, ptr %15, align 8
  %17 = tail call noundef ptr %16(ptr noundef nonnull align 8 dereferenceable(8) %1)
  %18 = icmp eq ptr %17, null
  br i1 %18, label %30, label %19

19:                                               ; preds = %13, %19
  %20 = phi ptr [ %24, %19 ], [ %1, %13 ]
  %21 = load ptr, ptr %20, align 8, !tbaa !77
  %22 = getelementptr inbounds ptr, ptr %21, i64 5
  %23 = load ptr, ptr %22, align 8
  %24 = tail call noundef ptr %23(ptr noundef nonnull align 8 dereferenceable(8) %20)
  %25 = load ptr, ptr %24, align 8, !tbaa !77
  %26 = getelementptr inbounds ptr, ptr %25, i64 5
  %27 = load ptr, ptr %26, align 8
  %28 = tail call noundef ptr %27(ptr noundef nonnull align 8 dereferenceable(8) %24)
  %29 = icmp eq ptr %28, null
  br i1 %29, label %30, label %19

30:                                               ; preds = %19, %13
  %31 = phi ptr [ %1, %13 ], [ %24, %19 ]
  %32 = load ptr, ptr %31, align 8, !tbaa !77
  %33 = getelementptr inbounds ptr, ptr %32, i64 4
  %34 = load ptr, ptr %33, align 8
  %35 = tail call noundef signext i16 %34(ptr noundef nonnull align 8 dereferenceable(8) %31)
  %36 = sext i16 %35 to i32
  switch i32 %36, label %43 [
    i32 2, label %37
    i32 9, label %37
    i32 11, label %37
  ]

37:                                               ; preds = %30, %30, %30
  %38 = load ptr, ptr %1, align 8, !tbaa !77
  %39 = getelementptr inbounds ptr, ptr %38, i64 4
  %40 = load ptr, ptr %39, align 8
  %41 = tail call noundef signext i16 %40(ptr noundef nonnull align 8 dereferenceable(8) %1)
  %42 = sext i16 %41 to i32
  switch i32 %42, label %48 [
    i32 9, label %43
    i32 11, label %43
    i32 2, label %43
    i32 6, label %43
    i32 12, label %43
  ]

43:                                               ; preds = %37, %37, %37, %37, %37, %30, %11
  %44 = tail call ptr @__cxa_allocate_exception(i64 32) #14
  invoke void @_ZN11xercesc_2_517DOMRangeExceptionC1ENS0_18RangeExceptionCodeEPKt(ptr noundef nonnull align 8 dereferenceable(28) %44, i32 noundef 2, ptr noundef null)
          to label %45 unwind label %46

45:                                               ; preds = %43
  tail call void @__cxa_throw(ptr nonnull %44, ptr nonnull @_ZTIN11xercesc_2_517DOMRangeExceptionE, ptr nonnull @_ZN11xercesc_2_517DOMRangeExceptionD1Ev) #15
  unreachable

46:                                               ; preds = %43
  %47 = landingpad { ptr, i32 }
          cleanup
  br label %111

48:                                               ; preds = %37
  %49 = getelementptr inbounds %"class.xercesc_2_5::DOMRangeImpl", ptr %0, i64 0, i32 6
  %50 = load ptr, ptr %49, align 8, !tbaa !91
  %51 = load ptr, ptr %1, align 8, !tbaa !77
  %52 = getelementptr inbounds ptr, ptr %51, i64 12
  %53 = load ptr, ptr %52, align 8
  %54 = tail call noundef ptr %53(ptr noundef nonnull align 8 dereferenceable(8) %1)
  %55 = icmp eq ptr %50, %54
  br i1 %55, label %71, label %56

56:                                               ; preds = %48
  %57 = load ptr, ptr %49, align 8, !tbaa !91
  %58 = icmp eq ptr %57, null
  %59 = getelementptr inbounds i8, ptr %57, i64 24
  %60 = select i1 %58, ptr null, ptr %59
  %61 = icmp eq ptr %60, %1
  br i1 %61, label %71, label %62

62:                                               ; preds = %56
  %63 = load ptr, ptr %0, align 8, !tbaa !77
  %64 = getelementptr inbounds ptr, ptr %63, i64 14
  %65 = load ptr, ptr %64, align 8
  tail call void %65(ptr noundef nonnull align 8 dereferenceable(80) %0, i1 noundef zeroext true)
  %66 = getelementptr inbounds %"class.xercesc_2_5::DOMRangeImpl", ptr %0, i64 0, i32 5
  store i8 1, ptr %66, align 8, !tbaa !90
  %67 = tail call ptr @__cxa_allocate_exception(i64 24) #14
  invoke void @_ZN11xercesc_2_512DOMExceptionC1EsPKt(ptr noundef nonnull align 8 dereferenceable(24) %67, i16 noundef signext 4, ptr noundef null)
          to label %68 unwind label %69

68:                                               ; preds = %62
  tail call void @__cxa_throw(ptr nonnull %67, ptr nonnull @_ZTIN11xercesc_2_512DOMExceptionE, ptr nonnull @_ZN11xercesc_2_512DOMExceptionD1Ev) #15
  unreachable

69:                                               ; preds = %62
  %70 = landingpad { ptr, i32 }
          cleanup
  br label %111

71:                                               ; preds = %56, %48
  %72 = load ptr, ptr %1, align 8, !tbaa !77
  %73 = getelementptr inbounds ptr, ptr %72, i64 5
  %74 = load ptr, ptr %73, align 8
  %75 = tail call noundef ptr %74(ptr noundef nonnull align 8 dereferenceable(8) %1)
  %76 = getelementptr inbounds %"class.xercesc_2_5::DOMRangeImpl", ptr %0, i64 0, i32 1
  store ptr %75, ptr %76, align 8, !tbaa !80
  br label %85

77:                                               ; preds = %85
  %78 = icmp eq i64 %88, 0
  %79 = select i1 %78, i64 0, i64 %87
  %80 = getelementptr inbounds %"class.xercesc_2_5::DOMRangeImpl", ptr %0, i64 0, i32 2
  store i64 %79, ptr %80, align 8
  %81 = getelementptr inbounds %"class.xercesc_2_5::DOMRangeImpl", ptr %0, i64 0, i32 3
  %82 = load ptr, ptr %81, align 8, !tbaa !88
  %83 = tail call noundef ptr @_ZNK11xercesc_2_512DOMRangeImpl16commonAncestorOfEPKNS_7DOMNodeES3_(ptr noundef nonnull align 8 dereferenceable(80) %0, ptr noundef nonnull %1, ptr noundef %82)
  %84 = icmp eq ptr %83, null
  br i1 %84, label %94, label %98

85:                                               ; preds = %71, %85
  %86 = phi ptr [ %1, %71 ], [ %92, %85 ]
  %87 = phi i64 [ 0, %71 ], [ %88, %85 ]
  %88 = add i64 %87, 1
  %89 = load ptr, ptr %86, align 8, !tbaa !77
  %90 = getelementptr inbounds ptr, ptr %89, i64 9
  %91 = load ptr, ptr %90, align 8
  %92 = tail call noundef ptr %91(ptr noundef nonnull align 8 dereferenceable(8) %86)
  %93 = icmp eq ptr %92, null
  br i1 %93, label %77, label %85

94:                                               ; preds = %77
  %95 = load ptr, ptr %0, align 8, !tbaa !77
  %96 = getelementptr inbounds ptr, ptr %95, i64 14
  %97 = load ptr, ptr %96, align 8
  tail call void %97(ptr noundef nonnull align 8 dereferenceable(80) %0, i1 noundef zeroext true)
  br label %98

98:                                               ; preds = %94, %77
  %99 = load ptr, ptr %0, align 8, !tbaa !77
  %100 = getelementptr inbounds ptr, ptr %99, i64 17
  %101 = load ptr, ptr %100, align 8
  %102 = tail call noundef signext i16 %101(ptr noundef nonnull align 8 dereferenceable(80) %0, i32 noundef 3, ptr noundef nonnull %0)
  %103 = icmp eq i16 %102, 1
  br i1 %103, label %104, label %108

104:                                              ; preds = %98
  %105 = load ptr, ptr %0, align 8, !tbaa !77
  %106 = getelementptr inbounds ptr, ptr %105, i64 14
  %107 = load ptr, ptr %106, align 8
  tail call void %107(ptr noundef nonnull align 8 dereferenceable(80) %0, i1 noundef zeroext true)
  br label %110

108:                                              ; preds = %98
  %109 = getelementptr inbounds %"class.xercesc_2_5::DOMRangeImpl", ptr %0, i64 0, i32 5
  store i8 0, ptr %109, align 8, !tbaa !90
  br label %110

110:                                              ; preds = %108, %104
  ret void

111:                                              ; preds = %69, %46, %9
  %112 = phi ptr [ %67, %69 ], [ %44, %46 ], [ %7, %9 ]
  %113 = phi { ptr, i32 } [ %70, %69 ], [ %47, %46 ], [ %10, %9 ]
  tail call void @__cxa_free_exception(ptr %112) #14
  resume { ptr, i32 } %113
}

; Function Attrs: uwtable
define dso_local noundef zeroext i1 @_ZNK11xercesc_2_512DOMRangeImpl21hasLegalRootContainerEPKNS_7DOMNodeE(ptr nocapture noundef nonnull readnone align 8 dereferenceable(80) %0, ptr noundef %1) local_unnamed_addr #5 align 2 {
  %3 = icmp eq ptr %1, null
  br i1 %3, label %33, label %4

4:                                                ; preds = %2
  %5 = load ptr, ptr %1, align 8, !tbaa !77
  %6 = getelementptr inbounds ptr, ptr %5, i64 5
  %7 = load ptr, ptr %6, align 8
  %8 = tail call noundef ptr %7(ptr noundef nonnull align 8 dereferenceable(8) %1)
  %9 = icmp eq ptr %8, null
  br i1 %9, label %21, label %10

10:                                               ; preds = %4, %10
  %11 = phi ptr [ %15, %10 ], [ %1, %4 ]
  %12 = load ptr, ptr %11, align 8, !tbaa !77
  %13 = getelementptr inbounds ptr, ptr %12, i64 5
  %14 = load ptr, ptr %13, align 8
  %15 = tail call noundef ptr %14(ptr noundef nonnull align 8 dereferenceable(8) %11)
  %16 = load ptr, ptr %15, align 8, !tbaa !77
  %17 = getelementptr inbounds ptr, ptr %16, i64 5
  %18 = load ptr, ptr %17, align 8
  %19 = tail call noundef ptr %18(ptr noundef nonnull align 8 dereferenceable(8) %15)
  %20 = icmp eq ptr %19, null
  br i1 %20, label %21, label %10

21:                                               ; preds = %10, %4
  %22 = phi ptr [ %1, %4 ], [ %15, %10 ]
  %23 = load ptr, ptr %22, align 8, !tbaa !77
  %24 = getelementptr inbounds ptr, ptr %23, i64 4
  %25 = load ptr, ptr %24, align 8
  %26 = tail call noundef signext i16 %25(ptr noundef nonnull align 8 dereferenceable(8) %22)
  %27 = icmp ult i16 %26, 12
  br i1 %27, label %28, label %33

28:                                               ; preds = %21
  %29 = trunc i16 %26 to i12
  %30 = lshr i12 -1532, %29
  %31 = and i12 %30, 1
  %32 = icmp ne i12 %31, 0
  br label %33

33:                                               ; preds = %21, %28, %2
  %34 = phi i1 [ false, %2 ], [ %32, %28 ], [ false, %21 ]
  ret i1 %34
}

; Function Attrs: uwtable
define dso_local noundef zeroext i1 @_ZNK11xercesc_2_512DOMRangeImpl20isLegalContainedNodeEPKNS_7DOMNodeE(ptr nocapture noundef nonnull readnone align 8 dereferenceable(80) %0, ptr noundef %1) local_unnamed_addr #5 align 2 {
  %3 = icmp eq ptr %1, null
  br i1 %3, label %15, label %4

4:                                                ; preds = %2
  %5 = load ptr, ptr %1, align 8, !tbaa !77
  %6 = getelementptr inbounds ptr, ptr %5, i64 4
  %7 = load ptr, ptr %6, align 8
  %8 = tail call noundef signext i16 %7(ptr noundef nonnull align 8 dereferenceable(8) %1)
  %9 = icmp ult i16 %8, 13
  br i1 %9, label %10, label %15

10:                                               ; preds = %4
  %11 = trunc i16 %8 to i13
  %12 = lshr i13 1467, %11
  %13 = and i13 %12, 1
  %14 = icmp ne i13 %13, 0
  br label %15

15:                                               ; preds = %4, %10, %2
  %16 = phi i1 [ false, %2 ], [ %14, %10 ], [ true, %4 ]
  ret i1 %16
}

declare void @_ZN11xercesc_2_517DOMRangeExceptionC1ENS0_18RangeExceptionCodeEPKt(ptr noundef nonnull align 8 dereferenceable(28), i32 noundef, ptr noundef) unnamed_addr #6

declare void @_ZN11xercesc_2_517DOMRangeExceptionD1Ev(ptr noundef nonnull align 8 dereferenceable(28)) unnamed_addr #6

; Function Attrs: mustprogress nocallback nofree nosync nounwind willreturn memory(argmem: readwrite)
declare void @llvm.lifetime.start.p0(i64 immarg, ptr nocapture) #7

; Function Attrs: mustprogress nocallback nofree nosync nounwind willreturn memory(argmem: readwrite)
declare void @llvm.lifetime.end.p0(i64 immarg, ptr nocapture) #7

; Function Attrs: uwtable
define dso_local void @_ZN11xercesc_2_512DOMRangeImpl13setStartAfterEPKNS_7DOMNodeE(ptr noundef nonnull align 8 dereferenceable(80) %0, ptr noundef %1) unnamed_addr #5 align 2 personality ptr @__gxx_personality_v0 {
  %3 = getelementptr inbounds %"class.xercesc_2_5::DOMRangeImpl", ptr %0, i64 0, i32 7
  %4 = load i8, ptr %3, align 8, !tbaa !92, !range !95, !noundef !96
  %5 = icmp eq i8 %4, 0
  br i1 %5, label %11, label %6

6:                                                ; preds = %2
  %7 = tail call ptr @__cxa_allocate_exception(i64 24) #14
  invoke void @_ZN11xercesc_2_512DOMExceptionC1EsPKt(ptr noundef nonnull align 8 dereferenceable(24) %7, i16 noundef signext 11, ptr noundef null)
          to label %8 unwind label %9

8:                                                ; preds = %6
  tail call void @__cxa_throw(ptr nonnull %7, ptr nonnull @_ZTIN11xercesc_2_512DOMExceptionE, ptr nonnull @_ZN11xercesc_2_512DOMExceptionD1Ev) #15
  unreachable

9:                                                ; preds = %6
  %10 = landingpad { ptr, i32 }
          cleanup
  br label %109

11:                                               ; preds = %2
  %12 = icmp eq ptr %1, null
  br i1 %12, label %43, label %13

13:                                               ; preds = %11
  %14 = load ptr, ptr %1, align 8, !tbaa !77
  %15 = getelementptr inbounds ptr, ptr %14, i64 5
  %16 = load ptr, ptr %15, align 8
  %17 = tail call noundef ptr %16(ptr noundef nonnull align 8 dereferenceable(8) %1)
  %18 = icmp eq ptr %17, null
  br i1 %18, label %30, label %19

19:                                               ; preds = %13, %19
  %20 = phi ptr [ %24, %19 ], [ %1, %13 ]
  %21 = load ptr, ptr %20, align 8, !tbaa !77
  %22 = getelementptr inbounds ptr, ptr %21, i64 5
  %23 = load ptr, ptr %22, align 8
  %24 = tail call noundef ptr %23(ptr noundef nonnull align 8 dereferenceable(8) %20)
  %25 = load ptr, ptr %24, align 8, !tbaa !77
  %26 = getelementptr inbounds ptr, ptr %25, i64 5
  %27 = load ptr, ptr %26, align 8
  %28 = tail call noundef ptr %27(ptr noundef nonnull align 8 dereferenceable(8) %24)
  %29 = icmp eq ptr %28, null
  br i1 %29, label %30, label %19

30:                                               ; preds = %19, %13
  %31 = phi ptr [ %1, %13 ], [ %24, %19 ]
  %32 = load ptr, ptr %31, align 8, !tbaa !77
  %33 = getelementptr inbounds ptr, ptr %32, i64 4
  %34 = load ptr, ptr %33, align 8
  %35 = tail call noundef signext i16 %34(ptr noundef nonnull align 8 dereferenceable(8) %31)
  %36 = sext i16 %35 to i32
  switch i32 %36, label %43 [
    i32 2, label %37
    i32 9, label %37
    i32 11, label %37
  ]

37:                                               ; preds = %30, %30, %30
  %38 = load ptr, ptr %1, align 8, !tbaa !77
  %39 = getelementptr inbounds ptr, ptr %38, i64 4
  %40 = load ptr, ptr %39, align 8
  %41 = tail call noundef signext i16 %40(ptr noundef nonnull align 8 dereferenceable(8) %1)
  %42 = sext i16 %41 to i32
  switch i32 %42, label %48 [
    i32 9, label %43
    i32 11, label %43
    i32 2, label %43
    i32 6, label %43
    i32 12, label %43
  ]

43:                                               ; preds = %37, %37, %37, %37, %37, %30, %11
  %44 = tail call ptr @__cxa_allocate_exception(i64 32) #14
  invoke void @_ZN11xercesc_2_517DOMRangeExceptionC1ENS0_18RangeExceptionCodeEPKt(ptr noundef nonnull align 8 dereferenceable(28) %44, i32 noundef 2, ptr noundef null)
          to label %45 unwind label %46

45:                                               ; preds = %43
  tail call void @__cxa_throw(ptr nonnull %44, ptr nonnull @_ZTIN11xercesc_2_517DOMRangeExceptionE, ptr nonnull @_ZN11xercesc_2_517DOMRangeExceptionD1Ev) #15
  unreachable

46:                                               ; preds = %43
  %47 = landingpad { ptr, i32 }
          cleanup
  br label %109

48:                                               ; preds = %37
  %49 = getelementptr inbounds %"class.xercesc_2_5::DOMRangeImpl", ptr %0, i64 0, i32 6
  %50 = load ptr, ptr %49, align 8, !tbaa !91
  %51 = load ptr, ptr %1, align 8, !tbaa !77
  %52 = getelementptr inbounds ptr, ptr %51, i64 12
  %53 = load ptr, ptr %52, align 8
  %54 = tail call noundef ptr %53(ptr noundef nonnull align 8 dereferenceable(8) %1)
  %55 = icmp eq ptr %50, %54
  br i1 %55, label %71, label %56

56:                                               ; preds = %48
  %57 = load ptr, ptr %49, align 8, !tbaa !91
  %58 = icmp eq ptr %57, null
  %59 = getelementptr inbounds i8, ptr %57, i64 24
  %60 = select i1 %58, ptr null, ptr %59
  %61 = icmp eq ptr %60, %1
  br i1 %61, label %71, label %62

62:                                               ; preds = %56
  %63 = load ptr, ptr %0, align 8, !tbaa !77
  %64 = getelementptr inbounds ptr, ptr %63, i64 14
  %65 = load ptr, ptr %64, align 8
  tail call void %65(ptr noundef nonnull align 8 dereferenceable(80) %0, i1 noundef zeroext true)
  %66 = getelementptr inbounds %"class.xercesc_2_5::DOMRangeImpl", ptr %0, i64 0, i32 5
  store i8 1, ptr %66, align 8, !tbaa !90
  %67 = tail call ptr @__cxa_allocate_exception(i64 24) #14
  invoke void @_ZN11xercesc_2_512DOMExceptionC1EsPKt(ptr noundef nonnull align 8 dereferenceable(24) %67, i16 noundef signext 4, ptr noundef null)
          to label %68 unwind label %69

68:                                               ; preds = %62
  tail call void @__cxa_throw(ptr nonnull %67, ptr nonnull @_ZTIN11xercesc_2_512DOMExceptionE, ptr nonnull @_ZN11xercesc_2_512DOMExceptionD1Ev) #15
  unreachable

69:                                               ; preds = %62
  %70 = landingpad { ptr, i32 }
          cleanup
  br label %109

71:                                               ; preds = %56, %48
  %72 = load ptr, ptr %1, align 8, !tbaa !77
  %73 = getelementptr inbounds ptr, ptr %72, i64 5
  %74 = load ptr, ptr %73, align 8
  %75 = tail call noundef ptr %74(ptr noundef nonnull align 8 dereferenceable(8) %1)
  %76 = getelementptr inbounds %"class.xercesc_2_5::DOMRangeImpl", ptr %0, i64 0, i32 1
  store ptr %75, ptr %76, align 8, !tbaa !80
  br label %83

77:                                               ; preds = %83
  %78 = getelementptr inbounds %"class.xercesc_2_5::DOMRangeImpl", ptr %0, i64 0, i32 2
  store i64 %86, ptr %78, align 8, !tbaa !87
  %79 = getelementptr inbounds %"class.xercesc_2_5::DOMRangeImpl", ptr %0, i64 0, i32 3
  %80 = load ptr, ptr %79, align 8, !tbaa !88
  %81 = tail call noundef ptr @_ZNK11xercesc_2_512DOMRangeImpl16commonAncestorOfEPKNS_7DOMNodeES3_(ptr noundef nonnull align 8 dereferenceable(80) %0, ptr noundef nonnull %1, ptr noundef %80)
  %82 = icmp eq ptr %81, null
  br i1 %82, label %92, label %96

83:                                               ; preds = %71, %83
  %84 = phi ptr [ %1, %71 ], [ %90, %83 ]
  %85 = phi i64 [ 0, %71 ], [ %86, %83 ]
  %86 = add i64 %85, 1
  %87 = load ptr, ptr %84, align 8, !tbaa !77
  %88 = getelementptr inbounds ptr, ptr %87, i64 9
  %89 = load ptr, ptr %88, align 8
  %90 = tail call noundef ptr %89(ptr noundef nonnull align 8 dereferenceable(8) %84)
  %91 = icmp eq ptr %90, null
  br i1 %91, label %77, label %83

92:                                               ; preds = %77
  %93 = load ptr, ptr %0, align 8, !tbaa !77
  %94 = getelementptr inbounds ptr, ptr %93, i64 14
  %95 = load ptr, ptr %94, align 8
  tail call void %95(ptr noundef nonnull align 8 dereferenceable(80) %0, i1 noundef zeroext true)
  br label %96

96:                                               ; preds = %92, %77
  %97 = load ptr, ptr %0, align 8, !tbaa !77
  %98 = getelementptr inbounds ptr, ptr %97, i64 17
  %99 = load ptr, ptr %98, align 8
  %100 = tail call noundef signext i16 %99(ptr noundef nonnull align 8 dereferenceable(80) %0, i32 noundef 3, ptr noundef nonnull %0)
  %101 = icmp eq i16 %100, 1
  br i1 %101, label %102, label %106

102:                                              ; preds = %96
  %103 = load ptr, ptr %0, align 8, !tbaa !77
  %104 = getelementptr inbounds ptr, ptr %103, i64 14
  %105 = load ptr, ptr %104, align 8
  tail call void %105(ptr noundef nonnull align 8 dereferenceable(80) %0, i1 noundef zeroext true)
  br label %108

106:                                              ; preds = %96
  %107 = getelementptr inbounds %"class.xercesc_2_5::DOMRangeImpl", ptr %0, i64 0, i32 5
  store i8 0, ptr %107, align 8, !tbaa !90
  br label %108

108:                                              ; preds = %106, %102
  ret void

109:                                              ; preds = %69, %46, %9
  %110 = phi ptr [ %67, %69 ], [ %44, %46 ], [ %7, %9 ]
  %111 = phi { ptr, i32 } [ %70, %69 ], [ %47, %46 ], [ %10, %9 ]
  tail call void @__cxa_free_exception(ptr %110) #14
  resume { ptr, i32 } %111
}

; Function Attrs: uwtable
define dso_local void @_ZN11xercesc_2_512DOMRangeImpl12setEndBeforeEPKNS_7DOMNodeE(ptr noundef nonnull align 8 dereferenceable(80) %0, ptr noundef %1) unnamed_addr #5 align 2 personality ptr @__gxx_personality_v0 {
  %3 = getelementptr inbounds %"class.xercesc_2_5::DOMRangeImpl", ptr %0, i64 0, i32 7
  %4 = load i8, ptr %3, align 8, !tbaa !92, !range !95, !noundef !96
  %5 = icmp eq i8 %4, 0
  br i1 %5, label %11, label %6

6:                                                ; preds = %2
  %7 = tail call ptr @__cxa_allocate_exception(i64 24) #14
  invoke void @_ZN11xercesc_2_512DOMExceptionC1EsPKt(ptr noundef nonnull align 8 dereferenceable(24) %7, i16 noundef signext 11, ptr noundef null)
          to label %8 unwind label %9

8:                                                ; preds = %6
  tail call void @__cxa_throw(ptr nonnull %7, ptr nonnull @_ZTIN11xercesc_2_512DOMExceptionE, ptr nonnull @_ZN11xercesc_2_512DOMExceptionD1Ev) #15
  unreachable

9:                                                ; preds = %6
  %10 = landingpad { ptr, i32 }
          cleanup
  br label %111

11:                                               ; preds = %2
  %12 = icmp eq ptr %1, null
  br i1 %12, label %43, label %13

13:                                               ; preds = %11
  %14 = load ptr, ptr %1, align 8, !tbaa !77
  %15 = getelementptr inbounds ptr, ptr %14, i64 5
  %16 = load ptr, ptr %15, align 8
  %17 = tail call noundef ptr %16(ptr noundef nonnull align 8 dereferenceable(8) %1)
  %18 = icmp eq ptr %17, null
  br i1 %18, label %30, label %19

19:                                               ; preds = %13, %19
  %20 = phi ptr [ %24, %19 ], [ %1, %13 ]
  %21 = load ptr, ptr %20, align 8, !tbaa !77
  %22 = getelementptr inbounds ptr, ptr %21, i64 5
  %23 = load ptr, ptr %22, align 8
  %24 = tail call noundef ptr %23(ptr noundef nonnull align 8 dereferenceable(8) %20)
  %25 = load ptr, ptr %24, align 8, !tbaa !77
  %26 = getelementptr inbounds ptr, ptr %25, i64 5
  %27 = load ptr, ptr %26, align 8
  %28 = tail call noundef ptr %27(ptr noundef nonnull align 8 dereferenceable(8) %24)
  %29 = icmp eq ptr %28, null
  br i1 %29, label %30, label %19

30:                                               ; preds = %19, %13
  %31 = phi ptr [ %1, %13 ], [ %24, %19 ]
  %32 = load ptr, ptr %31, align 8, !tbaa !77
  %33 = getelementptr inbounds ptr, ptr %32, i64 4
  %34 = load ptr, ptr %33, align 8
  %35 = tail call noundef signext i16 %34(ptr noundef nonnull align 8 dereferenceable(8) %31)
  %36 = sext i16 %35 to i32
  switch i32 %36, label %43 [
    i32 2, label %37
    i32 9, label %37
    i32 11, label %37
  ]

37:                                               ; preds = %30, %30, %30
  %38 = load ptr, ptr %1, align 8, !tbaa !77
  %39 = getelementptr inbounds ptr, ptr %38, i64 4
  %40 = load ptr, ptr %39, align 8
  %41 = tail call noundef signext i16 %40(ptr noundef nonnull align 8 dereferenceable(8) %1)
  %42 = sext i16 %41 to i32
  switch i32 %42, label %48 [
    i32 9, label %43
    i32 11, label %43
    i32 2, label %43
    i32 6, label %43
    i32 12, label %43
  ]

43:                                               ; preds = %37, %37, %37, %37, %37, %30, %11
  %44 = tail call ptr @__cxa_allocate_exception(i64 32) #14
  invoke void @_ZN11xercesc_2_517DOMRangeExceptionC1ENS0_18RangeExceptionCodeEPKt(ptr noundef nonnull align 8 dereferenceable(28) %44, i32 noundef 2, ptr noundef null)
          to label %45 unwind label %46

45:                                               ; preds = %43
  tail call void @__cxa_throw(ptr nonnull %44, ptr nonnull @_ZTIN11xercesc_2_517DOMRangeExceptionE, ptr nonnull @_ZN11xercesc_2_517DOMRangeExceptionD1Ev) #15
  unreachable

46:                                               ; preds = %43
  %47 = landingpad { ptr, i32 }
          cleanup
  br label %111

48:                                               ; preds = %37
  %49 = getelementptr inbounds %"class.xercesc_2_5::DOMRangeImpl", ptr %0, i64 0, i32 6
  %50 = load ptr, ptr %49, align 8, !tbaa !91
  %51 = load ptr, ptr %1, align 8, !tbaa !77
  %52 = getelementptr inbounds ptr, ptr %51, i64 12
  %53 = load ptr, ptr %52, align 8
  %54 = tail call noundef ptr %53(ptr noundef nonnull align 8 dereferenceable(8) %1)
  %55 = icmp eq ptr %50, %54
  br i1 %55, label %71, label %56

56:                                               ; preds = %48
  %57 = load ptr, ptr %49, align 8, !tbaa !91
  %58 = icmp eq ptr %57, null
  %59 = getelementptr inbounds i8, ptr %57, i64 24
  %60 = select i1 %58, ptr null, ptr %59
  %61 = icmp eq ptr %60, %1
  br i1 %61, label %71, label %62

62:                                               ; preds = %56
  %63 = load ptr, ptr %0, align 8, !tbaa !77
  %64 = getelementptr inbounds ptr, ptr %63, i64 14
  %65 = load ptr, ptr %64, align 8
  tail call void %65(ptr noundef nonnull align 8 dereferenceable(80) %0, i1 noundef zeroext false)
  %66 = getelementptr inbounds %"class.xercesc_2_5::DOMRangeImpl", ptr %0, i64 0, i32 5
  store i8 1, ptr %66, align 8, !tbaa !90
  %67 = tail call ptr @__cxa_allocate_exception(i64 24) #14
  invoke void @_ZN11xercesc_2_512DOMExceptionC1EsPKt(ptr noundef nonnull align 8 dereferenceable(24) %67, i16 noundef signext 4, ptr noundef null)
          to label %68 unwind label %69

68:                                               ; preds = %62
  tail call void @__cxa_throw(ptr nonnull %67, ptr nonnull @_ZTIN11xercesc_2_512DOMExceptionE, ptr nonnull @_ZN11xercesc_2_512DOMExceptionD1Ev) #15
  unreachable

69:                                               ; preds = %62
  %70 = landingpad { ptr, i32 }
          cleanup
  br label %111

71:                                               ; preds = %56, %48
  %72 = load ptr, ptr %1, align 8, !tbaa !77
  %73 = getelementptr inbounds ptr, ptr %72, i64 5
  %74 = load ptr, ptr %73, align 8
  %75 = tail call noundef ptr %74(ptr noundef nonnull align 8 dereferenceable(8) %1)
  %76 = getelementptr inbounds %"class.xercesc_2_5::DOMRangeImpl", ptr %0, i64 0, i32 3
  store ptr %75, ptr %76, align 8, !tbaa !88
  br label %85

77:                                               ; preds = %85
  %78 = icmp eq i64 %92, 0
  %79 = select i1 %78, i64 0, i64 %87
  %80 = getelementptr inbounds %"class.xercesc_2_5::DOMRangeImpl", ptr %0, i64 0, i32 4
  store i64 %79, ptr %80, align 8
  %81 = getelementptr inbounds %"class.xercesc_2_5::DOMRangeImpl", ptr %0, i64 0, i32 1
  %82 = load ptr, ptr %81, align 8, !tbaa !80
  %83 = tail call noundef ptr @_ZNK11xercesc_2_512DOMRangeImpl16commonAncestorOfEPKNS_7DOMNodeES3_(ptr noundef nonnull align 8 dereferenceable(80) %0, ptr noundef nonnull %1, ptr noundef %82)
  %84 = icmp eq ptr %83, null
  br i1 %84, label %94, label %98

85:                                               ; preds = %71, %85
  %86 = phi ptr [ %1, %71 ], [ %91, %85 ]
  %87 = phi i64 [ 0, %71 ], [ %92, %85 ]
  %88 = load ptr, ptr %86, align 8, !tbaa !77
  %89 = getelementptr inbounds ptr, ptr %88, i64 9
  %90 = load ptr, ptr %89, align 8
  %91 = tail call noundef ptr %90(ptr noundef nonnull align 8 dereferenceable(8) %86)
  %92 = add i64 %87, 1
  %93 = icmp eq ptr %91, null
  br i1 %93, label %77, label %85

94:                                               ; preds = %77
  %95 = load ptr, ptr %0, align 8, !tbaa !77
  %96 = getelementptr inbounds ptr, ptr %95, i64 14
  %97 = load ptr, ptr %96, align 8
  tail call void %97(ptr noundef nonnull align 8 dereferenceable(80) %0, i1 noundef zeroext false)
  br label %98

98:                                               ; preds = %94, %77
  %99 = load ptr, ptr %0, align 8, !tbaa !77
  %100 = getelementptr inbounds ptr, ptr %99, i64 17
  %101 = load ptr, ptr %100, align 8
  %102 = tail call noundef signext i16 %101(ptr noundef nonnull align 8 dereferenceable(80) %0, i32 noundef 3, ptr noundef nonnull %0)
  %103 = icmp eq i16 %102, 1
  br i1 %103, label %104, label %108

104:                                              ; preds = %98
  %105 = load ptr, ptr %0, align 8, !tbaa !77
  %106 = getelementptr inbounds ptr, ptr %105, i64 14
  %107 = load ptr, ptr %106, align 8
  tail call void %107(ptr noundef nonnull align 8 dereferenceable(80) %0, i1 noundef zeroext false)
  br label %110

108:                                              ; preds = %98
  %109 = getelementptr inbounds %"class.xercesc_2_5::DOMRangeImpl", ptr %0, i64 0, i32 5
  store i8 0, ptr %109, align 8, !tbaa !90
  br label %110

110:                                              ; preds = %108, %104
  ret void

111:                                              ; preds = %69, %46, %9
  %112 = phi ptr [ %67, %69 ], [ %44, %46 ], [ %7, %9 ]
  %113 = phi { ptr, i32 } [ %70, %69 ], [ %47, %46 ], [ %10, %9 ]
  tail call void @__cxa_free_exception(ptr %112) #14
  resume { ptr, i32 } %113
}

; Function Attrs: uwtable
define dso_local void @_ZN11xercesc_2_512DOMRangeImpl11setEndAfterEPKNS_7DOMNodeE(ptr noundef nonnull align 8 dereferenceable(80) %0, ptr noundef %1) unnamed_addr #5 align 2 personality ptr @__gxx_personality_v0 {
  %3 = getelementptr inbounds %"class.xercesc_2_5::DOMRangeImpl", ptr %0, i64 0, i32 7
  %4 = load i8, ptr %3, align 8, !tbaa !92, !range !95, !noundef !96
  %5 = icmp eq i8 %4, 0
  br i1 %5, label %11, label %6

6:                                                ; preds = %2
  %7 = tail call ptr @__cxa_allocate_exception(i64 24) #14
  invoke void @_ZN11xercesc_2_512DOMExceptionC1EsPKt(ptr noundef nonnull align 8 dereferenceable(24) %7, i16 noundef signext 11, ptr noundef null)
          to label %8 unwind label %9

8:                                                ; preds = %6
  tail call void @__cxa_throw(ptr nonnull %7, ptr nonnull @_ZTIN11xercesc_2_512DOMExceptionE, ptr nonnull @_ZN11xercesc_2_512DOMExceptionD1Ev) #15
  unreachable

9:                                                ; preds = %6
  %10 = landingpad { ptr, i32 }
          cleanup
  br label %109

11:                                               ; preds = %2
  %12 = icmp eq ptr %1, null
  br i1 %12, label %43, label %13

13:                                               ; preds = %11
  %14 = load ptr, ptr %1, align 8, !tbaa !77
  %15 = getelementptr inbounds ptr, ptr %14, i64 5
  %16 = load ptr, ptr %15, align 8
  %17 = tail call noundef ptr %16(ptr noundef nonnull align 8 dereferenceable(8) %1)
  %18 = icmp eq ptr %17, null
  br i1 %18, label %30, label %19

19:                                               ; preds = %13, %19
  %20 = phi ptr [ %24, %19 ], [ %1, %13 ]
  %21 = load ptr, ptr %20, align 8, !tbaa !77
  %22 = getelementptr inbounds ptr, ptr %21, i64 5
  %23 = load ptr, ptr %22, align 8
  %24 = tail call noundef ptr %23(ptr noundef nonnull align 8 dereferenceable(8) %20)
  %25 = load ptr, ptr %24, align 8, !tbaa !77
  %26 = getelementptr inbounds ptr, ptr %25, i64 5
  %27 = load ptr, ptr %26, align 8
  %28 = tail call noundef ptr %27(ptr noundef nonnull align 8 dereferenceable(8) %24)
  %29 = icmp eq ptr %28, null
  br i1 %29, label %30, label %19

30:                                               ; preds = %19, %13
  %31 = phi ptr [ %1, %13 ], [ %24, %19 ]
  %32 = load ptr, ptr %31, align 8, !tbaa !77
  %33 = getelementptr inbounds ptr, ptr %32, i64 4
  %34 = load ptr, ptr %33, align 8
  %35 = tail call noundef signext i16 %34(ptr noundef nonnull align 8 dereferenceable(8) %31)
  %36 = sext i16 %35 to i32
  switch i32 %36, label %43 [
    i32 2, label %37
    i32 9, label %37
    i32 11, label %37
  ]

37:                                               ; preds = %30, %30, %30
  %38 = load ptr, ptr %1, align 8, !tbaa !77
  %39 = getelementptr inbounds ptr, ptr %38, i64 4
  %40 = load ptr, ptr %39, align 8
  %41 = tail call noundef signext i16 %40(ptr noundef nonnull align 8 dereferenceable(8) %1)
  %42 = sext i16 %41 to i32
  switch i32 %42, label %48 [
    i32 9, label %43
    i32 11, label %43
    i32 2, label %43
    i32 6, label %43
    i32 12, label %43
  ]

43:                                               ; preds = %37, %37, %37, %37, %37, %30, %11
  %44 = tail call ptr @__cxa_allocate_exception(i64 32) #14
  invoke void @_ZN11xercesc_2_517DOMRangeExceptionC1ENS0_18RangeExceptionCodeEPKt(ptr noundef nonnull align 8 dereferenceable(28) %44, i32 noundef 2, ptr noundef null)
          to label %45 unwind label %46

45:                                               ; preds = %43
  tail call void @__cxa_throw(ptr nonnull %44, ptr nonnull @_ZTIN11xercesc_2_517DOMRangeExceptionE, ptr nonnull @_ZN11xercesc_2_517DOMRangeExceptionD1Ev) #15
  unreachable

46:                                               ; preds = %43
  %47 = landingpad { ptr, i32 }
          cleanup
  br label %109

48:                                               ; preds = %37
  %49 = getelementptr inbounds %"class.xercesc_2_5::DOMRangeImpl", ptr %0, i64 0, i32 6
  %50 = load ptr, ptr %49, align 8, !tbaa !91
  %51 = load ptr, ptr %1, align 8, !tbaa !77
  %52 = getelementptr inbounds ptr, ptr %51, i64 12
  %53 = load ptr, ptr %52, align 8
  %54 = tail call noundef ptr %53(ptr noundef nonnull align 8 dereferenceable(8) %1)
  %55 = icmp eq ptr %50, %54
  br i1 %55, label %71, label %56

56:                                               ; preds = %48
  %57 = load ptr, ptr %49, align 8, !tbaa !91
  %58 = icmp eq ptr %57, null
  %59 = getelementptr inbounds i8, ptr %57, i64 24
  %60 = select i1 %58, ptr null, ptr %59
  %61 = icmp eq ptr %60, %1
  br i1 %61, label %71, label %62

62:                                               ; preds = %56
  %63 = load ptr, ptr %0, align 8, !tbaa !77
  %64 = getelementptr inbounds ptr, ptr %63, i64 14
  %65 = load ptr, ptr %64, align 8
  tail call void %65(ptr noundef nonnull align 8 dereferenceable(80) %0, i1 noundef zeroext false)
  %66 = getelementptr inbounds %"class.xercesc_2_5::DOMRangeImpl", ptr %0, i64 0, i32 5
  store i8 1, ptr %66, align 8, !tbaa !90
  %67 = tail call ptr @__cxa_allocate_exception(i64 24) #14
  invoke void @_ZN11xercesc_2_512DOMExceptionC1EsPKt(ptr noundef nonnull align 8 dereferenceable(24) %67, i16 noundef signext 4, ptr noundef null)
          to label %68 unwind label %69

68:                                               ; preds = %62
  tail call void @__cxa_throw(ptr nonnull %67, ptr nonnull @_ZTIN11xercesc_2_512DOMExceptionE, ptr nonnull @_ZN11xercesc_2_512DOMExceptionD1Ev) #15
  unreachable

69:                                               ; preds = %62
  %70 = landingpad { ptr, i32 }
          cleanup
  br label %109

71:                                               ; preds = %56, %48
  %72 = load ptr, ptr %1, align 8, !tbaa !77
  %73 = getelementptr inbounds ptr, ptr %72, i64 5
  %74 = load ptr, ptr %73, align 8
  %75 = tail call noundef ptr %74(ptr noundef nonnull align 8 dereferenceable(8) %1)
  %76 = getelementptr inbounds %"class.xercesc_2_5::DOMRangeImpl", ptr %0, i64 0, i32 3
  store ptr %75, ptr %76, align 8, !tbaa !88
  br label %77

77:                                               ; preds = %71, %77
  %78 = phi ptr [ %1, %71 ], [ %83, %77 ]
  %79 = phi i64 [ 0, %71 ], [ %84, %77 ]
  %80 = load ptr, ptr %78, align 8, !tbaa !77
  %81 = getelementptr inbounds ptr, ptr %80, i64 9
  %82 = load ptr, ptr %81, align 8
  %83 = tail call noundef ptr %82(ptr noundef nonnull align 8 dereferenceable(8) %78)
  %84 = add i64 %79, 1
  %85 = icmp eq ptr %83, null
  br i1 %85, label %86, label %77

86:                                               ; preds = %77
  %87 = getelementptr inbounds %"class.xercesc_2_5::DOMRangeImpl", ptr %0, i64 0, i32 4
  store i64 %84, ptr %87, align 8
  %88 = getelementptr inbounds %"class.xercesc_2_5::DOMRangeImpl", ptr %0, i64 0, i32 1
  %89 = load ptr, ptr %88, align 8, !tbaa !80
  %90 = tail call noundef ptr @_ZNK11xercesc_2_512DOMRangeImpl16commonAncestorOfEPKNS_7DOMNodeES3_(ptr noundef nonnull align 8 dereferenceable(80) %0, ptr noundef nonnull %1, ptr noundef %89)
  %91 = icmp eq ptr %90, null
  br i1 %91, label %92, label %96

92:                                               ; preds = %86
  %93 = load ptr, ptr %0, align 8, !tbaa !77
  %94 = getelementptr inbounds ptr, ptr %93, i64 14
  %95 = load ptr, ptr %94, align 8
  tail call void %95(ptr noundef nonnull align 8 dereferenceable(80) %0, i1 noundef zeroext false)
  br label %96

96:                                               ; preds = %92, %86
  %97 = load ptr, ptr %0, align 8, !tbaa !77
  %98 = getelementptr inbounds ptr, ptr %97, i64 17
  %99 = load ptr, ptr %98, align 8
  %100 = tail call noundef signext i16 %99(ptr noundef nonnull align 8 dereferenceable(80) %0, i32 noundef 3, ptr noundef nonnull %0)
  %101 = icmp eq i16 %100, 1
  br i1 %101, label %102, label %106

102:                                              ; preds = %96
  %103 = load ptr, ptr %0, align 8, !tbaa !77
  %104 = getelementptr inbounds ptr, ptr %103, i64 14
  %105 = load ptr, ptr %104, align 8
  tail call void %105(ptr noundef nonnull align 8 dereferenceable(80) %0, i1 noundef zeroext false)
  br label %108

106:                                              ; preds = %96
  %107 = getelementptr inbounds %"class.xercesc_2_5::DOMRangeImpl", ptr %0, i64 0, i32 5
  store i8 0, ptr %107, align 8, !tbaa !90
  br label %108

108:                                              ; preds = %106, %102
  ret void

109:                                              ; preds = %69, %46, %9
  %110 = phi ptr [ %67, %69 ], [ %44, %46 ], [ %7, %9 ]
  %111 = phi { ptr, i32 } [ %70, %69 ], [ %47, %46 ], [ %10, %9 ]
  tail call void @__cxa_free_exception(ptr %110) #14
  resume { ptr, i32 } %111
}

; Function Attrs: uwtable
define dso_local void @_ZN11xercesc_2_512DOMRangeImpl6detachEv(ptr noundef nonnull align 8 dereferenceable(80) %0) unnamed_addr #5 align 2 personality ptr @__gxx_personality_v0 {
  %2 = getelementptr inbounds %"class.xercesc_2_5::DOMRangeImpl", ptr %0, i64 0, i32 7
  %3 = load i8, ptr %2, align 8, !tbaa !92, !range !95, !noundef !96
  %4 = icmp eq i8 %3, 0
  br i1 %4, label %10, label %5

5:                                                ; preds = %1
  %6 = tail call ptr @__cxa_allocate_exception(i64 24) #14
  invoke void @_ZN11xercesc_2_512DOMExceptionC1EsPKt(ptr noundef nonnull align 8 dereferenceable(24) %6, i16 noundef signext 11, ptr noundef null)
          to label %7 unwind label %8

7:                                                ; preds = %5
  tail call void @__cxa_throw(ptr nonnull %6, ptr nonnull @_ZTIN11xercesc_2_512DOMExceptionE, ptr nonnull @_ZN11xercesc_2_512DOMExceptionD1Ev) #15
  unreachable

8:                                                ; preds = %5
  %9 = landingpad { ptr, i32 }
          cleanup
  tail call void @__cxa_free_exception(ptr %6) #14
  resume { ptr, i32 } %9

10:                                               ; preds = %1
  %11 = getelementptr inbounds %"class.xercesc_2_5::DOMRangeImpl", ptr %0, i64 0, i32 6
  %12 = load ptr, ptr %11, align 8, !tbaa !91
  %13 = load ptr, ptr %12, align 8, !tbaa !77
  %14 = getelementptr inbounds ptr, ptr %13, i64 84
  %15 = load ptr, ptr %14, align 8
  tail call void %15(ptr noundef nonnull align 8 dereferenceable(253) %12, ptr noundef nonnull %0)
  store i8 1, ptr %2, align 8, !tbaa !92
  %16 = getelementptr inbounds %"class.xercesc_2_5::DOMRangeImpl", ptr %0, i64 0, i32 1
  %17 = getelementptr inbounds %"class.xercesc_2_5::DOMRangeImpl", ptr %0, i64 0, i32 5
  tail call void @llvm.memset.p0.i64(ptr noundef nonnull align 8 dereferenceable(32) %16, i8 0, i64 32, i1 false)
  store i8 1, ptr %17, align 8, !tbaa !90
  %18 = getelementptr inbounds %"class.xercesc_2_5::DOMRangeImpl", ptr %0, i64 0, i32 8
  store ptr null, ptr %18, align 8, !tbaa !93
  ret void
}

; Function Attrs: uwtable
define dso_local void @_ZN11xercesc_2_512DOMRangeImpl8collapseEb(ptr nocapture noundef nonnull align 8 dereferenceable(80) %0, i1 noundef zeroext %1) unnamed_addr #5 align 2 personality ptr @__gxx_personality_v0 {
  %3 = getelementptr inbounds %"class.xercesc_2_5::DOMRangeImpl", ptr %0, i64 0, i32 7
  %4 = load i8, ptr %3, align 8, !tbaa !92, !range !95, !noundef !96
  %5 = icmp eq i8 %4, 0
  br i1 %5, label %11, label %6

6:                                                ; preds = %2
  %7 = tail call ptr @__cxa_allocate_exception(i64 24) #14
  invoke void @_ZN11xercesc_2_512DOMExceptionC1EsPKt(ptr noundef nonnull align 8 dereferenceable(24) %7, i16 noundef signext 11, ptr noundef null)
          to label %8 unwind label %9

8:                                                ; preds = %6
  tail call void @__cxa_throw(ptr nonnull %7, ptr nonnull @_ZTIN11xercesc_2_512DOMExceptionE, ptr nonnull @_ZN11xercesc_2_512DOMExceptionD1Ev) #15
  unreachable

9:                                                ; preds = %6
  %10 = landingpad { ptr, i32 }
          cleanup
  tail call void @__cxa_free_exception(ptr %7) #14
  resume { ptr, i32 } %10

11:                                               ; preds = %2
  br i1 %1, label %12, label %19

12:                                               ; preds = %11
  %13 = getelementptr inbounds %"class.xercesc_2_5::DOMRangeImpl", ptr %0, i64 0, i32 1
  %14 = load ptr, ptr %13, align 8, !tbaa !80
  %15 = getelementptr inbounds %"class.xercesc_2_5::DOMRangeImpl", ptr %0, i64 0, i32 3
  store ptr %14, ptr %15, align 8, !tbaa !88
  %16 = getelementptr inbounds %"class.xercesc_2_5::DOMRangeImpl", ptr %0, i64 0, i32 2
  %17 = load i64, ptr %16, align 8, !tbaa !87
  %18 = getelementptr inbounds %"class.xercesc_2_5::DOMRangeImpl", ptr %0, i64 0, i32 4
  store i64 %17, ptr %18, align 8, !tbaa !89
  br label %26

19:                                               ; preds = %11
  %20 = getelementptr inbounds %"class.xercesc_2_5::DOMRangeImpl", ptr %0, i64 0, i32 3
  %21 = load ptr, ptr %20, align 8, !tbaa !88
  %22 = getelementptr inbounds %"class.xercesc_2_5::DOMRangeImpl", ptr %0, i64 0, i32 1
  store ptr %21, ptr %22, align 8, !tbaa !80
  %23 = getelementptr inbounds %"class.xercesc_2_5::DOMRangeImpl", ptr %0, i64 0, i32 4
  %24 = load i64, ptr %23, align 8, !tbaa !89
  %25 = getelementptr inbounds %"class.xercesc_2_5::DOMRangeImpl", ptr %0, i64 0, i32 2
  store i64 %24, ptr %25, align 8, !tbaa !87
  br label %26

26:                                               ; preds = %19, %12
  %27 = getelementptr inbounds %"class.xercesc_2_5::DOMRangeImpl", ptr %0, i64 0, i32 5
  store i8 1, ptr %27, align 8, !tbaa !90
  ret void
}

; Function Attrs: uwtable
define dso_local void @_ZN11xercesc_2_512DOMRangeImpl10selectNodeEPKNS_7DOMNodeE(ptr nocapture noundef nonnull align 8 dereferenceable(80) %0, ptr noundef %1) unnamed_addr #5 align 2 personality ptr @__gxx_personality_v0 {
  tail call void @_ZNK11xercesc_2_512DOMRangeImpl12validateNodeEPKNS_7DOMNodeE(ptr noundef nonnull align 8 dereferenceable(80) %0, ptr noundef %1)
  %3 = icmp eq ptr %1, null
  br i1 %3, label %10, label %4

4:                                                ; preds = %2
  %5 = load ptr, ptr %1, align 8, !tbaa !77
  %6 = getelementptr inbounds ptr, ptr %5, i64 4
  %7 = load ptr, ptr %6, align 8
  %8 = tail call noundef signext i16 %7(ptr noundef nonnull align 8 dereferenceable(8) %1)
  %9 = sext i16 %8 to i32
  switch i32 %9, label %15 [
    i32 9, label %10
    i32 11, label %10
    i32 2, label %10
    i32 6, label %10
    i32 12, label %10
  ]

10:                                               ; preds = %2, %4, %4, %4, %4, %4
  %11 = tail call ptr @__cxa_allocate_exception(i64 32) #14
  invoke void @_ZN11xercesc_2_517DOMRangeExceptionC1ENS0_18RangeExceptionCodeEPKt(ptr noundef nonnull align 8 dereferenceable(28) %11, i32 noundef 2, ptr noundef null)
          to label %12 unwind label %13

12:                                               ; preds = %10
  tail call void @__cxa_throw(ptr nonnull %11, ptr nonnull @_ZTIN11xercesc_2_517DOMRangeExceptionE, ptr nonnull @_ZN11xercesc_2_517DOMRangeExceptionD1Ev) #15
  unreachable

13:                                               ; preds = %10
  %14 = landingpad { ptr, i32 }
          cleanup
  tail call void @__cxa_free_exception(ptr %11) #14
  resume { ptr, i32 } %14

15:                                               ; preds = %4
  %16 = load ptr, ptr %1, align 8, !tbaa !77
  %17 = getelementptr inbounds ptr, ptr %16, i64 4
  %18 = load ptr, ptr %17, align 8
  %19 = tail call noundef signext i16 %18(ptr noundef nonnull align 8 dereferenceable(8) %1)
  switch i16 %19, label %47 [
    i16 8, label %20
    i16 7, label %20
    i16 4, label %20
    i16 3, label %20
  ]

20:                                               ; preds = %15, %15, %15, %15
  %21 = icmp eq i16 %19, 7
  %22 = getelementptr inbounds %"class.xercesc_2_5::DOMRangeImpl", ptr %0, i64 0, i32 1
  store ptr %1, ptr %22, align 8, !tbaa !80
  %23 = getelementptr inbounds %"class.xercesc_2_5::DOMRangeImpl", ptr %0, i64 0, i32 3
  store ptr %1, ptr %23, align 8, !tbaa !88
  %24 = getelementptr inbounds %"class.xercesc_2_5::DOMRangeImpl", ptr %0, i64 0, i32 2
  store i64 0, ptr %24, align 8, !tbaa !87
  %25 = load ptr, ptr %1, align 8, !tbaa !77
  %26 = getelementptr inbounds ptr, ptr %25, i64 41
  %27 = load ptr, ptr %26, align 8
  br i1 %21, label %28, label %45

28:                                               ; preds = %20
  %29 = tail call noundef ptr %27(ptr noundef nonnull align 8 dereferenceable(8) %1)
  %30 = icmp eq ptr %29, null
  br i1 %30, label %78, label %31

31:                                               ; preds = %28
  %32 = load i16, ptr %29, align 2, !tbaa !97
  %33 = icmp eq i16 %32, 0
  br i1 %33, label %78, label %34

34:                                               ; preds = %31, %34
  %35 = phi ptr [ %36, %34 ], [ %29, %31 ]
  %36 = getelementptr inbounds i16, ptr %35, i64 1
  %37 = load i16, ptr %36, align 2, !tbaa !97
  %38 = icmp eq i16 %37, 0
  br i1 %38, label %39, label %34

39:                                               ; preds = %34
  %40 = ptrtoint ptr %36 to i64
  %41 = ptrtoint ptr %29 to i64
  %42 = sub i64 %40, %41
  %43 = lshr exact i64 %42, 1
  %44 = and i64 %43, 4294967295
  br label %78

45:                                               ; preds = %20
  %46 = tail call noundef i64 %27(ptr noundef nonnull align 8 dereferenceable(8) %1)
  br label %78

47:                                               ; preds = %15
  %48 = load ptr, ptr %1, align 8, !tbaa !77
  %49 = getelementptr inbounds ptr, ptr %48, i64 5
  %50 = load ptr, ptr %49, align 8
  %51 = tail call noundef ptr %50(ptr noundef nonnull align 8 dereferenceable(8) %1)
  %52 = icmp eq ptr %51, null
  br i1 %52, label %81, label %53

53:                                               ; preds = %47
  %54 = getelementptr inbounds %"class.xercesc_2_5::DOMRangeImpl", ptr %0, i64 0, i32 1
  store ptr %51, ptr %54, align 8, !tbaa !80
  %55 = getelementptr inbounds %"class.xercesc_2_5::DOMRangeImpl", ptr %0, i64 0, i32 3
  store ptr %51, ptr %55, align 8, !tbaa !88
  %56 = load ptr, ptr %51, align 8, !tbaa !77
  %57 = getelementptr inbounds ptr, ptr %56, i64 7
  %58 = load ptr, ptr %57, align 8
  %59 = tail call noundef ptr %58(ptr noundef nonnull align 8 dereferenceable(8) %51)
  %60 = icmp ne ptr %59, null
  %61 = icmp ne ptr %59, %1
  %62 = and i1 %60, %61
  br i1 %62, label %67, label %63

63:                                               ; preds = %67, %53
  %64 = phi i64 [ 0, %53 ], [ %70, %67 ]
  %65 = getelementptr inbounds %"class.xercesc_2_5::DOMRangeImpl", ptr %0, i64 0, i32 2
  store i64 %64, ptr %65, align 8, !tbaa !87
  %66 = add i64 %64, 1
  br label %78

67:                                               ; preds = %53, %67
  %68 = phi ptr [ %74, %67 ], [ %59, %53 ]
  %69 = phi i64 [ %70, %67 ], [ 0, %53 ]
  %70 = add i64 %69, 1
  %71 = load ptr, ptr %68, align 8, !tbaa !77
  %72 = getelementptr inbounds ptr, ptr %71, i64 10
  %73 = load ptr, ptr %72, align 8
  %74 = tail call noundef ptr %73(ptr noundef nonnull align 8 dereferenceable(8) %68)
  %75 = icmp ne ptr %74, null
  %76 = icmp ne ptr %74, %1
  %77 = and i1 %75, %76
  br i1 %77, label %67, label %63

78:                                               ; preds = %39, %31, %28, %45, %63
  %79 = phi i64 [ %66, %63 ], [ %46, %45 ], [ %44, %39 ], [ 0, %31 ], [ 0, %28 ]
  %80 = getelementptr inbounds %"class.xercesc_2_5::DOMRangeImpl", ptr %0, i64 0, i32 4
  store i64 %79, ptr %80, align 8, !tbaa !89
  br label %81

81:                                               ; preds = %78, %47
  ret void
}

; Function Attrs: uwtable
define dso_local void @_ZN11xercesc_2_512DOMRangeImpl18selectNodeContentsEPKNS_7DOMNodeE(ptr nocapture noundef nonnull align 8 dereferenceable(80) %0, ptr noundef %1) unnamed_addr #5 align 2 {
  tail call void @_ZNK11xercesc_2_512DOMRangeImpl12validateNodeEPKNS_7DOMNodeE(ptr noundef nonnull align 8 dereferenceable(80) %0, ptr noundef %1)
  %3 = getelementptr inbounds %"class.xercesc_2_5::DOMRangeImpl", ptr %0, i64 0, i32 1
  store ptr %1, ptr %3, align 8, !tbaa !80
  %4 = getelementptr inbounds %"class.xercesc_2_5::DOMRangeImpl", ptr %0, i64 0, i32 3
  store ptr %1, ptr %4, align 8, !tbaa !88
  %5 = getelementptr inbounds %"class.xercesc_2_5::DOMRangeImpl", ptr %0, i64 0, i32 2
  store i64 0, ptr %5, align 8, !tbaa !87
  %6 = load ptr, ptr %1, align 8, !tbaa !77
  %7 = getelementptr inbounds ptr, ptr %6, i64 4
  %8 = load ptr, ptr %7, align 8
  %9 = tail call noundef signext i16 %8(ptr noundef nonnull align 8 dereferenceable(8) %1)
  switch i16 %9, label %35 [
    i16 8, label %10
    i16 4, label %10
    i16 3, label %10
    i16 7, label %15
  ]

10:                                               ; preds = %2, %2, %2
  %11 = load ptr, ptr %1, align 8, !tbaa !77
  %12 = getelementptr inbounds ptr, ptr %11, i64 41
  %13 = load ptr, ptr %12, align 8
  %14 = tail call noundef i64 %13(ptr noundef nonnull align 8 dereferenceable(8) %1)
  br label %50

15:                                               ; preds = %2
  %16 = load ptr, ptr %1, align 8, !tbaa !77
  %17 = getelementptr inbounds ptr, ptr %16, i64 41
  %18 = load ptr, ptr %17, align 8
  %19 = tail call noundef ptr %18(ptr noundef nonnull align 8 dereferenceable(8) %1)
  %20 = icmp eq ptr %19, null
  br i1 %20, label %50, label %21

21:                                               ; preds = %15
  %22 = load i16, ptr %19, align 2, !tbaa !97
  %23 = icmp eq i16 %22, 0
  br i1 %23, label %50, label %24

24:                                               ; preds = %21, %24
  %25 = phi ptr [ %26, %24 ], [ %19, %21 ]
  %26 = getelementptr inbounds i16, ptr %25, i64 1
  %27 = load i16, ptr %26, align 2, !tbaa !97
  %28 = icmp eq i16 %27, 0
  br i1 %28, label %29, label %24

29:                                               ; preds = %24
  %30 = ptrtoint ptr %26 to i64
  %31 = ptrtoint ptr %19 to i64
  %32 = sub i64 %30, %31
  %33 = lshr exact i64 %32, 1
  %34 = and i64 %33, 4294967295
  br label %50

35:                                               ; preds = %2
  %36 = load ptr, ptr %1, align 8, !tbaa !77
  %37 = getelementptr inbounds ptr, ptr %36, i64 7
  %38 = load ptr, ptr %37, align 8
  %39 = tail call noundef ptr %38(ptr noundef nonnull align 8 dereferenceable(8) %1)
  %40 = icmp eq ptr %39, null
  br i1 %40, label %50, label %41

41:                                               ; preds = %35, %41
  %42 = phi ptr [ %48, %41 ], [ %39, %35 ]
  %43 = phi i64 [ %44, %41 ], [ 0, %35 ]
  %44 = add i64 %43, 1
  %45 = load ptr, ptr %42, align 8, !tbaa !77
  %46 = getelementptr inbounds ptr, ptr %45, i64 10
  %47 = load ptr, ptr %46, align 8
  %48 = tail call noundef ptr %47(ptr noundef nonnull align 8 dereferenceable(8) %42)
  %49 = icmp eq ptr %48, null
  br i1 %49, label %50, label %41

50:                                               ; preds = %41, %35, %29, %21, %15, %10
  %51 = phi i64 [ %14, %10 ], [ %34, %29 ], [ 0, %21 ], [ 0, %15 ], [ 0, %35 ], [ %44, %41 ]
  %52 = getelementptr inbounds %"class.xercesc_2_5::DOMRangeImpl", ptr %0, i64 0, i32 4
  store i64 %51, ptr %52, align 8, !tbaa !89
  ret void
}

; Function Attrs: uwtable
define dso_local void @_ZN11xercesc_2_512DOMRangeImpl16surroundContentsEPNS_7DOMNodeE(ptr noundef nonnull align 8 dereferenceable(80) %0, ptr noundef %1) unnamed_addr #5 align 2 personality ptr @__gxx_personality_v0 {
  %3 = icmp eq ptr %1, null
  br i1 %3, label %94, label %4

4:                                                ; preds = %2
  %5 = getelementptr inbounds %"class.xercesc_2_5::DOMRangeImpl", ptr %0, i64 0, i32 7
  %6 = load i8, ptr %5, align 8, !tbaa !92, !range !95, !noundef !96
  %7 = icmp eq i8 %6, 0
  br i1 %7, label %13, label %8

8:                                                ; preds = %4
  %9 = tail call ptr @__cxa_allocate_exception(i64 24) #14
  invoke void @_ZN11xercesc_2_512DOMExceptionC1EsPKt(ptr noundef nonnull align 8 dereferenceable(24) %9, i16 noundef signext 11, ptr noundef null)
          to label %10 unwind label %11

10:                                               ; preds = %8
  tail call void @__cxa_throw(ptr nonnull %9, ptr nonnull @_ZTIN11xercesc_2_512DOMExceptionE, ptr nonnull @_ZN11xercesc_2_512DOMExceptionD1Ev) #15
  unreachable

11:                                               ; preds = %8
  %12 = landingpad { ptr, i32 }
          cleanup
  br label %95

13:                                               ; preds = %4
  %14 = load ptr, ptr %1, align 8, !tbaa !77
  %15 = getelementptr inbounds ptr, ptr %14, i64 12
  %16 = load ptr, ptr %15, align 8
  %17 = tail call noundef ptr %16(ptr noundef nonnull align 8 dereferenceable(8) %1)
  %18 = getelementptr inbounds %"class.xercesc_2_5::DOMRangeImpl", ptr %0, i64 0, i32 6
  %19 = load ptr, ptr %18, align 8, !tbaa !91
  %20 = icmp eq ptr %17, %19
  br i1 %20, label %26, label %21

21:                                               ; preds = %13
  %22 = tail call ptr @__cxa_allocate_exception(i64 24) #14
  invoke void @_ZN11xercesc_2_512DOMExceptionC1EsPKt(ptr noundef nonnull align 8 dereferenceable(24) %22, i16 noundef signext 4, ptr noundef null)
          to label %23 unwind label %24

23:                                               ; preds = %21
  tail call void @__cxa_throw(ptr nonnull %22, ptr nonnull @_ZTIN11xercesc_2_512DOMExceptionE, ptr nonnull @_ZN11xercesc_2_512DOMExceptionD1Ev) #15
  unreachable

24:                                               ; preds = %21
  %25 = landingpad { ptr, i32 }
          cleanup
  br label %95

26:                                               ; preds = %13
  %27 = load ptr, ptr %1, align 8, !tbaa !77
  %28 = getelementptr inbounds ptr, ptr %27, i64 4
  %29 = load ptr, ptr %28, align 8
  %30 = tail call noundef signext i16 %29(ptr noundef nonnull align 8 dereferenceable(8) %1)
  %31 = load ptr, ptr %1, align 8, !tbaa !77
  %32 = getelementptr inbounds ptr, ptr %31, i64 4
  %33 = load ptr, ptr %32, align 8
  %34 = tail call noundef signext i16 %33(ptr noundef nonnull align 8 dereferenceable(8) %1)
  %35 = sext i16 %34 to i32
  switch i32 %35, label %36 [
    i32 9, label %38
    i32 11, label %38
    i32 2, label %38
    i32 6, label %38
    i32 12, label %38
  ]

36:                                               ; preds = %26
  %37 = icmp eq i16 %30, 10
  br i1 %37, label %38, label %43

38:                                               ; preds = %26, %26, %26, %26, %26, %36
  %39 = tail call ptr @__cxa_allocate_exception(i64 32) #14
  invoke void @_ZN11xercesc_2_517DOMRangeExceptionC1ENS0_18RangeExceptionCodeEPKt(ptr noundef nonnull align 8 dereferenceable(28) %39, i32 noundef 2, ptr noundef null)
          to label %40 unwind label %41

40:                                               ; preds = %38
  tail call void @__cxa_throw(ptr nonnull %39, ptr nonnull @_ZTIN11xercesc_2_517DOMRangeExceptionE, ptr nonnull @_ZN11xercesc_2_517DOMRangeExceptionD1Ev) #15
  unreachable

41:                                               ; preds = %38
  %42 = landingpad { ptr, i32 }
          cleanup
  br label %95

43:                                               ; preds = %36
  %44 = getelementptr inbounds %"class.xercesc_2_5::DOMRangeImpl", ptr %0, i64 0, i32 1
  %45 = load ptr, ptr %44, align 8, !tbaa !80
  %46 = getelementptr inbounds %"class.xercesc_2_5::DOMRangeImpl", ptr %0, i64 0, i32 3
  %47 = load ptr, ptr %46, align 8, !tbaa !88
  %48 = load ptr, ptr %45, align 8, !tbaa !77
  %49 = getelementptr inbounds ptr, ptr %48, i64 4
  %50 = load ptr, ptr %49, align 8
  %51 = tail call noundef signext i16 %50(ptr noundef nonnull align 8 dereferenceable(8) %45)
  switch i16 %51, label %58 [
    i16 8, label %52
    i16 7, label %52
    i16 4, label %52
    i16 3, label %52
  ]

52:                                               ; preds = %43, %43, %43, %43
  %53 = load ptr, ptr %44, align 8, !tbaa !80
  %54 = load ptr, ptr %53, align 8, !tbaa !77
  %55 = getelementptr inbounds ptr, ptr %54, i64 5
  %56 = load ptr, ptr %55, align 8
  %57 = tail call noundef ptr %56(ptr noundef nonnull align 8 dereferenceable(8) %53)
  br label %58

58:                                               ; preds = %43, %52
  %59 = phi ptr [ %57, %52 ], [ %45, %43 ]
  %60 = load ptr, ptr %46, align 8, !tbaa !88
  %61 = load ptr, ptr %60, align 8, !tbaa !77
  %62 = getelementptr inbounds ptr, ptr %61, i64 4
  %63 = load ptr, ptr %62, align 8
  %64 = tail call noundef signext i16 %63(ptr noundef nonnull align 8 dereferenceable(8) %60)
  switch i16 %64, label %71 [
    i16 8, label %65
    i16 7, label %65
    i16 4, label %65
    i16 3, label %65
  ]

65:                                               ; preds = %58, %58, %58, %58
  %66 = load ptr, ptr %46, align 8, !tbaa !88
  %67 = load ptr, ptr %66, align 8, !tbaa !77
  %68 = getelementptr inbounds ptr, ptr %67, i64 5
  %69 = load ptr, ptr %68, align 8
  %70 = tail call noundef ptr %69(ptr noundef nonnull align 8 dereferenceable(8) %66)
  br label %71

71:                                               ; preds = %58, %65
  %72 = phi ptr [ %70, %65 ], [ %47, %58 ]
  %73 = icmp eq ptr %59, %72
  br i1 %73, label %79, label %74

74:                                               ; preds = %71
  %75 = tail call ptr @__cxa_allocate_exception(i64 32) #14
  invoke void @_ZN11xercesc_2_517DOMRangeExceptionC1ENS0_18RangeExceptionCodeEPKt(ptr noundef nonnull align 8 dereferenceable(28) %75, i32 noundef 1, ptr noundef null)
          to label %76 unwind label %77

76:                                               ; preds = %74
  tail call void @__cxa_throw(ptr nonnull %75, ptr nonnull @_ZTIN11xercesc_2_517DOMRangeExceptionE, ptr nonnull @_ZN11xercesc_2_517DOMRangeExceptionD1Ev) #15
  unreachable

77:                                               ; preds = %74
  %78 = landingpad { ptr, i32 }
          cleanup
  br label %95

79:                                               ; preds = %71
  %80 = load ptr, ptr %0, align 8, !tbaa !77
  %81 = getelementptr inbounds ptr, ptr %80, i64 19
  %82 = load ptr, ptr %81, align 8
  %83 = tail call noundef ptr %82(ptr noundef nonnull align 8 dereferenceable(80) %0)
  %84 = load ptr, ptr %0, align 8, !tbaa !77
  %85 = getelementptr inbounds ptr, ptr %84, i64 21
  %86 = load ptr, ptr %85, align 8
  tail call void %86(ptr noundef nonnull align 8 dereferenceable(80) %0, ptr noundef nonnull %1)
  %87 = load ptr, ptr %1, align 8, !tbaa !77
  %88 = getelementptr inbounds ptr, ptr %87, i64 17
  %89 = load ptr, ptr %88, align 8
  %90 = tail call noundef ptr %89(ptr noundef nonnull align 8 dereferenceable(8) %1, ptr noundef %83)
  %91 = load ptr, ptr %0, align 8, !tbaa !77
  %92 = getelementptr inbounds ptr, ptr %91, i64 15
  %93 = load ptr, ptr %92, align 8
  tail call void %93(ptr noundef nonnull align 8 dereferenceable(80) %0, ptr noundef nonnull %1)
  br label %94

94:                                               ; preds = %2, %79
  ret void

95:                                               ; preds = %41, %77, %24, %11
  %96 = phi ptr [ %39, %41 ], [ %75, %77 ], [ %22, %24 ], [ %9, %11 ]
  %97 = phi { ptr, i32 } [ %42, %41 ], [ %78, %77 ], [ %25, %24 ], [ %12, %11 ]
  tail call void @__cxa_free_exception(ptr %96) #14
  resume { ptr, i32 } %97
}

; Function Attrs: uwtable
define dso_local noundef signext i16 @_ZNK11xercesc_2_512DOMRangeImpl21compareBoundaryPointsENS_8DOMRange10CompareHowEPKS1_(ptr nocapture noundef nonnull readonly align 8 dereferenceable(80) %0, i32 noundef %1, ptr noundef %2) unnamed_addr #5 align 2 personality ptr @__gxx_personality_v0 {
  %4 = getelementptr inbounds %"class.xercesc_2_5::DOMRangeImpl", ptr %0, i64 0, i32 6
  %5 = load ptr, ptr %4, align 8, !tbaa !91
  %6 = getelementptr inbounds %"class.xercesc_2_5::DOMRangeImpl", ptr %2, i64 0, i32 6
  %7 = load ptr, ptr %6, align 8, !tbaa !91
  %8 = icmp eq ptr %5, %7
  br i1 %8, label %14, label %9

9:                                                ; preds = %3
  %10 = tail call ptr @__cxa_allocate_exception(i64 24) #14
  invoke void @_ZN11xercesc_2_512DOMExceptionC1EsPKt(ptr noundef nonnull align 8 dereferenceable(24) %10, i16 noundef signext 4, ptr noundef null)
          to label %11 unwind label %12

11:                                               ; preds = %9
  tail call void @__cxa_throw(ptr nonnull %10, ptr nonnull @_ZTIN11xercesc_2_512DOMExceptionE, ptr nonnull @_ZN11xercesc_2_512DOMExceptionD1Ev) #15
  unreachable

12:                                               ; preds = %9
  %13 = landingpad { ptr, i32 }
          cleanup
  br label %279

14:                                               ; preds = %3
  %15 = getelementptr inbounds %"class.xercesc_2_5::DOMRangeImpl", ptr %0, i64 0, i32 7
  %16 = load i8, ptr %15, align 8, !tbaa !92, !range !95, !noundef !96
  %17 = icmp eq i8 %16, 0
  br i1 %17, label %23, label %18

18:                                               ; preds = %14
  %19 = tail call ptr @__cxa_allocate_exception(i64 24) #14
  invoke void @_ZN11xercesc_2_512DOMExceptionC1EsPKt(ptr noundef nonnull align 8 dereferenceable(24) %19, i16 noundef signext 11, ptr noundef null)
          to label %20 unwind label %21

20:                                               ; preds = %18
  tail call void @__cxa_throw(ptr nonnull %19, ptr nonnull @_ZTIN11xercesc_2_512DOMExceptionE, ptr nonnull @_ZN11xercesc_2_512DOMExceptionD1Ev) #15
  unreachable

21:                                               ; preds = %18
  %22 = landingpad { ptr, i32 }
          cleanup
  br label %279

23:                                               ; preds = %14
  switch i32 %1, label %83 [
    i32 0, label %24
    i32 1, label %36
    i32 3, label %48
    i32 2, label %60
  ]

24:                                               ; preds = %23
  %25 = load ptr, ptr %2, align 8, !tbaa !77
  %26 = getelementptr inbounds ptr, ptr %25, i64 2
  %27 = load ptr, ptr %26, align 8
  %28 = tail call noundef ptr %27(ptr noundef nonnull align 8 dereferenceable(8) %2)
  %29 = getelementptr inbounds %"class.xercesc_2_5::DOMRangeImpl", ptr %0, i64 0, i32 1
  %30 = load ptr, ptr %29, align 8, !tbaa !80
  %31 = load ptr, ptr %2, align 8, !tbaa !77
  %32 = getelementptr inbounds ptr, ptr %31, i64 3
  %33 = load ptr, ptr %32, align 8
  %34 = tail call noundef i64 %33(ptr noundef nonnull align 8 dereferenceable(8) %2)
  %35 = getelementptr inbounds %"class.xercesc_2_5::DOMRangeImpl", ptr %0, i64 0, i32 2
  br label %72

36:                                               ; preds = %23
  %37 = load ptr, ptr %2, align 8, !tbaa !77
  %38 = getelementptr inbounds ptr, ptr %37, i64 2
  %39 = load ptr, ptr %38, align 8
  %40 = tail call noundef ptr %39(ptr noundef nonnull align 8 dereferenceable(8) %2)
  %41 = getelementptr inbounds %"class.xercesc_2_5::DOMRangeImpl", ptr %0, i64 0, i32 3
  %42 = load ptr, ptr %41, align 8, !tbaa !88
  %43 = load ptr, ptr %2, align 8, !tbaa !77
  %44 = getelementptr inbounds ptr, ptr %43, i64 3
  %45 = load ptr, ptr %44, align 8
  %46 = tail call noundef i64 %45(ptr noundef nonnull align 8 dereferenceable(8) %2)
  %47 = getelementptr inbounds %"class.xercesc_2_5::DOMRangeImpl", ptr %0, i64 0, i32 4
  br label %72

48:                                               ; preds = %23
  %49 = load ptr, ptr %2, align 8, !tbaa !77
  %50 = getelementptr inbounds ptr, ptr %49, i64 4
  %51 = load ptr, ptr %50, align 8
  %52 = tail call noundef ptr %51(ptr noundef nonnull align 8 dereferenceable(8) %2)
  %53 = getelementptr inbounds %"class.xercesc_2_5::DOMRangeImpl", ptr %0, i64 0, i32 1
  %54 = load ptr, ptr %53, align 8, !tbaa !80
  %55 = load ptr, ptr %2, align 8, !tbaa !77
  %56 = getelementptr inbounds ptr, ptr %55, i64 5
  %57 = load ptr, ptr %56, align 8
  %58 = tail call noundef i64 %57(ptr noundef nonnull align 8 dereferenceable(8) %2)
  %59 = getelementptr inbounds %"class.xercesc_2_5::DOMRangeImpl", ptr %0, i64 0, i32 2
  br label %72

60:                                               ; preds = %23
  %61 = load ptr, ptr %2, align 8, !tbaa !77
  %62 = getelementptr inbounds ptr, ptr %61, i64 4
  %63 = load ptr, ptr %62, align 8
  %64 = tail call noundef ptr %63(ptr noundef nonnull align 8 dereferenceable(8) %2)
  %65 = getelementptr inbounds %"class.xercesc_2_5::DOMRangeImpl", ptr %0, i64 0, i32 3
  %66 = load ptr, ptr %65, align 8, !tbaa !88
  %67 = load ptr, ptr %2, align 8, !tbaa !77
  %68 = getelementptr inbounds ptr, ptr %67, i64 5
  %69 = load ptr, ptr %68, align 8
  %70 = tail call noundef i64 %69(ptr noundef nonnull align 8 dereferenceable(8) %2)
  %71 = getelementptr inbounds %"class.xercesc_2_5::DOMRangeImpl", ptr %0, i64 0, i32 4
  br label %72

72:                                               ; preds = %60, %48, %36, %24
  %73 = phi ptr [ %66, %60 ], [ %54, %48 ], [ %42, %36 ], [ %30, %24 ]
  %74 = phi ptr [ %64, %60 ], [ %52, %48 ], [ %40, %36 ], [ %28, %24 ]
  %75 = phi ptr [ %71, %60 ], [ %59, %48 ], [ %47, %36 ], [ %35, %24 ]
  %76 = phi i64 [ %70, %60 ], [ %58, %48 ], [ %46, %36 ], [ %34, %24 ]
  %77 = trunc i64 %76 to i32
  %78 = load i64, ptr %75, align 8, !tbaa !118
  %79 = trunc i64 %78 to i32
  %80 = icmp eq ptr %73, %74
  br i1 %80, label %81, label %88

81:                                               ; preds = %72
  %82 = icmp slt i32 %79, %77
  br i1 %82, label %277, label %83

83:                                               ; preds = %23, %81
  %84 = phi i32 [ %79, %81 ], [ undef, %23 ]
  %85 = phi i32 [ %77, %81 ], [ undef, %23 ]
  %86 = icmp ne i32 %84, %85
  %87 = zext i1 %86 to i16
  br label %277

88:                                               ; preds = %72
  %89 = load ptr, ptr %73, align 8, !tbaa !77
  %90 = getelementptr inbounds ptr, ptr %89, i64 7
  %91 = load ptr, ptr %90, align 8
  %92 = tail call noundef ptr %91(ptr noundef nonnull align 8 dereferenceable(8) %73)
  %93 = icmp eq ptr %92, null
  br i1 %93, label %144, label %94

94:                                               ; preds = %88
  %95 = icmp ne ptr %74, null
  br label %96

96:                                               ; preds = %94, %132
  %97 = phi ptr [ %92, %94 ], [ %135, %132 ]
  %98 = icmp ne ptr %74, %97
  %99 = and i1 %95, %98
  br i1 %99, label %100, label %109

100:                                              ; preds = %96, %100
  %101 = phi ptr [ %105, %100 ], [ %74, %96 ]
  %102 = load ptr, ptr %101, align 8, !tbaa !77
  %103 = getelementptr inbounds ptr, ptr %102, i64 5
  %104 = load ptr, ptr %103, align 8
  %105 = tail call noundef ptr %104(ptr noundef nonnull align 8 dereferenceable(8) %101)
  %106 = icmp ne ptr %105, null
  %107 = icmp ne ptr %105, %97
  %108 = and i1 %107, %106
  br i1 %108, label %100, label %109

109:                                              ; preds = %100, %96
  %110 = phi i1 [ %95, %96 ], [ %106, %100 ]
  %111 = load ptr, ptr %97, align 8, !tbaa !77
  br i1 %110, label %112, label %132

112:                                              ; preds = %109
  %113 = getelementptr inbounds ptr, ptr %111, i64 5
  %114 = load ptr, ptr %113, align 8
  %115 = tail call noundef ptr %114(ptr noundef nonnull align 8 dereferenceable(8) %97)
  %116 = icmp eq ptr %115, %73
  br i1 %116, label %117, label %137

117:                                              ; preds = %112
  %118 = load ptr, ptr %97, align 8, !tbaa !77
  %119 = getelementptr inbounds ptr, ptr %118, i64 9
  %120 = load ptr, ptr %119, align 8
  %121 = tail call noundef ptr %120(ptr noundef nonnull align 8 dereferenceable(8) %97)
  %122 = icmp eq ptr %121, null
  br i1 %122, label %137, label %123

123:                                              ; preds = %117, %123
  %124 = phi ptr [ %130, %123 ], [ %121, %117 ]
  %125 = phi i32 [ %126, %123 ], [ 0, %117 ]
  %126 = add i32 %125, 1
  %127 = load ptr, ptr %124, align 8, !tbaa !77
  %128 = getelementptr inbounds ptr, ptr %127, i64 9
  %129 = load ptr, ptr %128, align 8
  %130 = tail call noundef ptr %129(ptr noundef nonnull align 8 dereferenceable(8) %124)
  %131 = icmp eq ptr %130, null
  br i1 %131, label %141, label %123

132:                                              ; preds = %109
  %133 = getelementptr inbounds ptr, ptr %111, i64 10
  %134 = load ptr, ptr %133, align 8
  %135 = tail call noundef ptr %134(ptr noundef nonnull align 8 dereferenceable(8) %97)
  %136 = icmp eq ptr %135, null
  br i1 %136, label %144, label %96

137:                                              ; preds = %117, %112
  %138 = phi i32 [ 0, %117 ], [ -1, %112 ]
  %139 = icmp slt i32 %138, %79
  %140 = select i1 %139, i16 1, i16 -1
  br label %277

141:                                              ; preds = %123
  %142 = icmp slt i32 %126, %79
  %143 = select i1 %142, i16 1, i16 -1
  br label %277

144:                                              ; preds = %132, %88
  %145 = load ptr, ptr %74, align 8, !tbaa !77
  %146 = getelementptr inbounds ptr, ptr %145, i64 7
  %147 = load ptr, ptr %146, align 8
  %148 = tail call noundef ptr %147(ptr noundef nonnull align 8 dereferenceable(8) %74)
  %149 = icmp eq ptr %148, null
  br i1 %149, label %150, label %151

150:                                              ; preds = %186, %144
  br label %196

151:                                              ; preds = %144, %186
  %152 = phi ptr [ %190, %186 ], [ %148, %144 ]
  %153 = icmp eq ptr %73, %152
  br i1 %153, label %164, label %154

154:                                              ; preds = %151, %154
  %155 = phi ptr [ %159, %154 ], [ %73, %151 ]
  %156 = load ptr, ptr %155, align 8, !tbaa !77
  %157 = getelementptr inbounds ptr, ptr %156, i64 5
  %158 = load ptr, ptr %157, align 8
  %159 = tail call noundef ptr %158(ptr noundef nonnull align 8 dereferenceable(8) %155)
  %160 = icmp ne ptr %159, null
  %161 = icmp ne ptr %159, %152
  %162 = and i1 %161, %160
  br i1 %162, label %154, label %163

163:                                              ; preds = %154
  br i1 %160, label %164, label %186

164:                                              ; preds = %151, %163
  %165 = phi ptr [ %73, %151 ], [ %152, %163 ]
  %166 = load ptr, ptr %165, align 8, !tbaa !77
  %167 = getelementptr inbounds ptr, ptr %166, i64 5
  %168 = load ptr, ptr %167, align 8
  %169 = tail call noundef ptr %168(ptr noundef nonnull align 8 dereferenceable(8) %165)
  %170 = icmp eq ptr %169, %74
  br i1 %170, label %171, label %192

171:                                              ; preds = %164
  %172 = load ptr, ptr %165, align 8, !tbaa !77
  %173 = getelementptr inbounds ptr, ptr %172, i64 9
  %174 = load ptr, ptr %173, align 8
  %175 = tail call noundef ptr %174(ptr noundef nonnull align 8 dereferenceable(8) %165)
  %176 = icmp eq ptr %175, null
  br i1 %176, label %192, label %177

177:                                              ; preds = %171, %177
  %178 = phi ptr [ %184, %177 ], [ %175, %171 ]
  %179 = phi i32 [ %180, %177 ], [ 0, %171 ]
  %180 = add i32 %179, 1
  %181 = load ptr, ptr %178, align 8, !tbaa !77
  %182 = getelementptr inbounds ptr, ptr %181, i64 9
  %183 = load ptr, ptr %182, align 8
  %184 = tail call noundef ptr %183(ptr noundef nonnull align 8 dereferenceable(8) %178)
  %185 = icmp eq ptr %184, null
  br i1 %185, label %192, label %177

186:                                              ; preds = %163
  %187 = load ptr, ptr %152, align 8, !tbaa !77
  %188 = getelementptr inbounds ptr, ptr %187, i64 10
  %189 = load ptr, ptr %188, align 8
  %190 = tail call noundef ptr %189(ptr noundef nonnull align 8 dereferenceable(8) %152)
  %191 = icmp eq ptr %190, null
  br i1 %191, label %150, label %151

192:                                              ; preds = %177, %171, %164
  %193 = phi i32 [ -1, %164 ], [ 0, %171 ], [ %180, %177 ]
  %194 = icmp slt i32 %193, %77
  %195 = select i1 %194, i16 -1, i16 1
  br label %277

196:                                              ; preds = %150, %196
  %197 = phi ptr [ %203, %196 ], [ %74, %150 ]
  %198 = phi i32 [ %199, %196 ], [ 0, %150 ]
  %199 = add nuw nsw i32 %198, 1
  %200 = load ptr, ptr %197, align 8, !tbaa !77
  %201 = getelementptr inbounds ptr, ptr %200, i64 5
  %202 = load ptr, ptr %201, align 8
  %203 = tail call noundef ptr %202(ptr noundef nonnull align 8 dereferenceable(8) %197)
  %204 = icmp eq ptr %203, null
  br i1 %204, label %207, label %196

205:                                              ; preds = %207
  %206 = icmp sgt i32 %209, 1
  br i1 %206, label %218, label %216

207:                                              ; preds = %196, %207
  %208 = phi ptr [ %214, %207 ], [ %73, %196 ]
  %209 = phi i32 [ %210, %207 ], [ %199, %196 ]
  %210 = add nsw i32 %209, -1
  %211 = load ptr, ptr %208, align 8, !tbaa !77
  %212 = getelementptr inbounds ptr, ptr %211, i64 5
  %213 = load ptr, ptr %212, align 8
  %214 = tail call noundef ptr %213(ptr noundef nonnull align 8 dereferenceable(8) %208)
  %215 = icmp eq ptr %214, null
  br i1 %215, label %205, label %207

216:                                              ; preds = %205
  %217 = icmp eq i32 %209, 1
  br i1 %217, label %236, label %227

218:                                              ; preds = %205, %218
  %219 = phi i32 [ %225, %218 ], [ %210, %205 ]
  %220 = phi ptr [ %224, %218 ], [ %74, %205 ]
  %221 = load ptr, ptr %220, align 8, !tbaa !77
  %222 = getelementptr inbounds ptr, ptr %221, i64 5
  %223 = load ptr, ptr %222, align 8
  %224 = tail call noundef ptr %223(ptr noundef nonnull align 8 dereferenceable(8) %220)
  %225 = add nsw i32 %219, -1
  %226 = icmp ugt i32 %219, 1
  br i1 %226, label %218, label %236

227:                                              ; preds = %216, %227
  %228 = phi i32 [ %234, %227 ], [ %210, %216 ]
  %229 = phi ptr [ %233, %227 ], [ %73, %216 ]
  %230 = load ptr, ptr %229, align 8, !tbaa !77
  %231 = getelementptr inbounds ptr, ptr %230, i64 5
  %232 = load ptr, ptr %231, align 8
  %233 = tail call noundef ptr %232(ptr noundef nonnull align 8 dereferenceable(8) %229)
  %234 = add nsw i32 %228, 1
  %235 = icmp eq i32 %228, -1
  br i1 %235, label %236, label %227

236:                                              ; preds = %227, %218, %216
  %237 = phi ptr [ %74, %216 ], [ %224, %218 ], [ %74, %227 ]
  %238 = phi ptr [ %73, %216 ], [ %73, %218 ], [ %233, %227 ]
  %239 = load ptr, ptr %237, align 8, !tbaa !77
  %240 = getelementptr inbounds ptr, ptr %239, i64 5
  %241 = load ptr, ptr %240, align 8
  %242 = tail call noundef ptr %241(ptr noundef nonnull align 8 dereferenceable(8) %237)
  %243 = load ptr, ptr %238, align 8, !tbaa !77
  %244 = getelementptr inbounds ptr, ptr %243, i64 5
  %245 = load ptr, ptr %244, align 8
  %246 = tail call noundef ptr %245(ptr noundef nonnull align 8 dereferenceable(8) %238)
  %247 = icmp eq ptr %242, %246
  br i1 %247, label %248, label %256

248:                                              ; preds = %256, %236
  %249 = phi ptr [ %238, %236 ], [ %257, %256 ]
  %250 = phi ptr [ %237, %236 ], [ %258, %256 ]
  %251 = load ptr, ptr %250, align 8, !tbaa !77
  %252 = getelementptr inbounds ptr, ptr %251, i64 10
  %253 = load ptr, ptr %252, align 8
  %254 = tail call noundef ptr %253(ptr noundef nonnull align 8 dereferenceable(8) %250)
  %255 = icmp eq ptr %254, null
  br i1 %255, label %277, label %268

256:                                              ; preds = %236, %256
  %257 = phi ptr [ %266, %256 ], [ %246, %236 ]
  %258 = phi ptr [ %262, %256 ], [ %242, %236 ]
  %259 = load ptr, ptr %258, align 8, !tbaa !77
  %260 = getelementptr inbounds ptr, ptr %259, i64 5
  %261 = load ptr, ptr %260, align 8
  %262 = tail call noundef ptr %261(ptr noundef nonnull align 8 dereferenceable(8) %258)
  %263 = load ptr, ptr %257, align 8, !tbaa !77
  %264 = getelementptr inbounds ptr, ptr %263, i64 5
  %265 = load ptr, ptr %264, align 8
  %266 = tail call noundef ptr %265(ptr noundef nonnull align 8 dereferenceable(8) %257)
  %267 = icmp eq ptr %262, %266
  br i1 %267, label %248, label %256

268:                                              ; preds = %248, %271
  %269 = phi ptr [ %275, %271 ], [ %254, %248 ]
  %270 = icmp eq ptr %269, %249
  br i1 %270, label %277, label %271

271:                                              ; preds = %268
  %272 = load ptr, ptr %269, align 8, !tbaa !77
  %273 = getelementptr inbounds ptr, ptr %272, i64 10
  %274 = load ptr, ptr %273, align 8
  %275 = tail call noundef ptr %274(ptr noundef nonnull align 8 dereferenceable(8) %269)
  %276 = icmp eq ptr %275, null
  br i1 %276, label %277, label %268

277:                                              ; preds = %271, %268, %192, %248, %141, %137, %83, %81
  %278 = phi i16 [ %195, %192 ], [ %143, %141 ], [ -1, %81 ], [ %87, %83 ], [ %140, %137 ], [ -1, %248 ], [ -1, %271 ], [ 1, %268 ]
  ret i16 %278

279:                                              ; preds = %21, %12
  %280 = phi ptr [ %19, %21 ], [ %10, %12 ]
  %281 = phi { ptr, i32 } [ %22, %21 ], [ %13, %12 ]
  tail call void @__cxa_free_exception(ptr %280) #14
  resume { ptr, i32 } %281
}

; Function Attrs: uwtable
define dso_local noundef zeroext i1 @_ZN11xercesc_2_512DOMRangeImpl12isAncestorOfEPKNS_7DOMNodeES3_(ptr noundef readnone %0, ptr noundef %1) local_unnamed_addr #5 align 2 {
  %3 = icmp ne ptr %1, null
  %4 = icmp ne ptr %1, %0
  %5 = and i1 %4, %3
  br i1 %5, label %6, label %15

6:                                                ; preds = %2, %6
  %7 = phi ptr [ %11, %6 ], [ %1, %2 ]
  %8 = load ptr, ptr %7, align 8, !tbaa !77
  %9 = getelementptr inbounds ptr, ptr %8, i64 5
  %10 = load ptr, ptr %9, align 8
  %11 = tail call noundef ptr %10(ptr noundef nonnull align 8 dereferenceable(8) %7)
  %12 = icmp ne ptr %11, null
  %13 = icmp ne ptr %11, %0
  %14 = and i1 %13, %12
  br i1 %14, label %6, label %15

15:                                               ; preds = %6, %2
  %16 = phi i1 [ %3, %2 ], [ %12, %6 ]
  ret i1 %16
}

; Function Attrs: uwtable
define dso_local noundef i64 @_ZNK11xercesc_2_512DOMRangeImpl7indexOfEPKNS_7DOMNodeES3_(ptr nocapture noundef nonnull readnone align 8 dereferenceable(80) %0, ptr noundef %1, ptr noundef readnone %2) local_unnamed_addr #5 align 2 {
  %4 = load ptr, ptr %1, align 8, !tbaa !77
  %5 = getelementptr inbounds ptr, ptr %4, i64 5
  %6 = load ptr, ptr %5, align 8
  %7 = tail call noundef ptr %6(ptr noundef nonnull align 8 dereferenceable(8) %1)
  %8 = icmp eq ptr %7, %2
  br i1 %8, label %9, label %24

9:                                                ; preds = %3
  %10 = load ptr, ptr %1, align 8, !tbaa !77
  %11 = getelementptr inbounds ptr, ptr %10, i64 9
  %12 = load ptr, ptr %11, align 8
  %13 = tail call noundef ptr %12(ptr noundef nonnull align 8 dereferenceable(8) %1)
  %14 = icmp eq ptr %13, null
  br i1 %14, label %24, label %15

15:                                               ; preds = %9, %15
  %16 = phi ptr [ %22, %15 ], [ %13, %9 ]
  %17 = phi i64 [ %18, %15 ], [ 0, %9 ]
  %18 = add i64 %17, 1
  %19 = load ptr, ptr %16, align 8, !tbaa !77
  %20 = getelementptr inbounds ptr, ptr %19, i64 9
  %21 = load ptr, ptr %20, align 8
  %22 = tail call noundef ptr %21(ptr noundef nonnull align 8 dereferenceable(8) %16)
  %23 = icmp eq ptr %22, null
  br i1 %23, label %24, label %15

24:                                               ; preds = %15, %9, %3
  %25 = phi i64 [ -1, %3 ], [ 0, %9 ], [ %18, %15 ]
  ret i64 %25
}

; Function Attrs: uwtable
define dso_local void @_ZN11xercesc_2_512DOMRangeImpl14deleteContentsEv(ptr noundef nonnull align 8 dereferenceable(80) %0) unnamed_addr #5 align 2 {
  %2 = tail call noundef ptr @_ZN11xercesc_2_512DOMRangeImpl16traverseContentsENS0_13TraversalTypeE(ptr noundef nonnull align 8 dereferenceable(80) %0, i32 noundef 3)
  ret void
}

; Function Attrs: uwtable
define dso_local noundef ptr @_ZN11xercesc_2_512DOMRangeImpl16traverseContentsENS0_13TraversalTypeE(ptr noundef nonnull align 8 dereferenceable(80) %0, i32 noundef %1) local_unnamed_addr #5 align 2 personality ptr @__gxx_personality_v0 {
  %3 = getelementptr inbounds %"class.xercesc_2_5::DOMRangeImpl", ptr %0, i64 0, i32 7
  %4 = load i8, ptr %3, align 8, !tbaa !92, !range !95, !noundef !96
  %5 = icmp eq i8 %4, 0
  br i1 %5, label %11, label %6

6:                                                ; preds = %2
  %7 = tail call ptr @__cxa_allocate_exception(i64 24) #14
  invoke void @_ZN11xercesc_2_512DOMExceptionC1EsPKt(ptr noundef nonnull align 8 dereferenceable(24) %7, i16 noundef signext 11, ptr noundef null)
          to label %8 unwind label %9

8:                                                ; preds = %6
  tail call void @__cxa_throw(ptr nonnull %7, ptr nonnull @_ZTIN11xercesc_2_512DOMExceptionE, ptr nonnull @_ZN11xercesc_2_512DOMExceptionD1Ev) #15
  unreachable

9:                                                ; preds = %6
  %10 = landingpad { ptr, i32 }
          cleanup
  tail call void @__cxa_free_exception(ptr %7) #14
  resume { ptr, i32 } %10

11:                                               ; preds = %2
  %12 = getelementptr inbounds %"class.xercesc_2_5::DOMRangeImpl", ptr %0, i64 0, i32 1
  %13 = load ptr, ptr %12, align 8, !tbaa !80
  %14 = icmp eq ptr %13, null
  br i1 %14, label %129, label %15

15:                                               ; preds = %11
  %16 = getelementptr inbounds %"class.xercesc_2_5::DOMRangeImpl", ptr %0, i64 0, i32 3
  %17 = load ptr, ptr %16, align 8, !tbaa !88
  %18 = icmp eq ptr %17, null
  br i1 %18, label %129, label %19

19:                                               ; preds = %15
  %20 = icmp eq ptr %13, %17
  br i1 %20, label %21, label %23

21:                                               ; preds = %19
  %22 = tail call noundef ptr @_ZN11xercesc_2_512DOMRangeImpl21traverseSameContainerEi(ptr noundef nonnull align 8 dereferenceable(80) %0, i32 noundef %1)
  br label %129

23:                                               ; preds = %19
  %24 = load ptr, ptr %17, align 8, !tbaa !77
  %25 = getelementptr inbounds ptr, ptr %24, i64 5
  %26 = load ptr, ptr %25, align 8
  %27 = tail call noundef ptr %26(ptr noundef nonnull align 8 dereferenceable(8) %17)
  %28 = icmp eq ptr %27, null
  br i1 %28, label %47, label %29

29:                                               ; preds = %23
  %30 = load ptr, ptr %12, align 8, !tbaa !80
  %31 = icmp eq ptr %27, %30
  br i1 %31, label %44, label %35

32:                                               ; preds = %35
  %33 = load ptr, ptr %12, align 8, !tbaa !80
  %34 = icmp eq ptr %42, %33
  br i1 %34, label %44, label %35

35:                                               ; preds = %29, %32
  %36 = phi i32 [ %38, %32 ], [ 0, %29 ]
  %37 = phi ptr [ %42, %32 ], [ %27, %29 ]
  %38 = add nuw nsw i32 %36, 1
  %39 = load ptr, ptr %37, align 8, !tbaa !77
  %40 = getelementptr inbounds ptr, ptr %39, i64 5
  %41 = load ptr, ptr %40, align 8
  %42 = tail call noundef ptr %41(ptr noundef nonnull align 8 dereferenceable(8) %37)
  %43 = icmp eq ptr %42, null
  br i1 %43, label %47, label %32

44:                                               ; preds = %32, %29
  %45 = phi ptr [ %17, %29 ], [ %37, %32 ]
  %46 = tail call noundef ptr @_ZN11xercesc_2_512DOMRangeImpl28traverseCommonStartContainerEPNS_7DOMNodeEi(ptr noundef nonnull align 8 dereferenceable(80) %0, ptr noundef nonnull %45, i32 noundef %1)
  br label %129

47:                                               ; preds = %35, %23
  %48 = phi i32 [ 0, %23 ], [ %38, %35 ]
  %49 = load ptr, ptr %12, align 8, !tbaa !80
  %50 = load ptr, ptr %49, align 8, !tbaa !77
  %51 = getelementptr inbounds ptr, ptr %50, i64 5
  %52 = load ptr, ptr %51, align 8
  %53 = tail call noundef ptr %52(ptr noundef nonnull align 8 dereferenceable(8) %49)
  %54 = icmp eq ptr %53, null
  br i1 %54, label %73, label %55

55:                                               ; preds = %47
  %56 = load ptr, ptr %16, align 8, !tbaa !88
  %57 = icmp eq ptr %53, %56
  br i1 %57, label %70, label %61

58:                                               ; preds = %61
  %59 = load ptr, ptr %16, align 8, !tbaa !88
  %60 = icmp eq ptr %68, %59
  br i1 %60, label %70, label %61

61:                                               ; preds = %55, %58
  %62 = phi i32 [ %64, %58 ], [ 0, %55 ]
  %63 = phi ptr [ %68, %58 ], [ %53, %55 ]
  %64 = add nuw nsw i32 %62, 1
  %65 = load ptr, ptr %63, align 8, !tbaa !77
  %66 = getelementptr inbounds ptr, ptr %65, i64 5
  %67 = load ptr, ptr %66, align 8
  %68 = tail call noundef ptr %67(ptr noundef nonnull align 8 dereferenceable(8) %63)
  %69 = icmp eq ptr %68, null
  br i1 %69, label %73, label %58

70:                                               ; preds = %58, %55
  %71 = phi ptr [ %49, %55 ], [ %63, %58 ]
  %72 = tail call noundef ptr @_ZN11xercesc_2_512DOMRangeImpl26traverseCommonEndContainerEPNS_7DOMNodeEi(ptr noundef nonnull align 8 dereferenceable(80) %0, ptr noundef nonnull %71, i32 noundef %1)
  br label %129

73:                                               ; preds = %61, %47
  %74 = phi i32 [ 0, %47 ], [ %64, %61 ]
  %75 = sub nsw i32 %74, %48
  %76 = load ptr, ptr %12, align 8, !tbaa !80
  %77 = icmp sgt i32 %75, 0
  br i1 %77, label %78, label %89

78:                                               ; preds = %73, %78
  %79 = phi ptr [ %84, %78 ], [ %76, %73 ]
  %80 = phi i32 [ %85, %78 ], [ %75, %73 ]
  %81 = load ptr, ptr %79, align 8, !tbaa !77
  %82 = getelementptr inbounds ptr, ptr %81, i64 5
  %83 = load ptr, ptr %82, align 8
  %84 = tail call noundef ptr %83(ptr noundef nonnull align 8 dereferenceable(8) %79)
  %85 = add nsw i32 %80, -1
  %86 = icmp ugt i32 %80, 1
  br i1 %86, label %78, label %87

87:                                               ; preds = %78
  %88 = load ptr, ptr %16, align 8, !tbaa !88
  br label %101

89:                                               ; preds = %73
  %90 = load ptr, ptr %16, align 8, !tbaa !88
  %91 = icmp slt i32 %75, 0
  br i1 %91, label %92, label %101

92:                                               ; preds = %89, %92
  %93 = phi ptr [ %98, %92 ], [ %90, %89 ]
  %94 = phi i32 [ %99, %92 ], [ %75, %89 ]
  %95 = load ptr, ptr %93, align 8, !tbaa !77
  %96 = getelementptr inbounds ptr, ptr %95, i64 5
  %97 = load ptr, ptr %96, align 8
  %98 = tail call noundef ptr %97(ptr noundef nonnull align 8 dereferenceable(8) %93)
  %99 = add i32 %94, 1
  %100 = icmp eq i32 %99, 0
  br i1 %100, label %101, label %92

101:                                              ; preds = %92, %87, %89
  %102 = phi ptr [ %76, %89 ], [ %84, %87 ], [ %76, %92 ]
  %103 = phi ptr [ %90, %89 ], [ %88, %87 ], [ %98, %92 ]
  %104 = load ptr, ptr %102, align 8, !tbaa !77
  %105 = getelementptr inbounds ptr, ptr %104, i64 5
  %106 = load ptr, ptr %105, align 8
  %107 = tail call noundef ptr %106(ptr noundef nonnull align 8 dereferenceable(8) %102)
  %108 = load ptr, ptr %103, align 8, !tbaa !77
  %109 = getelementptr inbounds ptr, ptr %108, i64 5
  %110 = load ptr, ptr %109, align 8
  %111 = tail call noundef ptr %110(ptr noundef nonnull align 8 dereferenceable(8) %103)
  %112 = icmp eq ptr %107, %111
  br i1 %112, label %113, label %117

113:                                              ; preds = %117, %101
  %114 = phi ptr [ %102, %101 ], [ %119, %117 ]
  %115 = phi ptr [ %103, %101 ], [ %118, %117 ]
  %116 = tail call noundef ptr @_ZN11xercesc_2_512DOMRangeImpl23traverseCommonAncestorsEPNS_7DOMNodeES2_i(ptr noundef nonnull align 8 dereferenceable(80) %0, ptr noundef nonnull %114, ptr noundef nonnull %115, i32 noundef %1)
  br label %129

117:                                              ; preds = %101, %117
  %118 = phi ptr [ %127, %117 ], [ %111, %101 ]
  %119 = phi ptr [ %123, %117 ], [ %107, %101 ]
  %120 = load ptr, ptr %119, align 8, !tbaa !77
  %121 = getelementptr inbounds ptr, ptr %120, i64 5
  %122 = load ptr, ptr %121, align 8
  %123 = tail call noundef ptr %122(ptr noundef nonnull align 8 dereferenceable(8) %119)
  %124 = load ptr, ptr %118, align 8, !tbaa !77
  %125 = getelementptr inbounds ptr, ptr %124, i64 5
  %126 = load ptr, ptr %125, align 8
  %127 = tail call noundef ptr %126(ptr noundef nonnull align 8 dereferenceable(8) %118)
  %128 = icmp eq ptr %123, %127
  br i1 %128, label %113, label %117

129:                                              ; preds = %70, %44, %113, %11, %15, %21
  %130 = phi ptr [ %22, %21 ], [ null, %15 ], [ null, %11 ], [ %46, %44 ], [ %116, %113 ], [ %72, %70 ]
  ret ptr %130
}

; Function Attrs: uwtable
define dso_local noundef ptr @_ZN11xercesc_2_512DOMRangeImpl15extractContentsEv(ptr noundef nonnull align 8 dereferenceable(80) %0) unnamed_addr #5 align 2 {
  %2 = getelementptr inbounds %"class.xercesc_2_5::DOMRangeImpl", ptr %0, i64 0, i32 1
  %3 = load ptr, ptr %2, align 8, !tbaa !80
  %4 = getelementptr inbounds %"class.xercesc_2_5::DOMRangeImpl", ptr %0, i64 0, i32 3
  %5 = load ptr, ptr %4, align 8, !tbaa !88
  %6 = getelementptr inbounds %"class.xercesc_2_5::DOMRangeImpl", ptr %0, i64 0, i32 2
  %7 = load i64, ptr %6, align 8, !tbaa !87
  %8 = getelementptr inbounds %"class.xercesc_2_5::DOMRangeImpl", ptr %0, i64 0, i32 4
  %9 = load i64, ptr %8, align 8, !tbaa !89
  tail call void @_ZN11xercesc_2_512DOMRangeImpl13checkReadOnlyEPNS_7DOMNodeES2_mm(ptr noundef nonnull align 8 dereferenceable(80) %0, ptr noundef %3, ptr noundef %5, i64 noundef %7, i64 noundef %9)
  %10 = tail call noundef ptr @_ZN11xercesc_2_512DOMRangeImpl16traverseContentsENS0_13TraversalTypeE(ptr noundef nonnull align 8 dereferenceable(80) %0, i32 noundef 1)
  ret ptr %10
}

; Function Attrs: uwtable
define dso_local void @_ZN11xercesc_2_512DOMRangeImpl13checkReadOnlyEPNS_7DOMNodeES2_mm(ptr nocapture noundef nonnull readnone align 8 dereferenceable(80) %0, ptr noundef %1, ptr noundef %2, i64 noundef %3, i64 noundef %4) local_unnamed_addr #5 align 2 personality ptr @__gxx_personality_v0 {
  %6 = icmp eq ptr %1, null
  %7 = icmp eq ptr %2, null
  %8 = or i1 %6, %7
  br i1 %8, label %78, label %9

9:                                                ; preds = %5
  %10 = load ptr, ptr %1, align 8, !tbaa !77
  %11 = getelementptr inbounds ptr, ptr %10, i64 4
  %12 = load ptr, ptr %11, align 8
  %13 = tail call noundef signext i16 %12(ptr noundef nonnull align 8 dereferenceable(8) %1)
  switch i16 %13, label %32 [
    i16 10, label %14
    i16 8, label %19
    i16 7, label %19
    i16 4, label %19
    i16 3, label %19
  ]

14:                                               ; preds = %9
  %15 = tail call ptr @__cxa_allocate_exception(i64 24) #14
  invoke void @_ZN11xercesc_2_512DOMExceptionC1EsPKt(ptr noundef nonnull align 8 dereferenceable(24) %15, i16 noundef signext 3, ptr noundef null)
          to label %16 unwind label %17

16:                                               ; preds = %14
  tail call void @__cxa_throw(ptr nonnull %15, ptr nonnull @_ZTIN11xercesc_2_512DOMExceptionE, ptr nonnull @_ZN11xercesc_2_512DOMExceptionD1Ev) #15
  unreachable

17:                                               ; preds = %14
  %18 = landingpad { ptr, i32 }
          cleanup
  br label %79

19:                                               ; preds = %9, %9, %9, %9
  %20 = getelementptr inbounds %"class.xercesc_2_5::DOMElementImpl", ptr %1, i64 0, i32 1, i32 1
  %21 = load i16, ptr %20, align 8, !tbaa !119
  %22 = load i16, ptr @_ZN11xercesc_2_511DOMNodeImpl8READONLYE, align 2, !tbaa !97
  %23 = and i16 %22, %21
  %24 = icmp eq i16 %23, 0
  br i1 %24, label %30, label %25

25:                                               ; preds = %19
  %26 = tail call ptr @__cxa_allocate_exception(i64 24) #14
  invoke void @_ZN11xercesc_2_512DOMExceptionC1EsPKt(ptr noundef nonnull align 8 dereferenceable(24) %26, i16 noundef signext 7, ptr noundef null)
          to label %27 unwind label %28

27:                                               ; preds = %25
  tail call void @__cxa_throw(ptr nonnull %26, ptr nonnull @_ZTIN11xercesc_2_512DOMExceptionE, ptr nonnull @_ZN11xercesc_2_512DOMExceptionD1Ev) #15
  unreachable

28:                                               ; preds = %25
  %29 = landingpad { ptr, i32 }
          cleanup
  br label %79

30:                                               ; preds = %19
  %31 = icmp eq ptr %1, %2
  br i1 %31, label %78, label %47

32:                                               ; preds = %9
  %33 = load ptr, ptr %1, align 8, !tbaa !77
  %34 = getelementptr inbounds ptr, ptr %33, i64 7
  %35 = load ptr, ptr %34, align 8
  %36 = tail call noundef ptr %35(ptr noundef nonnull align 8 dereferenceable(8) %1)
  %37 = icmp eq i64 %3, 0
  br i1 %37, label %47, label %38

38:                                               ; preds = %32, %38
  %39 = phi i64 [ %45, %38 ], [ 0, %32 ]
  %40 = phi ptr [ %44, %38 ], [ %36, %32 ]
  %41 = load ptr, ptr %40, align 8, !tbaa !77
  %42 = getelementptr inbounds ptr, ptr %41, i64 10
  %43 = load ptr, ptr %42, align 8
  %44 = tail call noundef ptr %43(ptr noundef nonnull align 8 dereferenceable(8) %40)
  %45 = add nuw i64 %39, 1
  %46 = icmp eq i64 %45, %3
  br i1 %46, label %47, label %38

47:                                               ; preds = %38, %32, %30
  %48 = phi ptr [ %1, %30 ], [ %36, %32 ], [ %44, %38 ]
  %49 = load ptr, ptr %2, align 8, !tbaa !77
  %50 = getelementptr inbounds ptr, ptr %49, i64 4
  %51 = load ptr, ptr %50, align 8
  %52 = tail call noundef signext i16 %51(ptr noundef nonnull align 8 dereferenceable(8) %2)
  switch i16 %52, label %58 [
    i16 10, label %53
    i16 8, label %76
    i16 7, label %76
    i16 4, label %76
    i16 3, label %76
  ]

53:                                               ; preds = %47
  %54 = tail call ptr @__cxa_allocate_exception(i64 24) #14
  invoke void @_ZN11xercesc_2_512DOMExceptionC1EsPKt(ptr noundef nonnull align 8 dereferenceable(24) %54, i16 noundef signext 3, ptr noundef null)
          to label %55 unwind label %56

55:                                               ; preds = %53
  tail call void @__cxa_throw(ptr nonnull %54, ptr nonnull @_ZTIN11xercesc_2_512DOMExceptionE, ptr nonnull @_ZN11xercesc_2_512DOMExceptionD1Ev) #15
  unreachable

56:                                               ; preds = %53
  %57 = landingpad { ptr, i32 }
          cleanup
  br label %79

58:                                               ; preds = %47
  %59 = load ptr, ptr %2, align 8, !tbaa !77
  %60 = getelementptr inbounds ptr, ptr %59, i64 7
  %61 = load ptr, ptr %60, align 8
  %62 = tail call noundef ptr %61(ptr noundef nonnull align 8 dereferenceable(8) %2)
  %63 = icmp eq i64 %4, 0
  br i1 %63, label %76, label %64

64:                                               ; preds = %58
  %65 = add i64 %4, -1
  %66 = icmp eq i64 %65, 0
  br i1 %66, label %76, label %67

67:                                               ; preds = %64, %67
  %68 = phi i64 [ %74, %67 ], [ 0, %64 ]
  %69 = phi ptr [ %73, %67 ], [ %62, %64 ]
  %70 = load ptr, ptr %69, align 8, !tbaa !77
  %71 = getelementptr inbounds ptr, ptr %70, i64 10
  %72 = load ptr, ptr %71, align 8
  %73 = tail call noundef ptr %72(ptr noundef nonnull align 8 dereferenceable(8) %69)
  %74 = add nuw i64 %68, 1
  %75 = icmp eq i64 %74, %65
  br i1 %75, label %76, label %67

76:                                               ; preds = %67, %64, %47, %47, %47, %47, %58
  %77 = phi ptr [ %62, %58 ], [ %2, %47 ], [ %2, %47 ], [ %2, %47 ], [ %2, %47 ], [ %62, %64 ], [ %73, %67 ]
  tail call void @_ZN11xercesc_2_512DOMRangeImpl19recurseTreeAndCheckEPNS_7DOMNodeES2_(ptr noundef nonnull align 8 dereferenceable(80) %0, ptr noundef %48, ptr noundef %77)
  br label %78

78:                                               ; preds = %76, %30, %5
  ret void

79:                                               ; preds = %56, %28, %17
  %80 = phi ptr [ %54, %56 ], [ %26, %28 ], [ %15, %17 ]
  %81 = phi { ptr, i32 } [ %57, %56 ], [ %29, %28 ], [ %18, %17 ]
  tail call void @__cxa_free_exception(ptr %80) #14
  resume { ptr, i32 } %81
}

; Function Attrs: uwtable
define dso_local noundef ptr @_ZNK11xercesc_2_512DOMRangeImpl13cloneContentsEv(ptr noundef nonnull align 8 dereferenceable(80) %0) unnamed_addr #5 align 2 {
  %2 = tail call noundef ptr @_ZN11xercesc_2_512DOMRangeImpl16traverseContentsENS0_13TraversalTypeE(ptr noundef nonnull align 8 dereferenceable(80) %0, i32 noundef 2)
  ret ptr %2
}

; Function Attrs: uwtable
define dso_local void @_ZN11xercesc_2_512DOMRangeImpl10insertNodeEPNS_7DOMNodeE(ptr nocapture noundef nonnull readonly align 8 dereferenceable(80) %0, ptr noundef %1) unnamed_addr #5 align 2 personality ptr @__gxx_personality_v0 {
  %3 = icmp eq ptr %1, null
  br i1 %3, label %159, label %4

4:                                                ; preds = %2
  %5 = getelementptr inbounds %"class.xercesc_2_5::DOMRangeImpl", ptr %0, i64 0, i32 7
  %6 = load i8, ptr %5, align 8, !tbaa !92, !range !95, !noundef !96
  %7 = icmp eq i8 %6, 0
  br i1 %7, label %13, label %8

8:                                                ; preds = %4
  %9 = tail call ptr @__cxa_allocate_exception(i64 24) #14
  invoke void @_ZN11xercesc_2_512DOMExceptionC1EsPKt(ptr noundef nonnull align 8 dereferenceable(24) %9, i16 noundef signext 11, ptr noundef null)
          to label %10 unwind label %11

10:                                               ; preds = %8
  tail call void @__cxa_throw(ptr nonnull %9, ptr nonnull @_ZTIN11xercesc_2_512DOMExceptionE, ptr nonnull @_ZN11xercesc_2_512DOMExceptionD1Ev) #15
  unreachable

11:                                               ; preds = %8
  %12 = landingpad { ptr, i32 }
          cleanup
  br label %160

13:                                               ; preds = %4
  %14 = load ptr, ptr %1, align 8, !tbaa !77
  %15 = getelementptr inbounds ptr, ptr %14, i64 4
  %16 = load ptr, ptr %15, align 8
  %17 = tail call noundef signext i16 %16(ptr noundef nonnull align 8 dereferenceable(8) %1)
  switch i16 %17, label %23 [
    i16 12, label %18
    i16 9, label %18
    i16 6, label %18
    i16 2, label %18
  ]

18:                                               ; preds = %13, %13, %13, %13
  %19 = tail call ptr @__cxa_allocate_exception(i64 32) #14
  invoke void @_ZN11xercesc_2_517DOMRangeExceptionC1ENS0_18RangeExceptionCodeEPKt(ptr noundef nonnull align 8 dereferenceable(28) %19, i32 noundef 2, ptr noundef null)
          to label %20 unwind label %21

20:                                               ; preds = %18
  tail call void @__cxa_throw(ptr nonnull %19, ptr nonnull @_ZTIN11xercesc_2_517DOMRangeExceptionE, ptr nonnull @_ZN11xercesc_2_517DOMRangeExceptionD1Ev) #15
  unreachable

21:                                               ; preds = %18
  %22 = landingpad { ptr, i32 }
          cleanup
  br label %160

23:                                               ; preds = %13
  %24 = getelementptr inbounds %"class.xercesc_2_5::DOMRangeImpl", ptr %0, i64 0, i32 1
  %25 = load ptr, ptr %24, align 8, !tbaa !80
  %26 = icmp ne ptr %25, null
  %27 = icmp ne ptr %25, %1
  %28 = and i1 %27, %26
  br i1 %28, label %29, label %38

29:                                               ; preds = %23, %29
  %30 = phi ptr [ %34, %29 ], [ %25, %23 ]
  %31 = load ptr, ptr %30, align 8, !tbaa !77
  %32 = getelementptr inbounds ptr, ptr %31, i64 5
  %33 = load ptr, ptr %32, align 8
  %34 = tail call noundef ptr %33(ptr noundef nonnull align 8 dereferenceable(8) %30)
  %35 = icmp ne ptr %34, null
  %36 = icmp ne ptr %34, %1
  %37 = and i1 %36, %35
  br i1 %37, label %29, label %38

38:                                               ; preds = %29, %23
  %39 = phi i1 [ %26, %23 ], [ %35, %29 ]
  br i1 %39, label %40, label %45

40:                                               ; preds = %38
  %41 = tail call ptr @__cxa_allocate_exception(i64 24) #14
  invoke void @_ZN11xercesc_2_512DOMExceptionC1EsPKt(ptr noundef nonnull align 8 dereferenceable(24) %41, i16 noundef signext 3, ptr noundef null)
          to label %42 unwind label %43

42:                                               ; preds = %40
  tail call void @__cxa_throw(ptr nonnull %41, ptr nonnull @_ZTIN11xercesc_2_512DOMExceptionE, ptr nonnull @_ZN11xercesc_2_512DOMExceptionD1Ev) #15
  unreachable

43:                                               ; preds = %40
  %44 = landingpad { ptr, i32 }
          cleanup
  br label %160

45:                                               ; preds = %38
  %46 = load ptr, ptr %24, align 8, !tbaa !80
  %47 = icmp eq ptr %46, null
  br i1 %47, label %51, label %48

48:                                               ; preds = %45
  %49 = getelementptr inbounds %"class.xercesc_2_5::DOMElementImpl", ptr %1, i64 0, i32 1, i32 1
  %50 = load i16, ptr @_ZN11xercesc_2_511DOMNodeImpl8READONLYE, align 2, !tbaa !97
  br label %59

51:                                               ; preds = %69, %45
  %52 = getelementptr inbounds %"class.xercesc_2_5::DOMRangeImpl", ptr %0, i64 0, i32 6
  %53 = load ptr, ptr %52, align 8, !tbaa !91
  %54 = load ptr, ptr %1, align 8, !tbaa !77
  %55 = getelementptr inbounds ptr, ptr %54, i64 12
  %56 = load ptr, ptr %55, align 8
  %57 = tail call noundef ptr %56(ptr noundef nonnull align 8 dereferenceable(8) %1)
  %58 = icmp eq ptr %53, %57
  br i1 %58, label %80, label %75

59:                                               ; preds = %48, %69
  %60 = phi ptr [ %46, %48 ], [ %73, %69 ]
  %61 = load i16, ptr %49, align 8, !tbaa !119
  %62 = and i16 %50, %61
  %63 = icmp eq i16 %62, 0
  br i1 %63, label %69, label %64

64:                                               ; preds = %59
  %65 = tail call ptr @__cxa_allocate_exception(i64 24) #14
  invoke void @_ZN11xercesc_2_512DOMExceptionC1EsPKt(ptr noundef nonnull align 8 dereferenceable(24) %65, i16 noundef signext 7, ptr noundef null)
          to label %66 unwind label %67

66:                                               ; preds = %64
  tail call void @__cxa_throw(ptr nonnull %65, ptr nonnull @_ZTIN11xercesc_2_512DOMExceptionE, ptr nonnull @_ZN11xercesc_2_512DOMExceptionD1Ev) #15
  unreachable

67:                                               ; preds = %64
  %68 = landingpad { ptr, i32 }
          cleanup
  br label %160

69:                                               ; preds = %59
  %70 = load ptr, ptr %60, align 8, !tbaa !77
  %71 = getelementptr inbounds ptr, ptr %70, i64 5
  %72 = load ptr, ptr %71, align 8
  %73 = tail call noundef ptr %72(ptr noundef nonnull align 8 dereferenceable(8) %60)
  %74 = icmp eq ptr %73, null
  br i1 %74, label %51, label %59

75:                                               ; preds = %51
  %76 = tail call ptr @__cxa_allocate_exception(i64 24) #14
  invoke void @_ZN11xercesc_2_512DOMExceptionC1EsPKt(ptr noundef nonnull align 8 dereferenceable(24) %76, i16 noundef signext 4, ptr noundef null)
          to label %77 unwind label %78

77:                                               ; preds = %75
  tail call void @__cxa_throw(ptr nonnull %76, ptr nonnull @_ZTIN11xercesc_2_512DOMExceptionE, ptr nonnull @_ZN11xercesc_2_512DOMExceptionD1Ev) #15
  unreachable

78:                                               ; preds = %75
  %79 = landingpad { ptr, i32 }
          cleanup
  br label %160

80:                                               ; preds = %51
  %81 = load ptr, ptr %24, align 8, !tbaa !80
  %82 = load ptr, ptr %81, align 8, !tbaa !77
  %83 = getelementptr inbounds ptr, ptr %82, i64 4
  %84 = load ptr, ptr %83, align 8
  %85 = tail call noundef signext i16 %84(ptr noundef nonnull align 8 dereferenceable(8) %81)
  switch i16 %85, label %119 [
    i16 8, label %86
    i16 7, label %86
    i16 4, label %86
    i16 3, label %86
  ]

86:                                               ; preds = %80, %80, %80, %80
  %87 = load ptr, ptr %24, align 8, !tbaa !80
  %88 = load ptr, ptr %87, align 8, !tbaa !77
  %89 = getelementptr inbounds ptr, ptr %88, i64 5
  %90 = load ptr, ptr %89, align 8
  %91 = tail call noundef ptr %90(ptr noundef nonnull align 8 dereferenceable(8) %87)
  %92 = getelementptr inbounds %"class.xercesc_2_5::DOMRangeImpl", ptr %0, i64 0, i32 2
  %93 = load i64, ptr %92, align 8, !tbaa !87
  %94 = icmp eq i64 %93, 0
  br i1 %94, label %111, label %95

95:                                               ; preds = %86
  switch i16 %85, label %102 [
    i16 8, label %96
    i16 7, label %99
  ]

96:                                               ; preds = %95
  %97 = load ptr, ptr %24, align 8, !tbaa !80
  %98 = tail call noundef ptr @_ZN11xercesc_2_514DOMCommentImpl9splitTextEm(ptr noundef nonnull align 8 dereferenceable(56) %97, i64 noundef %93)
  br label %108

99:                                               ; preds = %95
  %100 = load ptr, ptr %24, align 8, !tbaa !80
  %101 = tail call noundef ptr @_ZN11xercesc_2_528DOMProcessingInstructionImpl9splitTextEm(ptr noundef nonnull align 8 dereferenceable(72) %100, i64 noundef %93)
  br label %108

102:                                              ; preds = %95
  %103 = load ptr, ptr %24, align 8, !tbaa !80
  %104 = load ptr, ptr %103, align 8, !tbaa !77
  %105 = getelementptr inbounds ptr, ptr %104, i64 48
  %106 = load ptr, ptr %105, align 8
  %107 = tail call noundef ptr %106(ptr noundef nonnull align 8 dereferenceable(8) %103, i64 noundef %93)
  br label %108

108:                                              ; preds = %96, %102, %99
  %109 = load i64, ptr %92, align 8, !tbaa !87
  %110 = icmp eq i64 %109, 0
  br i1 %110, label %111, label %113

111:                                              ; preds = %86, %108
  %112 = load ptr, ptr %24, align 8, !tbaa !80
  br label %142

113:                                              ; preds = %108
  %114 = load ptr, ptr %24, align 8, !tbaa !80
  %115 = load ptr, ptr %114, align 8, !tbaa !77
  %116 = getelementptr inbounds ptr, ptr %115, i64 10
  %117 = load ptr, ptr %116, align 8
  %118 = tail call noundef ptr %117(ptr noundef nonnull align 8 dereferenceable(8) %114)
  br label %142

119:                                              ; preds = %80
  %120 = load ptr, ptr %24, align 8, !tbaa !80
  %121 = load ptr, ptr %120, align 8, !tbaa !77
  %122 = getelementptr inbounds ptr, ptr %121, i64 7
  %123 = load ptr, ptr %122, align 8
  %124 = tail call noundef ptr %123(ptr noundef nonnull align 8 dereferenceable(8) %120)
  %125 = getelementptr inbounds %"class.xercesc_2_5::DOMRangeImpl", ptr %0, i64 0, i32 2
  %126 = load i64, ptr %125, align 8, !tbaa !87
  %127 = icmp ne i64 %126, 0
  %128 = icmp ne ptr %124, null
  %129 = and i1 %128, %127
  br i1 %129, label %130, label %146

130:                                              ; preds = %119, %130
  %131 = phi i64 [ %137, %130 ], [ 0, %119 ]
  %132 = phi ptr [ %136, %130 ], [ %124, %119 ]
  %133 = load ptr, ptr %132, align 8, !tbaa !77
  %134 = getelementptr inbounds ptr, ptr %133, i64 10
  %135 = load ptr, ptr %134, align 8
  %136 = tail call noundef ptr %135(ptr noundef nonnull align 8 dereferenceable(8) %132)
  %137 = add nuw i64 %131, 1
  %138 = load i64, ptr %125, align 8, !tbaa !87
  %139 = icmp ult i64 %137, %138
  %140 = icmp ne ptr %136, null
  %141 = and i1 %140, %139
  br i1 %141, label %130, label %142

142:                                              ; preds = %130, %111, %113
  %143 = phi ptr [ %91, %111 ], [ %91, %113 ], [ %120, %130 ]
  %144 = phi ptr [ %112, %111 ], [ %118, %113 ], [ %136, %130 ]
  %145 = icmp eq ptr %143, null
  br i1 %145, label %159, label %146

146:                                              ; preds = %119, %142
  %147 = phi ptr [ %144, %142 ], [ %124, %119 ]
  %148 = phi ptr [ %143, %142 ], [ %120, %119 ]
  %149 = icmp eq ptr %147, null
  %150 = load ptr, ptr %148, align 8, !tbaa !77
  br i1 %149, label %155, label %151

151:                                              ; preds = %146
  %152 = getelementptr inbounds ptr, ptr %150, i64 14
  %153 = load ptr, ptr %152, align 8
  %154 = tail call noundef ptr %153(ptr noundef nonnull align 8 dereferenceable(8) %148, ptr noundef nonnull %1, ptr noundef nonnull %147)
  br label %159

155:                                              ; preds = %146
  %156 = getelementptr inbounds ptr, ptr %150, i64 17
  %157 = load ptr, ptr %156, align 8
  %158 = tail call noundef ptr %157(ptr noundef nonnull align 8 dereferenceable(8) %148, ptr noundef nonnull %1)
  br label %159

159:                                              ; preds = %142, %155, %151, %2
  ret void

160:                                              ; preds = %21, %43, %67, %78, %11
  %161 = phi ptr [ %19, %21 ], [ %41, %43 ], [ %65, %67 ], [ %76, %78 ], [ %9, %11 ]
  %162 = phi { ptr, i32 } [ %22, %21 ], [ %44, %43 ], [ %68, %67 ], [ %79, %78 ], [ %12, %11 ]
  tail call void @__cxa_free_exception(ptr %161) #14
  resume { ptr, i32 } %162
}

declare noundef ptr @_ZN11xercesc_2_514DOMCommentImpl9splitTextEm(ptr noundef nonnull align 8 dereferenceable(56), i64 noundef) local_unnamed_addr #6

declare noundef ptr @_ZN11xercesc_2_528DOMProcessingInstructionImpl9splitTextEm(ptr noundef nonnull align 8 dereferenceable(72), i64 noundef) local_unnamed_addr #6

; Function Attrs: uwtable
define dso_local noundef ptr @_ZNK11xercesc_2_512DOMRangeImpl10cloneRangeEv(ptr nocapture noundef nonnull readonly align 8 dereferenceable(80) %0) unnamed_addr #5 align 2 personality ptr @__gxx_personality_v0 {
  %2 = getelementptr inbounds %"class.xercesc_2_5::DOMRangeImpl", ptr %0, i64 0, i32 7
  %3 = load i8, ptr %2, align 8, !tbaa !92, !range !95, !noundef !96
  %4 = icmp eq i8 %3, 0
  br i1 %4, label %10, label %5

5:                                                ; preds = %1
  %6 = tail call ptr @__cxa_allocate_exception(i64 24) #14
  invoke void @_ZN11xercesc_2_512DOMExceptionC1EsPKt(ptr noundef nonnull align 8 dereferenceable(24) %6, i16 noundef signext 11, ptr noundef null)
          to label %7 unwind label %8

7:                                                ; preds = %5
  tail call void @__cxa_throw(ptr nonnull %6, ptr nonnull @_ZTIN11xercesc_2_512DOMExceptionE, ptr nonnull @_ZN11xercesc_2_512DOMExceptionD1Ev) #15
  unreachable

8:                                                ; preds = %5
  %9 = landingpad { ptr, i32 }
          cleanup
  tail call void @__cxa_free_exception(ptr %6) #14
  resume { ptr, i32 } %9

10:                                               ; preds = %1
  %11 = getelementptr inbounds %"class.xercesc_2_5::DOMRangeImpl", ptr %0, i64 0, i32 6
  %12 = load ptr, ptr %11, align 8, !tbaa !91
  %13 = load ptr, ptr %12, align 8, !tbaa !77
  %14 = getelementptr inbounds ptr, ptr %13, i64 2
  %15 = load ptr, ptr %14, align 8
  %16 = tail call noundef ptr %15(ptr noundef nonnull align 8 dereferenceable(8) %12)
  %17 = getelementptr inbounds %"class.xercesc_2_5::DOMRangeImpl", ptr %0, i64 0, i32 1
  %18 = load ptr, ptr %17, align 8, !tbaa !80
  %19 = getelementptr inbounds %"class.xercesc_2_5::DOMRangeImpl", ptr %0, i64 0, i32 2
  %20 = load i64, ptr %19, align 8, !tbaa !87
  %21 = load ptr, ptr %16, align 8, !tbaa !77
  %22 = getelementptr inbounds ptr, ptr %21, i64 8
  %23 = load ptr, ptr %22, align 8
  tail call void %23(ptr noundef nonnull align 8 dereferenceable(8) %16, ptr noundef %18, i64 noundef %20)
  %24 = getelementptr inbounds %"class.xercesc_2_5::DOMRangeImpl", ptr %0, i64 0, i32 3
  %25 = load ptr, ptr %24, align 8, !tbaa !88
  %26 = getelementptr inbounds %"class.xercesc_2_5::DOMRangeImpl", ptr %0, i64 0, i32 4
  %27 = load i64, ptr %26, align 8, !tbaa !89
  %28 = load ptr, ptr %16, align 8, !tbaa !77
  %29 = getelementptr inbounds ptr, ptr %28, i64 9
  %30 = load ptr, ptr %29, align 8
  tail call void %30(ptr noundef nonnull align 8 dereferenceable(8) %16, ptr noundef %25, i64 noundef %27)
  ret ptr %16
}

; Function Attrs: uwtable
define dso_local noundef ptr @_ZNK11xercesc_2_512DOMRangeImpl8toStringEv(ptr nocapture noundef nonnull readonly align 8 dereferenceable(80) %0) unnamed_addr #5 align 2 personality ptr @__gxx_personality_v0 {
  %2 = alloca %"class.xercesc_2_5::XMLBuffer", align 8
  %3 = alloca [4000 x i16], align 16
  %4 = alloca [4000 x i16], align 16
  %5 = alloca [4000 x i16], align 16
  %6 = getelementptr inbounds %"class.xercesc_2_5::DOMRangeImpl", ptr %0, i64 0, i32 7
  %7 = load i8, ptr %6, align 8, !tbaa !92, !range !95, !noundef !96
  %8 = icmp eq i8 %7, 0
  br i1 %8, label %14, label %9

9:                                                ; preds = %1
  %10 = tail call ptr @__cxa_allocate_exception(i64 24) #14
  invoke void @_ZN11xercesc_2_512DOMExceptionC1EsPKt(ptr noundef nonnull align 8 dereferenceable(24) %10, i16 noundef signext 11, ptr noundef null)
          to label %11 unwind label %12

11:                                               ; preds = %9
  tail call void @__cxa_throw(ptr nonnull %10, ptr nonnull @_ZTIN11xercesc_2_512DOMExceptionE, ptr nonnull @_ZN11xercesc_2_512DOMExceptionD1Ev) #15
  unreachable

12:                                               ; preds = %9
  %13 = landingpad { ptr, i32 }
          cleanup
  tail call void @__cxa_free_exception(ptr %10) #14
  br label %507

14:                                               ; preds = %1
  %15 = getelementptr inbounds %"class.xercesc_2_5::DOMRangeImpl", ptr %0, i64 0, i32 1
  %16 = load ptr, ptr %15, align 8, !tbaa !80
  %17 = getelementptr inbounds %"class.xercesc_2_5::DOMRangeImpl", ptr %0, i64 0, i32 3
  %18 = load ptr, ptr %17, align 8, !tbaa !88
  %19 = icmp eq ptr %16, %18
  br i1 %19, label %20, label %26

20:                                               ; preds = %14
  %21 = getelementptr inbounds %"class.xercesc_2_5::DOMRangeImpl", ptr %0, i64 0, i32 4
  %22 = load i64, ptr %21, align 8, !tbaa !89
  %23 = getelementptr inbounds %"class.xercesc_2_5::DOMRangeImpl", ptr %0, i64 0, i32 2
  %24 = load i64, ptr %23, align 8, !tbaa !87
  %25 = icmp eq i64 %22, %24
  br i1 %25, label %505, label %26

26:                                               ; preds = %20, %14
  call void @llvm.lifetime.start.p0(i64 32, ptr nonnull %2) #14
  %27 = getelementptr inbounds %"class.xercesc_2_5::DOMRangeImpl", ptr %0, i64 0, i32 6
  %28 = load ptr, ptr %27, align 8, !tbaa !91
  %29 = getelementptr inbounds %"class.xercesc_2_5::DOMDocumentImpl", ptr %28, i64 0, i32 24
  %30 = load ptr, ptr %29, align 8, !tbaa !99
  store i8 0, ptr %2, align 8, !tbaa !120
  %31 = getelementptr inbounds %"class.xercesc_2_5::XMLBuffer", ptr %2, i64 0, i32 1
  store i32 0, ptr %31, align 4, !tbaa !122
  %32 = getelementptr inbounds %"class.xercesc_2_5::XMLBuffer", ptr %2, i64 0, i32 2
  store i32 1023, ptr %32, align 8, !tbaa !123
  %33 = getelementptr inbounds %"class.xercesc_2_5::XMLBuffer", ptr %2, i64 0, i32 3
  store ptr %30, ptr %33, align 8, !tbaa !124
  %34 = getelementptr inbounds %"class.xercesc_2_5::XMLBuffer", ptr %2, i64 0, i32 4
  store ptr null, ptr %34, align 8, !tbaa !125
  %35 = load ptr, ptr %30, align 8, !tbaa !77
  %36 = getelementptr inbounds ptr, ptr %35, i64 2
  %37 = load ptr, ptr %36, align 8
  %38 = tail call noundef ptr %37(ptr noundef nonnull align 8 dereferenceable(8) %30, i64 noundef 2048)
  store ptr %38, ptr %34, align 8, !tbaa !125
  store i16 0, ptr %38, align 2, !tbaa !97
  %39 = load ptr, ptr %15, align 8, !tbaa !80
  %40 = load ptr, ptr %39, align 8, !tbaa !77
  %41 = getelementptr inbounds ptr, ptr %40, i64 4
  %42 = load ptr, ptr %41, align 8
  %43 = invoke noundef signext i16 %42(ptr noundef nonnull align 8 dereferenceable(8) %39)
          to label %44 unwind label %73

44:                                               ; preds = %26
  switch i16 %43, label %225 [
    i16 8, label %45
    i16 7, label %45
    i16 4, label %45
    i16 3, label %45
  ]

45:                                               ; preds = %44, %44, %44, %44
  %46 = load ptr, ptr %15, align 8, !tbaa !80
  %47 = load ptr, ptr %17, align 8, !tbaa !88
  %48 = icmp eq ptr %46, %47
  br i1 %48, label %49, label %111

49:                                               ; preds = %45
  call void @llvm.lifetime.start.p0(i64 8000, ptr nonnull %3) #14
  %50 = getelementptr inbounds %"class.xercesc_2_5::DOMRangeImpl", ptr %0, i64 0, i32 4
  %51 = load i64, ptr %50, align 8, !tbaa !89
  %52 = getelementptr inbounds %"class.xercesc_2_5::DOMRangeImpl", ptr %0, i64 0, i32 2
  %53 = load i64, ptr %52, align 8, !tbaa !87
  %54 = sub i64 %51, %53
  %55 = icmp ugt i64 %54, 3998
  br i1 %55, label %56, label %77

56:                                               ; preds = %49
  %57 = getelementptr inbounds %"class.xercesc_2_5::DOMRangeImpl", ptr %0, i64 0, i32 9
  %58 = load ptr, ptr %57, align 8, !tbaa !94
  %59 = shl i64 %54, 1
  %60 = add i64 %59, 2
  %61 = load ptr, ptr %58, align 8, !tbaa !77
  %62 = getelementptr inbounds ptr, ptr %61, i64 2
  %63 = load ptr, ptr %62, align 8
  %64 = invoke noundef ptr %63(ptr noundef nonnull align 8 dereferenceable(8) %58, i64 noundef %60)
          to label %65 unwind label %75

65:                                               ; preds = %56
  %66 = load ptr, ptr %15, align 8, !tbaa !80
  br label %77

67:                                               ; preds = %418, %425
  %68 = landingpad { ptr, i32 }
          cleanup
  br label %497

69:                                               ; preds = %404, %397, %390, %389, %384, %377
  %70 = landingpad { ptr, i32 }
          cleanup
  br label %497

71:                                               ; preds = %278, %285
  %72 = landingpad { ptr, i32 }
          cleanup
  br label %497

73:                                               ; preds = %26, %225, %292, %435, %483, %257, %264
  %74 = landingpad { ptr, i32 }
          cleanup
  br label %497

75:                                               ; preds = %84, %77, %56
  %76 = landingpad { ptr, i32 }
          cleanup
  br label %109

77:                                               ; preds = %65, %49
  %78 = phi ptr [ %66, %65 ], [ %46, %49 ]
  %79 = phi ptr [ %64, %65 ], [ %3, %49 ]
  %80 = load ptr, ptr %78, align 8, !tbaa !77
  %81 = getelementptr inbounds ptr, ptr %80, i64 3
  %82 = load ptr, ptr %81, align 8
  %83 = invoke noundef ptr %82(ptr noundef nonnull align 8 dereferenceable(8) %78)
          to label %84 unwind label %75

84:                                               ; preds = %77
  %85 = load i64, ptr %52, align 8, !tbaa !87
  %86 = trunc i64 %85 to i32
  %87 = load i64, ptr %50, align 8, !tbaa !89
  %88 = trunc i64 %87 to i32
  %89 = load ptr, ptr %27, align 8, !tbaa !91
  %90 = getelementptr inbounds %"class.xercesc_2_5::DOMDocumentImpl", ptr %89, i64 0, i32 24
  %91 = load ptr, ptr %90, align 8, !tbaa !99
  invoke void @_ZN11xercesc_2_59XMLString9subStringEPtPKtiiPNS_13MemoryManagerE(ptr noundef %79, ptr noundef %83, i32 noundef %86, i32 noundef %88, ptr noundef %91)
          to label %92 unwind label %75

92:                                               ; preds = %84
  %93 = load ptr, ptr %27, align 8, !tbaa !91
  %94 = invoke noundef ptr @_ZN11xercesc_2_515DOMDocumentImpl15getPooledStringEPKt(ptr noundef nonnull align 8 dereferenceable(253) %93, ptr noundef %79)
          to label %95 unwind label %106

95:                                               ; preds = %92
  %96 = load i64, ptr %50, align 8, !tbaa !89
  %97 = load i64, ptr %52, align 8, !tbaa !87
  %98 = sub i64 %96, %97
  %99 = icmp ugt i64 %98, 3998
  br i1 %99, label %100, label %108

100:                                              ; preds = %95
  %101 = getelementptr inbounds %"class.xercesc_2_5::DOMRangeImpl", ptr %0, i64 0, i32 9
  %102 = load ptr, ptr %101, align 8, !tbaa !94
  %103 = load ptr, ptr %102, align 8, !tbaa !77
  %104 = getelementptr inbounds ptr, ptr %103, i64 3
  %105 = load ptr, ptr %104, align 8
  invoke void %105(ptr noundef nonnull align 8 dereferenceable(8) %102, ptr noundef %79)
          to label %108 unwind label %106

106:                                              ; preds = %100, %92
  %107 = landingpad { ptr, i32 }
          cleanup
  br label %109

108:                                              ; preds = %100, %95
  call void @llvm.lifetime.end.p0(i64 8000, ptr nonnull %3) #14
  br label %490

109:                                              ; preds = %106, %75
  %110 = phi { ptr, i32 } [ %107, %106 ], [ %76, %75 ]
  call void @llvm.lifetime.end.p0(i64 8000, ptr nonnull %3) #14
  br label %497

111:                                              ; preds = %45
  %112 = load ptr, ptr %46, align 8, !tbaa !77
  %113 = getelementptr inbounds ptr, ptr %112, i64 3
  %114 = load ptr, ptr %113, align 8
  %115 = invoke noundef ptr %114(ptr noundef nonnull align 8 dereferenceable(8) %46)
          to label %116 unwind label %152

116:                                              ; preds = %111
  %117 = icmp eq ptr %115, null
  br i1 %117, label %132, label %118

118:                                              ; preds = %116
  %119 = load i16, ptr %115, align 2, !tbaa !97
  %120 = icmp eq i16 %119, 0
  br i1 %120, label %132, label %121

121:                                              ; preds = %118, %121
  %122 = phi ptr [ %123, %121 ], [ %115, %118 ]
  %123 = getelementptr inbounds i16, ptr %122, i64 1
  %124 = load i16, ptr %123, align 2, !tbaa !97
  %125 = icmp eq i16 %124, 0
  br i1 %125, label %126, label %121

126:                                              ; preds = %121
  %127 = ptrtoint ptr %123 to i64
  %128 = ptrtoint ptr %115 to i64
  %129 = sub i64 %127, %128
  %130 = lshr exact i64 %129, 1
  %131 = trunc i64 %130 to i32
  br label %132

132:                                              ; preds = %116, %118, %126
  %133 = phi i32 [ %131, %126 ], [ 0, %118 ], [ 0, %116 ]
  %134 = zext i32 %133 to i64
  %135 = getelementptr inbounds %"class.xercesc_2_5::DOMRangeImpl", ptr %0, i64 0, i32 2
  %136 = load i64, ptr %135, align 8, !tbaa !87
  %137 = icmp eq i64 %136, %134
  br i1 %137, label %181, label %138

138:                                              ; preds = %132
  call void @llvm.lifetime.start.p0(i64 8000, ptr nonnull %4) #14
  %139 = sub i64 %134, %136
  %140 = icmp ugt i64 %139, 3998
  br i1 %140, label %141, label %156

141:                                              ; preds = %138
  %142 = getelementptr inbounds %"class.xercesc_2_5::DOMRangeImpl", ptr %0, i64 0, i32 9
  %143 = load ptr, ptr %142, align 8, !tbaa !94
  %144 = shl i64 %139, 1
  %145 = add i64 %144, 2
  %146 = load ptr, ptr %143, align 8, !tbaa !77
  %147 = getelementptr inbounds ptr, ptr %146, i64 2
  %148 = load ptr, ptr %147, align 8
  %149 = invoke noundef ptr %148(ptr noundef nonnull align 8 dereferenceable(8) %143, i64 noundef %145)
          to label %156 unwind label %154

150:                                              ; preds = %211, %218
  %151 = landingpad { ptr, i32 }
          cleanup
  br label %497

152:                                              ; preds = %111, %183, %190, %197
  %153 = landingpad { ptr, i32 }
          cleanup
  br label %497

154:                                              ; preds = %174, %169, %163, %156, %141
  %155 = landingpad { ptr, i32 }
          cleanup
  call void @llvm.lifetime.end.p0(i64 8000, ptr nonnull %4) #14
  br label %497

156:                                              ; preds = %138, %141
  %157 = phi ptr [ %149, %141 ], [ %4, %138 ]
  %158 = load ptr, ptr %15, align 8, !tbaa !80
  %159 = load ptr, ptr %158, align 8, !tbaa !77
  %160 = getelementptr inbounds ptr, ptr %159, i64 3
  %161 = load ptr, ptr %160, align 8
  %162 = invoke noundef ptr %161(ptr noundef nonnull align 8 dereferenceable(8) %158)
          to label %163 unwind label %154

163:                                              ; preds = %156
  %164 = load i64, ptr %135, align 8, !tbaa !87
  %165 = trunc i64 %164 to i32
  %166 = load ptr, ptr %27, align 8, !tbaa !91
  %167 = getelementptr inbounds %"class.xercesc_2_5::DOMDocumentImpl", ptr %166, i64 0, i32 24
  %168 = load ptr, ptr %167, align 8, !tbaa !99
  invoke void @_ZN11xercesc_2_59XMLString9subStringEPtPKtiiPNS_13MemoryManagerE(ptr noundef %157, ptr noundef %162, i32 noundef %165, i32 noundef %133, ptr noundef %168)
          to label %169 unwind label %154

169:                                              ; preds = %163
  invoke void @_ZN11xercesc_2_59XMLBuffer6appendEPKtj(ptr noundef nonnull align 8 dereferenceable(32) %2, ptr noundef %157, i32 noundef 0)
          to label %170 unwind label %154

170:                                              ; preds = %169
  %171 = load i64, ptr %135, align 8, !tbaa !87
  %172 = sub i64 %134, %171
  %173 = icmp ugt i64 %172, 3998
  br i1 %173, label %174, label %180

174:                                              ; preds = %170
  %175 = getelementptr inbounds %"class.xercesc_2_5::DOMRangeImpl", ptr %0, i64 0, i32 9
  %176 = load ptr, ptr %175, align 8, !tbaa !94
  %177 = load ptr, ptr %176, align 8, !tbaa !77
  %178 = getelementptr inbounds ptr, ptr %177, i64 3
  %179 = load ptr, ptr %178, align 8
  invoke void %179(ptr noundef nonnull align 8 dereferenceable(8) %176, ptr noundef %157)
          to label %180 unwind label %154

180:                                              ; preds = %174, %170
  call void @llvm.lifetime.end.p0(i64 8000, ptr nonnull %4) #14
  br label %181

181:                                              ; preds = %180, %132
  %182 = icmp eq ptr %16, null
  br i1 %182, label %292, label %183

183:                                              ; preds = %181
  %184 = load ptr, ptr %16, align 8, !tbaa !77
  %185 = getelementptr inbounds ptr, ptr %184, i64 7
  %186 = load ptr, ptr %185, align 8
  %187 = invoke noundef ptr %186(ptr noundef nonnull align 8 dereferenceable(8) %16)
          to label %188 unwind label %152

188:                                              ; preds = %183
  %189 = icmp eq ptr %187, null
  br i1 %189, label %190, label %292

190:                                              ; preds = %188
  %191 = load ptr, ptr %16, align 8, !tbaa !77
  %192 = getelementptr inbounds ptr, ptr %191, i64 10
  %193 = load ptr, ptr %192, align 8
  %194 = invoke noundef ptr %193(ptr noundef nonnull align 8 dereferenceable(8) %16)
          to label %195 unwind label %152

195:                                              ; preds = %190
  %196 = icmp eq ptr %194, null
  br i1 %196, label %197, label %292

197:                                              ; preds = %195
  %198 = load ptr, ptr %16, align 8, !tbaa !77
  %199 = getelementptr inbounds ptr, ptr %198, i64 5
  %200 = load ptr, ptr %199, align 8
  %201 = invoke noundef ptr %200(ptr noundef nonnull align 8 dereferenceable(8) %16)
          to label %202 unwind label %152

202:                                              ; preds = %197
  %203 = icmp eq ptr %201, null
  br i1 %203, label %292, label %204

204:                                              ; preds = %202, %223
  %205 = phi ptr [ %222, %223 ], [ %201, %202 ]
  %206 = load ptr, ptr %27, align 8, !tbaa !91
  %207 = icmp eq ptr %206, null
  %208 = getelementptr inbounds i8, ptr %206, i64 24
  %209 = select i1 %207, ptr null, ptr %208
  %210 = icmp eq ptr %205, %209
  br i1 %210, label %292, label %211

211:                                              ; preds = %204
  %212 = load ptr, ptr %205, align 8, !tbaa !77
  %213 = getelementptr inbounds ptr, ptr %212, i64 10
  %214 = load ptr, ptr %213, align 8
  %215 = invoke noundef ptr %214(ptr noundef nonnull align 8 dereferenceable(8) %205)
          to label %216 unwind label %150

216:                                              ; preds = %211
  %217 = icmp eq ptr %215, null
  br i1 %217, label %218, label %292

218:                                              ; preds = %216
  %219 = load ptr, ptr %205, align 8, !tbaa !77
  %220 = getelementptr inbounds ptr, ptr %219, i64 5
  %221 = load ptr, ptr %220, align 8
  %222 = invoke noundef ptr %221(ptr noundef nonnull align 8 dereferenceable(8) %205)
          to label %223 unwind label %150

223:                                              ; preds = %218
  %224 = icmp eq ptr %222, null
  br i1 %224, label %292, label %204

225:                                              ; preds = %44
  %226 = load ptr, ptr %16, align 8, !tbaa !77
  %227 = getelementptr inbounds ptr, ptr %226, i64 7
  %228 = load ptr, ptr %227, align 8
  %229 = invoke noundef ptr %228(ptr noundef nonnull align 8 dereferenceable(8) %16)
          to label %230 unwind label %73

230:                                              ; preds = %225
  %231 = getelementptr inbounds %"class.xercesc_2_5::DOMRangeImpl", ptr %0, i64 0, i32 2
  %232 = load i64, ptr %231, align 8, !tbaa !87
  %233 = icmp eq i64 %232, 0
  br i1 %233, label %251, label %234

234:                                              ; preds = %230
  %235 = icmp eq ptr %229, null
  br i1 %235, label %254, label %236

236:                                              ; preds = %234, %243
  %237 = phi i64 [ %244, %243 ], [ 0, %234 ]
  %238 = phi ptr [ %242, %243 ], [ %229, %234 ]
  %239 = load ptr, ptr %238, align 8, !tbaa !77
  %240 = getelementptr inbounds ptr, ptr %239, i64 10
  %241 = load ptr, ptr %240, align 8
  %242 = invoke noundef ptr %241(ptr noundef nonnull align 8 dereferenceable(8) %238)
          to label %243 unwind label %249

243:                                              ; preds = %236
  %244 = add nuw i64 %237, 1
  %245 = load i64, ptr %231, align 8, !tbaa !87
  %246 = icmp ult i64 %244, %245
  %247 = icmp ne ptr %242, null
  %248 = and i1 %247, %246
  br i1 %248, label %236, label %251

249:                                              ; preds = %236
  %250 = landingpad { ptr, i32 }
          cleanup
  br label %497

251:                                              ; preds = %243, %230
  %252 = phi ptr [ %229, %230 ], [ %242, %243 ]
  %253 = icmp eq ptr %252, null
  br i1 %253, label %254, label %292

254:                                              ; preds = %234, %251
  %255 = load ptr, ptr %15, align 8, !tbaa !80
  %256 = icmp eq ptr %255, null
  br i1 %256, label %292, label %257

257:                                              ; preds = %254
  %258 = load ptr, ptr %255, align 8, !tbaa !77
  %259 = getelementptr inbounds ptr, ptr %258, i64 10
  %260 = load ptr, ptr %259, align 8
  %261 = invoke noundef ptr %260(ptr noundef nonnull align 8 dereferenceable(8) %255)
          to label %262 unwind label %73

262:                                              ; preds = %257
  %263 = icmp eq ptr %261, null
  br i1 %263, label %264, label %292

264:                                              ; preds = %262
  %265 = load ptr, ptr %255, align 8, !tbaa !77
  %266 = getelementptr inbounds ptr, ptr %265, i64 5
  %267 = load ptr, ptr %266, align 8
  %268 = invoke noundef ptr %267(ptr noundef nonnull align 8 dereferenceable(8) %255)
          to label %269 unwind label %73

269:                                              ; preds = %264
  %270 = icmp eq ptr %268, null
  br i1 %270, label %292, label %271

271:                                              ; preds = %269, %290
  %272 = phi ptr [ %289, %290 ], [ %268, %269 ]
  %273 = load ptr, ptr %27, align 8, !tbaa !91
  %274 = icmp eq ptr %273, null
  %275 = getelementptr inbounds i8, ptr %273, i64 24
  %276 = select i1 %274, ptr null, ptr %275
  %277 = icmp eq ptr %272, %276
  br i1 %277, label %292, label %278

278:                                              ; preds = %271
  %279 = load ptr, ptr %272, align 8, !tbaa !77
  %280 = getelementptr inbounds ptr, ptr %279, i64 10
  %281 = load ptr, ptr %280, align 8
  %282 = invoke noundef ptr %281(ptr noundef nonnull align 8 dereferenceable(8) %272)
          to label %283 unwind label %71

283:                                              ; preds = %278
  %284 = icmp eq ptr %282, null
  br i1 %284, label %285, label %292

285:                                              ; preds = %283
  %286 = load ptr, ptr %272, align 8, !tbaa !77
  %287 = getelementptr inbounds ptr, ptr %286, i64 5
  %288 = load ptr, ptr %287, align 8
  %289 = invoke noundef ptr %288(ptr noundef nonnull align 8 dereferenceable(8) %272)
          to label %290 unwind label %71

290:                                              ; preds = %285
  %291 = icmp eq ptr %289, null
  br i1 %291, label %292, label %271

292:                                              ; preds = %223, %216, %204, %290, %283, %271, %269, %262, %254, %202, %195, %188, %181, %251
  %293 = phi ptr [ %252, %251 ], [ null, %181 ], [ %187, %188 ], [ %194, %195 ], [ null, %202 ], [ null, %254 ], [ %261, %262 ], [ null, %269 ], [ null, %271 ], [ null, %290 ], [ %282, %283 ], [ null, %204 ], [ null, %223 ], [ %215, %216 ]
  %294 = load ptr, ptr %17, align 8, !tbaa !88
  %295 = load ptr, ptr %294, align 8, !tbaa !77
  %296 = getelementptr inbounds ptr, ptr %295, i64 4
  %297 = load ptr, ptr %296, align 8
  %298 = invoke noundef signext i16 %297(ptr noundef nonnull align 8 dereferenceable(8) %294)
          to label %299 unwind label %73

299:                                              ; preds = %292
  switch i16 %298, label %300 [
    i16 8, label %372
    i16 7, label %372
    i16 4, label %372
    i16 3, label %372
  ]

300:                                              ; preds = %299
  %301 = getelementptr inbounds %"class.xercesc_2_5::DOMRangeImpl", ptr %0, i64 0, i32 4
  %302 = load i64, ptr %301, align 8, !tbaa !89
  %303 = load ptr, ptr %17, align 8, !tbaa !88
  %304 = load ptr, ptr %303, align 8, !tbaa !77
  %305 = getelementptr inbounds ptr, ptr %304, i64 7
  %306 = load ptr, ptr %305, align 8
  %307 = invoke noundef ptr %306(ptr noundef nonnull align 8 dereferenceable(8) %303)
          to label %308 unwind label %329

308:                                              ; preds = %300
  %309 = trunc i64 %302 to i32
  %310 = icmp sgt i32 %309, 0
  %311 = icmp ne ptr %307, null
  %312 = and i1 %311, %310
  br i1 %312, label %313, label %331

313:                                              ; preds = %308, %320
  %314 = phi i32 [ %321, %320 ], [ %309, %308 ]
  %315 = phi ptr [ %319, %320 ], [ %307, %308 ]
  %316 = load ptr, ptr %315, align 8, !tbaa !77
  %317 = getelementptr inbounds ptr, ptr %316, i64 10
  %318 = load ptr, ptr %317, align 8
  %319 = invoke noundef ptr %318(ptr noundef nonnull align 8 dereferenceable(8) %315)
          to label %320 unwind label %327

320:                                              ; preds = %313
  %321 = add nsw i32 %314, -1
  %322 = icmp sgt i32 %314, 1
  %323 = icmp ne ptr %319, null
  %324 = and i1 %323, %322
  br i1 %324, label %313, label %331

325:                                              ; preds = %358, %365
  %326 = landingpad { ptr, i32 }
          cleanup
  br label %497

327:                                              ; preds = %313
  %328 = landingpad { ptr, i32 }
          cleanup
  br label %497

329:                                              ; preds = %344, %337, %300
  %330 = landingpad { ptr, i32 }
          cleanup
  br label %497

331:                                              ; preds = %320, %308
  %332 = phi ptr [ %307, %308 ], [ %319, %320 ]
  %333 = icmp eq ptr %332, null
  br i1 %333, label %334, label %372

334:                                              ; preds = %331
  %335 = load ptr, ptr %17, align 8, !tbaa !88
  %336 = icmp eq ptr %335, null
  br i1 %336, label %372, label %337

337:                                              ; preds = %334
  %338 = load ptr, ptr %335, align 8, !tbaa !77
  %339 = getelementptr inbounds ptr, ptr %338, i64 10
  %340 = load ptr, ptr %339, align 8
  %341 = invoke noundef ptr %340(ptr noundef nonnull align 8 dereferenceable(8) %335)
          to label %342 unwind label %329

342:                                              ; preds = %337
  %343 = icmp eq ptr %341, null
  br i1 %343, label %344, label %372

344:                                              ; preds = %342
  %345 = load ptr, ptr %335, align 8, !tbaa !77
  %346 = getelementptr inbounds ptr, ptr %345, i64 5
  %347 = load ptr, ptr %346, align 8
  %348 = invoke noundef ptr %347(ptr noundef nonnull align 8 dereferenceable(8) %335)
          to label %349 unwind label %329

349:                                              ; preds = %344
  %350 = icmp eq ptr %348, null
  br i1 %350, label %372, label %351

351:                                              ; preds = %349, %370
  %352 = phi ptr [ %369, %370 ], [ %348, %349 ]
  %353 = load ptr, ptr %27, align 8, !tbaa !91
  %354 = icmp eq ptr %353, null
  %355 = getelementptr inbounds i8, ptr %353, i64 24
  %356 = select i1 %354, ptr null, ptr %355
  %357 = icmp eq ptr %352, %356
  br i1 %357, label %372, label %358

358:                                              ; preds = %351
  %359 = load ptr, ptr %352, align 8, !tbaa !77
  %360 = getelementptr inbounds ptr, ptr %359, i64 10
  %361 = load ptr, ptr %360, align 8
  %362 = invoke noundef ptr %361(ptr noundef nonnull align 8 dereferenceable(8) %352)
          to label %363 unwind label %325

363:                                              ; preds = %358
  %364 = icmp eq ptr %362, null
  br i1 %364, label %365, label %372

365:                                              ; preds = %363
  %366 = load ptr, ptr %352, align 8, !tbaa !77
  %367 = getelementptr inbounds ptr, ptr %366, i64 5
  %368 = load ptr, ptr %367, align 8
  %369 = invoke noundef ptr %368(ptr noundef nonnull align 8 dereferenceable(8) %352)
          to label %370 unwind label %325

370:                                              ; preds = %365
  %371 = icmp eq ptr %369, null
  br i1 %371, label %372, label %351

372:                                              ; preds = %370, %363, %351, %349, %342, %334, %331, %299, %299, %299, %299
  %373 = phi ptr [ %18, %299 ], [ %18, %299 ], [ %18, %299 ], [ %18, %299 ], [ %332, %331 ], [ null, %334 ], [ %341, %342 ], [ null, %349 ], [ null, %351 ], [ null, %370 ], [ %362, %363 ]
  %374 = icmp eq ptr %293, %373
  %375 = icmp eq ptr %293, null
  %376 = or i1 %374, %375
  br i1 %376, label %435, label %377

377:                                              ; preds = %372, %432
  %378 = phi ptr [ %433, %432 ], [ %293, %372 ]
  %379 = load ptr, ptr %378, align 8, !tbaa !77
  %380 = getelementptr inbounds ptr, ptr %379, i64 4
  %381 = load ptr, ptr %380, align 8
  %382 = invoke noundef signext i16 %381(ptr noundef nonnull align 8 dereferenceable(8) %378)
          to label %383 unwind label %69

383:                                              ; preds = %377
  switch i16 %382, label %390 [
    i16 8, label %384
    i16 7, label %384
    i16 4, label %384
    i16 3, label %384
  ]

384:                                              ; preds = %383, %383, %383, %383
  %385 = load ptr, ptr %378, align 8, !tbaa !77
  %386 = getelementptr inbounds ptr, ptr %385, i64 3
  %387 = load ptr, ptr %386, align 8
  %388 = invoke noundef ptr %387(ptr noundef nonnull align 8 dereferenceable(8) %378)
          to label %389 unwind label %69

389:                                              ; preds = %384
  invoke void @_ZN11xercesc_2_59XMLBuffer6appendEPKtj(ptr noundef nonnull align 8 dereferenceable(32) %2, ptr noundef %388, i32 noundef 0)
          to label %390 unwind label %69

390:                                              ; preds = %389, %383
  %391 = load ptr, ptr %378, align 8, !tbaa !77
  %392 = getelementptr inbounds ptr, ptr %391, i64 7
  %393 = load ptr, ptr %392, align 8
  %394 = invoke noundef ptr %393(ptr noundef nonnull align 8 dereferenceable(8) %378)
          to label %395 unwind label %69

395:                                              ; preds = %390
  %396 = icmp eq ptr %394, null
  br i1 %396, label %397, label %432

397:                                              ; preds = %395
  %398 = load ptr, ptr %378, align 8, !tbaa !77
  %399 = getelementptr inbounds ptr, ptr %398, i64 10
  %400 = load ptr, ptr %399, align 8
  %401 = invoke noundef ptr %400(ptr noundef nonnull align 8 dereferenceable(8) %378)
          to label %402 unwind label %69

402:                                              ; preds = %397
  %403 = icmp eq ptr %401, null
  br i1 %403, label %404, label %432

404:                                              ; preds = %402
  %405 = load ptr, ptr %378, align 8, !tbaa !77
  %406 = getelementptr inbounds ptr, ptr %405, i64 5
  %407 = load ptr, ptr %406, align 8
  %408 = invoke noundef ptr %407(ptr noundef nonnull align 8 dereferenceable(8) %378)
          to label %409 unwind label %69

409:                                              ; preds = %404
  %410 = icmp eq ptr %408, null
  br i1 %410, label %435, label %411

411:                                              ; preds = %409, %430
  %412 = phi ptr [ %429, %430 ], [ %408, %409 ]
  %413 = load ptr, ptr %27, align 8, !tbaa !91
  %414 = icmp eq ptr %413, null
  %415 = getelementptr inbounds i8, ptr %413, i64 24
  %416 = select i1 %414, ptr null, ptr %415
  %417 = icmp eq ptr %412, %416
  br i1 %417, label %435, label %418

418:                                              ; preds = %411
  %419 = load ptr, ptr %412, align 8, !tbaa !77
  %420 = getelementptr inbounds ptr, ptr %419, i64 10
  %421 = load ptr, ptr %420, align 8
  %422 = invoke noundef ptr %421(ptr noundef nonnull align 8 dereferenceable(8) %412)
          to label %423 unwind label %67

423:                                              ; preds = %418
  %424 = icmp eq ptr %422, null
  br i1 %424, label %425, label %432

425:                                              ; preds = %423
  %426 = load ptr, ptr %412, align 8, !tbaa !77
  %427 = getelementptr inbounds ptr, ptr %426, i64 5
  %428 = load ptr, ptr %427, align 8
  %429 = invoke noundef ptr %428(ptr noundef nonnull align 8 dereferenceable(8) %412)
          to label %430 unwind label %67

430:                                              ; preds = %425
  %431 = icmp eq ptr %429, null
  br i1 %431, label %435, label %411

432:                                              ; preds = %423, %395, %402
  %433 = phi ptr [ %394, %395 ], [ %401, %402 ], [ %422, %423 ]
  %434 = icmp eq ptr %433, %373
  br i1 %434, label %435, label %377

435:                                              ; preds = %409, %432, %411, %430, %372
  %436 = load ptr, ptr %17, align 8, !tbaa !88
  %437 = load ptr, ptr %436, align 8, !tbaa !77
  %438 = getelementptr inbounds ptr, ptr %437, i64 4
  %439 = load ptr, ptr %438, align 8
  %440 = invoke noundef signext i16 %439(ptr noundef nonnull align 8 dereferenceable(8) %436)
          to label %441 unwind label %73

441:                                              ; preds = %435
  switch i16 %440, label %483 [
    i16 8, label %442
    i16 7, label %442
    i16 4, label %442
    i16 3, label %442
  ]

442:                                              ; preds = %441, %441, %441, %441
  %443 = getelementptr inbounds %"class.xercesc_2_5::DOMRangeImpl", ptr %0, i64 0, i32 4
  %444 = load i64, ptr %443, align 8, !tbaa !89
  %445 = icmp eq i64 %444, 0
  br i1 %445, label %483, label %446

446:                                              ; preds = %442
  call void @llvm.lifetime.start.p0(i64 8000, ptr nonnull %5) #14
  %447 = icmp ugt i64 %444, 3998
  br i1 %447, label %448, label %459

448:                                              ; preds = %446
  %449 = getelementptr inbounds %"class.xercesc_2_5::DOMRangeImpl", ptr %0, i64 0, i32 9
  %450 = load ptr, ptr %449, align 8, !tbaa !94
  %451 = shl i64 %444, 1
  %452 = add i64 %451, 2
  %453 = load ptr, ptr %450, align 8, !tbaa !77
  %454 = getelementptr inbounds ptr, ptr %453, i64 2
  %455 = load ptr, ptr %454, align 8
  %456 = invoke noundef ptr %455(ptr noundef nonnull align 8 dereferenceable(8) %450, i64 noundef %452)
          to label %459 unwind label %457

457:                                              ; preds = %476, %472, %466, %459, %448
  %458 = landingpad { ptr, i32 }
          cleanup
  call void @llvm.lifetime.end.p0(i64 8000, ptr nonnull %5) #14
  br label %497

459:                                              ; preds = %446, %448
  %460 = phi ptr [ %456, %448 ], [ %5, %446 ]
  %461 = load ptr, ptr %17, align 8, !tbaa !88
  %462 = load ptr, ptr %461, align 8, !tbaa !77
  %463 = getelementptr inbounds ptr, ptr %462, i64 3
  %464 = load ptr, ptr %463, align 8
  %465 = invoke noundef ptr %464(ptr noundef nonnull align 8 dereferenceable(8) %461)
          to label %466 unwind label %457

466:                                              ; preds = %459
  %467 = load i64, ptr %443, align 8, !tbaa !89
  %468 = trunc i64 %467 to i32
  %469 = load ptr, ptr %27, align 8, !tbaa !91
  %470 = getelementptr inbounds %"class.xercesc_2_5::DOMDocumentImpl", ptr %469, i64 0, i32 24
  %471 = load ptr, ptr %470, align 8, !tbaa !99
  invoke void @_ZN11xercesc_2_59XMLString9subStringEPtPKtiiPNS_13MemoryManagerE(ptr noundef %460, ptr noundef %465, i32 noundef 0, i32 noundef %468, ptr noundef %471)
          to label %472 unwind label %457

472:                                              ; preds = %466
  invoke void @_ZN11xercesc_2_59XMLBuffer6appendEPKtj(ptr noundef nonnull align 8 dereferenceable(32) %2, ptr noundef %460, i32 noundef 0)
          to label %473 unwind label %457

473:                                              ; preds = %472
  %474 = load i64, ptr %443, align 8, !tbaa !89
  %475 = icmp ugt i64 %474, 3998
  br i1 %475, label %476, label %482

476:                                              ; preds = %473
  %477 = getelementptr inbounds %"class.xercesc_2_5::DOMRangeImpl", ptr %0, i64 0, i32 9
  %478 = load ptr, ptr %477, align 8, !tbaa !94
  %479 = load ptr, ptr %478, align 8, !tbaa !77
  %480 = getelementptr inbounds ptr, ptr %479, i64 3
  %481 = load ptr, ptr %480, align 8
  invoke void %481(ptr noundef nonnull align 8 dereferenceable(8) %478, ptr noundef %460)
          to label %482 unwind label %457

482:                                              ; preds = %476, %473
  call void @llvm.lifetime.end.p0(i64 8000, ptr nonnull %5) #14
  br label %483

483:                                              ; preds = %441, %442, %482
  %484 = load ptr, ptr %27, align 8, !tbaa !91
  %485 = load ptr, ptr %34, align 8, !tbaa !125
  %486 = load i32, ptr %31, align 4, !tbaa !122
  %487 = zext i32 %486 to i64
  %488 = getelementptr inbounds i16, ptr %485, i64 %487
  store i16 0, ptr %488, align 2, !tbaa !97
  %489 = invoke noundef ptr @_ZN11xercesc_2_515DOMDocumentImpl15getPooledStringEPKt(ptr noundef nonnull align 8 dereferenceable(253) %484, ptr noundef nonnull %485)
          to label %490 unwind label %73

490:                                              ; preds = %483, %108
  %491 = phi ptr [ %94, %108 ], [ %489, %483 ]
  %492 = load ptr, ptr %33, align 8, !tbaa !124
  %493 = load ptr, ptr %34, align 8, !tbaa !125
  %494 = load ptr, ptr %492, align 8, !tbaa !77
  %495 = getelementptr inbounds ptr, ptr %494, i64 3
  %496 = load ptr, ptr %495, align 8
  call void %496(ptr noundef nonnull align 8 dereferenceable(8) %492, ptr noundef %493)
  call void @llvm.lifetime.end.p0(i64 32, ptr nonnull %2) #14
  br label %505

497:                                              ; preds = %325, %329, %327, %150, %152, %67, %71, %73, %69, %154, %457, %249, %109
  %498 = phi { ptr, i32 } [ %110, %109 ], [ %458, %457 ], [ %250, %249 ], [ %155, %154 ], [ %68, %67 ], [ %70, %69 ], [ %72, %71 ], [ %74, %73 ], [ %151, %150 ], [ %153, %152 ], [ %326, %325 ], [ %328, %327 ], [ %330, %329 ]
  %499 = load ptr, ptr %33, align 8, !tbaa !124
  %500 = load ptr, ptr %34, align 8, !tbaa !125
  %501 = load ptr, ptr %499, align 8, !tbaa !77
  %502 = getelementptr inbounds ptr, ptr %501, i64 3
  %503 = load ptr, ptr %502, align 8
  invoke void %503(ptr noundef nonnull align 8 dereferenceable(8) %499, ptr noundef %500)
          to label %504 unwind label %509

504:                                              ; preds = %497
  call void @llvm.lifetime.end.p0(i64 32, ptr nonnull %2) #14
  br label %507

505:                                              ; preds = %20, %490
  %506 = phi ptr [ %491, %490 ], [ @_ZN11xercesc_2_56XMLUni15fgZeroLenStringE, %20 ]
  ret ptr %506

507:                                              ; preds = %504, %12
  %508 = phi { ptr, i32 } [ %13, %12 ], [ %498, %504 ]
  resume { ptr, i32 } %508

509:                                              ; preds = %497
  %510 = landingpad { ptr, i32 }
          catch ptr null
  %511 = extractvalue { ptr, i32 } %510, 0
  call void @__clang_call_terminate(ptr %511) #16
  unreachable
}

declare void @_ZN11xercesc_2_59XMLString9subStringEPtPKtiiPNS_13MemoryManagerE(ptr noundef, ptr noundef, i32 noundef, i32 noundef, ptr noundef) local_unnamed_addr #6

declare noundef ptr @_ZN11xercesc_2_515DOMDocumentImpl15getPooledStringEPKt(ptr noundef nonnull align 8 dereferenceable(253), ptr noundef) local_unnamed_addr #6

declare void @_ZN11xercesc_2_59XMLBuffer6appendEPKtj(ptr noundef nonnull align 8 dereferenceable(32), ptr noundef, i32 noundef) local_unnamed_addr #6

; Function Attrs: uwtable
define dso_local noundef ptr @_ZNK11xercesc_2_512DOMRangeImpl8nextNodeEPKNS_7DOMNodeEb(ptr nocapture noundef nonnull readonly align 8 dereferenceable(80) %0, ptr noundef %1, i1 noundef zeroext %2) local_unnamed_addr #5 align 2 {
  %4 = icmp eq ptr %1, null
  br i1 %4, label %44, label %5

5:                                                ; preds = %3
  br i1 %2, label %6, label %12

6:                                                ; preds = %5
  %7 = load ptr, ptr %1, align 8, !tbaa !77
  %8 = getelementptr inbounds ptr, ptr %7, i64 7
  %9 = load ptr, ptr %8, align 8
  %10 = tail call noundef ptr %9(ptr noundef nonnull align 8 dereferenceable(8) %1)
  %11 = icmp eq ptr %10, null
  br i1 %11, label %12, label %44

12:                                               ; preds = %6, %5
  %13 = load ptr, ptr %1, align 8, !tbaa !77
  %14 = getelementptr inbounds ptr, ptr %13, i64 10
  %15 = load ptr, ptr %14, align 8
  %16 = tail call noundef ptr %15(ptr noundef nonnull align 8 dereferenceable(8) %1)
  %17 = icmp eq ptr %16, null
  br i1 %17, label %18, label %44

18:                                               ; preds = %12
  %19 = load ptr, ptr %1, align 8, !tbaa !77
  %20 = getelementptr inbounds ptr, ptr %19, i64 5
  %21 = load ptr, ptr %20, align 8
  %22 = tail call noundef ptr %21(ptr noundef nonnull align 8 dereferenceable(8) %1)
  %23 = getelementptr inbounds %"class.xercesc_2_5::DOMRangeImpl", ptr %0, i64 0, i32 6
  %24 = icmp eq ptr %22, null
  br i1 %24, label %44, label %25

25:                                               ; preds = %18, %38
  %26 = phi ptr [ %42, %38 ], [ %22, %18 ]
  %27 = load ptr, ptr %23, align 8, !tbaa !91
  %28 = icmp eq ptr %27, null
  %29 = getelementptr inbounds i8, ptr %27, i64 24
  %30 = select i1 %28, ptr null, ptr %29
  %31 = icmp eq ptr %26, %30
  br i1 %31, label %44, label %32

32:                                               ; preds = %25
  %33 = load ptr, ptr %26, align 8, !tbaa !77
  %34 = getelementptr inbounds ptr, ptr %33, i64 10
  %35 = load ptr, ptr %34, align 8
  %36 = tail call noundef ptr %35(ptr noundef nonnull align 8 dereferenceable(8) %26)
  %37 = icmp eq ptr %36, null
  br i1 %37, label %38, label %44

38:                                               ; preds = %32
  %39 = load ptr, ptr %26, align 8, !tbaa !77
  %40 = getelementptr inbounds ptr, ptr %39, i64 5
  %41 = load ptr, ptr %40, align 8
  %42 = tail call noundef ptr %41(ptr noundef nonnull align 8 dereferenceable(8) %26)
  %43 = icmp eq ptr %42, null
  br i1 %43, label %44, label %25

44:                                               ; preds = %32, %38, %25, %18, %6, %12, %3
  %45 = phi ptr [ null, %3 ], [ %10, %6 ], [ %16, %12 ], [ null, %18 ], [ %36, %32 ], [ null, %38 ], [ null, %25 ]
  ret ptr %45
}

; Function Attrs: noinline noreturn nounwind uwtable
define linkonce_odr hidden void @__clang_call_terminate(ptr noundef %0) local_unnamed_addr #8 comdat {
  %2 = tail call ptr @__cxa_begin_catch(ptr %0) #14
  tail call void @_ZSt9terminatev() #16
  unreachable
}

declare ptr @__cxa_begin_catch(ptr) local_unnamed_addr

declare void @_ZSt9terminatev() local_unnamed_addr

; Function Attrs: mustprogress nofree norecurse nosync nounwind willreturn memory(argmem: read) uwtable
define dso_local noundef ptr @_ZN11xercesc_2_512DOMRangeImpl11getDocumentEv(ptr nocapture noundef nonnull readonly align 8 dereferenceable(80) %0) local_unnamed_addr #9 align 2 {
  %2 = getelementptr inbounds %"class.xercesc_2_5::DOMRangeImpl", ptr %0, i64 0, i32 6
  %3 = load ptr, ptr %2, align 8, !tbaa !91
  ret ptr %3
}

; Function Attrs: uwtable
define dso_local noundef ptr @_ZNK11xercesc_2_512DOMRangeImpl26getCommonAncestorContainerEv(ptr nocapture noundef nonnull readonly align 8 dereferenceable(80) %0) unnamed_addr #5 align 2 {
  %2 = getelementptr inbounds %"class.xercesc_2_5::DOMRangeImpl", ptr %0, i64 0, i32 1
  %3 = load ptr, ptr %2, align 8, !tbaa !80
  %4 = getelementptr inbounds %"class.xercesc_2_5::DOMRangeImpl", ptr %0, i64 0, i32 3
  %5 = load ptr, ptr %4, align 8, !tbaa !88
  %6 = tail call noundef ptr @_ZNK11xercesc_2_512DOMRangeImpl16commonAncestorOfEPKNS_7DOMNodeES3_(ptr noundef nonnull align 8 dereferenceable(80) %0, ptr noundef %3, ptr noundef %5)
  ret ptr %6
}

; Function Attrs: uwtable
define dso_local void @_ZN11xercesc_2_512DOMRangeImpl7releaseEv(ptr noundef nonnull align 8 dereferenceable(80) %0) unnamed_addr #5 align 2 {
  %2 = load ptr, ptr %0, align 8, !tbaa !77
  %3 = getelementptr inbounds ptr, ptr %2, i64 25
  %4 = load ptr, ptr %3, align 8
  tail call void %4(ptr noundef nonnull align 8 dereferenceable(80) %0)
  ret void
}

; Function Attrs: uwtable
define dso_local noundef zeroext i1 @_ZNK11xercesc_2_512DOMRangeImpl19isValidAncestorTypeEPKNS_7DOMNodeE(ptr nocapture noundef nonnull readnone align 8 dereferenceable(80) %0, ptr noundef %1) local_unnamed_addr #5 align 2 {
  %3 = icmp eq ptr %1, null
  br i1 %3, label %16, label %4

4:                                                ; preds = %2, %10
  %5 = phi ptr [ %14, %10 ], [ %1, %2 ]
  %6 = load ptr, ptr %5, align 8, !tbaa !77
  %7 = getelementptr inbounds ptr, ptr %6, i64 4
  %8 = load ptr, ptr %7, align 8
  %9 = tail call noundef signext i16 %8(ptr noundef nonnull align 8 dereferenceable(8) %5)
  switch i16 %9, label %10 [
    i16 12, label %16
    i16 10, label %16
    i16 6, label %16
  ]

10:                                               ; preds = %4
  %11 = load ptr, ptr %5, align 8, !tbaa !77
  %12 = getelementptr inbounds ptr, ptr %11, i64 5
  %13 = load ptr, ptr %12, align 8
  %14 = tail call noundef ptr %13(ptr noundef nonnull align 8 dereferenceable(8) %5)
  %15 = icmp eq ptr %14, null
  br i1 %15, label %16, label %4

16:                                               ; preds = %10, %4, %4, %4, %2
  %17 = phi i1 [ true, %2 ], [ false, %4 ], [ false, %4 ], [ false, %4 ], [ true, %10 ]
  ret i1 %17
}

; Function Attrs: uwtable
define linkonce_odr dso_local void @_ZN11xercesc_2_511RefVectorOfINS_7DOMNodeEED2Ev(ptr noundef nonnull align 8 dereferenceable(40) %0) unnamed_addr #5 comdat align 2 personality ptr @__gxx_personality_v0 {
  store ptr getelementptr inbounds ({ [9 x ptr] }, ptr @_ZTVN11xercesc_2_511RefVectorOfINS_7DOMNodeEEE, i64 0, inrange i32 0, i64 2), ptr %0, align 8, !tbaa !77
  %2 = getelementptr inbounds %"class.xercesc_2_5::BaseRefVectorOf", ptr %0, i64 0, i32 1
  %3 = load i8, ptr %2, align 8, !tbaa !111, !range !95, !noundef !96
  %4 = icmp eq i8 %3, 0
  br i1 %4, label %28, label %5

5:                                                ; preds = %1
  %6 = getelementptr inbounds %"class.xercesc_2_5::BaseRefVectorOf", ptr %0, i64 0, i32 2
  %7 = load i32, ptr %6, align 4, !tbaa !113
  %8 = icmp eq i32 %7, 0
  br i1 %8, label %28, label %9

9:                                                ; preds = %5
  %10 = getelementptr inbounds %"class.xercesc_2_5::BaseRefVectorOf", ptr %0, i64 0, i32 4
  br label %11

11:                                               ; preds = %9, %23
  %12 = phi i32 [ %7, %9 ], [ %24, %23 ]
  %13 = phi i64 [ 0, %9 ], [ %25, %23 ]
  %14 = load ptr, ptr %10, align 8, !tbaa !116
  %15 = getelementptr inbounds ptr, ptr %14, i64 %13
  %16 = load ptr, ptr %15, align 8, !tbaa !117
  %17 = icmp eq ptr %16, null
  br i1 %17, label %23, label %18

18:                                               ; preds = %11
  %19 = load ptr, ptr %16, align 8, !tbaa !77
  %20 = getelementptr inbounds ptr, ptr %19, i64 1
  %21 = load ptr, ptr %20, align 8
  tail call void %21(ptr noundef nonnull align 8 dereferenceable(8) %16)
  %22 = load i32, ptr %6, align 4, !tbaa !113
  br label %23

23:                                               ; preds = %18, %11
  %24 = phi i32 [ %22, %18 ], [ %12, %11 ]
  %25 = add nuw nsw i64 %13, 1
  %26 = zext i32 %24 to i64
  %27 = icmp ult i64 %25, %26
  br i1 %27, label %11, label %28

28:                                               ; preds = %23, %5, %1
  %29 = getelementptr inbounds %"class.xercesc_2_5::BaseRefVectorOf", ptr %0, i64 0, i32 5
  %30 = load ptr, ptr %29, align 8, !tbaa !115
  %31 = getelementptr inbounds %"class.xercesc_2_5::BaseRefVectorOf", ptr %0, i64 0, i32 4
  %32 = load ptr, ptr %31, align 8, !tbaa !116
  %33 = load ptr, ptr %30, align 8, !tbaa !77
  %34 = getelementptr inbounds ptr, ptr %33, i64 3
  %35 = load ptr, ptr %34, align 8
  tail call void %35(ptr noundef nonnull align 8 dereferenceable(8) %30, ptr noundef %32)
  ret void
}

; Function Attrs: uwtable
define dso_local noundef ptr @_ZN11xercesc_2_512DOMRangeImpl21traverseSameContainerEi(ptr noundef nonnull align 8 dereferenceable(80) %0, i32 noundef %1) local_unnamed_addr #5 align 2 {
  %3 = alloca [4000 x i16], align 16
  %4 = icmp eq i32 %1, 3
  br i1 %4, label %12, label %5

5:                                                ; preds = %2
  %6 = getelementptr inbounds %"class.xercesc_2_5::DOMRangeImpl", ptr %0, i64 0, i32 6
  %7 = load ptr, ptr %6, align 8, !tbaa !91
  %8 = load ptr, ptr %7, align 8, !tbaa !77
  %9 = getelementptr inbounds ptr, ptr %8, i64 4
  %10 = load ptr, ptr %9, align 8
  %11 = tail call noundef ptr %10(ptr noundef nonnull align 8 dereferenceable(32) %7)
  br label %12

12:                                               ; preds = %5, %2
  %13 = phi ptr [ %11, %5 ], [ null, %2 ]
  %14 = getelementptr inbounds %"class.xercesc_2_5::DOMRangeImpl", ptr %0, i64 0, i32 2
  %15 = load i64, ptr %14, align 8, !tbaa !87
  %16 = getelementptr inbounds %"class.xercesc_2_5::DOMRangeImpl", ptr %0, i64 0, i32 4
  %17 = load i64, ptr %16, align 8, !tbaa !89
  %18 = icmp eq i64 %15, %17
  br i1 %18, label %246, label %19

19:                                               ; preds = %12
  %20 = getelementptr inbounds %"class.xercesc_2_5::DOMRangeImpl", ptr %0, i64 0, i32 1
  %21 = load ptr, ptr %20, align 8, !tbaa !80
  %22 = load ptr, ptr %21, align 8, !tbaa !77
  %23 = getelementptr inbounds ptr, ptr %22, i64 4
  %24 = load ptr, ptr %23, align 8
  %25 = tail call noundef signext i16 %24(ptr noundef nonnull align 8 dereferenceable(8) %21)
  %26 = icmp eq i16 %25, 7
  switch i16 %25, label %97 [
    i16 8, label %27
    i16 7, label %27
    i16 4, label %27
    i16 3, label %27
  ]

27:                                               ; preds = %19, %19, %19, %19
  %28 = load ptr, ptr %20, align 8, !tbaa !80
  %29 = load ptr, ptr %28, align 8, !tbaa !77
  %30 = getelementptr inbounds ptr, ptr %29, i64 13
  %31 = load ptr, ptr %30, align 8
  %32 = tail call noundef ptr %31(ptr noundef nonnull align 8 dereferenceable(8) %28, i1 noundef zeroext false)
  %33 = load i64, ptr %16, align 8, !tbaa !89
  %34 = load i64, ptr %14, align 8, !tbaa !87
  %35 = icmp eq i64 %33, %34
  br i1 %35, label %36, label %40

36:                                               ; preds = %27
  %37 = load ptr, ptr %32, align 8, !tbaa !77
  %38 = getelementptr inbounds ptr, ptr %37, i64 19
  %39 = load ptr, ptr %38, align 8
  tail call void %39(ptr noundef nonnull align 8 dereferenceable(8) %32, ptr noundef nonnull @_ZN11xercesc_2_56XMLUni15fgZeroLenStringE)
  br label %79

40:                                               ; preds = %27
  call void @llvm.lifetime.start.p0(i64 8000, ptr nonnull %3) #14
  %41 = icmp ugt i64 %33, 3998
  br i1 %41, label %42, label %51

42:                                               ; preds = %40
  %43 = getelementptr inbounds %"class.xercesc_2_5::DOMRangeImpl", ptr %0, i64 0, i32 9
  %44 = load ptr, ptr %43, align 8, !tbaa !94
  %45 = shl i64 %33, 1
  %46 = add i64 %45, 2
  %47 = load ptr, ptr %44, align 8, !tbaa !77
  %48 = getelementptr inbounds ptr, ptr %47, i64 2
  %49 = load ptr, ptr %48, align 8
  %50 = tail call noundef ptr %49(ptr noundef nonnull align 8 dereferenceable(8) %44, i64 noundef %46)
  br label %51

51:                                               ; preds = %40, %42
  %52 = phi ptr [ %50, %42 ], [ %3, %40 ]
  %53 = load ptr, ptr %32, align 8, !tbaa !77
  %54 = getelementptr inbounds ptr, ptr %53, i64 3
  %55 = load ptr, ptr %54, align 8
  %56 = tail call noundef ptr %55(ptr noundef nonnull align 8 dereferenceable(8) %32)
  %57 = load i64, ptr %14, align 8, !tbaa !87
  %58 = trunc i64 %57 to i32
  %59 = load i64, ptr %16, align 8, !tbaa !89
  %60 = trunc i64 %59 to i32
  %61 = getelementptr inbounds %"class.xercesc_2_5::DOMRangeImpl", ptr %0, i64 0, i32 6
  %62 = load ptr, ptr %61, align 8, !tbaa !91
  %63 = getelementptr inbounds %"class.xercesc_2_5::DOMDocumentImpl", ptr %62, i64 0, i32 24
  %64 = load ptr, ptr %63, align 8, !tbaa !99
  call void @_ZN11xercesc_2_59XMLString9subStringEPtPKtiiPNS_13MemoryManagerE(ptr noundef %52, ptr noundef %56, i32 noundef %58, i32 noundef %60, ptr noundef %64)
  %65 = load ptr, ptr %61, align 8, !tbaa !91
  %66 = call noundef ptr @_ZN11xercesc_2_515DOMDocumentImpl15getPooledStringEPKt(ptr noundef nonnull align 8 dereferenceable(253) %65, ptr noundef %52)
  %67 = load ptr, ptr %32, align 8, !tbaa !77
  %68 = getelementptr inbounds ptr, ptr %67, i64 19
  %69 = load ptr, ptr %68, align 8
  call void %69(ptr noundef nonnull align 8 dereferenceable(8) %32, ptr noundef %66)
  %70 = load i64, ptr %16, align 8, !tbaa !89
  %71 = icmp ugt i64 %70, 3998
  br i1 %71, label %72, label %78

72:                                               ; preds = %51
  %73 = getelementptr inbounds %"class.xercesc_2_5::DOMRangeImpl", ptr %0, i64 0, i32 9
  %74 = load ptr, ptr %73, align 8, !tbaa !94
  %75 = load ptr, ptr %74, align 8, !tbaa !77
  %76 = getelementptr inbounds ptr, ptr %75, i64 3
  %77 = load ptr, ptr %76, align 8
  call void %77(ptr noundef nonnull align 8 dereferenceable(8) %74, ptr noundef %52)
  br label %78

78:                                               ; preds = %72, %51
  call void @llvm.lifetime.end.p0(i64 8000, ptr nonnull %3) #14
  br label %79

79:                                               ; preds = %78, %36
  %80 = icmp eq i32 %1, 2
  br i1 %80, label %92, label %81

81:                                               ; preds = %79
  %82 = load ptr, ptr %20, align 8, !tbaa !80
  %83 = load i64, ptr %14, align 8, !tbaa !87
  %84 = load i64, ptr %16, align 8, !tbaa !89
  %85 = sub i64 %84, %83
  br i1 %26, label %86, label %87

86:                                               ; preds = %81
  call void @_ZN11xercesc_2_528DOMProcessingInstructionImpl10deleteDataEmm(ptr noundef nonnull align 8 dereferenceable(72) %82, i64 noundef %83, i64 noundef %85)
  br label %91

87:                                               ; preds = %81
  %88 = load ptr, ptr %82, align 8, !tbaa !77
  %89 = getelementptr inbounds ptr, ptr %88, i64 45
  %90 = load ptr, ptr %89, align 8
  call void %90(ptr noundef nonnull align 8 dereferenceable(8) %82, i64 noundef %83, i64 noundef %85)
  br label %91

91:                                               ; preds = %86, %87
  br i1 %4, label %242, label %92

92:                                               ; preds = %79, %91
  %93 = load ptr, ptr %13, align 8, !tbaa !77
  %94 = getelementptr inbounds ptr, ptr %93, i64 17
  %95 = load ptr, ptr %94, align 8
  %96 = call noundef ptr %95(ptr noundef nonnull align 8 dereferenceable(8) %13, ptr noundef nonnull %32)
  br label %240

97:                                               ; preds = %19
  %98 = load ptr, ptr %20, align 8, !tbaa !80
  %99 = load i64, ptr %14, align 8, !tbaa !87
  %100 = trunc i64 %99 to i32
  %101 = load ptr, ptr %98, align 8, !tbaa !77
  %102 = getelementptr inbounds ptr, ptr %101, i64 4
  %103 = load ptr, ptr %102, align 8
  %104 = tail call noundef signext i16 %103(ptr noundef nonnull align 8 dereferenceable(8) %98)
  switch i16 %104, label %105 [
    i16 8, label %130
    i16 7, label %130
    i16 4, label %130
    i16 3, label %130
  ]

105:                                              ; preds = %97
  %106 = icmp slt i32 %100, 0
  br i1 %106, label %130, label %107

107:                                              ; preds = %105
  %108 = load ptr, ptr %98, align 8, !tbaa !77
  %109 = getelementptr inbounds ptr, ptr %108, i64 7
  %110 = load ptr, ptr %109, align 8
  %111 = tail call noundef ptr %110(ptr noundef nonnull align 8 dereferenceable(8) %98)
  %112 = icmp ne ptr %111, null
  %113 = icmp ne i32 %100, 0
  %114 = and i1 %113, %112
  br i1 %114, label %115, label %126

115:                                              ; preds = %107, %115
  %116 = phi ptr [ %122, %115 ], [ %111, %107 ]
  %117 = phi i32 [ %118, %115 ], [ %100, %107 ]
  %118 = add nsw i32 %117, -1
  %119 = load ptr, ptr %116, align 8, !tbaa !77
  %120 = getelementptr inbounds ptr, ptr %119, i64 10
  %121 = load ptr, ptr %120, align 8
  %122 = tail call noundef ptr %121(ptr noundef nonnull align 8 dereferenceable(8) %116)
  %123 = icmp ne ptr %122, null
  %124 = icmp ugt i32 %117, 1
  %125 = select i1 %123, i1 %124, i1 false
  br i1 %125, label %115, label %126

126:                                              ; preds = %115, %107
  %127 = phi ptr [ %111, %107 ], [ %122, %115 ]
  %128 = phi i1 [ %112, %107 ], [ %123, %115 ]
  %129 = select i1 %128, ptr %127, ptr %98
  br label %130

130:                                              ; preds = %97, %97, %97, %97, %105, %126
  %131 = phi ptr [ %129, %126 ], [ %98, %97 ], [ %98, %97 ], [ %98, %97 ], [ %98, %97 ], [ %98, %105 ]
  %132 = load i64, ptr %16, align 8, !tbaa !89
  %133 = load i64, ptr %14, align 8, !tbaa !87
  %134 = sub i64 %132, %133
  %135 = trunc i64 %134 to i32
  %136 = icmp sgt i32 %135, 0
  %137 = icmp ne ptr %131, null
  %138 = and i1 %137, %136
  br i1 %138, label %139, label %240

139:                                              ; preds = %130
  %140 = icmp eq ptr %13, null
  br i1 %140, label %141, label %167

141:                                              ; preds = %139, %162
  %142 = phi i32 [ %163, %162 ], [ %135, %139 ]
  %143 = phi ptr [ %147, %162 ], [ %131, %139 ]
  %144 = load ptr, ptr %143, align 8, !tbaa !77
  %145 = getelementptr inbounds ptr, ptr %144, i64 10
  %146 = load ptr, ptr %145, align 8
  %147 = tail call noundef ptr %146(ptr noundef nonnull align 8 dereferenceable(8) %143)
  switch i32 %1, label %162 [
    i32 2, label %157
    i32 3, label %148
  ]

148:                                              ; preds = %141
  %149 = load ptr, ptr %143, align 8, !tbaa !77
  %150 = getelementptr inbounds ptr, ptr %149, i64 5
  %151 = load ptr, ptr %150, align 8
  %152 = tail call noundef ptr %151(ptr noundef nonnull align 8 dereferenceable(8) %143)
  %153 = load ptr, ptr %152, align 8, !tbaa !77
  %154 = getelementptr inbounds ptr, ptr %153, i64 16
  %155 = load ptr, ptr %154, align 8
  %156 = tail call noundef ptr %155(ptr noundef nonnull align 8 dereferenceable(8) %152, ptr noundef nonnull %143)
  br label %162

157:                                              ; preds = %141
  %158 = load ptr, ptr %143, align 8, !tbaa !77
  %159 = getelementptr inbounds ptr, ptr %158, i64 13
  %160 = load ptr, ptr %159, align 8
  %161 = tail call noundef ptr %160(ptr noundef nonnull align 8 dereferenceable(8) %143, i1 noundef zeroext true)
  br label %162

162:                                              ; preds = %141, %157, %148
  %163 = add nsw i32 %142, -1
  %164 = icmp sgt i32 %142, 1
  %165 = icmp ne ptr %147, null
  %166 = and i1 %165, %164
  br i1 %166, label %141, label %240

167:                                              ; preds = %139
  switch i32 %1, label %225 [
    i32 2, label %168
    i32 1, label %187
    i32 3, label %202
  ]

168:                                              ; preds = %167, %168
  %169 = phi i32 [ %183, %168 ], [ %135, %167 ]
  %170 = phi ptr [ %174, %168 ], [ %131, %167 ]
  %171 = load ptr, ptr %170, align 8, !tbaa !77
  %172 = getelementptr inbounds ptr, ptr %171, i64 10
  %173 = load ptr, ptr %172, align 8
  %174 = tail call noundef ptr %173(ptr noundef nonnull align 8 dereferenceable(8) %170)
  %175 = load ptr, ptr %170, align 8, !tbaa !77
  %176 = getelementptr inbounds ptr, ptr %175, i64 13
  %177 = load ptr, ptr %176, align 8
  %178 = tail call noundef ptr %177(ptr noundef nonnull align 8 dereferenceable(8) %170, i1 noundef zeroext true)
  %179 = load ptr, ptr %13, align 8, !tbaa !77
  %180 = getelementptr inbounds ptr, ptr %179, i64 17
  %181 = load ptr, ptr %180, align 8
  %182 = tail call noundef ptr %181(ptr noundef nonnull align 8 dereferenceable(8) %13, ptr noundef %178)
  %183 = add nsw i32 %169, -1
  %184 = icmp ugt i32 %169, 1
  %185 = icmp ne ptr %174, null
  %186 = and i1 %185, %184
  br i1 %186, label %168, label %240

187:                                              ; preds = %167, %187
  %188 = phi i32 [ %198, %187 ], [ %135, %167 ]
  %189 = phi ptr [ %193, %187 ], [ %131, %167 ]
  %190 = load ptr, ptr %189, align 8, !tbaa !77
  %191 = getelementptr inbounds ptr, ptr %190, i64 10
  %192 = load ptr, ptr %191, align 8
  %193 = tail call noundef ptr %192(ptr noundef nonnull align 8 dereferenceable(8) %189)
  %194 = load ptr, ptr %13, align 8, !tbaa !77
  %195 = getelementptr inbounds ptr, ptr %194, i64 17
  %196 = load ptr, ptr %195, align 8
  %197 = tail call noundef ptr %196(ptr noundef nonnull align 8 dereferenceable(8) %13, ptr noundef nonnull %189)
  %198 = add nsw i32 %188, -1
  %199 = icmp ugt i32 %188, 1
  %200 = icmp ne ptr %193, null
  %201 = and i1 %200, %199
  br i1 %201, label %187, label %240

202:                                              ; preds = %167, %202
  %203 = phi i32 [ %221, %202 ], [ %135, %167 ]
  %204 = phi ptr [ %208, %202 ], [ %131, %167 ]
  %205 = load ptr, ptr %204, align 8, !tbaa !77
  %206 = getelementptr inbounds ptr, ptr %205, i64 10
  %207 = load ptr, ptr %206, align 8
  %208 = tail call noundef ptr %207(ptr noundef nonnull align 8 dereferenceable(8) %204)
  %209 = load ptr, ptr %204, align 8, !tbaa !77
  %210 = getelementptr inbounds ptr, ptr %209, i64 5
  %211 = load ptr, ptr %210, align 8
  %212 = tail call noundef ptr %211(ptr noundef nonnull align 8 dereferenceable(8) %204)
  %213 = load ptr, ptr %212, align 8, !tbaa !77
  %214 = getelementptr inbounds ptr, ptr %213, i64 16
  %215 = load ptr, ptr %214, align 8
  %216 = tail call noundef ptr %215(ptr noundef nonnull align 8 dereferenceable(8) %212, ptr noundef nonnull %204)
  %217 = load ptr, ptr %13, align 8, !tbaa !77
  %218 = getelementptr inbounds ptr, ptr %217, i64 17
  %219 = load ptr, ptr %218, align 8
  %220 = tail call noundef ptr %219(ptr noundef nonnull align 8 dereferenceable(8) %13, ptr noundef null)
  %221 = add nsw i32 %203, -1
  %222 = icmp ugt i32 %203, 1
  %223 = icmp ne ptr %208, null
  %224 = and i1 %223, %222
  br i1 %224, label %202, label %240

225:                                              ; preds = %167, %225
  %226 = phi i32 [ %236, %225 ], [ %135, %167 ]
  %227 = phi ptr [ %231, %225 ], [ %131, %167 ]
  %228 = load ptr, ptr %227, align 8, !tbaa !77
  %229 = getelementptr inbounds ptr, ptr %228, i64 10
  %230 = load ptr, ptr %229, align 8
  %231 = tail call noundef ptr %230(ptr noundef nonnull align 8 dereferenceable(8) %227)
  %232 = load ptr, ptr %13, align 8, !tbaa !77
  %233 = getelementptr inbounds ptr, ptr %232, i64 17
  %234 = load ptr, ptr %233, align 8
  %235 = tail call noundef ptr %234(ptr noundef nonnull align 8 dereferenceable(8) %13, ptr noundef null)
  %236 = add nsw i32 %226, -1
  %237 = icmp ugt i32 %226, 1
  %238 = icmp ne ptr %231, null
  %239 = and i1 %238, %237
  br i1 %239, label %225, label %240

240:                                              ; preds = %202, %187, %168, %225, %162, %130, %92
  %241 = icmp eq i32 %1, 2
  br i1 %241, label %246, label %242

242:                                              ; preds = %91, %240
  %243 = load ptr, ptr %0, align 8, !tbaa !77
  %244 = getelementptr inbounds ptr, ptr %243, i64 14
  %245 = load ptr, ptr %244, align 8
  call void %245(ptr noundef nonnull align 8 dereferenceable(80) %0, i1 noundef zeroext true)
  br label %246

246:                                              ; preds = %240, %242, %12
  ret ptr %13
}

; Function Attrs: uwtable
define dso_local noundef ptr @_ZN11xercesc_2_512DOMRangeImpl28traverseCommonStartContainerEPNS_7DOMNodeEi(ptr noundef nonnull align 8 dereferenceable(80) %0, ptr noundef %1, i32 noundef %2) local_unnamed_addr #5 align 2 {
  %4 = icmp eq i32 %2, 3
  br i1 %4, label %5, label %7

5:                                                ; preds = %3
  %6 = tail call noundef ptr @_ZN11xercesc_2_512DOMRangeImpl21traverseRightBoundaryEPNS_7DOMNodeEi(ptr noundef nonnull align 8 dereferenceable(80) %0, ptr noundef %1, i32 noundef 3)
  br label %21

7:                                                ; preds = %3
  %8 = getelementptr inbounds %"class.xercesc_2_5::DOMRangeImpl", ptr %0, i64 0, i32 6
  %9 = load ptr, ptr %8, align 8, !tbaa !91
  %10 = load ptr, ptr %9, align 8, !tbaa !77
  %11 = getelementptr inbounds ptr, ptr %10, i64 4
  %12 = load ptr, ptr %11, align 8
  %13 = tail call noundef ptr %12(ptr noundef nonnull align 8 dereferenceable(32) %9)
  %14 = tail call noundef ptr @_ZN11xercesc_2_512DOMRangeImpl21traverseRightBoundaryEPNS_7DOMNodeEi(ptr noundef nonnull align 8 dereferenceable(80) %0, ptr noundef %1, i32 noundef %2)
  %15 = icmp eq ptr %13, null
  br i1 %15, label %21, label %16

16:                                               ; preds = %7
  %17 = load ptr, ptr %13, align 8, !tbaa !77
  %18 = getelementptr inbounds ptr, ptr %17, i64 17
  %19 = load ptr, ptr %18, align 8
  %20 = tail call noundef ptr %19(ptr noundef nonnull align 8 dereferenceable(8) %13, ptr noundef %14)
  br label %21

21:                                               ; preds = %5, %16, %7
  %22 = phi i1 [ true, %5 ], [ false, %16 ], [ true, %7 ]
  %23 = phi ptr [ null, %5 ], [ %13, %16 ], [ null, %7 ]
  %24 = getelementptr inbounds %"class.xercesc_2_5::DOMRangeImpl", ptr %0, i64 0, i32 1
  %25 = load ptr, ptr %24, align 8, !tbaa !80
  %26 = load ptr, ptr %1, align 8, !tbaa !77
  %27 = getelementptr inbounds ptr, ptr %26, i64 5
  %28 = load ptr, ptr %27, align 8
  %29 = tail call noundef ptr %28(ptr noundef nonnull align 8 dereferenceable(8) %1)
  %30 = icmp eq ptr %29, %25
  br i1 %30, label %31, label %46

31:                                               ; preds = %21
  %32 = load ptr, ptr %1, align 8, !tbaa !77
  %33 = getelementptr inbounds ptr, ptr %32, i64 9
  %34 = load ptr, ptr %33, align 8
  %35 = tail call noundef ptr %34(ptr noundef nonnull align 8 dereferenceable(8) %1)
  %36 = icmp eq ptr %35, null
  br i1 %36, label %46, label %37

37:                                               ; preds = %31, %37
  %38 = phi ptr [ %44, %37 ], [ %35, %31 ]
  %39 = phi i64 [ %40, %37 ], [ 0, %31 ]
  %40 = add i64 %39, 1
  %41 = load ptr, ptr %38, align 8, !tbaa !77
  %42 = getelementptr inbounds ptr, ptr %41, i64 9
  %43 = load ptr, ptr %42, align 8
  %44 = tail call noundef ptr %43(ptr noundef nonnull align 8 dereferenceable(8) %38)
  %45 = icmp eq ptr %44, null
  br i1 %45, label %46, label %37

46:                                               ; preds = %37, %21, %31
  %47 = phi i64 [ -1, %21 ], [ 0, %31 ], [ %40, %37 ]
  %48 = getelementptr inbounds %"class.xercesc_2_5::DOMRangeImpl", ptr %0, i64 0, i32 2
  %49 = load i64, ptr %48, align 8, !tbaa !87
  %50 = sub i64 %47, %49
  %51 = trunc i64 %50 to i32
  %52 = icmp slt i32 %51, 1
  br i1 %52, label %53, label %55

53:                                               ; preds = %46
  %54 = icmp eq i32 %2, 2
  br i1 %54, label %152, label %145

55:                                               ; preds = %46
  %56 = load ptr, ptr %1, align 8, !tbaa !77
  %57 = getelementptr inbounds ptr, ptr %56, i64 9
  %58 = load ptr, ptr %57, align 8
  %59 = tail call noundef ptr %58(ptr noundef nonnull align 8 dereferenceable(8) %1)
  br i1 %22, label %60, label %109

60:                                               ; preds = %55
  switch i32 %2, label %100 [
    i32 2, label %61
    i32 1, label %74
    i32 3, label %83
  ]

61:                                               ; preds = %60, %61
  %62 = phi i32 [ %72, %61 ], [ %51, %60 ]
  %63 = phi ptr [ %67, %61 ], [ %59, %60 ]
  %64 = load ptr, ptr %63, align 8, !tbaa !77
  %65 = getelementptr inbounds ptr, ptr %64, i64 9
  %66 = load ptr, ptr %65, align 8
  %67 = tail call noundef ptr %66(ptr noundef nonnull align 8 dereferenceable(8) %63)
  %68 = load ptr, ptr %63, align 8, !tbaa !77
  %69 = getelementptr inbounds ptr, ptr %68, i64 13
  %70 = load ptr, ptr %69, align 8
  %71 = tail call noundef ptr %70(ptr noundef nonnull align 8 dereferenceable(8) %63, i1 noundef zeroext true)
  %72 = add nsw i32 %62, -1
  %73 = icmp ugt i32 %62, 1
  br i1 %73, label %61, label %143

74:                                               ; preds = %60, %74
  %75 = phi i32 [ %81, %74 ], [ %51, %60 ]
  %76 = phi ptr [ %80, %74 ], [ %59, %60 ]
  %77 = load ptr, ptr %76, align 8, !tbaa !77
  %78 = getelementptr inbounds ptr, ptr %77, i64 9
  %79 = load ptr, ptr %78, align 8
  %80 = tail call noundef ptr %79(ptr noundef nonnull align 8 dereferenceable(8) %76)
  %81 = add nsw i32 %75, -1
  %82 = icmp ugt i32 %75, 1
  br i1 %82, label %74, label %143

83:                                               ; preds = %60, %83
  %84 = phi i32 [ %98, %83 ], [ %51, %60 ]
  %85 = phi ptr [ %89, %83 ], [ %59, %60 ]
  %86 = load ptr, ptr %85, align 8, !tbaa !77
  %87 = getelementptr inbounds ptr, ptr %86, i64 9
  %88 = load ptr, ptr %87, align 8
  %89 = tail call noundef ptr %88(ptr noundef nonnull align 8 dereferenceable(8) %85)
  %90 = load ptr, ptr %85, align 8, !tbaa !77
  %91 = getelementptr inbounds ptr, ptr %90, i64 5
  %92 = load ptr, ptr %91, align 8
  %93 = tail call noundef ptr %92(ptr noundef nonnull align 8 dereferenceable(8) %85)
  %94 = load ptr, ptr %93, align 8, !tbaa !77
  %95 = getelementptr inbounds ptr, ptr %94, i64 16
  %96 = load ptr, ptr %95, align 8
  %97 = tail call noundef ptr %96(ptr noundef nonnull align 8 dereferenceable(8) %93, ptr noundef nonnull %85)
  %98 = add nsw i32 %84, -1
  %99 = icmp ugt i32 %84, 1
  br i1 %99, label %83, label %143

100:                                              ; preds = %60, %100
  %101 = phi i32 [ %107, %100 ], [ %51, %60 ]
  %102 = phi ptr [ %106, %100 ], [ %59, %60 ]
  %103 = load ptr, ptr %102, align 8, !tbaa !77
  %104 = getelementptr inbounds ptr, ptr %103, i64 9
  %105 = load ptr, ptr %104, align 8
  %106 = tail call noundef ptr %105(ptr noundef nonnull align 8 dereferenceable(8) %102)
  %107 = add nsw i32 %101, -1
  %108 = icmp ugt i32 %101, 1
  br i1 %108, label %100, label %143

109:                                              ; preds = %55, %131
  %110 = phi i32 [ %141, %131 ], [ %51, %55 ]
  %111 = phi ptr [ %115, %131 ], [ %59, %55 ]
  %112 = load ptr, ptr %111, align 8, !tbaa !77
  %113 = getelementptr inbounds ptr, ptr %112, i64 9
  %114 = load ptr, ptr %113, align 8
  %115 = tail call noundef ptr %114(ptr noundef nonnull align 8 dereferenceable(8) %111)
  switch i32 %2, label %130 [
    i32 2, label %116
    i32 1, label %131
    i32 3, label %121
  ]

116:                                              ; preds = %109
  %117 = load ptr, ptr %111, align 8, !tbaa !77
  %118 = getelementptr inbounds ptr, ptr %117, i64 13
  %119 = load ptr, ptr %118, align 8
  %120 = tail call noundef ptr %119(ptr noundef nonnull align 8 dereferenceable(8) %111, i1 noundef zeroext true)
  br label %131

121:                                              ; preds = %109
  %122 = load ptr, ptr %111, align 8, !tbaa !77
  %123 = getelementptr inbounds ptr, ptr %122, i64 5
  %124 = load ptr, ptr %123, align 8
  %125 = tail call noundef ptr %124(ptr noundef nonnull align 8 dereferenceable(8) %111)
  %126 = load ptr, ptr %125, align 8, !tbaa !77
  %127 = getelementptr inbounds ptr, ptr %126, i64 16
  %128 = load ptr, ptr %127, align 8
  %129 = tail call noundef ptr %128(ptr noundef nonnull align 8 dereferenceable(8) %125, ptr noundef nonnull %111)
  br label %131

130:                                              ; preds = %109
  br label %131

131:                                              ; preds = %109, %116, %121, %130
  %132 = phi ptr [ null, %130 ], [ null, %121 ], [ %120, %116 ], [ %111, %109 ]
  %133 = load ptr, ptr %23, align 8, !tbaa !77
  %134 = getelementptr inbounds ptr, ptr %133, i64 7
  %135 = load ptr, ptr %134, align 8
  %136 = tail call noundef ptr %135(ptr noundef nonnull align 8 dereferenceable(8) %23)
  %137 = load ptr, ptr %23, align 8, !tbaa !77
  %138 = getelementptr inbounds ptr, ptr %137, i64 14
  %139 = load ptr, ptr %138, align 8
  %140 = tail call noundef ptr %139(ptr noundef nonnull align 8 dereferenceable(8) %23, ptr noundef %132, ptr noundef %136)
  %141 = add nsw i32 %110, -1
  %142 = icmp sgt i32 %110, 1
  br i1 %142, label %109, label %143

143:                                              ; preds = %131, %83, %74, %61, %100
  %144 = icmp eq i32 %2, 2
  br i1 %144, label %152, label %145

145:                                              ; preds = %143, %53
  %146 = load ptr, ptr %0, align 8, !tbaa !77
  %147 = getelementptr inbounds ptr, ptr %146, i64 12
  %148 = load ptr, ptr %147, align 8
  tail call void %148(ptr noundef nonnull align 8 dereferenceable(80) %0, ptr noundef nonnull %1)
  %149 = load ptr, ptr %0, align 8, !tbaa !77
  %150 = getelementptr inbounds ptr, ptr %149, i64 14
  %151 = load ptr, ptr %150, align 8
  tail call void %151(ptr noundef nonnull align 8 dereferenceable(80) %0, i1 noundef zeroext false)
  br label %152

152:                                              ; preds = %145, %143, %53
  ret ptr %23
}

; Function Attrs: uwtable
define dso_local noundef ptr @_ZN11xercesc_2_512DOMRangeImpl26traverseCommonEndContainerEPNS_7DOMNodeEi(ptr noundef nonnull align 8 dereferenceable(80) %0, ptr noundef %1, i32 noundef %2) local_unnamed_addr #5 align 2 {
  %4 = icmp eq i32 %2, 3
  br i1 %4, label %5, label %7

5:                                                ; preds = %3
  %6 = tail call noundef ptr @_ZN11xercesc_2_512DOMRangeImpl20traverseLeftBoundaryEPNS_7DOMNodeEi(ptr noundef nonnull align 8 dereferenceable(80) %0, ptr noundef %1, i32 noundef 3)
  br label %21

7:                                                ; preds = %3
  %8 = getelementptr inbounds %"class.xercesc_2_5::DOMRangeImpl", ptr %0, i64 0, i32 6
  %9 = load ptr, ptr %8, align 8, !tbaa !91
  %10 = load ptr, ptr %9, align 8, !tbaa !77
  %11 = getelementptr inbounds ptr, ptr %10, i64 4
  %12 = load ptr, ptr %11, align 8
  %13 = tail call noundef ptr %12(ptr noundef nonnull align 8 dereferenceable(32) %9)
  %14 = tail call noundef ptr @_ZN11xercesc_2_512DOMRangeImpl20traverseLeftBoundaryEPNS_7DOMNodeEi(ptr noundef nonnull align 8 dereferenceable(80) %0, ptr noundef %1, i32 noundef %2)
  %15 = icmp eq ptr %13, null
  br i1 %15, label %21, label %16

16:                                               ; preds = %7
  %17 = load ptr, ptr %13, align 8, !tbaa !77
  %18 = getelementptr inbounds ptr, ptr %17, i64 17
  %19 = load ptr, ptr %18, align 8
  %20 = tail call noundef ptr %19(ptr noundef nonnull align 8 dereferenceable(8) %13, ptr noundef %14)
  br label %21

21:                                               ; preds = %5, %16, %7
  %22 = phi i1 [ true, %5 ], [ false, %16 ], [ true, %7 ]
  %23 = phi ptr [ null, %5 ], [ %13, %16 ], [ null, %7 ]
  %24 = getelementptr inbounds %"class.xercesc_2_5::DOMRangeImpl", ptr %0, i64 0, i32 3
