; ModuleID = 'DTDScanner.cpp'
source_filename = "DTDScanner.cpp"
target datalayout = "e-m:e-p270:32:32-p271:32:32-p272:64:64-i64:64-f80:128-n8:16:32:64-S128"
target triple = "x86_64-unknown-linux-gnu"

%"class.xercesc_2_5::ContentSpecNode" = type { %"class.xercesc_2_5::XSerializable", ptr, ptr, ptr, ptr, ptr, i32, i8, i8, i32, i32 }
%"class.xercesc_2_5::XSerializable" = type { ptr }
%"class.xercesc_2_5::DTDScanner" = type { ptr, ptr, ptr, ptr, ptr, ptr, ptr, i8, i32, ptr, ptr, ptr, ptr, ptr, i32, i32 }
%"class.xercesc_2_5::NameIdPool" = type <{ ptr, ptr, ptr, i32, i32, i32, [4 x i8] }>
%"struct.xercesc_2_5::NameIdPoolBucketElem" = type { ptr, ptr }
%"class.xercesc_2_5::XMLScanner" = type { ptr, i8, i8, i8, i8, i8, i8, i8, i8, i8, i8, i8, i8, i8, i8, i8, i8, i32, i32, i32, i32, i32, i32, i32, i32, ptr, i32, i32, i32, i32, i32, ptr, ptr, ptr, ptr, ptr, ptr, ptr, ptr, i8, %"class.xercesc_2_5::ReaderMgr", ptr, i32, ptr, ptr, ptr, ptr, ptr, ptr, ptr, ptr, ptr, i32, ptr, %"class.xercesc_2_5::XMLBufferMgr", %"class.xercesc_2_5::XMLBuffer", %"class.xercesc_2_5::XMLBuffer", %"class.xercesc_2_5::XMLBuffer", %"class.xercesc_2_5::XMLBuffer", %"class.xercesc_2_5::XMLBuffer", %"class.xercesc_2_5::XMLBuffer", %"class.xercesc_2_5::ElemStack" }
%"class.xercesc_2_5::ReaderMgr" = type { %"class.xercesc_2_5::Locator", ptr, ptr, ptr, ptr, i32, ptr, i8, i32, i8, ptr }
%"class.xercesc_2_5::Locator" = type { ptr }
%"class.xercesc_2_5::XMLBufferMgr" = type { i32, ptr, ptr }
%"class.xercesc_2_5::XMLBuffer" = type { i8, i32, i32, ptr, ptr }
%"class.xercesc_2_5::ElemStack" = type { i32, i32, %"class.xercesc_2_5::XMLStringPool", ptr, i32, i32, i32, i32, i32, i32, i32, ptr, ptr }
%"class.xercesc_2_5::XMLStringPool" = type { %"class.xercesc_2_5::XSerializable", ptr, ptr, ptr, i32, i32 }
%"class.xercesc_2_5::XMLReader" = type { i32, [16384 x i16], i32, [16384 x i8], i64, i64, i32, ptr, i8, i8, ptr, i32, [49152 x i8], i32, i32, i32, i8, i32, i32, i8, i8, ptr, ptr, i8, i8, ptr, i32, ptr, i8, i32, ptr }
%"class.xercesc_2_5::XMLEntityDecl" = type { %"class.xercesc_2_5::XSerializable", i32, i32, ptr, ptr, ptr, ptr, ptr, ptr, ptr }
%"class.xercesc_2_5::EndOfEntityException" = type <{ ptr, i32, [4 x i8] }>
%"class.xercesc_2_5::XMLElementDecl" = type <{ %"class.xercesc_2_5::XSerializable", ptr, ptr, i32, i32, i8, [7 x i8] }>
%"class.xercesc_2_5::XMLAttDef" = type { %"class.xercesc_2_5::XSerializable", i32, i32, i32, i8, i8, i32, ptr, ptr, ptr }
%"class.xercesc_2_5::BaseRefVectorOf" = type { ptr, i8, i32, i32, ptr, ptr }
%"class.xercesc_2_5::DTDGrammar" = type { %"class.xercesc_2_5::Grammar", ptr, ptr, ptr, ptr, ptr, i32, i8, ptr }
%"class.xercesc_2_5::Grammar" = type { %"class.xercesc_2_5::XSerializable" }
%"class.xercesc_2_5::DTDElementDecl" = type { %"class.xercesc_2_5::XMLElementDecl.base", ptr, ptr, ptr, i32, ptr, ptr }
%"class.xercesc_2_5::XMLElementDecl.base" = type <{ %"class.xercesc_2_5::XSerializable", ptr, ptr, i32, i32, i8 }>
%"class.xercesc_2_5::DTDEntityDecl" = type <{ %"class.xercesc_2_5::XMLEntityDecl", i8, i8, i8, [5 x i8] }>
%"struct.xercesc_2_5::ReaderMgr::LastExtEntityInfo" = type { ptr, ptr, i64, i64 }
%"class.xercesc_2_5::XMLException" = type { ptr, i32, ptr, i32, ptr, ptr }

$__clang_call_terminate = comdat any

$_ZN11xercesc_2_513DTDEntityDeclD0Ev = comdat any

$_ZN11xercesc_2_515ContentSpecNodeD0Ev = comdat any

$_ZN11xercesc_2_515ContentSpecNodeD2Ev = comdat any

$_ZN11xercesc_2_516RuntimeExceptionC2EPKcjNS_10XMLExcepts5CodesEPKtS6_S6_S6_PNS_13MemoryManagerE = comdat any

$_ZN11xercesc_2_59XMLAttDef14setEnumerationEPKt = comdat any

$_ZN11xercesc_2_515BaseRefVectorOfItE9elementAtEj = comdat any

$_ZN11xercesc_2_522UnexpectedEOFExceptionC2EPKcjNS_10XMLExcepts5CodesEPNS_13MemoryManagerE = comdat any

$_ZN11xercesc_2_510NameIdPoolINS_13DTDEntityDeclEE3putEPS1_ = comdat any

$_ZNK11xercesc_2_513DTDEntityDecl22getDeclaredInIntSubsetEv = comdat any

$_ZNK11xercesc_2_513DTDEntityDecl14getIsParameterEv = comdat any

$_ZNK11xercesc_2_513DTDEntityDecl16getIsSpecialCharEv = comdat any

$_ZN11xercesc_2_516RuntimeExceptionD0Ev = comdat any

$_ZNK11xercesc_2_516RuntimeException7getTypeEv = comdat any

$_ZNK11xercesc_2_516RuntimeException9duplicateEv = comdat any

$_ZN11xercesc_2_522UnexpectedEOFExceptionD0Ev = comdat any

$_ZNK11xercesc_2_522UnexpectedEOFException7getTypeEv = comdat any

$_ZNK11xercesc_2_522UnexpectedEOFException9duplicateEv = comdat any

$_ZN11xercesc_2_510NameIdPoolINS_13DTDEntityDeclEE14findBucketElemEPKtRj = comdat any

$_ZN11xercesc_2_516RuntimeExceptionC2EPKcjNS_10XMLExcepts5CodesEPNS_13MemoryManagerE = comdat any

$_ZN11xercesc_2_524IllegalArgumentExceptionC2EPKcjNS_10XMLExcepts5CodesEPKtS6_S6_S6_PNS_13MemoryManagerE = comdat any

$_ZN11xercesc_2_524IllegalArgumentExceptionD0Ev = comdat any

$_ZNK11xercesc_2_524IllegalArgumentException7getTypeEv = comdat any

$_ZNK11xercesc_2_524IllegalArgumentException9duplicateEv = comdat any

$_ZN11xercesc_2_530ArrayIndexOutOfBoundsExceptionC2EPKcjNS_10XMLExcepts5CodesEPNS_13MemoryManagerE = comdat any

$_ZN11xercesc_2_530ArrayIndexOutOfBoundsExceptionD0Ev = comdat any

$_ZNK11xercesc_2_530ArrayIndexOutOfBoundsException7getTypeEv = comdat any

$_ZNK11xercesc_2_530ArrayIndexOutOfBoundsException9duplicateEv = comdat any

$_ZTVN11xercesc_2_515ContentSpecNodeE = comdat any

$_ZTSN11xercesc_2_516RuntimeExceptionE = comdat any

$_ZTIN11xercesc_2_516RuntimeExceptionE = comdat any

$_ZTSN11xercesc_2_520OutOfMemoryExceptionE = comdat any

$_ZTSN11xercesc_2_57XMemoryE = comdat any

$_ZTIN11xercesc_2_57XMemoryE = comdat any

$_ZTIN11xercesc_2_520OutOfMemoryExceptionE = comdat any

$_ZTSN11xercesc_2_522UnexpectedEOFExceptionE = comdat any

$_ZTIN11xercesc_2_522UnexpectedEOFExceptionE = comdat any

$_ZTSN11xercesc_2_520EndOfEntityExceptionE = comdat any

$_ZTIN11xercesc_2_520EndOfEntityExceptionE = comdat any

$_ZTSN11xercesc_2_57XMLErrs5CodesE = comdat any

$_ZTIN11xercesc_2_57XMLErrs5CodesE = comdat any

$_ZTSN11xercesc_2_513XSerializableE = comdat any

$_ZTIN11xercesc_2_513XSerializableE = comdat any

$_ZTVN11xercesc_2_513DTDEntityDeclE = comdat any

$_ZTSN11xercesc_2_513DTDEntityDeclE = comdat any

$_ZTIN11xercesc_2_513DTDEntityDeclE = comdat any

$_ZTSN11xercesc_2_515ContentSpecNodeE = comdat any

$_ZTIN11xercesc_2_515ContentSpecNodeE = comdat any

$_ZTVN11xercesc_2_516RuntimeExceptionE = comdat any

$_ZTVN11xercesc_2_522UnexpectedEOFExceptionE = comdat any

$_ZTSN11xercesc_2_524IllegalArgumentExceptionE = comdat any

$_ZTIN11xercesc_2_524IllegalArgumentExceptionE = comdat any

$_ZTVN11xercesc_2_524IllegalArgumentExceptionE = comdat any

$_ZTSN11xercesc_2_530ArrayIndexOutOfBoundsExceptionE = comdat any

$_ZTIN11xercesc_2_530ArrayIndexOutOfBoundsExceptionE = comdat any

$_ZTVN11xercesc_2_530ArrayIndexOutOfBoundsExceptionE = comdat any

@_ZTVN11xercesc_2_515ContentSpecNodeE = linkonce_odr dso_local unnamed_addr constant { [7 x ptr] } { [7 x ptr] [ptr null, ptr @_ZTIN11xercesc_2_515ContentSpecNodeE, ptr @_ZN11xercesc_2_515ContentSpecNodeD2Ev, ptr @_ZN11xercesc_2_515ContentSpecNodeD0Ev, ptr @_ZNK11xercesc_2_515ContentSpecNode14isSerializableEv, ptr @_ZN11xercesc_2_515ContentSpecNode9serializeERNS_16XSerializeEngineE, ptr @_ZNK11xercesc_2_515ContentSpecNode12getProtoTypeEv] }, comdat, align 8, !type !0, !type !1, !type !2, !type !3, !type !4, !type !5, !type !6, !type !7
@_ZTVN11xercesc_2_510DTDScannerE = dso_local unnamed_addr constant { [4 x ptr] } { [4 x ptr] [ptr null, ptr @_ZTIN11xercesc_2_510DTDScannerE, ptr @_ZN11xercesc_2_510DTDScannerD2Ev, ptr @_ZN11xercesc_2_510DTDScannerD0Ev] }, align 8, !type !8
@.str = private unnamed_addr constant [15 x i8] c"DTDScanner.cpp\00", align 1
@_ZTVN10__cxxabiv120__si_class_type_infoE = external global ptr
@_ZTSN11xercesc_2_516RuntimeExceptionE = linkonce_odr dso_local constant [34 x i8] c"N11xercesc_2_516RuntimeExceptionE\00", comdat, align 1
@_ZTIN11xercesc_2_512XMLExceptionE = external constant ptr
@_ZTIN11xercesc_2_516RuntimeExceptionE = linkonce_odr dso_local constant { ptr, ptr, ptr } { ptr getelementptr inbounds (ptr, ptr @_ZTVN10__cxxabiv120__si_class_type_infoE, i64 2), ptr @_ZTSN11xercesc_2_516RuntimeExceptionE, ptr @_ZTIN11xercesc_2_512XMLExceptionE }, comdat, align 8
@_ZTSN11xercesc_2_520OutOfMemoryExceptionE = linkonce_odr dso_local constant [38 x i8] c"N11xercesc_2_520OutOfMemoryExceptionE\00", comdat, align 1
@_ZTVN10__cxxabiv117__class_type_infoE = external global ptr
@_ZTSN11xercesc_2_57XMemoryE = linkonce_odr dso_local constant [24 x i8] c"N11xercesc_2_57XMemoryE\00", comdat, align 1
@_ZTIN11xercesc_2_57XMemoryE = linkonce_odr dso_local constant { ptr, ptr } { ptr getelementptr inbounds (ptr, ptr @_ZTVN10__cxxabiv117__class_type_infoE, i64 2), ptr @_ZTSN11xercesc_2_57XMemoryE }, comdat, align 8
@_ZTIN11xercesc_2_520OutOfMemoryExceptionE = linkonce_odr dso_local constant { ptr, ptr, ptr } { ptr getelementptr inbounds (ptr, ptr @_ZTVN10__cxxabiv120__si_class_type_infoE, i64 2), ptr @_ZTSN11xercesc_2_520OutOfMemoryExceptionE, ptr @_ZTIN11xercesc_2_57XMemoryE }, comdat, align 8
@_ZN11xercesc_2_56XMLUni13fgCDATAStringE = external constant [0 x i16], align 2
@_ZN11xercesc_2_56XMLUni10fgIDStringE = external constant [0 x i16], align 2
@_ZN11xercesc_2_56XMLUni11fgRefStringE = external constant [0 x i16], align 2
@_ZN11xercesc_2_56XMLUni13fgEntitStringE = external constant [0 x i16], align 2
@_ZN11xercesc_2_56XMLUni11fgIESStringE = external constant [0 x i16], align 2
@_ZN11xercesc_2_56XMLUni15fgNmTokenStringE = external constant [0 x i16], align 2
@_ZN11xercesc_2_56XMLUni16fgNotationStringE = external constant [0 x i16], align 2
@__const._ZN11xercesc_2_510DTDScanner10scanAttDefERNS_14DTDElementDeclERNS_9XMLBufferE.fgXMLSpace = private unnamed_addr constant [10 x i16] [i16 120, i16 109, i16 108, i16 58, i16 115, i16 112, i16 97, i16 99, i16 101, i16 0], align 16
@__const._ZN11xercesc_2_510DTDScanner10scanAttDefERNS_14DTDElementDeclERNS_9XMLBufferE.fgPreserve = private unnamed_addr constant [9 x i16] [i16 112, i16 114, i16 101, i16 115, i16 101, i16 114, i16 118, i16 101, i16 0], align 16
@__const._ZN11xercesc_2_510DTDScanner10scanAttDefERNS_14DTDElementDeclERNS_9XMLBufferE.fgDefault = private unnamed_addr constant [8 x i16] [i16 100, i16 101, i16 102, i16 97, i16 117, i16 108, i16 116, i16 0], align 16
@_ZTSN11xercesc_2_522UnexpectedEOFExceptionE = linkonce_odr dso_local constant [40 x i8] c"N11xercesc_2_522UnexpectedEOFExceptionE\00", comdat, align 1
@_ZTIN11xercesc_2_522UnexpectedEOFExceptionE = linkonce_odr dso_local constant { ptr, ptr, ptr } { ptr getelementptr inbounds (ptr, ptr @_ZTVN10__cxxabiv120__si_class_type_infoE, i64 2), ptr @_ZTSN11xercesc_2_522UnexpectedEOFExceptionE, ptr @_ZTIN11xercesc_2_512XMLExceptionE }, comdat, align 8
@_ZTSN11xercesc_2_520EndOfEntityExceptionE = linkonce_odr dso_local constant [38 x i8] c"N11xercesc_2_520EndOfEntityExceptionE\00", comdat, align 1
@_ZTIN11xercesc_2_520EndOfEntityExceptionE = linkonce_odr dso_local constant { ptr, ptr } { ptr getelementptr inbounds (ptr, ptr @_ZTVN10__cxxabiv117__class_type_infoE, i64 2), ptr @_ZTSN11xercesc_2_520EndOfEntityExceptionE }, comdat, align 8
@_ZTVN10__cxxabiv116__enum_type_infoE = external global ptr
@_ZTSN11xercesc_2_57XMLErrs5CodesE = linkonce_odr dso_local constant [30 x i8] c"N11xercesc_2_57XMLErrs5CodesE\00", comdat, align 1
@_ZTIN11xercesc_2_57XMLErrs5CodesE = linkonce_odr dso_local constant { ptr, ptr } { ptr getelementptr inbounds (ptr, ptr @_ZTVN10__cxxabiv116__enum_type_infoE, i64 2), ptr @_ZTSN11xercesc_2_57XMLErrs5CodesE }, comdat, align 8
@_ZN11xercesc_2_56XMLUni13fgEmptyStringE = external constant [0 x i16], align 2
@_ZN11xercesc_2_56XMLUni11fgAnyStringE = external constant [0 x i16], align 2
@_ZN11xercesc_2_56XMLUni14fgPCDATAStringE = external constant [0 x i16], align 2
@_ZN11xercesc_2_56XMLUni16fgRequiredStringE = external constant [0 x i16], align 2
@_ZN11xercesc_2_56XMLUni15fgImpliedStringE = external constant [0 x i16], align 2
@_ZN11xercesc_2_56XMLUni13fgFixedStringE = external constant [0 x i16], align 2
@_ZN11xercesc_2_56XMLUni13fgNDATAStringE = external constant [0 x i16], align 2
@_ZZN11xercesc_2_510DTDScanner17scanExtSubsetDeclEbbE6toSkip = internal constant [4 x i16] [i16 37, i16 93, i16 60, i16 0], align 2
@_ZN11xercesc_2_56XMLUni13fgSysIDStringE = external constant [0 x i16], align 2
@_ZN11xercesc_2_56XMLUni13fgPubIDStringE = external constant [0 x i16], align 2
@_ZZN11xercesc_2_510DTDScanner18scanInternalSubsetEvE6toSkip = internal constant [4 x i16] [i16 37, i16 93, i16 60, i16 0], align 2
@_ZN11xercesc_2_56XMLUni15fgIncludeStringE = external constant [0 x i16], align 2
@_ZN11xercesc_2_56XMLUni14fgIgnoreStringE = external constant [0 x i16], align 2
@_ZN11xercesc_2_56XMLUni15fgAttListStringE = external constant [0 x i16], align 2
@_ZN11xercesc_2_56XMLUni12fgElemStringE = external constant [0 x i16], align 2
@_ZN11xercesc_2_56XMLUni14fgEntityStringE = external constant [0 x i16], align 2
@_ZN11xercesc_2_56XMLUni15fgZeroLenStringE = external constant [0 x i16], align 2
@_ZN11xercesc_2_514XMLElementDecl14fgPCDataElemIdE = external local_unnamed_addr constant i32, align 4
@_ZN11xercesc_2_56XMLUni11fgXMLStringE = external constant [0 x i16], align 2
@_ZN11xercesc_2_56XMLUni15fgVersionStringE = external constant [0 x i16], align 2
@_ZN11xercesc_2_56XMLUni12fgVersion1_1E = external local_unnamed_addr constant [0 x i16], align 2
@_ZN11xercesc_2_56XMLUni12fgVersion1_0E = external local_unnamed_addr constant [0 x i16], align 2
@_ZN11xercesc_2_56XMLUni16fgEncodingStringE = external constant [0 x i16], align 2
@_ZTVN10__cxxabiv121__vmi_class_type_infoE = external global ptr
@_ZTSN11xercesc_2_513XSerializableE = linkonce_odr dso_local constant [31 x i8] c"N11xercesc_2_513XSerializableE\00", comdat, align 1
@_ZTIN11xercesc_2_513XSerializableE = linkonce_odr dso_local constant { ptr, ptr } { ptr getelementptr inbounds (ptr, ptr @_ZTVN10__cxxabiv117__class_type_infoE, i64 2), ptr @_ZTSN11xercesc_2_513XSerializableE }, comdat, align 8
@_ZTVN11xercesc_2_513DTDEntityDeclE = linkonce_odr dso_local unnamed_addr constant { [10 x ptr] } { [10 x ptr] [ptr null, ptr @_ZTIN11xercesc_2_513DTDEntityDeclE, ptr @_ZN11xercesc_2_513XMLEntityDeclD2Ev, ptr @_ZN11xercesc_2_513DTDEntityDeclD0Ev, ptr @_ZNK11xercesc_2_513DTDEntityDecl14isSerializableEv, ptr @_ZN11xercesc_2_513DTDEntityDecl9serializeERNS_16XSerializeEngineE, ptr @_ZNK11xercesc_2_513DTDEntityDecl12getProtoTypeEv, ptr @_ZNK11xercesc_2_513DTDEntityDecl22getDeclaredInIntSubsetEv, ptr @_ZNK11xercesc_2_513DTDEntityDecl14getIsParameterEv, ptr @_ZNK11xercesc_2_513DTDEntityDecl16getIsSpecialCharEv] }, comdat, align 8, !type !9, !type !10, !type !11, !type !12, !type !13, !type !14, !type !15, !type !16, !type !17, !type !18, !type !19, !type !20, !type !21, !type !22, !type !0, !type !1, !type !2, !type !3, !type !23, !type !24, !type !25
@_ZTSN11xercesc_2_513DTDEntityDeclE = linkonce_odr dso_local constant [31 x i8] c"N11xercesc_2_513DTDEntityDeclE\00", comdat, align 1
@_ZTIN11xercesc_2_513XMLEntityDeclE = external constant ptr
@_ZTIN11xercesc_2_513DTDEntityDeclE = linkonce_odr dso_local constant { ptr, ptr, ptr } { ptr getelementptr inbounds (ptr, ptr @_ZTVN10__cxxabiv120__si_class_type_infoE, i64 2), ptr @_ZTSN11xercesc_2_513DTDEntityDeclE, ptr @_ZTIN11xercesc_2_513XMLEntityDeclE }, comdat, align 8
@_ZTSN11xercesc_2_515ContentSpecNodeE = linkonce_odr dso_local constant [33 x i8] c"N11xercesc_2_515ContentSpecNodeE\00", comdat, align 1
@_ZTIN11xercesc_2_515ContentSpecNodeE = linkonce_odr dso_local constant { ptr, ptr, i32, i32, ptr, i64, ptr, i64 } { ptr getelementptr inbounds (ptr, ptr @_ZTVN10__cxxabiv121__vmi_class_type_infoE, i64 2), ptr @_ZTSN11xercesc_2_515ContentSpecNodeE, i32 0, i32 2, ptr @_ZTIN11xercesc_2_513XSerializableE, i64 2, ptr @_ZTIN11xercesc_2_57XMemoryE, i64 2 }, comdat, align 8
@_ZTSN11xercesc_2_510DTDScannerE = dso_local constant [28 x i8] c"N11xercesc_2_510DTDScannerE\00", align 1
@_ZTIN11xercesc_2_510DTDScannerE = dso_local constant { ptr, ptr, ptr } { ptr getelementptr inbounds (ptr, ptr @_ZTVN10__cxxabiv120__si_class_type_infoE, i64 2), ptr @_ZTSN11xercesc_2_510DTDScannerE, ptr @_ZTIN11xercesc_2_57XMemoryE }, align 8
@_ZTVN11xercesc_2_516RuntimeExceptionE = linkonce_odr dso_local unnamed_addr constant { [6 x ptr] } { [6 x ptr] [ptr null, ptr @_ZTIN11xercesc_2_516RuntimeExceptionE, ptr @_ZN11xercesc_2_512XMLExceptionD2Ev, ptr @_ZN11xercesc_2_516RuntimeExceptionD0Ev, ptr @_ZNK11xercesc_2_516RuntimeException7getTypeEv, ptr @_ZNK11xercesc_2_516RuntimeException9duplicateEv] }, comdat, align 8, !type !26, !type !27, !type !28, !type !29, !type !30, !type !31
@_ZN11xercesc_2_56XMLUni23fgRuntimeException_NameE = external constant [0 x i16], align 2
@_ZTVN11xercesc_2_522UnexpectedEOFExceptionE = linkonce_odr dso_local unnamed_addr constant { [6 x ptr] } { [6 x ptr] [ptr null, ptr @_ZTIN11xercesc_2_522UnexpectedEOFExceptionE, ptr @_ZN11xercesc_2_512XMLExceptionD2Ev, ptr @_ZN11xercesc_2_522UnexpectedEOFExceptionD0Ev, ptr @_ZNK11xercesc_2_522UnexpectedEOFException7getTypeEv, ptr @_ZNK11xercesc_2_522UnexpectedEOFException9duplicateEv] }, comdat, align 8, !type !26, !type !27, !type !28, !type !32, !type !33, !type !34
@_ZN11xercesc_2_56XMLUni29fgUnexpectedEOFException_NameE = external constant [0 x i16], align 2
@_ZN11xercesc_2_510DTDGrammar16fDefaultEntitiesE = external local_unnamed_addr global ptr, align 8
@.str.1 = private unnamed_addr constant [28 x i8] c"./xercesc/util/NameIdPool.c\00", align 1
@_ZTSN11xercesc_2_524IllegalArgumentExceptionE = linkonce_odr dso_local constant [42 x i8] c"N11xercesc_2_524IllegalArgumentExceptionE\00", comdat, align 1
@_ZTIN11xercesc_2_524IllegalArgumentExceptionE = linkonce_odr dso_local constant { ptr, ptr, ptr } { ptr getelementptr inbounds (ptr, ptr @_ZTVN10__cxxabiv120__si_class_type_infoE, i64 2), ptr @_ZTSN11xercesc_2_524IllegalArgumentExceptionE, ptr @_ZTIN11xercesc_2_512XMLExceptionE }, comdat, align 8
@_ZTVN11xercesc_2_524IllegalArgumentExceptionE = linkonce_odr dso_local unnamed_addr constant { [6 x ptr] } { [6 x ptr] [ptr null, ptr @_ZTIN11xercesc_2_524IllegalArgumentExceptionE, ptr @_ZN11xercesc_2_512XMLExceptionD2Ev, ptr @_ZN11xercesc_2_524IllegalArgumentExceptionD0Ev, ptr @_ZNK11xercesc_2_524IllegalArgumentException7getTypeEv, ptr @_ZNK11xercesc_2_524IllegalArgumentException9duplicateEv] }, comdat, align 8, !type !26, !type !27, !type !28, !type !35, !type !36, !type !37
@_ZN11xercesc_2_56XMLUni31fgIllegalArgumentException_NameE = external constant [0 x i16], align 2
@.str.2 = private unnamed_addr constant [33 x i8] c"./xercesc/util/BaseRefVectorOf.c\00", align 1
@_ZTSN11xercesc_2_530ArrayIndexOutOfBoundsExceptionE = linkonce_odr dso_local constant [48 x i8] c"N11xercesc_2_530ArrayIndexOutOfBoundsExceptionE\00", comdat, align 1
@_ZTIN11xercesc_2_530ArrayIndexOutOfBoundsExceptionE = linkonce_odr dso_local constant { ptr, ptr, ptr } { ptr getelementptr inbounds (ptr, ptr @_ZTVN10__cxxabiv120__si_class_type_infoE, i64 2), ptr @_ZTSN11xercesc_2_530ArrayIndexOutOfBoundsExceptionE, ptr @_ZTIN11xercesc_2_512XMLExceptionE }, comdat, align 8
@_ZTVN11xercesc_2_530ArrayIndexOutOfBoundsExceptionE = linkonce_odr dso_local unnamed_addr constant { [6 x ptr] } { [6 x ptr] [ptr null, ptr @_ZTIN11xercesc_2_530ArrayIndexOutOfBoundsExceptionE, ptr @_ZN11xercesc_2_512XMLExceptionD2Ev, ptr @_ZN11xercesc_2_530ArrayIndexOutOfBoundsExceptionD0Ev, ptr @_ZNK11xercesc_2_530ArrayIndexOutOfBoundsException7getTypeEv, ptr @_ZNK11xercesc_2_530ArrayIndexOutOfBoundsException9duplicateEv] }, comdat, align 8, !type !26, !type !27, !type !28, !type !38, !type !39, !type !40
@_ZN11xercesc_2_56XMLUni37fgArrayIndexOutOfBoundsException_NameE = external constant [0 x i16], align 2

@_ZN11xercesc_2_510DTDScannerC1EPNS_10DTDGrammarEPNS_14DocTypeHandlerEPNS_13MemoryManagerES6_ = dso_local unnamed_addr alias void (ptr, ptr, ptr, ptr, ptr), ptr @_ZN11xercesc_2_510DTDScannerC2EPNS_10DTDGrammarEPNS_14DocTypeHandlerEPNS_13MemoryManagerES6_
@_ZN11xercesc_2_510DTDScannerD1Ev = dso_local unnamed_addr alias void (ptr), ptr @_ZN11xercesc_2_510DTDScannerD2Ev

declare i32 @__gxx_personality_v0(...)

; Function Attrs: noinline noreturn nounwind uwtable
define linkonce_odr hidden void @__clang_call_terminate(ptr noundef %0) local_unnamed_addr #0 comdat {
  %2 = tail call ptr @__cxa_begin_catch(ptr %0) #11
  tail call void @_ZSt9terminatev() #12
  unreachable
}

declare ptr @__cxa_begin_catch(ptr) local_unnamed_addr

declare void @_ZSt9terminatev() local_unnamed_addr

declare void @_ZN11xercesc_2_57XMemorydlEPv(ptr noundef) local_unnamed_addr #1

; Function Attrs: inlinehint uwtable
define linkonce_odr dso_local void @_ZN11xercesc_2_513DTDEntityDeclD0Ev(ptr noundef nonnull align 8 dereferenceable(75) %0) unnamed_addr #2 comdat align 2 personality ptr @__gxx_personality_v0 {
  invoke void @_ZN11xercesc_2_513XMLEntityDeclD2Ev(ptr noundef nonnull align 8 dereferenceable(75) %0)
          to label %2 unwind label %3

2:                                                ; preds = %1
  tail call void @_ZN11xercesc_2_57XMemorydlEPv(ptr noundef nonnull %0)
  ret void

3:                                                ; preds = %1
  %4 = landingpad { ptr, i32 }
          cleanup
  invoke void @_ZN11xercesc_2_57XMemorydlEPv(ptr noundef nonnull %0)
          to label %5 unwind label %6

5:                                                ; preds = %3
  resume { ptr, i32 } %4

6:                                                ; preds = %3
  %7 = landingpad { ptr, i32 }
          catch ptr null
  %8 = extractvalue { ptr, i32 } %7, 0
  tail call void @__clang_call_terminate(ptr %8) #12
  unreachable
}

declare void @_ZN11xercesc_2_513XMLEntityDeclD2Ev(ptr noundef nonnull align 8 dereferenceable(72)) unnamed_addr #1

; Function Attrs: inlinehint uwtable
define linkonce_odr dso_local void @_ZN11xercesc_2_515ContentSpecNodeD0Ev(ptr noundef nonnull align 8 dereferenceable(64) %0) unnamed_addr #2 comdat align 2 personality ptr @__gxx_personality_v0 {
  store ptr getelementptr inbounds ({ [7 x ptr] }, ptr @_ZTVN11xercesc_2_515ContentSpecNodeE, i64 0, inrange i32 0, i64 2), ptr %0, align 8, !tbaa !48
  %2 = getelementptr inbounds %"class.xercesc_2_5::ContentSpecNode", ptr %0, i64 0, i32 7
  %3 = load i8, ptr %2, align 4, !tbaa !51, !range !59, !noundef !60
  %4 = icmp eq i8 %3, 0
  br i1 %4, label %13, label %5

5:                                                ; preds = %1
  %6 = getelementptr inbounds %"class.xercesc_2_5::ContentSpecNode", ptr %0, i64 0, i32 4
  %7 = load ptr, ptr %6, align 8, !tbaa !61
  %8 = icmp eq ptr %7, null
  br i1 %8, label %13, label %9

9:                                                ; preds = %5
  %10 = load ptr, ptr %7, align 8, !tbaa !48
  %11 = getelementptr inbounds ptr, ptr %10, i64 1
  %12 = load ptr, ptr %11, align 8
  invoke void %12(ptr noundef nonnull align 8 dereferenceable(64) %7)
          to label %13 unwind label %34

13:                                               ; preds = %9, %5, %1
  %14 = getelementptr inbounds %"class.xercesc_2_5::ContentSpecNode", ptr %0, i64 0, i32 8
  %15 = load i8, ptr %14, align 1, !tbaa !62, !range !59, !noundef !60
  %16 = icmp eq i8 %15, 0
  br i1 %16, label %25, label %17

17:                                               ; preds = %13
  %18 = getelementptr inbounds %"class.xercesc_2_5::ContentSpecNode", ptr %0, i64 0, i32 5
  %19 = load ptr, ptr %18, align 8, !tbaa !63
  %20 = icmp eq ptr %19, null
  br i1 %20, label %25, label %21

21:                                               ; preds = %17
  %22 = load ptr, ptr %19, align 8, !tbaa !48
  %23 = getelementptr inbounds ptr, ptr %22, i64 1
  %24 = load ptr, ptr %23, align 8
  invoke void %24(ptr noundef nonnull align 8 dereferenceable(64) %19)
          to label %25 unwind label %34

25:                                               ; preds = %21, %17, %13
  %26 = getelementptr inbounds %"class.xercesc_2_5::ContentSpecNode", ptr %0, i64 0, i32 2
  %27 = load ptr, ptr %26, align 8, !tbaa !64
  %28 = icmp eq ptr %27, null
  br i1 %28, label %33, label %29

29:                                               ; preds = %25
  %30 = load ptr, ptr %27, align 8, !tbaa !48
  %31 = getelementptr inbounds ptr, ptr %30, i64 1
  %32 = load ptr, ptr %31, align 8
  invoke void %32(ptr noundef nonnull align 8 dereferenceable(64) %27)
          to label %33 unwind label %34

33:                                               ; preds = %25, %29
  tail call void @_ZN11xercesc_2_57XMemorydlEPv(ptr noundef nonnull %0)
  ret void

34:                                               ; preds = %29, %21, %9
  %35 = landingpad { ptr, i32 }
          cleanup
  invoke void @_ZN11xercesc_2_57XMemorydlEPv(ptr noundef nonnull %0)
          to label %36 unwind label %37

36:                                               ; preds = %34
  resume { ptr, i32 } %35

37:                                               ; preds = %34
  %38 = landingpad { ptr, i32 }
          catch ptr null
  %39 = extractvalue { ptr, i32 } %38, 0
  tail call void @__clang_call_terminate(ptr %39) #12
  unreachable
}

; Function Attrs: inlinehint uwtable
define linkonce_odr dso_local void @_ZN11xercesc_2_515ContentSpecNodeD2Ev(ptr noundef nonnull align 8 dereferenceable(64) %0) unnamed_addr #2 comdat align 2 personality ptr @__gxx_personality_v0 {
  store ptr getelementptr inbounds ({ [7 x ptr] }, ptr @_ZTVN11xercesc_2_515ContentSpecNodeE, i64 0, inrange i32 0, i64 2), ptr %0, align 8, !tbaa !48
  %2 = getelementptr inbounds %"class.xercesc_2_5::ContentSpecNode", ptr %0, i64 0, i32 7
  %3 = load i8, ptr %2, align 4, !tbaa !51, !range !59, !noundef !60
  %4 = icmp eq i8 %3, 0
  br i1 %4, label %13, label %5

5:                                                ; preds = %1
  %6 = getelementptr inbounds %"class.xercesc_2_5::ContentSpecNode", ptr %0, i64 0, i32 4
  %7 = load ptr, ptr %6, align 8, !tbaa !61
  %8 = icmp eq ptr %7, null
  br i1 %8, label %13, label %9

9:                                                ; preds = %5
  %10 = load ptr, ptr %7, align 8, !tbaa !48
  %11 = getelementptr inbounds ptr, ptr %10, i64 1
  %12 = load ptr, ptr %11, align 8
  tail call void %12(ptr noundef nonnull align 8 dereferenceable(64) %7)
  br label %13

13:                                               ; preds = %9, %5, %1
  %14 = getelementptr inbounds %"class.xercesc_2_5::ContentSpecNode", ptr %0, i64 0, i32 8
  %15 = load i8, ptr %14, align 1, !tbaa !62, !range !59, !noundef !60
  %16 = icmp eq i8 %15, 0
  br i1 %16, label %25, label %17

17:                                               ; preds = %13
  %18 = getelementptr inbounds %"class.xercesc_2_5::ContentSpecNode", ptr %0, i64 0, i32 5
  %19 = load ptr, ptr %18, align 8, !tbaa !63
  %20 = icmp eq ptr %19, null
  br i1 %20, label %25, label %21

21:                                               ; preds = %17
  %22 = load ptr, ptr %19, align 8, !tbaa !48
  %23 = getelementptr inbounds ptr, ptr %22, i64 1
  %24 = load ptr, ptr %23, align 8
  tail call void %24(ptr noundef nonnull align 8 dereferenceable(64) %19)
  br label %25

25:                                               ; preds = %21, %17, %13
  %26 = getelementptr inbounds %"class.xercesc_2_5::ContentSpecNode", ptr %0, i64 0, i32 2
  %27 = load ptr, ptr %26, align 8, !tbaa !64
  %28 = icmp eq ptr %27, null
  br i1 %28, label %33, label %29

29:                                               ; preds = %25
  %30 = load ptr, ptr %27, align 8, !tbaa !48
  %31 = getelementptr inbounds ptr, ptr %30, i64 1
  %32 = load ptr, ptr %31, align 8
  tail call void %32(ptr noundef nonnull align 8 dereferenceable(64) %27)
  br label %33

33:                                               ; preds = %29, %25
  ret void
}

; Function Attrs: uwtable
define dso_local void @_ZN11xercesc_2_510DTDScannerC2EPNS_10DTDGrammarEPNS_14DocTypeHandlerEPNS_13MemoryManagerES6_(ptr nocapture noundef nonnull align 8 dereferenceable(112) %0, ptr noundef %1, ptr noundef %2, ptr noundef %3, ptr noundef %4) unnamed_addr #3 align 2 personality ptr @__gxx_personality_v0 {
  store ptr getelementptr inbounds ({ [4 x ptr] }, ptr @_ZTVN11xercesc_2_510DTDScannerE, i64 0, inrange i32 0, i64 2), ptr %0, align 8, !tbaa !48
  %6 = getelementptr inbounds %"class.xercesc_2_5::DTDScanner", ptr %0, i64 0, i32 1
  store ptr %4, ptr %6, align 8, !tbaa !65
  %7 = getelementptr inbounds %"class.xercesc_2_5::DTDScanner", ptr %0, i64 0, i32 2
  store ptr %3, ptr %7, align 8, !tbaa !67
  %8 = getelementptr inbounds %"class.xercesc_2_5::DTDScanner", ptr %0, i64 0, i32 3
  store ptr %2, ptr %8, align 8, !tbaa !68
  %9 = getelementptr inbounds %"class.xercesc_2_5::DTDScanner", ptr %0, i64 0, i32 4
  %10 = getelementptr inbounds %"class.xercesc_2_5::DTDScanner", ptr %0, i64 0, i32 8
  tail call void @llvm.memset.p0.i64(ptr noundef nonnull align 8 dereferenceable(25) %9, i8 0, i64 25, i1 false)
  store i32 1, ptr %10, align 4, !tbaa !69
  %11 = getelementptr inbounds %"class.xercesc_2_5::DTDScanner", ptr %0, i64 0, i32 9
  store ptr %1, ptr %11, align 8, !tbaa !70
  %12 = getelementptr inbounds %"class.xercesc_2_5::DTDScanner", ptr %0, i64 0, i32 10
  tail call void @llvm.memset.p0.i64(ptr noundef nonnull align 8 dereferenceable(40) %12, i8 0, i64 40, i1 false)
  %13 = tail call noundef ptr @_ZN11xercesc_2_57XMemorynwEmPNS_13MemoryManagerE(i64 noundef 40, ptr noundef %4)
  %14 = load ptr, ptr %6, align 8, !tbaa !65
  store ptr %14, ptr %13, align 8, !tbaa !71
  %15 = getelementptr inbounds %"class.xercesc_2_5::NameIdPool", ptr %13, i64 0, i32 1
  %16 = getelementptr inbounds %"class.xercesc_2_5::NameIdPool", ptr %13, i64 0, i32 3
  tail call void @llvm.memset.p0.i64(ptr noundef nonnull align 8 dereferenceable(16) %15, i8 0, i64 16, i1 false)
  store i32 128, ptr %16, align 8, !tbaa !73
  %17 = getelementptr inbounds %"class.xercesc_2_5::NameIdPool", ptr %13, i64 0, i32 4
  store i32 0, ptr %17, align 4, !tbaa !74
  %18 = getelementptr inbounds %"class.xercesc_2_5::NameIdPool", ptr %13, i64 0, i32 5
  store i32 109, ptr %18, align 8, !tbaa !75
  %19 = load ptr, ptr %14, align 8, !tbaa !48
  %20 = getelementptr inbounds ptr, ptr %19, i64 2
  %21 = load ptr, ptr %20, align 8
  %22 = invoke noundef ptr %21(ptr noundef nonnull align 8 dereferenceable(8) %14, i64 noundef 872)
          to label %23 unwind label %50

23:                                               ; preds = %5
  store ptr %22, ptr %15, align 8, !tbaa !76
  %24 = load i32, ptr %18, align 8, !tbaa !75
  %25 = icmp eq i32 %24, 0
  br i1 %25, label %28, label %26

26:                                               ; preds = %23
  %27 = zext i32 %24 to i64
  br label %31

28:                                               ; preds = %31, %23
  %29 = load i32, ptr %16, align 8, !tbaa !73
  %30 = icmp eq i32 %29, 0
  br i1 %30, label %37, label %38

31:                                               ; preds = %31, %26
  %32 = phi i64 [ 0, %26 ], [ %35, %31 ]
  %33 = load ptr, ptr %15, align 8, !tbaa !76
  %34 = getelementptr inbounds ptr, ptr %33, i64 %32
  store ptr null, ptr %34, align 8, !tbaa !77
  %35 = add nuw nsw i64 %32, 1
  %36 = icmp eq i64 %35, %27
  br i1 %36, label %28, label %31

37:                                               ; preds = %28
  store i32 256, ptr %16, align 8, !tbaa !73
  br label %38

38:                                               ; preds = %37, %28
  %39 = phi i32 [ 256, %37 ], [ %29, %28 ]
  %40 = load ptr, ptr %13, align 8, !tbaa !71
  %41 = zext i32 %39 to i64
  %42 = shl nuw nsw i64 %41, 3
  %43 = load ptr, ptr %40, align 8, !tbaa !48
  %44 = getelementptr inbounds ptr, ptr %43, i64 2
  %45 = load ptr, ptr %44, align 8
  %46 = invoke noundef ptr %45(ptr noundef nonnull align 8 dereferenceable(8) %40, i64 noundef %42)
          to label %47 unwind label %50

47:                                               ; preds = %38
  %48 = getelementptr inbounds %"class.xercesc_2_5::DTDScanner", ptr %0, i64 0, i32 13
  %49 = getelementptr inbounds %"class.xercesc_2_5::NameIdPool", ptr %13, i64 0, i32 2
  store ptr %46, ptr %49, align 8, !tbaa !78
  store ptr null, ptr %46, align 8, !tbaa !77
  store ptr %13, ptr %48, align 8, !tbaa !79
  ret void

50:                                               ; preds = %38, %5
  %51 = landingpad { ptr, i32 }
          cleanup
  invoke void @_ZN11xercesc_2_57XMemorydlEPvPNS_13MemoryManagerE(ptr noundef nonnull %13, ptr noundef %4)
          to label %52 unwind label %53

52:                                               ; preds = %50
  resume { ptr, i32 } %51

53:                                               ; preds = %50
  %54 = landingpad { ptr, i32 }
          catch ptr null
  %55 = extractvalue { ptr, i32 } %54, 0
  tail call void @__clang_call_terminate(ptr %55) #12
  unreachable
}

declare noundef ptr @_ZN11xercesc_2_57XMemorynwEmPNS_13MemoryManagerE(i64 noundef, ptr noundef) local_unnamed_addr #1

declare void @_ZN11xercesc_2_57XMemorydlEPvPNS_13MemoryManagerE(ptr noundef, ptr noundef) local_unnamed_addr #1

; Function Attrs: uwtable
define dso_local void @_ZN11xercesc_2_510DTDScannerD2Ev(ptr nocapture noundef nonnull align 8 dereferenceable(112) %0) unnamed_addr #3 align 2 personality ptr @__gxx_personality_v0 {
  store ptr getelementptr inbounds ({ [4 x ptr] }, ptr @_ZTVN11xercesc_2_510DTDScannerE, i64 0, inrange i32 0, i64 2), ptr %0, align 8, !tbaa !48
  %2 = getelementptr inbounds %"class.xercesc_2_5::DTDScanner", ptr %0, i64 0, i32 4
  %3 = load ptr, ptr %2, align 8, !tbaa !80
  %4 = icmp eq ptr %3, null
  br i1 %4, label %9, label %5

5:                                                ; preds = %1
  %6 = load ptr, ptr %3, align 8, !tbaa !48
  %7 = getelementptr inbounds ptr, ptr %6, i64 1
  %8 = load ptr, ptr %7, align 8
  tail call void %8(ptr noundef nonnull align 8 dereferenceable(72) %3)
  br label %9

9:                                                ; preds = %5, %1
  %10 = getelementptr inbounds %"class.xercesc_2_5::DTDScanner", ptr %0, i64 0, i32 5
  %11 = load ptr, ptr %10, align 8, !tbaa !81
  %12 = icmp eq ptr %11, null
  br i1 %12, label %17, label %13

13:                                               ; preds = %9
  %14 = load ptr, ptr %11, align 8, !tbaa !48
  %15 = getelementptr inbounds ptr, ptr %14, i64 1
  %16 = load ptr, ptr %15, align 8
  tail call void %16(ptr noundef nonnull align 8 dereferenceable(88) %11)
  br label %17

17:                                               ; preds = %13, %9
  %18 = getelementptr inbounds %"class.xercesc_2_5::DTDScanner", ptr %0, i64 0, i32 6
  %19 = load ptr, ptr %18, align 8, !tbaa !82
  %20 = icmp eq ptr %19, null
  br i1 %20, label %25, label %21

21:                                               ; preds = %17
  %22 = load ptr, ptr %19, align 8, !tbaa !48
  %23 = getelementptr inbounds ptr, ptr %22, i64 1
  %24 = load ptr, ptr %23, align 8
  tail call void %24(ptr noundef nonnull align 8 dereferenceable(75) %19)
  br label %25

25:                                               ; preds = %21, %17
  %26 = getelementptr inbounds %"class.xercesc_2_5::DTDScanner", ptr %0, i64 0, i32 13
  %27 = load ptr, ptr %26, align 8, !tbaa !79
  %28 = icmp eq ptr %27, null
  br i1 %28, label %81, label %29

29:                                               ; preds = %25
  %30 = load ptr, ptr %27, align 8, !tbaa !71
  %31 = getelementptr inbounds %"class.xercesc_2_5::NameIdPool", ptr %27, i64 0, i32 2
  %32 = load ptr, ptr %31, align 8, !tbaa !78
  %33 = load ptr, ptr %30, align 8, !tbaa !48
  %34 = getelementptr inbounds ptr, ptr %33, i64 3
  %35 = load ptr, ptr %34, align 8
  invoke void %35(ptr noundef nonnull align 8 dereferenceable(8) %30, ptr noundef %32)
          to label %36 unwind label %84

36:                                               ; preds = %29
  %37 = getelementptr inbounds %"class.xercesc_2_5::NameIdPool", ptr %27, i64 0, i32 5
  %38 = load i32, ptr %37, align 8, !tbaa !75
  %39 = icmp eq i32 %38, 0
  br i1 %39, label %72, label %40

40:                                               ; preds = %36
  %41 = getelementptr inbounds %"class.xercesc_2_5::NameIdPool", ptr %27, i64 0, i32 1
  br label %42

42:                                               ; preds = %65, %40
  %43 = phi i32 [ %38, %40 ], [ %66, %65 ]
  %44 = phi i64 [ 0, %40 ], [ %69, %65 ]
  %45 = load ptr, ptr %41, align 8, !tbaa !76
  %46 = getelementptr inbounds ptr, ptr %45, i64 %44
  %47 = load ptr, ptr %46, align 8, !tbaa !77
  %48 = icmp eq ptr %47, null
  br i1 %48, label %65, label %49

49:                                               ; preds = %42, %60
  %50 = phi ptr [ %52, %60 ], [ %47, %42 ]
  %51 = getelementptr inbounds %"struct.xercesc_2_5::NameIdPoolBucketElem", ptr %50, i64 0, i32 1
  %52 = load ptr, ptr %51, align 8, !tbaa !83
  %53 = load ptr, ptr %50, align 8, !tbaa !85
  %54 = icmp eq ptr %53, null
  br i1 %54, label %59, label %55

55:                                               ; preds = %49
  %56 = load ptr, ptr %53, align 8, !tbaa !48
  %57 = getelementptr inbounds ptr, ptr %56, i64 1
  %58 = load ptr, ptr %57, align 8
  invoke void %58(ptr noundef nonnull align 8 dereferenceable(75) %53)
          to label %59 unwind label %82

59:                                               ; preds = %55, %49
  invoke void @_ZN11xercesc_2_57XMemorydlEPv(ptr noundef nonnull %50)
          to label %60 unwind label %82

60:                                               ; preds = %59
  %61 = icmp eq ptr %52, null
  br i1 %61, label %62, label %49

62:                                               ; preds = %60
  %63 = load ptr, ptr %41, align 8, !tbaa !76
  %64 = load i32, ptr %37, align 8, !tbaa !75
  br label %65

65:                                               ; preds = %62, %42
  %66 = phi i32 [ %64, %62 ], [ %43, %42 ]
  %67 = phi ptr [ %63, %62 ], [ %45, %42 ]
  %68 = getelementptr inbounds ptr, ptr %67, i64 %44
  store ptr null, ptr %68, align 8, !tbaa !77
  %69 = add nuw nsw i64 %44, 1
  %70 = zext i32 %66 to i64
  %71 = icmp ult i64 %69, %70
  br i1 %71, label %42, label %72

72:                                               ; preds = %65, %36
  %73 = getelementptr inbounds %"class.xercesc_2_5::NameIdPool", ptr %27, i64 0, i32 4
  store i32 0, ptr %73, align 4, !tbaa !74
  %74 = load ptr, ptr %27, align 8, !tbaa !71
  %75 = getelementptr inbounds %"class.xercesc_2_5::NameIdPool", ptr %27, i64 0, i32 1
  %76 = load ptr, ptr %75, align 8, !tbaa !76
  %77 = load ptr, ptr %74, align 8, !tbaa !48
  %78 = getelementptr inbounds ptr, ptr %77, i64 3
  %79 = load ptr, ptr %78, align 8
  invoke void %79(ptr noundef nonnull align 8 dereferenceable(8) %74, ptr noundef %76)
          to label %80 unwind label %84

80:                                               ; preds = %72
  tail call void @_ZN11xercesc_2_57XMemorydlEPv(ptr noundef nonnull %27)
  br label %81

81:                                               ; preds = %80, %25
  ret void

82:                                               ; preds = %55, %59
  %83 = landingpad { ptr, i32 }
          cleanup
  br label %86

84:                                               ; preds = %29, %72
  %85 = landingpad { ptr, i32 }
          cleanup
  br label %86

86:                                               ; preds = %84, %82
  %87 = phi { ptr, i32 } [ %83, %82 ], [ %85, %84 ]
  invoke void @_ZN11xercesc_2_57XMemorydlEPv(ptr noundef nonnull %27)
          to label %88 unwind label %89

88:                                               ; preds = %86
  resume { ptr, i32 } %87

89:                                               ; preds = %86
  %90 = landingpad { ptr, i32 }
          catch ptr null
  %91 = extractvalue { ptr, i32 } %90, 0
  tail call void @__clang_call_terminate(ptr %91) #12
  unreachable
}

; Function Attrs: uwtable
define dso_local void @_ZN11xercesc_2_510DTDScannerD0Ev(ptr noundef nonnull align 8 dereferenceable(112) %0) unnamed_addr #3 align 2 personality ptr @__gxx_personality_v0 {
  invoke void @_ZN11xercesc_2_510DTDScannerD2Ev(ptr noundef nonnull align 8 dereferenceable(112) %0)
          to label %2 unwind label %3

2:                                                ; preds = %1
  tail call void @_ZN11xercesc_2_57XMemorydlEPv(ptr noundef nonnull %0)
  ret void

3:                                                ; preds = %1
  %4 = landingpad { ptr, i32 }
          cleanup
  invoke void @_ZN11xercesc_2_57XMemorydlEPv(ptr noundef nonnull %0)
          to label %5 unwind label %6

5:                                                ; preds = %3
  resume { ptr, i32 } %4

6:                                                ; preds = %3
  %7 = landingpad { ptr, i32 }
          catch ptr null
  %8 = extractvalue { ptr, i32 } %7, 0
  tail call void @__clang_call_terminate(ptr %8) #12
  unreachable
}

; Function Attrs: mustprogress nofree norecurse nosync nounwind willreturn memory(read, argmem: readwrite, inaccessiblemem: none) uwtable
define dso_local void @_ZN11xercesc_2_510DTDScanner14setScannerInfoEPNS_10XMLScannerEPNS_9ReaderMgrEPNS_12XMLBufferMgrE(ptr nocapture noundef nonnull writeonly align 8 dereferenceable(112) %0, ptr noundef %1, ptr noundef %2, ptr noundef %3) local_unnamed_addr #4 align 2 {
  %5 = getelementptr inbounds %"class.xercesc_2_5::DTDScanner", ptr %0, i64 0, i32 12
  store ptr %1, ptr %5, align 8, !tbaa !86
  %6 = getelementptr inbounds %"class.xercesc_2_5::DTDScanner", ptr %0, i64 0, i32 11
  store ptr %2, ptr %6, align 8, !tbaa !87
  %7 = getelementptr inbounds %"class.xercesc_2_5::DTDScanner", ptr %0, i64 0, i32 10
  store ptr %3, ptr %7, align 8, !tbaa !88
  %8 = getelementptr inbounds %"class.xercesc_2_5::XMLScanner", ptr %1, i64 0, i32 3
  %9 = load i8, ptr %8, align 2, !tbaa !89, !range !59, !noundef !60
  %10 = icmp eq i8 %9, 0
  br i1 %10, label %14, label %11

11:                                               ; preds = %4
  %12 = getelementptr inbounds %"class.xercesc_2_5::XMLScanner", ptr %1, i64 0, i32 20
  %13 = load i32, ptr %12, align 4, !tbaa !99
  br label %14

14:                                               ; preds = %4, %11
  %15 = phi i32 [ %13, %11 ], [ 0, %4 ]
  %16 = getelementptr inbounds %"class.xercesc_2_5::DTDScanner", ptr %0, i64 0, i32 14
  store i32 %15, ptr %16, align 8
  %17 = getelementptr inbounds %"class.xercesc_2_5::ReaderMgr", ptr %2, i64 0, i32 2
  %18 = load ptr, ptr %17, align 8, !tbaa !100
  %19 = getelementptr inbounds %"class.xercesc_2_5::XMLReader", ptr %18, i64 0, i32 14
  %20 = load i32, ptr %19, align 8, !tbaa !101
  %21 = getelementptr inbounds %"class.xercesc_2_5::DTDScanner", ptr %0, i64 0, i32 15
  store i32 %20, ptr %21, align 4, !tbaa !108
  ret void
}

; Function Attrs: uwtable
define dso_local noundef zeroext i1 @_ZN11xercesc_2_510DTDScanner13checkForPERefEbb(ptr nocapture noundef nonnull align 8 dereferenceable(112) %0, i1 noundef zeroext %1, i1 noundef zeroext %2) local_unnamed_addr #3 align 2 {
  %4 = getelementptr inbounds %"class.xercesc_2_5::DTDScanner", ptr %0, i64 0, i32 11
  %5 = load ptr, ptr %4, align 8, !tbaa !87
  %6 = tail call noundef zeroext i1 @_ZN11xercesc_2_59ReaderMgr12skippedSpaceEv(ptr noundef nonnull align 8 dereferenceable(80) %5)
  br i1 %6, label %7, label %10

7:                                                ; preds = %3
  %8 = load ptr, ptr %4, align 8, !tbaa !87
  %9 = tail call noundef zeroext i1 @_ZN11xercesc_2_59ReaderMgr14skipPastSpacesEv(ptr noundef nonnull align 8 dereferenceable(80) %8)
  br label %10

10:                                               ; preds = %7, %3
  %11 = phi i8 [ 1, %7 ], [ 0, %3 ]
  %12 = load ptr, ptr %4, align 8, !tbaa !87
  %13 = tail call noundef zeroext i1 @_ZN11xercesc_2_59ReaderMgr11skippedCharEt(ptr noundef nonnull align 8 dereferenceable(80) %12, i16 noundef zeroext 37)
  br i1 %13, label %14, label %34

14:                                               ; preds = %10
  %15 = getelementptr inbounds %"class.xercesc_2_5::DTDScanner", ptr %0, i64 0, i32 12
  br label %16

16:                                               ; preds = %14, %27
  %17 = phi i8 [ %28, %27 ], [ %11, %14 ]
  %18 = tail call noundef zeroext i1 @_ZN11xercesc_2_510DTDScanner11expandPERefEbbbb(ptr noundef nonnull align 8 dereferenceable(112) %0, i1 noundef zeroext false, i1 noundef zeroext %1, i1 noundef zeroext %2, i1 noundef zeroext false)
  br i1 %18, label %21, label %19

19:                                               ; preds = %16
  %20 = load ptr, ptr %15, align 8, !tbaa !86
  tail call void @_ZN11xercesc_2_510XMLScanner9emitErrorENS_7XMLErrs5CodesE(ptr noundef nonnull align 8 dereferenceable(664) %20, i32 noundef 226)
  br label %21

21:                                               ; preds = %19, %16
  %22 = load ptr, ptr %4, align 8, !tbaa !87
  %23 = tail call noundef zeroext i1 @_ZN11xercesc_2_59ReaderMgr12skippedSpaceEv(ptr noundef nonnull align 8 dereferenceable(80) %22)
  br i1 %23, label %24, label %27

24:                                               ; preds = %21
  %25 = load ptr, ptr %4, align 8, !tbaa !87
  %26 = tail call noundef zeroext i1 @_ZN11xercesc_2_59ReaderMgr14skipPastSpacesEv(ptr noundef nonnull align 8 dereferenceable(80) %25)
  br label %27

27:                                               ; preds = %24, %21
  %28 = phi i8 [ 1, %24 ], [ %17, %21 ]
  %29 = load ptr, ptr %4, align 8, !tbaa !87
  %30 = tail call noundef zeroext i1 @_ZN11xercesc_2_59ReaderMgr11skippedCharEt(ptr noundef nonnull align 8 dereferenceable(80) %29, i16 noundef zeroext 37)
  br i1 %30, label %16, label %31

31:                                               ; preds = %27
  %32 = and i8 %28, 1
  %33 = icmp ne i8 %32, 0
  br label %34

34:                                               ; preds = %10, %31
  %35 = phi i1 [ %33, %31 ], [ %6, %10 ]
  ret i1 %35
}

; Function Attrs: mustprogress nocallback nofree nosync nounwind willreturn memory(argmem: readwrite)
declare void @llvm.lifetime.start.p0(i64 immarg, ptr nocapture) #5

declare noundef zeroext i1 @_ZN11xercesc_2_59ReaderMgr12skippedSpaceEv(ptr noundef nonnull align 8 dereferenceable(80)) local_unnamed_addr #1

declare noundef zeroext i1 @_ZN11xercesc_2_59ReaderMgr14skipPastSpacesEv(ptr noundef nonnull align 8 dereferenceable(80)) local_unnamed_addr #1

declare noundef zeroext i1 @_ZN11xercesc_2_59ReaderMgr11skippedCharEt(ptr noundef nonnull align 8 dereferenceable(80), i16 noundef zeroext) local_unnamed_addr #1

; Function Attrs: uwtable
define dso_local noundef zeroext i1 @_ZN11xercesc_2_510DTDScanner11expandPERefEbbbb(ptr nocapture noundef nonnull align 8 dereferenceable(112) %0, i1 noundef zeroext %1, i1 noundef zeroext %2, i1 noundef zeroext %3, i1 noundef zeroext %4) local_unnamed_addr #3 align 2 personality ptr @__gxx_personality_v0 {
  %6 = alloca i32, align 4
  %7 = alloca ptr, align 8
  %8 = getelementptr inbounds %"class.xercesc_2_5::DTDScanner", ptr %0, i64 0, i32 12
  %9 = load ptr, ptr %8, align 8, !tbaa !86
  %10 = getelementptr inbounds %"class.xercesc_2_5::XMLScanner", ptr %9, i64 0, i32 8
  store i8 0, ptr %10, align 1, !tbaa !109
  %11 = getelementptr inbounds %"class.xercesc_2_5::DTDScanner", ptr %0, i64 0, i32 10
  %12 = load ptr, ptr %11, align 8, !tbaa !88
  %13 = tail call noundef nonnull align 8 dereferenceable(32) ptr @_ZN11xercesc_2_512XMLBufferMgr11bidOnBufferEv(ptr noundef nonnull align 8 dereferenceable(24) %12)
  %14 = getelementptr inbounds %"class.xercesc_2_5::DTDScanner", ptr %0, i64 0, i32 7
  %15 = load i8, ptr %14, align 8, !tbaa !110, !range !59, !noundef !60
  %16 = icmp ne i8 %15, 0
  %17 = and i1 %16, %3
  br i1 %17, label %18, label %22

18:                                               ; preds = %5
  %19 = load ptr, ptr %8, align 8, !tbaa !86
  invoke void @_ZN11xercesc_2_510XMLScanner9emitErrorENS_7XMLErrs5CodesE(ptr noundef nonnull align 8 dereferenceable(664) %19, i32 noundef 258)
          to label %22 unwind label %20

20:                                               ; preds = %22, %41, %37, %34, %32, %18
  %21 = landingpad { ptr, i32 }
          cleanup
  br label %244

22:                                               ; preds = %5, %18
  %23 = getelementptr inbounds %"class.xercesc_2_5::DTDScanner", ptr %0, i64 0, i32 11
  %24 = load ptr, ptr %23, align 8, !tbaa !87
  %25 = getelementptr inbounds %"class.xercesc_2_5::XMLBuffer", ptr %13, i64 0, i32 1
  store i32 0, ptr %25, align 4, !tbaa !111
  %26 = getelementptr inbounds %"class.xercesc_2_5::XMLBuffer", ptr %13, i64 0, i32 4
  %27 = load ptr, ptr %26, align 8, !tbaa !112
  store i16 0, ptr %27, align 2, !tbaa !113
  %28 = getelementptr inbounds %"class.xercesc_2_5::ReaderMgr", ptr %24, i64 0, i32 2
  %29 = load ptr, ptr %28, align 8, !tbaa !100
  %30 = invoke noundef zeroext i1 @_ZN11xercesc_2_59XMLReader7getNameERNS_9XMLBufferEb(ptr noundef nonnull align 8 dereferenceable(98456) %29, ptr noundef nonnull align 8 dereferenceable(32) %13, i1 noundef zeroext false)
          to label %31 unwind label %20

31:                                               ; preds = %22
  br i1 %30, label %37, label %32

32:                                               ; preds = %31
  %33 = load ptr, ptr %8, align 8, !tbaa !86
  invoke void @_ZN11xercesc_2_510XMLScanner9emitErrorENS_7XMLErrs5CodesE(ptr noundef nonnull align 8 dereferenceable(664) %33, i32 noundef 222)
          to label %34 unwind label %20

34:                                               ; preds = %32
  %35 = load ptr, ptr %23, align 8, !tbaa !87
  %36 = invoke noundef zeroext i1 @_ZN11xercesc_2_59ReaderMgr11skippedCharEt(ptr noundef nonnull align 8 dereferenceable(80) %35, i16 noundef zeroext 59)
          to label %242 unwind label %20

37:                                               ; preds = %31
  %38 = load ptr, ptr %23, align 8, !tbaa !87
  %39 = invoke noundef zeroext i1 @_ZN11xercesc_2_59ReaderMgr11skippedCharEt(ptr noundef nonnull align 8 dereferenceable(80) %38, i16 noundef zeroext 59)
          to label %40 unwind label %20

40:                                               ; preds = %37
  br i1 %39, label %47, label %41

41:                                               ; preds = %40
  %42 = load ptr, ptr %8, align 8, !tbaa !86
  %43 = load ptr, ptr %26, align 8, !tbaa !112
  %44 = load i32, ptr %25, align 4, !tbaa !111
  %45 = zext i32 %44 to i64
  %46 = getelementptr inbounds i16, ptr %43, i64 %45
  store i16 0, ptr %46, align 2, !tbaa !113
  invoke void @_ZN11xercesc_2_510XMLScanner9emitErrorENS_7XMLErrs5CodesEPKtS4_S4_S4_(ptr noundef nonnull align 8 dereferenceable(664) %42, i32 noundef 229, ptr noundef nonnull %43, ptr noundef null, ptr noundef null, ptr noundef null)
          to label %47 unwind label %20

47:                                               ; preds = %41, %40
  %48 = getelementptr inbounds %"class.xercesc_2_5::DTDScanner", ptr %0, i64 0, i32 13
  %49 = load ptr, ptr %48, align 8, !tbaa !79
  %50 = load ptr, ptr %26, align 8, !tbaa !112
  %51 = load i32, ptr %25, align 4, !tbaa !111
  %52 = zext i32 %51 to i64
  %53 = getelementptr inbounds i16, ptr %50, i64 %52
  store i16 0, ptr %53, align 2, !tbaa !113
  call void @llvm.lifetime.start.p0(i64 4, ptr nonnull %6) #11
  %54 = invoke noundef ptr @_ZN11xercesc_2_510NameIdPoolINS_13DTDEntityDeclEE14findBucketElemEPKtRj(ptr noundef nonnull align 8 dereferenceable(36) %49, ptr noundef nonnull %50, ptr noundef nonnull align 4 dereferenceable(4) %6)
          to label %55 unwind label %71

55:                                               ; preds = %47
  %56 = icmp eq ptr %54, null
  br i1 %56, label %57, label %58

57:                                               ; preds = %55
  call void @llvm.lifetime.end.p0(i64 4, ptr nonnull %6) #11
  br label %61

58:                                               ; preds = %55
  %59 = load ptr, ptr %54, align 8, !tbaa !85
  call void @llvm.lifetime.end.p0(i64 4, ptr nonnull %6) #11
  %60 = icmp eq ptr %59, null
  br i1 %60, label %61, label %84

61:                                               ; preds = %57, %58
  %62 = load ptr, ptr %8, align 8, !tbaa !86
  %63 = getelementptr inbounds %"class.xercesc_2_5::XMLScanner", ptr %62, i64 0, i32 7
  %64 = load i8, ptr %63, align 2, !tbaa !115, !range !59, !noundef !60
  %65 = icmp eq i8 %64, 0
  br i1 %65, label %73, label %66

66:                                               ; preds = %61
  %67 = load ptr, ptr %26, align 8, !tbaa !112
  %68 = load i32, ptr %25, align 4, !tbaa !111
  %69 = zext i32 %68 to i64
  %70 = getelementptr inbounds i16, ptr %67, i64 %69
  store i16 0, ptr %70, align 2, !tbaa !113
  invoke void @_ZN11xercesc_2_510XMLScanner9emitErrorENS_7XMLErrs5CodesEPKtS4_S4_S4_(ptr noundef nonnull align 8 dereferenceable(664) %62, i32 noundef 227, ptr noundef nonnull %67, ptr noundef null, ptr noundef null, ptr noundef null)
          to label %242 unwind label %71

71:                                               ; preds = %47, %99, %93, %77, %66
  %72 = landingpad { ptr, i32 }
          cleanup
  br label %244

73:                                               ; preds = %61
  %74 = getelementptr inbounds %"class.xercesc_2_5::XMLScanner", ptr %62, i64 0, i32 9
  %75 = load i8, ptr %74, align 8, !tbaa !116, !range !59, !noundef !60
  %76 = icmp eq i8 %75, 0
  br i1 %76, label %242, label %77

77:                                               ; preds = %73
  %78 = getelementptr inbounds %"class.xercesc_2_5::XMLScanner", ptr %62, i64 0, i32 41
  %79 = load ptr, ptr %78, align 8, !tbaa !117
  %80 = load ptr, ptr %26, align 8, !tbaa !112
  %81 = load i32, ptr %25, align 4, !tbaa !111
  %82 = zext i32 %81 to i64
  %83 = getelementptr inbounds i16, ptr %80, i64 %82
  store i16 0, ptr %83, align 2, !tbaa !113
  invoke void @_ZN11xercesc_2_512XMLValidator9emitErrorENS_8XMLValid5CodesEPKtS4_S4_S4_(ptr noundef nonnull align 8 dereferenceable(40) %79, i32 noundef 85, ptr noundef nonnull %80, ptr noundef null, ptr noundef null, ptr noundef null)
          to label %242 unwind label %71

84:                                               ; preds = %58
  %85 = load ptr, ptr %8, align 8, !tbaa !86
  %86 = getelementptr inbounds %"class.xercesc_2_5::XMLScanner", ptr %85, i64 0, i32 9
  %87 = load i8, ptr %86, align 8, !tbaa !116, !range !59, !noundef !60
  %88 = icmp eq i8 %87, 0
  br i1 %88, label %107, label %89

89:                                               ; preds = %84
  %90 = getelementptr inbounds %"class.xercesc_2_5::XMLScanner", ptr %85, i64 0, i32 7
  %91 = load i8, ptr %90, align 2, !tbaa !115, !range !59, !noundef !60
  %92 = icmp eq i8 %91, 0
  br i1 %92, label %107, label %93

93:                                               ; preds = %89
  %94 = load ptr, ptr %59, align 8, !tbaa !48
  %95 = getelementptr inbounds ptr, ptr %94, i64 5
  %96 = load ptr, ptr %95, align 8
  %97 = invoke noundef zeroext i1 %96(ptr noundef nonnull align 8 dereferenceable(72) %59)
          to label %98 unwind label %71

98:                                               ; preds = %93
  br i1 %97, label %107, label %99

99:                                               ; preds = %98
  %100 = load ptr, ptr %8, align 8, !tbaa !86
  %101 = getelementptr inbounds %"class.xercesc_2_5::XMLScanner", ptr %100, i64 0, i32 41
  %102 = load ptr, ptr %101, align 8, !tbaa !117
  %103 = load ptr, ptr %26, align 8, !tbaa !112
  %104 = load i32, ptr %25, align 4, !tbaa !111
  %105 = zext i32 %104 to i64
  %106 = getelementptr inbounds i16, ptr %103, i64 %105
  store i16 0, ptr %106, align 2, !tbaa !113
  invoke void @_ZN11xercesc_2_512XMLValidator9emitErrorENS_8XMLValid5CodesEPKtS4_S4_S4_(ptr noundef nonnull align 8 dereferenceable(40) %102, i32 noundef 81, ptr noundef nonnull %103, ptr noundef null, ptr noundef null, ptr noundef null)
          to label %107 unwind label %71

107:                                              ; preds = %99, %98, %89, %84
  %108 = getelementptr inbounds %"class.xercesc_2_5::XMLEntityDecl", ptr %59, i64 0, i32 6
  %109 = load ptr, ptr %108, align 8, !tbaa !118
  %110 = icmp ne ptr %109, null
  %111 = getelementptr inbounds %"class.xercesc_2_5::XMLEntityDecl", ptr %59, i64 0, i32 7
  %112 = load ptr, ptr %111, align 8
  %113 = icmp ne ptr %112, null
  %114 = select i1 %110, i1 true, i1 %113
  br i1 %114, label %115, label %221

115:                                              ; preds = %107
  call void @llvm.lifetime.start.p0(i64 8, ptr nonnull %7) #11
  %116 = load ptr, ptr %23, align 8, !tbaa !87
  %117 = getelementptr inbounds %"class.xercesc_2_5::XMLEntityDecl", ptr %59, i64 0, i32 8
  %118 = load ptr, ptr %117, align 8, !tbaa !120
  %119 = xor i1 %2, true
  %120 = zext i1 %119 to i32
  %121 = invoke noundef ptr @_ZN11xercesc_2_59ReaderMgr12createReaderEPKtS2_S2_bNS_9XMLReader7RefFromENS3_5TypesENS3_7SourcesERPNS_11InputSourceEb(ptr noundef nonnull align 8 dereferenceable(80) %116, ptr noundef %118, ptr noundef %112, ptr noundef %109, i1 noundef zeroext false, i32 noundef %120, i32 noundef 0, i32 noundef 1, ptr noundef nonnull align 8 dereferenceable(8) %7, i1 noundef zeroext true)
          to label %122 unwind label %136

122:                                              ; preds = %115
  %123 = load ptr, ptr %7, align 8, !tbaa !77
  %124 = icmp eq ptr %121, null
  br i1 %124, label %125, label %144

125:                                              ; preds = %122
  %126 = call ptr @__cxa_allocate_exception(i64 48) #11
  %127 = load ptr, ptr %7, align 8, !tbaa !77
  %128 = load ptr, ptr %127, align 8, !tbaa !48
  %129 = getelementptr inbounds ptr, ptr %128, i64 5
  %130 = load ptr, ptr %129, align 8
  %131 = invoke noundef ptr %130(ptr noundef nonnull align 8 dereferenceable(41) %127)
          to label %132 unwind label %140

132:                                              ; preds = %125
  %133 = getelementptr inbounds %"class.xercesc_2_5::DTDScanner", ptr %0, i64 0, i32 1
  %134 = load ptr, ptr %133, align 8, !tbaa !65
  invoke void @_ZN11xercesc_2_516RuntimeExceptionC2EPKcjNS_10XMLExcepts5CodesEPKtS6_S6_S6_PNS_13MemoryManagerE(ptr noundef nonnull align 8 dereferenceable(48) %126, ptr noundef nonnull @.str, i32 noundef 496, i32 noundef 46, ptr noundef %131, ptr noundef null, ptr noundef null, ptr noundef null, ptr noundef %134)
          to label %135 unwind label %140

135:                                              ; preds = %132
  invoke void @__cxa_throw(ptr nonnull %126, ptr nonnull @_ZTIN11xercesc_2_516RuntimeExceptionE, ptr nonnull @_ZN11xercesc_2_512XMLExceptionD2Ev) #13
          to label %250 unwind label %142

136:                                              ; preds = %115
  %137 = landingpad { ptr, i32 }
          cleanup
  br label %219

138:                                              ; preds = %207
  %139 = landingpad { ptr, i32 }
          cleanup
  br label %219

140:                                              ; preds = %132, %125
  %141 = landingpad { ptr, i32 }
          cleanup
  call void @__cxa_free_exception(ptr %126) #11
  br label %212

142:                                              ; preds = %204, %201, %151, %144, %135
  %143 = landingpad { ptr, i32 }
          cleanup
  br label %212

144:                                              ; preds = %122
  %145 = zext i1 %4 to i8
  %146 = getelementptr inbounds %"class.xercesc_2_5::XMLReader", ptr %121, i64 0, i32 24
  store i8 %145, ptr %146, align 1, !tbaa !121
  %147 = load ptr, ptr %23, align 8, !tbaa !87
  %148 = invoke noundef zeroext i1 @_ZN11xercesc_2_59ReaderMgr10pushReaderEPNS_9XMLReaderEPNS_13XMLEntityDeclE(ptr noundef nonnull align 8 dereferenceable(80) %147, ptr noundef nonnull %121, ptr noundef nonnull %59)
          to label %149 unwind label %142

149:                                              ; preds = %144
  %150 = load ptr, ptr %8, align 8, !tbaa !86
  br i1 %148, label %154, label %151

151:                                              ; preds = %149
  %152 = getelementptr inbounds %"class.xercesc_2_5::XMLEntityDecl", ptr %59, i64 0, i32 4
  %153 = load ptr, ptr %152, align 8, !tbaa !122
  invoke void @_ZN11xercesc_2_510XMLScanner9emitErrorENS_7XMLErrs5CodesEPKtS4_S4_S4_(ptr noundef nonnull align 8 dereferenceable(664) %150, i32 noundef 230, ptr noundef %153, ptr noundef null, ptr noundef null, ptr noundef null)
          to label %205 unwind label %142

154:                                              ; preds = %149
  br i1 %1, label %155, label %201

155:                                              ; preds = %154
  %156 = getelementptr inbounds %"class.xercesc_2_5::XMLScanner", ptr %150, i64 0, i32 34
  %157 = load ptr, ptr %156, align 8, !tbaa !123
  %158 = icmp eq ptr %157, null
  br i1 %158, label %166, label %159

159:                                              ; preds = %155
  %160 = load ptr, ptr %7, align 8, !tbaa !77
  %161 = load ptr, ptr %157, align 8, !tbaa !48
  %162 = getelementptr inbounds ptr, ptr %161, i64 7
  %163 = load ptr, ptr %162, align 8
  invoke void %163(ptr noundef nonnull align 8 dereferenceable(8) %157, ptr noundef nonnull align 8 dereferenceable(41) %160)
          to label %166 unwind label %164

164:                                              ; preds = %159
  %165 = landingpad { ptr, i32 }
          cleanup
  br label %212

166:                                              ; preds = %155, %159
  %167 = load ptr, ptr %23, align 8, !tbaa !87
  %168 = getelementptr inbounds %"class.xercesc_2_5::ReaderMgr", ptr %167, i64 0, i32 2
  %169 = load ptr, ptr %168, align 8, !tbaa !100
  %170 = getelementptr inbounds %"class.xercesc_2_5::XMLReader", ptr %169, i64 0, i32 14
  %171 = load i32, ptr %170, align 8, !tbaa !101
  invoke void @_ZN11xercesc_2_510DTDScanner17scanExtSubsetDeclEbb(ptr noundef nonnull align 8 dereferenceable(112) %0, i1 noundef zeroext false, i1 noundef zeroext false)
          to label %195 unwind label %174

172:                                              ; preds = %196
  %173 = landingpad { ptr, i32 }
          cleanup
  br label %212

174:                                              ; preds = %166
  %175 = landingpad { ptr, i32 }
          catch ptr @_ZTIN11xercesc_2_520OutOfMemoryExceptionE
          catch ptr null
  %176 = extractvalue { ptr, i32 } %175, 0
  %177 = extractvalue { ptr, i32 } %175, 1
  %178 = call i32 @llvm.eh.typeid.for(ptr nonnull @_ZTIN11xercesc_2_520OutOfMemoryExceptionE) #11
  %179 = icmp eq i32 %177, %178
  %180 = call ptr @__cxa_begin_catch(ptr %176) #11
  br i1 %179, label %181, label %182

181:                                              ; preds = %174
  invoke void @__cxa_rethrow() #13
          to label %250 unwind label %193

182:                                              ; preds = %174
  %183 = load ptr, ptr %23, align 8, !tbaa !87
  invoke void @_ZN11xercesc_2_59ReaderMgr16cleanStackBackToEj(ptr noundef nonnull align 8 dereferenceable(80) %183, i32 noundef %171)
          to label %184 unwind label %190

184:                                              ; preds = %182
  br i1 %158, label %192, label %185

185:                                              ; preds = %184
  %186 = load ptr, ptr %7, align 8, !tbaa !77
  %187 = load ptr, ptr %157, align 8, !tbaa !48
  %188 = getelementptr inbounds ptr, ptr %187, i64 2
  %189 = load ptr, ptr %188, align 8
  invoke void %189(ptr noundef nonnull align 8 dereferenceable(8) %157, ptr noundef nonnull align 8 dereferenceable(41) %186)
          to label %192 unwind label %190

190:                                              ; preds = %192, %185, %182
  %191 = landingpad { ptr, i32 }
          cleanup
  invoke void @__cxa_end_catch()
          to label %212 unwind label %247

192:                                              ; preds = %185, %184
  invoke void @__cxa_rethrow() #13
          to label %250 unwind label %190

193:                                              ; preds = %181
  %194 = landingpad { ptr, i32 }
          cleanup
  invoke void @__cxa_end_catch()
          to label %212 unwind label %247

195:                                              ; preds = %166
  br i1 %158, label %205, label %196

196:                                              ; preds = %195
  %197 = load ptr, ptr %7, align 8, !tbaa !77
  %198 = load ptr, ptr %157, align 8, !tbaa !48
  %199 = getelementptr inbounds ptr, ptr %198, i64 2
  %200 = load ptr, ptr %199, align 8
  invoke void %200(ptr noundef nonnull align 8 dereferenceable(8) %157, ptr noundef nonnull align 8 dereferenceable(41) %197)
          to label %205 unwind label %172

201:                                              ; preds = %154
  %202 = invoke noundef zeroext i1 @_ZN11xercesc_2_510XMLScanner12checkXMLDeclEb(ptr noundef nonnull align 8 dereferenceable(664) %150, i1 noundef zeroext true)
          to label %203 unwind label %142

203:                                              ; preds = %201
  br i1 %202, label %204, label %205

204:                                              ; preds = %203
  invoke void @_ZN11xercesc_2_510DTDScanner12scanTextDeclEv(ptr noundef nonnull align 8 dereferenceable(112) %0)
          to label %205 unwind label %142

205:                                              ; preds = %204, %203, %196, %195, %151
  %206 = icmp eq ptr %123, null
  br i1 %206, label %211, label %207

207:                                              ; preds = %205
  %208 = load ptr, ptr %123, align 8, !tbaa !48
  %209 = getelementptr inbounds ptr, ptr %208, i64 1
  %210 = load ptr, ptr %209, align 8
  invoke void %210(ptr noundef nonnull align 8 dereferenceable(41) %123)
          to label %211 unwind label %138

211:                                              ; preds = %205, %207
  call void @llvm.lifetime.end.p0(i64 8, ptr nonnull %7) #11
  br i1 %148, label %241, label %242

212:                                              ; preds = %164, %193, %190, %172, %142, %140
  %213 = phi { ptr, i32 } [ %143, %142 ], [ %141, %140 ], [ %165, %164 ], [ %173, %172 ], [ %191, %190 ], [ %194, %193 ]
  %214 = icmp eq ptr %123, null
  br i1 %214, label %219, label %215

215:                                              ; preds = %212
  %216 = load ptr, ptr %123, align 8, !tbaa !48
  %217 = getelementptr inbounds ptr, ptr %216, i64 1
  %218 = load ptr, ptr %217, align 8
  invoke void %218(ptr noundef nonnull align 8 dereferenceable(41) %123)
          to label %219 unwind label %247

219:                                              ; preds = %138, %215, %212, %136
  %220 = phi { ptr, i32 } [ %137, %136 ], [ %139, %138 ], [ %213, %215 ], [ %213, %212 ]
  call void @llvm.lifetime.end.p0(i64 8, ptr nonnull %7) #11
  br label %244

221:                                              ; preds = %107
  %222 = load ptr, ptr %23, align 8, !tbaa !87
  %223 = getelementptr inbounds %"class.xercesc_2_5::XMLEntityDecl", ptr %59, i64 0, i32 4
  %224 = load ptr, ptr %223, align 8, !tbaa !122
  %225 = xor i1 %2, true
  %226 = zext i1 %225 to i32
  %227 = getelementptr inbounds %"class.xercesc_2_5::XMLEntityDecl", ptr %59, i64 0, i32 3
  %228 = load ptr, ptr %227, align 8, !tbaa !124
  %229 = getelementptr inbounds %"class.xercesc_2_5::XMLEntityDecl", ptr %59, i64 0, i32 2
  %230 = load i32, ptr %229, align 4, !tbaa !125
  %231 = invoke noundef ptr @_ZN11xercesc_2_59ReaderMgr18createIntEntReaderEPKtNS_9XMLReader7RefFromENS3_5TypesES2_jbb(ptr noundef nonnull align 8 dereferenceable(80) %222, ptr noundef %224, i32 noundef %226, i32 noundef 0, ptr noundef %228, i32 noundef %230, i1 noundef zeroext false, i1 noundef zeroext true)
          to label %232 unwind label %239

232:                                              ; preds = %221
  %233 = load ptr, ptr %23, align 8, !tbaa !87
  %234 = invoke noundef zeroext i1 @_ZN11xercesc_2_59ReaderMgr10pushReaderEPNS_9XMLReaderEPNS_13XMLEntityDeclE(ptr noundef nonnull align 8 dereferenceable(80) %233, ptr noundef %231, ptr noundef nonnull %59)
          to label %235 unwind label %239

235:                                              ; preds = %232
  br i1 %234, label %241, label %236

236:                                              ; preds = %235
  %237 = load ptr, ptr %8, align 8, !tbaa !86
  %238 = load ptr, ptr %223, align 8, !tbaa !122
  invoke void @_ZN11xercesc_2_510XMLScanner9emitErrorENS_7XMLErrs5CodesEPKtS4_S4_S4_(ptr noundef nonnull align 8 dereferenceable(664) %237, i32 noundef 230, ptr noundef %238, ptr noundef null, ptr noundef null, ptr noundef null)
          to label %241 unwind label %239

239:                                              ; preds = %236, %232, %221
  %240 = landingpad { ptr, i32 }
          cleanup
  br label %244

241:                                              ; preds = %235, %236, %211
  br label %242

242:                                              ; preds = %241, %211, %73, %77, %66, %34
  %243 = phi i1 [ false, %34 ], [ true, %241 ], [ false, %211 ], [ false, %73 ], [ false, %77 ], [ false, %66 ]
  call void @_ZN11xercesc_2_512XMLBufferMgr13releaseBufferERNS_9XMLBufferE(ptr noundef nonnull align 8 dereferenceable(24) %12, ptr noundef nonnull align 8 dereferenceable(32) %13)
  ret i1 %243

244:                                              ; preds = %71, %219, %239, %20
  %245 = phi { ptr, i32 } [ %21, %20 ], [ %220, %219 ], [ %240, %239 ], [ %72, %71 ]
  invoke void @_ZN11xercesc_2_512XMLBufferMgr13releaseBufferERNS_9XMLBufferE(ptr noundef nonnull align 8 dereferenceable(24) %12, ptr noundef nonnull align 8 dereferenceable(32) %13)
          to label %246 unwind label %247

246:                                              ; preds = %244
  resume { ptr, i32 } %245

247:                                              ; preds = %244, %215, %193, %190
  %248 = landingpad { ptr, i32 }
          catch ptr null
  %249 = extractvalue { ptr, i32 } %248, 0
  call void @__clang_call_terminate(ptr %249) #12
  unreachable

250:                                              ; preds = %181, %192, %135
  unreachable
}

declare void @_ZN11xercesc_2_510XMLScanner9emitErrorENS_7XMLErrs5CodesE(ptr noundef nonnull align 8 dereferenceable(664), i32 noundef) local_unnamed_addr #1

; Function Attrs: mustprogress nocallback nofree nosync nounwind willreturn memory(argmem: readwrite)
declare void @llvm.lifetime.end.p0(i64 immarg, ptr nocapture) #5

declare void @_ZN11xercesc_2_510XMLScanner9emitErrorENS_7XMLErrs5CodesEPKtS4_S4_S4_(ptr noundef nonnull align 8 dereferenceable(664), i32 noundef, ptr noundef, ptr noundef, ptr noundef, ptr noundef) local_unnamed_addr #1

declare void @_ZN11xercesc_2_512XMLValidator9emitErrorENS_8XMLValid5CodesEPKtS4_S4_S4_(ptr noundef nonnull align 8 dereferenceable(40), i32 noundef, ptr noundef, ptr noundef, ptr noundef, ptr noundef) local_unnamed_addr #1

declare noundef ptr @_ZN11xercesc_2_59ReaderMgr12createReaderEPKtS2_S2_bNS_9XMLReader7RefFromENS3_5TypesENS3_7SourcesERPNS_11InputSourceEb(ptr noundef nonnull align 8 dereferenceable(80), ptr noundef, ptr noundef, ptr noundef, i1 noundef zeroext, i32 noundef, i32 noundef, i32 noundef, ptr noundef nonnull align 8 dereferenceable(8), i1 noundef zeroext) local_unnamed_addr #1

declare ptr @__cxa_allocate_exception(i64) local_unnamed_addr

; Function Attrs: uwtable
define linkonce_odr dso_local void @_ZN11xercesc_2_516RuntimeExceptionC2EPKcjNS_10XMLExcepts5CodesEPKtS6_S6_S6_PNS_13MemoryManagerE(ptr noundef nonnull align 8 dereferenceable(48) %0, ptr noundef %1, i32 noundef %2, i32 noundef %3, ptr noundef %4, ptr noundef %5, ptr noundef %6, ptr noundef %7, ptr noundef %8) unnamed_addr #3 comdat align 2 personality ptr @__gxx_personality_v0 {
  tail call void @_ZN11xercesc_2_512XMLExceptionC2EPKcjPNS_13MemoryManagerE(ptr noundef nonnull align 8 dereferenceable(48) %0, ptr noundef %1, i32 noundef %2, ptr noundef %8)
  store ptr getelementptr inbounds ({ [6 x ptr] }, ptr @_ZTVN11xercesc_2_516RuntimeExceptionE, i64 0, inrange i32 0, i64 2), ptr %0, align 8, !tbaa !48
  invoke void @_ZN11xercesc_2_512XMLException14loadExceptTextENS_10XMLExcepts5CodesEPKtS4_S4_S4_(ptr noundef nonnull align 8 dereferenceable(48) %0, i32 noundef %3, ptr noundef %4, ptr noundef %5, ptr noundef %6, ptr noundef %7)
          to label %10 unwind label %11

10:                                               ; preds = %9
  ret void

11:                                               ; preds = %9
  %12 = landingpad { ptr, i32 }
          cleanup
  invoke void @_ZN11xercesc_2_512XMLExceptionD2Ev(ptr noundef nonnull align 8 dereferenceable(48) %0)
          to label %13 unwind label %14

13:                                               ; preds = %11
  resume { ptr, i32 } %12

14:                                               ; preds = %11
  %15 = landingpad { ptr, i32 }
          catch ptr null
  %16 = extractvalue { ptr, i32 } %15, 0
  tail call void @__clang_call_terminate(ptr %16) #12
  unreachable
}

declare void @__cxa_free_exception(ptr) local_unnamed_addr

declare void @__cxa_throw(ptr, ptr, ptr) local_unnamed_addr

declare noundef zeroext i1 @_ZN11xercesc_2_59ReaderMgr10pushReaderEPNS_9XMLReaderEPNS_13XMLEntityDeclE(ptr noundef nonnull align 8 dereferenceable(80), ptr noundef, ptr noundef) local_unnamed_addr #1

; Function Attrs: uwtable
define dso_local void @_ZN11xercesc_2_510DTDScanner17scanExtSubsetDeclEbb(ptr nocapture noundef nonnull align 8 dereferenceable(112) %0, i1 noundef zeroext %1, i1 noundef zeroext %2) local_unnamed_addr #3 align 2 personality ptr @__gxx_personality_v0 {
  %4 = alloca [9 x i16], align 16
  %5 = getelementptr inbounds %"class.xercesc_2_5::DTDScanner", ptr %0, i64 0, i32 7
  %6 = load i8, ptr %5, align 8, !tbaa !126, !range !59, !noundef !60
  store i8 0, ptr %5, align 8, !tbaa !126
  %7 = xor i1 %1, true
  %8 = getelementptr inbounds %"class.xercesc_2_5::DTDScanner", ptr %0, i64 0, i32 10
  %9 = load ptr, ptr %8, align 8, !tbaa !88
  %10 = invoke noundef nonnull align 8 dereferenceable(32) ptr @_ZN11xercesc_2_512XMLBufferMgr11bidOnBufferEv(ptr noundef nonnull align 8 dereferenceable(24) %9)
          to label %11 unwind label %20

11:                                               ; preds = %3
  %12 = getelementptr inbounds %"class.xercesc_2_5::DTDScanner", ptr %0, i64 0, i32 3
  %13 = load ptr, ptr %12, align 8, !tbaa !68
  %14 = icmp eq ptr %13, null
  %15 = or i1 %14, %1
  br i1 %15, label %28, label %16

16:                                               ; preds = %11
  %17 = load ptr, ptr %13, align 8, !tbaa !48
  %18 = getelementptr inbounds ptr, ptr %17, i64 16
  %19 = load ptr, ptr %18, align 8
  invoke void %19(ptr noundef nonnull align 8 dereferenceable(8) %13)
          to label %28 unwind label %24

20:                                               ; preds = %357, %3
  %21 = landingpad { ptr, i32 }
          cleanup
  %22 = extractvalue { ptr, i32 } %21, 0
  %23 = extractvalue { ptr, i32 } %21, 1
  br label %362

24:                                               ; preds = %42, %37, %33, %28, %16
  %25 = landingpad { ptr, i32 }
          cleanup
  %26 = extractvalue { ptr, i32 } %25, 0
  %27 = extractvalue { ptr, i32 } %25, 1
  br label %359

28:                                               ; preds = %11, %16
  %29 = getelementptr inbounds %"class.xercesc_2_5::DTDScanner", ptr %0, i64 0, i32 11
  %30 = load ptr, ptr %29, align 8, !tbaa !87
  %31 = invoke noundef zeroext i1 @_ZNK11xercesc_2_59ReaderMgr27isScanningPERefOutOfLiteralEv(ptr noundef nonnull align 8 dereferenceable(80) %30)
          to label %32 unwind label %24

32:                                               ; preds = %28
  br i1 %31, label %33, label %43

33:                                               ; preds = %32
  %34 = load ptr, ptr %29, align 8, !tbaa !87
  %35 = invoke noundef zeroext i1 @_ZN11xercesc_2_59ReaderMgr12skippedSpaceEv(ptr noundef nonnull align 8 dereferenceable(80) %34)
          to label %36 unwind label %24

36:                                               ; preds = %33
  br i1 %35, label %37, label %43

37:                                               ; preds = %36
  %38 = getelementptr inbounds %"class.xercesc_2_5::DTDScanner", ptr %0, i64 0, i32 12
  %39 = load ptr, ptr %38, align 8, !tbaa !86
  %40 = invoke noundef zeroext i1 @_ZN11xercesc_2_510XMLScanner12checkXMLDeclEb(ptr noundef nonnull align 8 dereferenceable(664) %39, i1 noundef zeroext true)
          to label %41 unwind label %24

41:                                               ; preds = %37
  br i1 %40, label %42, label %43

42:                                               ; preds = %41
  invoke void @_ZN11xercesc_2_510DTDScanner12scanTextDeclEv(ptr noundef nonnull align 8 dereferenceable(112) %0)
          to label %43 unwind label %24

43:                                               ; preds = %32, %41, %36, %42
  %44 = phi i1 [ %7, %41 ], [ %7, %36 ], [ %7, %32 ], [ false, %42 ]
  %45 = load ptr, ptr %29, align 8, !tbaa !87
  %46 = getelementptr inbounds %"class.xercesc_2_5::ReaderMgr", ptr %45, i64 0, i32 2
  %47 = load ptr, ptr %46, align 8, !tbaa !100
  %48 = getelementptr inbounds %"class.xercesc_2_5::XMLReader", ptr %47, i64 0, i32 14
  %49 = load i32, ptr %48, align 8, !tbaa !101
  %50 = zext i1 %44 to i8
  %51 = getelementptr inbounds %"class.xercesc_2_5::DTDScanner", ptr %0, i64 0, i32 12
  %52 = getelementptr inbounds %"class.xercesc_2_5::DTDScanner", ptr %0, i64 0, i32 1
  %53 = getelementptr inbounds %"class.xercesc_2_5::XMLBuffer", ptr %10, i64 0, i32 4
  %54 = getelementptr inbounds %"class.xercesc_2_5::XMLBuffer", ptr %10, i64 0, i32 1
  br label %55

55:                                               ; preds = %337, %43
  %56 = phi i8 [ 0, %43 ], [ %334, %337 ]
  %57 = phi i8 [ 0, %43 ], [ %319, %337 ]
  %58 = phi i8 [ %50, %43 ], [ %302, %337 ]
  %59 = load ptr, ptr %29, align 8, !tbaa !87
  %60 = invoke noundef zeroext i16 @_ZN11xercesc_2_59ReaderMgr12peekNextCharEv(ptr noundef nonnull align 8 dereferenceable(80) %59)
          to label %61 unwind label %188

61:                                               ; preds = %55
  %62 = zext i16 %60 to i32
  %63 = icmp eq i16 %60, 60
  %64 = load ptr, ptr %29, align 8, !tbaa !87
  %65 = getelementptr inbounds %"class.xercesc_2_5::ReaderMgr", ptr %64, i64 0, i32 2
  %66 = load ptr, ptr %65, align 8, !tbaa !100
  br i1 %63, label %122, label %67

67:                                               ; preds = %61
  %68 = getelementptr inbounds %"class.xercesc_2_5::XMLReader", ptr %66, i64 0, i32 27
  %69 = load ptr, ptr %68, align 8, !tbaa !127
  %70 = zext i16 %60 to i64
  %71 = getelementptr inbounds i8, ptr %69, i64 %70
  %72 = load i8, ptr %71, align 1, !tbaa !128
  %73 = icmp slt i8 %72, 0
  br i1 %73, label %107, label %74

74:                                               ; preds = %67
  %75 = icmp eq i16 %60, 37
  br i1 %75, label %103, label %76

76:                                               ; preds = %74
  %77 = icmp eq i16 %60, 93
  %78 = and i1 %77, %1
  br i1 %78, label %240, label %79

79:                                               ; preds = %76
  %80 = icmp eq i16 %60, 0
  br i1 %80, label %357, label %81

81:                                               ; preds = %79
  %82 = invoke noundef zeroext i16 @_ZN11xercesc_2_59ReaderMgr11getNextCharEv(ptr noundef nonnull align 8 dereferenceable(80) %64)
          to label %83 unwind label %188

83:                                               ; preds = %81
  %84 = load ptr, ptr %29, align 8, !tbaa !87
  %85 = getelementptr inbounds %"class.xercesc_2_5::ReaderMgr", ptr %84, i64 0, i32 2
  %86 = load ptr, ptr %85, align 8, !tbaa !100
  %87 = getelementptr inbounds %"class.xercesc_2_5::XMLReader", ptr %86, i64 0, i32 27
  %88 = load ptr, ptr %87, align 8, !tbaa !127
  %89 = getelementptr inbounds i8, ptr %88, i64 %70
  %90 = load i8, ptr %89, align 1, !tbaa !128
  %91 = and i8 %90, 64
  %92 = icmp eq i8 %91, 0
  br i1 %92, label %95, label %93

93:                                               ; preds = %83
  %94 = load ptr, ptr %51, align 8, !tbaa !86
  invoke void @_ZN11xercesc_2_510XMLScanner9emitErrorENS_7XMLErrs5CodesE(ptr noundef nonnull align 8 dereferenceable(664) %94, i32 noundef 186)
          to label %100 unwind label %188

95:                                               ; preds = %83
  call void @llvm.lifetime.start.p0(i64 18, ptr nonnull %4) #11
  %96 = load ptr, ptr %52, align 8, !tbaa !65
  invoke void @_ZN11xercesc_2_59XMLString9binToTextEiPtjjPNS_13MemoryManagerE(i32 noundef %62, ptr noundef nonnull %4, i32 noundef 8, i32 noundef 16, ptr noundef %96)
          to label %97 unwind label %289

97:                                               ; preds = %95
  %98 = load ptr, ptr %51, align 8, !tbaa !86
  invoke void @_ZN11xercesc_2_510XMLScanner9emitErrorENS_7XMLErrs5CodesEPKtS4_S4_S4_(ptr noundef nonnull align 8 dereferenceable(664) %98, i32 noundef 196, ptr noundef nonnull %4, ptr noundef null, ptr noundef null, ptr noundef null)
          to label %99 unwind label %289

99:                                               ; preds = %97
  call void @llvm.lifetime.end.p0(i64 18, ptr nonnull %4) #11
  br label %100

100:                                              ; preds = %99, %93
  %101 = load ptr, ptr %29, align 8, !tbaa !87
  %102 = invoke noundef zeroext i16 @_ZN11xercesc_2_59ReaderMgr15skipUntilInOrWSEPKt(ptr noundef nonnull align 8 dereferenceable(80) %101, ptr noundef nonnull @_ZZN11xercesc_2_510DTDScanner17scanExtSubsetDeclEbbE6toSkip)
          to label %149 unwind label %188

103:                                              ; preds = %74
  %104 = invoke noundef zeroext i16 @_ZN11xercesc_2_59ReaderMgr11getNextCharEv(ptr noundef nonnull align 8 dereferenceable(80) %64)
          to label %105 unwind label %188

105:                                              ; preds = %103
  %106 = invoke noundef zeroext i1 @_ZN11xercesc_2_510DTDScanner11expandPERefEbbbb(ptr noundef nonnull align 8 dereferenceable(112) %0, i1 noundef zeroext true, i1 noundef zeroext false, i1 noundef zeroext false, i1 noundef zeroext true)
          to label %149 unwind label %188

107:                                              ; preds = %67
  %108 = load ptr, ptr %12, align 8, !tbaa !68
  %109 = icmp eq ptr %108, null
  br i1 %109, label %120, label %110

110:                                              ; preds = %107
  invoke void @_ZN11xercesc_2_59ReaderMgr9getSpacesERNS_9XMLBufferE(ptr noundef nonnull align 8 dereferenceable(80) %64, ptr noundef nonnull align 8 dereferenceable(32) %10)
          to label %111 unwind label %188

111:                                              ; preds = %110
  %112 = load ptr, ptr %12, align 8, !tbaa !68
  %113 = load ptr, ptr %53, align 8, !tbaa !112
  %114 = load i32, ptr %54, align 4, !tbaa !111
  %115 = zext i32 %114 to i64
  %116 = getelementptr inbounds i16, ptr %113, i64 %115
  store i16 0, ptr %116, align 2, !tbaa !113
  %117 = load ptr, ptr %112, align 8, !tbaa !48
  %118 = getelementptr inbounds ptr, ptr %117, i64 6
  %119 = load ptr, ptr %118, align 8
  invoke void %119(ptr noundef nonnull align 8 dereferenceable(8) %112, ptr noundef nonnull %113, i32 noundef %114)
          to label %149 unwind label %188

120:                                              ; preds = %107
  %121 = invoke noundef zeroext i1 @_ZN11xercesc_2_59ReaderMgr14skipPastSpacesEv(ptr noundef nonnull align 8 dereferenceable(80) %64)
          to label %149 unwind label %188

122:                                              ; preds = %61
  %123 = getelementptr inbounds %"class.xercesc_2_5::XMLReader", ptr %66, i64 0, i32 14
  %124 = load i32, ptr %123, align 8, !tbaa !101
  %125 = getelementptr inbounds %"class.xercesc_2_5::XMLReader", ptr %66, i64 0, i32 26
  %126 = load i32, ptr %125, align 8, !tbaa !129
  %127 = icmp eq i32 %126, 0
  %128 = invoke noundef zeroext i16 @_ZN11xercesc_2_59ReaderMgr11getNextCharEv(ptr noundef nonnull align 8 dereferenceable(80) %64)
          to label %129 unwind label %196

129:                                              ; preds = %122
  %130 = and i8 %58, 1
  %131 = icmp ne i8 %130, 0
  invoke void @_ZN11xercesc_2_510DTDScanner14scanMarkupDeclEb(ptr noundef nonnull align 8 dereferenceable(112) %0, i1 noundef zeroext %131)
          to label %132 unwind label %196

132:                                              ; preds = %129
  %133 = load ptr, ptr %29, align 8, !tbaa !87
  %134 = getelementptr inbounds %"class.xercesc_2_5::ReaderMgr", ptr %133, i64 0, i32 2
  %135 = load ptr, ptr %134, align 8, !tbaa !100
  %136 = getelementptr inbounds %"class.xercesc_2_5::XMLReader", ptr %135, i64 0, i32 14
  %137 = load i32, ptr %136, align 8, !tbaa !101
  %138 = icmp eq i32 %137, %124
  br i1 %138, label %149, label %139

139:                                              ; preds = %132
  %140 = load ptr, ptr %51, align 8, !tbaa !86
  br i1 %127, label %148, label %141

141:                                              ; preds = %139
  %142 = getelementptr inbounds %"class.xercesc_2_5::XMLScanner", ptr %140, i64 0, i32 9
  %143 = load i8, ptr %142, align 8, !tbaa !116, !range !59, !noundef !60
  %144 = icmp eq i8 %143, 0
  br i1 %144, label %149, label %145

145:                                              ; preds = %141
  %146 = getelementptr inbounds %"class.xercesc_2_5::XMLScanner", ptr %140, i64 0, i32 41
  %147 = load ptr, ptr %146, align 8, !tbaa !117
  invoke void @_ZN11xercesc_2_512XMLValidator9emitErrorENS_8XMLValid5CodesE(ptr noundef nonnull align 8 dereferenceable(40) %147, i32 noundef 86)
          to label %149 unwind label %196

148:                                              ; preds = %139
  invoke void @_ZN11xercesc_2_510XMLScanner9emitErrorENS_7XMLErrs5CodesE(ptr noundef nonnull align 8 dereferenceable(664) %140, i32 noundef 299)
          to label %149 unwind label %196

149:                                              ; preds = %148, %145, %141, %132, %120, %111, %105, %100
  %150 = phi i8 [ %56, %132 ], [ %56, %141 ], [ %56, %145 ], [ %56, %148 ], [ %56, %100 ], [ %56, %105 ], [ %56, %120 ], [ 0, %111 ]
  %151 = phi i8 [ 0, %132 ], [ 0, %141 ], [ 0, %145 ], [ 0, %148 ], [ %57, %100 ], [ %57, %105 ], [ %57, %120 ], [ %57, %111 ]
  br label %152

152:                                              ; preds = %234, %149
  %153 = phi i8 [ %150, %149 ], [ %235, %234 ]
  %154 = phi i8 [ %151, %149 ], [ %236, %234 ]
  %155 = load ptr, ptr %29, align 8, !tbaa !87
  %156 = invoke noundef zeroext i16 @_ZN11xercesc_2_59ReaderMgr12peekNextCharEv(ptr noundef nonnull align 8 dereferenceable(80) %155)
          to label %157 unwind label %185

157:                                              ; preds = %152
  %158 = zext i16 %156 to i32
  %159 = icmp eq i16 %156, 60
  %160 = load ptr, ptr %29, align 8, !tbaa !87
  %161 = getelementptr inbounds %"class.xercesc_2_5::ReaderMgr", ptr %160, i64 0, i32 2
  %162 = load ptr, ptr %161, align 8, !tbaa !100
  br i1 %159, label %163, label %206

163:                                              ; preds = %157
  %164 = getelementptr inbounds %"class.xercesc_2_5::XMLReader", ptr %162, i64 0, i32 14
  %165 = load i32, ptr %164, align 8, !tbaa !101
  %166 = getelementptr inbounds %"class.xercesc_2_5::XMLReader", ptr %162, i64 0, i32 26
  %167 = load i32, ptr %166, align 8, !tbaa !129
  %168 = icmp eq i32 %167, 0
  %169 = invoke noundef zeroext i16 @_ZN11xercesc_2_59ReaderMgr11getNextCharEv(ptr noundef nonnull align 8 dereferenceable(80) %160)
          to label %170 unwind label %193

170:                                              ; preds = %163
  invoke void @_ZN11xercesc_2_510DTDScanner14scanMarkupDeclEb(ptr noundef nonnull align 8 dereferenceable(112) %0, i1 noundef zeroext false)
          to label %171 unwind label %193

171:                                              ; preds = %170
  %172 = load ptr, ptr %29, align 8, !tbaa !87
  %173 = getelementptr inbounds %"class.xercesc_2_5::ReaderMgr", ptr %172, i64 0, i32 2
  %174 = load ptr, ptr %173, align 8, !tbaa !100
  %175 = getelementptr inbounds %"class.xercesc_2_5::XMLReader", ptr %174, i64 0, i32 14
  %176 = load i32, ptr %175, align 8, !tbaa !101
  %177 = icmp eq i32 %176, %165
  br i1 %177, label %234, label %178

178:                                              ; preds = %171
  %179 = load ptr, ptr %51, align 8, !tbaa !86
  br i1 %168, label %180, label %199

180:                                              ; preds = %178
  invoke void @_ZN11xercesc_2_510XMLScanner9emitErrorENS_7XMLErrs5CodesE(ptr noundef nonnull align 8 dereferenceable(664) %179, i32 noundef 299)
          to label %234 unwind label %193

181:                                              ; preds = %265
  %182 = landingpad { ptr, i32 }
          cleanup
          catch ptr @_ZTIN11xercesc_2_520EndOfEntityExceptionE
  br label %301

183:                                              ; preds = %254
  %184 = landingpad { ptr, i32 }
          cleanup
          catch ptr @_ZTIN11xercesc_2_520EndOfEntityExceptionE
  br label %301

185:                                              ; preds = %298, %296, %270, %232, %230, %226, %217, %216, %152
  %186 = phi i8 [ 0, %217 ], [ 1, %216 ], [ %153, %226 ], [ %153, %232 ], [ %153, %230 ], [ %153, %298 ], [ %153, %296 ], [ %153, %270 ], [ %153, %152 ]
  %187 = landingpad { ptr, i32 }
          cleanup
          catch ptr @_ZTIN11xercesc_2_520EndOfEntityExceptionE
  br label %301

188:                                              ; preds = %55, %81, %93, %100, %103, %105, %110, %111, %120
  %189 = phi i8 [ %56, %120 ], [ 0, %111 ], [ 1, %110 ], [ %56, %105 ], [ %56, %103 ], [ %56, %100 ], [ %56, %93 ], [ %56, %81 ], [ %56, %55 ]
  %190 = landingpad { ptr, i32 }
          cleanup
          catch ptr @_ZTIN11xercesc_2_520EndOfEntityExceptionE
  br label %301

191:                                              ; preds = %240, %246, %250, %257, %261
  %192 = landingpad { ptr, i32 }
          cleanup
          catch ptr @_ZTIN11xercesc_2_520EndOfEntityExceptionE
  br label %301

193:                                              ; preds = %163, %170, %180, %203
  %194 = phi i8 [ %154, %163 ], [ 1, %170 ], [ 0, %203 ], [ 0, %180 ]
  %195 = landingpad { ptr, i32 }
          cleanup
          catch ptr @_ZTIN11xercesc_2_520EndOfEntityExceptionE
  br label %301

196:                                              ; preds = %122, %129, %145, %148
  %197 = phi i8 [ 0, %148 ], [ 0, %145 ], [ 1, %129 ], [ %57, %122 ]
  %198 = landingpad { ptr, i32 }
          cleanup
          catch ptr @_ZTIN11xercesc_2_520EndOfEntityExceptionE
  br label %301

199:                                              ; preds = %178
  %200 = getelementptr inbounds %"class.xercesc_2_5::XMLScanner", ptr %179, i64 0, i32 9
  %201 = load i8, ptr %200, align 8, !tbaa !116, !range !59, !noundef !60
  %202 = icmp eq i8 %201, 0
  br i1 %202, label %234, label %203

203:                                              ; preds = %199
  %204 = getelementptr inbounds %"class.xercesc_2_5::XMLScanner", ptr %179, i64 0, i32 41
  %205 = load ptr, ptr %204, align 8, !tbaa !117
  invoke void @_ZN11xercesc_2_512XMLValidator9emitErrorENS_8XMLValid5CodesE(ptr noundef nonnull align 8 dereferenceable(40) %205, i32 noundef 86)
          to label %234 unwind label %193

206:                                              ; preds = %157
  %207 = getelementptr inbounds %"class.xercesc_2_5::XMLReader", ptr %162, i64 0, i32 27
  %208 = load ptr, ptr %207, align 8, !tbaa !127
  %209 = zext i16 %156 to i64
  %210 = getelementptr inbounds i8, ptr %208, i64 %209
  %211 = load i8, ptr %210, align 1, !tbaa !128
  %212 = icmp slt i8 %211, 0
  br i1 %212, label %213, label %228

213:                                              ; preds = %206
  %214 = load ptr, ptr %12, align 8, !tbaa !68
  %215 = icmp eq ptr %214, null
  br i1 %215, label %226, label %216

216:                                              ; preds = %213
  invoke void @_ZN11xercesc_2_59ReaderMgr9getSpacesERNS_9XMLBufferE(ptr noundef nonnull align 8 dereferenceable(80) %160, ptr noundef nonnull align 8 dereferenceable(32) %10)
          to label %217 unwind label %185

217:                                              ; preds = %216
  %218 = load ptr, ptr %12, align 8, !tbaa !68
  %219 = load ptr, ptr %53, align 8, !tbaa !112
  %220 = load i32, ptr %54, align 4, !tbaa !111
  %221 = zext i32 %220 to i64
  %222 = getelementptr inbounds i16, ptr %219, i64 %221
  store i16 0, ptr %222, align 2, !tbaa !113
  %223 = load ptr, ptr %218, align 8, !tbaa !48
  %224 = getelementptr inbounds ptr, ptr %223, i64 6
  %225 = load ptr, ptr %224, align 8
  invoke void %225(ptr noundef nonnull align 8 dereferenceable(8) %218, ptr noundef nonnull %219, i32 noundef %220)
          to label %234 unwind label %185

226:                                              ; preds = %213
  %227 = invoke noundef zeroext i1 @_ZN11xercesc_2_59ReaderMgr14skipPastSpacesEv(ptr noundef nonnull align 8 dereferenceable(80) %160)
          to label %234 unwind label %185

228:                                              ; preds = %206
  %229 = icmp eq i16 %156, 37
  br i1 %229, label %230, label %237

230:                                              ; preds = %228
  %231 = invoke noundef zeroext i16 @_ZN11xercesc_2_59ReaderMgr11getNextCharEv(ptr noundef nonnull align 8 dereferenceable(80) %160)
          to label %232 unwind label %185

232:                                              ; preds = %230
  %233 = invoke noundef zeroext i1 @_ZN11xercesc_2_510DTDScanner11expandPERefEbbbb(ptr noundef nonnull align 8 dereferenceable(112) %0, i1 noundef zeroext true, i1 noundef zeroext false, i1 noundef zeroext false, i1 noundef zeroext true)
          to label %234 unwind label %185

234:                                              ; preds = %232, %298, %217, %226, %180, %203, %199, %171
  %235 = phi i8 [ 0, %217 ], [ %153, %226 ], [ %153, %232 ], [ %153, %298 ], [ %153, %180 ], [ %153, %203 ], [ %153, %199 ], [ %153, %171 ]
  %236 = phi i8 [ %154, %217 ], [ %154, %226 ], [ %154, %232 ], [ %154, %298 ], [ 0, %180 ], [ 0, %203 ], [ 0, %199 ], [ 0, %171 ]
  br label %152, !llvm.loop !130

237:                                              ; preds = %228
  %238 = icmp eq i16 %156, 93
  %239 = and i1 %238, %1
  br i1 %239, label %240, label %268

240:                                              ; preds = %237, %76
  %241 = phi i8 [ %56, %76 ], [ %153, %237 ]
  %242 = phi i8 [ %57, %76 ], [ %154, %237 ]
  %243 = phi i8 [ %58, %76 ], [ 0, %237 ]
  %244 = phi ptr [ %64, %76 ], [ %160, %237 ]
  %245 = invoke noundef zeroext i16 @_ZN11xercesc_2_59ReaderMgr11getNextCharEv(ptr noundef nonnull align 8 dereferenceable(80) %244)
          to label %246 unwind label %191

246:                                              ; preds = %240
  %247 = load ptr, ptr %29, align 8, !tbaa !87
  %248 = invoke noundef zeroext i1 @_ZN11xercesc_2_59ReaderMgr11skippedCharEt(ptr noundef nonnull align 8 dereferenceable(80) %247, i16 noundef zeroext 93)
          to label %249 unwind label %191

249:                                              ; preds = %246
  br i1 %248, label %257, label %250

250:                                              ; preds = %249
  %251 = load ptr, ptr %51, align 8, !tbaa !86
  invoke void @_ZN11xercesc_2_510XMLScanner9emitErrorENS_7XMLErrs5CodesE(ptr noundef nonnull align 8 dereferenceable(664) %251, i32 noundef 250)
          to label %252 unwind label %191

252:                                              ; preds = %250
  %253 = load ptr, ptr %29, align 8, !tbaa !87
  br label %254

254:                                              ; preds = %256, %252
  %255 = invoke noundef zeroext i16 @_ZN11xercesc_2_59ReaderMgr11getNextCharEv(ptr noundef nonnull align 8 dereferenceable(80) %253)
          to label %256 unwind label %183

256:                                              ; preds = %254
  switch i16 %255, label %254 [
    i16 62, label %357
    i16 0, label %357
  ]

257:                                              ; preds = %249
  %258 = load ptr, ptr %29, align 8, !tbaa !87
  %259 = invoke noundef zeroext i1 @_ZN11xercesc_2_59ReaderMgr11skippedCharEt(ptr noundef nonnull align 8 dereferenceable(80) %258, i16 noundef zeroext 62)
          to label %260 unwind label %191

260:                                              ; preds = %257
  br i1 %259, label %357, label %261

261:                                              ; preds = %260
  %262 = load ptr, ptr %51, align 8, !tbaa !86
  invoke void @_ZN11xercesc_2_510XMLScanner9emitErrorENS_7XMLErrs5CodesE(ptr noundef nonnull align 8 dereferenceable(664) %262, i32 noundef 250)
          to label %263 unwind label %191

263:                                              ; preds = %261
  %264 = load ptr, ptr %29, align 8, !tbaa !87
  br label %265

265:                                              ; preds = %267, %263
  %266 = invoke noundef zeroext i16 @_ZN11xercesc_2_59ReaderMgr11getNextCharEv(ptr noundef nonnull align 8 dereferenceable(80) %264)
          to label %267 unwind label %181

267:                                              ; preds = %265
  switch i16 %266, label %265 [
    i16 62, label %357
    i16 0, label %357
  ]

268:                                              ; preds = %237
  %269 = icmp eq i16 %156, 0
  br i1 %269, label %357, label %270

270:                                              ; preds = %268
  %271 = invoke noundef zeroext i16 @_ZN11xercesc_2_59ReaderMgr11getNextCharEv(ptr noundef nonnull align 8 dereferenceable(80) %160)
          to label %272 unwind label %185

272:                                              ; preds = %270
  %273 = load ptr, ptr %29, align 8, !tbaa !87
  %274 = getelementptr inbounds %"class.xercesc_2_5::ReaderMgr", ptr %273, i64 0, i32 2
  %275 = load ptr, ptr %274, align 8, !tbaa !100
  %276 = getelementptr inbounds %"class.xercesc_2_5::XMLReader", ptr %275, i64 0, i32 27
  %277 = load ptr, ptr %276, align 8, !tbaa !127
  %278 = getelementptr inbounds i8, ptr %277, i64 %209
  %279 = load i8, ptr %278, align 1, !tbaa !128
  %280 = and i8 %279, 64
  %281 = icmp eq i8 %280, 0
  br i1 %281, label %282, label %296

282:                                              ; preds = %272
  call void @llvm.lifetime.start.p0(i64 18, ptr nonnull %4) #11
  %283 = load ptr, ptr %52, align 8, !tbaa !65
  invoke void @_ZN11xercesc_2_59XMLString9binToTextEiPtjjPNS_13MemoryManagerE(i32 noundef %158, ptr noundef nonnull %4, i32 noundef 8, i32 noundef 16, ptr noundef %283)
          to label %284 unwind label %287

284:                                              ; preds = %282
  %285 = load ptr, ptr %51, align 8, !tbaa !86
  invoke void @_ZN11xercesc_2_510XMLScanner9emitErrorENS_7XMLErrs5CodesEPKtS4_S4_S4_(ptr noundef nonnull align 8 dereferenceable(664) %285, i32 noundef 196, ptr noundef nonnull %4, ptr noundef null, ptr noundef null, ptr noundef null)
          to label %286 unwind label %287

286:                                              ; preds = %284
  call void @llvm.lifetime.end.p0(i64 18, ptr nonnull %4) #11
  br label %298

287:                                              ; preds = %282, %284
  %288 = landingpad { ptr, i32 }
          cleanup
          catch ptr @_ZTIN11xercesc_2_520EndOfEntityExceptionE
  br label %291

289:                                              ; preds = %95, %97
  %290 = landingpad { ptr, i32 }
          cleanup
          catch ptr @_ZTIN11xercesc_2_520EndOfEntityExceptionE
  br label %291

291:                                              ; preds = %289, %287
  %292 = phi i8 [ %153, %287 ], [ %56, %289 ]
  %293 = phi i8 [ %154, %287 ], [ %57, %289 ]
  %294 = phi i8 [ 0, %287 ], [ %58, %289 ]
  %295 = phi { ptr, i32 } [ %288, %287 ], [ %290, %289 ]
  call void @llvm.lifetime.end.p0(i64 18, ptr nonnull %4) #11
  br label %301

296:                                              ; preds = %272
  %297 = load ptr, ptr %51, align 8, !tbaa !86
  invoke void @_ZN11xercesc_2_510XMLScanner9emitErrorENS_7XMLErrs5CodesE(ptr noundef nonnull align 8 dereferenceable(664) %297, i32 noundef 186)
          to label %298 unwind label %185

298:                                              ; preds = %296, %286
  %299 = load ptr, ptr %29, align 8, !tbaa !87
  %300 = invoke noundef zeroext i16 @_ZN11xercesc_2_59ReaderMgr15skipUntilInOrWSEPKt(ptr noundef nonnull align 8 dereferenceable(80) %299, ptr noundef nonnull @_ZZN11xercesc_2_510DTDScanner17scanExtSubsetDeclEbbE6toSkip)
          to label %234 unwind label %185

301:                                              ; preds = %193, %196, %185, %188, %181, %191, %183, %291
  %302 = phi i8 [ %294, %291 ], [ %243, %181 ], [ %243, %183 ], [ %243, %191 ], [ 0, %185 ], [ %58, %188 ], [ 0, %193 ], [ %58, %196 ]
  %303 = phi i8 [ %292, %291 ], [ %241, %181 ], [ %241, %183 ], [ %241, %191 ], [ %186, %185 ], [ %189, %188 ], [ %153, %193 ], [ %56, %196 ]
  %304 = phi i8 [ %293, %291 ], [ %242, %181 ], [ %242, %183 ], [ %242, %191 ], [ %154, %185 ], [ %57, %188 ], [ %194, %193 ], [ %197, %196 ]
  %305 = phi { ptr, i32 } [ %295, %291 ], [ %182, %181 ], [ %184, %183 ], [ %192, %191 ], [ %187, %185 ], [ %190, %188 ], [ %195, %193 ], [ %198, %196 ]
  %306 = extractvalue { ptr, i32 } %305, 0
  %307 = extractvalue { ptr, i32 } %305, 1
  %308 = call i32 @llvm.eh.typeid.for(ptr nonnull @_ZTIN11xercesc_2_520EndOfEntityExceptionE) #11
  %309 = icmp eq i32 %307, %308
  br i1 %309, label %310, label %359

310:                                              ; preds = %301
  %311 = call ptr @__cxa_begin_catch(ptr %306) #11
  %312 = and i8 %304, 1
  %313 = icmp eq i8 %312, 0
  br i1 %313, label %318, label %314

314:                                              ; preds = %310
  %315 = load ptr, ptr %51, align 8, !tbaa !86
  invoke void @_ZN11xercesc_2_510XMLScanner9emitErrorENS_7XMLErrs5CodesE(ptr noundef nonnull align 8 dereferenceable(664) %315, i32 noundef 231)
          to label %318 unwind label %316

316:                                              ; preds = %325, %314
  %317 = landingpad { ptr, i32 }
          cleanup
  invoke void @__cxa_end_catch()
          to label %341 unwind label %367

318:                                              ; preds = %314, %310
  %319 = phi i8 [ %304, %310 ], [ 0, %314 ]
  %320 = and i8 %303, 1
  %321 = icmp eq i8 %320, 0
  br i1 %321, label %333, label %322

322:                                              ; preds = %318
  %323 = load ptr, ptr %12, align 8, !tbaa !68
  %324 = icmp eq ptr %323, null
  br i1 %324, label %333, label %325

325:                                              ; preds = %322
  %326 = load ptr, ptr %53, align 8, !tbaa !112
  %327 = load i32, ptr %54, align 4, !tbaa !111
  %328 = zext i32 %327 to i64
  %329 = getelementptr inbounds i16, ptr %326, i64 %328
  store i16 0, ptr %329, align 2, !tbaa !113
  %330 = load ptr, ptr %323, align 8, !tbaa !48
  %331 = getelementptr inbounds ptr, ptr %330, i64 6
  %332 = load ptr, ptr %331, align 8
  invoke void %332(ptr noundef nonnull align 8 dereferenceable(8) %323, ptr noundef nonnull %326, i32 noundef %327)
          to label %333 unwind label %316

333:                                              ; preds = %322, %325, %318
  %334 = phi i8 [ %303, %318 ], [ 0, %325 ], [ 0, %322 ]
  %335 = getelementptr inbounds %"class.xercesc_2_5::EndOfEntityException", ptr %311, i64 0, i32 1
  %336 = load i32, ptr %335, align 8, !tbaa !132
  invoke void @__cxa_end_catch()
          to label %337 unwind label %339

337:                                              ; preds = %333
  %338 = icmp eq i32 %49, %336
  br i1 %338, label %345, label %55

339:                                              ; preds = %333
  %340 = landingpad { ptr, i32 }
          cleanup
  br label %341

341:                                              ; preds = %316, %339
  %342 = phi { ptr, i32 } [ %340, %339 ], [ %317, %316 ]
  %343 = extractvalue { ptr, i32 } %342, 0
  %344 = extractvalue { ptr, i32 } %342, 1
  br label %359

345:                                              ; preds = %337
  %346 = load ptr, ptr %12, align 8, !tbaa !68
  %347 = icmp ne ptr %346, null
  %348 = and i1 %347, %2
  br i1 %348, label %349, label %357

349:                                              ; preds = %345
  %350 = load ptr, ptr %346, align 8, !tbaa !48
  %351 = getelementptr inbounds ptr, ptr %350, i64 10
  %352 = load ptr, ptr %351, align 8
  invoke void %352(ptr noundef nonnull align 8 dereferenceable(8) %346)
          to label %357 unwind label %353

353:                                              ; preds = %349
  %354 = landingpad { ptr, i32 }
          cleanup
  %355 = extractvalue { ptr, i32 } %354, 0
  %356 = extractvalue { ptr, i32 } %354, 1
  br label %359

357:                                              ; preds = %260, %79, %268, %256, %256, %267, %267, %349, %345
  invoke void @_ZN11xercesc_2_512XMLBufferMgr13releaseBufferERNS_9XMLBufferE(ptr noundef nonnull align 8 dereferenceable(24) %9, ptr noundef nonnull align 8 dereferenceable(32) %10)
          to label %358 unwind label %20

358:                                              ; preds = %357
  store i8 %6, ptr %5, align 8, !tbaa !126
  ret void

359:                                              ; preds = %301, %353, %341, %24
  %360 = phi i32 [ %27, %24 ], [ %356, %353 ], [ %344, %341 ], [ %307, %301 ]
  %361 = phi ptr [ %26, %24 ], [ %355, %353 ], [ %343, %341 ], [ %306, %301 ]
  invoke void @_ZN11xercesc_2_512XMLBufferMgr13releaseBufferERNS_9XMLBufferE(ptr noundef nonnull align 8 dereferenceable(24) %9, ptr noundef nonnull align 8 dereferenceable(32) %10)
          to label %362 unwind label %367

362:                                              ; preds = %359, %20
  %363 = phi i32 [ %23, %20 ], [ %360, %359 ]
  %364 = phi ptr [ %22, %20 ], [ %361, %359 ]
  store i8 %6, ptr %5, align 8, !tbaa !126
  %365 = insertvalue { ptr, i32 } poison, ptr %364, 0
  %366 = insertvalue { ptr, i32 } %365, i32 %363, 1
  resume { ptr, i32 } %366

367:                                              ; preds = %359, %316
  %368 = landingpad { ptr, i32 }
          catch ptr null
  %369 = extractvalue { ptr, i32 } %368, 0
  call void @__clang_call_terminate(ptr %369) #12
  unreachable
}

; Function Attrs: nofree nosync nounwind memory(none)
declare i32 @llvm.eh.typeid.for(ptr) #6

declare void @_ZN11xercesc_2_59ReaderMgr16cleanStackBackToEj(ptr noundef nonnull align 8 dereferenceable(80), i32 noundef) local_unnamed_addr #1

declare void @__cxa_rethrow() local_unnamed_addr

declare void @__cxa_end_catch() local_unnamed_addr

declare noundef zeroext i1 @_ZN11xercesc_2_510XMLScanner12checkXMLDeclEb(ptr noundef nonnull align 8 dereferenceable(664), i1 noundef zeroext) local_unnamed_addr #1

; Function Attrs: uwtable
define dso_local void @_ZN11xercesc_2_510DTDScanner12scanTextDeclEv(ptr nocapture noundef nonnull readonly align 8 dereferenceable(112) %0) local_unnamed_addr #3 align 2 personality ptr @__gxx_personality_v0 {
  %2 = alloca i16, align 2
  %3 = alloca i16, align 2
  %4 = getelementptr inbounds %"class.xercesc_2_5::DTDScanner", ptr %0, i64 0, i32 11
  %5 = load ptr, ptr %4, align 8, !tbaa !87
  %6 = tail call noundef zeroext i1 @_ZN11xercesc_2_59ReaderMgr14skipPastSpacesEv(ptr noundef nonnull align 8 dereferenceable(80) %5)
  %7 = getelementptr inbounds %"class.xercesc_2_5::DTDScanner", ptr %0, i64 0, i32 10
  %8 = load ptr, ptr %7, align 8, !tbaa !88
  %9 = tail call noundef nonnull align 8 dereferenceable(32) ptr @_ZN11xercesc_2_512XMLBufferMgr11bidOnBufferEv(ptr noundef nonnull align 8 dereferenceable(24) %8)
  %10 = load ptr, ptr %4, align 8, !tbaa !87
  %11 = getelementptr inbounds %"class.xercesc_2_5::ReaderMgr", ptr %10, i64 0, i32 2
  %12 = load ptr, ptr %11, align 8, !tbaa !100
  %13 = invoke noundef zeroext i1 @_ZN11xercesc_2_59XMLReader13skippedStringEPKt(ptr noundef nonnull align 8 dereferenceable(98456) %12, ptr noundef nonnull @_ZN11xercesc_2_56XMLUni15fgVersionStringE)
          to label %14 unwind label %39

14:                                               ; preds = %1
  br i1 %13, label %15, label %124

15:                                               ; preds = %14
  %16 = load ptr, ptr %4, align 8, !tbaa !87
  %17 = invoke noundef zeroext i1 @_ZN11xercesc_2_59ReaderMgr14skipPastSpacesEv(ptr noundef nonnull align 8 dereferenceable(80) %16)
          to label %18 unwind label %39

18:                                               ; preds = %15
  %19 = load ptr, ptr %4, align 8, !tbaa !87
  %20 = invoke noundef zeroext i1 @_ZN11xercesc_2_59ReaderMgr11skippedCharEt(ptr noundef nonnull align 8 dereferenceable(80) %19, i16 noundef zeroext 61)
          to label %21 unwind label %39

21:                                               ; preds = %18
  br i1 %20, label %22, label %25

22:                                               ; preds = %21
  %23 = load ptr, ptr %4, align 8, !tbaa !87
  %24 = invoke noundef zeroext i1 @_ZN11xercesc_2_59ReaderMgr14skipPastSpacesEv(ptr noundef nonnull align 8 dereferenceable(80) %23)
          to label %41 unwind label %39

25:                                               ; preds = %21
  %26 = getelementptr inbounds %"class.xercesc_2_5::DTDScanner", ptr %0, i64 0, i32 12
  %27 = load ptr, ptr %26, align 8, !tbaa !86
  invoke void @_ZN11xercesc_2_510XMLScanner9emitErrorENS_7XMLErrs5CodesE(ptr noundef nonnull align 8 dereferenceable(664) %27, i32 noundef 180)
          to label %28 unwind label %39

28:                                               ; preds = %25
  %29 = load ptr, ptr %4, align 8, !tbaa !87
  br label %30

30:                                               ; preds = %32, %28
  %31 = invoke noundef zeroext i16 @_ZN11xercesc_2_59ReaderMgr11getNextCharEv(ptr noundef nonnull align 8 dereferenceable(80) %29)
          to label %32 unwind label %37

32:                                               ; preds = %30
  switch i16 %31, label %30 [
    i16 62, label %298
    i16 0, label %298
  ]

33:                                               ; preds = %76
  %34 = landingpad { ptr, i32 }
          cleanup
  br label %301

35:                                               ; preds = %62, %50
  %36 = landingpad { ptr, i32 }
          cleanup
  br label %301

37:                                               ; preds = %30
  %38 = landingpad { ptr, i32 }
          cleanup
  br label %301

39:                                               ; preds = %104, %25, %71, %1, %15, %18, %22, %41
  %40 = landingpad { ptr, i32 }
          cleanup
  br label %301

41:                                               ; preds = %22
  %42 = getelementptr inbounds %"class.xercesc_2_5::XMLBuffer", ptr %9, i64 0, i32 1
  store i32 0, ptr %42, align 4, !tbaa !111
  %43 = getelementptr inbounds %"class.xercesc_2_5::XMLBuffer", ptr %9, i64 0, i32 4
  %44 = load ptr, ptr %43, align 8, !tbaa !112
  store i16 0, ptr %44, align 2, !tbaa !113
  call void @llvm.lifetime.start.p0(i64 2, ptr nonnull %3) #11
  %45 = load ptr, ptr %4, align 8, !tbaa !87
  %46 = invoke noundef zeroext i1 @_ZN11xercesc_2_59ReaderMgr11skipIfQuoteERt(ptr noundef nonnull align 8 dereferenceable(80) %45, ptr noundef nonnull align 2 dereferenceable(2) %3)
          to label %47 unwind label %39

47:                                               ; preds = %41
  br i1 %46, label %48, label %71

48:                                               ; preds = %47
  %49 = getelementptr inbounds %"class.xercesc_2_5::XMLBuffer", ptr %9, i64 0, i32 2
  br label %50

50:                                               ; preds = %65, %48
  %51 = load ptr, ptr %4, align 8, !tbaa !87
  %52 = invoke noundef zeroext i16 @_ZN11xercesc_2_59ReaderMgr11getNextCharEv(ptr noundef nonnull align 8 dereferenceable(80) %51)
          to label %53 unwind label %35

53:                                               ; preds = %50
  %54 = load i16, ptr %3, align 2, !tbaa !113
  %55 = icmp eq i16 %52, %54
  br i1 %55, label %79, label %56

56:                                               ; preds = %53
  %57 = icmp eq i16 %52, 0
  br i1 %57, label %71, label %58

58:                                               ; preds = %56
  %59 = load i32, ptr %42, align 4, !tbaa !111
  %60 = load i32, ptr %49, align 8, !tbaa !134
  %61 = icmp eq i32 %59, %60
  br i1 %61, label %62, label %65

62:                                               ; preds = %58
  invoke void @_ZN11xercesc_2_59XMLBuffer6expandEv(ptr noundef nonnull align 8 dereferenceable(32) %9)
          to label %63 unwind label %35

63:                                               ; preds = %62
  %64 = load i32, ptr %42, align 4, !tbaa !111
  br label %65

65:                                               ; preds = %63, %58
  %66 = phi i32 [ %64, %63 ], [ %59, %58 ]
  %67 = load ptr, ptr %43, align 8, !tbaa !112
  %68 = add i32 %66, 1
  store i32 %68, ptr %42, align 4, !tbaa !111
  %69 = zext i32 %66 to i64
  %70 = getelementptr inbounds i16, ptr %67, i64 %69
  store i16 %52, ptr %70, align 2, !tbaa !113
  br label %50

71:                                               ; preds = %56, %47
  call void @llvm.lifetime.end.p0(i64 2, ptr nonnull %3) #11
  %72 = getelementptr inbounds %"class.xercesc_2_5::DTDScanner", ptr %0, i64 0, i32 12
  %73 = load ptr, ptr %72, align 8, !tbaa !86
  invoke void @_ZN11xercesc_2_510XMLScanner9emitErrorENS_7XMLErrs5CodesE(ptr noundef nonnull align 8 dereferenceable(664) %73, i32 noundef 188)
          to label %74 unwind label %39

74:                                               ; preds = %71
  %75 = load ptr, ptr %4, align 8, !tbaa !87
  br label %76

76:                                               ; preds = %78, %74
  %77 = invoke noundef zeroext i16 @_ZN11xercesc_2_59ReaderMgr11getNextCharEv(ptr noundef nonnull align 8 dereferenceable(80) %75)
          to label %78 unwind label %33

78:                                               ; preds = %76
  switch i16 %77, label %76 [
    i16 62, label %298
    i16 0, label %298
  ]

79:                                               ; preds = %53
  call void @llvm.lifetime.end.p0(i64 2, ptr nonnull %3) #11
  %80 = load ptr, ptr %43, align 8, !tbaa !112
  %81 = load i32, ptr %42, align 4, !tbaa !111
  %82 = zext i32 %81 to i64
  %83 = getelementptr inbounds i16, ptr %80, i64 %82
  store i16 0, ptr %83, align 2, !tbaa !113
  %84 = load i16, ptr %80, align 2, !tbaa !113
  %85 = load i16, ptr @_ZN11xercesc_2_56XMLUni12fgVersion1_1E, align 2, !tbaa !113
  %86 = icmp eq i16 %84, %85
  br i1 %86, label %87, label %106

87:                                               ; preds = %79, %92
  %88 = phi i16 [ %95, %92 ], [ %84, %79 ]
  %89 = phi ptr [ %94, %92 ], [ @_ZN11xercesc_2_56XMLUni12fgVersion1_1E, %79 ]
  %90 = phi ptr [ %93, %92 ], [ %80, %79 ]
  %91 = icmp eq i16 %88, 0
  br i1 %91, label %98, label %92

92:                                               ; preds = %87
  %93 = getelementptr inbounds i16, ptr %90, i64 1
  %94 = getelementptr inbounds i16, ptr %89, i64 1
  %95 = load i16, ptr %93, align 2, !tbaa !113
  %96 = load i16, ptr %94, align 2, !tbaa !113
  %97 = icmp eq i16 %95, %96
  br i1 %97, label %87, label %106

98:                                               ; preds = %87
  %99 = getelementptr inbounds %"class.xercesc_2_5::DTDScanner", ptr %0, i64 0, i32 12
  %100 = load ptr, ptr %99, align 8, !tbaa !86
  %101 = getelementptr inbounds %"class.xercesc_2_5::XMLScanner", ptr %100, i64 0, i32 52
  %102 = load i32, ptr %101, align 8, !tbaa !135
  %103 = icmp eq i32 %102, 1
  br i1 %103, label %124, label %104

104:                                              ; preds = %98, %121
  %105 = phi ptr [ %123, %121 ], [ %100, %98 ]
  invoke void @_ZN11xercesc_2_510XMLScanner9emitErrorENS_7XMLErrs5CodesEPKtS4_S4_S4_(ptr noundef nonnull align 8 dereferenceable(664) %105, i32 noundef 189, ptr noundef nonnull %80, ptr noundef null, ptr noundef null, ptr noundef null)
          to label %124 unwind label %39

106:                                              ; preds = %92, %79
  %107 = load i16, ptr %80, align 2, !tbaa !113
  %108 = load i16, ptr @_ZN11xercesc_2_56XMLUni12fgVersion1_0E, align 2, !tbaa !113
  %109 = icmp eq i16 %107, %108
  br i1 %109, label %110, label %121

110:                                              ; preds = %106, %115
  %111 = phi i16 [ %118, %115 ], [ %107, %106 ]
  %112 = phi ptr [ %117, %115 ], [ @_ZN11xercesc_2_56XMLUni12fgVersion1_0E, %106 ]
  %113 = phi ptr [ %116, %115 ], [ %80, %106 ]
  %114 = icmp eq i16 %111, 0
  br i1 %114, label %124, label %115

115:                                              ; preds = %110
  %116 = getelementptr inbounds i16, ptr %113, i64 1
  %117 = getelementptr inbounds i16, ptr %112, i64 1
  %118 = load i16, ptr %116, align 2, !tbaa !113
  %119 = load i16, ptr %117, align 2, !tbaa !113
  %120 = icmp eq i16 %118, %119
  br i1 %120, label %110, label %121

121:                                              ; preds = %115, %106
  %122 = getelementptr inbounds %"class.xercesc_2_5::DTDScanner", ptr %0, i64 0, i32 12
  %123 = load ptr, ptr %122, align 8, !tbaa !86
  br label %104

124:                                              ; preds = %110, %104, %98, %14
  %125 = load ptr, ptr %7, align 8, !tbaa !88
  %126 = invoke noundef nonnull align 8 dereferenceable(32) ptr @_ZN11xercesc_2_512XMLBufferMgr11bidOnBufferEv(ptr noundef nonnull align 8 dereferenceable(24) %125)
          to label %127 unwind label %154

127:                                              ; preds = %124
  %128 = load ptr, ptr %4, align 8, !tbaa !87
  %129 = invoke noundef zeroext i1 @_ZN11xercesc_2_59ReaderMgr14skipPastSpacesEv(ptr noundef nonnull align 8 dereferenceable(80) %128)
          to label %130 unwind label %156

130:                                              ; preds = %127
  %131 = load ptr, ptr %4, align 8, !tbaa !87
  %132 = getelementptr inbounds %"class.xercesc_2_5::ReaderMgr", ptr %131, i64 0, i32 2
  %133 = load ptr, ptr %132, align 8, !tbaa !100
  %134 = invoke noundef zeroext i1 @_ZN11xercesc_2_59XMLReader13skippedStringEPKt(ptr noundef nonnull align 8 dereferenceable(98456) %133, ptr noundef nonnull @_ZN11xercesc_2_56XMLUni16fgEncodingStringE)
          to label %135 unwind label %170

135:                                              ; preds = %130
  br i1 %134, label %136, label %225

136:                                              ; preds = %135
  %137 = load ptr, ptr %4, align 8, !tbaa !87
  %138 = invoke noundef zeroext i1 @_ZN11xercesc_2_59ReaderMgr14skipPastSpacesEv(ptr noundef nonnull align 8 dereferenceable(80) %137)
          to label %139 unwind label %170

139:                                              ; preds = %136
  %140 = load ptr, ptr %4, align 8, !tbaa !87
  %141 = invoke noundef zeroext i1 @_ZN11xercesc_2_59ReaderMgr11skippedCharEt(ptr noundef nonnull align 8 dereferenceable(80) %140, i16 noundef zeroext 61)
          to label %142 unwind label %170

142:                                              ; preds = %139
  br i1 %141, label %143, label %146

143:                                              ; preds = %142
  %144 = load ptr, ptr %4, align 8, !tbaa !87
  %145 = invoke noundef zeroext i1 @_ZN11xercesc_2_59ReaderMgr14skipPastSpacesEv(ptr noundef nonnull align 8 dereferenceable(80) %144)
          to label %172 unwind label %170

146:                                              ; preds = %142
  %147 = getelementptr inbounds %"class.xercesc_2_5::DTDScanner", ptr %0, i64 0, i32 12
  %148 = load ptr, ptr %147, align 8, !tbaa !86
  invoke void @_ZN11xercesc_2_510XMLScanner9emitErrorENS_7XMLErrs5CodesE(ptr noundef nonnull align 8 dereferenceable(664) %148, i32 noundef 180)
          to label %149 unwind label %170

149:                                              ; preds = %146
  %150 = load ptr, ptr %4, align 8, !tbaa !87
  br label %151

151:                                              ; preds = %153, %149
  %152 = invoke noundef zeroext i16 @_ZN11xercesc_2_59ReaderMgr11getNextCharEv(ptr noundef nonnull align 8 dereferenceable(80) %150)
          to label %153 unwind label %168

153:                                              ; preds = %151
  switch i16 %152, label %151 [
    i16 62, label %297
    i16 0, label %297
  ]

154:                                              ; preds = %297, %124
  %155 = landingpad { ptr, i32 }
          cleanup
  br label %301

156:                                              ; preds = %127
  %157 = landingpad { ptr, i32 }
          cleanup
  br label %299

158:                                              ; preds = %222
  %159 = landingpad { ptr, i32 }
          cleanup
  br label %299

160:                                              ; preds = %257
  %161 = landingpad { ptr, i32 }
          cleanup
  br label %299

162:                                              ; preds = %245
  %163 = landingpad { ptr, i32 }
          cleanup
  br label %299

164:                                              ; preds = %230
  %165 = landingpad { ptr, i32 }
          cleanup
  br label %299

166:                                              ; preds = %181, %193
  %167 = landingpad { ptr, i32 }
          cleanup
  br label %299

168:                                              ; preds = %151
  %169 = landingpad { ptr, i32 }
          cleanup
  br label %299

170:                                              ; preds = %172, %143, %139, %136, %130, %290, %281, %264, %252, %248, %240, %236, %233, %225, %214, %205, %146
  %171 = landingpad { ptr, i32 }
          cleanup
  br label %299

172:                                              ; preds = %143
  %173 = getelementptr inbounds %"class.xercesc_2_5::XMLBuffer", ptr %126, i64 0, i32 1
  store i32 0, ptr %173, align 4, !tbaa !111
  %174 = getelementptr inbounds %"class.xercesc_2_5::XMLBuffer", ptr %126, i64 0, i32 4
  %175 = load ptr, ptr %174, align 8, !tbaa !112
  store i16 0, ptr %175, align 2, !tbaa !113
  call void @llvm.lifetime.start.p0(i64 2, ptr nonnull %2) #11
  %176 = load ptr, ptr %4, align 8, !tbaa !87
  %177 = invoke noundef zeroext i1 @_ZN11xercesc_2_59ReaderMgr11skipIfQuoteERt(ptr noundef nonnull align 8 dereferenceable(80) %176, ptr noundef nonnull align 2 dereferenceable(2) %2)
          to label %178 unwind label %170

178:                                              ; preds = %172
  br i1 %177, label %179, label %202

179:                                              ; preds = %178
  %180 = getelementptr inbounds %"class.xercesc_2_5::XMLBuffer", ptr %126, i64 0, i32 2
  br label %181

181:                                              ; preds = %196, %179
  %182 = load ptr, ptr %4, align 8, !tbaa !87
  %183 = invoke noundef zeroext i16 @_ZN11xercesc_2_59ReaderMgr11getNextCharEv(ptr noundef nonnull align 8 dereferenceable(80) %182)
          to label %184 unwind label %166

184:                                              ; preds = %181
  %185 = load i16, ptr %2, align 2, !tbaa !113
  %186 = icmp eq i16 %183, %185
  %187 = icmp eq i16 %183, 0
  %188 = or i1 %187, %186
  br i1 %188, label %202, label %189

189:                                              ; preds = %184
  %190 = load i32, ptr %173, align 4, !tbaa !111
  %191 = load i32, ptr %180, align 8, !tbaa !134
  %192 = icmp eq i32 %190, %191
  br i1 %192, label %193, label %196

193:                                              ; preds = %189
  invoke void @_ZN11xercesc_2_59XMLBuffer6expandEv(ptr noundef nonnull align 8 dereferenceable(32) %126)
          to label %194 unwind label %166

194:                                              ; preds = %193
  %195 = load i32, ptr %173, align 4, !tbaa !111
  br label %196

196:                                              ; preds = %194, %189
  %197 = phi i32 [ %195, %194 ], [ %190, %189 ]
  %198 = load ptr, ptr %174, align 8, !tbaa !112
  %199 = add i32 %197, 1
  store i32 %199, ptr %173, align 4, !tbaa !111
  %200 = zext i32 %197 to i64
  %201 = getelementptr inbounds i16, ptr %198, i64 %200
  store i16 %183, ptr %201, align 2, !tbaa !113
  br label %181

202:                                              ; preds = %184, %178
  call void @llvm.lifetime.end.p0(i64 2, ptr nonnull %2) #11
  %203 = load i32, ptr %173, align 4, !tbaa !111
  %204 = icmp eq i32 %203, 0
  br i1 %204, label %214, label %205

205:                                              ; preds = %202
  %206 = load ptr, ptr %174, align 8, !tbaa !112
  %207 = zext i32 %203 to i64
  %208 = getelementptr inbounds i16, ptr %206, i64 %207
  store i16 0, ptr %208, align 2, !tbaa !113
  %209 = invoke noundef zeroext i1 @_ZN11xercesc_2_59XMLString14isValidEncNameEPKt(ptr noundef nonnull %206)
          to label %210 unwind label %170

210:                                              ; preds = %205
  br i1 %209, label %233, label %211

211:                                              ; preds = %210
  %212 = load i32, ptr %173, align 4, !tbaa !111
  %213 = zext i32 %212 to i64
  br label %214

214:                                              ; preds = %211, %202
  %215 = phi i64 [ %213, %211 ], [ 0, %202 ]
  %216 = getelementptr inbounds %"class.xercesc_2_5::DTDScanner", ptr %0, i64 0, i32 12
  %217 = load ptr, ptr %216, align 8, !tbaa !86
  %218 = load ptr, ptr %174, align 8, !tbaa !112
  %219 = getelementptr inbounds i16, ptr %218, i64 %215
  store i16 0, ptr %219, align 2, !tbaa !113
  invoke void @_ZN11xercesc_2_510XMLScanner9emitErrorENS_7XMLErrs5CodesEPKtS4_S4_S4_(ptr noundef nonnull align 8 dereferenceable(664) %217, i32 noundef 191, ptr noundef nonnull %218, ptr noundef null, ptr noundef null, ptr noundef null)
          to label %220 unwind label %170

220:                                              ; preds = %214
  %221 = load ptr, ptr %4, align 8, !tbaa !87
  br label %222

222:                                              ; preds = %224, %220
  %223 = invoke noundef zeroext i16 @_ZN11xercesc_2_59ReaderMgr11getNextCharEv(ptr noundef nonnull align 8 dereferenceable(80) %221)
          to label %224 unwind label %158

224:                                              ; preds = %222
  switch i16 %223, label %222 [
    i16 62, label %297
    i16 0, label %297
  ]

225:                                              ; preds = %135
  %226 = getelementptr inbounds %"class.xercesc_2_5::DTDScanner", ptr %0, i64 0, i32 12
  %227 = load ptr, ptr %226, align 8, !tbaa !86
  invoke void @_ZN11xercesc_2_510XMLScanner9emitErrorENS_7XMLErrs5CodesE(ptr noundef nonnull align 8 dereferenceable(664) %227, i32 noundef 287)
          to label %228 unwind label %170

228:                                              ; preds = %225
  %229 = load ptr, ptr %4, align 8, !tbaa !87
  br label %230

230:                                              ; preds = %232, %228
  %231 = invoke noundef zeroext i16 @_ZN11xercesc_2_59ReaderMgr11getNextCharEv(ptr noundef nonnull align 8 dereferenceable(80) %229)
          to label %232 unwind label %164

232:                                              ; preds = %230
  switch i16 %231, label %230 [
    i16 62, label %297
    i16 0, label %297
  ]

233:                                              ; preds = %210
  %234 = load ptr, ptr %4, align 8, !tbaa !87
  %235 = invoke noundef zeroext i1 @_ZN11xercesc_2_59ReaderMgr14skipPastSpacesEv(ptr noundef nonnull align 8 dereferenceable(80) %234)
          to label %236 unwind label %170

236:                                              ; preds = %233
  %237 = load ptr, ptr %4, align 8, !tbaa !87
  %238 = invoke noundef zeroext i1 @_ZN11xercesc_2_59ReaderMgr11skippedCharEt(ptr noundef nonnull align 8 dereferenceable(80) %237, i16 noundef zeroext 63)
          to label %239 unwind label %170

239:                                              ; preds = %236
  br i1 %238, label %248, label %240

240:                                              ; preds = %239
  %241 = getelementptr inbounds %"class.xercesc_2_5::DTDScanner", ptr %0, i64 0, i32 12
  %242 = load ptr, ptr %241, align 8, !tbaa !86
  invoke void @_ZN11xercesc_2_510XMLScanner9emitErrorENS_7XMLErrs5CodesE(ptr noundef nonnull align 8 dereferenceable(664) %242, i32 noundef 190)
          to label %243 unwind label %170

243:                                              ; preds = %240
  %244 = load ptr, ptr %4, align 8, !tbaa !87
  br label %245

245:                                              ; preds = %247, %243
  %246 = invoke noundef zeroext i16 @_ZN11xercesc_2_59ReaderMgr11getNextCharEv(ptr noundef nonnull align 8 dereferenceable(80) %244)
          to label %247 unwind label %162

247:                                              ; preds = %245
  switch i16 %246, label %245 [
    i16 62, label %260
    i16 0, label %260
  ]

248:                                              ; preds = %239
  %249 = load ptr, ptr %4, align 8, !tbaa !87
  %250 = invoke noundef zeroext i1 @_ZN11xercesc_2_59ReaderMgr11skippedCharEt(ptr noundef nonnull align 8 dereferenceable(80) %249, i16 noundef zeroext 62)
          to label %251 unwind label %170

251:                                              ; preds = %248
  br i1 %250, label %260, label %252

252:                                              ; preds = %251
  %253 = getelementptr inbounds %"class.xercesc_2_5::DTDScanner", ptr %0, i64 0, i32 12
  %254 = load ptr, ptr %253, align 8, !tbaa !86
  invoke void @_ZN11xercesc_2_510XMLScanner9emitErrorENS_7XMLErrs5CodesE(ptr noundef nonnull align 8 dereferenceable(664) %254, i32 noundef 190)
          to label %255 unwind label %170

255:                                              ; preds = %252
  %256 = load ptr, ptr %4, align 8, !tbaa !87
  br label %257

257:                                              ; preds = %259, %255
  %258 = invoke noundef zeroext i16 @_ZN11xercesc_2_59ReaderMgr11getNextCharEv(ptr noundef nonnull align 8 dereferenceable(80) %256)
          to label %259 unwind label %160

259:                                              ; preds = %257
  switch i16 %258, label %257 [
    i16 62, label %260
    i16 0, label %260
  ]

260:                                              ; preds = %247, %247, %259, %259, %251
  %261 = getelementptr inbounds %"class.xercesc_2_5::DTDScanner", ptr %0, i64 0, i32 3
  %262 = load ptr, ptr %261, align 8, !tbaa !68
  %263 = icmp eq ptr %262, null
  br i1 %263, label %278, label %264

264:                                              ; preds = %260
  %265 = getelementptr inbounds %"class.xercesc_2_5::XMLBuffer", ptr %9, i64 0, i32 4
  %266 = load ptr, ptr %265, align 8, !tbaa !112
  %267 = getelementptr inbounds %"class.xercesc_2_5::XMLBuffer", ptr %9, i64 0, i32 1
  %268 = load i32, ptr %267, align 4, !tbaa !111
  %269 = zext i32 %268 to i64
  %270 = getelementptr inbounds i16, ptr %266, i64 %269
  store i16 0, ptr %270, align 2, !tbaa !113
  %271 = load ptr, ptr %174, align 8, !tbaa !112
  %272 = load i32, ptr %173, align 4, !tbaa !111
  %273 = zext i32 %272 to i64
  %274 = getelementptr inbounds i16, ptr %271, i64 %273
  store i16 0, ptr %274, align 2, !tbaa !113
  %275 = load ptr, ptr %262, align 8, !tbaa !48
  %276 = getelementptr inbounds ptr, ptr %275, i64 17
  %277 = load ptr, ptr %276, align 8
  invoke void %277(ptr noundef nonnull align 8 dereferenceable(8) %262, ptr noundef nonnull %266, ptr noundef nonnull %271)
          to label %278 unwind label %170

278:                                              ; preds = %264, %260
  %279 = load i32, ptr %173, align 4, !tbaa !111
  %280 = icmp eq i32 %279, 0
  br i1 %280, label %297, label %281

281:                                              ; preds = %278
  %282 = load ptr, ptr %4, align 8, !tbaa !87
  %283 = getelementptr inbounds %"class.xercesc_2_5::ReaderMgr", ptr %282, i64 0, i32 2
  %284 = load ptr, ptr %283, align 8, !tbaa !100
  %285 = load ptr, ptr %174, align 8, !tbaa !112
  %286 = zext i32 %279 to i64
  %287 = getelementptr inbounds i16, ptr %285, i64 %286
  store i16 0, ptr %287, align 2, !tbaa !113
  %288 = invoke noundef zeroext i1 @_ZN11xercesc_2_59XMLReader11setEncodingEPKt(ptr noundef nonnull align 8 dereferenceable(98456) %284, ptr noundef nonnull %285)
          to label %289 unwind label %170

289:                                              ; preds = %281
  br i1 %288, label %297, label %290

290:                                              ; preds = %289
  %291 = getelementptr inbounds %"class.xercesc_2_5::DTDScanner", ptr %0, i64 0, i32 12
  %292 = load ptr, ptr %291, align 8, !tbaa !86
  %293 = load ptr, ptr %174, align 8, !tbaa !112
  %294 = load i32, ptr %173, align 4, !tbaa !111
  %295 = zext i32 %294 to i64
  %296 = getelementptr inbounds i16, ptr %293, i64 %295
  store i16 0, ptr %296, align 2, !tbaa !113
  invoke void @_ZN11xercesc_2_510XMLScanner9emitErrorENS_7XMLErrs5CodesEPKtS4_S4_S4_(ptr noundef nonnull align 8 dereferenceable(664) %292, i32 noundef 4, ptr noundef nonnull %293, ptr noundef null, ptr noundef null, ptr noundef null)
          to label %297 unwind label %170

297:                                              ; preds = %232, %232, %153, %153, %224, %224, %278, %290, %289
  invoke void @_ZN11xercesc_2_512XMLBufferMgr13releaseBufferERNS_9XMLBufferE(ptr noundef nonnull align 8 dereferenceable(24) %125, ptr noundef nonnull align 8 dereferenceable(32) %126)
          to label %298 unwind label %154

298:                                              ; preds = %32, %32, %78, %78, %297
  call void @_ZN11xercesc_2_512XMLBufferMgr13releaseBufferERNS_9XMLBufferE(ptr noundef nonnull align 8 dereferenceable(24) %8, ptr noundef nonnull align 8 dereferenceable(32) %9)
  ret void

299:                                              ; preds = %158, %162, %166, %170, %168, %164, %160, %156
  %300 = phi { ptr, i32 } [ %157, %156 ], [ %159, %158 ], [ %161, %160 ], [ %163, %162 ], [ %165, %164 ], [ %167, %166 ], [ %169, %168 ], [ %171, %170 ]
  invoke void @_ZN11xercesc_2_512XMLBufferMgr13releaseBufferERNS_9XMLBufferE(ptr noundef nonnull align 8 dereferenceable(24) %125, ptr noundef nonnull align 8 dereferenceable(32) %126)
          to label %301 unwind label %304

301:                                              ; preds = %33, %37, %39, %35, %154, %299
  %302 = phi { ptr, i32 } [ %155, %154 ], [ %300, %299 ], [ %34, %33 ], [ %36, %35 ], [ %38, %37 ], [ %40, %39 ]
  invoke void @_ZN11xercesc_2_512XMLBufferMgr13releaseBufferERNS_9XMLBufferE(ptr noundef nonnull align 8 dereferenceable(24) %8, ptr noundef nonnull align 8 dereferenceable(32) %9)
          to label %303 unwind label %304

303:                                              ; preds = %301
  resume { ptr, i32 } %302

304:                                              ; preds = %301, %299
  %305 = landingpad { ptr, i32 }
          catch ptr null
  %306 = extractvalue { ptr, i32 } %305, 0
  call void @__clang_call_terminate(ptr %306) #12
  unreachable
}

declare noundef ptr @_ZN11xercesc_2_59ReaderMgr18createIntEntReaderEPKtNS_9XMLReader7RefFromENS3_5TypesES2_jbb(ptr noundef nonnull align 8 dereferenceable(80), ptr noundef, i32 noundef, i32 noundef, ptr noundef, i32 noundef, i1 noundef zeroext, i1 noundef zeroext) local_unnamed_addr #1

; Function Attrs: uwtable
define dso_local noundef zeroext i1 @_ZN11xercesc_2_510DTDScanner15getQuotedStringERNS_9XMLBufferE(ptr nocapture noundef nonnull readonly align 8 dereferenceable(112) %0, ptr noundef nonnull align 8 dereferenceable(32) %1) local_unnamed_addr #3 align 2 {
  %3 = alloca i16, align 2
  %4 = getelementptr inbounds %"class.xercesc_2_5::XMLBuffer", ptr %1, i64 0, i32 1
  store i32 0, ptr %4, align 4, !tbaa !111
  %5 = getelementptr inbounds %"class.xercesc_2_5::XMLBuffer", ptr %1, i64 0, i32 4
  %6 = load ptr, ptr %5, align 8, !tbaa !112
  store i16 0, ptr %6, align 2, !tbaa !113
  call void @llvm.lifetime.start.p0(i64 2, ptr nonnull %3) #11
  %7 = getelementptr inbounds %"class.xercesc_2_5::DTDScanner", ptr %0, i64 0, i32 11
  %8 = load ptr, ptr %7, align 8, !tbaa !87
  %9 = call noundef zeroext i1 @_ZN11xercesc_2_59ReaderMgr11skipIfQuoteERt(ptr noundef nonnull align 8 dereferenceable(80) %8, ptr noundef nonnull align 2 dereferenceable(2) %3)
  br i1 %9, label %10, label %31

10:                                               ; preds = %2
  %11 = getelementptr inbounds %"class.xercesc_2_5::XMLBuffer", ptr %1, i64 0, i32 2
  br label %12

12:                                               ; preds = %10, %25
  %13 = load ptr, ptr %7, align 8, !tbaa !87
  %14 = call noundef zeroext i16 @_ZN11xercesc_2_59ReaderMgr11getNextCharEv(ptr noundef nonnull align 8 dereferenceable(80) %13)
  %15 = load i16, ptr %3, align 2, !tbaa !113
  %16 = icmp eq i16 %14, %15
  %17 = icmp eq i16 %14, 0
  %18 = or i1 %16, %17
  br i1 %18, label %31, label %19

19:                                               ; preds = %12
  %20 = load i32, ptr %4, align 4, !tbaa !111
  %21 = load i32, ptr %11, align 8, !tbaa !134
  %22 = icmp eq i32 %20, %21
  br i1 %22, label %23, label %25

23:                                               ; preds = %19
  call void @_ZN11xercesc_2_59XMLBuffer6expandEv(ptr noundef nonnull align 8 dereferenceable(32) %1)
  %24 = load i32, ptr %4, align 4, !tbaa !111
  br label %25

25:                                               ; preds = %23, %19
  %26 = phi i32 [ %24, %23 ], [ %20, %19 ]
  %27 = load ptr, ptr %5, align 8, !tbaa !112
  %28 = add i32 %26, 1
  store i32 %28, ptr %4, align 4, !tbaa !111
  %29 = zext i32 %26 to i64
  %30 = getelementptr inbounds i16, ptr %27, i64 %29
  store i16 %14, ptr %30, align 2, !tbaa !113
  br label %12

31:                                               ; preds = %12, %2
  %32 = phi i1 [ false, %2 ], [ %16, %12 ]
  call void @llvm.lifetime.end.p0(i64 2, ptr nonnull %3) #11
  ret i1 %32
}

declare noundef zeroext i1 @_ZN11xercesc_2_59ReaderMgr11skipIfQuoteERt(ptr noundef nonnull align 8 dereferenceable(80), ptr noundef nonnull align 2 dereferenceable(2)) local_unnamed_addr #1

declare noundef zeroext i16 @_ZN11xercesc_2_59ReaderMgr11getNextCharEv(ptr noundef nonnull align 8 dereferenceable(80)) local_unnamed_addr #1

; Function Attrs: uwtable
define dso_local noundef ptr @_ZN11xercesc_2_510DTDScanner10scanAttDefERNS_14DTDElementDeclERNS_9XMLBufferE(ptr nocapture noundef nonnull align 8 dereferenceable(112) %0, ptr noundef nonnull align 8 dereferenceable(88) %1, ptr noundef nonnull align 8 dereferenceable(32) %2) local_unnamed_addr #3 align 2 personality ptr @__gxx_personality_v0 {
  %4 = tail call noundef zeroext i1 @_ZN11xercesc_2_510DTDScanner13checkForPERefEbb(ptr noundef nonnull align 8 dereferenceable(112) %0, i1 noundef zeroext false, i1 noundef zeroext true)
  %5 = getelementptr inbounds %"class.xercesc_2_5::DTDScanner", ptr %0, i64 0, i32 11
  %6 = load ptr, ptr %5, align 8, !tbaa !87
  %7 = getelementptr inbounds %"class.xercesc_2_5::XMLBuffer", ptr %2, i64 0, i32 1
  store i32 0, ptr %7, align 4, !tbaa !111
  %8 = getelementptr inbounds %"class.xercesc_2_5::XMLBuffer", ptr %2, i64 0, i32 4
  %9 = load ptr, ptr %8, align 8, !tbaa !112
  store i16 0, ptr %9, align 2, !tbaa !113
  %10 = getelementptr inbounds %"class.xercesc_2_5::ReaderMgr", ptr %6, i64 0, i32 2
  %11 = load ptr, ptr %10, align 8, !tbaa !100
  %12 = tail call noundef zeroext i1 @_ZN11xercesc_2_59XMLReader7getNameERNS_9XMLBufferEb(ptr noundef nonnull align 8 dereferenceable(98456) %11, ptr noundef nonnull align 8 dereferenceable(32) %2, i1 noundef zeroext false)
  br i1 %12, label %16, label %13

13:                                               ; preds = %3
  %14 = getelementptr inbounds %"class.xercesc_2_5::DTDScanner", ptr %0, i64 0, i32 12
  %15 = load ptr, ptr %14, align 8, !tbaa !86
  tail call void @_ZN11xercesc_2_510XMLScanner9emitErrorENS_7XMLErrs5CodesE(ptr noundef nonnull align 8 dereferenceable(664) %15, i32 noundef 174)
  br label %374

16:                                               ; preds = %3
  %17 = load ptr, ptr %8, align 8, !tbaa !112
  %18 = load i32, ptr %7, align 4, !tbaa !111
  %19 = zext i32 %18 to i64
  %20 = getelementptr inbounds i16, ptr %17, i64 %19
  store i16 0, ptr %20, align 2, !tbaa !113
  %21 = tail call noundef ptr @_ZN11xercesc_2_514DTDElementDecl9getAttDefEPKt(ptr noundef nonnull align 8 dereferenceable(88) %1, ptr noundef %17)
  %22 = icmp eq ptr %21, null
  br i1 %22, label %55, label %23

23:                                               ; preds = %16
  %24 = getelementptr inbounds %"class.xercesc_2_5::DTDScanner", ptr %0, i64 0, i32 12
  %25 = load ptr, ptr %24, align 8, !tbaa !86
  %26 = load ptr, ptr %8, align 8, !tbaa !112
  %27 = load i32, ptr %7, align 4, !tbaa !111
  %28 = zext i32 %27 to i64
  %29 = getelementptr inbounds i16, ptr %26, i64 %28
  store i16 0, ptr %29, align 2, !tbaa !113
  %30 = getelementptr inbounds %"class.xercesc_2_5::XMLElementDecl", ptr %1, i64 0, i32 2
  %31 = load ptr, ptr %30, align 8, !tbaa !136
  %32 = tail call noundef ptr @_ZN11xercesc_2_55QName10getRawNameEv(ptr noundef nonnull align 8 dereferenceable(64) %31)
  tail call void @_ZN11xercesc_2_510XMLScanner9emitErrorENS_7XMLErrs5CodesEPKtS4_S4_S4_(ptr noundef nonnull align 8 dereferenceable(664) %25, i32 noundef 3, ptr noundef %26, ptr noundef %32, ptr noundef null, ptr noundef null)
  %33 = getelementptr inbounds %"class.xercesc_2_5::DTDScanner", ptr %0, i64 0, i32 4
  %34 = load ptr, ptr %33, align 8, !tbaa !80
  %35 = icmp eq ptr %34, null
  br i1 %35, label %36, label %48

36:                                               ; preds = %23
  %37 = getelementptr inbounds %"class.xercesc_2_5::DTDScanner", ptr %0, i64 0, i32 1
  %38 = load ptr, ptr %37, align 8, !tbaa !65
  %39 = tail call noundef ptr @_ZN11xercesc_2_57XMemorynwEmPNS_13MemoryManagerE(i64 noundef 72, ptr noundef %38)
  %40 = load ptr, ptr %37, align 8, !tbaa !65
  invoke void @_ZN11xercesc_2_59DTDAttDefC1EPNS_13MemoryManagerE(ptr noundef nonnull align 8 dereferenceable(72) %39, ptr noundef %40)
          to label %41 unwind label %46

41:                                               ; preds = %36
  store ptr %39, ptr %33, align 8, !tbaa !80
  %42 = getelementptr inbounds %"class.xercesc_2_5::DTDScanner", ptr %0, i64 0, i32 8
  %43 = load i32, ptr %42, align 4, !tbaa !69
  %44 = add i32 %43, 1
  store i32 %44, ptr %42, align 4, !tbaa !69
  %45 = getelementptr inbounds %"class.xercesc_2_5::XMLAttDef", ptr %39, i64 0, i32 6
  store i32 %43, ptr %45, align 8, !tbaa !139
  br label %48

46:                                               ; preds = %36
  %47 = landingpad { ptr, i32 }
          cleanup
  invoke void @_ZN11xercesc_2_57XMemorydlEPvPNS_13MemoryManagerE(ptr noundef %39, ptr noundef %38)
          to label %372 unwind label %376

48:                                               ; preds = %41, %23
  %49 = phi ptr [ %39, %41 ], [ %34, %23 ]
  %50 = load ptr, ptr %8, align 8, !tbaa !112
  %51 = load i32, ptr %7, align 4, !tbaa !111
  %52 = zext i32 %51 to i64
  %53 = getelementptr inbounds i16, ptr %50, i64 %52
  store i16 0, ptr %53, align 2, !tbaa !113
  tail call void @_ZN11xercesc_2_59DTDAttDef7setNameEPKt(ptr noundef nonnull align 8 dereferenceable(72) %49, ptr noundef %50)
  %54 = load ptr, ptr %33, align 8, !tbaa !80
  br label %83

55:                                               ; preds = %16
  %56 = getelementptr inbounds %"class.xercesc_2_5::DTDScanner", ptr %0, i64 0, i32 2
  %57 = load ptr, ptr %56, align 8, !tbaa !67
  %58 = tail call noundef ptr @_ZN11xercesc_2_57XMemorynwEmPNS_13MemoryManagerE(i64 noundef 72, ptr noundef %57)
  %59 = load ptr, ptr %8, align 8, !tbaa !112
  %60 = load i32, ptr %7, align 4, !tbaa !111
  %61 = zext i32 %60 to i64
  %62 = getelementptr inbounds i16, ptr %59, i64 %61
  store i16 0, ptr %62, align 2, !tbaa !113
  %63 = load ptr, ptr %56, align 8, !tbaa !67
  invoke void @_ZN11xercesc_2_59DTDAttDefC1EPKtNS_9XMLAttDef8AttTypesENS3_11DefAttTypesEPNS_13MemoryManagerE(ptr noundef nonnull align 8 dereferenceable(72) %58, ptr noundef nonnull %59, i32 noundef 0, i32 noundef 4, ptr noundef %63)
          to label %64 unwind label %81

64:                                               ; preds = %55
  %65 = getelementptr inbounds %"class.xercesc_2_5::DTDScanner", ptr %0, i64 0, i32 8
  %66 = load i32, ptr %65, align 4, !tbaa !69
  %67 = add i32 %66, 1
  store i32 %67, ptr %65, align 4, !tbaa !69
  %68 = getelementptr inbounds %"class.xercesc_2_5::XMLAttDef", ptr %58, i64 0, i32 6
  store i32 %66, ptr %68, align 8, !tbaa !139
  %69 = getelementptr inbounds %"class.xercesc_2_5::DTDScanner", ptr %0, i64 0, i32 15
  %70 = load i32, ptr %69, align 4, !tbaa !108
  %71 = load ptr, ptr %5, align 8, !tbaa !87
  %72 = getelementptr inbounds %"class.xercesc_2_5::ReaderMgr", ptr %71, i64 0, i32 2
  %73 = load ptr, ptr %72, align 8, !tbaa !100
  %74 = getelementptr inbounds %"class.xercesc_2_5::XMLReader", ptr %73, i64 0, i32 14
  %75 = load i32, ptr %74, align 8, !tbaa !101
  %76 = icmp ne i32 %70, %75
  %77 = zext i1 %76 to i8
  %78 = getelementptr inbounds %"class.xercesc_2_5::XMLAttDef", ptr %58, i64 0, i32 5
  store i8 %77, ptr %78, align 1, !tbaa !144
  tail call void @_ZN11xercesc_2_514DTDElementDecl9addAttDefEPNS_9DTDAttDefE(ptr noundef nonnull align 8 dereferenceable(88) %1, ptr noundef nonnull %58)
  %79 = getelementptr inbounds %"class.xercesc_2_5::DTDScanner", ptr %0, i64 0, i32 4
  %80 = load ptr, ptr %79, align 8, !tbaa !80
  br label %83

81:                                               ; preds = %55
  %82 = landingpad { ptr, i32 }
          cleanup
  invoke void @_ZN11xercesc_2_57XMemorydlEPvPNS_13MemoryManagerE(ptr noundef %58, ptr noundef %57)
          to label %372 unwind label %376

83:                                               ; preds = %64, %48
  %84 = phi ptr [ %54, %48 ], [ %80, %64 ]
  %85 = phi ptr [ %54, %48 ], [ %58, %64 ]
  %86 = icmp eq ptr %85, %84
  %87 = tail call noundef zeroext i1 @_ZN11xercesc_2_510DTDScanner13checkForPERefEbb(ptr noundef nonnull align 8 dereferenceable(112) %0, i1 noundef zeroext false, i1 noundef zeroext true)
  br i1 %87, label %91, label %88

88:                                               ; preds = %83
  %89 = getelementptr inbounds %"class.xercesc_2_5::DTDScanner", ptr %0, i64 0, i32 12
  %90 = load ptr, ptr %89, align 8, !tbaa !86
  tail call void @_ZN11xercesc_2_510XMLScanner9emitErrorENS_7XMLErrs5CodesE(ptr noundef nonnull align 8 dereferenceable(664) %90, i32 noundef 207)
  br label %91

91:                                               ; preds = %88, %83
  %92 = load ptr, ptr %5, align 8, !tbaa !87
  %93 = getelementptr inbounds %"class.xercesc_2_5::ReaderMgr", ptr %92, i64 0, i32 2
  %94 = load ptr, ptr %93, align 8, !tbaa !100
  %95 = tail call noundef zeroext i1 @_ZN11xercesc_2_59XMLReader13skippedStringEPKt(ptr noundef nonnull align 8 dereferenceable(98456) %94, ptr noundef nonnull @_ZN11xercesc_2_56XMLUni13fgCDATAStringE)
  br i1 %95, label %96, label %98

96:                                               ; preds = %91
  %97 = getelementptr inbounds %"class.xercesc_2_5::XMLAttDef", ptr %85, i64 0, i32 2
  store i32 0, ptr %97, align 4, !tbaa !145
  br label %188

98:                                               ; preds = %91
  %99 = load ptr, ptr %5, align 8, !tbaa !87
  %100 = getelementptr inbounds %"class.xercesc_2_5::ReaderMgr", ptr %99, i64 0, i32 2
  %101 = load ptr, ptr %100, align 8, !tbaa !100
  %102 = tail call noundef zeroext i1 @_ZN11xercesc_2_59XMLReader13skippedStringEPKt(ptr noundef nonnull align 8 dereferenceable(98456) %101, ptr noundef nonnull @_ZN11xercesc_2_56XMLUni10fgIDStringE)
  %103 = load ptr, ptr %5, align 8, !tbaa !87
  %104 = getelementptr inbounds %"class.xercesc_2_5::ReaderMgr", ptr %103, i64 0, i32 2
  %105 = load ptr, ptr %104, align 8, !tbaa !100
  br i1 %102, label %106, label %116

106:                                              ; preds = %98
  %107 = tail call noundef zeroext i1 @_ZN11xercesc_2_59XMLReader13skippedStringEPKt(ptr noundef nonnull align 8 dereferenceable(98456) %105, ptr noundef nonnull @_ZN11xercesc_2_56XMLUni11fgRefStringE)
  br i1 %107, label %110, label %108

108:                                              ; preds = %106
  %109 = getelementptr inbounds %"class.xercesc_2_5::XMLAttDef", ptr %85, i64 0, i32 2
  store i32 1, ptr %109, align 4, !tbaa !145
  br label %188

110:                                              ; preds = %106
  %111 = load ptr, ptr %5, align 8, !tbaa !87
  %112 = tail call noundef zeroext i1 @_ZN11xercesc_2_59ReaderMgr11skippedCharEt(ptr noundef nonnull align 8 dereferenceable(80) %111, i16 noundef zeroext 83)
  %113 = getelementptr inbounds %"class.xercesc_2_5::XMLAttDef", ptr %85, i64 0, i32 2
  br i1 %112, label %115, label %114

114:                                              ; preds = %110
  store i32 2, ptr %113, align 4, !tbaa !145
  br label %188

115:                                              ; preds = %110
  store i32 3, ptr %113, align 4, !tbaa !145
  br label %188

116:                                              ; preds = %98
  %117 = tail call noundef zeroext i1 @_ZN11xercesc_2_59XMLReader13skippedStringEPKt(ptr noundef nonnull align 8 dereferenceable(98456) %105, ptr noundef nonnull @_ZN11xercesc_2_56XMLUni13fgEntitStringE)
  %118 = load ptr, ptr %5, align 8, !tbaa !87
  br i1 %117, label %119, label %140

119:                                              ; preds = %116
  %120 = tail call noundef zeroext i1 @_ZN11xercesc_2_59ReaderMgr11skippedCharEt(ptr noundef nonnull align 8 dereferenceable(80) %118, i16 noundef zeroext 89)
  br i1 %120, label %121, label %123

121:                                              ; preds = %119
  %122 = getelementptr inbounds %"class.xercesc_2_5::XMLAttDef", ptr %85, i64 0, i32 2
  store i32 4, ptr %122, align 4, !tbaa !145
  br label %188

123:                                              ; preds = %119
  %124 = load ptr, ptr %5, align 8, !tbaa !87
  %125 = getelementptr inbounds %"class.xercesc_2_5::ReaderMgr", ptr %124, i64 0, i32 2
  %126 = load ptr, ptr %125, align 8, !tbaa !100
  %127 = tail call noundef zeroext i1 @_ZN11xercesc_2_59XMLReader13skippedStringEPKt(ptr noundef nonnull align 8 dereferenceable(98456) %126, ptr noundef nonnull @_ZN11xercesc_2_56XMLUni11fgIESStringE)
  br i1 %127, label %128, label %130

128:                                              ; preds = %123
  %129 = getelementptr inbounds %"class.xercesc_2_5::XMLAttDef", ptr %85, i64 0, i32 2
  store i32 5, ptr %129, align 4, !tbaa !145
  br label %188

130:                                              ; preds = %123
  %131 = getelementptr inbounds %"class.xercesc_2_5::DTDScanner", ptr %0, i64 0, i32 12
  %132 = load ptr, ptr %131, align 8, !tbaa !86
  %133 = load ptr, ptr %85, align 8, !tbaa !48
  %134 = getelementptr inbounds ptr, ptr %133, i64 5
  %135 = load ptr, ptr %134, align 8
  %136 = tail call noundef ptr %135(ptr noundef nonnull align 8 dereferenceable(72) %85)
  %137 = getelementptr inbounds %"class.xercesc_2_5::XMLElementDecl", ptr %1, i64 0, i32 2
  %138 = load ptr, ptr %137, align 8, !tbaa !136
  %139 = tail call noundef ptr @_ZN11xercesc_2_55QName10getRawNameEv(ptr noundef nonnull align 8 dereferenceable(64) %138)
  tail call void @_ZN11xercesc_2_510XMLScanner9emitErrorENS_7XMLErrs5CodesEPKtS4_S4_S4_(ptr noundef nonnull align 8 dereferenceable(664) %132, i32 noundef 201, ptr noundef %136, ptr noundef %139, ptr noundef null, ptr noundef null)
  br label %374

140:                                              ; preds = %116
  %141 = getelementptr inbounds %"class.xercesc_2_5::ReaderMgr", ptr %118, i64 0, i32 2
  %142 = load ptr, ptr %141, align 8, !tbaa !100
  %143 = tail call noundef zeroext i1 @_ZN11xercesc_2_59XMLReader13skippedStringEPKt(ptr noundef nonnull align 8 dereferenceable(98456) %142, ptr noundef nonnull @_ZN11xercesc_2_56XMLUni15fgNmTokenStringE)
  %144 = load ptr, ptr %5, align 8, !tbaa !87
  br i1 %143, label %145, label %150

145:                                              ; preds = %140
  %146 = tail call noundef zeroext i1 @_ZN11xercesc_2_59ReaderMgr11skippedCharEt(ptr noundef nonnull align 8 dereferenceable(80) %144, i16 noundef zeroext 83)
  %147 = getelementptr inbounds %"class.xercesc_2_5::XMLAttDef", ptr %85, i64 0, i32 2
  br i1 %146, label %148, label %149

148:                                              ; preds = %145
  store i32 7, ptr %147, align 4, !tbaa !145
  br label %188

149:                                              ; preds = %145
  store i32 6, ptr %147, align 4, !tbaa !145
  br label %188

150:                                              ; preds = %140
  %151 = getelementptr inbounds %"class.xercesc_2_5::ReaderMgr", ptr %144, i64 0, i32 2
  %152 = load ptr, ptr %151, align 8, !tbaa !100
  %153 = tail call noundef zeroext i1 @_ZN11xercesc_2_59XMLReader13skippedStringEPKt(ptr noundef nonnull align 8 dereferenceable(98456) %152, ptr noundef nonnull @_ZN11xercesc_2_56XMLUni16fgNotationStringE)
  br i1 %153, label %154, label %167

154:                                              ; preds = %150
  %155 = tail call noundef zeroext i1 @_ZN11xercesc_2_510DTDScanner13checkForPERefEbb(ptr noundef nonnull align 8 dereferenceable(112) %0, i1 noundef zeroext false, i1 noundef zeroext true)
  br i1 %155, label %159, label %156

156:                                              ; preds = %154
  %157 = getelementptr inbounds %"class.xercesc_2_5::DTDScanner", ptr %0, i64 0, i32 12
  %158 = load ptr, ptr %157, align 8, !tbaa !86
  tail call void @_ZN11xercesc_2_510XMLScanner9emitErrorENS_7XMLErrs5CodesE(ptr noundef nonnull align 8 dereferenceable(664) %158, i32 noundef 207)
  br label %159

159:                                              ; preds = %156, %154
  %160 = getelementptr inbounds %"class.xercesc_2_5::XMLAttDef", ptr %85, i64 0, i32 2
  store i32 8, ptr %160, align 4, !tbaa !145
  %161 = tail call noundef zeroext i1 @_ZN11xercesc_2_510DTDScanner15scanEnumerationERKNS_9DTDAttDefERNS_9XMLBufferEb(ptr noundef nonnull align 8 dereferenceable(112) %0, ptr noundef nonnull align 8 dereferenceable(72) %85, ptr noundef nonnull align 8 dereferenceable(32) %2, i1 noundef zeroext true)
  br i1 %161, label %162, label %374

162:                                              ; preds = %159
  %163 = load ptr, ptr %8, align 8, !tbaa !112
  %164 = load i32, ptr %7, align 4, !tbaa !111
  %165 = zext i32 %164 to i64
  %166 = getelementptr inbounds i16, ptr %163, i64 %165
  store i16 0, ptr %166, align 2, !tbaa !113
  tail call void @_ZN11xercesc_2_59XMLAttDef14setEnumerationEPKt(ptr noundef nonnull align 8 dereferenceable(56) %85, ptr noundef %163)
  br label %188

167:                                              ; preds = %150
  %168 = load ptr, ptr %5, align 8, !tbaa !87
  %169 = tail call noundef zeroext i1 @_ZN11xercesc_2_59ReaderMgr11skippedCharEt(ptr noundef nonnull align 8 dereferenceable(80) %168, i16 noundef zeroext 40)
  br i1 %169, label %170, label %178

170:                                              ; preds = %167
  %171 = getelementptr inbounds %"class.xercesc_2_5::XMLAttDef", ptr %85, i64 0, i32 2
  store i32 9, ptr %171, align 4, !tbaa !145
  %172 = tail call noundef zeroext i1 @_ZN11xercesc_2_510DTDScanner15scanEnumerationERKNS_9DTDAttDefERNS_9XMLBufferEb(ptr noundef nonnull align 8 dereferenceable(112) %0, ptr noundef nonnull align 8 dereferenceable(72) %85, ptr noundef nonnull align 8 dereferenceable(32) %2, i1 noundef zeroext false)
  br i1 %172, label %173, label %374

173:                                              ; preds = %170
  %174 = load ptr, ptr %8, align 8, !tbaa !112
  %175 = load i32, ptr %7, align 4, !tbaa !111
  %176 = zext i32 %175 to i64
  %177 = getelementptr inbounds i16, ptr %174, i64 %176
  store i16 0, ptr %177, align 2, !tbaa !113
  tail call void @_ZN11xercesc_2_59XMLAttDef14setEnumerationEPKt(ptr noundef nonnull align 8 dereferenceable(56) %85, ptr noundef %174)
  br label %188

178:                                              ; preds = %167
  %179 = getelementptr inbounds %"class.xercesc_2_5::DTDScanner", ptr %0, i64 0, i32 12
  %180 = load ptr, ptr %179, align 8, !tbaa !86
  %181 = load ptr, ptr %85, align 8, !tbaa !48
  %182 = getelementptr inbounds ptr, ptr %181, i64 5
  %183 = load ptr, ptr %182, align 8
  %184 = tail call noundef ptr %183(ptr noundef nonnull align 8 dereferenceable(72) %85)
  %185 = getelementptr inbounds %"class.xercesc_2_5::XMLElementDecl", ptr %1, i64 0, i32 2
  %186 = load ptr, ptr %185, align 8, !tbaa !136
  %187 = tail call noundef ptr @_ZN11xercesc_2_55QName10getRawNameEv(ptr noundef nonnull align 8 dereferenceable(64) %186)
  tail call void @_ZN11xercesc_2_510XMLScanner9emitErrorENS_7XMLErrs5CodesEPKtS4_S4_S4_(ptr noundef nonnull align 8 dereferenceable(664) %180, i32 noundef 201, ptr noundef %184, ptr noundef %187, ptr noundef null, ptr noundef null)
  br label %374

188:                                              ; preds = %114, %115, %108, %149, %148, %173, %162, %121, %128, %96
  %189 = tail call noundef zeroext i1 @_ZN11xercesc_2_510DTDScanner13checkForPERefEbb(ptr noundef nonnull align 8 dereferenceable(112) %0, i1 noundef zeroext false, i1 noundef zeroext true)
  br i1 %189, label %193, label %190

190:                                              ; preds = %188
  %191 = getelementptr inbounds %"class.xercesc_2_5::DTDScanner", ptr %0, i64 0, i32 12
  %192 = load ptr, ptr %191, align 8, !tbaa !86
  tail call void @_ZN11xercesc_2_510XMLScanner9emitErrorENS_7XMLErrs5CodesE(ptr noundef nonnull align 8 dereferenceable(664) %192, i32 noundef 207)
  br label %193

193:                                              ; preds = %190, %188
  tail call void @_ZN11xercesc_2_510DTDScanner15scanDefaultDeclERNS_9DTDAttDefE(ptr noundef nonnull align 8 dereferenceable(112) %0, ptr noundef nonnull align 8 dereferenceable(72) %85)
  %194 = getelementptr inbounds %"class.xercesc_2_5::DTDScanner", ptr %0, i64 0, i32 12
  %195 = load ptr, ptr %194, align 8, !tbaa !86
  %196 = getelementptr inbounds %"class.xercesc_2_5::XMLScanner", ptr %195, i64 0, i32 9
  %197 = load i8, ptr %196, align 8, !tbaa !116, !range !59, !noundef !60
  %198 = icmp eq i8 %197, 0
  br i1 %198, label %364, label %199

199:                                              ; preds = %193
  %200 = getelementptr inbounds %"class.xercesc_2_5::XMLAttDef", ptr %85, i64 0, i32 2
  %201 = load i32, ptr %200, align 4, !tbaa !145
  %202 = icmp eq i32 %201, 1
  br i1 %202, label %203, label %213

203:                                              ; preds = %199
  %204 = getelementptr inbounds %"class.xercesc_2_5::XMLAttDef", ptr %85, i64 0, i32 1
  %205 = load i32, ptr %204, align 8, !tbaa !146
  switch i32 %205, label %206 [
    i32 4, label %213
    i32 2, label %213
  ]

206:                                              ; preds = %203
  %207 = getelementptr inbounds %"class.xercesc_2_5::XMLScanner", ptr %195, i64 0, i32 41
  %208 = load ptr, ptr %207, align 8, !tbaa !117
  %209 = load ptr, ptr %85, align 8, !tbaa !48
  %210 = getelementptr inbounds ptr, ptr %209, i64 5
  %211 = load ptr, ptr %210, align 8
  %212 = tail call noundef ptr %211(ptr noundef nonnull align 8 dereferenceable(72) %85)
  tail call void @_ZN11xercesc_2_512XMLValidator9emitErrorENS_8XMLValid5CodesEPKtS4_S4_S4_(ptr noundef nonnull align 8 dereferenceable(40) %208, i32 noundef 8, ptr noundef %212, ptr noundef null, ptr noundef null, ptr noundef null)
  br label %213

213:                                              ; preds = %203, %203, %206, %199
  %214 = load ptr, ptr %85, align 8, !tbaa !48
  %215 = getelementptr inbounds ptr, ptr %214, i64 5
  %216 = load ptr, ptr %215, align 8
  %217 = tail call noundef ptr %216(ptr noundef nonnull align 8 dereferenceable(72) %85)
  %218 = icmp eq ptr %217, null
  br i1 %218, label %364, label %219

219:                                              ; preds = %213
  %220 = load i16, ptr %217, align 2, !tbaa !113
  %221 = icmp eq i16 %220, 120
  br i1 %221, label %222, label %364

222:                                              ; preds = %219, %227
  %223 = phi i16 [ %230, %227 ], [ 120, %219 ]
  %224 = phi ptr [ %229, %227 ], [ @__const._ZN11xercesc_2_510DTDScanner10scanAttDefERNS_14DTDElementDeclERNS_9XMLBufferE.fgXMLSpace, %219 ]
  %225 = phi ptr [ %228, %227 ], [ %217, %219 ]
  %226 = icmp eq i16 %223, 0
  br i1 %226, label %233, label %227

227:                                              ; preds = %222
  %228 = getelementptr inbounds i16, ptr %225, i64 1
  %229 = getelementptr inbounds i16, ptr %224, i64 1
  %230 = load i16, ptr %228, align 2, !tbaa !113
  %231 = load i16, ptr %229, align 2, !tbaa !113
  %232 = icmp eq i16 %230, %231
  br i1 %232, label %222, label %364

233:                                              ; preds = %222
  %234 = load i32, ptr %200, align 4, !tbaa !145
  %235 = icmp eq i32 %234, 9
  br i1 %235, label %236, label %356

236:                                              ; preds = %233
  %237 = getelementptr inbounds %"class.xercesc_2_5::XMLAttDef", ptr %85, i64 0, i32 8
  %238 = load ptr, ptr %237, align 8, !tbaa !147
  %239 = getelementptr inbounds %"class.xercesc_2_5::DTDScanner", ptr %0, i64 0, i32 1
  %240 = load ptr, ptr %239, align 8, !tbaa !65
  %241 = tail call noundef ptr @_ZN11xercesc_2_59XMLString14tokenizeStringEPKtPNS_13MemoryManagerE(ptr noundef %238, ptr noundef %240)
  %242 = getelementptr inbounds %"class.xercesc_2_5::BaseRefVectorOf", ptr %241, i64 0, i32 2
  %243 = load i32, ptr %242, align 4, !tbaa !148
  switch i32 %243, label %352 [
    i32 1, label %244
    i32 2, label %280
  ]

244:                                              ; preds = %236
  %245 = getelementptr inbounds %"class.xercesc_2_5::BaseRefVectorOf", ptr %241, i64 0, i32 4
  %246 = load ptr, ptr %245, align 8, !tbaa !150
  %247 = load ptr, ptr %246, align 8, !tbaa !77
  %248 = icmp eq ptr %247, null
  br i1 %248, label %263, label %249

249:                                              ; preds = %244
  %250 = load i16, ptr %247, align 2, !tbaa !113
  %251 = icmp eq i16 %250, 100
  br i1 %251, label %252, label %263

252:                                              ; preds = %249, %257
  %253 = phi i16 [ %260, %257 ], [ 100, %249 ]
  %254 = phi ptr [ %259, %257 ], [ @__const._ZN11xercesc_2_510DTDScanner10scanAttDefERNS_14DTDElementDeclERNS_9XMLBufferE.fgDefault, %249 ]
  %255 = phi ptr [ %258, %257 ], [ %247, %249 ]
  %256 = icmp eq i16 %253, 0
  br i1 %256, label %360, label %257

257:                                              ; preds = %252
  %258 = getelementptr inbounds i16, ptr %255, i64 1
  %259 = getelementptr inbounds i16, ptr %254, i64 1
  %260 = load i16, ptr %258, align 2, !tbaa !113
  %261 = load i16, ptr %259, align 2, !tbaa !113
  %262 = icmp eq i16 %260, %261
  br i1 %262, label %252, label %263

263:                                              ; preds = %257, %244, %249
  %264 = tail call noundef ptr @_ZN11xercesc_2_515BaseRefVectorOfItE9elementAtEj(ptr noundef nonnull align 8 dereferenceable(40) %241, i32 noundef 0)
  %265 = icmp eq ptr %264, null
  br i1 %265, label %352, label %266

266:                                              ; preds = %263
  %267 = load i16, ptr %264, align 2, !tbaa !113
  %268 = icmp eq i16 %267, 112
  br i1 %268, label %269, label %352

269:                                              ; preds = %266, %274
  %270 = phi i16 [ %277, %274 ], [ 112, %266 ]
  %271 = phi ptr [ %276, %274 ], [ @__const._ZN11xercesc_2_510DTDScanner10scanAttDefERNS_14DTDElementDeclERNS_9XMLBufferE.fgPreserve, %266 ]
  %272 = phi ptr [ %275, %274 ], [ %264, %266 ]
  %273 = icmp eq i16 %270, 0
  br i1 %273, label %360, label %274

274:                                              ; preds = %269
  %275 = getelementptr inbounds i16, ptr %272, i64 1
  %276 = getelementptr inbounds i16, ptr %271, i64 1
  %277 = load i16, ptr %275, align 2, !tbaa !113
  %278 = load i16, ptr %276, align 2, !tbaa !113
  %279 = icmp eq i16 %277, %278
  br i1 %279, label %269, label %352

280:                                              ; preds = %236
  %281 = tail call noundef ptr @_ZN11xercesc_2_515BaseRefVectorOfItE9elementAtEj(ptr noundef nonnull align 8 dereferenceable(40) %241, i32 noundef 0)
  %282 = icmp eq ptr %281, null
  br i1 %282, label %314, label %283

283:                                              ; preds = %280
  %284 = load i16, ptr %281, align 2, !tbaa !113
  %285 = icmp eq i16 %284, 100
  br i1 %285, label %286, label %314

286:                                              ; preds = %283, %291
  %287 = phi i16 [ %294, %291 ], [ 100, %283 ]
  %288 = phi ptr [ %293, %291 ], [ @__const._ZN11xercesc_2_510DTDScanner10scanAttDefERNS_14DTDElementDeclERNS_9XMLBufferE.fgDefault, %283 ]
  %289 = phi ptr [ %292, %291 ], [ %281, %283 ]
  %290 = icmp eq i16 %287, 0
  br i1 %290, label %297, label %291

291:                                              ; preds = %286
  %292 = getelementptr inbounds i16, ptr %289, i64 1
  %293 = getelementptr inbounds i16, ptr %288, i64 1
  %294 = load i16, ptr %292, align 2, !tbaa !113
  %295 = load i16, ptr %293, align 2, !tbaa !113
  %296 = icmp eq i16 %294, %295
  br i1 %296, label %286, label %314

297:                                              ; preds = %286
  %298 = tail call noundef ptr @_ZN11xercesc_2_515BaseRefVectorOfItE9elementAtEj(ptr noundef nonnull align 8 dereferenceable(40) %241, i32 noundef 1)
  %299 = icmp eq ptr %298, null
  br i1 %299, label %314, label %300

300:                                              ; preds = %297
  %301 = load i16, ptr %298, align 2, !tbaa !113
  %302 = icmp eq i16 %301, 112
  br i1 %302, label %303, label %314

303:                                              ; preds = %300, %308
  %304 = phi i16 [ %311, %308 ], [ 112, %300 ]
  %305 = phi ptr [ %310, %308 ], [ @__const._ZN11xercesc_2_510DTDScanner10scanAttDefERNS_14DTDElementDeclERNS_9XMLBufferE.fgPreserve, %300 ]
  %306 = phi ptr [ %309, %308 ], [ %298, %300 ]
  %307 = icmp eq i16 %304, 0
  br i1 %307, label %348, label %308

308:                                              ; preds = %303
  %309 = getelementptr inbounds i16, ptr %306, i64 1
  %310 = getelementptr inbounds i16, ptr %305, i64 1
  %311 = load i16, ptr %309, align 2, !tbaa !113
  %312 = load i16, ptr %310, align 2, !tbaa !113
  %313 = icmp eq i16 %311, %312
  br i1 %313, label %303, label %314

314:                                              ; preds = %291, %308, %297, %280, %300, %283
  %315 = tail call noundef ptr @_ZN11xercesc_2_515BaseRefVectorOfItE9elementAtEj(ptr noundef nonnull align 8 dereferenceable(40) %241, i32 noundef 1)
  %316 = icmp eq ptr %315, null
  br i1 %316, label %352, label %317

317:                                              ; preds = %314
  %318 = load i16, ptr %315, align 2, !tbaa !113
  %319 = icmp eq i16 %318, 100
  br i1 %319, label %320, label %352

320:                                              ; preds = %317, %325
  %321 = phi i16 [ %328, %325 ], [ 100, %317 ]
  %322 = phi ptr [ %327, %325 ], [ @__const._ZN11xercesc_2_510DTDScanner10scanAttDefERNS_14DTDElementDeclERNS_9XMLBufferE.fgDefault, %317 ]
  %323 = phi ptr [ %326, %325 ], [ %315, %317 ]
  %324 = icmp eq i16 %321, 0
  br i1 %324, label %331, label %325

325:                                              ; preds = %320
  %326 = getelementptr inbounds i16, ptr %323, i64 1
  %327 = getelementptr inbounds i16, ptr %322, i64 1
  %328 = load i16, ptr %326, align 2, !tbaa !113
  %329 = load i16, ptr %327, align 2, !tbaa !113
  %330 = icmp eq i16 %328, %329
  br i1 %330, label %320, label %352

331:                                              ; preds = %320
  %332 = tail call noundef ptr @_ZN11xercesc_2_515BaseRefVectorOfItE9elementAtEj(ptr noundef nonnull align 8 dereferenceable(40) %241, i32 noundef 0)
  %333 = icmp eq ptr %332, null
  br i1 %333, label %352, label %334

334:                                              ; preds = %331
  %335 = load i16, ptr %332, align 2, !tbaa !113
  %336 = icmp eq i16 %335, 112
  br i1 %336, label %337, label %352

337:                                              ; preds = %334, %342
  %338 = phi i16 [ %345, %342 ], [ 112, %334 ]
  %339 = phi ptr [ %344, %342 ], [ @__const._ZN11xercesc_2_510DTDScanner10scanAttDefERNS_14DTDElementDeclERNS_9XMLBufferE.fgPreserve, %334 ]
  %340 = phi ptr [ %343, %342 ], [ %332, %334 ]
  %341 = icmp eq i16 %338, 0
  br i1 %341, label %348, label %342

342:                                              ; preds = %337
  %343 = getelementptr inbounds i16, ptr %340, i64 1
  %344 = getelementptr inbounds i16, ptr %339, i64 1
  %345 = load i16, ptr %343, align 2, !tbaa !113
  %346 = load i16, ptr %344, align 2, !tbaa !113
  %347 = icmp eq i16 %345, %346
  br i1 %347, label %337, label %352

348:                                              ; preds = %303, %337
  %349 = load ptr, ptr %241, align 8, !tbaa !48
  %350 = getelementptr inbounds ptr, ptr %349, i64 1
  %351 = load ptr, ptr %350, align 8
  tail call void %351(ptr noundef nonnull align 8 dereferenceable(40) %241)
  br label %364

352:                                              ; preds = %325, %342, %274, %317, %236, %314, %263, %266, %334, %331
  %353 = load ptr, ptr %241, align 8, !tbaa !48
  %354 = getelementptr inbounds ptr, ptr %353, i64 1
  %355 = load ptr, ptr %354, align 8
  tail call void %355(ptr noundef nonnull align 8 dereferenceable(40) %241)
  br label %356

356:                                              ; preds = %352, %233
  %357 = load ptr, ptr %194, align 8, !tbaa !86
  %358 = getelementptr inbounds %"class.xercesc_2_5::XMLScanner", ptr %357, i64 0, i32 41
  %359 = load ptr, ptr %358, align 8, !tbaa !117
  tail call void @_ZN11xercesc_2_512XMLValidator9emitErrorENS_8XMLValid5CodesE(ptr noundef nonnull align 8 dereferenceable(40) %359, i32 noundef 50)
  br label %364

360:                                              ; preds = %252, %269
  %361 = load ptr, ptr %241, align 8, !tbaa !48
  %362 = getelementptr inbounds ptr, ptr %361, i64 1
  %363 = load ptr, ptr %362, align 8
  tail call void %363(ptr noundef nonnull align 8 dereferenceable(40) %241)
  br label %364

364:                                              ; preds = %227, %219, %213, %348, %360, %356, %193
  %365 = getelementptr inbounds %"class.xercesc_2_5::DTDScanner", ptr %0, i64 0, i32 3
  %366 = load ptr, ptr %365, align 8, !tbaa !68
  %367 = icmp eq ptr %366, null
  br i1 %367, label %374, label %368

368:                                              ; preds = %364
  %369 = load ptr, ptr %366, align 8, !tbaa !48
  %370 = getelementptr inbounds ptr, ptr %369, i64 2
  %371 = load ptr, ptr %370, align 8
  tail call void %371(ptr noundef nonnull align 8 dereferenceable(8) %366, ptr noundef nonnull align 8 dereferenceable(88) %1, ptr noundef nonnull align 8 dereferenceable(72) %85, i1 noundef zeroext %86)
  br label %374

372:                                              ; preds = %81, %46
  %373 = phi { ptr, i32 } [ %47, %46 ], [ %82, %81 ]
  resume { ptr, i32 } %373

374:                                              ; preds = %130, %178, %159, %170, %368, %364, %13
  %375 = phi ptr [ null, %13 ], [ null, %130 ], [ null, %178 ], [ null, %159 ], [ null, %170 ], [ %85, %368 ], [ %85, %364 ]
  ret ptr %375

376:                                              ; preds = %81, %46
  %377 = landingpad { ptr, i32 }
          catch ptr null
  %378 = extractvalue { ptr, i32 } %377, 0
  tail call void @__clang_call_terminate(ptr %378) #12
  unreachable
}

declare noundef ptr @_ZN11xercesc_2_514DTDElementDecl9getAttDefEPKt(ptr noundef nonnull align 8 dereferenceable(88), ptr noundef) local_unnamed_addr #1

declare void @_ZN11xercesc_2_59DTDAttDefC1EPNS_13MemoryManagerE(ptr noundef nonnull align 8 dereferenceable(72), ptr noundef) unnamed_addr #1

declare void @_ZN11xercesc_2_59DTDAttDef7setNameEPKt(ptr noundef nonnull align 8 dereferenceable(72), ptr noundef) local_unnamed_addr #1

declare void @_ZN11xercesc_2_59DTDAttDefC1EPKtNS_9XMLAttDef8AttTypesENS3_11DefAttTypesEPNS_13MemoryManagerE(ptr noundef nonnull align 8 dereferenceable(72), ptr noundef, i32 noundef, i32 noundef, ptr noundef) unnamed_addr #1

declare void @_ZN11xercesc_2_514DTDElementDecl9addAttDefEPNS_9DTDAttDefE(ptr noundef nonnull align 8 dereferenceable(88), ptr noundef) local_unnamed_addr #1

; Function Attrs: uwtable
define dso_local noundef zeroext i1 @_ZN11xercesc_2_510DTDScanner15scanEnumerationERKNS_9DTDAttDefERNS_9XMLBufferEb(ptr nocapture noundef nonnull align 8 dereferenceable(112) %0, ptr noundef nonnull align 8 dereferenceable(72) %1, ptr noundef nonnull align 8 dereferenceable(32) %2, i1 noundef zeroext %3) local_unnamed_addr #3 align 2 personality ptr @__gxx_personality_v0 {
  %5 = getelementptr inbounds %"class.xercesc_2_5::XMLBuffer", ptr %2, i64 0, i32 1
  store i32 0, ptr %5, align 4, !tbaa !111
  %6 = getelementptr inbounds %"class.xercesc_2_5::XMLBuffer", ptr %2, i64 0, i32 4
  %7 = load ptr, ptr %6, align 8, !tbaa !112
  store i16 0, ptr %7, align 2, !tbaa !113
  %8 = tail call noundef zeroext i1 @_ZN11xercesc_2_510DTDScanner13checkForPERefEbb(ptr noundef nonnull align 8 dereferenceable(112) %0, i1 noundef zeroext false, i1 noundef zeroext true)
  br i1 %3, label %9, label %16

9:                                                ; preds = %4
  %10 = getelementptr inbounds %"class.xercesc_2_5::DTDScanner", ptr %0, i64 0, i32 11
  %11 = load ptr, ptr %10, align 8, !tbaa !87
  %12 = tail call noundef zeroext i1 @_ZN11xercesc_2_59ReaderMgr11skippedCharEt(ptr noundef nonnull align 8 dereferenceable(80) %11, i16 noundef zeroext 40)
  br i1 %12, label %24, label %13

13:                                               ; preds = %9
  %14 = getelementptr inbounds %"class.xercesc_2_5::DTDScanner", ptr %0, i64 0, i32 12
  %15 = load ptr, ptr %14, align 8, !tbaa !86
  tail call void @_ZN11xercesc_2_510XMLScanner9emitErrorENS_7XMLErrs5CodesE(ptr noundef nonnull align 8 dereferenceable(664) %15, i32 noundef 246)
  br label %24

16:                                               ; preds = %4
  %17 = getelementptr inbounds %"class.xercesc_2_5::DTDScanner", ptr %0, i64 0, i32 10
  %18 = load ptr, ptr %17, align 8, !tbaa !88
  %19 = tail call noundef nonnull align 8 dereferenceable(32) ptr @_ZN11xercesc_2_512XMLBufferMgr11bidOnBufferEv(ptr noundef nonnull align 8 dereferenceable(24) %18)
  %20 = getelementptr inbounds %"class.xercesc_2_5::DTDScanner", ptr %0, i64 0, i32 11
  %21 = getelementptr inbounds %"class.xercesc_2_5::XMLBuffer", ptr %19, i64 0, i32 1
  %22 = getelementptr inbounds %"class.xercesc_2_5::XMLBuffer", ptr %19, i64 0, i32 4
  %23 = getelementptr inbounds %"class.xercesc_2_5::XMLBuffer", ptr %2, i64 0, i32 2
  br label %72

24:                                               ; preds = %9, %13
  %25 = getelementptr inbounds %"class.xercesc_2_5::DTDScanner", ptr %0, i64 0, i32 10
  %26 = load ptr, ptr %25, align 8, !tbaa !88
  %27 = tail call noundef nonnull align 8 dereferenceable(32) ptr @_ZN11xercesc_2_512XMLBufferMgr11bidOnBufferEv(ptr noundef nonnull align 8 dereferenceable(24) %26)
  %28 = getelementptr inbounds %"class.xercesc_2_5::DTDScanner", ptr %0, i64 0, i32 11
  %29 = getelementptr inbounds %"class.xercesc_2_5::XMLBuffer", ptr %27, i64 0, i32 1
  %30 = getelementptr inbounds %"class.xercesc_2_5::XMLBuffer", ptr %27, i64 0, i32 4
  %31 = getelementptr inbounds %"class.xercesc_2_5::XMLBuffer", ptr %2, i64 0, i32 2
  br label %32

32:                                               ; preds = %24, %67
  %33 = invoke noundef zeroext i1 @_ZN11xercesc_2_510DTDScanner13checkForPERefEbb(ptr noundef nonnull align 8 dereferenceable(112) %0, i1 noundef zeroext false, i1 noundef zeroext true)
          to label %34 unwind label %68

34:                                               ; preds = %32
  %35 = load ptr, ptr %28, align 8, !tbaa !87
  store i32 0, ptr %29, align 4, !tbaa !111
  %36 = load ptr, ptr %30, align 8, !tbaa !112
  store i16 0, ptr %36, align 2, !tbaa !113
  %37 = getelementptr inbounds %"class.xercesc_2_5::ReaderMgr", ptr %35, i64 0, i32 2
  %38 = load ptr, ptr %37, align 8, !tbaa !100
  %39 = invoke noundef zeroext i1 @_ZN11xercesc_2_59XMLReader7getNameERNS_9XMLBufferEb(ptr noundef nonnull align 8 dereferenceable(98456) %38, ptr noundef nonnull align 8 dereferenceable(32) %27, i1 noundef zeroext false)
          to label %40 unwind label %70

40:                                               ; preds = %34
  br i1 %39, label %41, label %89

41:                                               ; preds = %40
  %42 = load ptr, ptr %30, align 8, !tbaa !112
  %43 = load i32, ptr %29, align 4, !tbaa !111
  %44 = zext i32 %43 to i64
  %45 = getelementptr inbounds i16, ptr %42, i64 %44
  store i16 0, ptr %45, align 2, !tbaa !113
  invoke void @_ZN11xercesc_2_59XMLBuffer6appendEPKtj(ptr noundef nonnull align 8 dereferenceable(32) %2, ptr noundef nonnull %42, i32 noundef %43)
          to label %46 unwind label %70

46:                                               ; preds = %41
  %47 = invoke noundef zeroext i1 @_ZN11xercesc_2_510DTDScanner13checkForPERefEbb(ptr noundef nonnull align 8 dereferenceable(112) %0, i1 noundef zeroext false, i1 noundef zeroext true)
          to label %48 unwind label %70

48:                                               ; preds = %46
  %49 = load ptr, ptr %28, align 8, !tbaa !87
  %50 = invoke noundef zeroext i1 @_ZN11xercesc_2_59ReaderMgr11skippedCharEt(ptr noundef nonnull align 8 dereferenceable(80) %49, i16 noundef zeroext 41)
          to label %51 unwind label %70

51:                                               ; preds = %48
  br i1 %50, label %131, label %52

52:                                               ; preds = %51
  %53 = load i32, ptr %5, align 4, !tbaa !111
  %54 = load i32, ptr %31, align 8, !tbaa !134
  %55 = icmp eq i32 %53, %54
  br i1 %55, label %56, label %59

56:                                               ; preds = %52
  invoke void @_ZN11xercesc_2_59XMLBuffer6expandEv(ptr noundef nonnull align 8 dereferenceable(32) %2)
          to label %57 unwind label %70

57:                                               ; preds = %56
  %58 = load i32, ptr %5, align 4, !tbaa !111
  br label %59

59:                                               ; preds = %57, %52
  %60 = phi i32 [ %58, %57 ], [ %53, %52 ]
  %61 = load ptr, ptr %6, align 8, !tbaa !112
  %62 = add i32 %60, 1
  store i32 %62, ptr %5, align 4, !tbaa !111
  %63 = zext i32 %60 to i64
  %64 = getelementptr inbounds i16, ptr %61, i64 %63
  store i16 32, ptr %64, align 2, !tbaa !113
  %65 = load ptr, ptr %28, align 8, !tbaa !87
  %66 = invoke noundef zeroext i1 @_ZN11xercesc_2_59ReaderMgr11skippedCharEt(ptr noundef nonnull align 8 dereferenceable(80) %65, i16 noundef zeroext 124)
          to label %67 unwind label %70

67:                                               ; preds = %59
  br i1 %66, label %32, label %126

68:                                               ; preds = %32
  %69 = landingpad { ptr, i32 }
          cleanup
  br label %135

70:                                               ; preds = %59, %56, %48, %46, %41, %34
  %71 = landingpad { ptr, i32 }
          cleanup
  br label %135

72:                                               ; preds = %16, %125
  %73 = invoke noundef zeroext i1 @_ZN11xercesc_2_510DTDScanner13checkForPERefEbb(ptr noundef nonnull align 8 dereferenceable(112) %0, i1 noundef zeroext false, i1 noundef zeroext true)
          to label %74 unwind label %80

74:                                               ; preds = %72
  %75 = load ptr, ptr %20, align 8, !tbaa !87
  store i32 0, ptr %21, align 4, !tbaa !111
  %76 = load ptr, ptr %22, align 8, !tbaa !112
  store i16 0, ptr %76, align 2, !tbaa !113
  %77 = getelementptr inbounds %"class.xercesc_2_5::ReaderMgr", ptr %75, i64 0, i32 2
  %78 = load ptr, ptr %77, align 8, !tbaa !100
  %79 = invoke noundef zeroext i1 @_ZN11xercesc_2_59XMLReader7getNameERNS_9XMLBufferEb(ptr noundef nonnull align 8 dereferenceable(98456) %78, ptr noundef nonnull align 8 dereferenceable(32) %19, i1 noundef zeroext true)
          to label %88 unwind label %82

80:                                               ; preds = %72
  %81 = landingpad { ptr, i32 }
          cleanup
  br label %135

82:                                               ; preds = %99, %104, %106, %117, %74, %114
  %83 = landingpad { ptr, i32 }
          cleanup
  br label %135

84:                                               ; preds = %89, %98, %126
  %85 = phi ptr [ %90, %89 ], [ %90, %98 ], [ %127, %126 ]
  %86 = phi ptr [ %91, %89 ], [ %91, %98 ], [ %128, %126 ]
  %87 = landingpad { ptr, i32 }
          cleanup
  br label %135

88:                                               ; preds = %74
  br i1 %79, label %99, label %89

89:                                               ; preds = %88, %40
  %90 = phi ptr [ %27, %40 ], [ %19, %88 ]
  %91 = phi ptr [ %26, %40 ], [ %18, %88 ]
  %92 = getelementptr inbounds %"class.xercesc_2_5::DTDScanner", ptr %0, i64 0, i32 12
  %93 = load ptr, ptr %92, align 8, !tbaa !86
  %94 = load ptr, ptr %1, align 8, !tbaa !48
  %95 = getelementptr inbounds ptr, ptr %94, i64 5
  %96 = load ptr, ptr %95, align 8
  %97 = invoke noundef ptr %96(ptr noundef nonnull align 8 dereferenceable(72) %1)
          to label %98 unwind label %84

98:                                               ; preds = %89
  invoke void @_ZN11xercesc_2_510XMLScanner9emitErrorENS_7XMLErrs5CodesEPKtS4_S4_S4_(ptr noundef nonnull align 8 dereferenceable(664) %93, i32 noundef 242, ptr noundef %97, ptr noundef null, ptr noundef null, ptr noundef null)
          to label %131 unwind label %84

99:                                               ; preds = %88
  %100 = load ptr, ptr %22, align 8, !tbaa !112
  %101 = load i32, ptr %21, align 4, !tbaa !111
  %102 = zext i32 %101 to i64
  %103 = getelementptr inbounds i16, ptr %100, i64 %102
  store i16 0, ptr %103, align 2, !tbaa !113
  invoke void @_ZN11xercesc_2_59XMLBuffer6appendEPKtj(ptr noundef nonnull align 8 dereferenceable(32) %2, ptr noundef nonnull %100, i32 noundef %101)
          to label %104 unwind label %82

104:                                              ; preds = %99
  %105 = invoke noundef zeroext i1 @_ZN11xercesc_2_510DTDScanner13checkForPERefEbb(ptr noundef nonnull align 8 dereferenceable(112) %0, i1 noundef zeroext false, i1 noundef zeroext true)
          to label %106 unwind label %82

106:                                              ; preds = %104
  %107 = load ptr, ptr %20, align 8, !tbaa !87
  %108 = invoke noundef zeroext i1 @_ZN11xercesc_2_59ReaderMgr11skippedCharEt(ptr noundef nonnull align 8 dereferenceable(80) %107, i16 noundef zeroext 41)
          to label %109 unwind label %82

109:                                              ; preds = %106
  br i1 %108, label %131, label %110

110:                                              ; preds = %109
  %111 = load i32, ptr %5, align 4, !tbaa !111
  %112 = load i32, ptr %23, align 8, !tbaa !134
  %113 = icmp eq i32 %111, %112
  br i1 %113, label %114, label %117

114:                                              ; preds = %110
  invoke void @_ZN11xercesc_2_59XMLBuffer6expandEv(ptr noundef nonnull align 8 dereferenceable(32) %2)
          to label %115 unwind label %82

115:                                              ; preds = %114
  %116 = load i32, ptr %5, align 4, !tbaa !111
  br label %117

117:                                              ; preds = %115, %110
  %118 = phi i32 [ %116, %115 ], [ %111, %110 ]
  %119 = load ptr, ptr %6, align 8, !tbaa !112
  %120 = add i32 %118, 1
  store i32 %120, ptr %5, align 4, !tbaa !111
  %121 = zext i32 %118 to i64
  %122 = getelementptr inbounds i16, ptr %119, i64 %121
  store i16 32, ptr %122, align 2, !tbaa !113
  %123 = load ptr, ptr %20, align 8, !tbaa !87
  %124 = invoke noundef zeroext i1 @_ZN11xercesc_2_59ReaderMgr11skippedCharEt(ptr noundef nonnull align 8 dereferenceable(80) %123, i16 noundef zeroext 124)
          to label %125 unwind label %82

125:                                              ; preds = %117
  br i1 %124, label %72, label %126

126:                                              ; preds = %125, %67
  %127 = phi ptr [ %27, %67 ], [ %19, %125 ]
  %128 = phi ptr [ %26, %67 ], [ %18, %125 ]
  %129 = getelementptr inbounds %"class.xercesc_2_5::DTDScanner", ptr %0, i64 0, i32 12
  %130 = load ptr, ptr %129, align 8, !tbaa !86
  invoke void @_ZN11xercesc_2_510XMLScanner9emitErrorENS_7XMLErrs5CodesE(ptr noundef nonnull align 8 dereferenceable(664) %130, i32 noundef 243)
          to label %131 unwind label %84

131:                                              ; preds = %109, %51, %126, %98
  %132 = phi ptr [ %90, %98 ], [ %127, %126 ], [ %27, %51 ], [ %19, %109 ]
  %133 = phi ptr [ %91, %98 ], [ %128, %126 ], [ %26, %51 ], [ %18, %109 ]
  %134 = phi i1 [ false, %98 ], [ false, %126 ], [ true, %51 ], [ true, %109 ]
  tail call void @_ZN11xercesc_2_512XMLBufferMgr13releaseBufferERNS_9XMLBufferE(ptr noundef nonnull align 8 dereferenceable(24) %133, ptr noundef nonnull align 8 dereferenceable(32) %132)
  ret i1 %134

135:                                              ; preds = %84, %70, %82, %80, %68
  %136 = phi ptr [ %19, %80 ], [ %27, %68 ], [ %85, %84 ], [ %19, %82 ], [ %27, %70 ]
  %137 = phi ptr [ %18, %80 ], [ %26, %68 ], [ %86, %84 ], [ %18, %82 ], [ %26, %70 ]
  %138 = phi { ptr, i32 } [ %81, %80 ], [ %69, %68 ], [ %87, %84 ], [ %83, %82 ], [ %71, %70 ]
  invoke void @_ZN11xercesc_2_512XMLBufferMgr13releaseBufferERNS_9XMLBufferE(ptr noundef nonnull align 8 dereferenceable(24) %137, ptr noundef nonnull align 8 dereferenceable(32) %136)
          to label %139 unwind label %140

139:                                              ; preds = %135
  resume { ptr, i32 } %138

140:                                              ; preds = %135
  %141 = landingpad { ptr, i32 }
          catch ptr null
  %142 = extractvalue { ptr, i32 } %141, 0
  tail call void @__clang_call_terminate(ptr %142) #12
  unreachable
}

; Function Attrs: inlinehint uwtable
define linkonce_odr dso_local void @_ZN11xercesc_2_59XMLAttDef14setEnumerationEPKt(ptr noundef nonnull align 8 dereferenceable(56) %0, ptr noundef %1) local_unnamed_addr #2 comdat align 2 {
  %3 = getelementptr inbounds %"class.xercesc_2_5::XMLAttDef", ptr %0, i64 0, i32 8
  %4 = load ptr, ptr %3, align 8, !tbaa !147
  %5 = icmp eq ptr %4, null
  br i1 %5, label %12, label %6

6:                                                ; preds = %2
  %7 = getelementptr inbounds %"class.xercesc_2_5::XMLAttDef", ptr %0, i64 0, i32 9
  %8 = load ptr, ptr %7, align 8, !tbaa !151
  %9 = load ptr, ptr %8, align 8, !tbaa !48
  %10 = getelementptr inbounds ptr, ptr %9, i64 3
  %11 = load ptr, ptr %10, align 8
  tail call void %11(ptr noundef nonnull align 8 dereferenceable(8) %8, ptr noundef nonnull %4)
  br label %12

12:                                               ; preds = %6, %2
  %13 = getelementptr inbounds %"class.xercesc_2_5::XMLAttDef", ptr %0, i64 0, i32 9
  %14 = load ptr, ptr %13, align 8, !tbaa !151
  %15 = icmp eq ptr %1, null
  br i1 %15, label %36, label %16

16:                                               ; preds = %12
  %17 = load i16, ptr %1, align 2, !tbaa !113
  %18 = icmp eq i16 %17, 0
  br i1 %18, label %30, label %19

19:                                               ; preds = %16, %19
  %20 = phi ptr [ %21, %19 ], [ %1, %16 ]
  %21 = getelementptr inbounds i16, ptr %20, i64 1
  %22 = load i16, ptr %21, align 2, !tbaa !113
  %23 = icmp eq i16 %22, 0
  br i1 %23, label %24, label %19

24:                                               ; preds = %19
  %25 = ptrtoint ptr %21 to i64
  %26 = ptrtoint ptr %1 to i64
  %27 = sub i64 %25, %26
  %28 = add i64 %27, 2
  %29 = and i64 %28, 8589934590
  br label %30

30:                                               ; preds = %24, %16
  %31 = phi i64 [ %29, %24 ], [ 2, %16 ]
  %32 = load ptr, ptr %14, align 8, !tbaa !48
  %33 = getelementptr inbounds ptr, ptr %32, i64 2
  %34 = load ptr, ptr %33, align 8
  %35 = tail call noundef ptr %34(ptr noundef nonnull align 8 dereferenceable(8) %14, i64 noundef %31)
  tail call void @llvm.memcpy.p0.p0.i64(ptr align 2 %35, ptr nonnull align 2 %1, i64 %31, i1 false)
  br label %36

36:                                               ; preds = %12, %30
  %37 = phi ptr [ %35, %30 ], [ null, %12 ]
  store ptr %37, ptr %3, align 8, !tbaa !147
  ret void
}

; Function Attrs: uwtable
define dso_local void @_ZN11xercesc_2_510DTDScanner15scanDefaultDeclERNS_9DTDAttDefE(ptr nocapture noundef nonnull align 8 dereferenceable(112) %0, ptr noundef nonnull align 8 dereferenceable(72) %1) local_unnamed_addr #3 align 2 personality ptr @__gxx_personality_v0 {
  %3 = getelementptr inbounds %"class.xercesc_2_5::DTDScanner", ptr %0, i64 0, i32 11
  %4 = load ptr, ptr %3, align 8, !tbaa !87
  %5 = getelementptr inbounds %"class.xercesc_2_5::ReaderMgr", ptr %4, i64 0, i32 2
  %6 = load ptr, ptr %5, align 8, !tbaa !100
  %7 = tail call noundef zeroext i1 @_ZN11xercesc_2_59XMLReader13skippedStringEPKt(ptr noundef nonnull align 8 dereferenceable(98456) %6, ptr noundef nonnull @_ZN11xercesc_2_56XMLUni16fgRequiredStringE)
  br i1 %7, label %8, label %10

8:                                                ; preds = %2
  %9 = getelementptr inbounds %"class.xercesc_2_5::XMLAttDef", ptr %1, i64 0, i32 1
  store i32 2, ptr %9, align 8, !tbaa !146
  br label %91

10:                                               ; preds = %2
  %11 = load ptr, ptr %3, align 8, !tbaa !87
  %12 = getelementptr inbounds %"class.xercesc_2_5::ReaderMgr", ptr %11, i64 0, i32 2
  %13 = load ptr, ptr %12, align 8, !tbaa !100
  %14 = tail call noundef zeroext i1 @_ZN11xercesc_2_59XMLReader13skippedStringEPKt(ptr noundef nonnull align 8 dereferenceable(98456) %13, ptr noundef nonnull @_ZN11xercesc_2_56XMLUni15fgImpliedStringE)
  br i1 %14, label %15, label %17

15:                                               ; preds = %10
  %16 = getelementptr inbounds %"class.xercesc_2_5::XMLAttDef", ptr %1, i64 0, i32 1
  store i32 4, ptr %16, align 8, !tbaa !146
  br label %91

17:                                               ; preds = %10
  %18 = load ptr, ptr %3, align 8, !tbaa !87
  %19 = getelementptr inbounds %"class.xercesc_2_5::ReaderMgr", ptr %18, i64 0, i32 2
  %20 = load ptr, ptr %19, align 8, !tbaa !100
  %21 = tail call noundef zeroext i1 @_ZN11xercesc_2_59XMLReader13skippedStringEPKt(ptr noundef nonnull align 8 dereferenceable(98456) %20, ptr noundef nonnull @_ZN11xercesc_2_56XMLUni13fgFixedStringE)
  br i1 %21, label %22, label %31

22:                                               ; preds = %17
  %23 = load ptr, ptr %3, align 8, !tbaa !87
  %24 = tail call noundef zeroext i1 @_ZN11xercesc_2_59ReaderMgr12skippedSpaceEv(ptr noundef nonnull align 8 dereferenceable(80) %23)
  br i1 %24, label %28, label %25

25:                                               ; preds = %22
  %26 = getelementptr inbounds %"class.xercesc_2_5::DTDScanner", ptr %0, i64 0, i32 12
  %27 = load ptr, ptr %26, align 8, !tbaa !86
  tail call void @_ZN11xercesc_2_510XMLScanner9emitErrorENS_7XMLErrs5CodesE(ptr noundef nonnull align 8 dereferenceable(664) %27, i32 noundef 207)
  br label %31

28:                                               ; preds = %22
  %29 = load ptr, ptr %3, align 8, !tbaa !87
  %30 = tail call noundef zeroext i1 @_ZN11xercesc_2_59ReaderMgr14skipPastSpacesEv(ptr noundef nonnull align 8 dereferenceable(80) %29)
  br label %31

31:                                               ; preds = %17, %25, %28
  %32 = phi i32 [ 1, %28 ], [ 1, %25 ], [ 0, %17 ]
  %33 = getelementptr inbounds %"class.xercesc_2_5::XMLAttDef", ptr %1, i64 0, i32 1
  store i32 %32, ptr %33, align 8, !tbaa !146
  %34 = tail call noundef zeroext i1 @_ZN11xercesc_2_510DTDScanner13checkForPERefEbb(ptr noundef nonnull align 8 dereferenceable(112) %0, i1 noundef zeroext false, i1 noundef zeroext true)
  %35 = getelementptr inbounds %"class.xercesc_2_5::DTDScanner", ptr %0, i64 0, i32 10
  %36 = load ptr, ptr %35, align 8, !tbaa !88
  %37 = tail call noundef nonnull align 8 dereferenceable(32) ptr @_ZN11xercesc_2_512XMLBufferMgr11bidOnBufferEv(ptr noundef nonnull align 8 dereferenceable(24) %36)
  %38 = load ptr, ptr %1, align 8, !tbaa !48
  %39 = getelementptr inbounds ptr, ptr %38, i64 5
  %40 = load ptr, ptr %39, align 8
  %41 = invoke noundef ptr %40(ptr noundef nonnull align 8 dereferenceable(72) %1)
          to label %42 unwind label %50

42:                                               ; preds = %31
  %43 = getelementptr inbounds %"class.xercesc_2_5::XMLAttDef", ptr %1, i64 0, i32 2
  %44 = load i32, ptr %43, align 4, !tbaa !145
  %45 = invoke noundef zeroext i1 @_ZN11xercesc_2_510DTDScanner12scanAttValueEPKtRNS_9XMLBufferENS_9XMLAttDef8AttTypesE(ptr noundef nonnull align 8 dereferenceable(112) %0, ptr noundef %41, ptr noundef nonnull align 8 dereferenceable(32) %37, i32 noundef %44)
          to label %46 unwind label %50

46:                                               ; preds = %42
  br i1 %45, label %52, label %47

47:                                               ; preds = %46
  %48 = getelementptr inbounds %"class.xercesc_2_5::DTDScanner", ptr %0, i64 0, i32 12
  %49 = load ptr, ptr %48, align 8, !tbaa !86
  invoke void @_ZN11xercesc_2_510XMLScanner9emitErrorENS_7XMLErrs5CodesE(ptr noundef nonnull align 8 dereferenceable(664) %49, i32 noundef 178)
          to label %52 unwind label %50

50:                                               ; preds = %84, %62, %47, %42, %31
  %51 = landingpad { ptr, i32 }
          cleanup
  invoke void @_ZN11xercesc_2_512XMLBufferMgr13releaseBufferERNS_9XMLBufferE(ptr noundef nonnull align 8 dereferenceable(24) %36, ptr noundef nonnull align 8 dereferenceable(32) %37)
          to label %92 unwind label %93

52:                                               ; preds = %47, %46
  %53 = getelementptr inbounds %"class.xercesc_2_5::XMLBuffer", ptr %37, i64 0, i32 4
  %54 = load ptr, ptr %53, align 8, !tbaa !112
  %55 = getelementptr inbounds %"class.xercesc_2_5::XMLBuffer", ptr %37, i64 0, i32 1
  %56 = load i32, ptr %55, align 4, !tbaa !111
  %57 = zext i32 %56 to i64
  %58 = getelementptr inbounds i16, ptr %54, i64 %57
  store i16 0, ptr %58, align 2, !tbaa !113
  %59 = getelementptr inbounds %"class.xercesc_2_5::XMLAttDef", ptr %1, i64 0, i32 7
  %60 = load ptr, ptr %59, align 8, !tbaa !152
  %61 = icmp eq ptr %60, null
  br i1 %61, label %68, label %62

62:                                               ; preds = %52
  %63 = getelementptr inbounds %"class.xercesc_2_5::XMLAttDef", ptr %1, i64 0, i32 9
  %64 = load ptr, ptr %63, align 8, !tbaa !151
  %65 = load ptr, ptr %64, align 8, !tbaa !48
  %66 = getelementptr inbounds ptr, ptr %65, i64 3
  %67 = load ptr, ptr %66, align 8
  invoke void %67(ptr noundef nonnull align 8 dereferenceable(8) %64, ptr noundef nonnull %60)
          to label %68 unwind label %50

68:                                               ; preds = %52, %62
  %69 = getelementptr inbounds %"class.xercesc_2_5::XMLAttDef", ptr %1, i64 0, i32 9
  %70 = load ptr, ptr %69, align 8, !tbaa !151
  %71 = load i16, ptr %54, align 2, !tbaa !113
  %72 = icmp eq i16 %71, 0
  br i1 %72, label %84, label %73

73:                                               ; preds = %68, %73
  %74 = phi ptr [ %75, %73 ], [ %54, %68 ]
  %75 = getelementptr inbounds i16, ptr %74, i64 1
  %76 = load i16, ptr %75, align 2, !tbaa !113
  %77 = icmp eq i16 %76, 0
  br i1 %77, label %78, label %73

78:                                               ; preds = %73
  %79 = ptrtoint ptr %75 to i64
  %80 = ptrtoint ptr %54 to i64
  %81 = sub i64 %79, %80
  %82 = add i64 %81, 2
  %83 = and i64 %82, 8589934590
  br label %84

84:                                               ; preds = %78, %68
  %85 = phi i64 [ %83, %78 ], [ 2, %68 ]
  %86 = load ptr, ptr %70, align 8, !tbaa !48
  %87 = getelementptr inbounds ptr, ptr %86, i64 2
  %88 = load ptr, ptr %87, align 8
  %89 = invoke noundef ptr %88(ptr noundef nonnull align 8 dereferenceable(8) %70, i64 noundef %85)
          to label %90 unwind label %50

90:                                               ; preds = %84
  tail call void @llvm.memcpy.p0.p0.i64(ptr align 2 %89, ptr nonnull align 2 %54, i64 %85, i1 false)
  store ptr %89, ptr %59, align 8, !tbaa !152
  tail call void @_ZN11xercesc_2_512XMLBufferMgr13releaseBufferERNS_9XMLBufferE(ptr noundef nonnull align 8 dereferenceable(24) %36, ptr noundef nonnull align 8 dereferenceable(32) %37)
  br label %91

91:                                               ; preds = %90, %15, %8
  ret void

92:                                               ; preds = %50
  resume { ptr, i32 } %51

93:                                               ; preds = %50
  %94 = landingpad { ptr, i32 }
          catch ptr null
  %95 = extractvalue { ptr, i32 } %94, 0
  tail call void @__clang_call_terminate(ptr %95) #12
  unreachable
}

; Function Attrs: mustprogress nocallback nofree nounwind willreturn memory(argmem: readwrite)
declare void @llvm.memcpy.p0.p0.i64(ptr noalias nocapture writeonly, ptr noalias nocapture readonly, i64, i1 immarg) #7

declare noundef ptr @_ZN11xercesc_2_59XMLString14tokenizeStringEPKtPNS_13MemoryManagerE(ptr noundef, ptr noundef) local_unnamed_addr #1

; Function Attrs: uwtable
define linkonce_odr dso_local noundef ptr @_ZN11xercesc_2_515BaseRefVectorOfItE9elementAtEj(ptr noundef nonnull align 8 dereferenceable(40) %0, i32 noundef %1) local_unnamed_addr #3 comdat align 2 personality ptr @__gxx_personality_v0 {
  %3 = getelementptr inbounds %"class.xercesc_2_5::BaseRefVectorOf", ptr %0, i64 0, i32 2
  %4 = load i32, ptr %3, align 4, !tbaa !148
  %5 = icmp ugt i32 %4, %1
  br i1 %5, label %13, label %6

6:                                                ; preds = %2
  %7 = tail call ptr @__cxa_allocate_exception(i64 48) #11
  %8 = getelementptr inbounds %"class.xercesc_2_5::BaseRefVectorOf", ptr %0, i64 0, i32 5
  %9 = load ptr, ptr %8, align 8, !tbaa !153
  invoke void @_ZN11xercesc_2_530ArrayIndexOutOfBoundsExceptionC2EPKcjNS_10XMLExcepts5CodesEPNS_13MemoryManagerE(ptr noundef nonnull align 8 dereferenceable(48) %7, ptr noundef nonnull @.str.2, i32 noundef 289, i32 noundef 109, ptr noundef %9)
          to label %10 unwind label %11

10:                                               ; preds = %6
  tail call void @__cxa_throw(ptr nonnull %7, ptr nonnull @_ZTIN11xercesc_2_530ArrayIndexOutOfBoundsExceptionE, ptr nonnull @_ZN11xercesc_2_512XMLExceptionD2Ev) #13
  unreachable

11:                                               ; preds = %6
  %12 = landingpad { ptr, i32 }
          cleanup
  tail call void @__cxa_free_exception(ptr %7) #11
  resume { ptr, i32 } %12

13:                                               ; preds = %2
  %14 = getelementptr inbounds %"class.xercesc_2_5::BaseRefVectorOf", ptr %0, i64 0, i32 4
  %15 = load ptr, ptr %14, align 8, !tbaa !150
  %16 = zext i32 %1 to i64
  %17 = getelementptr inbounds ptr, ptr %15, i64 %16
  %18 = load ptr, ptr %17, align 8, !tbaa !77
  ret ptr %18
}

declare void @_ZN11xercesc_2_512XMLValidator9emitErrorENS_8XMLValid5CodesE(ptr noundef nonnull align 8 dereferenceable(40), i32 noundef) local_unnamed_addr #1

; Function Attrs: uwtable
define dso_local void @_ZN11xercesc_2_510DTDScanner15scanAttListDeclEv(ptr nocapture noundef nonnull align 8 dereferenceable(112) %0) local_unnamed_addr #3 align 2 personality ptr @__gxx_personality_v0 {
  %2 = tail call noundef zeroext i1 @_ZN11xercesc_2_510DTDScanner13checkForPERefEbb(ptr noundef nonnull align 8 dereferenceable(112) %0, i1 noundef zeroext false, i1 noundef zeroext true)
  %3 = getelementptr inbounds %"class.xercesc_2_5::DTDScanner", ptr %0, i64 0, i32 11
  br i1 %2, label %10, label %4

4:                                                ; preds = %1
  %5 = getelementptr inbounds %"class.xercesc_2_5::DTDScanner", ptr %0, i64 0, i32 12
  %6 = load ptr, ptr %5, align 8, !tbaa !86
  tail call void @_ZN11xercesc_2_510XMLScanner9emitErrorENS_7XMLErrs5CodesE(ptr noundef nonnull align 8 dereferenceable(664) %6, i32 noundef 207)
  %7 = load ptr, ptr %3, align 8, !tbaa !87
  br label %8

8:                                                ; preds = %8, %4
  %9 = tail call noundef zeroext i16 @_ZN11xercesc_2_59ReaderMgr11getNextCharEv(ptr noundef nonnull align 8 dereferenceable(80) %7)
  switch i16 %9, label %8 [
    i16 62, label %195
    i16 0, label %195
  ]

10:                                               ; preds = %1
  %11 = getelementptr inbounds %"class.xercesc_2_5::DTDScanner", ptr %0, i64 0, i32 10
  %12 = load ptr, ptr %11, align 8, !tbaa !88
  %13 = tail call noundef nonnull align 8 dereferenceable(32) ptr @_ZN11xercesc_2_512XMLBufferMgr11bidOnBufferEv(ptr noundef nonnull align 8 dereferenceable(24) %12)
  %14 = load ptr, ptr %3, align 8, !tbaa !87
  %15 = getelementptr inbounds %"class.xercesc_2_5::XMLBuffer", ptr %13, i64 0, i32 1
  store i32 0, ptr %15, align 4, !tbaa !111
  %16 = getelementptr inbounds %"class.xercesc_2_5::XMLBuffer", ptr %13, i64 0, i32 4
  %17 = load ptr, ptr %16, align 8, !tbaa !112
  store i16 0, ptr %17, align 2, !tbaa !113
  %18 = getelementptr inbounds %"class.xercesc_2_5::ReaderMgr", ptr %14, i64 0, i32 2
  %19 = load ptr, ptr %18, align 8, !tbaa !100
  %20 = invoke noundef zeroext i1 @_ZN11xercesc_2_59XMLReader7getNameERNS_9XMLBufferEb(ptr noundef nonnull align 8 dereferenceable(98456) %19, ptr noundef nonnull align 8 dereferenceable(32) %13, i1 noundef zeroext false)
          to label %21 unwind label %32

21:                                               ; preds = %10
  br i1 %20, label %34, label %22

22:                                               ; preds = %21
  %23 = getelementptr inbounds %"class.xercesc_2_5::DTDScanner", ptr %0, i64 0, i32 12
  %24 = load ptr, ptr %23, align 8, !tbaa !86
  invoke void @_ZN11xercesc_2_510XMLScanner9emitErrorENS_7XMLErrs5CodesE(ptr noundef nonnull align 8 dereferenceable(664) %24, i32 noundef 183)
          to label %25 unwind label %32

25:                                               ; preds = %22
  %26 = load ptr, ptr %3, align 8, !tbaa !87
  br label %27

27:                                               ; preds = %29, %25
  %28 = invoke noundef zeroext i16 @_ZN11xercesc_2_59ReaderMgr11getNextCharEv(ptr noundef nonnull align 8 dereferenceable(80) %26)
          to label %29 unwind label %30

29:                                               ; preds = %27
  switch i16 %28, label %27 [
    i16 62, label %194
    i16 0, label %194
  ]

30:                                               ; preds = %27
  %31 = landingpad { ptr, i32 }
          cleanup
  br label %198

32:                                               ; preds = %22, %10
  %33 = landingpad { ptr, i32 }
          cleanup
  br label %198

34:                                               ; preds = %21
  %35 = getelementptr inbounds %"class.xercesc_2_5::DTDScanner", ptr %0, i64 0, i32 9
  %36 = load ptr, ptr %35, align 8, !tbaa !70
  %37 = getelementptr inbounds %"class.xercesc_2_5::DTDScanner", ptr %0, i64 0, i32 14
  %38 = load i32, ptr %37, align 8, !tbaa !154
  %39 = load ptr, ptr %16, align 8, !tbaa !112
  %40 = load i32, ptr %15, align 4, !tbaa !111
  %41 = zext i32 %40 to i64
  %42 = getelementptr inbounds i16, ptr %39, i64 %41
  store i16 0, ptr %42, align 2, !tbaa !113
  %43 = load ptr, ptr %36, align 8, !tbaa !48
  %44 = getelementptr inbounds ptr, ptr %43, i64 11
  %45 = load ptr, ptr %44, align 8
  %46 = invoke noundef ptr %45(ptr noundef nonnull align 8 dereferenceable(64) %36, i32 noundef %38, ptr noundef null, ptr noundef nonnull %39, i32 noundef -1)
          to label %47 unwind label %77

47:                                               ; preds = %34
  %48 = icmp eq ptr %46, null
  br i1 %48, label %49, label %81

49:                                               ; preds = %47
  %50 = getelementptr inbounds %"class.xercesc_2_5::DTDScanner", ptr %0, i64 0, i32 2
  %51 = load ptr, ptr %50, align 8, !tbaa !67
  %52 = invoke noundef ptr @_ZN11xercesc_2_57XMemorynwEmPNS_13MemoryManagerE(i64 noundef 88, ptr noundef %51)
          to label %53 unwind label %77

53:                                               ; preds = %49
  %54 = load ptr, ptr %16, align 8, !tbaa !112
  %55 = load i32, ptr %15, align 4, !tbaa !111
  %56 = zext i32 %55 to i64
  %57 = getelementptr inbounds i16, ptr %54, i64 %56
  store i16 0, ptr %57, align 2, !tbaa !113
  %58 = load i32, ptr %37, align 8, !tbaa !154
  %59 = load ptr, ptr %50, align 8, !tbaa !67
  invoke void @_ZN11xercesc_2_514DTDElementDeclC1EPKtjNS0_10ModelTypesEPNS_13MemoryManagerE(ptr noundef nonnull align 8 dereferenceable(88) %52, ptr noundef nonnull %54, i32 noundef %58, i32 noundef 1, ptr noundef %59)
          to label %60 unwind label %79

60:                                               ; preds = %53
  %61 = getelementptr inbounds %"class.xercesc_2_5::XMLElementDecl", ptr %52, i64 0, i32 3
  store i32 2, ptr %61, align 8, !tbaa !155
  %62 = getelementptr inbounds %"class.xercesc_2_5::DTDScanner", ptr %0, i64 0, i32 15
  %63 = load i32, ptr %62, align 4, !tbaa !108
  %64 = load ptr, ptr %3, align 8, !tbaa !87
  %65 = getelementptr inbounds %"class.xercesc_2_5::ReaderMgr", ptr %64, i64 0, i32 2
  %66 = load ptr, ptr %65, align 8, !tbaa !100
  %67 = getelementptr inbounds %"class.xercesc_2_5::XMLReader", ptr %66, i64 0, i32 14
  %68 = load i32, ptr %67, align 8, !tbaa !101
  %69 = icmp ne i32 %63, %68
  %70 = zext i1 %69 to i8
  %71 = getelementptr inbounds %"class.xercesc_2_5::XMLElementDecl", ptr %52, i64 0, i32 5
  store i8 %70, ptr %71, align 8, !tbaa !156
  %72 = load ptr, ptr %35, align 8, !tbaa !70
  %73 = load ptr, ptr %72, align 8, !tbaa !48
  %74 = getelementptr inbounds ptr, ptr %73, i64 17
  %75 = load ptr, ptr %74, align 8
  %76 = invoke noundef i32 %75(ptr noundef nonnull align 8 dereferenceable(64) %72, ptr noundef nonnull %52, i1 noundef zeroext false)
          to label %81 unwind label %77

77:                                               ; preds = %86, %60, %49, %34
  %78 = landingpad { ptr, i32 }
          cleanup
  br label %198

79:                                               ; preds = %53
  %80 = landingpad { ptr, i32 }
          cleanup
  invoke void @_ZN11xercesc_2_57XMemorydlEPvPNS_13MemoryManagerE(ptr noundef %52, ptr noundef %51)
          to label %198 unwind label %201

81:                                               ; preds = %60, %47
  %82 = phi ptr [ %46, %47 ], [ %52, %60 ]
  %83 = getelementptr inbounds %"class.xercesc_2_5::DTDScanner", ptr %0, i64 0, i32 3
  %84 = load ptr, ptr %83, align 8, !tbaa !68
  %85 = icmp eq ptr %84, null
  br i1 %85, label %90, label %86

86:                                               ; preds = %81
  %87 = load ptr, ptr %84, align 8, !tbaa !48
  %88 = getelementptr inbounds ptr, ptr %87, i64 14
  %89 = load ptr, ptr %88, align 8
  invoke void %89(ptr noundef nonnull align 8 dereferenceable(8) %84, ptr noundef nonnull align 8 dereferenceable(88) %82)
          to label %90 unwind label %77

90:                                               ; preds = %86, %81
  %91 = load ptr, ptr %11, align 8, !tbaa !88
  %92 = invoke noundef nonnull align 8 dereferenceable(32) ptr @_ZN11xercesc_2_512XMLBufferMgr11bidOnBufferEv(ptr noundef nonnull align 8 dereferenceable(24) %91)
          to label %93 unwind label %109

93:                                               ; preds = %90
  %94 = getelementptr inbounds %"class.xercesc_2_5::DTDScanner", ptr %0, i64 0, i32 12
  %95 = getelementptr inbounds %"class.xercesc_2_5::XMLElementDecl", ptr %82, i64 0, i32 2
  %96 = getelementptr inbounds %"class.xercesc_2_5::XMLBuffer", ptr %92, i64 0, i32 4
  %97 = getelementptr inbounds %"class.xercesc_2_5::XMLBuffer", ptr %92, i64 0, i32 1
  br label %98

98:                                               ; preds = %177, %93
  %99 = phi i1 [ true, %93 ], [ false, %177 ]
  br label %100

100:                                              ; preds = %175, %98
  %101 = load ptr, ptr %3, align 8, !tbaa !87
  %102 = invoke noundef zeroext i16 @_ZN11xercesc_2_59ReaderMgr12peekNextCharEv(ptr noundef nonnull align 8 dereferenceable(80) %101)
          to label %103 unwind label %111

103:                                              ; preds = %100
  switch i16 %102, label %120 [
    i16 0, label %104
    i16 62, label %117
  ]

104:                                              ; preds = %103
  %105 = tail call ptr @__cxa_allocate_exception(i64 48) #11
  %106 = getelementptr inbounds %"class.xercesc_2_5::DTDScanner", ptr %0, i64 0, i32 1
  %107 = load ptr, ptr %106, align 8, !tbaa !65
  invoke void @_ZN11xercesc_2_522UnexpectedEOFExceptionC2EPKcjNS_10XMLExcepts5CodesEPNS_13MemoryManagerE(ptr noundef nonnull align 8 dereferenceable(48) %105, ptr noundef nonnull @.str, i32 noundef 877, i32 noundef 47, ptr noundef %107)
          to label %108 unwind label %115

108:                                              ; preds = %104
  invoke void @__cxa_throw(ptr nonnull %105, ptr nonnull @_ZTIN11xercesc_2_522UnexpectedEOFExceptionE, ptr nonnull @_ZN11xercesc_2_512XMLExceptionD2Ev) #13
          to label %204 unwind label %113

109:                                              ; preds = %193, %90
  %110 = landingpad { ptr, i32 }
          cleanup
  br label %198

111:                                              ; preds = %100, %133, %134, %143, %147, %149
  %112 = landingpad { ptr, i32 }
          cleanup
  br label %196

113:                                              ; preds = %108, %117
  %114 = landingpad { ptr, i32 }
          cleanup
  br label %196

115:                                              ; preds = %104
  %116 = landingpad { ptr, i32 }
          cleanup
  tail call void @__cxa_free_exception(ptr %105) #11
  br label %196

117:                                              ; preds = %103
  %118 = load ptr, ptr %3, align 8, !tbaa !87
  %119 = invoke noundef zeroext i16 @_ZN11xercesc_2_59ReaderMgr11getNextCharEv(ptr noundef nonnull align 8 dereferenceable(80) %118)
          to label %184 unwind label %113

120:                                              ; preds = %103
  %121 = load ptr, ptr %3, align 8, !tbaa !87
  %122 = getelementptr inbounds %"class.xercesc_2_5::ReaderMgr", ptr %121, i64 0, i32 2
  %123 = load ptr, ptr %122, align 8, !tbaa !100
  %124 = getelementptr inbounds %"class.xercesc_2_5::XMLReader", ptr %123, i64 0, i32 27
  %125 = load ptr, ptr %124, align 8, !tbaa !127
  %126 = zext i16 %102 to i64
  %127 = getelementptr inbounds i8, ptr %125, i64 %126
  %128 = load i8, ptr %127, align 1, !tbaa !128
  %129 = icmp slt i8 %128, 0
  br i1 %129, label %130, label %145

130:                                              ; preds = %120
  %131 = load ptr, ptr %83, align 8, !tbaa !68
  %132 = icmp eq ptr %131, null
  br i1 %132, label %143, label %133

133:                                              ; preds = %130
  invoke void @_ZN11xercesc_2_59ReaderMgr9getSpacesERNS_9XMLBufferE(ptr noundef nonnull align 8 dereferenceable(80) %121, ptr noundef nonnull align 8 dereferenceable(32) %92)
          to label %134 unwind label %111

134:                                              ; preds = %133
  %135 = load ptr, ptr %83, align 8, !tbaa !68
  %136 = load ptr, ptr %96, align 8, !tbaa !112
  %137 = load i32, ptr %97, align 4, !tbaa !111
  %138 = zext i32 %137 to i64
  %139 = getelementptr inbounds i16, ptr %136, i64 %138
  store i16 0, ptr %139, align 2, !tbaa !113
  %140 = load ptr, ptr %135, align 8, !tbaa !48
  %141 = getelementptr inbounds ptr, ptr %140, i64 6
  %142 = load ptr, ptr %141, align 8
  invoke void %142(ptr noundef nonnull align 8 dereferenceable(8) %135, ptr noundef nonnull %136, i32 noundef %137)
          to label %175 unwind label %111

143:                                              ; preds = %130
  %144 = invoke noundef zeroext i1 @_ZN11xercesc_2_59ReaderMgr14skipPastSpacesEv(ptr noundef nonnull align 8 dereferenceable(80) %121)
          to label %175 unwind label %111

145:                                              ; preds = %120
  %146 = icmp eq i16 %102, 37
  br i1 %146, label %147, label %151

147:                                              ; preds = %145
  %148 = invoke noundef zeroext i16 @_ZN11xercesc_2_59ReaderMgr11getNextCharEv(ptr noundef nonnull align 8 dereferenceable(80) %121)
          to label %149 unwind label %111

149:                                              ; preds = %147
  %150 = invoke noundef zeroext i1 @_ZN11xercesc_2_510DTDScanner11expandPERefEbbbb(ptr noundef nonnull align 8 dereferenceable(112) %0, i1 noundef zeroext false, i1 noundef zeroext false, i1 noundef zeroext true, i1 noundef zeroext false)
          to label %175 unwind label %111

151:                                              ; preds = %145
  %152 = invoke noundef ptr @_ZN11xercesc_2_510DTDScanner10scanAttDefERNS_14DTDElementDeclERNS_9XMLBufferE(ptr noundef nonnull align 8 dereferenceable(112) %0, ptr noundef nonnull align 8 dereferenceable(88) %82, ptr noundef nonnull align 8 dereferenceable(32) %92)
          to label %153 unwind label %162

153:                                              ; preds = %151
  %154 = icmp eq ptr %152, null
  br i1 %154, label %155, label %166

155:                                              ; preds = %153
  %156 = load ptr, ptr %3, align 8, !tbaa !87
  br label %157

157:                                              ; preds = %159, %155
  %158 = invoke noundef zeroext i16 @_ZN11xercesc_2_59ReaderMgr11getNextCharEv(ptr noundef nonnull align 8 dereferenceable(80) %156)
          to label %159 unwind label %160

159:                                              ; preds = %157
  switch i16 %158, label %157 [
    i16 62, label %184
    i16 0, label %184
  ]

160:                                              ; preds = %157
  %161 = landingpad { ptr, i32 }
          cleanup
  br label %196

162:                                              ; preds = %151
  %163 = landingpad { ptr, i32 }
          cleanup
  br label %196

164:                                              ; preds = %178, %183
  %165 = landingpad { ptr, i32 }
          cleanup
  br label %196

166:                                              ; preds = %153
  %167 = load ptr, ptr %94, align 8, !tbaa !86
  %168 = getelementptr inbounds %"class.xercesc_2_5::XMLScanner", ptr %167, i64 0, i32 9
  %169 = load i8, ptr %168, align 8, !tbaa !116, !range !59, !noundef !60
  %170 = icmp eq i8 %169, 0
  br i1 %170, label %175, label %171

171:                                              ; preds = %166
  %172 = getelementptr inbounds %"class.xercesc_2_5::XMLAttDef", ptr %152, i64 0, i32 2
  %173 = load i32, ptr %172, align 4, !tbaa !145
  %174 = icmp eq i32 %173, 1
  br i1 %174, label %176, label %175

175:                                              ; preds = %171, %166, %149, %134, %143
  br label %100

176:                                              ; preds = %171
  br i1 %99, label %177, label %178

177:                                              ; preds = %176, %183
  br label %98

178:                                              ; preds = %176
  %179 = getelementptr inbounds %"class.xercesc_2_5::XMLScanner", ptr %167, i64 0, i32 41
  %180 = load ptr, ptr %179, align 8, !tbaa !117
  %181 = load ptr, ptr %95, align 8, !tbaa !136
  %182 = invoke noundef ptr @_ZN11xercesc_2_55QName10getRawNameEv(ptr noundef nonnull align 8 dereferenceable(64) %181)
          to label %183 unwind label %164

183:                                              ; preds = %178
  invoke void @_ZN11xercesc_2_512XMLValidator9emitErrorENS_8XMLValid5CodesEPKtS4_S4_S4_(ptr noundef nonnull align 8 dereferenceable(40) %180, i32 noundef 11, ptr noundef %182, ptr noundef null, ptr noundef null, ptr noundef null)
          to label %177 unwind label %164

184:                                              ; preds = %159, %159, %117
  %185 = load ptr, ptr %83, align 8, !tbaa !68
  %186 = icmp eq ptr %185, null
  br i1 %186, label %193, label %187

187:                                              ; preds = %184
  %188 = load ptr, ptr %185, align 8, !tbaa !48
  %189 = getelementptr inbounds ptr, ptr %188, i64 8
  %190 = load ptr, ptr %189, align 8
  invoke void %190(ptr noundef nonnull align 8 dereferenceable(8) %185, ptr noundef nonnull align 8 dereferenceable(88) %82)
          to label %193 unwind label %191

191:                                              ; preds = %187
  %192 = landingpad { ptr, i32 }
          cleanup
  br label %196

193:                                              ; preds = %187, %184
  invoke void @_ZN11xercesc_2_512XMLBufferMgr13releaseBufferERNS_9XMLBufferE(ptr noundef nonnull align 8 dereferenceable(24) %91, ptr noundef nonnull align 8 dereferenceable(32) %92)
          to label %194 unwind label %109

194:                                              ; preds = %29, %29, %193
  tail call void @_ZN11xercesc_2_512XMLBufferMgr13releaseBufferERNS_9XMLBufferE(ptr noundef nonnull align 8 dereferenceable(24) %12, ptr noundef nonnull align 8 dereferenceable(32) %13)
  br label %195

195:                                              ; preds = %8, %8, %194
  ret void

196:                                              ; preds = %162, %164, %160, %111, %113, %115, %191
  %197 = phi { ptr, i32 } [ %192, %191 ], [ %116, %115 ], [ %112, %111 ], [ %114, %113 ], [ %161, %160 ], [ %163, %162 ], [ %165, %164 ]
  invoke void @_ZN11xercesc_2_512XMLBufferMgr13releaseBufferERNS_9XMLBufferE(ptr noundef nonnull align 8 dereferenceable(24) %91, ptr noundef nonnull align 8 dereferenceable(32) %92)
          to label %198 unwind label %201

198:                                              ; preds = %30, %32, %109, %196, %77, %79
  %199 = phi { ptr, i32 } [ %78, %77 ], [ %80, %79 ], [ %110, %109 ], [ %197, %196 ], [ %31, %30 ], [ %33, %32 ]
  invoke void @_ZN11xercesc_2_512XMLBufferMgr13releaseBufferERNS_9XMLBufferE(ptr noundef nonnull align 8 dereferenceable(24) %12, ptr noundef nonnull align 8 dereferenceable(32) %13)
          to label %200 unwind label %201

200:                                              ; preds = %198
  resume { ptr, i32 } %199

201:                                              ; preds = %198, %196, %79
  %202 = landingpad { ptr, i32 }
          catch ptr null
  %203 = extractvalue { ptr, i32 } %202, 0
  tail call void @__clang_call_terminate(ptr %203) #12
  unreachable

204:                                              ; preds = %108
  unreachable
}

declare void @_ZN11xercesc_2_514DTDElementDeclC1EPKtjNS0_10ModelTypesEPNS_13MemoryManagerE(ptr noundef nonnull align 8 dereferenceable(88), ptr noundef, i32 noundef, i32 noundef, ptr noundef) unnamed_addr #1

declare noundef zeroext i16 @_ZN11xercesc_2_59ReaderMgr12peekNextCharEv(ptr noundef nonnull align 8 dereferenceable(80)) local_unnamed_addr #1

; Function Attrs: uwtable
define linkonce_odr dso_local void @_ZN11xercesc_2_522UnexpectedEOFExceptionC2EPKcjNS_10XMLExcepts5CodesEPNS_13MemoryManagerE(ptr noundef nonnull align 8 dereferenceable(48) %0, ptr noundef %1, i32 noundef %2, i32 noundef %3, ptr noundef %4) unnamed_addr #3 comdat align 2 personality ptr @__gxx_personality_v0 {
  tail call void @_ZN11xercesc_2_512XMLExceptionC2EPKcjPNS_13MemoryManagerE(ptr noundef nonnull align 8 dereferenceable(48) %0, ptr noundef %1, i32 noundef %2, ptr noundef %4)
  store ptr getelementptr inbounds ({ [6 x ptr] }, ptr @_ZTVN11xercesc_2_522UnexpectedEOFExceptionE, i64 0, inrange i32 0, i64 2), ptr %0, align 8, !tbaa !48
  invoke void @_ZN11xercesc_2_512XMLException14loadExceptTextENS_10XMLExcepts5CodesE(ptr noundef nonnull align 8 dereferenceable(48) %0, i32 noundef %3)
          to label %6 unwind label %7

6:                                                ; preds = %5
  ret void

7:                                                ; preds = %5
  %8 = landingpad { ptr, i32 }
          cleanup
  invoke void @_ZN11xercesc_2_512XMLExceptionD2Ev(ptr noundef nonnull align 8 dereferenceable(48) %0)
          to label %9 unwind label %10

9:                                                ; preds = %7
  resume { ptr, i32 } %8

10:                                               ; preds = %7
  %11 = landingpad { ptr, i32 }
          catch ptr null
  %12 = extractvalue { ptr, i32 } %11, 0
  tail call void @__clang_call_terminate(ptr %12) #12
  unreachable
}

declare void @_ZN11xercesc_2_59ReaderMgr9getSpacesERNS_9XMLBufferE(ptr noundef nonnull align 8 dereferenceable(80), ptr noundef nonnull align 8 dereferenceable(32)) local_unnamed_addr #1

; Function Attrs: uwtable
define dso_local noundef zeroext i1 @_ZN11xercesc_2_510DTDScanner12scanAttValueEPKtRNS_9XMLBufferENS_9XMLAttDef8AttTypesE(ptr nocapture noundef nonnull readonly align 8 dereferenceable(112) %0, ptr noundef %1, ptr noundef nonnull align 8 dereferenceable(32) %2, i32 noundef %3) local_unnamed_addr #3 align 2 personality ptr @__gxx_personality_v0 {
  %5 = alloca i16, align 2
  %6 = alloca i16, align 2
  %7 = alloca i16, align 2
  %8 = alloca i8, align 1
  %9 = alloca [9 x i16], align 16
  %10 = getelementptr inbounds %"class.xercesc_2_5::XMLBuffer", ptr %2, i64 0, i32 1
  store i32 0, ptr %10, align 4, !tbaa !111
  %11 = getelementptr inbounds %"class.xercesc_2_5::XMLBuffer", ptr %2, i64 0, i32 4
  %12 = load ptr, ptr %11, align 8, !tbaa !112
  store i16 0, ptr %12, align 2, !tbaa !113
  call void @llvm.lifetime.start.p0(i64 2, ptr nonnull %5) #11
  %13 = getelementptr inbounds %"class.xercesc_2_5::DTDScanner", ptr %0, i64 0, i32 11
  %14 = load ptr, ptr %13, align 8, !tbaa !87
  %15 = call noundef zeroext i1 @_ZN11xercesc_2_59ReaderMgr11skipIfQuoteERt(ptr noundef nonnull align 8 dereferenceable(80) %14, ptr noundef nonnull align 2 dereferenceable(2) %5)
  br i1 %15, label %16, label %236

16:                                               ; preds = %4
  %17 = load ptr, ptr %13, align 8, !tbaa !87
  %18 = getelementptr inbounds %"class.xercesc_2_5::ReaderMgr", ptr %17, i64 0, i32 2
  %19 = load ptr, ptr %18, align 8, !tbaa !100
  %20 = getelementptr inbounds %"class.xercesc_2_5::XMLReader", ptr %19, i64 0, i32 14
  %21 = load i32, ptr %20, align 8, !tbaa !101
  call void @llvm.lifetime.start.p0(i64 2, ptr nonnull %6) #11
  call void @llvm.lifetime.start.p0(i64 2, ptr nonnull %7) #11
  store i16 0, ptr %7, align 2, !tbaa !113
  call void @llvm.lifetime.start.p0(i64 1, ptr nonnull %8) #11
  %22 = getelementptr inbounds %"class.xercesc_2_5::DTDScanner", ptr %0, i64 0, i32 12
  %23 = getelementptr inbounds %"class.xercesc_2_5::DTDScanner", ptr %0, i64 0, i32 1
  %24 = icmp eq i32 %3, 0
  %25 = getelementptr inbounds %"class.xercesc_2_5::XMLBuffer", ptr %2, i64 0, i32 2
  br label %26

26:                                               ; preds = %144, %16
  %27 = phi i32 [ 1, %16 ], [ %145, %144 ]
  %28 = phi i8 [ 0, %16 ], [ %146, %144 ]
  %29 = phi i8 [ 0, %16 ], [ %147, %144 ]
  %30 = load ptr, ptr %13, align 8, !tbaa !87
  br label %31

31:                                               ; preds = %183, %26
  %32 = phi ptr [ %30, %26 ], [ %173, %183 ]
  %33 = phi i32 [ %27, %26 ], [ 0, %183 ]
  %34 = phi i8 [ %29, %26 ], [ %171, %183 ]
  %35 = invoke noundef zeroext i16 @_ZN11xercesc_2_59ReaderMgr11getNextCharEv(ptr noundef nonnull align 8 dereferenceable(80) %32)
          to label %36 unwind label %67

36:                                               ; preds = %31
  store i16 %35, ptr %6, align 2, !tbaa !113
  %37 = icmp eq i16 %35, 0
  br i1 %37, label %61, label %38

38:                                               ; preds = %36
  %39 = load i16, ptr %5, align 2, !tbaa !113
  %40 = icmp eq i16 %35, %39
  br i1 %40, label %41, label %50

41:                                               ; preds = %38
  %42 = load ptr, ptr %13, align 8, !tbaa !87
  %43 = getelementptr inbounds %"class.xercesc_2_5::ReaderMgr", ptr %42, i64 0, i32 2
  %44 = load ptr, ptr %43, align 8, !tbaa !100
  %45 = getelementptr inbounds %"class.xercesc_2_5::XMLReader", ptr %44, i64 0, i32 14
  %46 = load i32, ptr %45, align 8, !tbaa !101
  %47 = icmp eq i32 %21, %46
  br i1 %47, label %233, label %48

48:                                               ; preds = %41
  %49 = icmp ugt i32 %21, %46
  br i1 %49, label %91, label %50

50:                                               ; preds = %48, %38
  store i8 0, ptr %8, align 1, !tbaa !126
  %51 = icmp eq i16 %35, 38
  br i1 %51, label %52, label %99

52:                                               ; preds = %50
  %53 = invoke noundef i32 @_ZN11xercesc_2_510DTDScanner13scanEntityRefERtS1_Rb(ptr noundef nonnull align 8 dereferenceable(112) %0, ptr noundef nonnull align 2 dereferenceable(2) %6, ptr noundef nonnull align 2 dereferenceable(2) %7, ptr noundef nonnull align 1 dereferenceable(1) %8)
          to label %54 unwind label %67, !range !157

54:                                               ; preds = %52
  %55 = icmp eq i32 %53, 2
  br i1 %55, label %148, label %56

56:                                               ; preds = %54, %97
  %57 = load ptr, ptr %13, align 8, !tbaa !87
  %58 = invoke noundef zeroext i16 @_ZN11xercesc_2_59ReaderMgr11getNextCharEv(ptr noundef nonnull align 8 dereferenceable(80) %57)
          to label %59 unwind label %65

59:                                               ; preds = %56
  store i16 %58, ptr %6, align 2, !tbaa !113
  %60 = icmp eq i16 %58, 0
  br i1 %60, label %61, label %79

61:                                               ; preds = %36, %59
  %62 = call ptr @__cxa_allocate_exception(i64 48) #11
  %63 = load ptr, ptr %23, align 8, !tbaa !65
  invoke void @_ZN11xercesc_2_522UnexpectedEOFExceptionC2EPKcjNS_10XMLExcepts5CodesEPNS_13MemoryManagerE(ptr noundef nonnull align 8 dereferenceable(48) %62, ptr noundef nonnull @.str, i32 noundef 1006, i32 noundef 47, ptr noundef %63)
          to label %64 unwind label %77

64:                                               ; preds = %61
  invoke void @__cxa_throw(ptr nonnull %62, ptr nonnull @_ZTIN11xercesc_2_522UnexpectedEOFExceptionE, ptr nonnull @_ZN11xercesc_2_512XMLExceptionD2Ev) #13
          to label %238 unwind label %75

65:                                               ; preds = %56, %95
  %66 = landingpad { ptr, i32 }
          cleanup
          catch ptr @_ZTIN11xercesc_2_520EndOfEntityExceptionE
  br label %134

67:                                               ; preds = %31, %52
  %68 = landingpad { ptr, i32 }
          cleanup
          catch ptr @_ZTIN11xercesc_2_520EndOfEntityExceptionE
  br label %134

69:                                               ; preds = %107, %113, %159
  %70 = landingpad { ptr, i32 }
          cleanup
          catch ptr @_ZTIN11xercesc_2_520EndOfEntityExceptionE
  br label %134

71:                                               ; preds = %191, %209, %223
  %72 = phi i32 [ %204, %223 ], [ %204, %209 ], [ 0, %191 ]
  %73 = phi i8 [ %205, %223 ], [ %205, %209 ], [ %28, %191 ]
  %74 = landingpad { ptr, i32 }
          cleanup
          catch ptr @_ZTIN11xercesc_2_520EndOfEntityExceptionE
  br label %134

75:                                               ; preds = %64, %91
  %76 = landingpad { ptr, i32 }
          cleanup
          catch ptr @_ZTIN11xercesc_2_520EndOfEntityExceptionE
  br label %134

77:                                               ; preds = %61
  %78 = landingpad { ptr, i32 }
          cleanup
          catch ptr @_ZTIN11xercesc_2_520EndOfEntityExceptionE
  call void @__cxa_free_exception(ptr %62) #11
  br label %134

79:                                               ; preds = %59
  %80 = load i16, ptr %5, align 2, !tbaa !113
  %81 = icmp eq i16 %58, %80
  br i1 %81, label %82, label %93

82:                                               ; preds = %79
  %83 = load ptr, ptr %13, align 8, !tbaa !87
  %84 = getelementptr inbounds %"class.xercesc_2_5::ReaderMgr", ptr %83, i64 0, i32 2
  %85 = load ptr, ptr %84, align 8, !tbaa !100
  %86 = getelementptr inbounds %"class.xercesc_2_5::XMLReader", ptr %85, i64 0, i32 14
  %87 = load i32, ptr %86, align 8, !tbaa !101
  %88 = icmp eq i32 %21, %87
  br i1 %88, label %233, label %89

89:                                               ; preds = %82
  %90 = icmp ugt i32 %21, %87
  br i1 %90, label %91, label %93

91:                                               ; preds = %48, %89
  %92 = load ptr, ptr %22, align 8, !tbaa !86
  invoke void @_ZN11xercesc_2_510XMLScanner9emitErrorENS_7XMLErrs5CodesE(ptr noundef nonnull align 8 dereferenceable(664) %92, i32 noundef 231)
          to label %233 unwind label %75

93:                                               ; preds = %89, %79
  store i8 0, ptr %8, align 1, !tbaa !126
  %94 = icmp eq i16 %58, 38
  br i1 %94, label %95, label %99

95:                                               ; preds = %93
  %96 = invoke noundef i32 @_ZN11xercesc_2_510DTDScanner13scanEntityRefERtS1_Rb(ptr noundef nonnull align 8 dereferenceable(112) %0, ptr noundef nonnull align 2 dereferenceable(2) %6, ptr noundef nonnull align 2 dereferenceable(2) %7, ptr noundef nonnull align 1 dereferenceable(1) %8)
          to label %97 unwind label %65, !range !157

97:                                               ; preds = %95
  %98 = icmp eq i32 %96, 2
  br i1 %98, label %148, label %56, !llvm.loop !158

99:                                               ; preds = %93, %50
  %100 = phi i8 [ %34, %50 ], [ 0, %93 ]
  %101 = phi i16 [ %35, %50 ], [ %58, %93 ]
  %102 = and i16 %101, -1024
  %103 = icmp eq i16 %102, -10240
  %104 = and i8 %100, 1
  %105 = icmp eq i8 %104, 0
  br i1 %103, label %106, label %109

106:                                              ; preds = %99
  br i1 %105, label %162, label %107

107:                                              ; preds = %106
  %108 = load ptr, ptr %22, align 8, !tbaa !86
  invoke void @_ZN11xercesc_2_510XMLScanner9emitErrorENS_7XMLErrs5CodesE(ptr noundef nonnull align 8 dereferenceable(664) %108, i32 noundef 249)
          to label %162 unwind label %69

109:                                              ; preds = %99
  br i1 %105, label %115, label %110

110:                                              ; preds = %109
  %111 = add i16 %101, 8192
  %112 = icmp ult i16 %111, -1024
  br i1 %112, label %113, label %162

113:                                              ; preds = %110
  %114 = load ptr, ptr %22, align 8, !tbaa !86
  invoke void @_ZN11xercesc_2_510XMLScanner9emitErrorENS_7XMLErrs5CodesE(ptr noundef nonnull align 8 dereferenceable(664) %114, i32 noundef 249)
          to label %152 unwind label %69

115:                                              ; preds = %109
  %116 = load ptr, ptr %13, align 8, !tbaa !87
  %117 = getelementptr inbounds %"class.xercesc_2_5::ReaderMgr", ptr %116, i64 0, i32 2
  %118 = load ptr, ptr %117, align 8, !tbaa !100
  %119 = getelementptr inbounds %"class.xercesc_2_5::XMLReader", ptr %118, i64 0, i32 27
  %120 = load ptr, ptr %119, align 8, !tbaa !127
  %121 = zext i16 %101 to i64
  %122 = getelementptr inbounds i8, ptr %120, i64 %121
  %123 = load i8, ptr %122, align 1, !tbaa !128
  %124 = and i8 %123, 64
  %125 = icmp eq i8 %124, 0
  br i1 %125, label %126, label %152

126:                                              ; preds = %115
  call void @llvm.lifetime.start.p0(i64 18, ptr nonnull %9) #11
  %127 = zext i16 %101 to i32
  %128 = load ptr, ptr %23, align 8, !tbaa !65
  invoke void @_ZN11xercesc_2_59XMLString9binToTextEiPtjjPNS_13MemoryManagerE(i32 noundef %127, ptr noundef nonnull %9, i32 noundef 8, i32 noundef 16, ptr noundef %128)
          to label %129 unwind label %132

129:                                              ; preds = %126
  %130 = load ptr, ptr %22, align 8, !tbaa !86
  invoke void @_ZN11xercesc_2_510XMLScanner9emitErrorENS_7XMLErrs5CodesEPKtS4_S4_S4_(ptr noundef nonnull align 8 dereferenceable(664) %130, i32 noundef 218, ptr noundef %1, ptr noundef nonnull %9, ptr noundef null, ptr noundef null)
          to label %131 unwind label %132

131:                                              ; preds = %129
  call void @llvm.lifetime.end.p0(i64 18, ptr nonnull %9) #11
  br label %152

132:                                              ; preds = %129, %126
  %133 = landingpad { ptr, i32 }
          cleanup
          catch ptr @_ZTIN11xercesc_2_520EndOfEntityExceptionE
  call void @llvm.lifetime.end.p0(i64 18, ptr nonnull %9) #11
  br label %134

134:                                              ; preds = %65, %67, %75, %69, %71, %132, %77
  %135 = phi i32 [ %33, %132 ], [ %33, %77 ], [ %33, %75 ], [ %33, %69 ], [ %72, %71 ], [ %33, %67 ], [ %33, %65 ]
  %136 = phi i8 [ %28, %132 ], [ %28, %77 ], [ %28, %75 ], [ %28, %69 ], [ %73, %71 ], [ %28, %67 ], [ %28, %65 ]
  %137 = phi { ptr, i32 } [ %133, %132 ], [ %78, %77 ], [ %76, %75 ], [ %70, %69 ], [ %74, %71 ], [ %68, %67 ], [ %66, %65 ]
  %138 = extractvalue { ptr, i32 } %137, 1
  %139 = call i32 @llvm.eh.typeid.for(ptr nonnull @_ZTIN11xercesc_2_520EndOfEntityExceptionE) #11
  %140 = icmp eq i32 %138, %139
  br i1 %140, label %141, label %235

141:                                              ; preds = %134
  %142 = extractvalue { ptr, i32 } %137, 0
  %143 = call ptr @__cxa_begin_catch(ptr %142) #11
  store i8 0, ptr %8, align 1, !tbaa !126
  call void @__cxa_end_catch()
  br label %144

144:                                              ; preds = %141, %227, %212
  %145 = phi i32 [ %135, %141 ], [ %204, %227 ], [ %204, %212 ]
  %146 = phi i8 [ %136, %141 ], [ %205, %227 ], [ %205, %212 ]
  %147 = phi i8 [ 0, %141 ], [ %202, %227 ], [ %202, %212 ]
  br label %26

148:                                              ; preds = %97, %54
  %149 = phi i8 [ %34, %54 ], [ 0, %97 ]
  %150 = load i8, ptr %8, align 1, !tbaa !126, !range !59
  %151 = load i16, ptr %6, align 2
  br label %152

152:                                              ; preds = %148, %113, %131, %115
  %153 = phi i16 [ %101, %115 ], [ %101, %131 ], [ %101, %113 ], [ %151, %148 ]
  %154 = phi i8 [ 0, %115 ], [ 0, %131 ], [ 0, %113 ], [ %150, %148 ]
  %155 = phi i8 [ 0, %115 ], [ 0, %131 ], [ 0, %113 ], [ %149, %148 ]
  %156 = icmp eq i8 %154, 0
  %157 = icmp eq i16 %153, 60
  %158 = select i1 %156, i1 %157, i1 false
  br i1 %158, label %159, label %161

159:                                              ; preds = %152
  %160 = load ptr, ptr %22, align 8, !tbaa !86
  invoke void @_ZN11xercesc_2_510XMLScanner9emitErrorENS_7XMLErrs5CodesEPKtS4_S4_S4_(ptr noundef nonnull align 8 dereferenceable(664) %160, i32 noundef 248, ptr noundef %1, ptr noundef null, ptr noundef null, ptr noundef null)
          to label %161 unwind label %69

161:                                              ; preds = %159, %152
  br i1 %24, label %164, label %169

162:                                              ; preds = %110, %106, %107
  %163 = phi i8 [ 0, %110 ], [ 1, %106 ], [ %100, %107 ]
  br i1 %24, label %165, label %169

164:                                              ; preds = %161
  br i1 %156, label %165, label %201

165:                                              ; preds = %162, %164
  %166 = phi i8 [ %155, %164 ], [ %163, %162 ]
  %167 = phi i16 [ %153, %164 ], [ %101, %162 ]
  switch i16 %167, label %201 [
    i16 13, label %168
    i16 10, label %168
    i16 9, label %168
  ]

168:                                              ; preds = %165, %165, %165
  store i16 32, ptr %6, align 2, !tbaa !113
  br label %201

169:                                              ; preds = %162, %161
  %170 = phi i16 [ %101, %162 ], [ %153, %161 ]
  %171 = phi i8 [ %163, %162 ], [ %155, %161 ]
  %172 = icmp eq i32 %33, 0
  %173 = load ptr, ptr %13, align 8, !tbaa !87
  %174 = getelementptr inbounds %"class.xercesc_2_5::ReaderMgr", ptr %173, i64 0, i32 2
  %175 = load ptr, ptr %174, align 8, !tbaa !100
  %176 = getelementptr inbounds %"class.xercesc_2_5::XMLReader", ptr %175, i64 0, i32 27
  %177 = load ptr, ptr %176, align 8, !tbaa !127
  %178 = zext i16 %170 to i64
  %179 = getelementptr inbounds i8, ptr %177, i64 %178
  %180 = load i8, ptr %179, align 1, !tbaa !128
  %181 = icmp slt i8 %180, 0
  br i1 %172, label %182, label %200

182:                                              ; preds = %169
  br i1 %181, label %183, label %184

183:                                              ; preds = %182, %200
  br label %31

184:                                              ; preds = %182
  %185 = and i8 %28, 1
  %186 = icmp eq i8 %185, 0
  br i1 %186, label %201, label %187

187:                                              ; preds = %184
  %188 = load i32, ptr %10, align 4, !tbaa !111
  %189 = load i32, ptr %25, align 8, !tbaa !134
  %190 = icmp eq i32 %188, %189
  br i1 %190, label %191, label %194

191:                                              ; preds = %187
  invoke void @_ZN11xercesc_2_59XMLBuffer6expandEv(ptr noundef nonnull align 8 dereferenceable(32) %2)
          to label %192 unwind label %71

192:                                              ; preds = %191
  %193 = load i32, ptr %10, align 4, !tbaa !111
  br label %194

194:                                              ; preds = %187, %192
  %195 = phi i32 [ %193, %192 ], [ %188, %187 ]
  %196 = load ptr, ptr %11, align 8, !tbaa !112
  %197 = add i32 %195, 1
  store i32 %197, ptr %10, align 4, !tbaa !111
  %198 = zext i32 %195 to i64
  %199 = getelementptr inbounds i16, ptr %196, i64 %198
  store i16 32, ptr %199, align 2, !tbaa !113
  br label %201

200:                                              ; preds = %169
  br i1 %181, label %183, label %201

201:                                              ; preds = %200, %194, %184, %165, %164, %168
  %202 = phi i8 [ %155, %164 ], [ %166, %168 ], [ %166, %165 ], [ %171, %194 ], [ %171, %184 ], [ %171, %200 ]
  %203 = phi i16 [ %153, %164 ], [ 32, %168 ], [ %167, %165 ], [ %170, %194 ], [ %170, %184 ], [ %170, %200 ]
  %204 = phi i32 [ %27, %164 ], [ %27, %168 ], [ %27, %165 ], [ 1, %194 ], [ 1, %184 ], [ 1, %200 ]
  %205 = phi i8 [ %28, %164 ], [ %28, %168 ], [ %28, %165 ], [ 1, %194 ], [ 1, %184 ], [ 1, %200 ]
  %206 = load i32, ptr %10, align 4, !tbaa !111
  %207 = load i32, ptr %25, align 8, !tbaa !134
  %208 = icmp eq i32 %206, %207
  br i1 %208, label %209, label %212

209:                                              ; preds = %201
  invoke void @_ZN11xercesc_2_59XMLBuffer6expandEv(ptr noundef nonnull align 8 dereferenceable(32) %2)
          to label %210 unwind label %71

210:                                              ; preds = %209
  %211 = load i32, ptr %10, align 4, !tbaa !111
  br label %212

212:                                              ; preds = %210, %201
  %213 = phi i32 [ %211, %210 ], [ %206, %201 ]
  %214 = load ptr, ptr %11, align 8, !tbaa !112
  %215 = add i32 %213, 1
  store i32 %215, ptr %10, align 4, !tbaa !111
  %216 = zext i32 %213 to i64
  %217 = getelementptr inbounds i16, ptr %214, i64 %216
  store i16 %203, ptr %217, align 2, !tbaa !113
  %218 = load i16, ptr %7, align 2, !tbaa !113
  %219 = icmp eq i16 %218, 0
  br i1 %219, label %144, label %220

220:                                              ; preds = %212
  %221 = load i32, ptr %25, align 8, !tbaa !134
  %222 = icmp eq i32 %215, %221
  br i1 %222, label %223, label %227

223:                                              ; preds = %220
  invoke void @_ZN11xercesc_2_59XMLBuffer6expandEv(ptr noundef nonnull align 8 dereferenceable(32) %2)
          to label %224 unwind label %71

224:                                              ; preds = %223
  %225 = load i32, ptr %10, align 4, !tbaa !111
  %226 = load ptr, ptr %11, align 8, !tbaa !112
  br label %227

227:                                              ; preds = %220, %224
  %228 = phi ptr [ %226, %224 ], [ %214, %220 ]
  %229 = phi i32 [ %225, %224 ], [ %215, %220 ]
  %230 = add i32 %229, 1
  store i32 %230, ptr %10, align 4, !tbaa !111
  %231 = zext i32 %229 to i64
  %232 = getelementptr inbounds i16, ptr %228, i64 %231
  store i16 %218, ptr %232, align 2, !tbaa !113
  br label %144

233:                                              ; preds = %91, %41, %82
  %234 = phi i1 [ true, %82 ], [ true, %41 ], [ false, %91 ]
  call void @llvm.lifetime.end.p0(i64 1, ptr nonnull %8) #11
  call void @llvm.lifetime.end.p0(i64 2, ptr nonnull %7) #11
  call void @llvm.lifetime.end.p0(i64 2, ptr nonnull %6) #11
  br label %236

235:                                              ; preds = %134
  call void @llvm.lifetime.end.p0(i64 1, ptr nonnull %8) #11
  call void @llvm.lifetime.end.p0(i64 2, ptr nonnull %7) #11
  call void @llvm.lifetime.end.p0(i64 2, ptr nonnull %6) #11
  call void @llvm.lifetime.end.p0(i64 2, ptr nonnull %5) #11
  resume { ptr, i32 } %137

236:                                              ; preds = %4, %233
  %237 = phi i1 [ %234, %233 ], [ false, %4 ]
  call void @llvm.lifetime.end.p0(i64 2, ptr nonnull %5) #11
  ret i1 %237

238:                                              ; preds = %64
  unreachable
}

; Function Attrs: uwtable
define dso_local noundef i32 @_ZN11xercesc_2_510DTDScanner13scanEntityRefERtS1_Rb(ptr nocapture noundef nonnull readonly align 8 dereferenceable(112) %0, ptr nocapture noundef nonnull align 2 dereferenceable(2) %1, ptr nocapture noundef nonnull writeonly align 2 dereferenceable(2) %2, ptr nocapture noundef nonnull writeonly align 1 dereferenceable(1) %3) local_unnamed_addr #3 align 2 personality ptr @__gxx_personality_v0 {
  %5 = alloca i32, align 4
  %6 = alloca i32, align 4
  %7 = alloca ptr, align 8
  store i8 0, ptr %3, align 1, !tbaa !126
  store i16 0, ptr %2, align 2, !tbaa !113
  %8 = getelementptr inbounds %"class.xercesc_2_5::DTDScanner", ptr %0, i64 0, i32 11
  %9 = load ptr, ptr %8, align 8, !tbaa !87
  %10 = getelementptr inbounds %"class.xercesc_2_5::ReaderMgr", ptr %9, i64 0, i32 2
  %11 = load ptr, ptr %10, align 8, !tbaa !100
  %12 = getelementptr inbounds %"class.xercesc_2_5::XMLReader", ptr %11, i64 0, i32 14
  %13 = load i32, ptr %12, align 8, !tbaa !101
  %14 = tail call noundef zeroext i1 @_ZN11xercesc_2_59ReaderMgr11skippedCharEt(ptr noundef nonnull align 8 dereferenceable(80) %9, i16 noundef zeroext 35)
  br i1 %14, label %15, label %28

15:                                               ; preds = %4
  %16 = tail call noundef zeroext i1 @_ZN11xercesc_2_510DTDScanner11scanCharRefERtS1_(ptr noundef nonnull align 8 dereferenceable(112) %0, ptr noundef nonnull align 2 dereferenceable(2) %1, ptr noundef nonnull align 2 dereferenceable(2) %2)
  br i1 %16, label %17, label %245

17:                                               ; preds = %15
  %18 = load ptr, ptr %8, align 8, !tbaa !87
  %19 = getelementptr inbounds %"class.xercesc_2_5::ReaderMgr", ptr %18, i64 0, i32 2
  %20 = load ptr, ptr %19, align 8, !tbaa !100
  %21 = getelementptr inbounds %"class.xercesc_2_5::XMLReader", ptr %20, i64 0, i32 14
  %22 = load i32, ptr %21, align 8, !tbaa !101
  %23 = icmp eq i32 %13, %22
  br i1 %23, label %27, label %24

24:                                               ; preds = %17
  %25 = getelementptr inbounds %"class.xercesc_2_5::DTDScanner", ptr %0, i64 0, i32 12
  %26 = load ptr, ptr %25, align 8, !tbaa !86
  tail call void @_ZN11xercesc_2_510XMLScanner9emitErrorENS_7XMLErrs5CodesE(ptr noundef nonnull align 8 dereferenceable(664) %26, i32 noundef 231)
  br label %27

27:                                               ; preds = %24, %17
  store i8 1, ptr %3, align 1, !tbaa !126
  br label %245

28:                                               ; preds = %4
  %29 = getelementptr inbounds %"class.xercesc_2_5::DTDScanner", ptr %0, i64 0, i32 10
  %30 = load ptr, ptr %29, align 8, !tbaa !88
  %31 = tail call noundef nonnull align 8 dereferenceable(32) ptr @_ZN11xercesc_2_512XMLBufferMgr11bidOnBufferEv(ptr noundef nonnull align 8 dereferenceable(24) %30)
  %32 = load ptr, ptr %8, align 8, !tbaa !87
  %33 = getelementptr inbounds %"class.xercesc_2_5::XMLBuffer", ptr %31, i64 0, i32 1
  store i32 0, ptr %33, align 4, !tbaa !111
  %34 = getelementptr inbounds %"class.xercesc_2_5::XMLBuffer", ptr %31, i64 0, i32 4
  %35 = load ptr, ptr %34, align 8, !tbaa !112
  store i16 0, ptr %35, align 2, !tbaa !113
  %36 = getelementptr inbounds %"class.xercesc_2_5::ReaderMgr", ptr %32, i64 0, i32 2
  %37 = load ptr, ptr %36, align 8, !tbaa !100
  %38 = invoke noundef zeroext i1 @_ZN11xercesc_2_59XMLReader7getNameERNS_9XMLBufferEb(ptr noundef nonnull align 8 dereferenceable(98456) %37, ptr noundef nonnull align 8 dereferenceable(32) %31, i1 noundef zeroext false)
          to label %39 unwind label %43

39:                                               ; preds = %28
  br i1 %38, label %45, label %40

40:                                               ; preds = %39
  %41 = getelementptr inbounds %"class.xercesc_2_5::DTDScanner", ptr %0, i64 0, i32 12
  %42 = load ptr, ptr %41, align 8, !tbaa !86
  invoke void @_ZN11xercesc_2_510XMLScanner9emitErrorENS_7XMLErrs5CodesE(ptr noundef nonnull align 8 dereferenceable(664) %42, i32 noundef 226)
          to label %240 unwind label %43

43:                                               ; preds = %28, %63, %49, %45, %40
  %44 = landingpad { ptr, i32 }
          cleanup
  br label %242

45:                                               ; preds = %39
  %46 = load ptr, ptr %8, align 8, !tbaa !87
  %47 = invoke noundef zeroext i1 @_ZN11xercesc_2_59ReaderMgr11skippedCharEt(ptr noundef nonnull align 8 dereferenceable(80) %46, i16 noundef zeroext 59)
          to label %48 unwind label %43

48:                                               ; preds = %45
  br i1 %47, label %56, label %49

49:                                               ; preds = %48
  %50 = getelementptr inbounds %"class.xercesc_2_5::DTDScanner", ptr %0, i64 0, i32 12
  %51 = load ptr, ptr %50, align 8, !tbaa !86
  %52 = load ptr, ptr %34, align 8, !tbaa !112
  %53 = load i32, ptr %33, align 4, !tbaa !111
  %54 = zext i32 %53 to i64
  %55 = getelementptr inbounds i16, ptr %52, i64 %54
  store i16 0, ptr %55, align 2, !tbaa !113
  invoke void @_ZN11xercesc_2_510XMLScanner9emitErrorENS_7XMLErrs5CodesEPKtS4_S4_S4_(ptr noundef nonnull align 8 dereferenceable(664) %51, i32 noundef 229, ptr noundef nonnull %52, ptr noundef null, ptr noundef null, ptr noundef null)
          to label %56 unwind label %43

56:                                               ; preds = %48, %49
  %57 = load ptr, ptr %8, align 8, !tbaa !87
  %58 = getelementptr inbounds %"class.xercesc_2_5::ReaderMgr", ptr %57, i64 0, i32 2
  %59 = load ptr, ptr %58, align 8, !tbaa !100
  %60 = getelementptr inbounds %"class.xercesc_2_5::XMLReader", ptr %59, i64 0, i32 14
  %61 = load i32, ptr %60, align 8, !tbaa !101
  %62 = icmp eq i32 %13, %61
  br i1 %62, label %66, label %63

63:                                               ; preds = %56
  %64 = getelementptr inbounds %"class.xercesc_2_5::DTDScanner", ptr %0, i64 0, i32 12
  %65 = load ptr, ptr %64, align 8, !tbaa !86
  invoke void @_ZN11xercesc_2_510XMLScanner9emitErrorENS_7XMLErrs5CodesE(ptr noundef nonnull align 8 dereferenceable(664) %65, i32 noundef 231)
          to label %66 unwind label %43

66:                                               ; preds = %63, %56
  %67 = getelementptr inbounds %"class.xercesc_2_5::DTDScanner", ptr %0, i64 0, i32 9
  %68 = load ptr, ptr %67, align 8, !tbaa !70
  %69 = load ptr, ptr %34, align 8, !tbaa !112
  %70 = load i32, ptr %33, align 4, !tbaa !111
  %71 = zext i32 %70 to i64
  %72 = getelementptr inbounds i16, ptr %69, i64 %71
  store i16 0, ptr %72, align 2, !tbaa !113
  %73 = load ptr, ptr @_ZN11xercesc_2_510DTDGrammar16fDefaultEntitiesE, align 8, !tbaa !77
  call void @llvm.lifetime.start.p0(i64 4, ptr nonnull %6) #11
  %74 = invoke noundef ptr @_ZN11xercesc_2_510NameIdPoolINS_13DTDEntityDeclEE14findBucketElemEPKtRj(ptr noundef nonnull align 8 dereferenceable(36) %73, ptr noundef nonnull %69, ptr noundef nonnull align 4 dereferenceable(4) %6)
          to label %75 unwind label %101

75:                                               ; preds = %66
  %76 = icmp eq ptr %74, null
  br i1 %76, label %77, label %78

77:                                               ; preds = %75
  call void @llvm.lifetime.end.p0(i64 4, ptr nonnull %6) #11
  br label %81

78:                                               ; preds = %75
  %79 = load ptr, ptr %74, align 8, !tbaa !85
  call void @llvm.lifetime.end.p0(i64 4, ptr nonnull %6) #11
  %80 = icmp eq ptr %79, null
  br i1 %80, label %81, label %114

81:                                               ; preds = %78, %77
  %82 = getelementptr inbounds %"class.xercesc_2_5::DTDGrammar", ptr %68, i64 0, i32 4
  %83 = load ptr, ptr %82, align 8, !tbaa !159
  call void @llvm.lifetime.start.p0(i64 4, ptr nonnull %5) #11
  %84 = invoke noundef ptr @_ZN11xercesc_2_510NameIdPoolINS_13DTDEntityDeclEE14findBucketElemEPKtRj(ptr noundef nonnull align 8 dereferenceable(36) %83, ptr noundef nonnull %69, ptr noundef nonnull align 4 dereferenceable(4) %5)
          to label %85 unwind label %101

85:                                               ; preds = %81
  %86 = icmp eq ptr %84, null
  br i1 %86, label %87, label %88

87:                                               ; preds = %85
  call void @llvm.lifetime.end.p0(i64 4, ptr nonnull %5) #11
  br label %91

88:                                               ; preds = %85
  %89 = load ptr, ptr %84, align 8, !tbaa !85
  call void @llvm.lifetime.end.p0(i64 4, ptr nonnull %5) #11
  %90 = icmp eq ptr %89, null
  br i1 %90, label %91, label %114

91:                                               ; preds = %87, %88
  %92 = getelementptr inbounds %"class.xercesc_2_5::DTDScanner", ptr %0, i64 0, i32 12
  %93 = load ptr, ptr %92, align 8, !tbaa !86
  %94 = getelementptr inbounds %"class.xercesc_2_5::XMLScanner", ptr %93, i64 0, i32 7
  %95 = load i8, ptr %94, align 2, !tbaa !115, !range !59, !noundef !60
  %96 = icmp eq i8 %95, 0
  br i1 %96, label %97, label %156

97:                                               ; preds = %91
  %98 = getelementptr inbounds %"class.xercesc_2_5::XMLScanner", ptr %93, i64 0, i32 8
  %99 = load i8, ptr %98, align 1, !tbaa !109, !range !59, !noundef !60
  %100 = icmp eq i8 %99, 0
  br i1 %100, label %103, label %156

101:                                              ; preds = %156, %81, %66, %163, %133, %127, %121, %107
  %102 = landingpad { ptr, i32 }
          cleanup
  br label %242

103:                                              ; preds = %97
  %104 = getelementptr inbounds %"class.xercesc_2_5::XMLScanner", ptr %93, i64 0, i32 9
  %105 = load i8, ptr %104, align 8, !tbaa !116, !range !59, !noundef !60
