; ModuleID = 'ElemTextLiteral.cpp'
source_filename = "ElemTextLiteral.cpp"
target datalayout = "e-m:e-p270:32:32-p271:32:32-p272:64:64-i64:64-f80:128-n8:16:32:64-S128"
target triple = "x86_64-unknown-linux-gnu"

%"class.xalanc_1_8::Stylesheet" = type { %"class.xalanc_1_8::PrefixResolver", ptr, %"class.xalanc_1_8::XalanDOMString", %"class.std::vector.18", %"class.std::vector.23", %"class.xalanc_1_8::XalanDOMString", %"class.std::vector.28", i64, %"class.std::deque", %"class.std::deque.36", i8, %"class.std::map.42", ptr, %"class.std::vector.49", %"class.std::map.54", %"class.std::vector.62", double, %"class.std::map.67", %"struct.std::_Rb_tree_const_iterator", %"class.std::vector.72", %"class.std::map.67", %"struct.std::_Rb_tree_const_iterator", %"class.std::vector.72", %"class.std::vector.72", %"class.std::vector.72", %"class.std::vector.72", %"class.std::vector.72", %"class.std::vector.72", %"class.std::deque.77", i64, %"class.std::vector.83", %"class.xalanc_1_8::NamespacesHandler" }
%"class.xalanc_1_8::PrefixResolver" = type { ptr }
%"class.std::vector.18" = type { %"struct.std::_Vector_base.19" }
%"struct.std::_Vector_base.19" = type { %"struct.std::_Vector_base<xalanc_1_8::KeyDeclaration, std::allocator<xalanc_1_8::KeyDeclaration> >::_Vector_impl" }
%"struct.std::_Vector_base<xalanc_1_8::KeyDeclaration, std::allocator<xalanc_1_8::KeyDeclaration> >::_Vector_impl" = type { %"struct.std::_Vector_base<xalanc_1_8::KeyDeclaration, std::allocator<xalanc_1_8::KeyDeclaration> >::_Vector_impl_data" }
%"struct.std::_Vector_base<xalanc_1_8::KeyDeclaration, std::allocator<xalanc_1_8::KeyDeclaration> >::_Vector_impl_data" = type { ptr, ptr, ptr }
%"class.std::vector.23" = type { %"struct.std::_Vector_base.24" }
%"struct.std::_Vector_base.24" = type { %"struct.std::_Vector_base<xalanc_1_8::XalanSpaceNodeTester, std::allocator<xalanc_1_8::XalanSpaceNodeTester> >::_Vector_impl" }
%"struct.std::_Vector_base<xalanc_1_8::XalanSpaceNodeTester, std::allocator<xalanc_1_8::XalanSpaceNodeTester> >::_Vector_impl" = type { %"struct.std::_Vector_base<xalanc_1_8::XalanSpaceNodeTester, std::allocator<xalanc_1_8::XalanSpaceNodeTester> >::_Vector_impl_data" }
%"struct.std::_Vector_base<xalanc_1_8::XalanSpaceNodeTester, std::allocator<xalanc_1_8::XalanSpaceNodeTester> >::_Vector_impl_data" = type { ptr, ptr, ptr }
%"class.xalanc_1_8::XalanDOMString" = type <{ %"class.std::vector.13", i32, [4 x i8] }>
%"class.std::vector.13" = type { %"struct.std::_Vector_base.14" }
%"struct.std::_Vector_base.14" = type { %"struct.std::_Vector_base<unsigned short, std::allocator<unsigned short> >::_Vector_impl" }
%"struct.std::_Vector_base<unsigned short, std::allocator<unsigned short> >::_Vector_impl" = type { %"struct.std::_Vector_base<unsigned short, std::allocator<unsigned short> >::_Vector_impl_data" }
%"struct.std::_Vector_base<unsigned short, std::allocator<unsigned short> >::_Vector_impl_data" = type { ptr, ptr, ptr }
%"class.std::vector.28" = type { %"struct.std::_Vector_base.29" }
%"struct.std::_Vector_base.29" = type { %"struct.std::_Vector_base<xalanc_1_8::Stylesheet *, std::allocator<xalanc_1_8::Stylesheet *> >::_Vector_impl" }
%"struct.std::_Vector_base<xalanc_1_8::Stylesheet *, std::allocator<xalanc_1_8::Stylesheet *> >::_Vector_impl" = type { %"struct.std::_Vector_base<xalanc_1_8::Stylesheet *, std::allocator<xalanc_1_8::Stylesheet *> >::_Vector_impl_data" }
%"struct.std::_Vector_base<xalanc_1_8::Stylesheet *, std::allocator<xalanc_1_8::Stylesheet *> >::_Vector_impl_data" = type { ptr, ptr, ptr }
%"class.std::deque" = type { %"class.std::_Deque_base" }
%"class.std::_Deque_base" = type { %"struct.std::_Deque_base<std::deque<xalanc_1_8::NameSpace>, std::allocator<std::deque<xalanc_1_8::NameSpace> > >::_Deque_impl" }
%"struct.std::_Deque_base<std::deque<xalanc_1_8::NameSpace>, std::allocator<std::deque<xalanc_1_8::NameSpace> > >::_Deque_impl" = type { ptr, i64, %"struct.std::_Deque_iterator", %"struct.std::_Deque_iterator" }
%"struct.std::_Deque_iterator" = type { ptr, ptr, ptr, ptr }
%"class.std::deque.36" = type { %"class.std::_Deque_base.37" }
%"class.std::_Deque_base.37" = type { %"struct.std::_Deque_base<xalanc_1_8::NameSpace, std::allocator<xalanc_1_8::NameSpace> >::_Deque_impl" }
%"struct.std::_Deque_base<xalanc_1_8::NameSpace, std::allocator<xalanc_1_8::NameSpace> >::_Deque_impl" = type { ptr, i64, %"struct.std::_Deque_iterator.41", %"struct.std::_Deque_iterator.41" }
%"struct.std::_Deque_iterator.41" = type { ptr, ptr, ptr, ptr }
%"class.std::map.42" = type { %"class.std::_Rb_tree.43" }
%"class.std::_Rb_tree.43" = type { %"struct.std::_Rb_tree<xalanc_1_8::XalanDOMString, std::pair<const xalanc_1_8::XalanDOMString, xalanc_1_8::ExtensionNSHandler *>, std::_Select1st<std::pair<const xalanc_1_8::XalanDOMString, xalanc_1_8::ExtensionNSHandler *> >, std::less<xalanc_1_8::XalanDOMString> >::_Rb_tree_impl" }
%"struct.std::_Rb_tree<xalanc_1_8::XalanDOMString, std::pair<const xalanc_1_8::XalanDOMString, xalanc_1_8::ExtensionNSHandler *>, std::_Select1st<std::pair<const xalanc_1_8::XalanDOMString, xalanc_1_8::ExtensionNSHandler *> >, std::less<xalanc_1_8::XalanDOMString> >::_Rb_tree_impl" = type { %"struct.std::_Rb_tree_key_compare.47", %"struct.std::_Rb_tree_header" }
%"struct.std::_Rb_tree_key_compare.47" = type { %"struct.std::less" }
%"struct.std::less" = type { i8 }
%"struct.std::_Rb_tree_header" = type { %"struct.std::_Rb_tree_node_base", i64 }
%"struct.std::_Rb_tree_node_base" = type { i32, ptr, ptr, ptr }
%"class.std::vector.49" = type { %"struct.std::_Vector_base.50" }
%"struct.std::_Vector_base.50" = type { %"struct.std::_Vector_base<xalanc_1_8::XalanDOMString, std::allocator<xalanc_1_8::XalanDOMString> >::_Vector_impl" }
%"struct.std::_Vector_base<xalanc_1_8::XalanDOMString, std::allocator<xalanc_1_8::XalanDOMString> >::_Vector_impl" = type { %"struct.std::_Vector_base<xalanc_1_8::XalanDOMString, std::allocator<xalanc_1_8::XalanDOMString> >::_Vector_impl_data" }
%"struct.std::_Vector_base<xalanc_1_8::XalanDOMString, std::allocator<xalanc_1_8::XalanDOMString> >::_Vector_impl_data" = type { ptr, ptr, ptr }
%"class.std::map.54" = type { %"class.std::_Rb_tree.55" }
%"class.std::_Rb_tree.55" = type { %"struct.std::_Rb_tree<xalanc_1_8::XalanQNameByReference, std::pair<const xalanc_1_8::XalanQNameByReference, const xalanc_1_8::ElemTemplate *>, std::_Select1st<std::pair<const xalanc_1_8::XalanQNameByReference, const xalanc_1_8::ElemTemplate *> >, std::less<xalanc_1_8::XalanQName> >::_Rb_tree_impl" }
%"struct.std::_Rb_tree<xalanc_1_8::XalanQNameByReference, std::pair<const xalanc_1_8::XalanQNameByReference, const xalanc_1_8::ElemTemplate *>, std::_Select1st<std::pair<const xalanc_1_8::XalanQNameByReference, const xalanc_1_8::ElemTemplate *> >, std::less<xalanc_1_8::XalanQName> >::_Rb_tree_impl" = type { %"struct.std::_Rb_tree_key_compare.59", %"struct.std::_Rb_tree_header" }
%"struct.std::_Rb_tree_key_compare.59" = type { %"struct.std::less.60" }
%"struct.std::less.60" = type { i8 }
%"class.std::vector.62" = type { %"struct.std::_Vector_base.63" }
%"struct.std::_Vector_base.63" = type { %"struct.std::_Vector_base<xalanc_1_8::ElemVariable *, std::allocator<xalanc_1_8::ElemVariable *> >::_Vector_impl" }
%"struct.std::_Vector_base<xalanc_1_8::ElemVariable *, std::allocator<xalanc_1_8::ElemVariable *> >::_Vector_impl" = type { %"struct.std::_Vector_base<xalanc_1_8::ElemVariable *, std::allocator<xalanc_1_8::ElemVariable *> >::_Vector_impl_data" }
%"struct.std::_Vector_base<xalanc_1_8::ElemVariable *, std::allocator<xalanc_1_8::ElemVariable *> >::_Vector_impl_data" = type { ptr, ptr, ptr }
%"class.std::map.67" = type { %"class.std::_Rb_tree.68" }
%"class.std::_Rb_tree.68" = type { %"struct.std::_Rb_tree<xalanc_1_8::XalanDOMString, std::pair<const xalanc_1_8::XalanDOMString, std::vector<const xalanc_1_8::Stylesheet::MatchPattern2 *> >, std::_Select1st<std::pair<const xalanc_1_8::XalanDOMString, std::vector<const xalanc_1_8::Stylesheet::MatchPattern2 *> > >, std::less<xalanc_1_8::XalanDOMString> >::_Rb_tree_impl" }
%"struct.std::_Rb_tree<xalanc_1_8::XalanDOMString, std::pair<const xalanc_1_8::XalanDOMString, std::vector<const xalanc_1_8::Stylesheet::MatchPattern2 *> >, std::_Select1st<std::pair<const xalanc_1_8::XalanDOMString, std::vector<const xalanc_1_8::Stylesheet::MatchPattern2 *> > >, std::less<xalanc_1_8::XalanDOMString> >::_Rb_tree_impl" = type { %"struct.std::_Rb_tree_key_compare.47", %"struct.std::_Rb_tree_header" }
%"struct.std::_Rb_tree_const_iterator" = type { ptr }
%"class.std::vector.72" = type { %"struct.std::_Vector_base.73" }
%"struct.std::_Vector_base.73" = type { %"struct.std::_Vector_base<const xalanc_1_8::Stylesheet::MatchPattern2 *, std::allocator<const xalanc_1_8::Stylesheet::MatchPattern2 *> >::_Vector_impl" }
%"struct.std::_Vector_base<const xalanc_1_8::Stylesheet::MatchPattern2 *, std::allocator<const xalanc_1_8::Stylesheet::MatchPattern2 *> >::_Vector_impl" = type { %"struct.std::_Vector_base<const xalanc_1_8::Stylesheet::MatchPattern2 *, std::allocator<const xalanc_1_8::Stylesheet::MatchPattern2 *> >::_Vector_impl_data" }
%"struct.std::_Vector_base<const xalanc_1_8::Stylesheet::MatchPattern2 *, std::allocator<const xalanc_1_8::Stylesheet::MatchPattern2 *> >::_Vector_impl_data" = type { ptr, ptr, ptr }
%"class.std::deque.77" = type { %"class.std::_Deque_base.78" }
%"class.std::_Deque_base.78" = type { %"struct.std::_Deque_base<xalanc_1_8::Stylesheet::MatchPattern2, std::allocator<xalanc_1_8::Stylesheet::MatchPattern2> >::_Deque_impl" }
%"struct.std::_Deque_base<xalanc_1_8::Stylesheet::MatchPattern2, std::allocator<xalanc_1_8::Stylesheet::MatchPattern2> >::_Deque_impl" = type { ptr, i64, %"struct.std::_Deque_iterator.82", %"struct.std::_Deque_iterator.82" }
%"struct.std::_Deque_iterator.82" = type { ptr, ptr, ptr, ptr }
%"class.std::vector.83" = type { %"struct.std::_Vector_base.84" }
%"struct.std::_Vector_base.84" = type { %"struct.std::_Vector_base<xalanc_1_8::ElemDecimalFormat *, std::allocator<xalanc_1_8::ElemDecimalFormat *> >::_Vector_impl" }
%"struct.std::_Vector_base<xalanc_1_8::ElemDecimalFormat *, std::allocator<xalanc_1_8::ElemDecimalFormat *> >::_Vector_impl" = type { %"struct.std::_Vector_base<xalanc_1_8::ElemDecimalFormat *, std::allocator<xalanc_1_8::ElemDecimalFormat *> >::_Vector_impl_data" }
%"struct.std::_Vector_base<xalanc_1_8::ElemDecimalFormat *, std::allocator<xalanc_1_8::ElemDecimalFormat *> >::_Vector_impl_data" = type { ptr, ptr, ptr }
%"class.xalanc_1_8::NamespacesHandler" = type { %"class.std::vector", %"class.std::vector.0", %"class.std::vector.5", %"class.std::map" }
%"class.std::vector" = type { %"struct.std::_Vector_base" }
%"struct.std::_Vector_base" = type { %"struct.std::_Vector_base<xalanc_1_8::NamespacesHandler::Namespace, std::allocator<xalanc_1_8::NamespacesHandler::Namespace> >::_Vector_impl" }
%"struct.std::_Vector_base<xalanc_1_8::NamespacesHandler::Namespace, std::allocator<xalanc_1_8::NamespacesHandler::Namespace> >::_Vector_impl" = type { %"struct.std::_Vector_base<xalanc_1_8::NamespacesHandler::Namespace, std::allocator<xalanc_1_8::NamespacesHandler::Namespace> >::_Vector_impl_data" }
%"struct.std::_Vector_base<xalanc_1_8::NamespacesHandler::Namespace, std::allocator<xalanc_1_8::NamespacesHandler::Namespace> >::_Vector_impl_data" = type { ptr, ptr, ptr }
%"class.std::vector.0" = type { %"struct.std::_Vector_base.1" }
%"struct.std::_Vector_base.1" = type { %"struct.std::_Vector_base<xalanc_1_8::NamespacesHandler::NamespaceExtended, std::allocator<xalanc_1_8::NamespacesHandler::NamespaceExtended> >::_Vector_impl" }
%"struct.std::_Vector_base<xalanc_1_8::NamespacesHandler::NamespaceExtended, std::allocator<xalanc_1_8::NamespacesHandler::NamespaceExtended> >::_Vector_impl" = type { %"struct.std::_Vector_base<xalanc_1_8::NamespacesHandler::NamespaceExtended, std::allocator<xalanc_1_8::NamespacesHandler::NamespaceExtended> >::_Vector_impl_data" }
%"struct.std::_Vector_base<xalanc_1_8::NamespacesHandler::NamespaceExtended, std::allocator<xalanc_1_8::NamespacesHandler::NamespaceExtended> >::_Vector_impl_data" = type { ptr, ptr, ptr }
%"class.std::vector.5" = type { %"struct.std::_Vector_base.6" }
%"struct.std::_Vector_base.6" = type { %"struct.std::_Vector_base<const xalanc_1_8::XalanDOMString *, std::allocator<const xalanc_1_8::XalanDOMString *> >::_Vector_impl" }
%"struct.std::_Vector_base<const xalanc_1_8::XalanDOMString *, std::allocator<const xalanc_1_8::XalanDOMString *> >::_Vector_impl" = type { %"struct.std::_Vector_base<const xalanc_1_8::XalanDOMString *, std::allocator<const xalanc_1_8::XalanDOMString *> >::_Vector_impl_data" }
%"struct.std::_Vector_base<const xalanc_1_8::XalanDOMString *, std::allocator<const xalanc_1_8::XalanDOMString *> >::_Vector_impl_data" = type { ptr, ptr, ptr }
%"class.std::map" = type { %"class.std::_Rb_tree" }
%"class.std::_Rb_tree" = type { %"struct.std::_Rb_tree<const xalanc_1_8::XalanDOMString *, std::pair<const xalanc_1_8::XalanDOMString *const, const xalanc_1_8::XalanDOMString *>, std::_Select1st<std::pair<const xalanc_1_8::XalanDOMString *const, const xalanc_1_8::XalanDOMString *> >, xalanc_1_8::DOMStringPointerLessThanFunction>::_Rb_tree_impl" }
%"struct.std::_Rb_tree<const xalanc_1_8::XalanDOMString *, std::pair<const xalanc_1_8::XalanDOMString *const, const xalanc_1_8::XalanDOMString *>, std::_Select1st<std::pair<const xalanc_1_8::XalanDOMString *const, const xalanc_1_8::XalanDOMString *> >, xalanc_1_8::DOMStringPointerLessThanFunction>::_Rb_tree_impl" = type { %"struct.std::_Rb_tree_key_compare", %"struct.std::_Rb_tree_header" }
%"struct.std::_Rb_tree_key_compare" = type { %"struct.xalanc_1_8::DOMStringPointerLessThanFunction" }
%"struct.xalanc_1_8::DOMStringPointerLessThanFunction" = type { i8 }
%"class.xalanc_1_8::ElemTextLiteral" = type <{ %"class.xalanc_1_8::ElemTemplateElement.base", i8, [5 x i8], ptr, i32, [4 x i8] }>
%"class.xalanc_1_8::ElemTemplateElement.base" = type <{ %"class.xalanc_1_8::PrefixResolver", ptr, %"class.xalanc_1_8::NamespacesHandler", i32, i32, i32, [4 x i8], ptr, ptr, ptr, %union.anon, ptr, %"class.xalanc_1_8::ElemTemplateElement::LocatorProxy", i16 }>
%union.anon = type { ptr }
%"class.xalanc_1_8::ElemTemplateElement::LocatorProxy" = type { %"class.xalanc_1_8::XalanLocator", ptr }
%"class.xalanc_1_8::XalanLocator" = type { %"class.xercesc_2_5::Locator" }
%"class.xercesc_2_5::Locator" = type { ptr }
%"class.xalanc_1_8::ElemTemplateElement" = type <{ %"class.xalanc_1_8::PrefixResolver", ptr, %"class.xalanc_1_8::NamespacesHandler", i32, i32, i32, [4 x i8], ptr, ptr, ptr, %union.anon, ptr, %"class.xalanc_1_8::ElemTemplateElement::LocatorProxy", i16, [6 x i8] }>

$__clang_call_terminate = comdat any

@_ZTVN10xalanc_1_815ElemTextLiteralE = dso_local unnamed_addr constant { [33 x ptr] } { [33 x ptr] [ptr null, ptr @_ZTIN10xalanc_1_815ElemTextLiteralE, ptr @_ZN10xalanc_1_815ElemTextLiteralD2Ev, ptr @_ZN10xalanc_1_815ElemTextLiteralD0Ev, ptr @_ZNK10xalanc_1_819ElemTemplateElement21getNamespaceForPrefixERKNS_14XalanDOMStringE, ptr @_ZNK10xalanc_1_819ElemTemplateElement6getURIEv, ptr @_ZNK10xalanc_1_819ElemTemplateElement10getLocatorEv, ptr @_ZNK10xalanc_1_819ElemTemplateElement8isAttrOKEPKtRKN11xercesc_2_513AttributeListEiRNS_29StylesheetConstructionContextE, ptr @_ZNK10xalanc_1_815ElemTextLiteral7executeERNS_26StylesheetExecutionContextE, ptr @_ZNK10xalanc_1_819ElemTemplateElement15executeChildrenERNS_26StylesheetExecutionContextE, ptr @_ZNK10xalanc_1_819ElemTemplateElement15executeChildrenERNS_26StylesheetExecutionContextEPNS_9XalanNodeE, ptr @_ZNK10xalanc_1_815ElemTextLiteral12isWhitespaceEv, ptr @_ZNK10xalanc_1_815ElemTextLiteral14getElementNameEv, ptr @_ZNK10xalanc_1_819ElemTemplateElement16getNameAttributeEv, ptr @_ZN10xalanc_1_819ElemTemplateElement15addToStylesheetERNS_29StylesheetConstructionContextERNS_10StylesheetE, ptr @_ZN10xalanc_1_819ElemTemplateElement18processSortElementERNS_29StylesheetConstructionContextERNS_10StylesheetERKN11xercesc_2_513AttributeListEPKNS5_7LocatorE, ptr @_ZN10xalanc_1_819ElemTemplateElement18setDefaultTemplateEb, ptr @_ZN10xalanc_1_819ElemTemplateElement16postConstructionERNS_29StylesheetConstructionContextERKNS_17NamespacesHandlerE, ptr @_ZNK10xalanc_1_819ElemTemplateElement17getFirstChildElemEv, ptr @_ZN10xalanc_1_819ElemTemplateElement17setFirstChildElemEPS0_, ptr @_ZNK10xalanc_1_819ElemTemplateElement16getLastChildElemEv, ptr @_ZNK10xalanc_1_819ElemTemplateElement18getNextSiblingElemEv, ptr @_ZN10xalanc_1_819ElemTemplateElement18setNextSiblingElemEPS0_, ptr @_ZNK10xalanc_1_819ElemTemplateElement22getPreviousSiblingElemEv, ptr @_ZN10xalanc_1_819ElemTemplateElement22setPreviousSiblingElemEPS0_, ptr @_ZNK10xalanc_1_819ElemTemplateElement17getParentNodeElemEv, ptr @_ZN10xalanc_1_819ElemTemplateElement17setParentNodeElemEPS0_, ptr @_ZN10xalanc_1_819ElemTemplateElement15appendChildElemEPS0_, ptr @_ZNK10xalanc_1_819ElemTemplateElement8getXPathEj, ptr @_ZNK10xalanc_1_819ElemTemplateElement14transformChildERNS_26StylesheetExecutionContextERKS0_PS3_PNS_9XalanNodeE, ptr @_ZNK10xalanc_1_819ElemTemplateElement14transformChildERNS_26StylesheetExecutionContextERKS0_PS3_PNS_9XalanNodeENS6_8NodeTypeE, ptr @_ZNK10xalanc_1_819ElemTemplateElement16childTypeAllowedEi, ptr @_ZN10xalanc_1_819ElemTemplateElement26namespacesPostConstructionERNS_29StylesheetConstructionContextERKNS_17NamespacesHandlerERS3_] }, align 8, !type !0, !type !1, !type !2, !type !3, !type !4, !type !5, !type !6, !type !7, !type !8, !type !9, !type !10, !type !11, !type !12, !type !13, !type !14, !type !15, !type !16, !type !17, !type !18, !type !19, !type !20, !type !21, !type !22, !type !23, !type !24, !type !25, !type !26, !type !27, !type !28, !type !29, !type !30, !type !31, !type !32, !type !33, !type !34, !type !35, !type !36, !type !37, !type !38, !type !39, !type !40, !type !41, !type !42, !type !43, !type !44, !type !45, !type !46, !type !47, !type !48, !type !49, !type !50, !type !51, !type !52, !type !53, !type !54, !type !55, !type !56, !type !57, !type !58, !type !59, !type !60, !type !61, !type !62, !type !63, !type !64, !type !65, !type !66, !type !67, !type !68, !type !69, !type !70, !type !71, !type !72, !type !73, !type !74, !type !75, !type !76, !type !77, !type !78, !type !79, !type !80, !type !81, !type !82, !type !83, !type !84, !type !85, !type !86, !type !87, !type !88, !type !89
@_ZN10xalanc_1_89Constants32ELEMNAME_TEXT_WITH_PREFIX_STRINGE = external local_unnamed_addr constant ptr, align 8
@_ZTVN10__cxxabiv120__si_class_type_infoE = external global ptr
@_ZTSN10xalanc_1_815ElemTextLiteralE = dso_local constant [32 x i8] c"N10xalanc_1_815ElemTextLiteralE\00", align 1
@_ZTIN10xalanc_1_819ElemTemplateElementE = external constant ptr
@_ZTIN10xalanc_1_815ElemTextLiteralE = dso_local constant { ptr, ptr, ptr } { ptr getelementptr inbounds (ptr, ptr @_ZTVN10__cxxabiv120__si_class_type_infoE, i64 2), ptr @_ZTSN10xalanc_1_815ElemTextLiteralE, ptr @_ZTIN10xalanc_1_819ElemTemplateElementE }, align 8

@_ZN10xalanc_1_815ElemTextLiteralC1ERNS_29StylesheetConstructionContextERNS_10StylesheetEiiPKtjjbb = dso_local unnamed_addr alias void (ptr, ptr, ptr, i32, i32, ptr, i32, i32, i1, i1), ptr @_ZN10xalanc_1_815ElemTextLiteralC2ERNS_29StylesheetConstructionContextERNS_10StylesheetEiiPKtjjbb
@_ZN10xalanc_1_815ElemTextLiteralD1Ev = dso_local unnamed_addr alias void (ptr), ptr @_ZN10xalanc_1_815ElemTextLiteralD2Ev

declare i32 @__gxx_personality_v0(...)

; Function Attrs: nobuiltin nounwind
declare void @_ZdlPv(ptr noundef) local_unnamed_addr #0

; Function Attrs: uwtable
define dso_local void @_ZN10xalanc_1_815ElemTextLiteralC2ERNS_29StylesheetConstructionContextERNS_10StylesheetEiiPKtjjbb(ptr noundef nonnull align 8 dereferenceable(228) %0, ptr noundef nonnull align 8 dereferenceable(8) %1, ptr noundef nonnull align 8 dereferenceable(1000) %2, i32 noundef %3, i32 noundef %4, ptr noundef %5, i32 noundef %6, i32 noundef %7, i1 noundef zeroext %8, i1 noundef zeroext %9) unnamed_addr #1 align 2 personality ptr @__gxx_personality_v0 {
  %11 = getelementptr inbounds %"class.xalanc_1_8::Stylesheet", ptr %2, i64 0, i32 2
  tail call void @_ZN10xalanc_1_819ElemTemplateElementC2ERNS_29StylesheetConstructionContextERNS_10StylesheetEiRKNS_14XalanDOMStringEii(ptr noundef nonnull align 8 dereferenceable(210) %0, ptr noundef nonnull align 8 dereferenceable(8) %1, ptr noundef nonnull align 8 dereferenceable(1000) %2, i32 noundef 36, ptr noundef nonnull align 8 dereferenceable(28) %11, i32 noundef %3, i32 noundef %4)
  store ptr getelementptr inbounds ({ [33 x ptr] }, ptr @_ZTVN10xalanc_1_815ElemTextLiteralE, i64 0, inrange i32 0, i64 2), ptr %0, align 8, !tbaa !97
  %12 = invoke noundef zeroext i1 @_ZN10xalanc_1_815isXMLWhitespaceEPKtjj(ptr noundef %5, i32 noundef %6, i32 noundef %7)
          to label %13 unwind label %32

13:                                               ; preds = %10
  %14 = getelementptr inbounds %"class.xalanc_1_8::ElemTextLiteral", ptr %0, i64 0, i32 1
  %15 = zext i1 %12 to i8
  store i8 %15, ptr %14, align 2, !tbaa !100
  %16 = zext i32 %6 to i64
  %17 = getelementptr inbounds i16, ptr %5, i64 %16
  %18 = load ptr, ptr %1, align 8, !tbaa !97
  %19 = getelementptr inbounds ptr, ptr %18, i64 34
  %20 = load ptr, ptr %19, align 8
  %21 = invoke noundef ptr %20(ptr noundef nonnull align 8 dereferenceable(8) %1, ptr noundef %17, i32 noundef %7, i1 noundef zeroext true)
          to label %22 unwind label %32

22:                                               ; preds = %13
  %23 = getelementptr inbounds %"class.xalanc_1_8::ElemTextLiteral", ptr %0, i64 0, i32 3
  store ptr %21, ptr %23, align 8, !tbaa !134
  %24 = getelementptr inbounds %"class.xalanc_1_8::ElemTextLiteral", ptr %0, i64 0, i32 4
  store i32 %7, ptr %24, align 8, !tbaa !135
  %25 = getelementptr inbounds %"class.xalanc_1_8::ElemTemplateElement", ptr %0, i64 0, i32 13
  %26 = load i16, ptr %25, align 8, !tbaa !136
  %27 = and i16 %26, -577
  %28 = select i1 %9, i16 512, i16 0
  %29 = select i1 %8, i16 64, i16 0
  %30 = or i16 %28, %29
  %31 = or i16 %30, %27
  store i16 %31, ptr %25, align 8, !tbaa !136
  ret void

32:                                               ; preds = %13, %10
  %33 = landingpad { ptr, i32 }
          cleanup
  invoke void @_ZN10xalanc_1_819ElemTemplateElementD2Ev(ptr noundef nonnull align 8 dereferenceable(210) %0)
          to label %34 unwind label %35

34:                                               ; preds = %32
  resume { ptr, i32 } %33

35:                                               ; preds = %32
  %36 = landingpad { ptr, i32 }
          catch ptr null
  %37 = extractvalue { ptr, i32 } %36, 0
  tail call void @__clang_call_terminate(ptr %37) #6
  unreachable
}

declare void @_ZN10xalanc_1_819ElemTemplateElementC2ERNS_29StylesheetConstructionContextERNS_10StylesheetEiRKNS_14XalanDOMStringEii(ptr noundef nonnull align 8 dereferenceable(210), ptr noundef nonnull align 8 dereferenceable(8), ptr noundef nonnull align 8 dereferenceable(1000), i32 noundef, ptr noundef nonnull align 8 dereferenceable(28), i32 noundef, i32 noundef) unnamed_addr #2

declare noundef zeroext i1 @_ZN10xalanc_1_815isXMLWhitespaceEPKtjj(ptr noundef, i32 noundef, i32 noundef) local_unnamed_addr #2

declare void @_ZN10xalanc_1_819ElemTemplateElementD2Ev(ptr noundef nonnull align 8 dereferenceable(210)) unnamed_addr #2

; Function Attrs: noinline noreturn nounwind uwtable
define linkonce_odr hidden void @__clang_call_terminate(ptr noundef %0) local_unnamed_addr #3 comdat {
  %2 = tail call ptr @__cxa_begin_catch(ptr %0) #7
  tail call void @_ZSt9terminatev() #6
  unreachable
}

declare ptr @__cxa_begin_catch(ptr) local_unnamed_addr

declare void @_ZSt9terminatev() local_unnamed_addr

; Function Attrs: uwtable
define dso_local void @_ZN10xalanc_1_815ElemTextLiteralD2Ev(ptr noundef nonnull align 8 dereferenceable(228) %0) unnamed_addr #1 align 2 {
  tail call void @_ZN10xalanc_1_819ElemTemplateElementD2Ev(ptr noundef nonnull align 8 dereferenceable(210) %0)
  ret void
}

; Function Attrs: uwtable
define dso_local void @_ZN10xalanc_1_815ElemTextLiteralD0Ev(ptr noundef nonnull align 8 dereferenceable(228) %0) unnamed_addr #1 align 2 personality ptr @__gxx_personality_v0 {
  invoke void @_ZN10xalanc_1_819ElemTemplateElementD2Ev(ptr noundef nonnull align 8 dereferenceable(210) %0)
          to label %2 unwind label %3

2:                                                ; preds = %1
  tail call void @_ZdlPv(ptr noundef nonnull %0) #8
  ret void

3:                                                ; preds = %1
  %4 = landingpad { ptr, i32 }
          cleanup
  tail call void @_ZdlPv(ptr noundef nonnull %0) #8
  resume { ptr, i32 } %4
}

; Function Attrs: mustprogress nofree norecurse nosync nounwind willreturn memory(none) uwtable
define dso_local noundef nonnull align 8 dereferenceable(28) ptr @_ZNK10xalanc_1_815ElemTextLiteral14getElementNameEv(ptr nocapture nonnull readnone align 8 %0) unnamed_addr #4 align 2 {
  %2 = load ptr, ptr @_ZN10xalanc_1_89Constants32ELEMNAME_TEXT_WITH_PREFIX_STRINGE, align 8, !tbaa !137
  ret ptr %2
}

; Function Attrs: mustprogress nofree norecurse nosync nounwind willreturn memory(argmem: read) uwtable
define dso_local noundef zeroext i1 @_ZNK10xalanc_1_815ElemTextLiteral12isWhitespaceEv(ptr nocapture noundef nonnull readonly align 8 dereferenceable(228) %0) unnamed_addr #5 align 2 {
  %2 = getelementptr inbounds %"class.xalanc_1_8::ElemTextLiteral", ptr %0, i64 0, i32 1
  %3 = load i8, ptr %2, align 2, !tbaa !100, !range !138, !noundef !139
  %4 = icmp ne i8 %3, 0
  ret i1 %4
}

; Function Attrs: uwtable
define dso_local void @_ZNK10xalanc_1_815ElemTextLiteral7executeERNS_26StylesheetExecutionContextE(ptr noundef nonnull align 8 dereferenceable(228) %0, ptr noundef nonnull align 8 dereferenceable(16) %1) unnamed_addr #1 align 2 {
  tail call void @_ZNK10xalanc_1_819ElemTemplateElement7executeERNS_26StylesheetExecutionContextE(ptr noundef nonnull align 8 dereferenceable(210) %0, ptr noundef nonnull align 8 dereferenceable(16) %1)
  %3 = getelementptr inbounds %"class.xalanc_1_8::ElemTemplateElement", ptr %0, i64 0, i32 13
  %4 = load i16, ptr %3, align 8, !tbaa !136
  %5 = and i16 %4, 512
  %6 = icmp eq i16 %5, 0
  %7 = getelementptr inbounds %"class.xalanc_1_8::ElemTextLiteral", ptr %0, i64 0, i32 3
  %8 = load ptr, ptr %7, align 8, !tbaa !134
  %9 = getelementptr inbounds %"class.xalanc_1_8::ElemTextLiteral", ptr %0, i64 0, i32 4
  %10 = load i32, ptr %9, align 8, !tbaa !135
  %11 = load ptr, ptr %1, align 8, !tbaa !97
  %12 = select i1 %6, i64 104, i64 105
  %13 = getelementptr inbounds ptr, ptr %11, i64 %12
  %14 = load ptr, ptr %13, align 8
  tail call void %14(ptr noundef nonnull align 8 dereferenceable(16) %1, ptr noundef %8, i32 noundef 0, i32 noundef %10)
  ret void
}

declare void @_ZNK10xalanc_1_819ElemTemplateElement7executeERNS_26StylesheetExecutionContextE(ptr noundef nonnull align 8 dereferenceable(210), ptr noundef nonnull align 8 dereferenceable(16)) unnamed_addr #2

declare noundef ptr @_ZNK10xalanc_1_819ElemTemplateElement21getNamespaceForPrefixERKNS_14XalanDOMStringE(ptr noundef nonnull align 8 dereferenceable(210), ptr noundef nonnull align 8 dereferenceable(28)) unnamed_addr #2

declare noundef nonnull align 8 dereferenceable(28) ptr @_ZNK10xalanc_1_819ElemTemplateElement6getURIEv(ptr noundef nonnull align 8 dereferenceable(210)) unnamed_addr #2

declare noundef ptr @_ZNK10xalanc_1_819ElemTemplateElement10getLocatorEv(ptr noundef nonnull align 8 dereferenceable(210)) unnamed_addr #2

declare noundef zeroext i1 @_ZNK10xalanc_1_819ElemTemplateElement8isAttrOKEPKtRKN11xercesc_2_513AttributeListEiRNS_29StylesheetConstructionContextE(ptr noundef nonnull align 8 dereferenceable(210), ptr noundef, ptr noundef nonnull align 8 dereferenceable(8), i32 noundef, ptr noundef nonnull align 8 dereferenceable(8)) unnamed_addr #2

declare void @_ZNK10xalanc_1_819ElemTemplateElement15executeChildrenERNS_26StylesheetExecutionContextE(ptr noundef nonnull align 8 dereferenceable(210), ptr noundef nonnull align 8 dereferenceable(16)) unnamed_addr #2

declare void @_ZNK10xalanc_1_819ElemTemplateElement15executeChildrenERNS_26StylesheetExecutionContextEPNS_9XalanNodeE(ptr noundef nonnull align 8 dereferenceable(210), ptr noundef nonnull align 8 dereferenceable(16), ptr noundef) unnamed_addr #2

declare noundef nonnull align 8 dereferenceable(8) ptr @_ZNK10xalanc_1_819ElemTemplateElement16getNameAttributeEv(ptr noundef nonnull align 8 dereferenceable(210)) unnamed_addr #2

declare void @_ZN10xalanc_1_819ElemTemplateElement15addToStylesheetERNS_29StylesheetConstructionContextERNS_10StylesheetE(ptr noundef nonnull align 8 dereferenceable(210), ptr noundef nonnull align 8 dereferenceable(8), ptr noundef nonnull align 8 dereferenceable(1000)) unnamed_addr #2

declare void @_ZN10xalanc_1_819ElemTemplateElement18processSortElementERNS_29StylesheetConstructionContextERNS_10StylesheetERKN11xercesc_2_513AttributeListEPKNS5_7LocatorE(ptr noundef nonnull align 8 dereferenceable(210), ptr noundef nonnull align 8 dereferenceable(8), ptr noundef nonnull align 8 dereferenceable(1000), ptr noundef nonnull align 8 dereferenceable(8), ptr noundef) unnamed_addr #2

declare void @_ZN10xalanc_1_819ElemTemplateElement18setDefaultTemplateEb(ptr noundef nonnull align 8 dereferenceable(210), i1 noundef zeroext) unnamed_addr #2

declare void @_ZN10xalanc_1_819ElemTemplateElement16postConstructionERNS_29StylesheetConstructionContextERKNS_17NamespacesHandlerE(ptr noundef nonnull align 8 dereferenceable(210), ptr noundef nonnull align 8 dereferenceable(8), ptr noundef nonnull align 8 dereferenceable(120)) unnamed_addr #2

declare noundef ptr @_ZNK10xalanc_1_819ElemTemplateElement17getFirstChildElemEv(ptr noundef nonnull align 8 dereferenceable(210)) unnamed_addr #2

declare void @_ZN10xalanc_1_819ElemTemplateElement17setFirstChildElemEPS0_(ptr noundef nonnull align 8 dereferenceable(210), ptr noundef) unnamed_addr #2

declare noundef ptr @_ZNK10xalanc_1_819ElemTemplateElement16getLastChildElemEv(ptr noundef nonnull align 8 dereferenceable(210)) unnamed_addr #2

declare noundef ptr @_ZNK10xalanc_1_819ElemTemplateElement18getNextSiblingElemEv(ptr noundef nonnull align 8 dereferenceable(210)) unnamed_addr #2

declare void @_ZN10xalanc_1_819ElemTemplateElement18setNextSiblingElemEPS0_(ptr noundef nonnull align 8 dereferenceable(210), ptr noundef) unnamed_addr #2

declare noundef ptr @_ZNK10xalanc_1_819ElemTemplateElement22getPreviousSiblingElemEv(ptr noundef nonnull align 8 dereferenceable(210)) unnamed_addr #2

declare void @_ZN10xalanc_1_819ElemTemplateElement22setPreviousSiblingElemEPS0_(ptr noundef nonnull align 8 dereferenceable(210), ptr noundef) unnamed_addr #2

declare noundef ptr @_ZNK10xalanc_1_819ElemTemplateElement17getParentNodeElemEv(ptr noundef nonnull align 8 dereferenceable(210)) unnamed_addr #2

declare void @_ZN10xalanc_1_819ElemTemplateElement17setParentNodeElemEPS0_(ptr noundef nonnull align 8 dereferenceable(210), ptr noundef) unnamed_addr #2

declare noundef ptr @_ZN10xalanc_1_819ElemTemplateElement15appendChildElemEPS0_(ptr noundef nonnull align 8 dereferenceable(210), ptr noundef) unnamed_addr #2

declare noundef ptr @_ZNK10xalanc_1_819ElemTemplateElement8getXPathEj(ptr noundef nonnull align 8 dereferenceable(210), i32 noundef) unnamed_addr #2

declare void @_ZNK10xalanc_1_819ElemTemplateElement14transformChildERNS_26StylesheetExecutionContextERKS0_PS3_PNS_9XalanNodeE(ptr noundef nonnull align 8 dereferenceable(210), ptr noundef nonnull align 8 dereferenceable(16), ptr noundef nonnull align 8 dereferenceable(210), ptr noundef, ptr noundef) unnamed_addr #2

declare void @_ZNK10xalanc_1_819ElemTemplateElement14transformChildERNS_26StylesheetExecutionContextERKS0_PS3_PNS_9XalanNodeENS6_8NodeTypeE(ptr noundef nonnull align 8 dereferenceable(210), ptr noundef nonnull align 8 dereferenceable(16), ptr noundef nonnull align 8 dereferenceable(210), ptr noundef, ptr noundef, i32 noundef) unnamed_addr #2

declare noundef zeroext i1 @_ZNK10xalanc_1_819ElemTemplateElement16childTypeAllowedEi(ptr noundef nonnull align 8 dereferenceable(210), i32 noundef) unnamed_addr #2

declare void @_ZN10xalanc_1_819ElemTemplateElement26namespacesPostConstructionERNS_29StylesheetConstructionContextERKNS_17NamespacesHandlerERS3_(ptr noundef nonnull align 8 dereferenceable(210), ptr noundef nonnull align 8 dereferenceable(8), ptr noundef nonnull align 8 dereferenceable(120), ptr noundef nonnull align 8 dereferenceable(120)) unnamed_addr #2

attributes #0 = { nobuiltin nounwind "approx-func-fp-math"="true" "denormal-fp-math"="preserve-sign,preserve-sign" "no-infs-fp-math"="true" "no-nans-fp-math"="true" "no-signed-zeros-fp-math"="true" "no-trapping-math"="true" "stack-protector-buffer-size"="8" "target-cpu"="znver2" "target-features"="+adx,+aes,+avx,+avx2,+bmi,+bmi2,+clflushopt,+clwb,+clzero,+crc32,+cx16,+cx8,+f16c,+fma,+fsgsbase,+fxsr,+lzcnt,+mmx,+movbe,+mwaitx,+pclmul,+popcnt,+prfchw,+rdpid,+rdpru,+rdrnd,+rdseed,+sahf,+sha,+sse,+sse2,+sse3,+sse4.1,+sse4.2,+sse4a,+ssse3,+wbnoinvd,+x87,+xsave,+xsavec,+xsaveopt,+xsaves" }
attributes #1 = { uwtable "approx-func-fp-math"="true" "denormal-fp-math"="preserve-sign,preserve-sign" "min-legal-vector-width"="0" "no-infs-fp-math"="true" "no-nans-fp-math"="true" "no-signed-zeros-fp-math"="true" "no-trapping-math"="true" "stack-protector-buffer-size"="8" "target-cpu"="znver2" "target-features"="+adx,+aes,+avx,+avx2,+bmi,+bmi2,+clflushopt,+clwb,+clzero,+crc32,+cx16,+cx8,+f16c,+fma,+fsgsbase,+fxsr,+lzcnt,+mmx,+movbe,+mwaitx,+pclmul,+popcnt,+prfchw,+rdpid,+rdpru,+rdrnd,+rdseed,+sahf,+sha,+sse,+sse2,+sse3,+sse4.1,+sse4.2,+sse4a,+ssse3,+wbnoinvd,+x87,+xsave,+xsavec,+xsaveopt,+xsaves" }
attributes #2 = { "approx-func-fp-math"="true" "denormal-fp-math"="preserve-sign,preserve-sign" "no-infs-fp-math"="true" "no-nans-fp-math"="true" "no-signed-zeros-fp-math"="true" "no-trapping-math"="true" "stack-protector-buffer-size"="8" "target-cpu"="znver2" "target-features"="+adx,+aes,+avx,+avx2,+bmi,+bmi2,+clflushopt,+clwb,+clzero,+crc32,+cx16,+cx8,+f16c,+fma,+fsgsbase,+fxsr,+lzcnt,+mmx,+movbe,+mwaitx,+pclmul,+popcnt,+prfchw,+rdpid,+rdpru,+rdrnd,+rdseed,+sahf,+sha,+sse,+sse2,+sse3,+sse4.1,+sse4.2,+sse4a,+ssse3,+wbnoinvd,+x87,+xsave,+xsavec,+xsaveopt,+xsaves" }
attributes #3 = { noinline noreturn nounwind uwtable "approx-func-fp-math"="true" "denormal-fp-math"="preserve-sign,preserve-sign" "no-infs-fp-math"="true" "no-nans-fp-math"="true" "no-signed-zeros-fp-math"="true" "no-trapping-math"="true" "stack-protector-buffer-size"="8" "target-cpu"="znver2" "target-features"="+adx,+aes,+avx,+avx2,+bmi,+bmi2,+clflushopt,+clwb,+clzero,+crc32,+cx16,+cx8,+f16c,+fma,+fsgsbase,+fxsr,+lzcnt,+mmx,+movbe,+mwaitx,+pclmul,+popcnt,+prfchw,+rdpid,+rdpru,+rdrnd,+rdseed,+sahf,+sha,+sse,+sse2,+sse3,+sse4.1,+sse4.2,+sse4a,+ssse3,+wbnoinvd,+x87,+xsave,+xsavec,+xsaveopt,+xsaves" }
attributes #4 = { mustprogress nofree norecurse nosync nounwind willreturn memory(none) uwtable "approx-func-fp-math"="true" "denormal-fp-math"="preserve-sign,preserve-sign" "min-legal-vector-width"="0" "no-infs-fp-math"="true" "no-nans-fp-math"="true" "no-signed-zeros-fp-math"="true" "no-trapping-math"="true" "stack-protector-buffer-size"="8" "target-cpu"="znver2" "target-features"="+adx,+aes,+avx,+avx2,+bmi,+bmi2,+clflushopt,+clwb,+clzero,+crc32,+cx16,+cx8,+f16c,+fma,+fsgsbase,+fxsr,+lzcnt,+mmx,+movbe,+mwaitx,+pclmul,+popcnt,+prfchw,+rdpid,+rdpru,+rdrnd,+rdseed,+sahf,+sha,+sse,+sse2,+sse3,+sse4.1,+sse4.2,+sse4a,+ssse3,+wbnoinvd,+x87,+xsave,+xsavec,+xsaveopt,+xsaves" }
attributes #5 = { mustprogress nofree norecurse nosync nounwind willreturn memory(argmem: read) uwtable "approx-func-fp-math"="true" "denormal-fp-math"="preserve-sign,preserve-sign" "min-legal-vector-width"="0" "no-infs-fp-math"="true" "no-nans-fp-math"="true" "no-signed-zeros-fp-math"="true" "no-trapping-math"="true" "stack-protector-buffer-size"="8" "target-cpu"="znver2" "target-features"="+adx,+aes,+avx,+avx2,+bmi,+bmi2,+clflushopt,+clwb,+clzero,+crc32,+cx16,+cx8,+f16c,+fma,+fsgsbase,+fxsr,+lzcnt,+mmx,+movbe,+mwaitx,+pclmul,+popcnt,+prfchw,+rdpid,+rdpru,+rdrnd,+rdseed,+sahf,+sha,+sse,+sse2,+sse3,+sse4.1,+sse4.2,+sse4a,+ssse3,+wbnoinvd,+x87,+xsave,+xsavec,+xsaveopt,+xsaves" }
attributes #6 = { noreturn nounwind }
attributes #7 = { nounwind }
attributes #8 = { builtin nounwind }

!llvm.module.flags = !{!90, !91, !92, !93, !94, !95}
!llvm.ident = !{!96}

!0 = !{i64 16, !"_ZTSN10xalanc_1_814PrefixResolverE"}
!1 = !{i64 32, !"_ZTSMN10xalanc_1_814PrefixResolverEKFPKNS_14XalanDOMStringERS2_E.virtual"}
!2 = !{i64 40, !"_ZTSMN10xalanc_1_814PrefixResolverEKFRKNS_14XalanDOMStringEvE.virtual"}
!3 = !{i64 48, !"_ZTSMN10xalanc_1_814PrefixResolverEKFPKN11xercesc_2_57LocatorEvE.virtual"}
!4 = !{i64 56, !"_ZTSMN10xalanc_1_814PrefixResolverEKFbPKtRKN11xercesc_2_513AttributeListEiRNS_29StylesheetConstructionContextEE.virtual"}
!5 = !{i64 64, !"_ZTSMN10xalanc_1_814PrefixResolverEKFvRNS_26StylesheetExecutionContextEE.virtual"}
!6 = !{i64 72, !"_ZTSMN10xalanc_1_814PrefixResolverEKFvRNS_26StylesheetExecutionContextEE.virtual"}
!7 = !{i64 80, !"_ZTSMN10xalanc_1_814PrefixResolverEKFvRNS_26StylesheetExecutionContextEPNS_9XalanNodeEE.virtual"}
!8 = !{i64 88, !"_ZTSMN10xalanc_1_814PrefixResolverEKFbvE.virtual"}
!9 = !{i64 96, !"_ZTSMN10xalanc_1_814PrefixResolverEKFRKNS_14XalanDOMStringEvE.virtual"}
!10 = !{i64 104, !"_ZTSMN10xalanc_1_814PrefixResolverEKFRKNS_10XalanQNameEvE.virtual"}
!11 = !{i64 112, !"_ZTSMN10xalanc_1_814PrefixResolverEFvRNS_29StylesheetConstructionContextERNS_10StylesheetEE.virtual"}
!12 = !{i64 120, !"_ZTSMN10xalanc_1_814PrefixResolverEFvRNS_29StylesheetConstructionContextERNS_10StylesheetERKN11xercesc_2_513AttributeListEPKNS5_7LocatorEE.virtual"}
!13 = !{i64 128, !"_ZTSMN10xalanc_1_814PrefixResolverEFvbE.virtual"}
!14 = !{i64 136, !"_ZTSMN10xalanc_1_814PrefixResolverEFvRNS_29StylesheetConstructionContextERKNS_17NamespacesHandlerEE.virtual"}
!15 = !{i64 144, !"_ZTSMN10xalanc_1_814PrefixResolverEKFPNS_19ElemTemplateElementEvE.virtual"}
!16 = !{i64 152, !"_ZTSMN10xalanc_1_814PrefixResolverEFvPNS_19ElemTemplateElementEE.virtual"}
!17 = !{i64 160, !"_ZTSMN10xalanc_1_814PrefixResolverEKFPNS_19ElemTemplateElementEvE.virtual"}
!18 = !{i64 168, !"_ZTSMN10xalanc_1_814PrefixResolverEKFPNS_19ElemTemplateElementEvE.virtual"}
!19 = !{i64 176, !"_ZTSMN10xalanc_1_814PrefixResolverEFvPNS_19ElemTemplateElementEE.virtual"}
!20 = !{i64 184, !"_ZTSMN10xalanc_1_814PrefixResolverEKFPNS_19ElemTemplateElementEvE.virtual"}
!21 = !{i64 192, !"_ZTSMN10xalanc_1_814PrefixResolverEFvPNS_19ElemTemplateElementEE.virtual"}
!22 = !{i64 200, !"_ZTSMN10xalanc_1_814PrefixResolverEKFPNS_19ElemTemplateElementEvE.virtual"}
!23 = !{i64 208, !"_ZTSMN10xalanc_1_814PrefixResolverEFvPNS_19ElemTemplateElementEE.virtual"}
!24 = !{i64 216, !"_ZTSMN10xalanc_1_814PrefixResolverEFPNS_19ElemTemplateElementES2_E.virtual"}
!25 = !{i64 224, !"_ZTSMN10xalanc_1_814PrefixResolverEKFPKNS_5XPathEjE.virtual"}
!26 = !{i64 232, !"_ZTSMN10xalanc_1_814PrefixResolverEKFvRNS_26StylesheetExecutionContextERKNS_19ElemTemplateElementEPS4_PNS_9XalanNodeEE.virtual"}
!27 = !{i64 240, !"_ZTSMN10xalanc_1_814PrefixResolverEKFvRNS_26StylesheetExecutionContextERKNS_19ElemTemplateElementEPS4_PNS_9XalanNodeENS7_8NodeTypeEE.virtual"}
!28 = !{i64 248, !"_ZTSMN10xalanc_1_814PrefixResolverEKFbiE.virtual"}
!29 = !{i64 256, !"_ZTSMN10xalanc_1_814PrefixResolverEFvRNS_29StylesheetConstructionContextERKNS_17NamespacesHandlerERS3_E.virtual"}
!30 = !{i64 16, !"_ZTSN10xalanc_1_815ElemTextLiteralE"}
!31 = !{i64 32, !"_ZTSMN10xalanc_1_815ElemTextLiteralEKFPKNS_14XalanDOMStringERS2_E.virtual"}
!32 = !{i64 40, !"_ZTSMN10xalanc_1_815ElemTextLiteralEKFRKNS_14XalanDOMStringEvE.virtual"}
!33 = !{i64 48, !"_ZTSMN10xalanc_1_815ElemTextLiteralEKFPKN11xercesc_2_57LocatorEvE.virtual"}
!34 = !{i64 56, !"_ZTSMN10xalanc_1_815ElemTextLiteralEKFbPKtRKN11xercesc_2_513AttributeListEiRNS_29StylesheetConstructionContextEE.virtual"}
!35 = !{i64 64, !"_ZTSMN10xalanc_1_815ElemTextLiteralEKFvRNS_26StylesheetExecutionContextEE.virtual"}
!36 = !{i64 72, !"_ZTSMN10xalanc_1_815ElemTextLiteralEKFvRNS_26StylesheetExecutionContextEE.virtual"}
!37 = !{i64 80, !"_ZTSMN10xalanc_1_815ElemTextLiteralEKFvRNS_26StylesheetExecutionContextEPNS_9XalanNodeEE.virtual"}
!38 = !{i64 88, !"_ZTSMN10xalanc_1_815ElemTextLiteralEKFbvE.virtual"}
!39 = !{i64 96, !"_ZTSMN10xalanc_1_815ElemTextLiteralEKFRKNS_14XalanDOMStringEvE.virtual"}
!40 = !{i64 104, !"_ZTSMN10xalanc_1_815ElemTextLiteralEKFRKNS_10XalanQNameEvE.virtual"}
!41 = !{i64 112, !"_ZTSMN10xalanc_1_815ElemTextLiteralEFvRNS_29StylesheetConstructionContextERNS_10StylesheetEE.virtual"}
!42 = !{i64 120, !"_ZTSMN10xalanc_1_815ElemTextLiteralEFvRNS_29StylesheetConstructionContextERNS_10StylesheetERKN11xercesc_2_513AttributeListEPKNS5_7LocatorEE.virtual"}
!43 = !{i64 128, !"_ZTSMN10xalanc_1_815ElemTextLiteralEFvbE.virtual"}
!44 = !{i64 136, !"_ZTSMN10xalanc_1_815ElemTextLiteralEFvRNS_29StylesheetConstructionContextERKNS_17NamespacesHandlerEE.virtual"}
!45 = !{i64 144, !"_ZTSMN10xalanc_1_815ElemTextLiteralEKFPNS_19ElemTemplateElementEvE.virtual"}
!46 = !{i64 152, !"_ZTSMN10xalanc_1_815ElemTextLiteralEFvPNS_19ElemTemplateElementEE.virtual"}
!47 = !{i64 160, !"_ZTSMN10xalanc_1_815ElemTextLiteralEKFPNS_19ElemTemplateElementEvE.virtual"}
!48 = !{i64 168, !"_ZTSMN10xalanc_1_815ElemTextLiteralEKFPNS_19ElemTemplateElementEvE.virtual"}
!49 = !{i64 176, !"_ZTSMN10xalanc_1_815ElemTextLiteralEFvPNS_19ElemTemplateElementEE.virtual"}
!50 = !{i64 184, !"_ZTSMN10xalanc_1_815ElemTextLiteralEKFPNS_19ElemTemplateElementEvE.virtual"}
!51 = !{i64 192, !"_ZTSMN10xalanc_1_815ElemTextLiteralEFvPNS_19ElemTemplateElementEE.virtual"}
!52 = !{i64 200, !"_ZTSMN10xalanc_1_815ElemTextLiteralEKFPNS_19ElemTemplateElementEvE.virtual"}
!53 = !{i64 208, !"_ZTSMN10xalanc_1_815ElemTextLiteralEFvPNS_19ElemTemplateElementEE.virtual"}
!54 = !{i64 216, !"_ZTSMN10xalanc_1_815ElemTextLiteralEFPNS_19ElemTemplateElementES2_E.virtual"}
!55 = !{i64 224, !"_ZTSMN10xalanc_1_815ElemTextLiteralEKFPKNS_5XPathEjE.virtual"}
!56 = !{i64 232, !"_ZTSMN10xalanc_1_815ElemTextLiteralEKFvRNS_26StylesheetExecutionContextERKNS_19ElemTemplateElementEPS4_PNS_9XalanNodeEE.virtual"}
!57 = !{i64 240, !"_ZTSMN10xalanc_1_815ElemTextLiteralEKFvRNS_26StylesheetExecutionContextERKNS_19ElemTemplateElementEPS4_PNS_9XalanNodeENS7_8NodeTypeEE.virtual"}
!58 = !{i64 248, !"_ZTSMN10xalanc_1_815ElemTextLiteralEKFbiE.virtual"}
!59 = !{i64 256, !"_ZTSMN10xalanc_1_815ElemTextLiteralEFvRNS_29StylesheetConstructionContextERKNS_17NamespacesHandlerERS3_E.virtual"}
!60 = !{i64 16, !"_ZTSN10xalanc_1_819ElemTemplateElementE"}
!61 = !{i64 32, !"_ZTSMN10xalanc_1_819ElemTemplateElementEKFPKNS_14XalanDOMStringERS2_E.virtual"}
!62 = !{i64 40, !"_ZTSMN10xalanc_1_819ElemTemplateElementEKFRKNS_14XalanDOMStringEvE.virtual"}
!63 = !{i64 48, !"_ZTSMN10xalanc_1_819ElemTemplateElementEKFPKN11xercesc_2_57LocatorEvE.virtual"}
!64 = !{i64 56, !"_ZTSMN10xalanc_1_819ElemTemplateElementEKFbPKtRKN11xercesc_2_513AttributeListEiRNS_29StylesheetConstructionContextEE.virtual"}
!65 = !{i64 64, !"_ZTSMN10xalanc_1_819ElemTemplateElementEKFvRNS_26StylesheetExecutionContextEE.virtual"}
!66 = !{i64 72, !"_ZTSMN10xalanc_1_819ElemTemplateElementEKFvRNS_26StylesheetExecutionContextEE.virtual"}
!67 = !{i64 80, !"_ZTSMN10xalanc_1_819ElemTemplateElementEKFvRNS_26StylesheetExecutionContextEPNS_9XalanNodeEE.virtual"}
!68 = !{i64 88, !"_ZTSMN10xalanc_1_819ElemTemplateElementEKFbvE.virtual"}
!69 = !{i64 96, !"_ZTSMN10xalanc_1_819ElemTemplateElementEKFRKNS_14XalanDOMStringEvE.virtual"}
!70 = !{i64 104, !"_ZTSMN10xalanc_1_819ElemTemplateElementEKFRKNS_10XalanQNameEvE.virtual"}
!71 = !{i64 112, !"_ZTSMN10xalanc_1_819ElemTemplateElementEFvRNS_29StylesheetConstructionContextERNS_10StylesheetEE.virtual"}
!72 = !{i64 120, !"_ZTSMN10xalanc_1_819ElemTemplateElementEFvRNS_29StylesheetConstructionContextERNS_10StylesheetERKN11xercesc_2_513AttributeListEPKNS5_7LocatorEE.virtual"}
!73 = !{i64 128, !"_ZTSMN10xalanc_1_819ElemTemplateElementEFvbE.virtual"}
!74 = !{i64 136, !"_ZTSMN10xalanc_1_819ElemTemplateElementEFvRNS_29StylesheetConstructionContextERKNS_17NamespacesHandlerEE.virtual"}
!75 = !{i64 144, !"_ZTSMN10xalanc_1_819ElemTemplateElementEKFPS0_vE.virtual"}
!76 = !{i64 152, !"_ZTSMN10xalanc_1_819ElemTemplateElementEFvPS0_E.virtual"}
!77 = !{i64 160, !"_ZTSMN10xalanc_1_819ElemTemplateElementEKFPS0_vE.virtual"}
!78 = !{i64 168, !"_ZTSMN10xalanc_1_819ElemTemplateElementEKFPS0_vE.virtual"}
!79 = !{i64 176, !"_ZTSMN10xalanc_1_819ElemTemplateElementEFvPS0_E.virtual"}
!80 = !{i64 184, !"_ZTSMN10xalanc_1_819ElemTemplateElementEKFPS0_vE.virtual"}
!81 = !{i64 192, !"_ZTSMN10xalanc_1_819ElemTemplateElementEFvPS0_E.virtual"}
!82 = !{i64 200, !"_ZTSMN10xalanc_1_819ElemTemplateElementEKFPS0_vE.virtual"}
!83 = !{i64 208, !"_ZTSMN10xalanc_1_819ElemTemplateElementEFvPS0_E.virtual"}
!84 = !{i64 216, !"_ZTSMN10xalanc_1_819ElemTemplateElementEFPS0_S1_E.virtual"}
!85 = !{i64 224, !"_ZTSMN10xalanc_1_819ElemTemplateElementEKFPKNS_5XPathEjE.virtual"}
!86 = !{i64 232, !"_ZTSMN10xalanc_1_819ElemTemplateElementEKFvRNS_26StylesheetExecutionContextERKS0_PS3_PNS_9XalanNodeEE.virtual"}
!87 = !{i64 240, !"_ZTSMN10xalanc_1_819ElemTemplateElementEKFvRNS_26StylesheetExecutionContextERKS0_PS3_PNS_9XalanNodeENS6_8NodeTypeEE.virtual"}
!88 = !{i64 248, !"_ZTSMN10xalanc_1_819ElemTemplateElementEKFbiE.virtual"}
!89 = !{i64 256, !"_ZTSMN10xalanc_1_819ElemTemplateElementEFvRNS_29StylesheetConstructionContextERKNS_17NamespacesHandlerERS3_E.virtual"}
!90 = !{i32 1, !"wchar_size", i32 4}
!91 = !{i32 8, !"PIC Level", i32 2}
!92 = !{i32 7, !"PIE Level", i32 2}
!93 = !{i32 7, !"uwtable", i32 2}
!94 = !{i32 1, !"ThinLTO", i32 0}
!95 = !{i32 1, !"EnableSplitLTOUnit", i32 1}
!96 = !{!"clang version 17.0.0 (git@github.com:llvm/llvm-project.git cff7a7747db02d1214b20e98677e5ddcb402ffe0)"}
!97 = !{!98, !98, i64 0}
!98 = !{!"vtable pointer", !99, i64 0}
!99 = !{!"Simple C++ TBAA"}
!100 = !{!101, !133, i64 210}
!101 = !{!"_ZTSN10xalanc_1_815ElemTextLiteralE", !102, i64 0, !133, i64 210, !104, i64 216, !128, i64 224}
!102 = !{!"_ZTSN10xalanc_1_819ElemTemplateElementE", !103, i64 0, !104, i64 8, !106, i64 16, !128, i64 136, !128, i64 140, !128, i64 144, !104, i64 152, !104, i64 160, !104, i64 168, !105, i64 176, !104, i64 184, !129, i64 192, !132, i64 208}
!103 = !{!"_ZTSN10xalanc_1_814PrefixResolverE"}
!104 = !{!"any pointer", !105, i64 0}
!105 = !{!"omnipotent char", !99, i64 0}
!106 = !{!"_ZTSN10xalanc_1_817NamespacesHandlerE", !107, i64 0, !111, i64 24, !115, i64 48, !119, i64 72}
!107 = !{!"_ZTSSt6vectorIN10xalanc_1_817NamespacesHandler9NamespaceESaIS2_EE", !108, i64 0}
!108 = !{!"_ZTSSt12_Vector_baseIN10xalanc_1_817NamespacesHandler9NamespaceESaIS2_EE", !109, i64 0}
!109 = !{!"_ZTSNSt12_Vector_baseIN10xalanc_1_817NamespacesHandler9NamespaceESaIS2_EE12_Vector_implE", !110, i64 0}
!110 = !{!"_ZTSNSt12_Vector_baseIN10xalanc_1_817NamespacesHandler9NamespaceESaIS2_EE17_Vector_impl_dataE", !104, i64 0, !104, i64 8, !104, i64 16}
!111 = !{!"_ZTSSt6vectorIN10xalanc_1_817NamespacesHandler17NamespaceExtendedESaIS2_EE", !112, i64 0}
!112 = !{!"_ZTSSt12_Vector_baseIN10xalanc_1_817NamespacesHandler17NamespaceExtendedESaIS2_EE", !113, i64 0}
!113 = !{!"_ZTSNSt12_Vector_baseIN10xalanc_1_817NamespacesHandler17NamespaceExtendedESaIS2_EE12_Vector_implE", !114, i64 0}
!114 = !{!"_ZTSNSt12_Vector_baseIN10xalanc_1_817NamespacesHandler17NamespaceExtendedESaIS2_EE17_Vector_impl_dataE", !104, i64 0, !104, i64 8, !104, i64 16}
!115 = !{!"_ZTSSt6vectorIPKN10xalanc_1_814XalanDOMStringESaIS3_EE", !116, i64 0}
!116 = !{!"_ZTSSt12_Vector_baseIPKN10xalanc_1_814XalanDOMStringESaIS3_EE", !117, i64 0}
!117 = !{!"_ZTSNSt12_Vector_baseIPKN10xalanc_1_814XalanDOMStringESaIS3_EE12_Vector_implE", !118, i64 0}
!118 = !{!"_ZTSNSt12_Vector_baseIPKN10xalanc_1_814XalanDOMStringESaIS3_EE17_Vector_impl_dataE", !104, i64 0, !104, i64 8, !104, i64 16}
!119 = !{!"_ZTSSt3mapIPKN10xalanc_1_814XalanDOMStringES3_NS0_32DOMStringPointerLessThanFunctionESaISt4pairIKS3_S3_EEE", !120, i64 0}
!120 = !{!"_ZTSSt8_Rb_treeIPKN10xalanc_1_814XalanDOMStringESt4pairIKS3_S3_ESt10_Select1stIS6_ENS0_32DOMStringPointerLessThanFunctionESaIS6_EE", !121, i64 0}
!121 = !{!"_ZTSNSt8_Rb_treeIPKN10xalanc_1_814XalanDOMStringESt4pairIKS3_S3_ESt10_Select1stIS6_ENS0_32DOMStringPointerLessThanFunctionESaIS6_EE13_Rb_tree_implIS9_Lb0EEE", !122, i64 0, !124, i64 8}
!122 = !{!"_ZTSSt20_Rb_tree_key_compareIN10xalanc_1_832DOMStringPointerLessThanFunctionEE", !123, i64 0}
!123 = !{!"_ZTSN10xalanc_1_832DOMStringPointerLessThanFunctionE"}
!124 = !{!"_ZTSSt15_Rb_tree_header", !125, i64 0, !127, i64 32}
!125 = !{!"_ZTSSt18_Rb_tree_node_base", !126, i64 0, !104, i64 8, !104, i64 16, !104, i64 24}
!126 = !{!"_ZTSSt14_Rb_tree_color", !105, i64 0}
!127 = !{!"long", !105, i64 0}
!128 = !{!"int", !105, i64 0}
!129 = !{!"_ZTSN10xalanc_1_819ElemTemplateElement12LocatorProxyE", !130, i64 0, !104, i64 8}
!130 = !{!"_ZTSN10xalanc_1_812XalanLocatorE", !131, i64 0}
!131 = !{!"_ZTSN11xercesc_2_57LocatorE"}
!132 = !{!"short", !105, i64 0}
!133 = !{!"bool", !105, i64 0}
!134 = !{!101, !104, i64 216}
!135 = !{!101, !128, i64 224}
!136 = !{!102, !132, i64 208}
!137 = !{!104, !104, i64 0}
!138 = !{i8 0, i8 2}
!139 = !{}

^0 = module: (path: "", hash: (0, 0, 0, 0, 0))
^1 = gv: (name: "_ZN10xalanc_1_815ElemTextLiteralD1Ev", summaries: (alias: (module: ^0, flags: (linkage: external, visibility: default, notEligibleToImport: 1, live: 0, dsoLocal: 1, canAutoHide: 0), aliasee: ^22))) ; guid = 39750896001871765
^2 = gv: (name: "_ZNK10xalanc_1_819ElemTemplateElement6getURIEv") ; guid = 595830584247610003
^3 = gv: (name: "_ZN10xalanc_1_815ElemTextLiteralD0Ev", summaries: (function: (module: ^0, flags: (linkage: external, visibility: default, notEligibleToImport: 1, live: 0, dsoLocal: 1, canAutoHide: 0), insts: 6, funcFlags: (readNone: 0, readOnly: 0, noRecurse: 0, returnDoesNotAlias: 0, noInline: 0, alwaysInline: 0, noUnwind: 0, mayThrow: 1, hasUnknownCall: 0, mustBeUnreachable: 0), calls: ((callee: ^46, relbf: 256), (callee: ^4, relbf: 255)), refs: (^6)))) ; guid = 754581709752617150
^4 = gv: (name: "_ZdlPv") ; guid = 950067649961216671
^5 = gv: (name: "__clang_call_terminate", summaries: (function: (module: ^0, flags: (linkage: linkonce_odr, visibility: hidden, notEligibleToImport: 1, live: 0, dsoLocal: 1, canAutoHide: 1), insts: 3, funcFlags: (readNone: 0, readOnly: 0, noRecurse: 0, returnDoesNotAlias: 0, noInline: 1, alwaysInline: 0, noUnwind: 1, mayThrow: 0, hasUnknownCall: 0, mustBeUnreachable: 1), calls: ((callee: ^12, relbf: 256), (callee: ^39, relbf: 256))))) ; guid = 1080103601501470593
^6 = gv: (name: "__gxx_personality_v0") ; guid = 1233668236132380018
^7 = gv: (name: "_ZTIN10xalanc_1_819ElemTemplateElementE") ; guid = 1322747997434883234
^8 = gv: (name: "_ZN10xalanc_1_819ElemTemplateElement16postConstructionERNS_29StylesheetConstructionContextERKNS_17NamespacesHandlerE") ; guid = 1648004439453505467
^9 = gv: (name: "_ZN10xalanc_1_815ElemTextLiteralC2ERNS_29StylesheetConstructionContextERNS_10StylesheetEiiPKtjjbb", summaries: (function: (module: ^0, flags: (linkage: external, visibility: default, notEligibleToImport: 1, live: 0, dsoLocal: 1, canAutoHide: 0), insts: 33, funcFlags: (readNone: 0, readOnly: 0, noRecurse: 0, returnDoesNotAlias: 0, noInline: 0, alwaysInline: 0, noUnwind: 0, mayThrow: 1, hasUnknownCall: 1, mustBeUnreachable: 0), calls: ((callee: ^42, relbf: 256), (callee: ^10, relbf: 256), (callee: ^46), (callee: ^5)), refs: (^6, ^27)))) ; guid = 1781595537623010381
^10 = gv: (name: "_ZN10xalanc_1_815isXMLWhitespaceEPKtjj") ; guid = 2083143340654731991
^11 = gv: (name: "_ZNK10xalanc_1_819ElemTemplateElement15executeChildrenERNS_26StylesheetExecutionContextEPNS_9XalanNodeE") ; guid = 2569151213077293283
^12 = gv: (name: "__cxa_begin_catch") ; guid = 2822380080272388849
^13 = gv: (name: "_ZNK10xalanc_1_819ElemTemplateElement22getPreviousSiblingElemEv") ; guid = 3415373745798219688
^14 = gv: (name: "_ZNK10xalanc_1_819ElemTemplateElement10getLocatorEv") ; guid = 3607541928438182012
^15 = gv: (name: "_ZTIN10xalanc_1_815ElemTextLiteralE", summaries: (variable: (module: ^0, flags: (linkage: external, visibility: default, notEligibleToImport: 1, live: 0, dsoLocal: 1, canAutoHide: 0), varFlags: (readonly: 1, writeonly: 0, constant: 1), refs: (^49, ^7, ^33)))) ; guid = 5098362735001699856
^16 = gv: (name: "_ZNK10xalanc_1_819ElemTemplateElement14transformChildERNS_26StylesheetExecutionContextERKS0_PS3_PNS_9XalanNodeE") ; guid = 5403241231314907425
^17 = gv: (name: "_ZNK10xalanc_1_819ElemTemplateElement16getLastChildElemEv") ; guid = 5822003732881766726
^18 = gv: (name: "_ZNK10xalanc_1_819ElemTemplateElement8isAttrOKEPKtRKN11xercesc_2_513AttributeListEiRNS_29StylesheetConstructionContextE") ; guid = 6116591371027792931
^19 = gv: (name: "_ZN10xalanc_1_819ElemTemplateElement18setDefaultTemplateEb") ; guid = 6120197427836425957
^20 = gv: (name: "_ZN10xalanc_1_819ElemTemplateElement15appendChildElemEPS0_") ; guid = 6197377541982919765
^21 = gv: (name: "_ZNK10xalanc_1_819ElemTemplateElement7executeERNS_26StylesheetExecutionContextE") ; guid = 6503487361628669705
^22 = gv: (name: "_ZN10xalanc_1_815ElemTextLiteralD2Ev", summaries: (function: (module: ^0, flags: (linkage: external, visibility: default, notEligibleToImport: 1, live: 0, dsoLocal: 1, canAutoHide: 0), insts: 2, calls: ((callee: ^46, relbf: 256))))) ; guid = 6506510978074384922
^23 = gv: (name: "_ZNK10xalanc_1_815ElemTextLiteral12isWhitespaceEv", summaries: (function: (module: ^0, flags: (linkage: external, visibility: default, notEligibleToImport: 1, live: 0, dsoLocal: 1, canAutoHide: 0), insts: 4, funcFlags: (readNone: 0, readOnly: 1, noRecurse: 1, returnDoesNotAlias: 0, noInline: 0, alwaysInline: 0, noUnwind: 1, mayThrow: 0, hasUnknownCall: 0, mustBeUnreachable: 0)))) ; guid = 7595983684466581657
^24 = gv: (name: "_ZN10xalanc_1_819ElemTemplateElement15addToStylesheetERNS_29StylesheetConstructionContextERNS_10StylesheetE") ; guid = 7727859874971753223
^25 = gv: (name: "_ZNK10xalanc_1_819ElemTemplateElement8getXPathEj") ; guid = 8673386865781209222
^26 = gv: (name: "_ZNK10xalanc_1_819ElemTemplateElement16childTypeAllowedEi") ; guid = 9478116685996229494
^27 = gv: (name: "_ZTVN10xalanc_1_815ElemTextLiteralE", summaries: (variable: (module: ^0, flags: (linkage: external, visibility: default, notEligibleToImport: 1, live: 0, dsoLocal: 1, canAutoHide: 0), varFlags: (readonly: 1, writeonly: 0, constant: 1), refs: (^15, ^22, ^3, ^34, ^2, ^14, ^18, ^48, ^29, ^11, ^23, ^41, ^35, ^24, ^31, ^19, ^8, ^45, ^47, ^17, ^38, ^30, ^13, ^36, ^32, ^28, ^20, ^25, ^16, ^40, ^26, ^37)))) ; guid = 9503123525931563464
^28 = gv: (name: "_ZN10xalanc_1_819ElemTemplateElement17setParentNodeElemEPS0_") ; guid = 9877715910218598174
^29 = gv: (name: "_ZNK10xalanc_1_819ElemTemplateElement15executeChildrenERNS_26StylesheetExecutionContextE") ; guid = 9947314426747437233
^30 = gv: (name: "_ZN10xalanc_1_819ElemTemplateElement18setNextSiblingElemEPS0_") ; guid = 10015255630107300407
^31 = gv: (name: "_ZN10xalanc_1_819ElemTemplateElement18processSortElementERNS_29StylesheetConstructionContextERNS_10StylesheetERKN11xercesc_2_513AttributeListEPKNS5_7LocatorE") ; guid = 10185377472321362980
^32 = gv: (name: "_ZNK10xalanc_1_819ElemTemplateElement17getParentNodeElemEv") ; guid = 10679489349196257475
^33 = gv: (name: "_ZTVN10__cxxabiv120__si_class_type_infoE") ; guid = 10873349890511596996
^34 = gv: (name: "_ZNK10xalanc_1_819ElemTemplateElement21getNamespaceForPrefixERKNS_14XalanDOMStringE") ; guid = 10987441113485604614
^35 = gv: (name: "_ZNK10xalanc_1_819ElemTemplateElement16getNameAttributeEv") ; guid = 11447626665921395452
^36 = gv: (name: "_ZN10xalanc_1_819ElemTemplateElement22setPreviousSiblingElemEPS0_") ; guid = 11650483482314809816
^37 = gv: (name: "_ZN10xalanc_1_819ElemTemplateElement26namespacesPostConstructionERNS_29StylesheetConstructionContextERKNS_17NamespacesHandlerERS3_") ; guid = 11728326545076934802
^38 = gv: (name: "_ZNK10xalanc_1_819ElemTemplateElement18getNextSiblingElemEv") ; guid = 13019053601338977240
^39 = gv: (name: "_ZSt9terminatev") ; guid = 13807749166652787960
^40 = gv: (name: "_ZNK10xalanc_1_819ElemTemplateElement14transformChildERNS_26StylesheetExecutionContextERKS0_PS3_PNS_9XalanNodeENS6_8NodeTypeE") ; guid = 14039339006836943136
^41 = gv: (name: "_ZNK10xalanc_1_815ElemTextLiteral14getElementNameEv", summaries: (function: (module: ^0, flags: (linkage: external, visibility: default, notEligibleToImport: 1, live: 0, dsoLocal: 1, canAutoHide: 0), insts: 2, funcFlags: (readNone: 1, readOnly: 0, noRecurse: 1, returnDoesNotAlias: 0, noInline: 0, alwaysInline: 0, noUnwind: 1, mayThrow: 0, hasUnknownCall: 0, mustBeUnreachable: 0), refs: (^44)))) ; guid = 14515703117466168993
^42 = gv: (name: "_ZN10xalanc_1_819ElemTemplateElementC2ERNS_29StylesheetConstructionContextERNS_10StylesheetEiRKNS_14XalanDOMStringEii") ; guid = 14586307623435839781
^43 = gv: (name: "_ZN10xalanc_1_815ElemTextLiteralC1ERNS_29StylesheetConstructionContextERNS_10StylesheetEiiPKtjjbb", summaries: (alias: (module: ^0, flags: (linkage: external, visibility: default, notEligibleToImport: 1, live: 0, dsoLocal: 1, canAutoHide: 0), aliasee: ^9))) ; guid = 15183943459558830428
^44 = gv: (name: "_ZN10xalanc_1_89Constants32ELEMNAME_TEXT_WITH_PREFIX_STRINGE") ; guid = 15666253693212534856
^45 = gv: (name: "_ZNK10xalanc_1_819ElemTemplateElement17getFirstChildElemEv") ; guid = 16089207661037868752
^46 = gv: (name: "_ZN10xalanc_1_819ElemTemplateElementD2Ev") ; guid = 16873885518123577993
^47 = gv: (name: "_ZN10xalanc_1_819ElemTemplateElement17setFirstChildElemEPS0_") ; guid = 17668436008680731471
^48 = gv: (name: "_ZNK10xalanc_1_815ElemTextLiteral7executeERNS_26StylesheetExecutionContextE", summaries: (function: (module: ^0, flags: (linkage: external, visibility: default, notEligibleToImport: 1, live: 0, dsoLocal: 1, canAutoHide: 0), insts: 15, funcFlags: (readNone: 0, readOnly: 0, noRecurse: 0, returnDoesNotAlias: 0, noInline: 0, alwaysInline: 0, noUnwind: 0, mayThrow: 0, hasUnknownCall: 1, mustBeUnreachable: 0), calls: ((callee: ^21, relbf: 256))))) ; guid = 17669623018801195609
^49 = gv: (name: "_ZTSN10xalanc_1_815ElemTextLiteralE", summaries: (variable: (module: ^0, flags: (linkage: external, visibility: default, notEligibleToImport: 1, live: 0, dsoLocal: 1, canAutoHide: 0), varFlags: (readonly: 1, writeonly: 0, constant: 1)))) ; guid = 17844211864454867801
^50 = flags: 8
^51 = blockcount: 0
