; ModuleID = 'FormatterToXML.cpp'
source_filename = "FormatterToXML.cpp"
target datalayout = "e-m:e-p270:32:32-p271:32:32-p272:64:64-i64:64-f80:128-n8:16:32:64-S128"
target triple = "x86_64-unknown-linux-gnu"

%"class.xalanc_1_8::XalanDOMString" = type <{ %"class.std::vector", i32, [4 x i8] }>
%"class.std::vector" = type { %"struct.std::_Vector_base" }
%"struct.std::_Vector_base" = type { %"struct.std::_Vector_base<unsigned short, std::allocator<unsigned short> >::_Vector_impl" }
%"struct.std::_Vector_base<unsigned short, std::allocator<unsigned short> >::_Vector_impl" = type { %"struct.std::_Vector_base<unsigned short, std::allocator<unsigned short> >::_Vector_impl_data" }
%"struct.std::_Vector_base<unsigned short, std::allocator<unsigned short> >::_Vector_impl_data" = type { ptr, ptr, ptr }
%"class.xalanc_1_8::FormatterToXML" = type <{ %"class.xalanc_1_8::FormatterListener.base", [4 x i8], ptr, ptr, i16, [256 x i16], [256 x i16], i8, i8, i8, i8, i8, i8, i8, i8, i8, i8, [4 x i8], %"class.xalanc_1_8::XalanDOMString", %"class.xalanc_1_8::XalanDOMString", %"class.xalanc_1_8::XalanDOMString", i32, i32, %"class.std::vector.0", %"class.xalanc_1_8::XalanDOMString", i8, i8, i8, i8, i8, [3 x i8], %"class.xalanc_1_8::XalanDOMString", %"class.xalanc_1_8::XalanDOMString", %"class.xalanc_1_8::XalanDOMString", %"class.xalanc_1_8::XalanDOMString", %"class.std::vector", i32, [4 x i8], %"class.std::vector.4", %"class.std::vector.0", { i64, i64 }, { i64, i64 }, { i64, i64 }, { i64, i64 }, { i64, i64 }, { i64, i64 }, { i64, i64 }, { i64, i64 }, { i64, i64 }, ptr, i32, [4 x i8] }>
%"class.xalanc_1_8::FormatterListener.base" = type <{ %"class.xercesc_2_5::DocumentHandler", ptr, i32 }>
%"class.xercesc_2_5::DocumentHandler" = type { ptr }
%"class.std::vector.4" = type { %"struct.std::_Vector_base.5" }
%"struct.std::_Vector_base.5" = type { %"struct.std::_Vector_base<char, std::allocator<char> >::_Vector_impl" }
%"struct.std::_Vector_base<char, std::allocator<char> >::_Vector_impl" = type { %"struct.std::_Vector_base<char, std::allocator<char> >::_Vector_impl_data" }
%"struct.std::_Vector_base<char, std::allocator<char> >::_Vector_impl_data" = type { ptr, ptr, ptr }
%"class.std::vector.0" = type { %"struct.std::_Bvector_base" }
%"struct.std::_Bvector_base" = type { %"struct.std::_Bvector_base<std::allocator<bool> >::_Bvector_impl" }
%"struct.std::_Bvector_base<std::allocator<bool> >::_Bvector_impl" = type { %"struct.std::_Bvector_base<std::allocator<bool> >::_Bvector_impl_data" }
%"struct.std::_Bvector_base<std::allocator<bool> >::_Bvector_impl_data" = type { %"struct.std::_Bit_iterator", %"struct.std::_Bit_iterator", ptr }
%"struct.std::_Bit_iterator" = type { %"struct.std::_Bit_iterator_base.base", [4 x i8] }
%"struct.std::_Bit_iterator_base.base" = type <{ ptr, i32 }>
%"class.xalanc_1_8::XalanOutputStream" = type { ptr, i32, ptr, i32, %"class.std::vector", %"class.xalanc_1_8::XalanDOMString", i8, i8, %"class.std::vector.4" }
%"class.xercesc_2_5::SAXException" = type { ptr, ptr, ptr }

$__clang_call_terminate = comdat any

$_ZN10xalanc_1_814XalanDOMStringaSEPKt = comdat any

$_ZNSt13_Bvector_baseISaIbEED2Ev = comdat any

$_ZN10xalanc_1_817XalanOutputStream5writeEt = comdat any

$_ZN11xercesc_2_512SAXExceptionD2Ev = comdat any

$_ZN11xercesc_2_512SAXExceptionD0Ev = comdat any

$_ZNK11xercesc_2_512SAXException10getMessageEv = comdat any

$_ZNSt6vectorItSaItEE14_M_fill_insertEN9__gnu_cxx17__normal_iteratorIPtS1_EEmRKt = comdat any

$_ZNSt6vectorIbSaIbEE13_M_insert_auxESt13_Bit_iteratorb = comdat any

$_ZTSN11xercesc_2_512SAXExceptionE = comdat any

$_ZTSN11xercesc_2_57XMemoryE = comdat any

$_ZTIN11xercesc_2_57XMemoryE = comdat any

$_ZTIN11xercesc_2_512SAXExceptionE = comdat any

$_ZTVN11xercesc_2_512SAXExceptionE = comdat any

@_ZTVN10xalanc_1_814FormatterToXMLE = dso_local unnamed_addr constant { [27 x ptr] } { [27 x ptr] [ptr null, ptr @_ZTIN10xalanc_1_814FormatterToXMLE, ptr @_ZN10xalanc_1_814FormatterToXMLD2Ev, ptr @_ZN10xalanc_1_814FormatterToXMLD0Ev, ptr @_ZN10xalanc_1_814FormatterToXML10charactersEPKtj, ptr @_ZN10xalanc_1_814FormatterToXML11endDocumentEv, ptr @_ZN10xalanc_1_814FormatterToXML10endElementEPKt, ptr @_ZN10xalanc_1_814FormatterToXML19ignorableWhitespaceEPKtj, ptr @_ZN10xalanc_1_814FormatterToXML21processingInstructionEPKtS2_, ptr @_ZN10xalanc_1_814FormatterToXML13resetDocumentEv, ptr @_ZN10xalanc_1_814FormatterToXML18setDocumentLocatorEPKN11xercesc_2_57LocatorE, ptr @_ZN10xalanc_1_814FormatterToXML13startDocumentEv, ptr @_ZN10xalanc_1_814FormatterToXML12startElementEPKtRN11xercesc_2_513AttributeListE, ptr @_ZN10xalanc_1_814FormatterToXML13charactersRawEPKtj, ptr @_ZN10xalanc_1_814FormatterToXML7commentEPKt, ptr @_ZN10xalanc_1_814FormatterToXML5cdataEPKtj, ptr @_ZN10xalanc_1_814FormatterToXML15entityReferenceEPKt, ptr @_ZNK10xalanc_1_814FormatterToXML9getWriterEv, ptr @_ZNK10xalanc_1_814FormatterToXML16getDoctypeSystemEv, ptr @_ZNK10xalanc_1_814FormatterToXML16getDoctypePublicEv, ptr @_ZNK10xalanc_1_814FormatterToXML11getEncodingEv, ptr @_ZNK10xalanc_1_814FormatterToXML12getMediaTypeEv, ptr @_ZNK10xalanc_1_814FormatterToXML9getIndentEv, ptr @_ZN10xalanc_1_814FormatterToXML18accumDefaultEntityEtb, ptr @_ZN10xalanc_1_814FormatterToXML20writeNormalizedCharsEPKtjjb, ptr @_ZN10xalanc_1_814FormatterToXML15writeAttrStringEPKtj, ptr @_ZN10xalanc_1_814FormatterToXML16accumCommentDataEPKt] }, align 8, !type !0, !type !1, !type !2, !type !3, !type !4, !type !5, !type !6, !type !7, !type !8, !type !9, !type !10, !type !11, !type !12, !type !13, !type !14, !type !15, !type !16, !type !17, !type !18, !type !19, !type !20, !type !21, !type !22, !type !23, !type !24, !type !25, !type !26, !type !27, !type !28, !type !29, !type !30, !type !31, !type !32, !type !33, !type !34, !type !35, !type !36, !type !37, !type !38, !type !39, !type !40, !type !41, !type !42, !type !43, !type !44, !type !45, !type !46, !type !47, !type !48, !type !49, !type !50, !type !51, !type !52, !type !53, !type !54, !type !55, !type !56, !type !57, !type !58, !type !59, !type !60, !type !61, !type !62, !type !63, !type !64, !type !65, !type !66, !type !67, !type !68, !type !69, !type !70, !type !71
@_ZN10xalanc_1_824XalanTranscodingServices12s_utf8StringE = external constant [0 x i16], align 2
@_ZN10xalanc_1_8L26theDefaultAttrSpecialCharsE = internal constant [7 x i16] [i16 60, i16 62, i16 38, i16 34, i16 13, i16 10, i16 0], align 2
@_ZTIN10xalanc_1_817XalanOutputStream28UnsupportedEncodingExceptionE = external constant ptr
@_ZN11xercesc_2_516XMLPlatformUtils15fgMemoryManagerE = external local_unnamed_addr global ptr, align 8
@_ZTVN10__cxxabiv120__si_class_type_infoE = external global ptr
@_ZTSN11xercesc_2_512SAXExceptionE = linkonce_odr dso_local constant [30 x i8] c"N11xercesc_2_512SAXExceptionE\00", comdat, align 1
@_ZTVN10__cxxabiv117__class_type_infoE = external global ptr
@_ZTSN11xercesc_2_57XMemoryE = linkonce_odr dso_local constant [24 x i8] c"N11xercesc_2_57XMemoryE\00", comdat, align 1
@_ZTIN11xercesc_2_57XMemoryE = linkonce_odr dso_local constant { ptr, ptr } { ptr getelementptr inbounds (ptr, ptr @_ZTVN10__cxxabiv117__class_type_infoE, i64 2), ptr @_ZTSN11xercesc_2_57XMemoryE }, comdat, align 8
@_ZTIN11xercesc_2_512SAXExceptionE = linkonce_odr dso_local constant { ptr, ptr, ptr } { ptr getelementptr inbounds (ptr, ptr @_ZTVN10__cxxabiv120__si_class_type_infoE, i64 2), ptr @_ZTSN11xercesc_2_512SAXExceptionE, ptr @_ZTIN11xercesc_2_57XMemoryE }, comdat, align 8
@_ZN10xalanc_1_817FormatterListener10s_piTargetE = external constant [0 x i16], align 2
@_ZN10xalanc_1_817FormatterListener8s_piDataE = external constant [0 x i16], align 2
@_ZN10xalanc_1_811DOMServices20s_XMLNamespacePrefixE = external local_unnamed_addr constant ptr, align 8
@_ZN10xalanc_1_814FormatterToXML26s_doctypeHeaderStartStringE = dso_local constant [11 x i16] [i16 60, i16 33, i16 68, i16 79, i16 67, i16 84, i16 89, i16 80, i16 69, i16 32, i16 0], align 16
@_ZN10xalanc_1_814FormatterToXML32s_doctypeHeaderStartStringLengthE = dso_local local_unnamed_addr constant i32 10, align 4
@_ZN10xalanc_1_814FormatterToXML27s_doctypeHeaderPublicStringE = dso_local constant [10 x i16] [i16 32, i16 80, i16 85, i16 66, i16 76, i16 73, i16 67, i16 32, i16 34, i16 0], align 16
@_ZN10xalanc_1_814FormatterToXML33s_doctypeHeaderPublicStringLengthE = dso_local local_unnamed_addr constant i32 9, align 4
@_ZN10xalanc_1_814FormatterToXML27s_doctypeHeaderSystemStringE = dso_local constant [10 x i16] [i16 32, i16 83, i16 89, i16 83, i16 84, i16 69, i16 77, i16 32, i16 34, i16 0], align 16
@_ZN10xalanc_1_814FormatterToXML33s_doctypeHeaderSystemStringLengthE = dso_local local_unnamed_addr constant i32 9, align 4
@_ZN10xalanc_1_814FormatterToXML22s_xmlHeaderStartStringE = dso_local constant [16 x i16] [i16 60, i16 63, i16 120, i16 109, i16 108, i16 32, i16 118, i16 101, i16 114, i16 115, i16 105, i16 111, i16 110, i16 61, i16 34, i16 0], align 16
@_ZN10xalanc_1_814FormatterToXML28s_xmlHeaderStartStringLengthE = dso_local local_unnamed_addr constant i32 15, align 4
@_ZN10xalanc_1_814FormatterToXML25s_xmlHeaderEncodingStringE = dso_local constant [13 x i16] [i16 34, i16 32, i16 101, i16 110, i16 99, i16 111, i16 100, i16 105, i16 110, i16 103, i16 61, i16 34, i16 0], align 16
@_ZN10xalanc_1_814FormatterToXML31s_xmlHeaderEncodingStringLengthE = dso_local local_unnamed_addr constant i32 12, align 4
@_ZN10xalanc_1_814FormatterToXML27s_xmlHeaderStandaloneStringE = dso_local constant [15 x i16] [i16 34, i16 32, i16 115, i16 116, i16 97, i16 110, i16 100, i16 97, i16 108, i16 111, i16 110, i16 101, i16 61, i16 34, i16 0], align 16
@_ZN10xalanc_1_814FormatterToXML33s_xmlHeaderStandaloneStringLengthE = dso_local local_unnamed_addr constant i32 14, align 4
@_ZN10xalanc_1_814FormatterToXML20s_xmlHeaderEndStringE = dso_local constant [4 x i16] [i16 34, i16 63, i16 62, i16 0], align 2
@_ZN10xalanc_1_814FormatterToXML26s_xmlHeaderEndStringLengthE = dso_local local_unnamed_addr constant i32 3, align 4
@_ZN10xalanc_1_814FormatterToXML22s_defaultVersionStringE = dso_local constant [4 x i16] [i16 49, i16 46, i16 48, i16 0], align 2
@_ZN10xalanc_1_814FormatterToXML28s_defaultVersionStringLengthE = dso_local local_unnamed_addr constant i32 3, align 4
@_ZN10xalanc_1_814FormatterToXML21s_dtdCDATACloseStringE = dso_local constant [4 x i16] [i16 93, i16 93, i16 62, i16 0], align 2
@_ZN10xalanc_1_814FormatterToXML27s_dtdCDATACloseStringLengthE = dso_local local_unnamed_addr constant i32 3, align 4
@_ZN10xalanc_1_814FormatterToXML20s_xhtmlDocTypeStringE = dso_local constant [18 x i16] [i16 45, i16 47, i16 47, i16 87, i16 51, i16 67, i16 47, i16 47, i16 68, i16 84, i16 68, i16 32, i16 88, i16 72, i16 84, i16 77, i16 76, i16 0], align 16
@_ZN10xalanc_1_814FormatterToXML26s_xhtmlDocTypeStringLengthE = dso_local local_unnamed_addr constant i32 17, align 4
@_ZN10xalanc_1_814FormatterToXML15s_maxBufferSizeE = dso_local local_unnamed_addr constant i32 512, align 4
@_ZTSN10xalanc_1_814FormatterToXMLE = dso_local constant [31 x i8] c"N10xalanc_1_814FormatterToXMLE\00", align 1
@_ZTIN10xalanc_1_817FormatterListenerE = external constant ptr
@_ZTIN10xalanc_1_814FormatterToXMLE = dso_local constant { ptr, ptr, ptr } { ptr getelementptr inbounds (ptr, ptr @_ZTVN10__cxxabiv120__si_class_type_infoE, i64 2), ptr @_ZTSN10xalanc_1_814FormatterToXMLE, ptr @_ZTIN10xalanc_1_817FormatterListenerE }, align 8
@_ZN10xalanc_1_817XalanOutputStream10s_nlStringE = external constant [0 x i16], align 2
@.str = private unnamed_addr constant [26 x i8] c"vector::_M_realloc_insert\00", align 1
@_ZN10xalanc_1_814XalanDOMString7s_emptyE = external constant i16, align 2
@_ZTVN11xercesc_2_512SAXExceptionE = linkonce_odr dso_local unnamed_addr constant { [5 x ptr] } { [5 x ptr] [ptr null, ptr @_ZTIN11xercesc_2_512SAXExceptionE, ptr @_ZN11xercesc_2_512SAXExceptionD2Ev, ptr @_ZN11xercesc_2_512SAXExceptionD0Ev, ptr @_ZNK11xercesc_2_512SAXException10getMessageEv] }, comdat, align 8, !type !72, !type !73
@_ZN10xalanc_1_812XalanXMLChar15theUnicodeTableE = external local_unnamed_addr constant [0 x i8], align 1
@.str.11 = private unnamed_addr constant [23 x i8] c"vector::_M_fill_insert\00", align 1
@.str.12 = private unnamed_addr constant [28 x i8] c"vector<bool>::_M_insert_aux\00", align 1

@_ZN10xalanc_1_814FormatterToXMLC1ERNS_6WriterERKNS_14XalanDOMStringEbiS5_S5_S5_S5_bS5_NS_17FormatterListener7eFormatEb = dso_local unnamed_addr alias void (ptr, ptr, ptr, i1, i32, ptr, ptr, ptr, ptr, i1, ptr, i32, i1), ptr @_ZN10xalanc_1_814FormatterToXMLC2ERNS_6WriterERKNS_14XalanDOMStringEbiS5_S5_S5_S5_bS5_NS_17FormatterListener7eFormatEb
@_ZN10xalanc_1_814FormatterToXMLD1Ev = dso_local unnamed_addr alias void (ptr), ptr @_ZN10xalanc_1_814FormatterToXMLD2Ev

declare i32 @__gxx_personality_v0(...)

; Function Attrs: nobuiltin nounwind
declare void @_ZdlPv(ptr noundef) local_unnamed_addr #0

; Function Attrs: uwtable
define dso_local void @_ZN10xalanc_1_814FormatterToXMLC2ERNS_6WriterERKNS_14XalanDOMStringEbiS5_S5_S5_S5_bS5_NS_17FormatterListener7eFormatEb(ptr noundef nonnull align 8 dereferenceable(1644) %0, ptr noundef nonnull align 8 dereferenceable(8) %1, ptr noundef nonnull align 8 dereferenceable(28) %2, i1 noundef zeroext %3, i32 noundef %4, ptr noundef nonnull align 8 dereferenceable(28) %5, ptr noundef nonnull align 8 dereferenceable(28) %6, ptr noundef nonnull align 8 dereferenceable(28) %7, ptr noundef nonnull align 8 dereferenceable(28) %8, i1 noundef zeroext %9, ptr noundef nonnull align 8 dereferenceable(28) %10, i32 noundef %11, i1 noundef zeroext %12) unnamed_addr #1 align 2 personality ptr @__gxx_personality_v0 {
  %14 = alloca i16, align 2
  %15 = alloca i16, align 2
  %16 = alloca %"class.xalanc_1_8::XalanDOMString", align 8
  %17 = zext i1 %12 to i8
  tail call void @_ZN10xalanc_1_817FormatterListenerC2ENS0_7eFormatE(ptr noundef nonnull align 8 dereferenceable(20) %0, i32 noundef %11)
  store ptr getelementptr inbounds ({ [27 x ptr] }, ptr @_ZTVN10xalanc_1_814FormatterToXMLE, i64 0, inrange i32 0, i64 2), ptr %0, align 8, !tbaa !81
  %18 = getelementptr inbounds %"class.xalanc_1_8::FormatterToXML", ptr %0, i64 0, i32 2
  store ptr %1, ptr %18, align 8, !tbaa !84
  %19 = getelementptr inbounds %"class.xalanc_1_8::FormatterToXML", ptr %0, i64 0, i32 3
  %20 = load ptr, ptr %1, align 8, !tbaa !81
  %21 = getelementptr inbounds ptr, ptr %20, i64 4
  %22 = load ptr, ptr %21, align 8
  %23 = invoke noundef ptr %22(ptr noundef nonnull align 8 dereferenceable(8) %1)
          to label %24 unwind label %104

24:                                               ; preds = %13
  %25 = zext i1 %9 to i8
  %26 = zext i1 %3 to i8
  store ptr %23, ptr %19, align 8, !tbaa !109
  %27 = getelementptr inbounds %"class.xalanc_1_8::FormatterToXML", ptr %0, i64 0, i32 4
  %28 = getelementptr inbounds %"class.xalanc_1_8::FormatterToXML", ptr %0, i64 0, i32 5
  %29 = getelementptr inbounds %"class.xalanc_1_8::FormatterToXML", ptr %0, i64 0, i32 6
  %30 = getelementptr inbounds %"class.xalanc_1_8::FormatterToXML", ptr %0, i64 0, i32 7
  tail call void @llvm.memset.p0.i64(ptr noundef nonnull align 8 dereferenceable(1026) %27, i8 0, i64 1026, i1 false)
  store i8 %25, ptr %30, align 2, !tbaa !110
  %31 = getelementptr inbounds %"class.xalanc_1_8::FormatterToXML", ptr %0, i64 0, i32 8
  store i8 0, ptr %31, align 1, !tbaa !111
  %32 = getelementptr inbounds %"class.xalanc_1_8::FormatterToXML", ptr %0, i64 0, i32 9
  store i8 %26, ptr %32, align 4, !tbaa !112
  %33 = getelementptr inbounds %"class.xalanc_1_8::FormatterToXML", ptr %0, i64 0, i32 10
  store i8 0, ptr %33, align 1, !tbaa !113
  %34 = getelementptr inbounds %"class.xalanc_1_8::FormatterToXML", ptr %0, i64 0, i32 11
  store i8 1, ptr %34, align 2, !tbaa !114
  %35 = getelementptr inbounds %"class.xalanc_1_8::FormatterToXML", ptr %0, i64 0, i32 12
  %36 = getelementptr inbounds %"class.xalanc_1_8::FormatterToXML", ptr %0, i64 0, i32 16
  %37 = getelementptr inbounds %"class.xalanc_1_8::FormatterToXML", ptr %0, i64 0, i32 18
  tail call void @llvm.memset.p0.i64(ptr noundef nonnull align 1 dereferenceable(5) %35, i8 0, i64 5, i1 false)
  invoke void @_ZN10xalanc_1_814XalanDOMStringC1ERKS0_jj(ptr noundef nonnull align 8 dereferenceable(28) %37, ptr noundef nonnull align 8 dereferenceable(28) %7, i32 noundef 0, i32 noundef -1)
          to label %38 unwind label %104

38:                                               ; preds = %24
  %39 = getelementptr inbounds %"class.xalanc_1_8::FormatterToXML", ptr %0, i64 0, i32 19
  invoke void @_ZN10xalanc_1_814XalanDOMStringC1ERKS0_jj(ptr noundef nonnull align 8 dereferenceable(28) %39, ptr noundef nonnull align 8 dereferenceable(28) %8, i32 noundef 0, i32 noundef -1)
          to label %40 unwind label %108

40:                                               ; preds = %38
  %41 = getelementptr inbounds %"class.xalanc_1_8::FormatterToXML", ptr %0, i64 0, i32 20
  %42 = getelementptr inbounds %"class.xalanc_1_8::XalanDOMString", ptr %5, i64 0, i32 1
  %43 = load i32, ptr %42, align 8, !tbaa !115
  %44 = icmp eq i32 %43, 0
  br i1 %44, label %46, label %45

45:                                               ; preds = %40
  invoke void @_ZN10xalanc_1_814XalanDOMStringC1ERKS0_jj(ptr noundef nonnull align 8 dereferenceable(28) %41, ptr noundef nonnull align 8 dereferenceable(28) %5, i32 noundef 0, i32 noundef -1)
          to label %47 unwind label %112

46:                                               ; preds = %40
  invoke void @_ZN10xalanc_1_814XalanDOMStringC1EPKtj(ptr noundef nonnull align 8 dereferenceable(28) %41, ptr noundef nonnull @_ZN10xalanc_1_824XalanTranscodingServices12s_utf8StringE, i32 noundef -1)
          to label %47 unwind label %112

47:                                               ; preds = %45, %46
  %48 = getelementptr inbounds %"class.xalanc_1_8::FormatterToXML", ptr %0, i64 0, i32 21
  store i32 0, ptr %48, align 8, !tbaa !116
  %49 = getelementptr inbounds %"class.xalanc_1_8::FormatterToXML", ptr %0, i64 0, i32 22
  store i32 %4, ptr %49, align 4, !tbaa !117
  %50 = getelementptr inbounds %"class.xalanc_1_8::FormatterToXML", ptr %0, i64 0, i32 23
  store ptr null, ptr %50, align 8, !tbaa !118
  %51 = getelementptr inbounds %"class.xalanc_1_8::FormatterToXML", ptr %0, i64 0, i32 23, i32 0, i32 0, i32 0, i32 0, i32 0, i32 1
  store i32 0, ptr %51, align 8, !tbaa !119
  %52 = getelementptr inbounds %"class.xalanc_1_8::FormatterToXML", ptr %0, i64 0, i32 23, i32 0, i32 0, i32 0, i32 1
  store ptr null, ptr %52, align 8, !tbaa !118
  %53 = getelementptr inbounds %"class.xalanc_1_8::FormatterToXML", ptr %0, i64 0, i32 23, i32 0, i32 0, i32 0, i32 1, i32 0, i32 1
  store i32 0, ptr %53, align 8, !tbaa !119
  %54 = getelementptr inbounds %"class.xalanc_1_8::FormatterToXML", ptr %0, i64 0, i32 23, i32 0, i32 0, i32 0, i32 2
  store ptr null, ptr %54, align 8, !tbaa !120
  %55 = getelementptr inbounds %"class.xalanc_1_8::FormatterToXML", ptr %0, i64 0, i32 24
  invoke void @_ZN10xalanc_1_814XalanDOMStringC1Ev(ptr noundef nonnull align 8 dereferenceable(28) %55)
          to label %56 unwind label %116

56:                                               ; preds = %47
  %57 = getelementptr inbounds %"class.xalanc_1_8::FormatterToXML", ptr %0, i64 0, i32 25
  store i8 0, ptr %57, align 8, !tbaa !121
  %58 = getelementptr inbounds %"class.xalanc_1_8::FormatterToXML", ptr %0, i64 0, i32 26
  store i8 %17, ptr %58, align 1, !tbaa !122
  %59 = getelementptr inbounds %"class.xalanc_1_8::FormatterToXML", ptr %0, i64 0, i32 27
  store i8 0, ptr %59, align 2, !tbaa !123
  %60 = getelementptr inbounds %"class.xalanc_1_8::FormatterToXML", ptr %0, i64 0, i32 28
  store i8 0, ptr %60, align 1, !tbaa !124
  %61 = getelementptr inbounds %"class.xalanc_1_8::FormatterToXML", ptr %0, i64 0, i32 29
  store i8 0, ptr %61, align 4, !tbaa !125
  %62 = getelementptr inbounds %"class.xalanc_1_8::FormatterToXML", ptr %0, i64 0, i32 31
  invoke void @_ZN10xalanc_1_814XalanDOMStringC1ERKS0_jj(ptr noundef nonnull align 8 dereferenceable(28) %62, ptr noundef nonnull align 8 dereferenceable(28) %2, i32 noundef 0, i32 noundef -1)
          to label %63 unwind label %120

63:                                               ; preds = %56
  %64 = getelementptr inbounds %"class.xalanc_1_8::FormatterToXML", ptr %0, i64 0, i32 32
  invoke void @_ZN10xalanc_1_814XalanDOMStringC1ERKS0_jj(ptr noundef nonnull align 8 dereferenceable(28) %64, ptr noundef nonnull align 8 dereferenceable(28) %10, i32 noundef 0, i32 noundef -1)
          to label %65 unwind label %124

65:                                               ; preds = %63
  %66 = getelementptr inbounds %"class.xalanc_1_8::FormatterToXML", ptr %0, i64 0, i32 33
  invoke void @_ZN10xalanc_1_814XalanDOMStringC1ERKS0_jj(ptr noundef nonnull align 8 dereferenceable(28) %66, ptr noundef nonnull align 8 dereferenceable(28) %6, i32 noundef 0, i32 noundef -1)
          to label %67 unwind label %128

67:                                               ; preds = %65
  %68 = getelementptr inbounds %"class.xalanc_1_8::FormatterToXML", ptr %0, i64 0, i32 34
  invoke void @_ZN10xalanc_1_814XalanDOMStringC1EPKtj(ptr noundef nonnull align 8 dereferenceable(28) %68, ptr noundef nonnull @_ZN10xalanc_1_8L26theDefaultAttrSpecialCharsE, i32 noundef -1)
          to label %69 unwind label %132

69:                                               ; preds = %67
  %70 = getelementptr inbounds %"class.xalanc_1_8::FormatterToXML", ptr %0, i64 0, i32 35
  %71 = getelementptr inbounds %"class.xalanc_1_8::FormatterToXML", ptr %0, i64 0, i32 38
  %72 = getelementptr inbounds %"class.xalanc_1_8::FormatterToXML", ptr %0, i64 0, i32 39
  %73 = getelementptr inbounds %"class.xalanc_1_8::FormatterToXML", ptr %0, i64 0, i32 39, i32 0, i32 0, i32 0, i32 1
  store ptr null, ptr %73, align 8, !tbaa !118
  %74 = getelementptr inbounds %"class.xalanc_1_8::FormatterToXML", ptr %0, i64 0, i32 39, i32 0, i32 0, i32 0, i32 1, i32 0, i32 1
  store i32 0, ptr %74, align 8, !tbaa !119
  %75 = getelementptr inbounds %"class.xalanc_1_8::FormatterToXML", ptr %0, i64 0, i32 39, i32 0, i32 0, i32 0, i32 2
  %76 = getelementptr inbounds %"class.xalanc_1_8::FormatterToXML", ptr %0, i64 0, i32 40
  %77 = getelementptr inbounds %"class.xalanc_1_8::FormatterToXML", ptr %0, i64 0, i32 40, i32 1
  %78 = getelementptr inbounds %"class.xalanc_1_8::FormatterToXML", ptr %0, i64 0, i32 41
  %79 = getelementptr inbounds %"class.xalanc_1_8::FormatterToXML", ptr %0, i64 0, i32 41, i32 1
  %80 = getelementptr inbounds %"class.xalanc_1_8::FormatterToXML", ptr %0, i64 0, i32 42
  %81 = getelementptr inbounds %"class.xalanc_1_8::FormatterToXML", ptr %0, i64 0, i32 42, i32 1
  %82 = getelementptr inbounds %"class.xalanc_1_8::FormatterToXML", ptr %0, i64 0, i32 43
  %83 = getelementptr inbounds %"class.xalanc_1_8::FormatterToXML", ptr %0, i64 0, i32 43, i32 1
  %84 = getelementptr inbounds %"class.xalanc_1_8::FormatterToXML", ptr %0, i64 0, i32 44
  %85 = getelementptr inbounds %"class.xalanc_1_8::FormatterToXML", ptr %0, i64 0, i32 44, i32 1
  %86 = getelementptr inbounds %"class.xalanc_1_8::FormatterToXML", ptr %0, i64 0, i32 45
  %87 = getelementptr inbounds %"class.xalanc_1_8::FormatterToXML", ptr %0, i64 0, i32 45, i32 1
  %88 = getelementptr inbounds %"class.xalanc_1_8::FormatterToXML", ptr %0, i64 0, i32 46
  %89 = getelementptr inbounds %"class.xalanc_1_8::FormatterToXML", ptr %0, i64 0, i32 46, i32 1
  %90 = getelementptr inbounds %"class.xalanc_1_8::FormatterToXML", ptr %0, i64 0, i32 47
  %91 = getelementptr inbounds %"class.xalanc_1_8::FormatterToXML", ptr %0, i64 0, i32 47, i32 1
  %92 = getelementptr inbounds %"class.xalanc_1_8::FormatterToXML", ptr %0, i64 0, i32 19, i32 1
  tail call void @llvm.memset.p0.i64(ptr noundef nonnull align 8 dereferenceable(28) %70, i8 0, i64 28, i1 false)
  tail call void @llvm.memset.p0.i64(ptr noundef nonnull align 8 dereferenceable(36) %71, i8 0, i64 36, i1 false)
  tail call void @llvm.memset.p0.i64(ptr noundef nonnull align 8 dereferenceable(136) %75, i8 0, i64 136, i1 false)
  %93 = load i32, ptr %92, align 8, !tbaa !115
  %94 = icmp eq i32 %93, 0
  br i1 %94, label %140, label %95

95:                                               ; preds = %69
  %96 = load ptr, ptr %39, align 8, !tbaa !126
  %97 = getelementptr inbounds %"class.xalanc_1_8::FormatterToXML", ptr %0, i64 0, i32 19, i32 0, i32 0, i32 0, i32 0, i32 1
  %98 = load ptr, ptr %97, align 8, !tbaa !126
  %99 = icmp eq ptr %96, %98
  %100 = select i1 %99, ptr @_ZN10xalanc_1_814XalanDOMString7s_emptyE, ptr %96
  %101 = invoke noundef zeroext i1 @_ZN10xalanc_1_810startsWithEPKtjS1_j(ptr noundef %100, i32 noundef %93, ptr noundef nonnull @_ZN10xalanc_1_814FormatterToXML20s_xhtmlDocTypeStringE, i32 noundef 17)
          to label %102 unwind label %136

102:                                              ; preds = %95
  br i1 %101, label %103, label %140

103:                                              ; preds = %102
  store i8 1, ptr %59, align 2, !tbaa !123
  br label %140

104:                                              ; preds = %24, %13
  %105 = landingpad { ptr, i32 }
          cleanup
  %106 = extractvalue { ptr, i32 } %105, 0
  %107 = extractvalue { ptr, i32 } %105, 1
  br label %371

108:                                              ; preds = %38
  %109 = landingpad { ptr, i32 }
          cleanup
  %110 = extractvalue { ptr, i32 } %109, 0
  %111 = extractvalue { ptr, i32 } %109, 1
  br label %365

112:                                              ; preds = %46, %45
  %113 = landingpad { ptr, i32 }
          cleanup
  %114 = extractvalue { ptr, i32 } %113, 0
  %115 = extractvalue { ptr, i32 } %113, 1
  br label %359

116:                                              ; preds = %47
  %117 = landingpad { ptr, i32 }
          cleanup
  %118 = extractvalue { ptr, i32 } %117, 0
  %119 = extractvalue { ptr, i32 } %117, 1
  br label %352

120:                                              ; preds = %56
  %121 = landingpad { ptr, i32 }
          cleanup
  %122 = extractvalue { ptr, i32 } %121, 0
  %123 = extractvalue { ptr, i32 } %121, 1
  br label %346

124:                                              ; preds = %63
  %125 = landingpad { ptr, i32 }
          cleanup
  %126 = extractvalue { ptr, i32 } %125, 0
  %127 = extractvalue { ptr, i32 } %125, 1
  br label %340

128:                                              ; preds = %65
  %129 = landingpad { ptr, i32 }
          cleanup
  %130 = extractvalue { ptr, i32 } %129, 0
  %131 = extractvalue { ptr, i32 } %129, 1
  br label %334

132:                                              ; preds = %67
  %133 = landingpad { ptr, i32 }
          cleanup
  %134 = extractvalue { ptr, i32 } %133, 0
  %135 = extractvalue { ptr, i32 } %133, 1
  br label %328

136:                                              ; preds = %95, %194, %161
  %137 = landingpad { ptr, i32 }
          cleanup
  %138 = extractvalue { ptr, i32 } %137, 0
  %139 = extractvalue { ptr, i32 } %137, 1
  br label %313

140:                                              ; preds = %102, %103, %69
  %141 = load ptr, ptr %19, align 8, !tbaa !109
  %142 = icmp eq ptr %141, null
  br i1 %142, label %186, label %143

143:                                              ; preds = %140
  invoke void @_ZN10xalanc_1_817XalanOutputStream17setOutputEncodingERKNS_14XalanDOMStringE(ptr noundef nonnull align 8 dereferenceable(120) %141, ptr noundef nonnull align 8 dereferenceable(28) %41)
          to label %161 unwind label %144

144:                                              ; preds = %143
  %145 = landingpad { ptr, i32 }
          cleanup
          catch ptr @_ZTIN10xalanc_1_817XalanOutputStream28UnsupportedEncodingExceptionE
  %146 = extractvalue { ptr, i32 } %145, 0
  %147 = extractvalue { ptr, i32 } %145, 1
  %148 = tail call i32 @llvm.eh.typeid.for(ptr nonnull @_ZTIN10xalanc_1_817XalanOutputStream28UnsupportedEncodingExceptionE) #17
  %149 = icmp eq i32 %147, %148
  br i1 %149, label %150, label %313

150:                                              ; preds = %144
  %151 = tail call ptr @__cxa_begin_catch(ptr %146) #17
  %152 = load ptr, ptr %19, align 8, !tbaa !109
  call void @llvm.lifetime.start.p0(i64 32, ptr nonnull %16) #17
  invoke void @_ZN10xalanc_1_814XalanDOMStringC1EPKtj(ptr noundef nonnull align 8 dereferenceable(28) %16, ptr noundef nonnull @_ZN10xalanc_1_824XalanTranscodingServices12s_utf8StringE, i32 noundef -1)
          to label %153 unwind label %167

153:                                              ; preds = %150
  invoke void @_ZN10xalanc_1_817XalanOutputStream17setOutputEncodingERKNS_14XalanDOMStringE(ptr noundef nonnull align 8 dereferenceable(120) %152, ptr noundef nonnull align 8 dereferenceable(28) %16)
          to label %154 unwind label %169

154:                                              ; preds = %153
  %155 = load ptr, ptr %16, align 8, !tbaa !127
  %156 = icmp eq ptr %155, null
  br i1 %156, label %158, label %157

157:                                              ; preds = %154
  call void @_ZdlPv(ptr noundef nonnull %155) #17
  br label %158

158:                                              ; preds = %157, %154
  call void @llvm.lifetime.end.p0(i64 32, ptr nonnull %16) #17
  %159 = invoke noundef nonnull align 8 dereferenceable(28) ptr @_ZN10xalanc_1_814XalanDOMStringaSEPKt(ptr noundef nonnull align 8 dereferenceable(28) %41, ptr noundef nonnull @_ZN10xalanc_1_824XalanTranscodingServices12s_utf8StringE)
          to label %160 unwind label %176

160:                                              ; preds = %158
  invoke void @__cxa_end_catch()
          to label %161 unwind label %178

161:                                              ; preds = %160, %143
  %162 = load ptr, ptr %19, align 8, !tbaa !109
  %163 = load ptr, ptr %162, align 8, !tbaa !81
  %164 = getelementptr inbounds ptr, ptr %163, i64 3
  %165 = load ptr, ptr %164, align 8
  %166 = invoke noundef ptr %165(ptr noundef nonnull align 8 dereferenceable(120) %162)
          to label %186 unwind label %136

167:                                              ; preds = %150
  %168 = landingpad { ptr, i32 }
          cleanup
  br label %174

169:                                              ; preds = %153
  %170 = landingpad { ptr, i32 }
          cleanup
  %171 = load ptr, ptr %16, align 8, !tbaa !127
  %172 = icmp eq ptr %171, null
  br i1 %172, label %174, label %173

173:                                              ; preds = %169
  call void @_ZdlPv(ptr noundef nonnull %171) #17
  br label %174

174:                                              ; preds = %173, %169, %167
  %175 = phi { ptr, i32 } [ %168, %167 ], [ %170, %169 ], [ %170, %173 ]
  call void @llvm.lifetime.end.p0(i64 32, ptr nonnull %16) #17
  br label %180

176:                                              ; preds = %158
  %177 = landingpad { ptr, i32 }
          cleanup
  br label %180

178:                                              ; preds = %160
  %179 = landingpad { ptr, i32 }
          cleanup
  br label %182

180:                                              ; preds = %176, %174
  %181 = phi { ptr, i32 } [ %177, %176 ], [ %175, %174 ]
  invoke void @__cxa_end_catch()
          to label %182 unwind label %377

182:                                              ; preds = %180, %178
  %183 = phi { ptr, i32 } [ %179, %178 ], [ %181, %180 ]
  %184 = extractvalue { ptr, i32 } %183, 0
  %185 = extractvalue { ptr, i32 } %183, 1
  br label %313

186:                                              ; preds = %161, %140
  %187 = phi ptr [ @_ZN10xalanc_1_817XalanOutputStream10s_nlStringE, %140 ], [ %166, %161 ]
  %188 = getelementptr inbounds %"class.xalanc_1_8::FormatterToXML", ptr %0, i64 0, i32 49
  store ptr %187, ptr %188, align 8, !tbaa !128
  br label %189

189:                                              ; preds = %189, %186
  %190 = phi ptr [ %187, %186 ], [ %193, %189 ]
  %191 = load i16, ptr %190, align 2, !tbaa !129
  %192 = icmp eq i16 %191, 0
  %193 = getelementptr inbounds i16, ptr %190, i64 1
  br i1 %192, label %194, label %189

194:                                              ; preds = %189
  %195 = ptrtoint ptr %190 to i64
  %196 = ptrtoint ptr %187 to i64
  %197 = sub i64 %195, %196
  %198 = lshr exact i64 %197, 1
  %199 = trunc i64 %198 to i32
  %200 = getelementptr inbounds %"class.xalanc_1_8::FormatterToXML", ptr %0, i64 0, i32 50
  store i32 %199, ptr %200, align 8, !tbaa !130
  %201 = invoke noundef zeroext i16 @_ZN10xalanc_1_824XalanTranscodingServices24getMaximumCharacterValueERKNS_14XalanDOMStringE(ptr noundef nonnull align 8 dereferenceable(28) %41)
          to label %202 unwind label %136

202:                                              ; preds = %194
  store i16 %201, ptr %27, align 8, !tbaa !131
  %203 = invoke noundef zeroext i1 @_ZN10xalanc_1_824XalanTranscodingServices14encodingIsUTF8ERKNS_14XalanDOMStringE(ptr noundef nonnull align 8 dereferenceable(28) %41)
          to label %204 unwind label %218

204:                                              ; preds = %202
  br i1 %203, label %208, label %205

205:                                              ; preds = %204
  %206 = invoke noundef zeroext i1 @_ZN10xalanc_1_824XalanTranscodingServices15encodingIsUTF16ERKNS_14XalanDOMStringE(ptr noundef nonnull align 8 dereferenceable(28) %41)
          to label %207 unwind label %218

207:                                              ; preds = %205
  br i1 %206, label %208, label %212

208:                                              ; preds = %204, %207
  %209 = getelementptr inbounds %"class.xalanc_1_8::FormatterToXML", ptr %0, i64 0, i32 32, i32 1
  %210 = load i32, ptr %209, align 8, !tbaa !115
  %211 = icmp eq i32 %210, 0
  br label %212

212:                                              ; preds = %208, %207
  %213 = phi i1 [ false, %207 ], [ %211, %208 ]
  %214 = load i8, ptr %30, align 2, !range !132
  %215 = icmp ne i8 %214, 0
  %216 = select i1 %213, i1 true, i1 %215
  br i1 %216, label %222, label %217

217:                                              ; preds = %212
  store i8 1, ptr %30, align 2, !tbaa !110
  br label %222

218:                                              ; preds = %256, %237, %223, %205, %202
  %219 = landingpad { ptr, i32 }
          cleanup
  %220 = extractvalue { ptr, i32 } %219, 0
  %221 = extractvalue { ptr, i32 } %219, 1
  br label %313

222:                                              ; preds = %217, %212
  br i1 %213, label %227, label %223

223:                                              ; preds = %222
  %224 = invoke noundef zeroext i1 @_ZN10xalanc_1_824XalanTranscodingServices15encodingIsUTF32ERKNS_14XalanDOMStringE(ptr noundef nonnull align 8 dereferenceable(28) %41)
          to label %225 unwind label %218

225:                                              ; preds = %223
  %226 = zext i1 %224 to i8
  store i8 %226, ptr %36, align 1, !tbaa !133
  br i1 %224, label %228, label %247

227:                                              ; preds = %222
  store i8 1, ptr %36, align 1, !tbaa !133
  br label %228

228:                                              ; preds = %227, %225
  br i1 %12, label %229, label %266

229:                                              ; preds = %228
  call void @llvm.lifetime.start.p0(i64 2, ptr nonnull %15)
  store i16 0, ptr %15, align 2, !tbaa !129
  %230 = getelementptr inbounds %"class.xalanc_1_8::FormatterToXML", ptr %0, i64 0, i32 35, i32 0, i32 0, i32 0, i32 1
  %231 = load ptr, ptr %230, align 8, !tbaa !126
  %232 = load ptr, ptr %70, align 8, !tbaa !127
  %233 = ptrtoint ptr %231 to i64
  %234 = ptrtoint ptr %232 to i64
  %235 = sub i64 %233, %234
  %236 = icmp ult i64 %235, 1024
  br i1 %236, label %237, label %240

237:                                              ; preds = %229
  %238 = lshr exact i64 %235, 1
  %239 = sub nuw nsw i64 512, %238
  invoke void @_ZNSt6vectorItSaItEE14_M_fill_insertEN9__gnu_cxx17__normal_iteratorIPtS1_EEmRKt(ptr noundef nonnull align 8 dereferenceable(24) %70, ptr %231, i64 noundef %239, ptr noundef nonnull align 2 dereferenceable(2) %15)
          to label %246 unwind label %218

240:                                              ; preds = %229
  %241 = icmp eq i64 %235, 1024
  br i1 %241, label %246, label %242

242:                                              ; preds = %240
  %243 = getelementptr inbounds i16, ptr %232, i64 512
  %244 = icmp eq ptr %231, %243
  br i1 %244, label %246, label %245

245:                                              ; preds = %242
  store ptr %243, ptr %230, align 8, !tbaa !134
  br label %246

246:                                              ; preds = %245, %242, %240, %237
  call void @llvm.lifetime.end.p0(i64 2, ptr nonnull %15)
  br label %266

247:                                              ; preds = %225
  br i1 %12, label %248, label %266

248:                                              ; preds = %247
  call void @llvm.lifetime.start.p0(i64 2, ptr nonnull %14)
  store i16 0, ptr %14, align 2, !tbaa !129
  %249 = getelementptr inbounds %"class.xalanc_1_8::FormatterToXML", ptr %0, i64 0, i32 35, i32 0, i32 0, i32 0, i32 1
  %250 = load ptr, ptr %249, align 8, !tbaa !126
  %251 = load ptr, ptr %70, align 8, !tbaa !127
  %252 = ptrtoint ptr %250 to i64
  %253 = ptrtoint ptr %251 to i64
  %254 = sub i64 %252, %253
  %255 = icmp ult i64 %254, 1024
  br i1 %255, label %256, label %259

256:                                              ; preds = %248
  %257 = lshr exact i64 %254, 1
  %258 = sub nuw nsw i64 512, %257
  invoke void @_ZNSt6vectorItSaItEE14_M_fill_insertEN9__gnu_cxx17__normal_iteratorIPtS1_EEmRKt(ptr noundef nonnull align 8 dereferenceable(24) %70, ptr %250, i64 noundef %258, ptr noundef nonnull align 2 dereferenceable(2) %14)
          to label %265 unwind label %218

259:                                              ; preds = %248
  %260 = icmp eq i64 %254, 1024
  br i1 %260, label %265, label %261

261:                                              ; preds = %259
  %262 = getelementptr inbounds i16, ptr %251, i64 512
  %263 = icmp eq ptr %250, %262
  br i1 %263, label %265, label %264

264:                                              ; preds = %261
  store ptr %262, ptr %249, align 8, !tbaa !134
  br label %265

265:                                              ; preds = %264, %261, %259, %256
  call void @llvm.lifetime.end.p0(i64 2, ptr nonnull %14)
  br label %266

266:                                              ; preds = %265, %247, %228, %246
  %267 = phi i64 [ ptrtoint (ptr @_ZN10xalanc_1_814FormatterToXML12accumCharUTFEt to i64), %246 ], [ ptrtoint (ptr @_ZN10xalanc_1_814FormatterToXML18accumCharUTFDirectEt to i64), %228 ], [ ptrtoint (ptr @_ZN10xalanc_1_814FormatterToXML15accumNameAsCharEt to i64), %265 ], [ ptrtoint (ptr @_ZN10xalanc_1_814FormatterToXML21accumNameAsCharDirectEt to i64), %247 ]
  %268 = phi i64 [ ptrtoint (ptr @_ZN10xalanc_1_814FormatterToXML12accumCharUTFEt to i64), %246 ], [ ptrtoint (ptr @_ZN10xalanc_1_814FormatterToXML18accumCharUTFDirectEt to i64), %228 ], [ ptrtoint (ptr @_ZN10xalanc_1_814FormatterToXML18accumContentAsCharEt to i64), %265 ], [ ptrtoint (ptr @_ZN10xalanc_1_814FormatterToXML24accumContentAsCharDirectEt to i64), %247 ]
  %269 = phi i64 [ ptrtoint (ptr @_ZN10xalanc_1_814FormatterToXML14accumStringUTFEPKt to i64), %246 ], [ ptrtoint (ptr @_ZN10xalanc_1_814FormatterToXML20accumStringUTFDirectEPKt to i64), %228 ], [ ptrtoint (ptr @_ZN10xalanc_1_814FormatterToXML15accumNameStringEPKt to i64), %265 ], [ ptrtoint (ptr @_ZN10xalanc_1_814FormatterToXML15accumNameStringEPKt to i64), %247 ]
  %270 = phi i64 [ ptrtoint (ptr @_ZN10xalanc_1_814FormatterToXML14accumStringUTFEPKt to i64), %246 ], [ ptrtoint (ptr @_ZN10xalanc_1_814FormatterToXML20accumStringUTFDirectEPKt to i64), %228 ], [ ptrtoint (ptr @_ZN10xalanc_1_814FormatterToXML18accumContentStringEPKt to i64), %265 ], [ ptrtoint (ptr @_ZN10xalanc_1_814FormatterToXML18accumContentStringEPKt to i64), %247 ]
  %271 = phi i64 [ ptrtoint (ptr @_ZN10xalanc_1_814FormatterToXML17accumDOMStringUTFERKNS_14XalanDOMStringE to i64), %246 ], [ ptrtoint (ptr @_ZN10xalanc_1_814FormatterToXML23accumDOMStringUTFDirectERKNS_14XalanDOMStringE to i64), %228 ], [ ptrtoint (ptr @_ZN10xalanc_1_814FormatterToXML18accumNameDOMStringERKNS_14XalanDOMStringE to i64), %265 ], [ ptrtoint (ptr @_ZN10xalanc_1_814FormatterToXML18accumNameDOMStringERKNS_14XalanDOMStringE to i64), %247 ]
  %272 = phi i64 [ ptrtoint (ptr @_ZN10xalanc_1_814FormatterToXML17accumDOMStringUTFERKNS_14XalanDOMStringE to i64), %246 ], [ ptrtoint (ptr @_ZN10xalanc_1_814FormatterToXML23accumDOMStringUTFDirectERKNS_14XalanDOMStringE to i64), %228 ], [ ptrtoint (ptr @_ZN10xalanc_1_814FormatterToXML21accumContentDOMStringERKNS_14XalanDOMStringE to i64), %265 ], [ ptrtoint (ptr @_ZN10xalanc_1_814FormatterToXML21accumContentDOMStringERKNS_14XalanDOMStringE to i64), %247 ]
  %273 = phi i64 [ ptrtoint (ptr @_ZN10xalanc_1_814FormatterToXML13accumArrayUTFEPKtjj to i64), %246 ], [ ptrtoint (ptr @_ZN10xalanc_1_814FormatterToXML19accumArrayUTFDirectEPKtjj to i64), %228 ], [ ptrtoint (ptr @_ZN10xalanc_1_814FormatterToXML14accumNameArrayEPKtjj to i64), %265 ], [ ptrtoint (ptr @_ZN10xalanc_1_814FormatterToXML14accumNameArrayEPKtjj to i64), %247 ]
  %274 = phi i64 [ ptrtoint (ptr @_ZN10xalanc_1_814FormatterToXML13accumArrayUTFEPKtjj to i64), %246 ], [ ptrtoint (ptr @_ZN10xalanc_1_814FormatterToXML19accumArrayUTFDirectEPKtjj to i64), %228 ], [ ptrtoint (ptr @_ZN10xalanc_1_814FormatterToXML17accumContentArrayEPKtjj to i64), %265 ], [ ptrtoint (ptr @_ZN10xalanc_1_814FormatterToXML17accumContentArrayEPKtjj to i64), %247 ]
  store i64 %267, ptr %76, align 8, !tbaa !135
  store i64 0, ptr %77, align 8, !tbaa !135
  store i64 %268, ptr %84, align 8, !tbaa !136
  store i64 0, ptr %85, align 8, !tbaa !136
  store i64 %269, ptr %78, align 8, !tbaa !137
  store i64 0, ptr %79, align 8, !tbaa !137
  store i64 %270, ptr %86, align 8, !tbaa !138
  store i64 0, ptr %87, align 8, !tbaa !138
  store i64 %271, ptr %80, align 8, !tbaa !139
  store i64 0, ptr %81, align 8, !tbaa !139
  store i64 %272, ptr %88, align 8, !tbaa !140
  store i64 0, ptr %89, align 8, !tbaa !140
  store i64 %273, ptr %82, align 8, !tbaa !141
  store i64 0, ptr %83, align 8, !tbaa !141
  store i64 %274, ptr %90, align 8, !tbaa !142
  store i64 0, ptr %91, align 8, !tbaa !142
  %275 = getelementptr inbounds %"class.xalanc_1_8::FormatterToXML", ptr %0, i64 0, i32 48
  store i64 ptrtoint (ptr @_ZN10xalanc_1_814FormatterToXML10flushCharsEv to i64), ptr %275, align 8, !tbaa !143
  %276 = getelementptr inbounds %"class.xalanc_1_8::FormatterToXML", ptr %0, i64 0, i32 48, i32 1
  store i64 0, ptr %276, align 8, !tbaa !143
  call void @llvm.memset.p0.i64(ptr noundef nonnull align 2 dereferenceable(512) %28, i8 0, i64 512, i1 false)
  %277 = getelementptr inbounds %"class.xalanc_1_8::FormatterToXML", ptr %0, i64 0, i32 34, i32 1
  %278 = load i32, ptr %277, align 8, !tbaa !115
  %279 = icmp eq i32 %278, 0
  br i1 %279, label %291, label %280

280:                                              ; preds = %266
  %281 = load ptr, ptr %68, align 8, !tbaa !127
  %282 = zext i32 %278 to i64
  br label %283

283:                                              ; preds = %283, %280
  %284 = phi i64 [ 0, %280 ], [ %289, %283 ]
  %285 = getelementptr inbounds i16, ptr %281, i64 %284
  %286 = load i16, ptr %285, align 2, !tbaa !129
  %287 = zext i16 %286 to i64
  %288 = getelementptr inbounds %"class.xalanc_1_8::FormatterToXML", ptr %0, i64 0, i32 5, i64 %287
  store i16 83, ptr %288, align 2, !tbaa !129
  %289 = add nuw nsw i64 %284, 1
  %290 = icmp eq i64 %289, %282
  br i1 %290, label %291, label %283

291:                                              ; preds = %283, %266
  %292 = getelementptr inbounds %"class.xalanc_1_8::FormatterToXML", ptr %0, i64 0, i32 5, i64 9
  store i16 83, ptr %292, align 4, !tbaa !129
  %293 = getelementptr inbounds %"class.xalanc_1_8::FormatterToXML", ptr %0, i64 0, i32 5, i64 10
  store i16 83, ptr %293, align 2, !tbaa !129
  %294 = getelementptr inbounds %"class.xalanc_1_8::FormatterToXML", ptr %0, i64 0, i32 5, i64 13
  store i16 83, ptr %294, align 4, !tbaa !129
  %295 = getelementptr inbounds %"class.xalanc_1_8::FormatterToXML", ptr %0, i64 0, i32 6, i64 11
  call void @llvm.memset.p0.i64(ptr noundef nonnull align 8 dereferenceable(512) %295, i8 0, i64 490, i1 false)
  %296 = getelementptr inbounds %"class.xalanc_1_8::FormatterToXML", ptr %0, i64 0, i32 6, i64 10
  %297 = getelementptr inbounds %"class.xalanc_1_8::FormatterToXML", ptr %0, i64 0, i32 6, i64 60
  store i16 83, ptr %297, align 2, !tbaa !129
  %298 = getelementptr inbounds %"class.xalanc_1_8::FormatterToXML", ptr %0, i64 0, i32 6, i64 62
  store i16 83, ptr %298, align 2, !tbaa !129
  %299 = getelementptr inbounds %"class.xalanc_1_8::FormatterToXML", ptr %0, i64 0, i32 6, i64 38
  store i16 83, ptr %299, align 2, !tbaa !129
  call void @llvm.memset.p0.i64(ptr noundef nonnull align 2 dereferenceable(20) %29, i8 83, i64 18, i1 false)
  store i16 83, ptr %296, align 2, !tbaa !129
  %300 = getelementptr inbounds %"class.xalanc_1_8::FormatterToXML", ptr %0, i64 0, i32 6, i64 13
  store i16 83, ptr %300, align 4, !tbaa !129
  %301 = getelementptr inbounds %"class.xalanc_1_8::FormatterToXML", ptr %0, i64 0, i32 6, i64 9
  store i16 0, ptr %301, align 4, !tbaa !129
  %302 = load i16, ptr %27, align 8, !tbaa !131
  %303 = icmp ult i16 %302, 256
  br i1 %303, label %304, label %312

304:                                              ; preds = %291
  %305 = zext i16 %302 to i64
  br label %306

306:                                              ; preds = %306, %304
  %307 = phi i64 [ %305, %304 ], [ %309, %306 ]
  %308 = getelementptr inbounds %"class.xalanc_1_8::FormatterToXML", ptr %0, i64 0, i32 6, i64 %307
  store i16 83, ptr %308, align 2, !tbaa !129
  %309 = add nuw nsw i64 %307, 1
  %310 = and i64 %309, 65535
  %311 = icmp eq i64 %310, 256
  br i1 %311, label %312, label %306

312:                                              ; preds = %306, %291
  ret void

313:                                              ; preds = %218, %182, %144, %136
  %314 = phi i32 [ %221, %218 ], [ %139, %136 ], [ %185, %182 ], [ %147, %144 ]
  %315 = phi ptr [ %220, %218 ], [ %138, %136 ], [ %184, %182 ], [ %146, %144 ]
  invoke void @_ZNSt13_Bvector_baseISaIbEED2Ev(ptr noundef nonnull align 8 dereferenceable(40) %72)
          to label %316 unwind label %377

316:                                              ; preds = %313
  %317 = load ptr, ptr %71, align 8, !tbaa !144
  %318 = icmp eq ptr %317, null
  br i1 %318, label %320, label %319

319:                                              ; preds = %316
  call void @_ZdlPv(ptr noundef nonnull %317) #17
  br label %320

320:                                              ; preds = %319, %316
  %321 = load ptr, ptr %70, align 8, !tbaa !127
  %322 = icmp eq ptr %321, null
  br i1 %322, label %324, label %323

323:                                              ; preds = %320
  call void @_ZdlPv(ptr noundef nonnull %321) #17
  br label %324

324:                                              ; preds = %323, %320
  %325 = load ptr, ptr %68, align 8, !tbaa !127
  %326 = icmp eq ptr %325, null
  br i1 %326, label %328, label %327

327:                                              ; preds = %324
  call void @_ZdlPv(ptr noundef nonnull %325) #17
  br label %328

328:                                              ; preds = %327, %324, %132
  %329 = phi i32 [ %135, %132 ], [ %314, %324 ], [ %314, %327 ]
  %330 = phi ptr [ %134, %132 ], [ %315, %324 ], [ %315, %327 ]
  %331 = load ptr, ptr %66, align 8, !tbaa !127
  %332 = icmp eq ptr %331, null
  br i1 %332, label %334, label %333

333:                                              ; preds = %328
  call void @_ZdlPv(ptr noundef nonnull %331) #17
  br label %334

334:                                              ; preds = %333, %328, %128
  %335 = phi i32 [ %131, %128 ], [ %329, %328 ], [ %329, %333 ]
  %336 = phi ptr [ %130, %128 ], [ %330, %328 ], [ %330, %333 ]
  %337 = load ptr, ptr %64, align 8, !tbaa !127
  %338 = icmp eq ptr %337, null
  br i1 %338, label %340, label %339

339:                                              ; preds = %334
  call void @_ZdlPv(ptr noundef nonnull %337) #17
  br label %340

340:                                              ; preds = %339, %334, %124
  %341 = phi i32 [ %127, %124 ], [ %335, %334 ], [ %335, %339 ]
  %342 = phi ptr [ %126, %124 ], [ %336, %334 ], [ %336, %339 ]
  %343 = load ptr, ptr %62, align 8, !tbaa !127
  %344 = icmp eq ptr %343, null
  br i1 %344, label %346, label %345

345:                                              ; preds = %340
  call void @_ZdlPv(ptr noundef nonnull %343) #17
  br label %346

346:                                              ; preds = %345, %340, %120
  %347 = phi i32 [ %123, %120 ], [ %341, %340 ], [ %341, %345 ]
  %348 = phi ptr [ %122, %120 ], [ %342, %340 ], [ %342, %345 ]
  %349 = load ptr, ptr %55, align 8, !tbaa !127
  %350 = icmp eq ptr %349, null
  br i1 %350, label %352, label %351

351:                                              ; preds = %346
  call void @_ZdlPv(ptr noundef nonnull %349) #17
  br label %352

352:                                              ; preds = %351, %346, %116
  %353 = phi i32 [ %119, %116 ], [ %347, %346 ], [ %347, %351 ]
  %354 = phi ptr [ %118, %116 ], [ %348, %346 ], [ %348, %351 ]
  invoke void @_ZNSt13_Bvector_baseISaIbEED2Ev(ptr noundef nonnull align 8 dereferenceable(40) %50)
          to label %355 unwind label %377

355:                                              ; preds = %352
  %356 = load ptr, ptr %41, align 8, !tbaa !127
  %357 = icmp eq ptr %356, null
  br i1 %357, label %359, label %358

358:                                              ; preds = %355
  call void @_ZdlPv(ptr noundef nonnull %356) #17
  br label %359

359:                                              ; preds = %358, %355, %112
  %360 = phi i32 [ %115, %112 ], [ %353, %355 ], [ %353, %358 ]
  %361 = phi ptr [ %114, %112 ], [ %354, %355 ], [ %354, %358 ]
  %362 = load ptr, ptr %39, align 8, !tbaa !127
  %363 = icmp eq ptr %362, null
  br i1 %363, label %365, label %364

364:                                              ; preds = %359
  call void @_ZdlPv(ptr noundef nonnull %362) #17
  br label %365

365:                                              ; preds = %364, %359, %108
  %366 = phi i32 [ %111, %108 ], [ %360, %359 ], [ %360, %364 ]
  %367 = phi ptr [ %110, %108 ], [ %361, %359 ], [ %361, %364 ]
  %368 = load ptr, ptr %37, align 8, !tbaa !127
  %369 = icmp eq ptr %368, null
  br i1 %369, label %371, label %370

370:                                              ; preds = %365
  call void @_ZdlPv(ptr noundef nonnull %368) #17
  br label %371

371:                                              ; preds = %370, %365, %104
  %372 = phi i32 [ %107, %104 ], [ %366, %365 ], [ %366, %370 ]
  %373 = phi ptr [ %106, %104 ], [ %367, %365 ], [ %367, %370 ]
  invoke void @_ZN10xalanc_1_817FormatterListenerD2Ev(ptr noundef nonnull align 8 dereferenceable(20) %0)
          to label %374 unwind label %377

374:                                              ; preds = %371
  %375 = insertvalue { ptr, i32 } poison, ptr %373, 0
  %376 = insertvalue { ptr, i32 } %375, i32 %372, 1
  resume { ptr, i32 } %376

377:                                              ; preds = %371, %352, %313, %180
  %378 = landingpad { ptr, i32 }
          catch ptr null
  %379 = extractvalue { ptr, i32 } %378, 0
  call void @__clang_call_terminate(ptr %379) #18
  unreachable
}

declare void @_ZN10xalanc_1_817FormatterListenerC2ENS0_7eFormatE(ptr noundef nonnull align 8 dereferenceable(20), i32 noundef) unnamed_addr #2

; Function Attrs: mustprogress nocallback nofree nounwind willreturn memory(argmem: write)
declare void @llvm.memset.p0.i64(ptr nocapture writeonly, i8, i64, i1 immarg) #3

declare void @_ZN10xalanc_1_814XalanDOMStringC1ERKS0_jj(ptr noundef nonnull align 8 dereferenceable(28), ptr noundef nonnull align 8 dereferenceable(28), i32 noundef, i32 noundef) unnamed_addr #2

declare void @_ZN10xalanc_1_814XalanDOMStringC1EPKtj(ptr noundef nonnull align 8 dereferenceable(28), ptr noundef, i32 noundef) unnamed_addr #2

declare void @_ZN10xalanc_1_814XalanDOMStringC1Ev(ptr noundef nonnull align 8 dereferenceable(28)) unnamed_addr #2

declare void @_ZN10xalanc_1_817XalanOutputStream17setOutputEncodingERKNS_14XalanDOMStringE(ptr noundef nonnull align 8 dereferenceable(120), ptr noundef nonnull align 8 dereferenceable(28)) local_unnamed_addr #2

; Function Attrs: nofree nosync nounwind memory(none)
declare i32 @llvm.eh.typeid.for(ptr) #4

; Function Attrs: mustprogress nocallback nofree nosync nounwind willreturn memory(argmem: readwrite)
declare void @llvm.lifetime.start.p0(i64 immarg, ptr nocapture) #5

declare ptr @__cxa_begin_catch(ptr) local_unnamed_addr

; Function Attrs: noinline noreturn nounwind uwtable
define linkonce_odr hidden void @__clang_call_terminate(ptr noundef %0) local_unnamed_addr #6 comdat {
  %2 = tail call ptr @__cxa_begin_catch(ptr %0) #17
  tail call void @_ZSt9terminatev() #18
  unreachable
}

declare void @_ZSt9terminatev() local_unnamed_addr

; Function Attrs: mustprogress nocallback nofree nosync nounwind willreturn memory(argmem: readwrite)
declare void @llvm.lifetime.end.p0(i64 immarg, ptr nocapture) #5

; Function Attrs: uwtable
define linkonce_odr dso_local noundef nonnull align 8 dereferenceable(28) ptr @_ZN10xalanc_1_814XalanDOMStringaSEPKt(ptr noundef nonnull align 8 dereferenceable(28) %0, ptr noundef %1) local_unnamed_addr #1 comdat align 2 {
  tail call void @_ZN10xalanc_1_814XalanDOMString5eraseEjj(ptr noundef nonnull align 8 dereferenceable(28) %0, i32 noundef 0, i32 noundef -1)
  %3 = tail call noundef i32 @_ZN10xalanc_1_814XalanDOMString6lengthEPKt(ptr noundef %1)
  %4 = tail call noundef nonnull align 8 dereferenceable(28) ptr @_ZN10xalanc_1_814XalanDOMString6appendEPKtj(ptr noundef nonnull align 8 dereferenceable(28) %0, ptr noundef %1, i32 noundef %3)
  ret ptr %4
}

declare void @__cxa_end_catch() local_unnamed_addr

declare noundef zeroext i16 @_ZN10xalanc_1_824XalanTranscodingServices24getMaximumCharacterValueERKNS_14XalanDOMStringE(ptr noundef nonnull align 8 dereferenceable(28)) local_unnamed_addr #2

declare noundef zeroext i1 @_ZN10xalanc_1_824XalanTranscodingServices14encodingIsUTF8ERKNS_14XalanDOMStringE(ptr noundef nonnull align 8 dereferenceable(28)) local_unnamed_addr #2

declare noundef zeroext i1 @_ZN10xalanc_1_824XalanTranscodingServices15encodingIsUTF16ERKNS_14XalanDOMStringE(ptr noundef nonnull align 8 dereferenceable(28)) local_unnamed_addr #2

declare noundef zeroext i1 @_ZN10xalanc_1_824XalanTranscodingServices15encodingIsUTF32ERKNS_14XalanDOMStringE(ptr noundef nonnull align 8 dereferenceable(28)) local_unnamed_addr #2

; Function Attrs: uwtable
define dso_local void @_ZN10xalanc_1_814FormatterToXML18accumCharUTFDirectEt(ptr nocapture noundef nonnull readonly align 8 dereferenceable(1644) %0, i16 noundef zeroext %1) #1 align 2 {
  %3 = getelementptr inbounds %"class.xalanc_1_8::FormatterToXML", ptr %0, i64 0, i32 3
  %4 = load ptr, ptr %3, align 8, !tbaa !109
  tail call void @_ZN10xalanc_1_817XalanOutputStream5writeEt(ptr noundef nonnull align 8 dereferenceable(120) %4, i16 noundef zeroext %1)
  ret void
}

; Function Attrs: uwtable
define dso_local void @_ZN10xalanc_1_814FormatterToXML20accumStringUTFDirectEPKt(ptr nocapture noundef nonnull readonly align 8 dereferenceable(1644) %0, ptr noundef %1) #1 align 2 {
  %3 = getelementptr inbounds %"class.xalanc_1_8::FormatterToXML", ptr %0, i64 0, i32 3
  %4 = load ptr, ptr %3, align 8, !tbaa !109
  br label %5

5:                                                ; preds = %5, %2
  %6 = phi ptr [ %1, %2 ], [ %9, %5 ]
  %7 = load i16, ptr %6, align 2, !tbaa !129
  %8 = icmp eq i16 %7, 0
  %9 = getelementptr inbounds i16, ptr %6, i64 1
  br i1 %8, label %10, label %5

10:                                               ; preds = %5
  %11 = ptrtoint ptr %6 to i64
  %12 = ptrtoint ptr %1 to i64
  %13 = sub i64 %11, %12
  %14 = lshr exact i64 %13, 1
  %15 = trunc i64 %14 to i32
  tail call void @_ZN10xalanc_1_817XalanOutputStream5writeEPKtj(ptr noundef nonnull align 8 dereferenceable(120) %4, ptr noundef %1, i32 noundef %15)
  ret void
}

; Function Attrs: uwtable
define dso_local void @_ZN10xalanc_1_814FormatterToXML23accumDOMStringUTFDirectERKNS_14XalanDOMStringE(ptr nocapture noundef nonnull readonly align 8 dereferenceable(1644) %0, ptr nocapture noundef nonnull readonly align 8 dereferenceable(28) %1) #1 align 2 {
  %3 = getelementptr inbounds %"class.xalanc_1_8::FormatterToXML", ptr %0, i64 0, i32 3
  %4 = load ptr, ptr %3, align 8, !tbaa !109
  %5 = load ptr, ptr %1, align 8, !tbaa !126
  %6 = getelementptr inbounds %"struct.std::_Vector_base<unsigned short, std::allocator<unsigned short> >::_Vector_impl_data", ptr %1, i64 0, i32 1
  %7 = load ptr, ptr %6, align 8, !tbaa !126
  %8 = icmp eq ptr %5, %7
  %9 = select i1 %8, ptr @_ZN10xalanc_1_814XalanDOMString7s_emptyE, ptr %5
  %10 = getelementptr inbounds %"class.xalanc_1_8::XalanDOMString", ptr %1, i64 0, i32 1
  %11 = load i32, ptr %10, align 8, !tbaa !115
  tail call void @_ZN10xalanc_1_817XalanOutputStream5writeEPKtj(ptr noundef nonnull align 8 dereferenceable(120) %4, ptr noundef %9, i32 noundef %11)
  ret void
}

; Function Attrs: uwtable
define dso_local void @_ZN10xalanc_1_814FormatterToXML19accumArrayUTFDirectEPKtjj(ptr nocapture noundef nonnull readonly align 8 dereferenceable(1644) %0, ptr noundef %1, i32 noundef %2, i32 noundef %3) #1 align 2 {
  %5 = getelementptr inbounds %"class.xalanc_1_8::FormatterToXML", ptr %0, i64 0, i32 3
  %6 = load ptr, ptr %5, align 8, !tbaa !109
  %7 = zext i32 %2 to i64
  %8 = getelementptr inbounds i16, ptr %1, i64 %7
  tail call void @_ZN10xalanc_1_817XalanOutputStream5writeEPKtj(ptr noundef nonnull align 8 dereferenceable(120) %6, ptr noundef %8, i32 noundef %3)
  ret void
}

; Function Attrs: uwtable
define dso_local void @_ZN10xalanc_1_814FormatterToXML12accumCharUTFEt(ptr nocapture noundef nonnull align 8 dereferenceable(1644) %0, i16 noundef zeroext %1) #1 align 2 {
  %3 = getelementptr inbounds %"class.xalanc_1_8::FormatterToXML", ptr %0, i64 0, i32 35
  %4 = getelementptr inbounds %"class.xalanc_1_8::FormatterToXML", ptr %0, i64 0, i32 36
  %5 = load i32, ptr %4, align 8, !tbaa !145
  %6 = add i32 %5, 1
  store i32 %6, ptr %4, align 8, !tbaa !145
  %7 = zext i32 %5 to i64
  %8 = load ptr, ptr %3, align 8, !tbaa !127
  %9 = getelementptr inbounds i16, ptr %8, i64 %7
  store i16 %1, ptr %9, align 2, !tbaa !129
  %10 = icmp eq i32 %6, 512
  br i1 %10, label %11, label %17

11:                                               ; preds = %2
  %12 = getelementptr inbounds %"class.xalanc_1_8::FormatterToXML", ptr %0, i64 0, i32 2
  %13 = load ptr, ptr %12, align 8, !tbaa !84
  %14 = load ptr, ptr %13, align 8, !tbaa !81
  %15 = getelementptr inbounds ptr, ptr %14, i64 7
  %16 = load ptr, ptr %15, align 8
  tail call void %16(ptr noundef nonnull align 8 dereferenceable(8) %13, ptr noundef nonnull %8, i32 noundef 0, i32 noundef 512)
  store i32 0, ptr %4, align 8, !tbaa !145
  br label %17

17:                                               ; preds = %11, %2
  ret void
}

; Function Attrs: uwtable
define dso_local void @_ZN10xalanc_1_814FormatterToXML14accumStringUTFEPKt(ptr nocapture noundef nonnull align 8 dereferenceable(1644) %0, ptr nocapture noundef readonly %1) #1 align 2 {
  %3 = load i16, ptr %1, align 2, !tbaa !129
  %4 = icmp eq i16 %3, 0
  br i1 %4, label %29, label %5

5:                                                ; preds = %2
  %6 = getelementptr inbounds %"class.xalanc_1_8::FormatterToXML", ptr %0, i64 0, i32 35
  %7 = getelementptr inbounds %"class.xalanc_1_8::FormatterToXML", ptr %0, i64 0, i32 36
  %8 = getelementptr inbounds %"class.xalanc_1_8::FormatterToXML", ptr %0, i64 0, i32 2
  %9 = load i32, ptr %7, align 8, !tbaa !145
  br label %10

10:                                               ; preds = %5, %24
  %11 = phi i32 [ %9, %5 ], [ %25, %24 ]
  %12 = phi i16 [ %3, %5 ], [ %27, %24 ]
  %13 = phi ptr [ %1, %5 ], [ %26, %24 ]
  %14 = add i32 %11, 1
  store i32 %14, ptr %7, align 8, !tbaa !145
  %15 = zext i32 %11 to i64
  %16 = load ptr, ptr %6, align 8, !tbaa !127
  %17 = getelementptr inbounds i16, ptr %16, i64 %15
  store i16 %12, ptr %17, align 2, !tbaa !129
  %18 = icmp eq i32 %14, 512
  br i1 %18, label %19, label %24

19:                                               ; preds = %10
  %20 = load ptr, ptr %8, align 8, !tbaa !84
  %21 = load ptr, ptr %20, align 8, !tbaa !81
  %22 = getelementptr inbounds ptr, ptr %21, i64 7
  %23 = load ptr, ptr %22, align 8
  tail call void %23(ptr noundef nonnull align 8 dereferenceable(8) %20, ptr noundef nonnull %16, i32 noundef 0, i32 noundef 512)
  store i32 0, ptr %7, align 8, !tbaa !145
  br label %24

24:                                               ; preds = %10, %19
  %25 = phi i32 [ %14, %10 ], [ 0, %19 ]
  %26 = getelementptr inbounds i16, ptr %13, i64 1
  %27 = load i16, ptr %26, align 2, !tbaa !129
  %28 = icmp eq i16 %27, 0
  br i1 %28, label %29, label %10

29:                                               ; preds = %24, %2
  ret void
}

; Function Attrs: uwtable
define dso_local void @_ZN10xalanc_1_814FormatterToXML17accumDOMStringUTFERKNS_14XalanDOMStringE(ptr nocapture noundef nonnull align 8 dereferenceable(1644) %0, ptr nocapture noundef nonnull readonly align 8 dereferenceable(28) %1) #1 align 2 {
  %3 = load ptr, ptr %1, align 8, !tbaa !126
  %4 = getelementptr inbounds %"struct.std::_Vector_base<unsigned short, std::allocator<unsigned short> >::_Vector_impl_data", ptr %1, i64 0, i32 1
  %5 = load ptr, ptr %4, align 8, !tbaa !126
  %6 = icmp eq ptr %3, %5
  %7 = select i1 %6, ptr @_ZN10xalanc_1_814XalanDOMString7s_emptyE, ptr %3
  %8 = getelementptr inbounds %"class.xalanc_1_8::XalanDOMString", ptr %1, i64 0, i32 1
  %9 = load i32, ptr %8, align 8, !tbaa !115
  %10 = icmp eq i32 %9, 0
  br i1 %10, label %36, label %11

11:                                               ; preds = %2
  %12 = getelementptr inbounds %"class.xalanc_1_8::FormatterToXML", ptr %0, i64 0, i32 35
  %13 = getelementptr inbounds %"class.xalanc_1_8::FormatterToXML", ptr %0, i64 0, i32 36
  %14 = getelementptr inbounds %"class.xalanc_1_8::FormatterToXML", ptr %0, i64 0, i32 2
  %15 = load i32, ptr %13, align 8, !tbaa !145
  %16 = zext i32 %9 to i64
  br label %17

17:                                               ; preds = %32, %11
  %18 = phi i32 [ %15, %11 ], [ %33, %32 ]
  %19 = phi i64 [ 0, %11 ], [ %34, %32 ]
  %20 = getelementptr inbounds i16, ptr %7, i64 %19
  %21 = load i16, ptr %20, align 2, !tbaa !129
  %22 = add i32 %18, 1
  store i32 %22, ptr %13, align 8, !tbaa !145
  %23 = zext i32 %18 to i64
  %24 = load ptr, ptr %12, align 8, !tbaa !127
  %25 = getelementptr inbounds i16, ptr %24, i64 %23
  store i16 %21, ptr %25, align 2, !tbaa !129
  %26 = icmp eq i32 %22, 512
  br i1 %26, label %27, label %32

27:                                               ; preds = %17
  %28 = load ptr, ptr %14, align 8, !tbaa !84
  %29 = load ptr, ptr %28, align 8, !tbaa !81
  %30 = getelementptr inbounds ptr, ptr %29, i64 7
  %31 = load ptr, ptr %30, align 8
  tail call void %31(ptr noundef nonnull align 8 dereferenceable(8) %28, ptr noundef nonnull %24, i32 noundef 0, i32 noundef 512)
  store i32 0, ptr %13, align 8, !tbaa !145
  br label %32

32:                                               ; preds = %27, %17
  %33 = phi i32 [ %22, %17 ], [ 0, %27 ]
  %34 = add nuw nsw i64 %19, 1
  %35 = icmp eq i64 %34, %16
  br i1 %35, label %36, label %17

36:                                               ; preds = %32, %2
  ret void
}

; Function Attrs: uwtable
define dso_local void @_ZN10xalanc_1_814FormatterToXML13accumArrayUTFEPKtjj(ptr nocapture noundef nonnull align 8 dereferenceable(1644) %0, ptr nocapture noundef readonly %1, i32 noundef %2, i32 noundef %3) #1 align 2 {
  %5 = add i32 %3, %2
  %6 = icmp ugt i32 %5, %2
  br i1 %6, label %7, label %13

7:                                                ; preds = %4
  %8 = getelementptr inbounds %"class.xalanc_1_8::FormatterToXML", ptr %0, i64 0, i32 35
  %9 = getelementptr inbounds %"class.xalanc_1_8::FormatterToXML", ptr %0, i64 0, i32 36
  %10 = getelementptr inbounds %"class.xalanc_1_8::FormatterToXML", ptr %0, i64 0, i32 2
  %11 = zext i32 %2 to i64
  %12 = load i32, ptr %9, align 8, !tbaa !145
  br label %14

13:                                               ; preds = %29, %4
  ret void

14:                                               ; preds = %7, %29
  %15 = phi i32 [ %12, %7 ], [ %30, %29 ]
  %16 = phi i64 [ %11, %7 ], [ %31, %29 ]
  %17 = getelementptr inbounds i16, ptr %1, i64 %16
  %18 = load i16, ptr %17, align 2, !tbaa !129
  %19 = add i32 %15, 1
  store i32 %19, ptr %9, align 8, !tbaa !145
  %20 = zext i32 %15 to i64
  %21 = load ptr, ptr %8, align 8, !tbaa !127
  %22 = getelementptr inbounds i16, ptr %21, i64 %20
  store i16 %18, ptr %22, align 2, !tbaa !129
  %23 = icmp eq i32 %19, 512
  br i1 %23, label %24, label %29

24:                                               ; preds = %14
  %25 = load ptr, ptr %10, align 8, !tbaa !84
  %26 = load ptr, ptr %25, align 8, !tbaa !81
  %27 = getelementptr inbounds ptr, ptr %26, i64 7
  %28 = load ptr, ptr %27, align 8
  tail call void %28(ptr noundef nonnull align 8 dereferenceable(8) %25, ptr noundef nonnull %21, i32 noundef 0, i32 noundef 512)
  store i32 0, ptr %9, align 8, !tbaa !145
  br label %29

29:                                               ; preds = %14, %24
  %30 = phi i32 [ %19, %14 ], [ 0, %24 ]
  %31 = add nuw nsw i64 %16, 1
  %32 = trunc i64 %31 to i32
  %33 = icmp eq i32 %5, %32
  br i1 %33, label %13, label %14
}

; Function Attrs: uwtable
define dso_local void @_ZN10xalanc_1_814FormatterToXML21accumNameAsCharDirectEt(ptr nocapture noundef nonnull readonly align 8 dereferenceable(1644) %0, i16 noundef zeroext %1) #1 align 2 {
  %3 = getelementptr inbounds %"class.xalanc_1_8::FormatterToXML", ptr %0, i64 0, i32 4
  %4 = load i16, ptr %3, align 8, !tbaa !131
  %5 = icmp ult i16 %4, %1
  %6 = getelementptr inbounds %"class.xalanc_1_8::FormatterToXML", ptr %0, i64 0, i32 3
  %7 = load ptr, ptr %6, align 8, !tbaa !109
  %8 = select i1 %5, i16 63, i16 %1
  tail call void @_ZN10xalanc_1_817XalanOutputStream5writeEt(ptr noundef nonnull align 8 dereferenceable(120) %7, i16 noundef zeroext %8)
  ret void
}

; Function Attrs: uwtable
define dso_local void @_ZN10xalanc_1_814FormatterToXML24accumContentAsCharDirectEt(ptr noundef nonnull align 8 dereferenceable(1644) %0, i16 noundef zeroext %1) #1 align 2 {
  %3 = getelementptr inbounds %"class.xalanc_1_8::FormatterToXML", ptr %0, i64 0, i32 4
  %4 = load i16, ptr %3, align 8, !tbaa !131
  %5 = icmp ult i16 %4, %1
  br i1 %5, label %6, label %8

6:                                                ; preds = %2
  %7 = zext i16 %1 to i64
  tail call void @_ZN10xalanc_1_814FormatterToXML28writeNumberedEntityReferenceEm(ptr noundef nonnull align 8 dereferenceable(1644) %0, i64 noundef %7)
  br label %11

8:                                                ; preds = %2
  %9 = getelementptr inbounds %"class.xalanc_1_8::FormatterToXML", ptr %0, i64 0, i32 3
  %10 = load ptr, ptr %9, align 8, !tbaa !109
  tail call void @_ZN10xalanc_1_817XalanOutputStream5writeEt(ptr noundef nonnull align 8 dereferenceable(120) %10, i16 noundef zeroext %1)
  br label %11

11:                                               ; preds = %8, %6
  ret void
}

; Function Attrs: uwtable
define dso_local void @_ZN10xalanc_1_814FormatterToXML15accumNameAsCharEt(ptr nocapture noundef nonnull align 8 dereferenceable(1644) %0, i16 noundef zeroext %1) #1 align 2 {
  %3 = getelementptr inbounds %"class.xalanc_1_8::FormatterToXML", ptr %0, i64 0, i32 4
  %4 = load i16, ptr %3, align 8, !tbaa !131
  %5 = icmp ult i16 %4, %1
  %6 = getelementptr inbounds %"class.xalanc_1_8::FormatterToXML", ptr %0, i64 0, i32 35
  %7 = getelementptr inbounds %"class.xalanc_1_8::FormatterToXML", ptr %0, i64 0, i32 36
  %8 = load i32, ptr %7, align 8, !tbaa !145
  %9 = add i32 %8, 1
  store i32 %9, ptr %7, align 8, !tbaa !145
  %10 = zext i32 %8 to i64
  %11 = load ptr, ptr %6, align 8, !tbaa !127
  %12 = getelementptr inbounds i16, ptr %11, i64 %10
  %13 = select i1 %5, i16 63, i16 %1
  store i16 %13, ptr %12, align 2, !tbaa !129
  %14 = icmp eq i32 %9, 512
  br i1 %14, label %15, label %22

15:                                               ; preds = %2
  %16 = getelementptr inbounds %"class.xalanc_1_8::FormatterToXML", ptr %0, i64 0, i32 36
  %17 = getelementptr inbounds %"class.xalanc_1_8::FormatterToXML", ptr %0, i64 0, i32 2
  %18 = load ptr, ptr %17, align 8, !tbaa !84
  %19 = load ptr, ptr %18, align 8, !tbaa !81
  %20 = getelementptr inbounds ptr, ptr %19, i64 7
  %21 = load ptr, ptr %20, align 8
  tail call void %21(ptr noundef nonnull align 8 dereferenceable(8) %18, ptr noundef nonnull %11, i32 noundef 0, i32 noundef 512)
  store i32 0, ptr %16, align 8, !tbaa !145
  br label %22

22:                                               ; preds = %15, %2
  ret void
}

; Function Attrs: uwtable
define dso_local void @_ZN10xalanc_1_814FormatterToXML18accumContentAsCharEt(ptr noundef nonnull align 8 dereferenceable(1644) %0, i16 noundef zeroext %1) #1 align 2 {
  %3 = getelementptr inbounds %"class.xalanc_1_8::FormatterToXML", ptr %0, i64 0, i32 4
  %4 = load i16, ptr %3, align 8, !tbaa !131
  %5 = icmp ult i16 %4, %1
  br i1 %5, label %6, label %10

6:                                                ; preds = %2
  %7 = zext i16 %1 to i64
  tail call void @_ZN10xalanc_1_814FormatterToXML28writeNumberedEntityReferenceEm(ptr noundef nonnull align 8 dereferenceable(1644) %0, i64 noundef %7)
  %8 = getelementptr inbounds %"class.xalanc_1_8::FormatterToXML", ptr %0, i64 0, i32 36
  %9 = load i32, ptr %8, align 8, !tbaa !145
  br label %18

10:                                               ; preds = %2
  %11 = getelementptr inbounds %"class.xalanc_1_8::FormatterToXML", ptr %0, i64 0, i32 35
  %12 = getelementptr inbounds %"class.xalanc_1_8::FormatterToXML", ptr %0, i64 0, i32 36
  %13 = load i32, ptr %12, align 8, !tbaa !145
  %14 = add i32 %13, 1
  store i32 %14, ptr %12, align 8, !tbaa !145
  %15 = zext i32 %13 to i64
  %16 = load ptr, ptr %11, align 8, !tbaa !127
  %17 = getelementptr inbounds i16, ptr %16, i64 %15
  store i16 %1, ptr %17, align 2, !tbaa !129
  br label %18

18:                                               ; preds = %10, %6
  %19 = phi i32 [ %14, %10 ], [ %9, %6 ]
  %20 = icmp eq i32 %19, 512
  br i1 %20, label %21, label %30

21:                                               ; preds = %18
  %22 = getelementptr inbounds %"class.xalanc_1_8::FormatterToXML", ptr %0, i64 0, i32 36
  %23 = getelementptr inbounds %"class.xalanc_1_8::FormatterToXML", ptr %0, i64 0, i32 2
  %24 = load ptr, ptr %23, align 8, !tbaa !84
  %25 = getelementptr inbounds %"class.xalanc_1_8::FormatterToXML", ptr %0, i64 0, i32 35
  %26 = load ptr, ptr %25, align 8, !tbaa !127
  %27 = load ptr, ptr %24, align 8, !tbaa !81
  %28 = getelementptr inbounds ptr, ptr %27, i64 7
  %29 = load ptr, ptr %28, align 8
  tail call void %29(ptr noundef nonnull align 8 dereferenceable(8) %24, ptr noundef nonnull %26, i32 noundef 0, i32 noundef 512)
  store i32 0, ptr %22, align 8, !tbaa !145
  br label %30

30:                                               ; preds = %21, %18
  ret void
}

; Function Attrs: uwtable
define dso_local void @_ZN10xalanc_1_814FormatterToXML15accumNameStringEPKt(ptr noundef nonnull align 8 dereferenceable(1644) %0, ptr nocapture noundef readonly %1) #1 align 2 {
  %3 = load i16, ptr %1, align 2, !tbaa !129
  %4 = icmp eq i16 %3, 0
  br i1 %4, label %28, label %5

5:                                                ; preds = %2
  %6 = getelementptr inbounds %"class.xalanc_1_8::FormatterToXML", ptr %0, i64 0, i32 40
  %7 = getelementptr inbounds %"class.xalanc_1_8::FormatterToXML", ptr %0, i64 0, i32 40, i32 1
  br label %8

8:                                                ; preds = %5, %23
  %9 = phi i16 [ %3, %5 ], [ %26, %23 ]
  %10 = phi ptr [ %1, %5 ], [ %25, %23 ]
  %11 = load i64, ptr %6, align 8, !tbaa !135
  %12 = load i64, ptr %7, align 8, !tbaa !135
  %13 = getelementptr inbounds i8, ptr %0, i64 %12
  %14 = and i64 %11, 1
  %15 = icmp eq i64 %14, 0
  br i1 %15, label %21, label %16

16:                                               ; preds = %8
  %17 = load ptr, ptr %13, align 8, !tbaa !81
  %18 = add i64 %11, -1
  %19 = getelementptr i8, ptr %17, i64 %18, !nosanitize !146
  %20 = load ptr, ptr %19, align 8, !nosanitize !146
  br label %23

21:                                               ; preds = %8
  %22 = inttoptr i64 %11 to ptr
  br label %23

23:                                               ; preds = %16, %21
  %24 = phi ptr [ %20, %16 ], [ %22, %21 ]
  tail call void %24(ptr noundef nonnull align 8 dereferenceable(1644) %13, i16 noundef zeroext %9)
  %25 = getelementptr inbounds i16, ptr %10, i64 1
  %26 = load i16, ptr %25, align 2, !tbaa !129
  %27 = icmp eq i16 %26, 0
  br i1 %27, label %28, label %8

28:                                               ; preds = %23, %2
  ret void
}

; Function Attrs: uwtable
define dso_local void @_ZN10xalanc_1_814FormatterToXML18accumContentStringEPKt(ptr noundef nonnull align 8 dereferenceable(1644) %0, ptr nocapture noundef readonly %1) #1 align 2 {
  %3 = load i16, ptr %1, align 2, !tbaa !129
  %4 = icmp eq i16 %3, 0
  br i1 %4, label %28, label %5

5:                                                ; preds = %2
  %6 = getelementptr inbounds %"class.xalanc_1_8::FormatterToXML", ptr %0, i64 0, i32 44
  %7 = getelementptr inbounds %"class.xalanc_1_8::FormatterToXML", ptr %0, i64 0, i32 44, i32 1
  br label %8

8:                                                ; preds = %5, %23
  %9 = phi i16 [ %3, %5 ], [ %26, %23 ]
  %10 = phi ptr [ %1, %5 ], [ %25, %23 ]
  %11 = load i64, ptr %6, align 8, !tbaa !136
  %12 = load i64, ptr %7, align 8, !tbaa !136
  %13 = getelementptr inbounds i8, ptr %0, i64 %12
  %14 = and i64 %11, 1
  %15 = icmp eq i64 %14, 0
  br i1 %15, label %21, label %16

16:                                               ; preds = %8
  %17 = load ptr, ptr %13, align 8, !tbaa !81
  %18 = add i64 %11, -1
  %19 = getelementptr i8, ptr %17, i64 %18, !nosanitize !146
  %20 = load ptr, ptr %19, align 8, !nosanitize !146
  br label %23

21:                                               ; preds = %8
  %22 = inttoptr i64 %11 to ptr
  br label %23

23:                                               ; preds = %16, %21
  %24 = phi ptr [ %20, %16 ], [ %22, %21 ]
  tail call void %24(ptr noundef nonnull align 8 dereferenceable(1644) %13, i16 noundef zeroext %9)
  %25 = getelementptr inbounds i16, ptr %10, i64 1
  %26 = load i16, ptr %25, align 2, !tbaa !129
  %27 = icmp eq i16 %26, 0
  br i1 %27, label %28, label %8

28:                                               ; preds = %23, %2
  ret void
}

; Function Attrs: uwtable
define dso_local void @_ZN10xalanc_1_814FormatterToXML18accumNameDOMStringERKNS_14XalanDOMStringE(ptr noundef nonnull align 8 dereferenceable(1644) %0, ptr nocapture noundef nonnull readonly align 8 dereferenceable(28) %1) #1 align 2 {
  %3 = load ptr, ptr %1, align 8, !tbaa !126
  %4 = getelementptr inbounds %"struct.std::_Vector_base<unsigned short, std::allocator<unsigned short> >::_Vector_impl_data", ptr %1, i64 0, i32 1
  %5 = load ptr, ptr %4, align 8, !tbaa !126
  %6 = getelementptr inbounds %"class.xalanc_1_8::XalanDOMString", ptr %1, i64 0, i32 1
  %7 = load i32, ptr %6, align 8, !tbaa !115
  %8 = getelementptr inbounds %"class.xalanc_1_8::FormatterToXML", ptr %0, i64 0, i32 43
  %9 = load i64, ptr %8, align 8, !tbaa !141
  %10 = getelementptr inbounds %"class.xalanc_1_8::FormatterToXML", ptr %0, i64 0, i32 43, i32 1
  %11 = load i64, ptr %10, align 8, !tbaa !141
  %12 = getelementptr inbounds i8, ptr %0, i64 %11
  %13 = and i64 %9, 1
  %14 = icmp eq i64 %13, 0
  br i1 %14, label %20, label %15

15:                                               ; preds = %2
  %16 = load ptr, ptr %12, align 8, !tbaa !81
  %17 = add i64 %9, -1
  %18 = getelementptr i8, ptr %16, i64 %17, !nosanitize !146
  %19 = load ptr, ptr %18, align 8, !nosanitize !146
  br label %22

20:                                               ; preds = %2
  %21 = inttoptr i64 %9 to ptr
  br label %22

22:                                               ; preds = %15, %20
  %23 = phi ptr [ %19, %15 ], [ %21, %20 ]
  %24 = icmp eq ptr %3, %5
  %25 = select i1 %24, ptr @_ZN10xalanc_1_814XalanDOMString7s_emptyE, ptr %3
  tail call void %23(ptr noundef nonnull align 8 dereferenceable(1644) %12, ptr noundef %25, i32 noundef 0, i32 noundef %7)
  ret void
}

; Function Attrs: uwtable
define dso_local void @_ZN10xalanc_1_814FormatterToXML21accumContentDOMStringERKNS_14XalanDOMStringE(ptr noundef nonnull align 8 dereferenceable(1644) %0, ptr nocapture noundef nonnull readonly align 8 dereferenceable(28) %1) #1 align 2 {
  %3 = load ptr, ptr %1, align 8, !tbaa !126
  %4 = getelementptr inbounds %"struct.std::_Vector_base<unsigned short, std::allocator<unsigned short> >::_Vector_impl_data", ptr %1, i64 0, i32 1
  %5 = load ptr, ptr %4, align 8, !tbaa !126
  %6 = getelementptr inbounds %"class.xalanc_1_8::XalanDOMString", ptr %1, i64 0, i32 1
  %7 = load i32, ptr %6, align 8, !tbaa !115
  %8 = getelementptr inbounds %"class.xalanc_1_8::FormatterToXML", ptr %0, i64 0, i32 47
  %9 = load i64, ptr %8, align 8, !tbaa !142
  %10 = getelementptr inbounds %"class.xalanc_1_8::FormatterToXML", ptr %0, i64 0, i32 47, i32 1
  %11 = load i64, ptr %10, align 8, !tbaa !142
  %12 = getelementptr inbounds i8, ptr %0, i64 %11
  %13 = and i64 %9, 1
  %14 = icmp eq i64 %13, 0
  br i1 %14, label %20, label %15

15:                                               ; preds = %2
  %16 = load ptr, ptr %12, align 8, !tbaa !81
  %17 = add i64 %9, -1
  %18 = getelementptr i8, ptr %16, i64 %17, !nosanitize !146
  %19 = load ptr, ptr %18, align 8, !nosanitize !146
  br label %22

20:                                               ; preds = %2
  %21 = inttoptr i64 %9 to ptr
  br label %22

22:                                               ; preds = %15, %20
  %23 = phi ptr [ %19, %15 ], [ %21, %20 ]
  %24 = icmp eq ptr %3, %5
  %25 = select i1 %24, ptr @_ZN10xalanc_1_814XalanDOMString7s_emptyE, ptr %3
  tail call void %23(ptr noundef nonnull align 8 dereferenceable(1644) %12, ptr noundef %25, i32 noundef 0, i32 noundef %7)
  ret void
}

; Function Attrs: uwtable
define dso_local void @_ZN10xalanc_1_814FormatterToXML14accumNameArrayEPKtjj(ptr noundef nonnull align 8 dereferenceable(1644) %0, ptr nocapture noundef readonly %1, i32 noundef %2, i32 noundef %3) #1 align 2 {
  %5 = add i32 %3, %2
  %6 = icmp ugt i32 %5, %2
  br i1 %6, label %7, label %11

7:                                                ; preds = %4
  %8 = getelementptr inbounds %"class.xalanc_1_8::FormatterToXML", ptr %0, i64 0, i32 40
  %9 = getelementptr inbounds %"class.xalanc_1_8::FormatterToXML", ptr %0, i64 0, i32 40, i32 1
  %10 = zext i32 %2 to i64
  br label %12

11:                                               ; preds = %28, %4
  ret void

12:                                               ; preds = %7, %28
  %13 = phi i64 [ %10, %7 ], [ %30, %28 ]
  %14 = getelementptr inbounds i16, ptr %1, i64 %13
  %15 = load i16, ptr %14, align 2, !tbaa !129
  %16 = load i64, ptr %8, align 8, !tbaa !135
  %17 = load i64, ptr %9, align 8, !tbaa !135
  %18 = getelementptr inbounds i8, ptr %0, i64 %17
  %19 = and i64 %16, 1
  %20 = icmp eq i64 %19, 0
  br i1 %20, label %26, label %21

21:                                               ; preds = %12
  %22 = load ptr, ptr %18, align 8, !tbaa !81
  %23 = add i64 %16, -1
  %24 = getelementptr i8, ptr %22, i64 %23, !nosanitize !146
  %25 = load ptr, ptr %24, align 8, !nosanitize !146
  br label %28

26:                                               ; preds = %12
  %27 = inttoptr i64 %16 to ptr
  br label %28

28:                                               ; preds = %21, %26
  %29 = phi ptr [ %25, %21 ], [ %27, %26 ]
  tail call void %29(ptr noundef nonnull align 8 dereferenceable(1644) %18, i16 noundef zeroext %15)
  %30 = add nuw nsw i64 %13, 1
  %31 = trunc i64 %30 to i32
  %32 = icmp eq i32 %5, %31
  br i1 %32, label %11, label %12
}

; Function Attrs: uwtable
define dso_local void @_ZN10xalanc_1_814FormatterToXML17accumContentArrayEPKtjj(ptr noundef nonnull align 8 dereferenceable(1644) %0, ptr nocapture noundef readonly %1, i32 noundef %2, i32 noundef %3) #1 align 2 {
  %5 = add i32 %3, %2
  %6 = icmp ugt i32 %5, %2
  br i1 %6, label %7, label %11

7:                                                ; preds = %4
  %8 = getelementptr inbounds %"class.xalanc_1_8::FormatterToXML", ptr %0, i64 0, i32 44
  %9 = getelementptr inbounds %"class.xalanc_1_8::FormatterToXML", ptr %0, i64 0, i32 44, i32 1
  %10 = zext i32 %2 to i64
  br label %12

11:                                               ; preds = %28, %4
  ret void

12:                                               ; preds = %7, %28
  %13 = phi i64 [ %10, %7 ], [ %30, %28 ]
  %14 = getelementptr inbounds i16, ptr %1, i64 %13
  %15 = load i16, ptr %14, align 2, !tbaa !129
  %16 = load i64, ptr %8, align 8, !tbaa !136
  %17 = load i64, ptr %9, align 8, !tbaa !136
  %18 = getelementptr inbounds i8, ptr %0, i64 %17
  %19 = and i64 %16, 1
  %20 = icmp eq i64 %19, 0
  br i1 %20, label %26, label %21

21:                                               ; preds = %12
  %22 = load ptr, ptr %18, align 8, !tbaa !81
  %23 = add i64 %16, -1
  %24 = getelementptr i8, ptr %22, i64 %23, !nosanitize !146
  %25 = load ptr, ptr %24, align 8, !nosanitize !146
  br label %28

26:                                               ; preds = %12
  %27 = inttoptr i64 %16 to ptr
  br label %28

28:                                               ; preds = %21, %26
  %29 = phi ptr [ %25, %21 ], [ %27, %26 ]
  tail call void %29(ptr noundef nonnull align 8 dereferenceable(1644) %18, i16 noundef zeroext %15)
  %30 = add nuw nsw i64 %13, 1
  %31 = trunc i64 %30 to i32
  %32 = icmp eq i32 %5, %31
  br i1 %32, label %11, label %12
}

; Function Attrs: uwtable
define dso_local void @_ZN10xalanc_1_814FormatterToXML10flushCharsEv(ptr nocapture noundef nonnull align 8 dereferenceable(1644) %0) #1 align 2 {
  %2 = getelementptr inbounds %"class.xalanc_1_8::FormatterToXML", ptr %0, i64 0, i32 2
  %3 = load ptr, ptr %2, align 8, !tbaa !84
  %4 = getelementptr inbounds %"class.xalanc_1_8::FormatterToXML", ptr %0, i64 0, i32 35
  %5 = load ptr, ptr %4, align 8, !tbaa !127
  %6 = getelementptr inbounds %"class.xalanc_1_8::FormatterToXML", ptr %0, i64 0, i32 36
  %7 = load i32, ptr %6, align 8, !tbaa !145
  %8 = load ptr, ptr %3, align 8, !tbaa !81
  %9 = getelementptr inbounds ptr, ptr %8, i64 7
  %10 = load ptr, ptr %9, align 8
  tail call void %10(ptr noundef nonnull align 8 dereferenceable(8) %3, ptr noundef nonnull %5, i32 noundef 0, i32 noundef %7)
  store i32 0, ptr %6, align 8, !tbaa !145
  ret void
}

; Function Attrs: nofree nosync nounwind memory(read, argmem: readwrite, inaccessiblemem: none) uwtable
define dso_local void @_ZN10xalanc_1_814FormatterToXML12initCharsMapEv(ptr nocapture noundef nonnull align 8 dereferenceable(1644) %0) local_unnamed_addr #7 align 2 {
  %2 = getelementptr inbounds %"class.xalanc_1_8::FormatterToXML", ptr %0, i64 0, i32 5
  tail call void @llvm.memset.p0.i64(ptr noundef nonnull align 2 dereferenceable(512) %2, i8 0, i64 512, i1 false)
  %3 = getelementptr inbounds %"class.xalanc_1_8::FormatterToXML", ptr %0, i64 0, i32 34, i32 1
  %4 = load i32, ptr %3, align 8, !tbaa !115
  %5 = icmp eq i32 %4, 0
  br i1 %5, label %18, label %6

6:                                                ; preds = %1
  %7 = getelementptr inbounds %"class.xalanc_1_8::FormatterToXML", ptr %0, i64 0, i32 34
  %8 = load ptr, ptr %7, align 8, !tbaa !127
  %9 = zext i32 %4 to i64
  br label %10

10:                                               ; preds = %10, %6
  %11 = phi i64 [ 0, %6 ], [ %16, %10 ]
  %12 = getelementptr inbounds i16, ptr %8, i64 %11
  %13 = load i16, ptr %12, align 2, !tbaa !129
  %14 = zext i16 %13 to i64
  %15 = getelementptr inbounds %"class.xalanc_1_8::FormatterToXML", ptr %0, i64 0, i32 5, i64 %14
  store i16 83, ptr %15, align 2, !tbaa !129
  %16 = add nuw nsw i64 %11, 1
  %17 = icmp eq i64 %16, %9
  br i1 %17, label %18, label %10

18:                                               ; preds = %10, %1
  %19 = getelementptr inbounds %"class.xalanc_1_8::FormatterToXML", ptr %0, i64 0, i32 5, i64 9
  store i16 83, ptr %19, align 4, !tbaa !129
  %20 = getelementptr inbounds %"class.xalanc_1_8::FormatterToXML", ptr %0, i64 0, i32 5, i64 10
  store i16 83, ptr %20, align 2, !tbaa !129
  %21 = getelementptr inbounds %"class.xalanc_1_8::FormatterToXML", ptr %0, i64 0, i32 5, i64 13
  store i16 83, ptr %21, align 4, !tbaa !129
  %22 = getelementptr inbounds %"class.xalanc_1_8::FormatterToXML", ptr %0, i64 0, i32 6
  %23 = getelementptr inbounds %"class.xalanc_1_8::FormatterToXML", ptr %0, i64 0, i32 6, i64 11
  tail call void @llvm.memset.p0.i64(ptr noundef nonnull align 8 dereferenceable(512) %23, i8 0, i64 490, i1 false)
  %24 = getelementptr inbounds %"class.xalanc_1_8::FormatterToXML", ptr %0, i64 0, i32 6, i64 10
  %25 = getelementptr inbounds %"class.xalanc_1_8::FormatterToXML", ptr %0, i64 0, i32 6, i64 60
  store i16 83, ptr %25, align 2, !tbaa !129
  %26 = getelementptr inbounds %"class.xalanc_1_8::FormatterToXML", ptr %0, i64 0, i32 6, i64 62
  store i16 83, ptr %26, align 2, !tbaa !129
  %27 = getelementptr inbounds %"class.xalanc_1_8::FormatterToXML", ptr %0, i64 0, i32 6, i64 38
  store i16 83, ptr %27, align 2, !tbaa !129
  tail call void @llvm.memset.p0.i64(ptr noundef nonnull align 2 dereferenceable(20) %22, i8 83, i64 18, i1 false)
  store i16 83, ptr %24, align 2, !tbaa !129
  %28 = getelementptr inbounds %"class.xalanc_1_8::FormatterToXML", ptr %0, i64 0, i32 6, i64 13
  store i16 83, ptr %28, align 4, !tbaa !129
  %29 = getelementptr inbounds %"class.xalanc_1_8::FormatterToXML", ptr %0, i64 0, i32 6, i64 9
  store i16 0, ptr %29, align 4, !tbaa !129
  %30 = getelementptr inbounds %"class.xalanc_1_8::FormatterToXML", ptr %0, i64 0, i32 4
  %31 = load i16, ptr %30, align 8, !tbaa !131
  %32 = icmp ult i16 %31, 256
  br i1 %32, label %33, label %35

33:                                               ; preds = %18
  %34 = zext i16 %31 to i64
  br label %36

35:                                               ; preds = %36, %18
  ret void

36:                                               ; preds = %33, %36
  %37 = phi i64 [ %34, %33 ], [ %39, %36 ]
  %38 = getelementptr inbounds %"class.xalanc_1_8::FormatterToXML", ptr %0, i64 0, i32 6, i64 %37
  store i16 83, ptr %38, align 2, !tbaa !129
  %39 = add nuw nsw i64 %37, 1
  %40 = and i64 %39, 65535
  %41 = icmp eq i64 %40, 256
  br i1 %41, label %35, label %36
}

; Function Attrs: uwtable
define linkonce_odr dso_local void @_ZNSt13_Bvector_baseISaIbEED2Ev(ptr noundef nonnull align 8 dereferenceable(40) %0) unnamed_addr #1 comdat align 2 personality ptr @__gxx_personality_v0 {
  %2 = load ptr, ptr %0, align 8, !tbaa !118
  %3 = icmp eq ptr %2, null
  br i1 %3, label %15, label %4

4:                                                ; preds = %1
  %5 = getelementptr inbounds %"struct.std::_Bvector_base<std::allocator<bool> >::_Bvector_impl_data", ptr %0, i64 0, i32 2
  %6 = load ptr, ptr %5, align 8, !tbaa !120
  %7 = ptrtoint ptr %6 to i64
  %8 = ptrtoint ptr %2 to i64
  %9 = sub i64 %7, %8
  %10 = ashr exact i64 %9, 3
  %11 = sub nsw i64 0, %10
  %12 = getelementptr inbounds i64, ptr %6, i64 %11
  tail call void @_ZdlPv(ptr noundef %12) #17
  %13 = getelementptr inbounds %"struct.std::_Bvector_base<std::allocator<bool> >::_Bvector_impl_data", ptr %0, i64 0, i32 1
  store ptr null, ptr %13, align 8
  %14 = getelementptr inbounds %"struct.std::_Bvector_base<std::allocator<bool> >::_Bvector_impl_data", ptr %0, i64 0, i32 1, i32 0, i32 1
  store i32 0, ptr %14, align 8
  tail call void @llvm.memcpy.p0.p0.i64(ptr noundef nonnull align 8 dereferenceable(12) %0, ptr noundef nonnull align 8 dereferenceable(12) %13, i64 12, i1 false)
  store ptr null, ptr %5, align 8, !tbaa !120
  br label %15

15:                                               ; preds = %4, %1
  ret void
}

declare void @_ZN10xalanc_1_817FormatterListenerD2Ev(ptr noundef nonnull align 8 dereferenceable(20)) unnamed_addr #2

; Function Attrs: uwtable
define dso_local void @_ZN10xalanc_1_814FormatterToXMLD2Ev(ptr noundef nonnull align 8 dereferenceable(1644) %0) unnamed_addr #1 align 2 personality ptr @__gxx_personality_v0 {
  store ptr getelementptr inbounds ({ [27 x ptr] }, ptr @_ZTVN10xalanc_1_814FormatterToXMLE, i64 0, inrange i32 0, i64 2), ptr %0, align 8, !tbaa !81
  %2 = getelementptr inbounds %"class.xalanc_1_8::FormatterToXML", ptr %0, i64 0, i32 39
  %3 = load ptr, ptr %2, align 8, !tbaa !118
  %4 = icmp eq ptr %3, null
  br i1 %4, label %16, label %5

5:                                                ; preds = %1
  %6 = getelementptr inbounds %"class.xalanc_1_8::FormatterToXML", ptr %0, i64 0, i32 39, i32 0, i32 0, i32 0, i32 2
  %7 = load ptr, ptr %6, align 8, !tbaa !120
  %8 = ptrtoint ptr %7 to i64
  %9 = ptrtoint ptr %3 to i64
  %10 = sub i64 %8, %9
  %11 = ashr exact i64 %10, 3
  %12 = sub nsw i64 0, %11
  %13 = getelementptr inbounds i64, ptr %7, i64 %12
  tail call void @_ZdlPv(ptr noundef %13) #17
  %14 = getelementptr inbounds %"class.xalanc_1_8::FormatterToXML", ptr %0, i64 0, i32 39, i32 0, i32 0, i32 0, i32 1
  store ptr null, ptr %14, align 8
  %15 = getelementptr inbounds %"class.xalanc_1_8::FormatterToXML", ptr %0, i64 0, i32 39, i32 0, i32 0, i32 0, i32 1, i32 0, i32 1
  store i32 0, ptr %15, align 8
  tail call void @llvm.memcpy.p0.p0.i64(ptr noundef nonnull align 8 dereferenceable(12) %2, ptr noundef nonnull align 8 dereferenceable(12) %14, i64 12, i1 false)
  store ptr null, ptr %6, align 8, !tbaa !120
  br label %16

16:                                               ; preds = %5, %1
  %17 = getelementptr inbounds %"class.xalanc_1_8::FormatterToXML", ptr %0, i64 0, i32 38
  %18 = load ptr, ptr %17, align 8, !tbaa !144
  %19 = icmp eq ptr %18, null
  br i1 %19, label %21, label %20

20:                                               ; preds = %16
  tail call void @_ZdlPv(ptr noundef nonnull %18) #17
  br label %21

21:                                               ; preds = %20, %16
  %22 = getelementptr inbounds %"class.xalanc_1_8::FormatterToXML", ptr %0, i64 0, i32 35
  %23 = load ptr, ptr %22, align 8, !tbaa !127
  %24 = icmp eq ptr %23, null
  br i1 %24, label %26, label %25

25:                                               ; preds = %21
  tail call void @_ZdlPv(ptr noundef nonnull %23) #17
  br label %26

26:                                               ; preds = %25, %21
  %27 = getelementptr inbounds %"class.xalanc_1_8::FormatterToXML", ptr %0, i64 0, i32 34
  %28 = load ptr, ptr %27, align 8, !tbaa !127
  %29 = icmp eq ptr %28, null
  br i1 %29, label %31, label %30

30:                                               ; preds = %26
  tail call void @_ZdlPv(ptr noundef nonnull %28) #17
  br label %31

31:                                               ; preds = %30, %26
  %32 = getelementptr inbounds %"class.xalanc_1_8::FormatterToXML", ptr %0, i64 0, i32 33
  %33 = load ptr, ptr %32, align 8, !tbaa !127
  %34 = icmp eq ptr %33, null
  br i1 %34, label %36, label %35

35:                                               ; preds = %31
  tail call void @_ZdlPv(ptr noundef nonnull %33) #17
  br label %36

36:                                               ; preds = %35, %31
  %37 = getelementptr inbounds %"class.xalanc_1_8::FormatterToXML", ptr %0, i64 0, i32 32
  %38 = load ptr, ptr %37, align 8, !tbaa !127
  %39 = icmp eq ptr %38, null
  br i1 %39, label %41, label %40

40:                                               ; preds = %36
  tail call void @_ZdlPv(ptr noundef nonnull %38) #17
  br label %41

41:                                               ; preds = %40, %36
  %42 = getelementptr inbounds %"class.xalanc_1_8::FormatterToXML", ptr %0, i64 0, i32 31
  %43 = load ptr, ptr %42, align 8, !tbaa !127
  %44 = icmp eq ptr %43, null
  br i1 %44, label %46, label %45

45:                                               ; preds = %41
  tail call void @_ZdlPv(ptr noundef nonnull %43) #17
  br label %46

46:                                               ; preds = %45, %41
  %47 = getelementptr inbounds %"class.xalanc_1_8::FormatterToXML", ptr %0, i64 0, i32 24
  %48 = load ptr, ptr %47, align 8, !tbaa !127
  %49 = icmp eq ptr %48, null
  br i1 %49, label %51, label %50

50:                                               ; preds = %46
  tail call void @_ZdlPv(ptr noundef nonnull %48) #17
  br label %51

51:                                               ; preds = %50, %46
  %52 = getelementptr inbounds %"class.xalanc_1_8::FormatterToXML", ptr %0, i64 0, i32 23
  %53 = load ptr, ptr %52, align 8, !tbaa !118
  %54 = icmp eq ptr %53, null
  br i1 %54, label %66, label %55

55:                                               ; preds = %51
  %56 = getelementptr inbounds %"class.xalanc_1_8::FormatterToXML", ptr %0, i64 0, i32 23, i32 0, i32 0, i32 0, i32 2
  %57 = load ptr, ptr %56, align 8, !tbaa !120
  %58 = ptrtoint ptr %57 to i64
  %59 = ptrtoint ptr %53 to i64
  %60 = sub i64 %58, %59
  %61 = ashr exact i64 %60, 3
  %62 = sub nsw i64 0, %61
  %63 = getelementptr inbounds i64, ptr %57, i64 %62
  tail call void @_ZdlPv(ptr noundef %63) #17
  %64 = getelementptr inbounds %"class.xalanc_1_8::FormatterToXML", ptr %0, i64 0, i32 23, i32 0, i32 0, i32 0, i32 1
  store ptr null, ptr %64, align 8
  %65 = getelementptr inbounds %"class.xalanc_1_8::FormatterToXML", ptr %0, i64 0, i32 23, i32 0, i32 0, i32 0, i32 1, i32 0, i32 1
  store i32 0, ptr %65, align 8
  tail call void @llvm.memcpy.p0.p0.i64(ptr noundef nonnull align 8 dereferenceable(12) %52, ptr noundef nonnull align 8 dereferenceable(12) %64, i64 12, i1 false)
  store ptr null, ptr %56, align 8, !tbaa !120
  br label %66

66:                                               ; preds = %55, %51
  %67 = getelementptr inbounds %"class.xalanc_1_8::FormatterToXML", ptr %0, i64 0, i32 20
  %68 = load ptr, ptr %67, align 8, !tbaa !127
  %69 = icmp eq ptr %68, null
  br i1 %69, label %71, label %70

70:                                               ; preds = %66
  tail call void @_ZdlPv(ptr noundef nonnull %68) #17
  br label %71

71:                                               ; preds = %70, %66
  %72 = getelementptr inbounds %"class.xalanc_1_8::FormatterToXML", ptr %0, i64 0, i32 19
  %73 = load ptr, ptr %72, align 8, !tbaa !127
  %74 = icmp eq ptr %73, null
  br i1 %74, label %76, label %75

75:                                               ; preds = %71
  tail call void @_ZdlPv(ptr noundef nonnull %73) #17
  br label %76

76:                                               ; preds = %75, %71
  %77 = getelementptr inbounds %"class.xalanc_1_8::FormatterToXML", ptr %0, i64 0, i32 18
  %78 = load ptr, ptr %77, align 8, !tbaa !127
  %79 = icmp eq ptr %78, null
  br i1 %79, label %81, label %80

80:                                               ; preds = %76
  tail call void @_ZdlPv(ptr noundef nonnull %78) #17
  br label %81

81:                                               ; preds = %80, %76
  tail call void @_ZN10xalanc_1_817FormatterListenerD2Ev(ptr noundef nonnull align 8 dereferenceable(20) %0)
  ret void
}

; Function Attrs: uwtable
define dso_local void @_ZN10xalanc_1_814FormatterToXMLD0Ev(ptr noundef nonnull align 8 dereferenceable(1644) %0) unnamed_addr #1 align 2 personality ptr @__gxx_personality_v0 {
  invoke void @_ZN10xalanc_1_814FormatterToXMLD2Ev(ptr noundef nonnull align 8 dereferenceable(1644) %0)
          to label %2 unwind label %3

2:                                                ; preds = %1
  tail call void @_ZdlPv(ptr noundef nonnull %0) #19
  ret void

3:                                                ; preds = %1
  %4 = landingpad { ptr, i32 }
          cleanup
  tail call void @_ZdlPv(ptr noundef nonnull %0) #19
  resume { ptr, i32 } %4
}

; Function Attrs: nofree nosync nounwind memory(read, argmem: readwrite, inaccessiblemem: none) uwtable
define dso_local void @_ZN10xalanc_1_814FormatterToXML16initAttrCharsMapEv(ptr nocapture noundef nonnull align 8 dereferenceable(1644) %0) local_unnamed_addr #7 align 2 {
  %2 = getelementptr inbounds %"class.xalanc_1_8::FormatterToXML", ptr %0, i64 0, i32 5
  tail call void @llvm.memset.p0.i64(ptr noundef nonnull align 2 dereferenceable(512) %2, i8 0, i64 512, i1 false)
  %3 = getelementptr inbounds %"class.xalanc_1_8::FormatterToXML", ptr %0, i64 0, i32 34, i32 1
  %4 = load i32, ptr %3, align 8, !tbaa !115
  %5 = icmp eq i32 %4, 0
  br i1 %5, label %10, label %6

6:                                                ; preds = %1
  %7 = getelementptr inbounds %"class.xalanc_1_8::FormatterToXML", ptr %0, i64 0, i32 34
  %8 = load ptr, ptr %7, align 8, !tbaa !127
  %9 = zext i32 %4 to i64
  br label %14

10:                                               ; preds = %14, %1
  %11 = getelementptr inbounds %"class.xalanc_1_8::FormatterToXML", ptr %0, i64 0, i32 5, i64 9
  store i16 83, ptr %11, align 4, !tbaa !129
  %12 = getelementptr inbounds %"class.xalanc_1_8::FormatterToXML", ptr %0, i64 0, i32 5, i64 10
  store i16 83, ptr %12, align 2, !tbaa !129
  %13 = getelementptr inbounds %"class.xalanc_1_8::FormatterToXML", ptr %0, i64 0, i32 5, i64 13
  store i16 83, ptr %13, align 4, !tbaa !129
  ret void

14:                                               ; preds = %6, %14
  %15 = phi i64 [ 0, %6 ], [ %20, %14 ]
  %16 = getelementptr inbounds i16, ptr %8, i64 %15
  %17 = load i16, ptr %16, align 2, !tbaa !129
  %18 = zext i16 %17 to i64
  %19 = getelementptr inbounds %"class.xalanc_1_8::FormatterToXML", ptr %0, i64 0, i32 5, i64 %18
  store i16 83, ptr %19, align 2, !tbaa !129
  %20 = add nuw nsw i64 %15, 1
  %21 = icmp eq i64 %20, %9
  br i1 %21, label %10, label %14
}

; Function Attrs: uwtable
define dso_local void @_ZN10xalanc_1_814FormatterToXML17outputDocTypeDeclEPKt(ptr noundef nonnull align 8 dereferenceable(1644) %0, ptr noundef %1) local_unnamed_addr #1 align 2 {
  %3 = getelementptr inbounds %"class.xalanc_1_8::FormatterToXML", ptr %0, i64 0, i32 43
  %4 = load i64, ptr %3, align 8, !tbaa !141
  %5 = getelementptr inbounds %"class.xalanc_1_8::FormatterToXML", ptr %0, i64 0, i32 43, i32 1
  %6 = load i64, ptr %5, align 8, !tbaa !141
  %7 = getelementptr inbounds i8, ptr %0, i64 %6
  %8 = and i64 %4, 1
  %9 = icmp eq i64 %8, 0
  br i1 %9, label %15, label %10

10:                                               ; preds = %2
  %11 = load ptr, ptr %7, align 8, !tbaa !81
  %12 = add i64 %4, -1
  %13 = getelementptr i8, ptr %11, i64 %12, !nosanitize !146
  %14 = load ptr, ptr %13, align 8, !nosanitize !146
  br label %17

15:                                               ; preds = %2
  %16 = inttoptr i64 %4 to ptr
  br label %17

17:                                               ; preds = %10, %15
  %18 = phi ptr [ %14, %10 ], [ %16, %15 ]
  tail call void %18(ptr noundef nonnull align 8 dereferenceable(1644) %7, ptr noundef nonnull @_ZN10xalanc_1_814FormatterToXML26s_doctypeHeaderStartStringE, i32 noundef 0, i32 noundef 10)
  %19 = getelementptr inbounds %"class.xalanc_1_8::FormatterToXML", ptr %0, i64 0, i32 41
  %20 = load i64, ptr %19, align 8, !tbaa !137
  %21 = getelementptr inbounds %"class.xalanc_1_8::FormatterToXML", ptr %0, i64 0, i32 41, i32 1
  %22 = load i64, ptr %21, align 8, !tbaa !137
  %23 = getelementptr inbounds i8, ptr %0, i64 %22
  %24 = and i64 %20, 1
  %25 = icmp eq i64 %24, 0
  br i1 %25, label %31, label %26

26:                                               ; preds = %17
  %27 = load ptr, ptr %23, align 8, !tbaa !81
  %28 = add i64 %20, -1
  %29 = getelementptr i8, ptr %27, i64 %28, !nosanitize !146
  %30 = load ptr, ptr %29, align 8, !nosanitize !146
  br label %33

31:                                               ; preds = %17
  %32 = inttoptr i64 %20 to ptr
  br label %33

33:                                               ; preds = %26, %31
  %34 = phi ptr [ %30, %26 ], [ %32, %31 ]
  tail call void %34(ptr noundef nonnull align 8 dereferenceable(1644) %23, ptr noundef %1)
  %35 = getelementptr inbounds %"class.xalanc_1_8::FormatterToXML", ptr %0, i64 0, i32 19
  %36 = getelementptr inbounds %"class.xalanc_1_8::FormatterToXML", ptr %0, i64 0, i32 19, i32 1
  %37 = load i32, ptr %36, align 8, !tbaa !115
  %38 = icmp eq i32 %37, 0
  %39 = load i64, ptr %3, align 8, !tbaa !141
  %40 = load i64, ptr %5, align 8, !tbaa !141
  %41 = getelementptr inbounds i8, ptr %0, i64 %40
  %42 = and i64 %39, 1
  %43 = icmp eq i64 %42, 0
  br i1 %38, label %114, label %44

44:                                               ; preds = %33
  br i1 %43, label %50, label %45

45:                                               ; preds = %44
  %46 = load ptr, ptr %41, align 8, !tbaa !81
  %47 = add i64 %39, -1
  %48 = getelementptr i8, ptr %46, i64 %47, !nosanitize !146
  %49 = load ptr, ptr %48, align 8, !nosanitize !146
  br label %52

50:                                               ; preds = %44
  %51 = inttoptr i64 %39 to ptr
  br label %52

52:                                               ; preds = %45, %50
  %53 = phi ptr [ %49, %45 ], [ %51, %50 ]
  tail call void %53(ptr noundef nonnull align 8 dereferenceable(1644) %41, ptr noundef nonnull @_ZN10xalanc_1_814FormatterToXML27s_doctypeHeaderPublicStringE, i32 noundef 0, i32 noundef 9)
  %54 = getelementptr inbounds %"class.xalanc_1_8::FormatterToXML", ptr %0, i64 0, i32 42
  %55 = load i64, ptr %54, align 8, !tbaa !139
  %56 = getelementptr inbounds %"class.xalanc_1_8::FormatterToXML", ptr %0, i64 0, i32 42, i32 1
  %57 = load i64, ptr %56, align 8, !tbaa !139
  %58 = getelementptr inbounds i8, ptr %0, i64 %57
  %59 = and i64 %55, 1
  %60 = icmp eq i64 %59, 0
  br i1 %60, label %66, label %61

61:                                               ; preds = %52
  %62 = load ptr, ptr %58, align 8, !tbaa !81
  %63 = add i64 %55, -1
  %64 = getelementptr i8, ptr %62, i64 %63, !nosanitize !146
  %65 = load ptr, ptr %64, align 8, !nosanitize !146
  br label %68

66:                                               ; preds = %52
  %67 = inttoptr i64 %55 to ptr
  br label %68

68:                                               ; preds = %61, %66
  %69 = phi ptr [ %65, %61 ], [ %67, %66 ]
  tail call void %69(ptr noundef nonnull align 8 dereferenceable(1644) %58, ptr noundef nonnull align 8 dereferenceable(28) %35)
  %70 = getelementptr inbounds %"class.xalanc_1_8::FormatterToXML", ptr %0, i64 0, i32 40
  %71 = load i64, ptr %70, align 8, !tbaa !135
  %72 = getelementptr inbounds %"class.xalanc_1_8::FormatterToXML", ptr %0, i64 0, i32 40, i32 1
  %73 = load i64, ptr %72, align 8, !tbaa !135
  %74 = getelementptr inbounds i8, ptr %0, i64 %73
  %75 = and i64 %71, 1
  %76 = icmp eq i64 %75, 0
  br i1 %76, label %82, label %77

77:                                               ; preds = %68
  %78 = load ptr, ptr %74, align 8, !tbaa !81
  %79 = add i64 %71, -1
  %80 = getelementptr i8, ptr %78, i64 %79, !nosanitize !146
  %81 = load ptr, ptr %80, align 8, !nosanitize !146
  br label %84

82:                                               ; preds = %68
  %83 = inttoptr i64 %71 to ptr
  br label %84

84:                                               ; preds = %77, %82
  %85 = phi ptr [ %81, %77 ], [ %83, %82 ]
  tail call void %85(ptr noundef nonnull align 8 dereferenceable(1644) %74, i16 noundef zeroext 34)
  %86 = load i64, ptr %70, align 8, !tbaa !135
  %87 = load i64, ptr %72, align 8, !tbaa !135
  %88 = getelementptr inbounds i8, ptr %0, i64 %87
  %89 = and i64 %86, 1
  %90 = icmp eq i64 %89, 0
  br i1 %90, label %96, label %91

91:                                               ; preds = %84
  %92 = load ptr, ptr %88, align 8, !tbaa !81
  %93 = add i64 %86, -1
  %94 = getelementptr i8, ptr %92, i64 %93, !nosanitize !146
  %95 = load ptr, ptr %94, align 8, !nosanitize !146
  br label %98

96:                                               ; preds = %84
  %97 = inttoptr i64 %86 to ptr
  br label %98

98:                                               ; preds = %91, %96
  %99 = phi ptr [ %95, %91 ], [ %97, %96 ]
  tail call void %99(ptr noundef nonnull align 8 dereferenceable(1644) %88, i16 noundef zeroext 32)
  %100 = load i64, ptr %70, align 8, !tbaa !135
  %101 = load i64, ptr %72, align 8, !tbaa !135
  %102 = getelementptr inbounds i8, ptr %0, i64 %101
  %103 = and i64 %100, 1
  %104 = icmp eq i64 %103, 0
  br i1 %104, label %110, label %105

105:                                              ; preds = %98
  %106 = load ptr, ptr %102, align 8, !tbaa !81
  %107 = add i64 %100, -1
  %108 = getelementptr i8, ptr %106, i64 %107, !nosanitize !146
  %109 = load ptr, ptr %108, align 8, !nosanitize !146
  br label %112

110:                                              ; preds = %98
  %111 = inttoptr i64 %100 to ptr
  br label %112

112:                                              ; preds = %105, %110
  %113 = phi ptr [ %109, %105 ], [ %111, %110 ]
  tail call void %113(ptr noundef nonnull align 8 dereferenceable(1644) %102, i16 noundef zeroext 34)
  br label %124

114:                                              ; preds = %33
  br i1 %43, label %120, label %115

115:                                              ; preds = %114
  %116 = load ptr, ptr %41, align 8, !tbaa !81
  %117 = add i64 %39, -1
  %118 = getelementptr i8, ptr %116, i64 %117, !nosanitize !146
  %119 = load ptr, ptr %118, align 8, !nosanitize !146
  br label %122

120:                                              ; preds = %114
  %121 = inttoptr i64 %39 to ptr
  br label %122

122:                                              ; preds = %115, %120
  %123 = phi ptr [ %119, %115 ], [ %121, %120 ]
  tail call void %123(ptr noundef nonnull align 8 dereferenceable(1644) %41, ptr noundef nonnull @_ZN10xalanc_1_814FormatterToXML27s_doctypeHeaderSystemStringE, i32 noundef 0, i32 noundef 9)
  br label %124

124:                                              ; preds = %122, %112
  %125 = getelementptr inbounds %"class.xalanc_1_8::FormatterToXML", ptr %0, i64 0, i32 18
  %126 = getelementptr inbounds %"class.xalanc_1_8::FormatterToXML", ptr %0, i64 0, i32 42
  %127 = load i64, ptr %126, align 8, !tbaa !139
  %128 = getelementptr inbounds %"class.xalanc_1_8::FormatterToXML", ptr %0, i64 0, i32 42, i32 1
  %129 = load i64, ptr %128, align 8, !tbaa !139
  %130 = getelementptr inbounds i8, ptr %0, i64 %129
  %131 = and i64 %127, 1
  %132 = icmp eq i64 %131, 0
  br i1 %132, label %138, label %133

133:                                              ; preds = %124
  %134 = load ptr, ptr %130, align 8, !tbaa !81
  %135 = add i64 %127, -1
  %136 = getelementptr i8, ptr %134, i64 %135, !nosanitize !146
  %137 = load ptr, ptr %136, align 8, !nosanitize !146
  br label %140

138:                                              ; preds = %124
  %139 = inttoptr i64 %127 to ptr
  br label %140

140:                                              ; preds = %133, %138
  %141 = phi ptr [ %137, %133 ], [ %139, %138 ]
  tail call void %141(ptr noundef nonnull align 8 dereferenceable(1644) %130, ptr noundef nonnull align 8 dereferenceable(28) %125)
  %142 = getelementptr inbounds %"class.xalanc_1_8::FormatterToXML", ptr %0, i64 0, i32 40
  %143 = load i64, ptr %142, align 8, !tbaa !135
  %144 = getelementptr inbounds %"class.xalanc_1_8::FormatterToXML", ptr %0, i64 0, i32 40, i32 1
  %145 = load i64, ptr %144, align 8, !tbaa !135
  %146 = getelementptr inbounds i8, ptr %0, i64 %145
  %147 = and i64 %143, 1
  %148 = icmp eq i64 %147, 0
  br i1 %148, label %154, label %149

149:                                              ; preds = %140
  %150 = load ptr, ptr %146, align 8, !tbaa !81
  %151 = add i64 %143, -1
  %152 = getelementptr i8, ptr %150, i64 %151, !nosanitize !146
  %153 = load ptr, ptr %152, align 8, !nosanitize !146
  br label %156

154:                                              ; preds = %140
  %155 = inttoptr i64 %143 to ptr
  br label %156

156:                                              ; preds = %149, %154
  %157 = phi ptr [ %153, %149 ], [ %155, %154 ]
  tail call void %157(ptr noundef nonnull align 8 dereferenceable(1644) %146, i16 noundef zeroext 34)
  %158 = load i64, ptr %142, align 8, !tbaa !135
  %159 = load i64, ptr %144, align 8, !tbaa !135
  %160 = getelementptr inbounds i8, ptr %0, i64 %159
  %161 = and i64 %158, 1
  %162 = icmp eq i64 %161, 0
  br i1 %162, label %168, label %163

163:                                              ; preds = %156
  %164 = load ptr, ptr %160, align 8, !tbaa !81
  %165 = add i64 %158, -1
  %166 = getelementptr i8, ptr %164, i64 %165, !nosanitize !146
  %167 = load ptr, ptr %166, align 8, !nosanitize !146
  br label %170

168:                                              ; preds = %156
  %169 = inttoptr i64 %158 to ptr
  br label %170

170:                                              ; preds = %163, %168
  %171 = phi ptr [ %167, %163 ], [ %169, %168 ]
  tail call void %171(ptr noundef nonnull align 8 dereferenceable(1644) %160, i16 noundef zeroext 62)
  %172 = getelementptr inbounds %"class.xalanc_1_8::FormatterToXML", ptr %0, i64 0, i32 49
  %173 = load ptr, ptr %172, align 8, !tbaa !128
  %174 = getelementptr inbounds %"class.xalanc_1_8::FormatterToXML", ptr %0, i64 0, i32 50
  %175 = load i32, ptr %174, align 8, !tbaa !130
  %176 = getelementptr inbounds %"class.xalanc_1_8::FormatterToXML", ptr %0, i64 0, i32 47
  %177 = load i64, ptr %176, align 8, !tbaa !142
  %178 = getelementptr inbounds %"class.xalanc_1_8::FormatterToXML", ptr %0, i64 0, i32 47, i32 1
  %179 = load i64, ptr %178, align 8, !tbaa !142
  %180 = getelementptr inbounds i8, ptr %0, i64 %179
  %181 = and i64 %177, 1
  %182 = icmp eq i64 %181, 0
  br i1 %182, label %188, label %183

183:                                              ; preds = %170
  %184 = load ptr, ptr %180, align 8, !tbaa !81
  %185 = add i64 %177, -1
  %186 = getelementptr i8, ptr %184, i64 %185, !nosanitize !146
  %187 = load ptr, ptr %186, align 8, !nosanitize !146
  br label %190

188:                                              ; preds = %170
  %189 = inttoptr i64 %177 to ptr
  br label %190

190:                                              ; preds = %183, %188
  %191 = phi ptr [ %187, %183 ], [ %189, %188 ]
  tail call void %191(ptr noundef nonnull align 8 dereferenceable(1644) %180, ptr noundef %173, i32 noundef 0, i32 noundef %175)
  ret void
}

; Function Attrs: uwtable
define dso_local void @_ZN10xalanc_1_814FormatterToXML13outputLineSepEv(ptr noundef nonnull align 8 dereferenceable(1644) %0) local_unnamed_addr #1 align 2 {
  %2 = getelementptr inbounds %"class.xalanc_1_8::FormatterToXML", ptr %0, i64 0, i32 49
  %3 = load ptr, ptr %2, align 8, !tbaa !128
  %4 = getelementptr inbounds %"class.xalanc_1_8::FormatterToXML", ptr %0, i64 0, i32 50
  %5 = load i32, ptr %4, align 8, !tbaa !130
  %6 = getelementptr inbounds %"class.xalanc_1_8::FormatterToXML", ptr %0, i64 0, i32 47
  %7 = load i64, ptr %6, align 8, !tbaa !142
  %8 = getelementptr inbounds %"class.xalanc_1_8::FormatterToXML", ptr %0, i64 0, i32 47, i32 1
  %9 = load i64, ptr %8, align 8, !tbaa !142
  %10 = getelementptr inbounds i8, ptr %0, i64 %9
  %11 = and i64 %7, 1
  %12 = icmp eq i64 %11, 0
  br i1 %12, label %18, label %13

13:                                               ; preds = %1
  %14 = load ptr, ptr %10, align 8, !tbaa !81
  %15 = add i64 %7, -1
  %16 = getelementptr i8, ptr %14, i64 %15, !nosanitize !146
  %17 = load ptr, ptr %16, align 8, !nosanitize !146
  br label %20

18:                                               ; preds = %1
  %19 = inttoptr i64 %7 to ptr
  br label %20

20:                                               ; preds = %13, %18
  %21 = phi ptr [ %17, %13 ], [ %19, %18 ]
  tail call void %21(ptr noundef nonnull align 8 dereferenceable(1644) %10, ptr noundef %3, i32 noundef 0, i32 noundef %5)
  ret void
}

; Function Attrs: uwtable
define dso_local void @_ZN10xalanc_1_814FormatterToXML15accumNameAsByteEt(ptr nocapture noundef nonnull align 8 dereferenceable(1644) %0, i16 noundef zeroext %1) local_unnamed_addr #1 align 2 {
  %3 = getelementptr inbounds %"class.xalanc_1_8::FormatterToXML", ptr %0, i64 0, i32 4
  %4 = load i16, ptr %3, align 8, !tbaa !131
  %5 = icmp ult i16 %4, %1
  %6 = trunc i16 %1 to i8
  %7 = select i1 %5, i8 63, i8 %6
  %8 = getelementptr inbounds %"class.xalanc_1_8::FormatterToXML", ptr %0, i64 0, i32 38
  %9 = getelementptr inbounds %"class.xalanc_1_8::FormatterToXML", ptr %0, i64 0, i32 36
  %10 = load i32, ptr %9, align 8, !tbaa !145
  %11 = add i32 %10, 1
  store i32 %11, ptr %9, align 8, !tbaa !145
  %12 = zext i32 %10 to i64
  %13 = load ptr, ptr %8, align 8, !tbaa !144
  %14 = getelementptr inbounds i8, ptr %13, i64 %12
  store i8 %7, ptr %14, align 1, !tbaa !147
  %15 = getelementptr inbounds %"class.xalanc_1_8::FormatterToXML", ptr %0, i64 0, i32 36
  %16 = load i32, ptr %15, align 8, !tbaa !145
  %17 = icmp eq i32 %16, 512
  br i1 %17, label %18, label %26

18:                                               ; preds = %2
  %19 = getelementptr inbounds %"class.xalanc_1_8::FormatterToXML", ptr %0, i64 0, i32 2
  %20 = load ptr, ptr %19, align 8, !tbaa !84
  %21 = getelementptr inbounds %"class.xalanc_1_8::FormatterToXML", ptr %0, i64 0, i32 38
  %22 = load ptr, ptr %21, align 8, !tbaa !144
  %23 = load ptr, ptr %20, align 8, !tbaa !81
  %24 = getelementptr inbounds ptr, ptr %23, i64 6
  %25 = load ptr, ptr %24, align 8
  tail call void %25(ptr noundef nonnull align 8 dereferenceable(8) %20, ptr noundef nonnull %22, i64 noundef 0, i64 noundef 512)
  store i32 0, ptr %15, align 8, !tbaa !145
  br label %26

26:                                               ; preds = %18, %2
  ret void
}

; Function Attrs: uwtable
define dso_local void @_ZN10xalanc_1_814FormatterToXML10flushBytesEv(ptr nocapture noundef nonnull align 8 dereferenceable(1644) %0) local_unnamed_addr #1 align 2 {
  %2 = getelementptr inbounds %"class.xalanc_1_8::FormatterToXML", ptr %0, i64 0, i32 2
  %3 = load ptr, ptr %2, align 8, !tbaa !84
  %4 = getelementptr inbounds %"class.xalanc_1_8::FormatterToXML", ptr %0, i64 0, i32 38
  %5 = load ptr, ptr %4, align 8, !tbaa !144
  %6 = getelementptr inbounds %"class.xalanc_1_8::FormatterToXML", ptr %0, i64 0, i32 36
  %7 = load i32, ptr %6, align 8, !tbaa !145
  %8 = zext i32 %7 to i64
  %9 = load ptr, ptr %3, align 8, !tbaa !81
  %10 = getelementptr inbounds ptr, ptr %9, i64 6
  %11 = load ptr, ptr %10, align 8
  tail call void %11(ptr noundef nonnull align 8 dereferenceable(8) %3, ptr noundef nonnull %5, i64 noundef 0, i64 noundef %8)
  store i32 0, ptr %6, align 8, !tbaa !145
  ret void
}

; Function Attrs: uwtable
define dso_local void @_ZN10xalanc_1_814FormatterToXML21accumNameAsByteDirectEt(ptr nocapture noundef nonnull readonly align 8 dereferenceable(1644) %0, i16 noundef zeroext %1) local_unnamed_addr #1 align 2 {
  %3 = alloca i8, align 1
  %4 = alloca i8, align 1
  %5 = getelementptr inbounds %"class.xalanc_1_8::FormatterToXML", ptr %0, i64 0, i32 4
  %6 = load i16, ptr %5, align 8, !tbaa !131
  %7 = icmp ult i16 %6, %1
  %8 = getelementptr inbounds %"class.xalanc_1_8::FormatterToXML", ptr %0, i64 0, i32 3
  %9 = load ptr, ptr %8, align 8, !tbaa !109
  br i1 %7, label %10, label %14

10:                                               ; preds = %2
  call void @llvm.lifetime.start.p0(i64 1, ptr nonnull %4)
  store i8 63, ptr %4, align 1, !tbaa !147
  %11 = load ptr, ptr %9, align 8, !tbaa !81
  %12 = getelementptr inbounds ptr, ptr %11, i64 4
  %13 = load ptr, ptr %12, align 8
  call void %13(ptr noundef nonnull align 8 dereferenceable(120) %9, ptr noundef nonnull %4, i32 noundef 1)
  call void @llvm.lifetime.end.p0(i64 1, ptr nonnull %4)
  br label %19

14:                                               ; preds = %2
  %15 = trunc i16 %1 to i8
  call void @llvm.lifetime.start.p0(i64 1, ptr nonnull %3)
  store i8 %15, ptr %3, align 1, !tbaa !147
  %16 = load ptr, ptr %9, align 8, !tbaa !81
  %17 = getelementptr inbounds ptr, ptr %16, i64 4
  %18 = load ptr, ptr %17, align 8
  call void %18(ptr noundef nonnull align 8 dereferenceable(120) %9, ptr noundef nonnull %3, i32 noundef 1)
  call void @llvm.lifetime.end.p0(i64 1, ptr nonnull %3)
  br label %19

19:                                               ; preds = %14, %10
  ret void
}

; Function Attrs: uwtable
define dso_local void @_ZN10xalanc_1_814FormatterToXML18accumContentAsByteEt(ptr noundef nonnull align 8 dereferenceable(1644) %0, i16 noundef zeroext %1) local_unnamed_addr #1 align 2 {
  %3 = getelementptr inbounds %"class.xalanc_1_8::FormatterToXML", ptr %0, i64 0, i32 4
  %4 = load i16, ptr %3, align 8, !tbaa !131
  %5 = icmp ult i16 %4, %1
  br i1 %5, label %6, label %8

6:                                                ; preds = %2
  %7 = zext i16 %1 to i64
  tail call void @_ZN10xalanc_1_814FormatterToXML28writeNumberedEntityReferenceEm(ptr noundef nonnull align 8 dereferenceable(1644) %0, i64 noundef %7)
  br label %17

8:                                                ; preds = %2
  %9 = trunc i16 %1 to i8
  %10 = getelementptr inbounds %"class.xalanc_1_8::FormatterToXML", ptr %0, i64 0, i32 38
  %11 = getelementptr inbounds %"class.xalanc_1_8::FormatterToXML", ptr %0, i64 0, i32 36
  %12 = load i32, ptr %11, align 8, !tbaa !145
  %13 = add i32 %12, 1
  store i32 %13, ptr %11, align 8, !tbaa !145
  %14 = zext i32 %12 to i64
  %15 = load ptr, ptr %10, align 8, !tbaa !144
  %16 = getelementptr inbounds i8, ptr %15, i64 %14
  store i8 %9, ptr %16, align 1, !tbaa !147
  br label %17

17:                                               ; preds = %8, %6
  %18 = getelementptr inbounds %"class.xalanc_1_8::FormatterToXML", ptr %0, i64 0, i32 36
  %19 = load i32, ptr %18, align 8, !tbaa !145
  %20 = icmp eq i32 %19, 512
  br i1 %20, label %21, label %29

21:                                               ; preds = %17
  %22 = getelementptr inbounds %"class.xalanc_1_8::FormatterToXML", ptr %0, i64 0, i32 2
  %23 = load ptr, ptr %22, align 8, !tbaa !84
  %24 = getelementptr inbounds %"class.xalanc_1_8::FormatterToXML", ptr %0, i64 0, i32 38
  %25 = load ptr, ptr %24, align 8, !tbaa !144
  %26 = load ptr, ptr %23, align 8, !tbaa !81
  %27 = getelementptr inbounds ptr, ptr %26, i64 6
  %28 = load ptr, ptr %27, align 8
  tail call void %28(ptr noundef nonnull align 8 dereferenceable(8) %23, ptr noundef nonnull %25, i64 noundef 0, i64 noundef 512)
  store i32 0, ptr %18, align 8, !tbaa !145
  br label %29

29:                                               ; preds = %21, %17
  ret void
}

; Function Attrs: uwtable
define dso_local void @_ZN10xalanc_1_814FormatterToXML28writeNumberedEntityReferenceEm(ptr noundef nonnull align 8 dereferenceable(1644) %0, i64 noundef %1) local_unnamed_addr #1 align 2 {
  %3 = getelementptr inbounds %"class.xalanc_1_8::FormatterToXML", ptr %0, i64 0, i32 44
  %4 = load i64, ptr %3, align 8, !tbaa !136
  %5 = getelementptr inbounds %"class.xalanc_1_8::FormatterToXML", ptr %0, i64 0, i32 44, i32 1
  %6 = load i64, ptr %5, align 8, !tbaa !136
  %7 = getelementptr inbounds i8, ptr %0, i64 %6
  %8 = and i64 %4, 1
  %9 = icmp eq i64 %8, 0
  br i1 %9, label %15, label %10

10:                                               ; preds = %2
  %11 = load ptr, ptr %7, align 8, !tbaa !81
  %12 = add i64 %4, -1
  %13 = getelementptr i8, ptr %11, i64 %12, !nosanitize !146
  %14 = load ptr, ptr %13, align 8, !nosanitize !146
  br label %17

15:                                               ; preds = %2
  %16 = inttoptr i64 %4 to ptr
  br label %17

17:                                               ; preds = %10, %15
  %18 = phi ptr [ %14, %10 ], [ %16, %15 ]
  tail call void %18(ptr noundef nonnull align 8 dereferenceable(1644) %7, i16 noundef zeroext 38)
  %19 = load i64, ptr %3, align 8, !tbaa !136
  %20 = load i64, ptr %5, align 8, !tbaa !136
  %21 = getelementptr inbounds i8, ptr %0, i64 %20
  %22 = and i64 %19, 1
  %23 = icmp eq i64 %22, 0
  br i1 %23, label %29, label %24

24:                                               ; preds = %17
  %25 = load ptr, ptr %21, align 8, !tbaa !81
  %26 = add i64 %19, -1
  %27 = getelementptr i8, ptr %25, i64 %26, !nosanitize !146
  %28 = load ptr, ptr %27, align 8, !nosanitize !146
  br label %31

29:                                               ; preds = %17
  %30 = inttoptr i64 %19 to ptr
  br label %31

31:                                               ; preds = %24, %29
  %32 = phi ptr [ %28, %24 ], [ %30, %29 ]
  tail call void %32(ptr noundef nonnull align 8 dereferenceable(1644) %21, i16 noundef zeroext 35)
  %33 = getelementptr inbounds %"class.xalanc_1_8::FormatterToXML", ptr %0, i64 0, i32 24
  %34 = tail call noundef nonnull align 8 dereferenceable(28) ptr @_ZN10xalanc_1_823UnsignedLongToDOMStringEmRNS_14XalanDOMStringE(i64 noundef %1, ptr noundef nonnull align 8 dereferenceable(28) %33)
  %35 = getelementptr inbounds %"class.xalanc_1_8::FormatterToXML", ptr %0, i64 0, i32 46
  %36 = load i64, ptr %35, align 8, !tbaa !140
  %37 = getelementptr inbounds %"class.xalanc_1_8::FormatterToXML", ptr %0, i64 0, i32 46, i32 1
  %38 = load i64, ptr %37, align 8, !tbaa !140
  %39 = getelementptr inbounds i8, ptr %0, i64 %38
  %40 = and i64 %36, 1
  %41 = icmp eq i64 %40, 0
  br i1 %41, label %47, label %42

42:                                               ; preds = %31
  %43 = load ptr, ptr %39, align 8, !tbaa !81
  %44 = add i64 %36, -1
  %45 = getelementptr i8, ptr %43, i64 %44, !nosanitize !146
  %46 = load ptr, ptr %45, align 8, !nosanitize !146
  br label %49

47:                                               ; preds = %31
  %48 = inttoptr i64 %36 to ptr
  br label %49

49:                                               ; preds = %42, %47
  %50 = phi ptr [ %46, %42 ], [ %48, %47 ]
  tail call void %50(ptr noundef nonnull align 8 dereferenceable(1644) %39, ptr noundef nonnull align 8 dereferenceable(28) %34)
  %51 = load ptr, ptr %33, align 8, !tbaa !126
  %52 = getelementptr inbounds %"class.xalanc_1_8::FormatterToXML", ptr %0, i64 0, i32 24, i32 0, i32 0, i32 0, i32 0, i32 1
  %53 = load ptr, ptr %52, align 8, !tbaa !126
  %54 = icmp eq ptr %51, %53
  br i1 %54, label %56, label %55

55:                                               ; preds = %49
  store ptr %51, ptr %52, align 8, !tbaa !134
  br label %56

56:                                               ; preds = %49, %55
  %57 = getelementptr inbounds %"class.xalanc_1_8::FormatterToXML", ptr %0, i64 0, i32 24, i32 1
  store i32 0, ptr %57, align 8, !tbaa !115
  %58 = load i64, ptr %3, align 8, !tbaa !136
  %59 = load i64, ptr %5, align 8, !tbaa !136
  %60 = getelementptr inbounds i8, ptr %0, i64 %59
  %61 = and i64 %58, 1
  %62 = icmp eq i64 %61, 0
  br i1 %62, label %68, label %63

63:                                               ; preds = %56
  %64 = load ptr, ptr %60, align 8, !tbaa !81
  %65 = add i64 %58, -1
  %66 = getelementptr i8, ptr %64, i64 %65, !nosanitize !146
  %67 = load ptr, ptr %66, align 8, !nosanitize !146
  br label %70

68:                                               ; preds = %56
  %69 = inttoptr i64 %58 to ptr
  br label %70

70:                                               ; preds = %63, %68
  %71 = phi ptr [ %67, %63 ], [ %69, %68 ]
  tail call void %71(ptr noundef nonnull align 8 dereferenceable(1644) %60, i16 noundef zeroext 59)
  ret void
}

; Function Attrs: uwtable
define dso_local void @_ZN10xalanc_1_814FormatterToXML24accumContentAsByteDirectEt(ptr noundef nonnull align 8 dereferenceable(1644) %0, i16 noundef zeroext %1) local_unnamed_addr #1 align 2 {
  %3 = alloca i8, align 1
  %4 = getelementptr inbounds %"class.xalanc_1_8::FormatterToXML", ptr %0, i64 0, i32 4
  %5 = load i16, ptr %4, align 8, !tbaa !131
  %6 = icmp ult i16 %5, %1
  br i1 %6, label %7, label %9

7:                                                ; preds = %2
  %8 = zext i16 %1 to i64
  tail call void @_ZN10xalanc_1_814FormatterToXML28writeNumberedEntityReferenceEm(ptr noundef nonnull align 8 dereferenceable(1644) %0, i64 noundef %8)
  br label %16

9:                                                ; preds = %2
  %10 = getelementptr inbounds %"class.xalanc_1_8::FormatterToXML", ptr %0, i64 0, i32 3
  %11 = load ptr, ptr %10, align 8, !tbaa !109
  %12 = trunc i16 %1 to i8
  call void @llvm.lifetime.start.p0(i64 1, ptr nonnull %3)
  store i8 %12, ptr %3, align 1, !tbaa !147
  %13 = load ptr, ptr %11, align 8, !tbaa !81
  %14 = getelementptr inbounds ptr, ptr %13, i64 4
  %15 = load ptr, ptr %14, align 8
  call void %15(ptr noundef nonnull align 8 dereferenceable(120) %11, ptr noundef nonnull %3, i32 noundef 1)
  call void @llvm.lifetime.end.p0(i64 1, ptr nonnull %3)
  br label %16

16:                                               ; preds = %9, %7
  ret void
}

; Function Attrs: uwtable
define linkonce_odr dso_local void @_ZN10xalanc_1_817XalanOutputStream5writeEt(ptr noundef nonnull align 8 dereferenceable(120) %0, i16 noundef zeroext %1) local_unnamed_addr #1 comdat align 2 personality ptr @__gxx_personality_v0 {
  %3 = getelementptr inbounds %"class.xalanc_1_8::XalanOutputStream", ptr %0, i64 0, i32 4
  %4 = getelementptr inbounds %"class.xalanc_1_8::XalanOutputStream", ptr %0, i64 0, i32 4, i32 0, i32 0, i32 0, i32 1
  %5 = load ptr, ptr %4, align 8, !tbaa !126
  %6 = load ptr, ptr %3, align 8, !tbaa !127
  %7 = ptrtoint ptr %5 to i64
  %8 = ptrtoint ptr %6 to i64
  %9 = sub i64 %7, %8
  %10 = ashr exact i64 %9, 1
  %11 = getelementptr inbounds %"class.xalanc_1_8::XalanOutputStream", ptr %0, i64 0, i32 3
  %12 = load i32, ptr %11, align 8, !tbaa !148
  %13 = zext i32 %12 to i64
  %14 = icmp eq i64 %10, %13
  br i1 %14, label %15, label %17

15:                                               ; preds = %2
  tail call void @_ZN10xalanc_1_817XalanOutputStream11flushBufferEv(ptr noundef nonnull align 8 dereferenceable(120) %0)
  %16 = load ptr, ptr %4, align 8, !tbaa !126
  br label %17

17:                                               ; preds = %15, %2
  %18 = phi ptr [ %16, %15 ], [ %5, %2 ]
  %19 = getelementptr inbounds %"class.xalanc_1_8::XalanOutputStream", ptr %0, i64 0, i32 4, i32 0, i32 0, i32 0, i32 2
  %20 = load ptr, ptr %19, align 8, !tbaa !150
  %21 = icmp eq ptr %18, %20
  br i1 %21, label %24, label %22

22:                                               ; preds = %17
  store i16 %1, ptr %18, align 2, !tbaa !129
  %23 = getelementptr inbounds i16, ptr %18, i64 1
  store ptr %23, ptr %4, align 8, !tbaa !134
  br label %54

24:                                               ; preds = %17
  %25 = load ptr, ptr %3, align 8, !tbaa !126
  %26 = ptrtoint ptr %18 to i64
  %27 = ptrtoint ptr %25 to i64
  %28 = sub i64 %26, %27
  %29 = icmp eq i64 %28, 9223372036854775806
  br i1 %29, label %30, label %31

30:                                               ; preds = %24
  tail call void @_ZSt20__throw_length_errorPKc(ptr noundef nonnull @.str) #20
  unreachable

31:                                               ; preds = %24
  %32 = ashr exact i64 %28, 1
  %33 = tail call i64 @llvm.umax.i64(i64 %32, i64 1)
  %34 = add i64 %33, %32
  %35 = icmp ult i64 %34, %32
  %36 = icmp ugt i64 %34, 4611686018427387903
  %37 = or i1 %35, %36
  %38 = select i1 %37, i64 4611686018427387903, i64 %34
  %39 = icmp eq i64 %38, 0
  br i1 %39, label %43, label %40

40:                                               ; preds = %31
  %41 = shl nuw nsw i64 %38, 1
  %42 = tail call noalias noundef nonnull ptr @_Znwm(i64 noundef %41) #21
  br label %43

43:                                               ; preds = %40, %31
  %44 = phi ptr [ %42, %40 ], [ null, %31 ]
  %45 = getelementptr inbounds i16, ptr %44, i64 %32
  store i16 %1, ptr %45, align 2, !tbaa !129
  %46 = icmp eq ptr %25, %18
  br i1 %46, label %48, label %47

47:                                               ; preds = %43
  tail call void @llvm.memmove.p0.p0.i64(ptr nonnull align 2 %44, ptr align 2 %25, i64 %28, i1 false)
  br label %48

48:                                               ; preds = %47, %43
  %49 = getelementptr inbounds i16, ptr %45, i64 1
  %50 = icmp eq ptr %25, null
  br i1 %50, label %52, label %51

51:                                               ; preds = %48
  tail call void @_ZdlPv(ptr noundef nonnull %25) #17
  br label %52

52:                                               ; preds = %51, %48
  store ptr %44, ptr %3, align 8, !tbaa !127
  store ptr %49, ptr %4, align 8, !tbaa !134
  %53 = getelementptr inbounds i16, ptr %44, i64 %38
  store ptr %53, ptr %19, align 8, !tbaa !150
  br label %54

54:                                               ; preds = %22, %52
  ret void
}

declare void @_ZN10xalanc_1_817XalanOutputStream5writeEPKtj(ptr noundef nonnull align 8 dereferenceable(120), ptr noundef, i32 noundef) local_unnamed_addr #2

; Function Attrs: noreturn uwtable
define dso_local void @_ZN10xalanc_1_814FormatterToXML35throwInvalidUTF16SurrogateExceptionEt(i16 noundef zeroext %0) local_unnamed_addr #8 align 2 personality ptr @__gxx_personality_v0 {
  %2 = alloca %"class.xalanc_1_8::XalanDOMString", align 8
  %3 = alloca %"class.xalanc_1_8::XalanDOMString", align 8
  call void @llvm.lifetime.start.p0(i64 32, ptr nonnull %2) #17
  %4 = zext i16 %0 to i64
  call void @_ZN10xalanc_1_814XalanDOMStringC1Ev(ptr noundef nonnull align 8 dereferenceable(28) %2)
  %5 = invoke noundef nonnull align 8 dereferenceable(28) ptr @_ZN10xalanc_1_826UnsignedLongToHexDOMStringEmRNS_14XalanDOMStringE(i64 noundef %4, ptr noundef nonnull align 8 dereferenceable(28) %2)
          to label %13 unwind label %6

6:                                                ; preds = %1
  %7 = landingpad { ptr, i32 }
          cleanup
  %8 = load ptr, ptr %2, align 8, !tbaa !127, !alias.scope !151
  %9 = icmp eq ptr %8, null
  br i1 %9, label %11, label %10

10:                                               ; preds = %6
  call void @_ZdlPv(ptr noundef nonnull %8) #17
  br label %11

11:                                               ; preds = %6, %10, %64
  %12 = phi { ptr, i32 } [ %60, %64 ], [ %7, %10 ], [ %7, %6 ]
  resume { ptr, i32 } %12

13:                                               ; preds = %1
  call void @llvm.lifetime.start.p0(i64 32, ptr nonnull %3) #17
  invoke void @_ZN10xalanc_1_818XalanMessageLoader10getMessageENS_13XalanMessages5CodesERKNS_14XalanDOMStringE(ptr nonnull sret(%"class.xalanc_1_8::XalanDOMString") align 8 %3, i32 noundef 159, ptr noundef nonnull align 8 dereferenceable(28) %2)
          to label %14 unwind label %48

14:                                               ; preds = %13
  %15 = call ptr @__cxa_allocate_exception(i64 24) #17
  %16 = load ptr, ptr %3, align 8, !tbaa !126
  %17 = getelementptr inbounds %"struct.std::_Vector_base<unsigned short, std::allocator<unsigned short> >::_Vector_impl_data", ptr %3, i64 0, i32 1
  %18 = load ptr, ptr %17, align 8, !tbaa !126
  %19 = icmp eq ptr %16, %18
  %20 = select i1 %19, ptr @_ZN10xalanc_1_814XalanDOMString7s_emptyE, ptr %16
  %21 = load ptr, ptr @_ZN11xercesc_2_516XMLPlatformUtils15fgMemoryManagerE, align 8, !tbaa !126
  store ptr getelementptr inbounds ({ [5 x ptr] }, ptr @_ZTVN11xercesc_2_512SAXExceptionE, i64 0, inrange i32 0, i64 2), ptr %15, align 8, !tbaa !81
  %22 = icmp eq ptr %20, null
  br i1 %22, label %44, label %23

23:                                               ; preds = %14
  %24 = load i16, ptr %20, align 2, !tbaa !129
  %25 = icmp eq i16 %24, 0
  br i1 %25, label %37, label %26

26:                                               ; preds = %23, %26
  %27 = phi ptr [ %28, %26 ], [ %20, %23 ]
  %28 = getelementptr inbounds i16, ptr %27, i64 1
  %29 = load i16, ptr %28, align 2, !tbaa !129
  %30 = icmp eq i16 %29, 0
  br i1 %30, label %31, label %26

31:                                               ; preds = %26
  %32 = ptrtoint ptr %28 to i64
  %33 = ptrtoint ptr %20 to i64
  %34 = sub i64 %32, %33
  %35 = add i64 %34, 2
  %36 = and i64 %35, 8589934590
  br label %37

37:                                               ; preds = %31, %23
  %38 = phi i64 [ %36, %31 ], [ 2, %23 ]
  %39 = load ptr, ptr %21, align 8, !tbaa !81
  %40 = getelementptr inbounds ptr, ptr %39, i64 2
  %41 = load ptr, ptr %40, align 8
  %42 = invoke noundef ptr %41(ptr noundef nonnull align 8 dereferenceable(8) %21, i64 noundef %38)
          to label %43 unwind label %50

43:                                               ; preds = %37
  call void @llvm.memcpy.p0.p0.i64(ptr align 2 %42, ptr nonnull align 2 %20, i64 %38, i1 false)
  br label %44

44:                                               ; preds = %43, %14
  %45 = phi ptr [ %42, %43 ], [ null, %14 ]
  %46 = getelementptr inbounds %"class.xercesc_2_5::SAXException", ptr %15, i64 0, i32 1
  store ptr %45, ptr %46, align 8, !tbaa !154
  %47 = getelementptr inbounds %"class.xercesc_2_5::SAXException", ptr %15, i64 0, i32 2
  store ptr %21, ptr %47, align 8, !tbaa !156
  invoke void @__cxa_throw(ptr nonnull %15, ptr nonnull @_ZTIN11xercesc_2_512SAXExceptionE, ptr nonnull @_ZN11xercesc_2_512SAXExceptionD2Ev) #20
          to label %65 unwind label %52

48:                                               ; preds = %13
  %49 = landingpad { ptr, i32 }
          cleanup
  br label %59

50:                                               ; preds = %37
  %51 = landingpad { ptr, i32 }
          cleanup
  call void @__cxa_free_exception(ptr nonnull %15) #17
  br label %54

52:                                               ; preds = %44
  %53 = landingpad { ptr, i32 }
          cleanup
  br label %54

54:                                               ; preds = %52, %50
  %55 = phi { ptr, i32 } [ %53, %52 ], [ %51, %50 ]
  %56 = load ptr, ptr %3, align 8, !tbaa !127
  %57 = icmp eq ptr %56, null
  br i1 %57, label %59, label %58

58:                                               ; preds = %54
  call void @_ZdlPv(ptr noundef nonnull %56) #17
  br label %59

59:                                               ; preds = %58, %54, %48
  %60 = phi { ptr, i32 } [ %49, %48 ], [ %55, %54 ], [ %55, %58 ]
  call void @llvm.lifetime.end.p0(i64 32, ptr nonnull %3) #17
  %61 = load ptr, ptr %2, align 8, !tbaa !127
  %62 = icmp eq ptr %61, null
  br i1 %62, label %64, label %63

63:                                               ; preds = %59
  call void @_ZdlPv(ptr noundef nonnull %61) #17
  br label %64

64:                                               ; preds = %63, %59
  call void @llvm.lifetime.end.p0(i64 32, ptr nonnull %2) #17
  br label %11

65:                                               ; preds = %44
  unreachable
}

declare void @_ZN10xalanc_1_818XalanMessageLoader10getMessageENS_13XalanMessages5CodesERKNS_14XalanDOMStringE(ptr sret(%"class.xalanc_1_8::XalanDOMString") align 8, i32 noundef, ptr noundef nonnull align 8 dereferenceable(28)) local_unnamed_addr #2

declare ptr @__cxa_allocate_exception(i64) local_unnamed_addr

declare void @__cxa_free_exception(ptr) local_unnamed_addr

; Function Attrs: uwtable
define linkonce_odr dso_local void @_ZN11xercesc_2_512SAXExceptionD2Ev(ptr noundef nonnull align 8 dereferenceable(24) %0) unnamed_addr #1 comdat align 2 {
  store ptr getelementptr inbounds ({ [5 x ptr] }, ptr @_ZTVN11xercesc_2_512SAXExceptionE, i64 0, inrange i32 0, i64 2), ptr %0, align 8, !tbaa !81
  %2 = getelementptr inbounds %"class.xercesc_2_5::SAXException", ptr %0, i64 0, i32 2
  %3 = load ptr, ptr %2, align 8, !tbaa !156
  %4 = getelementptr inbounds %"class.xercesc_2_5::SAXException", ptr %0, i64 0, i32 1
  %5 = load ptr, ptr %4, align 8, !tbaa !154
  %6 = load ptr, ptr %3, align 8, !tbaa !81
  %7 = getelementptr inbounds ptr, ptr %6, i64 3
  %8 = load ptr, ptr %7, align 8
  tail call void %8(ptr noundef nonnull align 8 dereferenceable(8) %3, ptr noundef %5)
  ret void
}

declare void @__cxa_throw(ptr, ptr, ptr) local_unnamed_addr

; Function Attrs: noreturn uwtable
define dso_local void @_ZN10xalanc_1_814FormatterToXML35throwInvalidUTF16SurrogateExceptionEtt(i16 noundef zeroext %0, i16 noundef zeroext %1) local_unnamed_addr #8 align 2 personality ptr @__gxx_personality_v0 {
  %3 = alloca %"class.xalanc_1_8::XalanDOMString", align 8
  %4 = alloca %"class.xalanc_1_8::XalanDOMString", align 8
  %5 = alloca %"class.xalanc_1_8::XalanDOMString", align 8
  %6 = alloca %"class.xalanc_1_8::XalanDOMString", align 8
  %7 = alloca %"class.xalanc_1_8::XalanDOMString", align 8
  call void @llvm.lifetime.start.p0(i64 32, ptr nonnull %4) #17
  call void @llvm.lifetime.start.p0(i64 32, ptr nonnull %5) #17
  %8 = zext i16 %0 to i64
  call void @_ZN10xalanc_1_814XalanDOMStringC1Ev(ptr noundef nonnull align 8 dereferenceable(28) %5)
  %9 = invoke noundef nonnull align 8 dereferenceable(28) ptr @_ZN10xalanc_1_826UnsignedLongToHexDOMStringEmRNS_14XalanDOMStringE(i64 noundef %8, ptr noundef nonnull align 8 dereferenceable(28) %5)
          to label %17 unwind label %10

10:                                               ; preds = %2
  %11 = landingpad { ptr, i32 }
          cleanup
  %12 = load ptr, ptr %5, align 8, !tbaa !127, !alias.scope !157
  %13 = icmp eq ptr %12, null
  br i1 %13, label %15, label %14

14:                                               ; preds = %10
  call void @_ZdlPv(ptr noundef nonnull %12) #17
  br label %15

15:                                               ; preds = %10, %14, %121
  %16 = phi { ptr, i32 } [ %122, %121 ], [ %11, %14 ], [ %11, %10 ]
  resume { ptr, i32 } %16

17:                                               ; preds = %2
  call void @llvm.lifetime.start.p0(i64 32, ptr nonnull %6) #17
  invoke void @_ZN10xalanc_1_814XalanDOMStringC1Ev(ptr noundef nonnull align 8 dereferenceable(28) %6)
          to label %18 unwind label %90

18:                                               ; preds = %17
  %19 = zext i16 %1 to i64
  %20 = invoke noundef nonnull align 8 dereferenceable(28) ptr @_ZN10xalanc_1_826UnsignedLongToHexDOMStringEmRNS_14XalanDOMStringE(i64 noundef %19, ptr noundef nonnull align 8 dereferenceable(28) %6)
          to label %26 unwind label %21

21:                                               ; preds = %18
  %22 = landingpad { ptr, i32 }
          cleanup
  %23 = load ptr, ptr %6, align 8, !tbaa !127, !alias.scope !160
  %24 = icmp eq ptr %23, null
  br i1 %24, label %99, label %25

25:                                               ; preds = %21
  call void @_ZdlPv(ptr noundef nonnull %23) #17
  br label %99

26:                                               ; preds = %18
  call void @llvm.lifetime.start.p0(i64 32, ptr nonnull %3) #17, !noalias !163
  invoke void @_ZN10xalanc_1_814XalanDOMStringC1ERKS0_jj(ptr noundef nonnull align 8 dereferenceable(28) %3, ptr noundef nonnull align 8 dereferenceable(28) %5, i32 noundef 0, i32 noundef -1)
          to label %27 unwind label %92

27:                                               ; preds = %26
  %28 = load ptr, ptr %6, align 8, !tbaa !126, !noalias !163
  %29 = getelementptr inbounds %"struct.std::_Vector_base<unsigned short, std::allocator<unsigned short> >::_Vector_impl_data", ptr %6, i64 0, i32 1
  %30 = load ptr, ptr %29, align 8, !tbaa !126, !noalias !163
  %31 = icmp eq ptr %28, %30
  %32 = select i1 %31, ptr @_ZN10xalanc_1_814XalanDOMString7s_emptyE, ptr %28
  %33 = getelementptr inbounds %"class.xalanc_1_8::XalanDOMString", ptr %6, i64 0, i32 1
  %34 = load i32, ptr %33, align 8, !tbaa !115, !noalias !163
  %35 = invoke noundef nonnull align 8 dereferenceable(28) ptr @_ZN10xalanc_1_814XalanDOMString6appendEPKtj(ptr noundef nonnull align 8 dereferenceable(28) %3, ptr noundef %32, i32 noundef %34)
          to label %36 unwind label %41, !noalias !163

36:                                               ; preds = %27
  invoke void @_ZN10xalanc_1_814XalanDOMStringC1ERKS0_jj(ptr noundef nonnull align 8 dereferenceable(28) %4, ptr noundef nonnull align 8 dereferenceable(28) %35, i32 noundef 0, i32 noundef -1)
          to label %37 unwind label %41

37:                                               ; preds = %36
  %38 = load ptr, ptr %3, align 8, !tbaa !127, !noalias !163
  %39 = icmp eq ptr %38, null
  br i1 %39, label %47, label %40

40:                                               ; preds = %37
  call void @_ZdlPv(ptr noundef nonnull %38) #17
  br label %47

41:                                               ; preds = %36, %27
  %42 = landingpad { ptr, i32 }
          cleanup
  %43 = load ptr, ptr %3, align 8, !tbaa !127, !noalias !163
  %44 = icmp eq ptr %43, null
  br i1 %44, label %46, label %45

45:                                               ; preds = %41
  call void @_ZdlPv(ptr noundef nonnull %43) #17
  br label %46

46:                                               ; preds = %45, %41
  call void @llvm.lifetime.end.p0(i64 32, ptr nonnull %3) #17, !noalias !163
  br label %94

47:                                               ; preds = %40, %37
  call void @llvm.lifetime.end.p0(i64 32, ptr nonnull %3) #17, !noalias !163
  %48 = load ptr, ptr %6, align 8, !tbaa !127
  %49 = icmp eq ptr %48, null
  br i1 %49, label %51, label %50

50:                                               ; preds = %47
  call void @_ZdlPv(ptr noundef nonnull %48) #17
  br label %51

51:                                               ; preds = %50, %47
  call void @llvm.lifetime.end.p0(i64 32, ptr nonnull %6) #17
  %52 = load ptr, ptr %5, align 8, !tbaa !127
  %53 = icmp eq ptr %52, null
  br i1 %53, label %55, label %54

54:                                               ; preds = %51
  call void @_ZdlPv(ptr noundef nonnull %52) #17
  br label %55

55:                                               ; preds = %51, %54
  call void @llvm.lifetime.end.p0(i64 32, ptr nonnull %5) #17
  call void @llvm.lifetime.start.p0(i64 32, ptr nonnull %7) #17
  invoke void @_ZN10xalanc_1_818XalanMessageLoader10getMessageENS_13XalanMessages5CodesERKNS_14XalanDOMStringE(ptr nonnull sret(%"class.xalanc_1_8::XalanDOMString") align 8 %7, i32 noundef 159, ptr noundef nonnull align 8 dereferenceable(28) %4)
          to label %56 unwind label %105

56:                                               ; preds = %55
  %57 = call ptr @__cxa_allocate_exception(i64 24) #17
  %58 = load ptr, ptr %7, align 8, !tbaa !126
  %59 = getelementptr inbounds %"struct.std::_Vector_base<unsigned short, std::allocator<unsigned short> >::_Vector_impl_data", ptr %7, i64 0, i32 1
  %60 = load ptr, ptr %59, align 8, !tbaa !126
  %61 = icmp eq ptr %58, %60
  %62 = select i1 %61, ptr @_ZN10xalanc_1_814XalanDOMString7s_emptyE, ptr %58
  %63 = load ptr, ptr @_ZN11xercesc_2_516XMLPlatformUtils15fgMemoryManagerE, align 8, !tbaa !126
  store ptr getelementptr inbounds ({ [5 x ptr] }, ptr @_ZTVN11xercesc_2_512SAXExceptionE, i64 0, inrange i32 0, i64 2), ptr %57, align 8, !tbaa !81
  %64 = icmp eq ptr %62, null
  br i1 %64, label %86, label %65

65:                                               ; preds = %56
  %66 = load i16, ptr %62, align 2, !tbaa !129
  %67 = icmp eq i16 %66, 0
  br i1 %67, label %79, label %68

68:                                               ; preds = %65, %68
  %69 = phi ptr [ %70, %68 ], [ %62, %65 ]
  %70 = getelementptr inbounds i16, ptr %69, i64 1
  %71 = load i16, ptr %70, align 2, !tbaa !129
  %72 = icmp eq i16 %71, 0
  br i1 %72, label %73, label %68

73:                                               ; preds = %68
  %74 = ptrtoint ptr %70 to i64
  %75 = ptrtoint ptr %62 to i64
  %76 = sub i64 %74, %75
  %77 = add i64 %76, 2
  %78 = and i64 %77, 8589934590
  br label %79

79:                                               ; preds = %73, %65
  %80 = phi i64 [ %78, %73 ], [ 2, %65 ]
  %81 = load ptr, ptr %63, align 8, !tbaa !81
  %82 = getelementptr inbounds ptr, ptr %81, i64 2
  %83 = load ptr, ptr %82, align 8
  %84 = invoke noundef ptr %83(ptr noundef nonnull align 8 dereferenceable(8) %63, i64 noundef %80)
          to label %85 unwind label %107

85:                                               ; preds = %79
  call void @llvm.memcpy.p0.p0.i64(ptr align 2 %84, ptr nonnull align 2 %62, i64 %80, i1 false)
  br label %86

86:                                               ; preds = %85, %56
  %87 = phi ptr [ %84, %85 ], [ null, %56 ]
  %88 = getelementptr inbounds %"class.xercesc_2_5::SAXException", ptr %57, i64 0, i32 1
  store ptr %87, ptr %88, align 8, !tbaa !154
  %89 = getelementptr inbounds %"class.xercesc_2_5::SAXException", ptr %57, i64 0, i32 2
  store ptr %63, ptr %89, align 8, !tbaa !156
  invoke void @__cxa_throw(ptr nonnull %57, ptr nonnull @_ZTIN11xercesc_2_512SAXExceptionE, ptr nonnull @_ZN11xercesc_2_512SAXExceptionD2Ev) #20
          to label %123 unwind label %109

90:                                               ; preds = %17
  %91 = landingpad { ptr, i32 }
          cleanup
  br label %99

92:                                               ; preds = %26
  %93 = landingpad { ptr, i32 }
          cleanup
  br label %94

94:                                               ; preds = %46, %92
  %95 = phi { ptr, i32 } [ %93, %92 ], [ %42, %46 ]
  %96 = load ptr, ptr %6, align 8, !tbaa !127
  %97 = icmp eq ptr %96, null
  br i1 %97, label %99, label %98

98:                                               ; preds = %94
  call void @_ZdlPv(ptr noundef nonnull %96) #17
  br label %99

99:                                               ; preds = %98, %94, %90, %25, %21
  %100 = phi { ptr, i32 } [ %91, %90 ], [ %22, %25 ], [ %22, %21 ], [ %95, %94 ], [ %95, %98 ]
  call void @llvm.lifetime.end.p0(i64 32, ptr nonnull %6) #17
  %101 = load ptr, ptr %5, align 8, !tbaa !127
  %102 = icmp eq ptr %101, null
  br i1 %102, label %104, label %103

103:                                              ; preds = %99
  call void @_ZdlPv(ptr noundef nonnull %101) #17
  br label %104

104:                                              ; preds = %103, %99
  call void @llvm.lifetime.end.p0(i64 32, ptr nonnull %5) #17
  br label %121

105:                                              ; preds = %55
  %106 = landingpad { ptr, i32 }
          cleanup
  br label %116

107:                                              ; preds = %79
  %108 = landingpad { ptr, i32 }
          cleanup
  call void @__cxa_free_exception(ptr nonnull %57) #17
  br label %111

109:                                              ; preds = %86
  %110 = landingpad { ptr, i32 }
          cleanup
  br label %111

111:                                              ; preds = %109, %107
  %112 = phi { ptr, i32 } [ %110, %109 ], [ %108, %107 ]
  %113 = load ptr, ptr %7, align 8, !tbaa !127
  %114 = icmp eq ptr %113, null
  br i1 %114, label %116, label %115

115:                                              ; preds = %111
  call void @_ZdlPv(ptr noundef nonnull %113) #17
  br label %116

116:                                              ; preds = %115, %111, %105
  %117 = phi { ptr, i32 } [ %106, %105 ], [ %112, %111 ], [ %112, %115 ]
  call void @llvm.lifetime.end.p0(i64 32, ptr nonnull %7) #17
  %118 = load ptr, ptr %4, align 8, !tbaa !127
  %119 = icmp eq ptr %118, null
  br i1 %119, label %121, label %120

120:                                              ; preds = %116
  call void @_ZdlPv(ptr noundef nonnull %118) #17
  br label %121

121:                                              ; preds = %120, %116, %104
  %122 = phi { ptr, i32 } [ %100, %104 ], [ %117, %116 ], [ %117, %120 ]
  call void @llvm.lifetime.end.p0(i64 32, ptr nonnull %4) #17
  br label %15

123:                                              ; preds = %86
  unreachable
}

; Function Attrs: uwtable
define dso_local noundef i32 @_ZN10xalanc_1_814FormatterToXML18accumDefaultEscapeEtjPKtjb(ptr noundef nonnull align 8 dereferenceable(1644) %0, i16 noundef zeroext %1, i32 noundef %2, ptr nocapture noundef readonly %3, i32 noundef %4, i1 noundef zeroext %5) local_unnamed_addr #1 align 2 {
  %7 = load ptr, ptr %0, align 8, !tbaa !81
  %8 = getelementptr inbounds ptr, ptr %7, i64 21
  %9 = load ptr, ptr %8, align 8
  %10 = tail call noundef zeroext i1 %9(ptr noundef nonnull align 8 dereferenceable(1644) %0, i16 noundef zeroext %1, i1 noundef zeroext %5)
  br i1 %10, label %61, label %11

11:                                               ; preds = %6
  %12 = zext i16 %1 to i64
  %13 = and i16 %1, -1024
  %14 = icmp eq i16 %13, -10240
  br i1 %14, label %15, label %33

15:                                               ; preds = %11
  %16 = add i32 %2, 1
  %17 = icmp ult i32 %16, %4
  br i1 %17, label %19, label %18

18:                                               ; preds = %15
  tail call void @_ZN10xalanc_1_814FormatterToXML35throwInvalidUTF16SurrogateExceptionEt(i16 noundef zeroext %1)
  unreachable

19:                                               ; preds = %15
  %20 = zext i32 %16 to i64
  %21 = getelementptr inbounds i16, ptr %3, i64 %20
  %22 = load i16, ptr %21, align 2, !tbaa !129
  %23 = and i16 %22, -1024
  %24 = icmp eq i16 %23, -9216
  br i1 %24, label %26, label %25

25:                                               ; preds = %19
  tail call void @_ZN10xalanc_1_814FormatterToXML35throwInvalidUTF16SurrogateExceptionEtt(i16 noundef zeroext %1, i16 noundef zeroext %22)
  unreachable

26:                                               ; preds = %19
  %27 = zext i16 %22 to i64
  %28 = shl nuw nsw i64 %12, 10
  %29 = add nuw nsw i64 %28, 4238344192
  %30 = and i64 %29, 4294966272
  %31 = add nuw nsw i64 %30, 9216
  %32 = add nuw nsw i64 %31, %27
  tail call void @_ZN10xalanc_1_814FormatterToXML28writeNumberedEntityReferenceEm(ptr noundef nonnull align 8 dereferenceable(1644) %0, i64 noundef %32)
  br label %61

33:                                               ; preds = %11
  %34 = getelementptr inbounds %"class.xalanc_1_8::FormatterToXML", ptr %0, i64 0, i32 4
  %35 = load i16, ptr %34, align 8, !tbaa !131
  %36 = icmp ult i16 %35, %1
  br i1 %36, label %43, label %37

37:                                               ; preds = %33
  %38 = icmp ult i16 %1, 256
  br i1 %38, label %39, label %44

39:                                               ; preds = %37
  %40 = getelementptr inbounds %"class.xalanc_1_8::FormatterToXML", ptr %0, i64 0, i32 5, i64 %12
  %41 = load i16, ptr %40, align 2, !tbaa !129
  %42 = icmp eq i16 %41, 83
  br i1 %42, label %43, label %44

43:                                               ; preds = %39, %33
  tail call void @_ZN10xalanc_1_814FormatterToXML28writeNumberedEntityReferenceEm(ptr noundef nonnull align 8 dereferenceable(1644) %0, i64 noundef %12)
  br label %61

44:                                               ; preds = %39, %37
  %45 = getelementptr inbounds %"class.xalanc_1_8::FormatterToXML", ptr %0, i64 0, i32 44
  %46 = load i64, ptr %45, align 8, !tbaa !136
  %47 = getelementptr inbounds %"class.xalanc_1_8::FormatterToXML", ptr %0, i64 0, i32 44, i32 1
  %48 = load i64, ptr %47, align 8, !tbaa !136
  %49 = getelementptr inbounds i8, ptr %0, i64 %48
  %50 = and i64 %46, 1
  %51 = icmp eq i64 %50, 0
  br i1 %51, label %57, label %52

52:                                               ; preds = %44
  %53 = load ptr, ptr %49, align 8, !tbaa !81
  %54 = add i64 %46, -1
  %55 = getelementptr i8, ptr %53, i64 %54, !nosanitize !146
  %56 = load ptr, ptr %55, align 8, !nosanitize !146
  br label %59

57:                                               ; preds = %44
  %58 = inttoptr i64 %46 to ptr
  br label %59

59:                                               ; preds = %52, %57
  %60 = phi ptr [ %56, %52 ], [ %58, %57 ]
  tail call void %60(ptr noundef nonnull align 8 dereferenceable(1644) %49, i16 noundef zeroext %1)
  br label %61

61:                                               ; preds = %26, %59, %43, %6
  %62 = phi i32 [ %2, %6 ], [ %16, %26 ], [ %2, %43 ], [ %2, %59 ]
  ret i32 %62
}

; Function Attrs: uwtable
define dso_local noundef zeroext i1 @_ZN10xalanc_1_814FormatterToXML18accumDefaultEntityEtb(ptr noundef nonnull align 8 dereferenceable(1644) %0, i16 noundef zeroext %1, i1 noundef zeroext %2) unnamed_addr #1 align 2 {
  %4 = icmp ne i16 %1, 10
  %5 = or i1 %4, %2
  br i1 %5, label %27, label %6

6:                                                ; preds = %3
  %7 = getelementptr inbounds %"class.xalanc_1_8::FormatterToXML", ptr %0, i64 0, i32 49
  %8 = load ptr, ptr %7, align 8, !tbaa !128
  %9 = getelementptr inbounds %"class.xalanc_1_8::FormatterToXML", ptr %0, i64 0, i32 50
  %10 = load i32, ptr %9, align 8, !tbaa !130
  %11 = getelementptr inbounds %"class.xalanc_1_8::FormatterToXML", ptr %0, i64 0, i32 47
  %12 = load i64, ptr %11, align 8, !tbaa !142
  %13 = getelementptr inbounds %"class.xalanc_1_8::FormatterToXML", ptr %0, i64 0, i32 47, i32 1
  %14 = load i64, ptr %13, align 8, !tbaa !142
  %15 = getelementptr inbounds i8, ptr %0, i64 %14
  %16 = and i64 %12, 1
  %17 = icmp eq i64 %16, 0
  br i1 %17, label %23, label %18

18:                                               ; preds = %6
  %19 = load ptr, ptr %15, align 8, !tbaa !81
  %20 = add i64 %12, -1
  %21 = getelementptr i8, ptr %19, i64 %20, !nosanitize !146
  %22 = load ptr, ptr %21, align 8, !nosanitize !146
  br label %25

23:                                               ; preds = %6
  %24 = inttoptr i64 %12 to ptr
  br label %25

25:                                               ; preds = %18, %23
  %26 = phi ptr [ %22, %18 ], [ %24, %23 ]
  tail call void %26(ptr noundef nonnull align 8 dereferenceable(1644) %15, ptr noundef %8, i32 noundef 0, i32 noundef %10)
  br label %393

27:                                               ; preds = %3
  switch i16 %1, label %393 [
    i16 60, label %28
    i16 62, label %87
    i16 38, label %146
    i16 34, label %219
    i16 39, label %306
  ]

28:                                               ; preds = %27
  %29 = getelementptr inbounds %"class.xalanc_1_8::FormatterToXML", ptr %0, i64 0, i32 44
  %30 = load i64, ptr %29, align 8, !tbaa !136
  %31 = getelementptr inbounds %"class.xalanc_1_8::FormatterToXML", ptr %0, i64 0, i32 44, i32 1
  %32 = load i64, ptr %31, align 8, !tbaa !136
  %33 = getelementptr inbounds i8, ptr %0, i64 %32
  %34 = and i64 %30, 1
  %35 = icmp eq i64 %34, 0
  br i1 %35, label %41, label %36

36:                                               ; preds = %28
  %37 = load ptr, ptr %33, align 8, !tbaa !81
  %38 = add i64 %30, -1
  %39 = getelementptr i8, ptr %37, i64 %38, !nosanitize !146
  %40 = load ptr, ptr %39, align 8, !nosanitize !146
  br label %43

41:                                               ; preds = %28
  %42 = inttoptr i64 %30 to ptr
  br label %43

43:                                               ; preds = %36, %41
  %44 = phi ptr [ %40, %36 ], [ %42, %41 ]
  tail call void %44(ptr noundef nonnull align 8 dereferenceable(1644) %33, i16 noundef zeroext 38)
  %45 = load i64, ptr %29, align 8, !tbaa !136
  %46 = load i64, ptr %31, align 8, !tbaa !136
  %47 = getelementptr inbounds i8, ptr %0, i64 %46
  %48 = and i64 %45, 1
  %49 = icmp eq i64 %48, 0
  br i1 %49, label %55, label %50

50:                                               ; preds = %43
  %51 = load ptr, ptr %47, align 8, !tbaa !81
  %52 = add i64 %45, -1
  %53 = getelementptr i8, ptr %51, i64 %52, !nosanitize !146
  %54 = load ptr, ptr %53, align 8, !nosanitize !146
  br label %57

55:                                               ; preds = %43
  %56 = inttoptr i64 %45 to ptr
  br label %57

57:                                               ; preds = %50, %55
  %58 = phi ptr [ %54, %50 ], [ %56, %55 ]
  tail call void %58(ptr noundef nonnull align 8 dereferenceable(1644) %47, i16 noundef zeroext 108)
  %59 = load i64, ptr %29, align 8, !tbaa !136
  %60 = load i64, ptr %31, align 8, !tbaa !136
  %61 = getelementptr inbounds i8, ptr %0, i64 %60
  %62 = and i64 %59, 1
  %63 = icmp eq i64 %62, 0
  br i1 %63, label %69, label %64

64:                                               ; preds = %57
  %65 = load ptr, ptr %61, align 8, !tbaa !81
  %66 = add i64 %59, -1
  %67 = getelementptr i8, ptr %65, i64 %66, !nosanitize !146
  %68 = load ptr, ptr %67, align 8, !nosanitize !146
  br label %71

69:                                               ; preds = %57
  %70 = inttoptr i64 %59 to ptr
  br label %71

71:                                               ; preds = %64, %69
  %72 = phi ptr [ %68, %64 ], [ %70, %69 ]
  tail call void %72(ptr noundef nonnull align 8 dereferenceable(1644) %61, i16 noundef zeroext 116)
  %73 = load i64, ptr %29, align 8, !tbaa !136
  %74 = load i64, ptr %31, align 8, !tbaa !136
  %75 = getelementptr inbounds i8, ptr %0, i64 %74
  %76 = and i64 %73, 1
  %77 = icmp eq i64 %76, 0
  br i1 %77, label %83, label %78

78:                                               ; preds = %71
  %79 = load ptr, ptr %75, align 8, !tbaa !81
  %80 = add i64 %73, -1
  %81 = getelementptr i8, ptr %79, i64 %80, !nosanitize !146
  %82 = load ptr, ptr %81, align 8, !nosanitize !146
  br label %85

83:                                               ; preds = %71
  %84 = inttoptr i64 %73 to ptr
  br label %85

85:                                               ; preds = %78, %83
  %86 = phi ptr [ %82, %78 ], [ %84, %83 ]
  tail call void %86(ptr noundef nonnull align 8 dereferenceable(1644) %75, i16 noundef zeroext 59)
  br label %393

87:                                               ; preds = %27
  %88 = getelementptr inbounds %"class.xalanc_1_8::FormatterToXML", ptr %0, i64 0, i32 44
  %89 = load i64, ptr %88, align 8, !tbaa !136
  %90 = getelementptr inbounds %"class.xalanc_1_8::FormatterToXML", ptr %0, i64 0, i32 44, i32 1
  %91 = load i64, ptr %90, align 8, !tbaa !136
  %92 = getelementptr inbounds i8, ptr %0, i64 %91
  %93 = and i64 %89, 1
  %94 = icmp eq i64 %93, 0
  br i1 %94, label %100, label %95

95:                                               ; preds = %87
  %96 = load ptr, ptr %92, align 8, !tbaa !81
  %97 = add i64 %89, -1
  %98 = getelementptr i8, ptr %96, i64 %97, !nosanitize !146
  %99 = load ptr, ptr %98, align 8, !nosanitize !146
  br label %102

100:                                              ; preds = %87
  %101 = inttoptr i64 %89 to ptr
  br label %102

102:                                              ; preds = %95, %100
  %103 = phi ptr [ %99, %95 ], [ %101, %100 ]
  tail call void %103(ptr noundef nonnull align 8 dereferenceable(1644) %92, i16 noundef zeroext 38)
  %104 = load i64, ptr %88, align 8, !tbaa !136
  %105 = load i64, ptr %90, align 8, !tbaa !136
  %106 = getelementptr inbounds i8, ptr %0, i64 %105
  %107 = and i64 %104, 1
  %108 = icmp eq i64 %107, 0
  br i1 %108, label %114, label %109

109:                                              ; preds = %102
  %110 = load ptr, ptr %106, align 8, !tbaa !81
  %111 = add i64 %104, -1
  %112 = getelementptr i8, ptr %110, i64 %111, !nosanitize !146
  %113 = load ptr, ptr %112, align 8, !nosanitize !146
  br label %116

114:                                              ; preds = %102
  %115 = inttoptr i64 %104 to ptr
  br label %116

116:                                              ; preds = %109, %114
  %117 = phi ptr [ %113, %109 ], [ %115, %114 ]
  tail call void %117(ptr noundef nonnull align 8 dereferenceable(1644) %106, i16 noundef zeroext 103)
  %118 = load i64, ptr %88, align 8, !tbaa !136
  %119 = load i64, ptr %90, align 8, !tbaa !136
  %120 = getelementptr inbounds i8, ptr %0, i64 %119
  %121 = and i64 %118, 1
  %122 = icmp eq i64 %121, 0
  br i1 %122, label %128, label %123

123:                                              ; preds = %116
  %124 = load ptr, ptr %120, align 8, !tbaa !81
  %125 = add i64 %118, -1
  %126 = getelementptr i8, ptr %124, i64 %125, !nosanitize !146
  %127 = load ptr, ptr %126, align 8, !nosanitize !146
  br label %130

128:                                              ; preds = %116
  %129 = inttoptr i64 %118 to ptr
  br label %130

130:                                              ; preds = %123, %128
  %131 = phi ptr [ %127, %123 ], [ %129, %128 ]
  tail call void %131(ptr noundef nonnull align 8 dereferenceable(1644) %120, i16 noundef zeroext 116)
  %132 = load i64, ptr %88, align 8, !tbaa !136
  %133 = load i64, ptr %90, align 8, !tbaa !136
  %134 = getelementptr inbounds i8, ptr %0, i64 %133
  %135 = and i64 %132, 1
  %136 = icmp eq i64 %135, 0
  br i1 %136, label %142, label %137

137:                                              ; preds = %130
  %138 = load ptr, ptr %134, align 8, !tbaa !81
  %139 = add i64 %132, -1
  %140 = getelementptr i8, ptr %138, i64 %139, !nosanitize !146
  %141 = load ptr, ptr %140, align 8, !nosanitize !146
  br label %144

142:                                              ; preds = %130
  %143 = inttoptr i64 %132 to ptr
  br label %144

144:                                              ; preds = %137, %142
  %145 = phi ptr [ %141, %137 ], [ %143, %142 ]
  tail call void %145(ptr noundef nonnull align 8 dereferenceable(1644) %134, i16 noundef zeroext 59)
  br label %393

146:                                              ; preds = %27
  %147 = getelementptr inbounds %"class.xalanc_1_8::FormatterToXML", ptr %0, i64 0, i32 44
  %148 = load i64, ptr %147, align 8, !tbaa !136
  %149 = getelementptr inbounds %"class.xalanc_1_8::FormatterToXML", ptr %0, i64 0, i32 44, i32 1
  %150 = load i64, ptr %149, align 8, !tbaa !136
  %151 = getelementptr inbounds i8, ptr %0, i64 %150
  %152 = and i64 %148, 1
  %153 = icmp eq i64 %152, 0
  br i1 %153, label %159, label %154

154:                                              ; preds = %146
  %155 = load ptr, ptr %151, align 8, !tbaa !81
  %156 = add i64 %148, -1
  %157 = getelementptr i8, ptr %155, i64 %156, !nosanitize !146
  %158 = load ptr, ptr %157, align 8, !nosanitize !146
  br label %161

159:                                              ; preds = %146
  %160 = inttoptr i64 %148 to ptr
  br label %161

161:                                              ; preds = %154, %159
  %162 = phi ptr [ %158, %154 ], [ %160, %159 ]
  tail call void %162(ptr noundef nonnull align 8 dereferenceable(1644) %151, i16 noundef zeroext 38)
  %163 = load i64, ptr %147, align 8, !tbaa !136
  %164 = load i64, ptr %149, align 8, !tbaa !136
  %165 = getelementptr inbounds i8, ptr %0, i64 %164
  %166 = and i64 %163, 1
  %167 = icmp eq i64 %166, 0
  br i1 %167, label %173, label %168

168:                                              ; preds = %161
  %169 = load ptr, ptr %165, align 8, !tbaa !81
  %170 = add i64 %163, -1
  %171 = getelementptr i8, ptr %169, i64 %170, !nosanitize !146
  %172 = load ptr, ptr %171, align 8, !nosanitize !146
  br label %175

173:                                              ; preds = %161
  %174 = inttoptr i64 %163 to ptr
  br label %175

175:                                              ; preds = %168, %173
  %176 = phi ptr [ %172, %168 ], [ %174, %173 ]
  tail call void %176(ptr noundef nonnull align 8 dereferenceable(1644) %165, i16 noundef zeroext 97)
  %177 = load i64, ptr %147, align 8, !tbaa !136
  %178 = load i64, ptr %149, align 8, !tbaa !136
  %179 = getelementptr inbounds i8, ptr %0, i64 %178
  %180 = and i64 %177, 1
  %181 = icmp eq i64 %180, 0
  br i1 %181, label %187, label %182

182:                                              ; preds = %175
  %183 = load ptr, ptr %179, align 8, !tbaa !81
  %184 = add i64 %177, -1
  %185 = getelementptr i8, ptr %183, i64 %184, !nosanitize !146
  %186 = load ptr, ptr %185, align 8, !nosanitize !146
  br label %189

187:                                              ; preds = %175
  %188 = inttoptr i64 %177 to ptr
  br label %189

189:                                              ; preds = %182, %187
  %190 = phi ptr [ %186, %182 ], [ %188, %187 ]
  tail call void %190(ptr noundef nonnull align 8 dereferenceable(1644) %179, i16 noundef zeroext 109)
  %191 = load i64, ptr %147, align 8, !tbaa !136
  %192 = load i64, ptr %149, align 8, !tbaa !136
  %193 = getelementptr inbounds i8, ptr %0, i64 %192
  %194 = and i64 %191, 1
  %195 = icmp eq i64 %194, 0
  br i1 %195, label %201, label %196

196:                                              ; preds = %189
  %197 = load ptr, ptr %193, align 8, !tbaa !81
  %198 = add i64 %191, -1
  %199 = getelementptr i8, ptr %197, i64 %198, !nosanitize !146
  %200 = load ptr, ptr %199, align 8, !nosanitize !146
  br label %203

201:                                              ; preds = %189
  %202 = inttoptr i64 %191 to ptr
  br label %203

203:                                              ; preds = %196, %201
  %204 = phi ptr [ %200, %196 ], [ %202, %201 ]
  tail call void %204(ptr noundef nonnull align 8 dereferenceable(1644) %193, i16 noundef zeroext 112)
  %205 = load i64, ptr %147, align 8, !tbaa !136
  %206 = load i64, ptr %149, align 8, !tbaa !136
  %207 = getelementptr inbounds i8, ptr %0, i64 %206
  %208 = and i64 %205, 1
  %209 = icmp eq i64 %208, 0
  br i1 %209, label %215, label %210

210:                                              ; preds = %203
  %211 = load ptr, ptr %207, align 8, !tbaa !81
  %212 = add i64 %205, -1
  %213 = getelementptr i8, ptr %211, i64 %212, !nosanitize !146
  %214 = load ptr, ptr %213, align 8, !nosanitize !146
  br label %217

215:                                              ; preds = %203
  %216 = inttoptr i64 %205 to ptr
  br label %217

217:                                              ; preds = %210, %215
  %218 = phi ptr [ %214, %210 ], [ %216, %215 ]
  tail call void %218(ptr noundef nonnull align 8 dereferenceable(1644) %207, i16 noundef zeroext 59)
  br label %393

219:                                              ; preds = %27
  %220 = getelementptr inbounds %"class.xalanc_1_8::FormatterToXML", ptr %0, i64 0, i32 44
  %221 = load i64, ptr %220, align 8, !tbaa !136
  %222 = getelementptr inbounds %"class.xalanc_1_8::FormatterToXML", ptr %0, i64 0, i32 44, i32 1
  %223 = load i64, ptr %222, align 8, !tbaa !136
  %224 = getelementptr inbounds i8, ptr %0, i64 %223
  %225 = and i64 %221, 1
  %226 = icmp eq i64 %225, 0
  br i1 %226, label %232, label %227

227:                                              ; preds = %219
  %228 = load ptr, ptr %224, align 8, !tbaa !81
  %229 = add i64 %221, -1
  %230 = getelementptr i8, ptr %228, i64 %229, !nosanitize !146
  %231 = load ptr, ptr %230, align 8, !nosanitize !146
  br label %234

232:                                              ; preds = %219
  %233 = inttoptr i64 %221 to ptr
  br label %234

234:                                              ; preds = %227, %232
  %235 = phi ptr [ %231, %227 ], [ %233, %232 ]
  tail call void %235(ptr noundef nonnull align 8 dereferenceable(1644) %224, i16 noundef zeroext 38)
  %236 = load i64, ptr %220, align 8, !tbaa !136
  %237 = load i64, ptr %222, align 8, !tbaa !136
  %238 = getelementptr inbounds i8, ptr %0, i64 %237
  %239 = and i64 %236, 1
  %240 = icmp eq i64 %239, 0
  br i1 %240, label %246, label %241

241:                                              ; preds = %234
  %242 = load ptr, ptr %238, align 8, !tbaa !81
  %243 = add i64 %236, -1
  %244 = getelementptr i8, ptr %242, i64 %243, !nosanitize !146
  %245 = load ptr, ptr %244, align 8, !nosanitize !146
  br label %248

246:                                              ; preds = %234
  %247 = inttoptr i64 %236 to ptr
  br label %248

248:                                              ; preds = %241, %246
  %249 = phi ptr [ %245, %241 ], [ %247, %246 ]
  tail call void %249(ptr noundef nonnull align 8 dereferenceable(1644) %238, i16 noundef zeroext 113)
  %250 = load i64, ptr %220, align 8, !tbaa !136
  %251 = load i64, ptr %222, align 8, !tbaa !136
  %252 = getelementptr inbounds i8, ptr %0, i64 %251
  %253 = and i64 %250, 1
  %254 = icmp eq i64 %253, 0
  br i1 %254, label %260, label %255

255:                                              ; preds = %248
  %256 = load ptr, ptr %252, align 8, !tbaa !81
  %257 = add i64 %250, -1
  %258 = getelementptr i8, ptr %256, i64 %257, !nosanitize !146
  %259 = load ptr, ptr %258, align 8, !nosanitize !146
  br label %262

260:                                              ; preds = %248
  %261 = inttoptr i64 %250 to ptr
  br label %262

262:                                              ; preds = %255, %260
  %263 = phi ptr [ %259, %255 ], [ %261, %260 ]
  tail call void %263(ptr noundef nonnull align 8 dereferenceable(1644) %252, i16 noundef zeroext 117)
  %264 = load i64, ptr %220, align 8, !tbaa !136
  %265 = load i64, ptr %222, align 8, !tbaa !136
  %266 = getelementptr inbounds i8, ptr %0, i64 %265
  %267 = and i64 %264, 1
  %268 = icmp eq i64 %267, 0
  br i1 %268, label %274, label %269

269:                                              ; preds = %262
  %270 = load ptr, ptr %266, align 8, !tbaa !81
  %271 = add i64 %264, -1
  %272 = getelementptr i8, ptr %270, i64 %271, !nosanitize !146
  %273 = load ptr, ptr %272, align 8, !nosanitize !146
  br label %276

274:                                              ; preds = %262
  %275 = inttoptr i64 %264 to ptr
  br label %276

276:                                              ; preds = %269, %274
  %277 = phi ptr [ %273, %269 ], [ %275, %274 ]
  tail call void %277(ptr noundef nonnull align 8 dereferenceable(1644) %266, i16 noundef zeroext 111)
  %278 = load i64, ptr %220, align 8, !tbaa !136
  %279 = load i64, ptr %222, align 8, !tbaa !136
  %280 = getelementptr inbounds i8, ptr %0, i64 %279
  %281 = and i64 %278, 1
  %282 = icmp eq i64 %281, 0
  br i1 %282, label %288, label %283

283:                                              ; preds = %276
  %284 = load ptr, ptr %280, align 8, !tbaa !81
  %285 = add i64 %278, -1
  %286 = getelementptr i8, ptr %284, i64 %285, !nosanitize !146
  %287 = load ptr, ptr %286, align 8, !nosanitize !146
  br label %290

288:                                              ; preds = %276
  %289 = inttoptr i64 %278 to ptr
  br label %290

290:                                              ; preds = %283, %288
  %291 = phi ptr [ %287, %283 ], [ %289, %288 ]
  tail call void %291(ptr noundef nonnull align 8 dereferenceable(1644) %280, i16 noundef zeroext 116)
  %292 = load i64, ptr %220, align 8, !tbaa !136
  %293 = load i64, ptr %222, align 8, !tbaa !136
  %294 = getelementptr inbounds i8, ptr %0, i64 %293
  %295 = and i64 %292, 1
  %296 = icmp eq i64 %295, 0
  br i1 %296, label %302, label %297

297:                                              ; preds = %290
  %298 = load ptr, ptr %294, align 8, !tbaa !81
  %299 = add i64 %292, -1
  %300 = getelementptr i8, ptr %298, i64 %299, !nosanitize !146
  %301 = load ptr, ptr %300, align 8, !nosanitize !146
  br label %304

302:                                              ; preds = %290
  %303 = inttoptr i64 %292 to ptr
  br label %304

304:                                              ; preds = %297, %302
  %305 = phi ptr [ %301, %297 ], [ %303, %302 ]
  tail call void %305(ptr noundef nonnull align 8 dereferenceable(1644) %294, i16 noundef zeroext 59)
  br label %393

306:                                              ; preds = %27
  %307 = getelementptr inbounds %"class.xalanc_1_8::FormatterToXML", ptr %0, i64 0, i32 44
  %308 = load i64, ptr %307, align 8, !tbaa !136
  %309 = getelementptr inbounds %"class.xalanc_1_8::FormatterToXML", ptr %0, i64 0, i32 44, i32 1
  %310 = load i64, ptr %309, align 8, !tbaa !136
  %311 = getelementptr inbounds i8, ptr %0, i64 %310
  %312 = and i64 %308, 1
  %313 = icmp eq i64 %312, 0
  br i1 %313, label %319, label %314

314:                                              ; preds = %306
  %315 = load ptr, ptr %311, align 8, !tbaa !81
  %316 = add i64 %308, -1
  %317 = getelementptr i8, ptr %315, i64 %316, !nosanitize !146
  %318 = load ptr, ptr %317, align 8, !nosanitize !146
  br label %321

319:                                              ; preds = %306
  %320 = inttoptr i64 %308 to ptr
  br label %321

321:                                              ; preds = %314, %319
  %322 = phi ptr [ %318, %314 ], [ %320, %319 ]
  tail call void %322(ptr noundef nonnull align 8 dereferenceable(1644) %311, i16 noundef zeroext 38)
  %323 = load i64, ptr %307, align 8, !tbaa !136
  %324 = load i64, ptr %309, align 8, !tbaa !136
  %325 = getelementptr inbounds i8, ptr %0, i64 %324
  %326 = and i64 %323, 1
  %327 = icmp eq i64 %326, 0
  br i1 %327, label %333, label %328

328:                                              ; preds = %321
  %329 = load ptr, ptr %325, align 8, !tbaa !81
  %330 = add i64 %323, -1
  %331 = getelementptr i8, ptr %329, i64 %330, !nosanitize !146
  %332 = load ptr, ptr %331, align 8, !nosanitize !146
  br label %335

333:                                              ; preds = %321
  %334 = inttoptr i64 %323 to ptr
  br label %335

335:                                              ; preds = %328, %333
  %336 = phi ptr [ %332, %328 ], [ %334, %333 ]
  tail call void %336(ptr noundef nonnull align 8 dereferenceable(1644) %325, i16 noundef zeroext 97)
  %337 = load i64, ptr %307, align 8, !tbaa !136
  %338 = load i64, ptr %309, align 8, !tbaa !136
  %339 = getelementptr inbounds i8, ptr %0, i64 %338
  %340 = and i64 %337, 1
  %341 = icmp eq i64 %340, 0
  br i1 %341, label %347, label %342

342:                                              ; preds = %335
  %343 = load ptr, ptr %339, align 8, !tbaa !81
  %344 = add i64 %337, -1
  %345 = getelementptr i8, ptr %343, i64 %344, !nosanitize !146
  %346 = load ptr, ptr %345, align 8, !nosanitize !146
  br label %349

347:                                              ; preds = %335
  %348 = inttoptr i64 %337 to ptr
  br label %349

349:                                              ; preds = %342, %347
  %350 = phi ptr [ %346, %342 ], [ %348, %347 ]
  tail call void %350(ptr noundef nonnull align 8 dereferenceable(1644) %339, i16 noundef zeroext 112)
  %351 = load i64, ptr %307, align 8, !tbaa !136
  %352 = load i64, ptr %309, align 8, !tbaa !136
  %353 = getelementptr inbounds i8, ptr %0, i64 %352
  %354 = and i64 %351, 1
  %355 = icmp eq i64 %354, 0
  br i1 %355, label %361, label %356

356:                                              ; preds = %349
  %357 = load ptr, ptr %353, align 8, !tbaa !81
  %358 = add i64 %351, -1
  %359 = getelementptr i8, ptr %357, i64 %358, !nosanitize !146
  %360 = load ptr, ptr %359, align 8, !nosanitize !146
  br label %363

361:                                              ; preds = %349
  %362 = inttoptr i64 %351 to ptr
  br label %363

363:                                              ; preds = %356, %361
  %364 = phi ptr [ %360, %356 ], [ %362, %361 ]
  tail call void %364(ptr noundef nonnull align 8 dereferenceable(1644) %353, i16 noundef zeroext 111)
  %365 = load i64, ptr %307, align 8, !tbaa !136
  %366 = load i64, ptr %309, align 8, !tbaa !136
  %367 = getelementptr inbounds i8, ptr %0, i64 %366
  %368 = and i64 %365, 1
  %369 = icmp eq i64 %368, 0
  br i1 %369, label %375, label %370

370:                                              ; preds = %363
  %371 = load ptr, ptr %367, align 8, !tbaa !81
  %372 = add i64 %365, -1
  %373 = getelementptr i8, ptr %371, i64 %372, !nosanitize !146
  %374 = load ptr, ptr %373, align 8, !nosanitize !146
  br label %377

375:                                              ; preds = %363
  %376 = inttoptr i64 %365 to ptr
  br label %377

377:                                              ; preds = %370, %375
  %378 = phi ptr [ %374, %370 ], [ %376, %375 ]
  tail call void %378(ptr noundef nonnull align 8 dereferenceable(1644) %367, i16 noundef zeroext 115)
  %379 = load i64, ptr %307, align 8, !tbaa !136
  %380 = load i64, ptr %309, align 8, !tbaa !136
  %381 = getelementptr inbounds i8, ptr %0, i64 %380
  %382 = and i64 %379, 1
  %383 = icmp eq i64 %382, 0
  br i1 %383, label %389, label %384

384:                                              ; preds = %377
  %385 = load ptr, ptr %381, align 8, !tbaa !81
  %386 = add i64 %379, -1
  %387 = getelementptr i8, ptr %385, i64 %386, !nosanitize !146
  %388 = load ptr, ptr %387, align 8, !nosanitize !146
  br label %391

389:                                              ; preds = %377
  %390 = inttoptr i64 %379 to ptr
  br label %391

391:                                              ; preds = %384, %389
  %392 = phi ptr [ %388, %384 ], [ %390, %389 ]
  tail call void %392(ptr noundef nonnull align 8 dereferenceable(1644) %381, i16 noundef zeroext 59)
  br label %393

393:                                              ; preds = %25, %144, %304, %391, %217, %85, %27
  %394 = phi i1 [ false, %27 ], [ true, %85 ], [ true, %217 ], [ true, %391 ], [ true, %304 ], [ true, %144 ], [ true, %25 ]
  ret i1 %394
}

; Function Attrs: uwtable
define dso_local void @_ZN10xalanc_1_814FormatterToXML11flushWriterEv(ptr nocapture noundef nonnull readonly align 8 dereferenceable(1644) %0) local_unnamed_addr #1 align 2 {
  %2 = getelementptr inbounds %"class.xalanc_1_8::FormatterToXML", ptr %0, i64 0, i32 2
  %3 = load ptr, ptr %2, align 8, !tbaa !84
  %4 = load ptr, ptr %3, align 8, !tbaa !81
  %5 = getelementptr inbounds ptr, ptr %4, i64 3
  %6 = load ptr, ptr %5, align 8
  tail call void %6(ptr noundef nonnull align 8 dereferenceable(8) %3)
  ret void
}

; Function Attrs: mustprogress nofree norecurse nosync nounwind willreturn memory(none) uwtable
define dso_local void @_ZN10xalanc_1_814FormatterToXML18setDocumentLocatorEPKN11xercesc_2_57LocatorE(ptr nocapture nonnull align 8 %0, ptr nocapture %1) unnamed_addr #9 align 2 {
  ret void
}

; Function Attrs: uwtable
define dso_local void @_ZN10xalanc_1_814FormatterToXML13startDocumentEv(ptr noundef nonnull align 8 dereferenceable(1644) %0) unnamed_addr #1 align 2 {
  %2 = getelementptr inbounds %"class.xalanc_1_8::FormatterToXML", ptr %0, i64 0, i32 24
  %3 = load ptr, ptr %2, align 8, !tbaa !126
  %4 = getelementptr inbounds %"class.xalanc_1_8::FormatterToXML", ptr %0, i64 0, i32 24, i32 0, i32 0, i32 0, i32 0, i32 1
  %5 = load ptr, ptr %4, align 8, !tbaa !126
  %6 = icmp eq ptr %3, %5
  br i1 %6, label %8, label %7

7:                                                ; preds = %1
  store ptr %3, ptr %4, align 8, !tbaa !134
  br label %8

8:                                                ; preds = %1, %7
  %9 = getelementptr inbounds %"class.xalanc_1_8::FormatterToXML", ptr %0, i64 0, i32 24, i32 1
  store i32 0, ptr %9, align 8, !tbaa !115
  %10 = getelementptr inbounds %"class.xalanc_1_8::FormatterToXML", ptr %0, i64 0, i32 29
  %11 = load i8, ptr %10, align 4, !tbaa !125, !range !132, !noundef !146
  %12 = icmp eq i8 %11, 0
  br i1 %12, label %13, label %172

13:                                               ; preds = %8
  %14 = getelementptr inbounds %"class.xalanc_1_8::FormatterToXML", ptr %0, i64 0, i32 11
  store i8 1, ptr %14, align 2, !tbaa !114
  %15 = getelementptr inbounds %"class.xalanc_1_8::FormatterToXML", ptr %0, i64 0, i32 10
  store i8 0, ptr %15, align 1, !tbaa !113
  %16 = getelementptr inbounds %"class.xalanc_1_8::FormatterToXML", ptr %0, i64 0, i32 7
  %17 = load i8, ptr %16, align 2, !tbaa !110, !range !132, !noundef !146
  %18 = icmp eq i8 %17, 0
  br i1 %18, label %172, label %19

19:                                               ; preds = %13
  %20 = getelementptr inbounds %"class.xalanc_1_8::FormatterToXML", ptr %0, i64 0, i32 43
  %21 = load i64, ptr %20, align 8, !tbaa !141
  %22 = getelementptr inbounds %"class.xalanc_1_8::FormatterToXML", ptr %0, i64 0, i32 43, i32 1
  %23 = load i64, ptr %22, align 8, !tbaa !141
  %24 = getelementptr inbounds i8, ptr %0, i64 %23
  %25 = and i64 %21, 1
  %26 = icmp eq i64 %25, 0
  br i1 %26, label %32, label %27

27:                                               ; preds = %19
  %28 = load ptr, ptr %24, align 8, !tbaa !81
  %29 = add i64 %21, -1
  %30 = getelementptr i8, ptr %28, i64 %29, !nosanitize !146
  %31 = load ptr, ptr %30, align 8, !nosanitize !146
  br label %34

32:                                               ; preds = %19
  %33 = inttoptr i64 %21 to ptr
  br label %34

34:                                               ; preds = %27, %32
  %35 = phi ptr [ %31, %27 ], [ %33, %32 ]
  tail call void %35(ptr noundef nonnull align 8 dereferenceable(1644) %24, ptr noundef nonnull @_ZN10xalanc_1_814FormatterToXML22s_xmlHeaderStartStringE, i32 noundef 0, i32 noundef 15)
  %36 = getelementptr inbounds %"class.xalanc_1_8::FormatterToXML", ptr %0, i64 0, i32 31
  %37 = getelementptr inbounds %"class.xalanc_1_8::FormatterToXML", ptr %0, i64 0, i32 31, i32 1
  %38 = load i32, ptr %37, align 8, !tbaa !115
  %39 = icmp eq i32 %38, 0
  br i1 %39, label %57, label %40

40:                                               ; preds = %34
  %41 = getelementptr inbounds %"class.xalanc_1_8::FormatterToXML", ptr %0, i64 0, i32 42
  %42 = load i64, ptr %41, align 8, !tbaa !139
  %43 = getelementptr inbounds %"class.xalanc_1_8::FormatterToXML", ptr %0, i64 0, i32 42, i32 1
  %44 = load i64, ptr %43, align 8, !tbaa !139
  %45 = getelementptr inbounds i8, ptr %0, i64 %44
  %46 = and i64 %42, 1
  %47 = icmp eq i64 %46, 0
  br i1 %47, label %53, label %48

48:                                               ; preds = %40
  %49 = load ptr, ptr %45, align 8, !tbaa !81
  %50 = add i64 %42, -1
  %51 = getelementptr i8, ptr %49, i64 %50, !nosanitize !146
  %52 = load ptr, ptr %51, align 8, !nosanitize !146
  br label %55

53:                                               ; preds = %40
  %54 = inttoptr i64 %42 to ptr
  br label %55

55:                                               ; preds = %48, %53
  %56 = phi ptr [ %52, %48 ], [ %54, %53 ]
  tail call void %56(ptr noundef nonnull align 8 dereferenceable(1644) %45, ptr noundef nonnull align 8 dereferenceable(28) %36)
  br label %72

57:                                               ; preds = %34
  %58 = load i64, ptr %20, align 8, !tbaa !141
  %59 = load i64, ptr %22, align 8, !tbaa !141
  %60 = getelementptr inbounds i8, ptr %0, i64 %59
  %61 = and i64 %58, 1
  %62 = icmp eq i64 %61, 0
  br i1 %62, label %68, label %63

63:                                               ; preds = %57
  %64 = load ptr, ptr %60, align 8, !tbaa !81
  %65 = add i64 %58, -1
  %66 = getelementptr i8, ptr %64, i64 %65, !nosanitize !146
  %67 = load ptr, ptr %66, align 8, !nosanitize !146
  br label %70

68:                                               ; preds = %57
  %69 = inttoptr i64 %58 to ptr
  br label %70

70:                                               ; preds = %63, %68
  %71 = phi ptr [ %67, %63 ], [ %69, %68 ]
  tail call void %71(ptr noundef nonnull align 8 dereferenceable(1644) %60, ptr noundef nonnull @_ZN10xalanc_1_814FormatterToXML22s_defaultVersionStringE, i32 noundef 0, i32 noundef 3)
  br label %72

72:                                               ; preds = %70, %55
  %73 = load i64, ptr %20, align 8, !tbaa !141
  %74 = load i64, ptr %22, align 8, !tbaa !141
  %75 = getelementptr inbounds i8, ptr %0, i64 %74
  %76 = and i64 %73, 1
  %77 = icmp eq i64 %76, 0
  br i1 %77, label %83, label %78

78:                                               ; preds = %72
  %79 = load ptr, ptr %75, align 8, !tbaa !81
  %80 = add i64 %73, -1
  %81 = getelementptr i8, ptr %79, i64 %80, !nosanitize !146
  %82 = load ptr, ptr %81, align 8, !nosanitize !146
  br label %85

83:                                               ; preds = %72
  %84 = inttoptr i64 %73 to ptr
  br label %85

85:                                               ; preds = %78, %83
  %86 = phi ptr [ %82, %78 ], [ %84, %83 ]
  tail call void %86(ptr noundef nonnull align 8 dereferenceable(1644) %75, ptr noundef nonnull @_ZN10xalanc_1_814FormatterToXML25s_xmlHeaderEncodingStringE, i32 noundef 0, i32 noundef 12)
  %87 = getelementptr inbounds %"class.xalanc_1_8::FormatterToXML", ptr %0, i64 0, i32 20
  %88 = getelementptr inbounds %"class.xalanc_1_8::FormatterToXML", ptr %0, i64 0, i32 42
  %89 = load i64, ptr %88, align 8, !tbaa !139
  %90 = getelementptr inbounds %"class.xalanc_1_8::FormatterToXML", ptr %0, i64 0, i32 42, i32 1
  %91 = load i64, ptr %90, align 8, !tbaa !139
  %92 = getelementptr inbounds i8, ptr %0, i64 %91
  %93 = and i64 %89, 1
  %94 = icmp eq i64 %93, 0
  br i1 %94, label %100, label %95

95:                                               ; preds = %85
  %96 = load ptr, ptr %92, align 8, !tbaa !81
  %97 = add i64 %89, -1
  %98 = getelementptr i8, ptr %96, i64 %97, !nosanitize !146
  %99 = load ptr, ptr %98, align 8, !nosanitize !146
  br label %102

100:                                              ; preds = %85
  %101 = inttoptr i64 %89 to ptr
  br label %102

102:                                              ; preds = %95, %100
  %103 = phi ptr [ %99, %95 ], [ %101, %100 ]
  tail call void %103(ptr noundef nonnull align 8 dereferenceable(1644) %92, ptr noundef nonnull align 8 dereferenceable(28) %87)
  %104 = getelementptr inbounds %"class.xalanc_1_8::FormatterToXML", ptr %0, i64 0, i32 32
  %105 = getelementptr inbounds %"class.xalanc_1_8::FormatterToXML", ptr %0, i64 0, i32 32, i32 1
  %106 = load i32, ptr %105, align 8, !tbaa !115
  %107 = icmp eq i32 %106, 0
  br i1 %107, label %137, label %108

108:                                              ; preds = %102
  %109 = load i64, ptr %20, align 8, !tbaa !141
  %110 = load i64, ptr %22, align 8, !tbaa !141
  %111 = getelementptr inbounds i8, ptr %0, i64 %110
  %112 = and i64 %109, 1
  %113 = icmp eq i64 %112, 0
  br i1 %113, label %119, label %114

114:                                              ; preds = %108
  %115 = load ptr, ptr %111, align 8, !tbaa !81
  %116 = add i64 %109, -1
  %117 = getelementptr i8, ptr %115, i64 %116, !nosanitize !146
  %118 = load ptr, ptr %117, align 8, !nosanitize !146
  br label %121

119:                                              ; preds = %108
  %120 = inttoptr i64 %109 to ptr
  br label %121

121:                                              ; preds = %114, %119
  %122 = phi ptr [ %118, %114 ], [ %120, %119 ]
  tail call void %122(ptr noundef nonnull align 8 dereferenceable(1644) %111, ptr noundef nonnull @_ZN10xalanc_1_814FormatterToXML27s_xmlHeaderStandaloneStringE, i32 noundef 0, i32 noundef 14)
  %123 = load i64, ptr %88, align 8, !tbaa !139
  %124 = load i64, ptr %90, align 8, !tbaa !139
  %125 = getelementptr inbounds i8, ptr %0, i64 %124
  %126 = and i64 %123, 1
  %127 = icmp eq i64 %126, 0
  br i1 %127, label %133, label %128

128:                                              ; preds = %121
  %129 = load ptr, ptr %125, align 8, !tbaa !81
  %130 = add i64 %123, -1
  %131 = getelementptr i8, ptr %129, i64 %130, !nosanitize !146
  %132 = load ptr, ptr %131, align 8, !nosanitize !146
  br label %135

133:                                              ; preds = %121
  %134 = inttoptr i64 %123 to ptr
  br label %135

135:                                              ; preds = %128, %133
  %136 = phi ptr [ %132, %128 ], [ %134, %133 ]
  tail call void %136(ptr noundef nonnull align 8 dereferenceable(1644) %125, ptr noundef nonnull align 8 dereferenceable(28) %104)
  br label %137

137:                                              ; preds = %135, %102
  %138 = load i64, ptr %20, align 8, !tbaa !141
  %139 = load i64, ptr %22, align 8, !tbaa !141
  %140 = getelementptr inbounds i8, ptr %0, i64 %139
  %141 = and i64 %138, 1
  %142 = icmp eq i64 %141, 0
  br i1 %142, label %148, label %143

143:                                              ; preds = %137
  %144 = load ptr, ptr %140, align 8, !tbaa !81
  %145 = add i64 %138, -1
  %146 = getelementptr i8, ptr %144, i64 %145, !nosanitize !146
  %147 = load ptr, ptr %146, align 8, !nosanitize !146
  br label %150

148:                                              ; preds = %137
  %149 = inttoptr i64 %138 to ptr
  br label %150

150:                                              ; preds = %143, %148
  %151 = phi ptr [ %147, %143 ], [ %149, %148 ]
  tail call void %151(ptr noundef nonnull align 8 dereferenceable(1644) %140, ptr noundef nonnull @_ZN10xalanc_1_814FormatterToXML20s_xmlHeaderEndStringE, i32 noundef 0, i32 noundef 3)
  %152 = getelementptr inbounds %"class.xalanc_1_8::FormatterToXML", ptr %0, i64 0, i32 49
  %153 = load ptr, ptr %152, align 8, !tbaa !128
  %154 = getelementptr inbounds %"class.xalanc_1_8::FormatterToXML", ptr %0, i64 0, i32 50
  %155 = load i32, ptr %154, align 8, !tbaa !130
  %156 = getelementptr inbounds %"class.xalanc_1_8::FormatterToXML", ptr %0, i64 0, i32 47
  %157 = load i64, ptr %156, align 8, !tbaa !142
  %158 = getelementptr inbounds %"class.xalanc_1_8::FormatterToXML", ptr %0, i64 0, i32 47, i32 1
  %159 = load i64, ptr %158, align 8, !tbaa !142
  %160 = getelementptr inbounds i8, ptr %0, i64 %159
  %161 = and i64 %157, 1
  %162 = icmp eq i64 %161, 0
  br i1 %162, label %168, label %163

163:                                              ; preds = %150
  %164 = load ptr, ptr %160, align 8, !tbaa !81
  %165 = add i64 %157, -1
  %166 = getelementptr i8, ptr %164, i64 %165, !nosanitize !146
  %167 = load ptr, ptr %166, align 8, !nosanitize !146
  br label %170

168:                                              ; preds = %150
  %169 = inttoptr i64 %157 to ptr
  br label %170

170:                                              ; preds = %163, %168
  %171 = phi ptr [ %167, %163 ], [ %169, %168 ]
  tail call void %171(ptr noundef nonnull align 8 dereferenceable(1644) %160, ptr noundef %153, i32 noundef 0, i32 noundef %155)
  br label %172

172:                                              ; preds = %13, %170, %8
  ret void
}

; Function Attrs: uwtable
define dso_local void @_ZN10xalanc_1_814FormatterToXML11endDocumentEv(ptr noundef nonnull align 8 dereferenceable(1644) %0) unnamed_addr #1 align 2 {
  %2 = getelementptr inbounds %"class.xalanc_1_8::FormatterToXML", ptr %0, i64 0, i32 9
  %3 = load i8, ptr %2, align 4, !tbaa !112, !range !132, !noundef !146
  %4 = icmp ne i8 %3, 0
  %5 = getelementptr inbounds %"class.xalanc_1_8::FormatterToXML", ptr %0, i64 0, i32 12
  %6 = load i8, ptr %5, align 1, !range !132
  %7 = icmp eq i8 %6, 0
  %8 = select i1 %4, i1 %7, i1 false
  br i1 %8, label %9, label %30

9:                                                ; preds = %1
  %10 = getelementptr inbounds %"class.xalanc_1_8::FormatterToXML", ptr %0, i64 0, i32 49
  %11 = load ptr, ptr %10, align 8, !tbaa !128
  %12 = getelementptr inbounds %"class.xalanc_1_8::FormatterToXML", ptr %0, i64 0, i32 50
  %13 = load i32, ptr %12, align 8, !tbaa !130
  %14 = getelementptr inbounds %"class.xalanc_1_8::FormatterToXML", ptr %0, i64 0, i32 47
  %15 = load i64, ptr %14, align 8, !tbaa !142
  %16 = getelementptr inbounds %"class.xalanc_1_8::FormatterToXML", ptr %0, i64 0, i32 47, i32 1
  %17 = load i64, ptr %16, align 8, !tbaa !142
  %18 = getelementptr inbounds i8, ptr %0, i64 %17
  %19 = and i64 %15, 1
  %20 = icmp eq i64 %19, 0
  br i1 %20, label %26, label %21

21:                                               ; preds = %9
  %22 = load ptr, ptr %18, align 8, !tbaa !81
  %23 = add i64 %15, -1
  %24 = getelementptr i8, ptr %22, i64 %23, !nosanitize !146
  %25 = load ptr, ptr %24, align 8, !nosanitize !146
  br label %28

26:                                               ; preds = %9
  %27 = inttoptr i64 %15 to ptr
  br label %28

28:                                               ; preds = %21, %26
  %29 = phi ptr [ %25, %21 ], [ %27, %26 ]
  tail call void %29(ptr noundef nonnull align 8 dereferenceable(1644) %18, ptr noundef %11, i32 noundef 0, i32 noundef %13)
  br label %30

30:                                               ; preds = %28, %1
  %31 = getelementptr inbounds %"class.xalanc_1_8::FormatterToXML", ptr %0, i64 0, i32 26
  %32 = load i8, ptr %31, align 1, !tbaa !122, !range !132, !noundef !146
  %33 = icmp eq i8 %32, 0
  br i1 %33, label %51, label %34

34:                                               ; preds = %30
  %35 = getelementptr inbounds %"class.xalanc_1_8::FormatterToXML", ptr %0, i64 0, i32 48
  %36 = load i64, ptr %35, align 8, !tbaa !143
  %37 = getelementptr inbounds %"class.xalanc_1_8::FormatterToXML", ptr %0, i64 0, i32 48, i32 1
  %38 = load i64, ptr %37, align 8, !tbaa !143
  %39 = getelementptr inbounds i8, ptr %0, i64 %38
  %40 = and i64 %36, 1
  %41 = icmp eq i64 %40, 0
  br i1 %41, label %47, label %42

42:                                               ; preds = %34
  %43 = load ptr, ptr %39, align 8, !tbaa !81
  %44 = add i64 %36, -1
  %45 = getelementptr i8, ptr %43, i64 %44, !nosanitize !146
  %46 = load ptr, ptr %45, align 8, !nosanitize !146
  br label %49

47:                                               ; preds = %34
  %48 = inttoptr i64 %36 to ptr
  br label %49

49:                                               ; preds = %47, %42
  %50 = phi ptr [ %46, %42 ], [ %48, %47 ]
  tail call void %50(ptr noundef nonnull align 8 dereferenceable(1644) %39)
  br label %51

51:                                               ; preds = %49, %30
  %52 = getelementptr inbounds %"class.xalanc_1_8::FormatterToXML", ptr %0, i64 0, i32 2
  %53 = load ptr, ptr %52, align 8, !tbaa !84
  %54 = load ptr, ptr %53, align 8, !tbaa !81
  %55 = getelementptr inbounds ptr, ptr %54, i64 3
  %56 = load ptr, ptr %55, align 8
  tail call void %56(ptr noundef nonnull align 8 dereferenceable(8) %53)
  ret void
}

; Function Attrs: uwtable
define dso_local void @_ZN10xalanc_1_814FormatterToXML12startElementEPKtRN11xercesc_2_513AttributeListE(ptr noundef nonnull align 8 dereferenceable(1644) %0, ptr noundef %1, ptr noundef nonnull align 8 dereferenceable(8) %2) unnamed_addr #1 align 2 {
  %4 = getelementptr inbounds %"class.xalanc_1_8::FormatterToXML", ptr %0, i64 0, i32 29
  %5 = load i8, ptr %4, align 4, !tbaa !125, !range !132, !noundef !146
  %6 = icmp eq i8 %5, 0
  br i1 %6, label %7, label %158

7:                                                ; preds = %3
  %8 = getelementptr inbounds %"class.xalanc_1_8::FormatterToXML", ptr %0, i64 0, i32 11
  %9 = load i8, ptr %8, align 2, !tbaa !114, !range !132, !noundef !146
  %10 = icmp eq i8 %9, 0
  %11 = getelementptr inbounds %"class.xalanc_1_8::FormatterToXML", ptr %0, i64 0, i32 18, i32 1
  %12 = load i32, ptr %11, align 8
  %13 = icmp eq i32 %12, 0
  %14 = select i1 %10, i1 true, i1 %13
  br i1 %14, label %16, label %15

15:                                               ; preds = %7
  tail call void @_ZN10xalanc_1_814FormatterToXML17outputDocTypeDeclEPKt(ptr noundef nonnull align 8 dereferenceable(1644) %0, ptr noundef %1)
  store i8 0, ptr %8, align 2, !tbaa !114
  br label %16

16:                                               ; preds = %15, %7
  tail call void @_ZN10xalanc_1_814FormatterToXML17writeParentTagEndEv(ptr noundef nonnull align 8 dereferenceable(1644) %0)
  %17 = getelementptr inbounds %"class.xalanc_1_8::FormatterToXML", ptr %0, i64 0, i32 8
  store i8 0, ptr %17, align 1, !tbaa !111
  %18 = getelementptr inbounds %"class.xalanc_1_8::FormatterToXML", ptr %0, i64 0, i32 9
  %19 = load i8, ptr %18, align 4, !tbaa !112, !range !132, !noundef !146
  %20 = icmp eq i8 %19, 0
  br i1 %20, label %21, label %23

21:                                               ; preds = %16
  %22 = getelementptr inbounds %"class.xalanc_1_8::FormatterToXML", ptr %0, i64 0, i32 10
  br label %79

23:                                               ; preds = %16
  %24 = getelementptr inbounds %"class.xalanc_1_8::FormatterToXML", ptr %0, i64 0, i32 12
  %25 = load i8, ptr %24, align 1, !tbaa !166, !range !132, !noundef !146
  %26 = icmp ne i8 %25, 0
  %27 = getelementptr inbounds %"class.xalanc_1_8::FormatterToXML", ptr %0, i64 0, i32 10
  %28 = load i8, ptr %27, align 1, !range !132
  %29 = icmp eq i8 %28, 0
  %30 = select i1 %26, i1 true, i1 %29
  br i1 %30, label %79, label %31

31:                                               ; preds = %23
  %32 = getelementptr inbounds %"class.xalanc_1_8::FormatterToXML", ptr %0, i64 0, i32 21
  %33 = load i32, ptr %32, align 8, !tbaa !116
  %34 = getelementptr inbounds %"class.xalanc_1_8::FormatterToXML", ptr %0, i64 0, i32 49
  %35 = load ptr, ptr %34, align 8, !tbaa !128
  %36 = getelementptr inbounds %"class.xalanc_1_8::FormatterToXML", ptr %0, i64 0, i32 50
  %37 = load i32, ptr %36, align 8, !tbaa !130
  %38 = getelementptr inbounds %"class.xalanc_1_8::FormatterToXML", ptr %0, i64 0, i32 47
  %39 = load i64, ptr %38, align 8, !tbaa !142
  %40 = getelementptr inbounds %"class.xalanc_1_8::FormatterToXML", ptr %0, i64 0, i32 47, i32 1
  %41 = load i64, ptr %40, align 8, !tbaa !142
  %42 = getelementptr inbounds i8, ptr %0, i64 %41
  %43 = and i64 %39, 1
  %44 = icmp eq i64 %43, 0
  br i1 %44, label %50, label %45

45:                                               ; preds = %31
  %46 = load ptr, ptr %42, align 8, !tbaa !81
  %47 = add i64 %39, -1
  %48 = getelementptr i8, ptr %46, i64 %47, !nosanitize !146
  %49 = load ptr, ptr %48, align 8, !nosanitize !146
  br label %52

50:                                               ; preds = %31
  %51 = inttoptr i64 %39 to ptr
  br label %52

52:                                               ; preds = %45, %50
  %53 = phi ptr [ %49, %45 ], [ %51, %50 ]
  tail call void %53(ptr noundef nonnull align 8 dereferenceable(1644) %42, ptr noundef %35, i32 noundef 0, i32 noundef %37)
  %54 = load i8, ptr %18, align 4, !tbaa !112, !range !132, !noundef !146
  %55 = icmp ne i8 %54, 0
  %56 = icmp sgt i32 %33, 0
  %57 = and i1 %56, %55
  br i1 %57, label %58, label %79

58:                                               ; preds = %52
  %59 = getelementptr inbounds %"class.xalanc_1_8::FormatterToXML", ptr %0, i64 0, i32 44
  %60 = getelementptr inbounds %"class.xalanc_1_8::FormatterToXML", ptr %0, i64 0, i32 44, i32 1
  br label %61

61:                                               ; preds = %75, %58
  %62 = phi i32 [ 0, %58 ], [ %77, %75 ]
  %63 = load i64, ptr %59, align 8, !tbaa !136
  %64 = load i64, ptr %60, align 8, !tbaa !136
  %65 = getelementptr inbounds i8, ptr %0, i64 %64
  %66 = and i64 %63, 1
  %67 = icmp eq i64 %66, 0
  br i1 %67, label %73, label %68

68:                                               ; preds = %61
  %69 = load ptr, ptr %65, align 8, !tbaa !81
  %70 = add i64 %63, -1
  %71 = getelementptr i8, ptr %69, i64 %70, !nosanitize !146
  %72 = load ptr, ptr %71, align 8, !nosanitize !146
  br label %75

73:                                               ; preds = %61
  %74 = inttoptr i64 %63 to ptr
  br label %75

75:                                               ; preds = %73, %68
  %76 = phi ptr [ %72, %68 ], [ %74, %73 ]
  tail call void %76(ptr noundef nonnull align 8 dereferenceable(1644) %65, i16 noundef zeroext 32)
  %77 = add nuw nsw i32 %62, 1
  %78 = icmp eq i32 %77, %33
  br i1 %78, label %79, label %61

79:                                               ; preds = %75, %52, %21, %23
  %80 = phi ptr [ %22, %21 ], [ %27, %23 ], [ %27, %52 ], [ %27, %75 ]
  store i8 1, ptr %80, align 1, !tbaa !113
  %81 = getelementptr inbounds %"class.xalanc_1_8::FormatterToXML", ptr %0, i64 0, i32 40
  %82 = load i64, ptr %81, align 8, !tbaa !135
  %83 = getelementptr inbounds %"class.xalanc_1_8::FormatterToXML", ptr %0, i64 0, i32 40, i32 1
  %84 = load i64, ptr %83, align 8, !tbaa !135
  %85 = getelementptr inbounds i8, ptr %0, i64 %84
  %86 = and i64 %82, 1
  %87 = icmp eq i64 %86, 0
  br i1 %87, label %93, label %88

88:                                               ; preds = %79
  %89 = load ptr, ptr %85, align 8, !tbaa !81
  %90 = add i64 %82, -1
  %91 = getelementptr i8, ptr %89, i64 %90, !nosanitize !146
  %92 = load ptr, ptr %91, align 8, !nosanitize !146
  br label %95

93:                                               ; preds = %79
  %94 = inttoptr i64 %82 to ptr
  br label %95

95:                                               ; preds = %88, %93
  %96 = phi ptr [ %92, %88 ], [ %94, %93 ]
  tail call void %96(ptr noundef nonnull align 8 dereferenceable(1644) %85, i16 noundef zeroext 60)
  %97 = getelementptr inbounds %"class.xalanc_1_8::FormatterToXML", ptr %0, i64 0, i32 41
  %98 = load i64, ptr %97, align 8, !tbaa !137
  %99 = getelementptr inbounds %"class.xalanc_1_8::FormatterToXML", ptr %0, i64 0, i32 41, i32 1
  %100 = load i64, ptr %99, align 8, !tbaa !137
  %101 = getelementptr inbounds i8, ptr %0, i64 %100
  %102 = and i64 %98, 1
  %103 = icmp eq i64 %102, 0
  br i1 %103, label %109, label %104

104:                                              ; preds = %95
  %105 = load ptr, ptr %101, align 8, !tbaa !81
  %106 = add i64 %98, -1
  %107 = getelementptr i8, ptr %105, i64 %106, !nosanitize !146
  %108 = load ptr, ptr %107, align 8, !nosanitize !146
  br label %111

109:                                              ; preds = %95
  %110 = inttoptr i64 %98 to ptr
  br label %111

111:                                              ; preds = %104, %109
  %112 = phi ptr [ %108, %104 ], [ %110, %109 ]
  tail call void %112(ptr noundef nonnull align 8 dereferenceable(1644) %101, ptr noundef %1)
  %113 = load ptr, ptr %2, align 8, !tbaa !81
  %114 = getelementptr inbounds ptr, ptr %113, i64 2
  %115 = load ptr, ptr %114, align 8
  %116 = tail call noundef i32 %115(ptr noundef nonnull align 8 dereferenceable(8) %2)
  %117 = icmp eq i32 %116, 0
  br i1 %117, label %118, label %146

118:                                              ; preds = %146, %111
  %119 = getelementptr inbounds %"class.xalanc_1_8::FormatterToXML", ptr %0, i64 0, i32 39, i32 0, i32 0, i32 0, i32 1
  %120 = load ptr, ptr %119, align 8
  %121 = getelementptr inbounds %"class.xalanc_1_8::FormatterToXML", ptr %0, i64 0, i32 39, i32 0, i32 0, i32 0, i32 2
  %122 = load ptr, ptr %121, align 8, !tbaa !120
  %123 = icmp eq ptr %120, %122
  %124 = getelementptr inbounds %"class.xalanc_1_8::FormatterToXML", ptr %0, i64 0, i32 39, i32 0, i32 0, i32 0, i32 1, i32 0, i32 1
  %125 = load i32, ptr %124, align 8
  br i1 %123, label %137, label %126

126:                                              ; preds = %118
  %127 = add i32 %125, 1
  store i32 %127, ptr %124, align 8, !tbaa !119
  %128 = icmp eq i32 %125, 63
  br i1 %128, label %129, label %131

129:                                              ; preds = %126
  store i32 0, ptr %124, align 8, !tbaa !119
  %130 = getelementptr inbounds i64, ptr %120, i64 1
  store ptr %130, ptr %119, align 8, !tbaa !118
  br label %131

131:                                              ; preds = %129, %126
  %132 = zext i32 %125 to i64
  %133 = shl nuw i64 1, %132
  %134 = xor i64 %133, -1
  %135 = load i64, ptr %120, align 8, !tbaa !167
  %136 = and i64 %135, %134
  store i64 %136, ptr %120, align 8, !tbaa !167
  br label %139

137:                                              ; preds = %118
  %138 = getelementptr inbounds %"class.xalanc_1_8::FormatterToXML", ptr %0, i64 0, i32 39
  tail call void @_ZNSt6vectorIbSaIbEE13_M_insert_auxESt13_Bit_iteratorb(ptr noundef nonnull align 8 dereferenceable(40) %138, ptr %120, i32 %125, i1 noundef zeroext false)
  br label %139

139:                                              ; preds = %131, %137
  %140 = getelementptr inbounds %"class.xalanc_1_8::FormatterToXML", ptr %0, i64 0, i32 22
  %141 = load i32, ptr %140, align 4, !tbaa !117
  %142 = getelementptr inbounds %"class.xalanc_1_8::FormatterToXML", ptr %0, i64 0, i32 21
  %143 = load i32, ptr %142, align 8, !tbaa !116
  %144 = add nsw i32 %143, %141
  store i32 %144, ptr %142, align 8, !tbaa !116
  %145 = getelementptr inbounds %"class.xalanc_1_8::FormatterToXML", ptr %0, i64 0, i32 12
  store i8 0, ptr %145, align 1, !tbaa !166
  br label %158

146:                                              ; preds = %111, %146
  %147 = phi i32 [ %156, %146 ], [ 0, %111 ]
  %148 = load ptr, ptr %2, align 8, !tbaa !81
  %149 = getelementptr inbounds ptr, ptr %148, i64 3
  %150 = load ptr, ptr %149, align 8
  %151 = tail call noundef ptr %150(ptr noundef nonnull align 8 dereferenceable(8) %2, i32 noundef %147)
  %152 = load ptr, ptr %2, align 8, !tbaa !81
  %153 = getelementptr inbounds ptr, ptr %152, i64 5
  %154 = load ptr, ptr %153, align 8
  %155 = tail call noundef ptr %154(ptr noundef nonnull align 8 dereferenceable(8) %2, i32 noundef %147)
  tail call void @_ZN10xalanc_1_814FormatterToXML16processAttributeEPKtS2_(ptr noundef nonnull align 8 dereferenceable(1644) %0, ptr noundef %151, ptr noundef %155)
  %156 = add nuw i32 %147, 1
  %157 = icmp eq i32 %156, %116
  br i1 %157, label %118, label %146

158:                                              ; preds = %139, %3
  ret void
}

; Function Attrs: uwtable
define dso_local void @_ZN10xalanc_1_814FormatterToXML17writeParentTagEndEv(ptr noundef nonnull align 8 dereferenceable(1644) %0) local_unnamed_addr #1 align 2 {
  %2 = getelementptr inbounds %"class.xalanc_1_8::FormatterToXML", ptr %0, i64 0, i32 39
  %3 = load ptr, ptr %2, align 8, !tbaa !118
  %4 = getelementptr inbounds %"class.xalanc_1_8::FormatterToXML", ptr %0, i64 0, i32 39, i32 0, i32 0, i32 0, i32 1
  %5 = load ptr, ptr %4, align 8
  %6 = getelementptr inbounds %"class.xalanc_1_8::FormatterToXML", ptr %0, i64 0, i32 39, i32 0, i32 0, i32 0, i32 1, i32 0, i32 1
  %7 = load i32, ptr %6, align 8
  %8 = icmp eq ptr %3, %5
  %9 = icmp eq i32 %7, 0
  %10 = select i1 %8, i1 %9, i1 false
  br i1 %10, label %88, label %11

11:                                               ; preds = %1
  %12 = zext i32 %7 to i64
  %13 = add nsw i64 %12, -1
  %14 = sdiv i64 %13, 64
  %15 = getelementptr inbounds i64, ptr %5, i64 %14
  %16 = srem i64 %13, 64
  %17 = icmp slt i64 %16, 0
  %18 = add nsw i64 %16, 64
  %19 = ashr i64 %16, 63
  %20 = getelementptr inbounds i64, ptr %15, i64 %19
  %21 = select i1 %17, i64 %18, i64 %16
  %22 = and i64 %21, 4294967295
  %23 = shl nuw i64 1, %22
  %24 = load i64, ptr %20, align 8, !tbaa !167
  %25 = and i64 %24, %23
  %26 = icmp eq i64 %25, 0
  br i1 %26, label %27, label %88

27:                                               ; preds = %11
  %28 = getelementptr inbounds %"class.xalanc_1_8::FormatterToXML", ptr %0, i64 0, i32 44
  %29 = load i64, ptr %28, align 8, !tbaa !136
  %30 = getelementptr inbounds %"class.xalanc_1_8::FormatterToXML", ptr %0, i64 0, i32 44, i32 1
  %31 = load i64, ptr %30, align 8, !tbaa !136
  %32 = getelementptr inbounds i8, ptr %0, i64 %31
  %33 = and i64 %29, 1
  %34 = icmp eq i64 %33, 0
  br i1 %34, label %40, label %35

35:                                               ; preds = %27
  %36 = load ptr, ptr %32, align 8, !tbaa !81
  %37 = add i64 %29, -1
  %38 = getelementptr i8, ptr %36, i64 %37, !nosanitize !146
  %39 = load ptr, ptr %38, align 8, !nosanitize !146
  br label %42

40:                                               ; preds = %27
  %41 = inttoptr i64 %29 to ptr
  br label %42

42:                                               ; preds = %35, %40
  %43 = phi ptr [ %39, %35 ], [ %41, %40 ]
  tail call void %43(ptr noundef nonnull align 8 dereferenceable(1644) %32, i16 noundef zeroext 62)
  %44 = getelementptr inbounds %"class.xalanc_1_8::FormatterToXML", ptr %0, i64 0, i32 12
  store i8 0, ptr %44, align 1, !tbaa !166
  %45 = load ptr, ptr %4, align 8
  %46 = load i32, ptr %6, align 8
  %47 = zext i32 %46 to i64
  %48 = add nsw i64 %47, -1
  %49 = sdiv i64 %48, 64
  %50 = getelementptr inbounds i64, ptr %45, i64 %49
  %51 = srem i64 %48, 64
  %52 = icmp slt i64 %51, 0
  %53 = add nsw i64 %51, 64
  %54 = ashr i64 %51, 63
  %55 = getelementptr inbounds i64, ptr %50, i64 %54
  %56 = select i1 %52, i64 %53, i64 %51
  %57 = and i64 %56, 4294967295
  %58 = shl nuw i64 1, %57
  %59 = load i64, ptr %55, align 8, !tbaa !167
  %60 = or i64 %58, %59
  store i64 %60, ptr %55, align 8, !tbaa !167
  %61 = getelementptr inbounds %"class.xalanc_1_8::FormatterToXML", ptr %0, i64 0, i32 8
  %62 = load i8, ptr %61, align 1, !tbaa !111, !range !132, !noundef !146
  %63 = icmp ne i8 %62, 0
  %64 = getelementptr inbounds %"class.xalanc_1_8::FormatterToXML", ptr %0, i64 0, i32 23, i32 0, i32 0, i32 0, i32 1
  %65 = load ptr, ptr %64, align 8
  %66 = getelementptr inbounds %"class.xalanc_1_8::FormatterToXML", ptr %0, i64 0, i32 23, i32 0, i32 0, i32 0, i32 2
  %67 = load ptr, ptr %66, align 8, !tbaa !120
  %68 = icmp eq ptr %65, %67
  %69 = getelementptr inbounds %"class.xalanc_1_8::FormatterToXML", ptr %0, i64 0, i32 23, i32 0, i32 0, i32 0, i32 1, i32 0, i32 1
  %70 = load i32, ptr %69, align 8
  br i1 %68, label %86, label %71

71:                                               ; preds = %42
  %72 = add i32 %70, 1
  store i32 %72, ptr %69, align 8, !tbaa !119
  %73 = icmp eq i32 %70, 63
  br i1 %73, label %74, label %76

74:                                               ; preds = %71
  store i32 0, ptr %69, align 8, !tbaa !119
  %75 = getelementptr inbounds i64, ptr %65, i64 1
  store ptr %75, ptr %64, align 8, !tbaa !118
  br label %76

76:                                               ; preds = %74, %71
  %77 = zext i32 %70 to i64
  %78 = shl nuw i64 1, %77
  br i1 %63, label %79, label %82

79:                                               ; preds = %76
  %80 = load i64, ptr %65, align 8, !tbaa !167
  %81 = or i64 %80, %78
  store i64 %81, ptr %65, align 8, !tbaa !167
  br label %88

82:                                               ; preds = %76
  %83 = xor i64 %78, -1
  %84 = load i64, ptr %65, align 8, !tbaa !167
  %85 = and i64 %84, %83
  store i64 %85, ptr %65, align 8, !tbaa !167
  br label %88

86:                                               ; preds = %42
  %87 = getelementptr inbounds %"class.xalanc_1_8::FormatterToXML", ptr %0, i64 0, i32 23
  tail call void @_ZNSt6vectorIbSaIbEE13_M_insert_auxESt13_Bit_iteratorb(ptr noundef nonnull align 8 dereferenceable(40) %87, ptr %65, i32 %70, i1 noundef zeroext %63)
  br label %88

88:                                               ; preds = %86, %82, %79, %11, %1
  ret void
}

; Function Attrs: uwtable
define dso_local void @_ZN10xalanc_1_814FormatterToXML6indentEi(ptr noundef nonnull align 8 dereferenceable(1644) %0, i32 noundef %1) local_unnamed_addr #1 align 2 {
  %3 = getelementptr inbounds %"class.xalanc_1_8::FormatterToXML", ptr %0, i64 0, i32 10
  %4 = load i8, ptr %3, align 1, !tbaa !113, !range !132, !noundef !146
  %5 = icmp eq i8 %4, 0
  br i1 %5, label %27, label %6

6:                                                ; preds = %2
  %7 = getelementptr inbounds %"class.xalanc_1_8::FormatterToXML", ptr %0, i64 0, i32 49
  %8 = load ptr, ptr %7, align 8, !tbaa !128
  %9 = getelementptr inbounds %"class.xalanc_1_8::FormatterToXML", ptr %0, i64 0, i32 50
  %10 = load i32, ptr %9, align 8, !tbaa !130
  %11 = getelementptr inbounds %"class.xalanc_1_8::FormatterToXML", ptr %0, i64 0, i32 47
  %12 = load i64, ptr %11, align 8, !tbaa !142
  %13 = getelementptr inbounds %"class.xalanc_1_8::FormatterToXML", ptr %0, i64 0, i32 47, i32 1
  %14 = load i64, ptr %13, align 8, !tbaa !142
  %15 = getelementptr inbounds i8, ptr %0, i64 %14
  %16 = and i64 %12, 1
  %17 = icmp eq i64 %16, 0
  br i1 %17, label %23, label %18

18:                                               ; preds = %6
  %19 = load ptr, ptr %15, align 8, !tbaa !81
  %20 = add i64 %12, -1
  %21 = getelementptr i8, ptr %19, i64 %20, !nosanitize !146
  %22 = load ptr, ptr %21, align 8, !nosanitize !146
  br label %25

23:                                               ; preds = %6
  %24 = inttoptr i64 %12 to ptr
  br label %25

25:                                               ; preds = %18, %23
  %26 = phi ptr [ %22, %18 ], [ %24, %23 ]
  tail call void %26(ptr noundef nonnull align 8 dereferenceable(1644) %15, ptr noundef %8, i32 noundef 0, i32 noundef %10)
  br label %27

27:                                               ; preds = %25, %2
  %28 = getelementptr inbounds %"class.xalanc_1_8::FormatterToXML", ptr %0, i64 0, i32 9
  %29 = load i8, ptr %28, align 4, !tbaa !112, !range !132, !noundef !146
  %30 = icmp ne i8 %29, 0
  %31 = icmp sgt i32 %1, 0
  %32 = and i1 %31, %30
  br i1 %32, label %33, label %54

33:                                               ; preds = %27
  %34 = getelementptr inbounds %"class.xalanc_1_8::FormatterToXML", ptr %0, i64 0, i32 44
  %35 = getelementptr inbounds %"class.xalanc_1_8::FormatterToXML", ptr %0, i64 0, i32 44, i32 1
  br label %36

36:                                               ; preds = %50, %33
  %37 = phi i32 [ 0, %33 ], [ %52, %50 ]
  %38 = load i64, ptr %34, align 8, !tbaa !136
  %39 = load i64, ptr %35, align 8, !tbaa !136
  %40 = getelementptr inbounds i8, ptr %0, i64 %39
  %41 = and i64 %38, 1
  %42 = icmp eq i64 %41, 0
  br i1 %42, label %48, label %43

43:                                               ; preds = %36
  %44 = load ptr, ptr %40, align 8, !tbaa !81
  %45 = add i64 %38, -1
  %46 = getelementptr i8, ptr %44, i64 %45, !nosanitize !146
  %47 = load ptr, ptr %46, align 8, !nosanitize !146
  br label %50

48:                                               ; preds = %36
  %49 = inttoptr i64 %38 to ptr
  br label %50

50:                                               ; preds = %48, %43
  %51 = phi ptr [ %47, %43 ], [ %49, %48 ]
  tail call void %51(ptr noundef nonnull align 8 dereferenceable(1644) %40, i16 noundef zeroext 32)
  %52 = add nuw nsw i32 %37, 1
  %53 = icmp eq i32 %52, %1
  br i1 %53, label %54, label %36

54:                                               ; preds = %50, %27
  ret void
}

; Function Attrs: uwtable
define dso_local void @_ZN10xalanc_1_814FormatterToXML16processAttributeEPKtS2_(ptr noundef nonnull align 8 dereferenceable(1644) %0, ptr noundef %1, ptr noundef %2) local_unnamed_addr #1 align 2 {
  %4 = load ptr, ptr @_ZN10xalanc_1_811DOMServices20s_XMLNamespacePrefixE, align 8, !tbaa !126
  %5 = load ptr, ptr %4, align 8, !tbaa !126
  %6 = getelementptr inbounds %"struct.std::_Vector_base<unsigned short, std::allocator<unsigned short> >::_Vector_impl_data", ptr %4, i64 0, i32 1
  %7 = load ptr, ptr %6, align 8, !tbaa !126
  %8 = icmp eq ptr %5, %7
  %9 = select i1 %8, ptr @_ZN10xalanc_1_814XalanDOMString7s_emptyE, ptr %5
  %10 = tail call noundef i32 @_ZN10xalanc_1_814XalanDOMString6lengthEPKt(ptr noundef %9)
  %11 = tail call noundef i32 @_ZN10xalanc_1_814XalanDOMString6lengthEPKt(ptr noundef %1)
  %12 = tail call noundef zeroext i1 @_ZN10xalanc_1_814XalanDOMString6equalsEPKtjS2_j(ptr noundef %9, i32 noundef %10, ptr noundef %1, i32 noundef %11)
  br i1 %12, label %102, label %13

13:                                               ; preds = %3
  %14 = getelementptr inbounds %"class.xalanc_1_8::FormatterToXML", ptr %0, i64 0, i32 44
  %15 = load i64, ptr %14, align 8, !tbaa !136
  %16 = getelementptr inbounds %"class.xalanc_1_8::FormatterToXML", ptr %0, i64 0, i32 44, i32 1
  %17 = load i64, ptr %16, align 8, !tbaa !136
  %18 = getelementptr inbounds i8, ptr %0, i64 %17
  %19 = and i64 %15, 1
  %20 = icmp eq i64 %19, 0
  br i1 %20, label %26, label %21

21:                                               ; preds = %13
  %22 = load ptr, ptr %18, align 8, !tbaa !81
  %23 = add i64 %15, -1
  %24 = getelementptr i8, ptr %22, i64 %23, !nosanitize !146
  %25 = load ptr, ptr %24, align 8, !nosanitize !146
  br label %28

26:                                               ; preds = %13
  %27 = inttoptr i64 %15 to ptr
  br label %28

28:                                               ; preds = %21, %26
  %29 = phi ptr [ %25, %21 ], [ %27, %26 ]
  tail call void %29(ptr noundef nonnull align 8 dereferenceable(1644) %18, i16 noundef zeroext 32)
  %30 = getelementptr inbounds %"class.xalanc_1_8::FormatterToXML", ptr %0, i64 0, i32 41
  %31 = load i64, ptr %30, align 8, !tbaa !137
  %32 = getelementptr inbounds %"class.xalanc_1_8::FormatterToXML", ptr %0, i64 0, i32 41, i32 1
  %33 = load i64, ptr %32, align 8, !tbaa !137
  %34 = getelementptr inbounds i8, ptr %0, i64 %33
  %35 = and i64 %31, 1
  %36 = icmp eq i64 %35, 0
  br i1 %36, label %42, label %37

37:                                               ; preds = %28
  %38 = load ptr, ptr %34, align 8, !tbaa !81
  %39 = add i64 %31, -1
  %40 = getelementptr i8, ptr %38, i64 %39, !nosanitize !146
  %41 = load ptr, ptr %40, align 8, !nosanitize !146
  br label %44

42:                                               ; preds = %28
  %43 = inttoptr i64 %31 to ptr
  br label %44

44:                                               ; preds = %37, %42
  %45 = phi ptr [ %41, %37 ], [ %43, %42 ]
  tail call void %45(ptr noundef nonnull align 8 dereferenceable(1644) %34, ptr noundef %1)
  %46 = load i64, ptr %14, align 8, !tbaa !136
  %47 = load i64, ptr %16, align 8, !tbaa !136
  %48 = getelementptr inbounds i8, ptr %0, i64 %47
  %49 = and i64 %46, 1
  %50 = icmp eq i64 %49, 0
  br i1 %50, label %56, label %51

51:                                               ; preds = %44
  %52 = load ptr, ptr %48, align 8, !tbaa !81
  %53 = add i64 %46, -1
  %54 = getelementptr i8, ptr %52, i64 %53, !nosanitize !146
  %55 = load ptr, ptr %54, align 8, !nosanitize !146
  br label %58

56:                                               ; preds = %44
  %57 = inttoptr i64 %46 to ptr
  br label %58

58:                                               ; preds = %51, %56
  %59 = phi ptr [ %55, %51 ], [ %57, %56 ]
  tail call void %59(ptr noundef nonnull align 8 dereferenceable(1644) %48, i16 noundef zeroext 61)
  %60 = load i64, ptr %14, align 8, !tbaa !136
  %61 = load i64, ptr %16, align 8, !tbaa !136
  %62 = getelementptr inbounds i8, ptr %0, i64 %61
  %63 = and i64 %60, 1
  %64 = icmp eq i64 %63, 0
  br i1 %64, label %70, label %65

65:                                               ; preds = %58
  %66 = load ptr, ptr %62, align 8, !tbaa !81
  %67 = add i64 %60, -1
  %68 = getelementptr i8, ptr %66, i64 %67, !nosanitize !146
  %69 = load ptr, ptr %68, align 8, !nosanitize !146
  br label %72

70:                                               ; preds = %58
  %71 = inttoptr i64 %60 to ptr
  br label %72

72:                                               ; preds = %65, %70
  %73 = phi ptr [ %69, %65 ], [ %71, %70 ]
  tail call void %73(ptr noundef nonnull align 8 dereferenceable(1644) %62, i16 noundef zeroext 34)
  br label %74

74:                                               ; preds = %74, %72
  %75 = phi ptr [ %2, %72 ], [ %78, %74 ]
  %76 = load i16, ptr %75, align 2, !tbaa !129
  %77 = icmp eq i16 %76, 0
  %78 = getelementptr inbounds i16, ptr %75, i64 1
  br i1 %77, label %79, label %74

79:                                               ; preds = %74
  %80 = ptrtoint ptr %75 to i64
  %81 = ptrtoint ptr %2 to i64
  %82 = sub i64 %80, %81
  %83 = lshr exact i64 %82, 1
  %84 = trunc i64 %83 to i32
  %85 = load ptr, ptr %0, align 8, !tbaa !81
  %86 = getelementptr inbounds ptr, ptr %85, i64 23
  %87 = load ptr, ptr %86, align 8
  tail call void %87(ptr noundef nonnull align 8 dereferenceable(1644) %0, ptr noundef %2, i32 noundef %84)
  %88 = load i64, ptr %14, align 8, !tbaa !136
  %89 = load i64, ptr %16, align 8, !tbaa !136
  %90 = getelementptr inbounds i8, ptr %0, i64 %89
  %91 = and i64 %88, 1
  %92 = icmp eq i64 %91, 0
  br i1 %92, label %98, label %93

93:                                               ; preds = %79
  %94 = load ptr, ptr %90, align 8, !tbaa !81
  %95 = add i64 %88, -1
  %96 = getelementptr i8, ptr %94, i64 %95, !nosanitize !146
  %97 = load ptr, ptr %96, align 8, !nosanitize !146
  br label %100

98:                                               ; preds = %79
  %99 = inttoptr i64 %88 to ptr
  br label %100

100:                                              ; preds = %93, %98
  %101 = phi ptr [ %97, %93 ], [ %99, %98 ]
  tail call void %101(ptr noundef nonnull align 8 dereferenceable(1644) %90, i16 noundef zeroext 34)
  br label %102

102:                                              ; preds = %100, %3
  ret void
}

; Function Attrs: uwtable
define dso_local void @_ZN10xalanc_1_814FormatterToXML22openElementForChildrenEv(ptr noundef nonnull align 8 dereferenceable(1644) %0) local_unnamed_addr #1 align 2 {
  %2 = getelementptr inbounds %"class.xalanc_1_8::FormatterToXML", ptr %0, i64 0, i32 39, i32 0, i32 0, i32 0, i32 1
  %3 = load ptr, ptr %2, align 8
  %4 = getelementptr inbounds %"class.xalanc_1_8::FormatterToXML", ptr %0, i64 0, i32 39, i32 0, i32 0, i32 0, i32 2
  %5 = load ptr, ptr %4, align 8, !tbaa !120
  %6 = icmp eq ptr %3, %5
  %7 = getelementptr inbounds %"class.xalanc_1_8::FormatterToXML", ptr %0, i64 0, i32 39, i32 0, i32 0, i32 0, i32 1, i32 0, i32 1
  %8 = load i32, ptr %7, align 8
  br i1 %6, label %20, label %9

9:                                                ; preds = %1
  %10 = add i32 %8, 1
  store i32 %10, ptr %7, align 8, !tbaa !119
  %11 = icmp eq i32 %8, 63
  br i1 %11, label %12, label %14

12:                                               ; preds = %9
  store i32 0, ptr %7, align 8, !tbaa !119
  %13 = getelementptr inbounds i64, ptr %3, i64 1
  store ptr %13, ptr %2, align 8, !tbaa !118
  br label %14

14:                                               ; preds = %12, %9
  %15 = zext i32 %8 to i64
  %16 = shl nuw i64 1, %15
  %17 = xor i64 %16, -1
  %18 = load i64, ptr %3, align 8, !tbaa !167
  %19 = and i64 %18, %17
  store i64 %19, ptr %3, align 8, !tbaa !167
  br label %22

20:                                               ; preds = %1
  %21 = getelementptr inbounds %"class.xalanc_1_8::FormatterToXML", ptr %0, i64 0, i32 39
  tail call void @_ZNSt6vectorIbSaIbEE13_M_insert_auxESt13_Bit_iteratorb(ptr noundef nonnull align 8 dereferenceable(40) %21, ptr %3, i32 %8, i1 noundef zeroext false)
  br label %22

22:                                               ; preds = %14, %20
  ret void
}

; Function Attrs: uwtable
define dso_local void @_ZN10xalanc_1_814FormatterToXML10endElementEPKt(ptr noundef nonnull align 8 dereferenceable(1644) %0, ptr noundef %1) unnamed_addr #1 align 2 {
  %3 = getelementptr inbounds %"class.xalanc_1_8::FormatterToXML", ptr %0, i64 0, i32 22
  %4 = load i32, ptr %3, align 4, !tbaa !117
  %5 = getelementptr inbounds %"class.xalanc_1_8::FormatterToXML", ptr %0, i64 0, i32 21
  %6 = load i32, ptr %5, align 8, !tbaa !116
  %7 = sub nsw i32 %6, %4
  store i32 %7, ptr %5, align 8, !tbaa !116
  %8 = getelementptr inbounds %"class.xalanc_1_8::FormatterToXML", ptr %0, i64 0, i32 39
  %9 = load ptr, ptr %8, align 8, !tbaa !118
  %10 = getelementptr inbounds %"class.xalanc_1_8::FormatterToXML", ptr %0, i64 0, i32 39, i32 0, i32 0, i32 0, i32 1
  %11 = load ptr, ptr %10, align 8
  %12 = getelementptr inbounds %"class.xalanc_1_8::FormatterToXML", ptr %0, i64 0, i32 39, i32 0, i32 0, i32 0, i32 1, i32 0, i32 1
  %13 = load i32, ptr %12, align 8
  %14 = icmp eq ptr %9, %11
  %15 = icmp eq i32 %13, 0
  %16 = select i1 %14, i1 %15, i1 false
  br i1 %16, label %148, label %17

17:                                               ; preds = %2
  %18 = zext i32 %13 to i64
  %19 = add nsw i64 %18, -1
  %20 = sdiv i64 %19, 64
  %21 = getelementptr inbounds i64, ptr %11, i64 %20
  %22 = srem i64 %19, 64
  %23 = icmp slt i64 %22, 0
  %24 = add nsw i64 %22, 64
  %25 = ashr i64 %22, 63
  %26 = getelementptr inbounds i64, ptr %21, i64 %25
  %27 = select i1 %23, i64 %24, i64 %22
  %28 = and i64 %27, 4294967295
  %29 = shl nuw i64 1, %28
  %30 = load i64, ptr %26, align 8, !tbaa !167
  %31 = and i64 %30, %29
  %32 = icmp eq i64 %31, 0
  %33 = add i32 %13, -1
  store i32 %33, ptr %12, align 8, !tbaa !119
  br i1 %15, label %34, label %36

34:                                               ; preds = %17
  store i32 63, ptr %12, align 8, !tbaa !119
  %35 = getelementptr inbounds i64, ptr %11, i64 -1
  store ptr %35, ptr %10, align 8, !tbaa !118
  br i1 %32, label %148, label %37

36:                                               ; preds = %17
  br i1 %32, label %148, label %37

37:                                               ; preds = %34, %36
  %38 = getelementptr inbounds %"class.xalanc_1_8::FormatterToXML", ptr %0, i64 0, i32 9
  %39 = load i8, ptr %38, align 4, !tbaa !112, !range !132, !noundef !146
  %40 = icmp ne i8 %39, 0
  %41 = getelementptr inbounds %"class.xalanc_1_8::FormatterToXML", ptr %0, i64 0, i32 8
  %42 = load i8, ptr %41, align 1, !range !132
  %43 = icmp eq i8 %42, 0
  %44 = select i1 %40, i1 %43, i1 false
  %45 = getelementptr inbounds %"class.xalanc_1_8::FormatterToXML", ptr %0, i64 0, i32 12
  %46 = load i8, ptr %45, align 1, !range !132
  %47 = icmp eq i8 %46, 0
  %48 = select i1 %44, i1 %47, i1 false
  br i1 %48, label %49, label %101

49:                                               ; preds = %37
  %50 = getelementptr inbounds %"class.xalanc_1_8::FormatterToXML", ptr %0, i64 0, i32 10
  %51 = load i8, ptr %50, align 1, !tbaa !113, !range !132, !noundef !146
  %52 = icmp eq i8 %51, 0
  br i1 %52, label %76, label %53

53:                                               ; preds = %49
  %54 = getelementptr inbounds %"class.xalanc_1_8::FormatterToXML", ptr %0, i64 0, i32 49
  %55 = load ptr, ptr %54, align 8, !tbaa !128
  %56 = getelementptr inbounds %"class.xalanc_1_8::FormatterToXML", ptr %0, i64 0, i32 50
  %57 = load i32, ptr %56, align 8, !tbaa !130
  %58 = getelementptr inbounds %"class.xalanc_1_8::FormatterToXML", ptr %0, i64 0, i32 47
  %59 = load i64, ptr %58, align 8, !tbaa !142
  %60 = getelementptr inbounds %"class.xalanc_1_8::FormatterToXML", ptr %0, i64 0, i32 47, i32 1
  %61 = load i64, ptr %60, align 8, !tbaa !142
  %62 = getelementptr inbounds i8, ptr %0, i64 %61
  %63 = and i64 %59, 1
  %64 = icmp eq i64 %63, 0
  br i1 %64, label %70, label %65

65:                                               ; preds = %53
  %66 = load ptr, ptr %62, align 8, !tbaa !81
  %67 = add i64 %59, -1
  %68 = getelementptr i8, ptr %66, i64 %67, !nosanitize !146
  %69 = load ptr, ptr %68, align 8, !nosanitize !146
  br label %72

70:                                               ; preds = %53
  %71 = inttoptr i64 %59 to ptr
  br label %72

72:                                               ; preds = %70, %65
  %73 = phi ptr [ %69, %65 ], [ %71, %70 ]
  tail call void %73(ptr noundef nonnull align 8 dereferenceable(1644) %62, ptr noundef %55, i32 noundef 0, i32 noundef %57)
  %74 = load i8, ptr %38, align 4, !tbaa !112, !range !132
  %75 = icmp ne i8 %74, 0
  br label %76

76:                                               ; preds = %72, %49
  %77 = phi i1 [ %75, %72 ], [ true, %49 ]
  %78 = icmp sgt i32 %7, 0
  %79 = and i1 %78, %77
  br i1 %79, label %80, label %101

80:                                               ; preds = %76
  %81 = getelementptr inbounds %"class.xalanc_1_8::FormatterToXML", ptr %0, i64 0, i32 44
  %82 = getelementptr inbounds %"class.xalanc_1_8::FormatterToXML", ptr %0, i64 0, i32 44, i32 1
  br label %83

83:                                               ; preds = %97, %80
  %84 = phi i32 [ 0, %80 ], [ %99, %97 ]
  %85 = load i64, ptr %81, align 8, !tbaa !136
  %86 = load i64, ptr %82, align 8, !tbaa !136
  %87 = getelementptr inbounds i8, ptr %0, i64 %86
  %88 = and i64 %85, 1
  %89 = icmp eq i64 %88, 0
  br i1 %89, label %95, label %90

90:                                               ; preds = %83
  %91 = load ptr, ptr %87, align 8, !tbaa !81
  %92 = add i64 %85, -1
  %93 = getelementptr i8, ptr %91, i64 %92, !nosanitize !146
  %94 = load ptr, ptr %93, align 8, !nosanitize !146
  br label %97

95:                                               ; preds = %83
  %96 = inttoptr i64 %85 to ptr
  br label %97

97:                                               ; preds = %95, %90
  %98 = phi ptr [ %94, %90 ], [ %96, %95 ]
  tail call void %98(ptr noundef nonnull align 8 dereferenceable(1644) %87, i16 noundef zeroext 32)
  %99 = add nuw nsw i32 %84, 1
  %100 = icmp eq i32 %99, %7
  br i1 %100, label %101, label %83

101:                                              ; preds = %97, %37, %76
  %102 = getelementptr inbounds %"class.xalanc_1_8::FormatterToXML", ptr %0, i64 0, i32 40
  %103 = load i64, ptr %102, align 8, !tbaa !135
  %104 = getelementptr inbounds %"class.xalanc_1_8::FormatterToXML", ptr %0, i64 0, i32 40, i32 1
  %105 = load i64, ptr %104, align 8, !tbaa !135
  %106 = getelementptr inbounds i8, ptr %0, i64 %105
  %107 = and i64 %103, 1
  %108 = icmp eq i64 %107, 0
  br i1 %108, label %114, label %109

109:                                              ; preds = %101
  %110 = load ptr, ptr %106, align 8, !tbaa !81
  %111 = add i64 %103, -1
  %112 = getelementptr i8, ptr %110, i64 %111, !nosanitize !146
  %113 = load ptr, ptr %112, align 8, !nosanitize !146
  br label %116

114:                                              ; preds = %101
  %115 = inttoptr i64 %103 to ptr
  br label %116

116:                                              ; preds = %109, %114
  %117 = phi ptr [ %113, %109 ], [ %115, %114 ]
  tail call void %117(ptr noundef nonnull align 8 dereferenceable(1644) %106, i16 noundef zeroext 60)
  %118 = load i64, ptr %102, align 8, !tbaa !135
  %119 = load i64, ptr %104, align 8, !tbaa !135
  %120 = getelementptr inbounds i8, ptr %0, i64 %119
  %121 = and i64 %118, 1
  %122 = icmp eq i64 %121, 0
  br i1 %122, label %128, label %123

123:                                              ; preds = %116
  %124 = load ptr, ptr %120, align 8, !tbaa !81
  %125 = add i64 %118, -1
  %126 = getelementptr i8, ptr %124, i64 %125, !nosanitize !146
  %127 = load ptr, ptr %126, align 8, !nosanitize !146
  br label %130

128:                                              ; preds = %116
  %129 = inttoptr i64 %118 to ptr
  br label %130

130:                                              ; preds = %123, %128
  %131 = phi ptr [ %127, %123 ], [ %129, %128 ]
  tail call void %131(ptr noundef nonnull align 8 dereferenceable(1644) %120, i16 noundef zeroext 47)
  %132 = getelementptr inbounds %"class.xalanc_1_8::FormatterToXML", ptr %0, i64 0, i32 41
  %133 = load i64, ptr %132, align 8, !tbaa !137
  %134 = getelementptr inbounds %"class.xalanc_1_8::FormatterToXML", ptr %0, i64 0, i32 41, i32 1
  %135 = load i64, ptr %134, align 8, !tbaa !137
  %136 = getelementptr inbounds i8, ptr %0, i64 %135
  %137 = and i64 %133, 1
  %138 = icmp eq i64 %137, 0
  br i1 %138, label %144, label %139

139:                                              ; preds = %130
  %140 = load ptr, ptr %136, align 8, !tbaa !81
  %141 = add i64 %133, -1
  %142 = getelementptr i8, ptr %140, i64 %141, !nosanitize !146
  %143 = load ptr, ptr %142, align 8, !nosanitize !146
  br label %146

144:                                              ; preds = %130
  %145 = inttoptr i64 %133 to ptr
  br label %146

146:                                              ; preds = %139, %144
  %147 = phi ptr [ %143, %139 ], [ %145, %144 ]
  tail call void %147(ptr noundef nonnull align 8 dereferenceable(1644) %136, ptr noundef %1)
  br label %186

148:                                              ; preds = %2, %34, %36
  %149 = getelementptr inbounds %"class.xalanc_1_8::FormatterToXML", ptr %0, i64 0, i32 27
  %150 = load i8, ptr %149, align 2, !tbaa !123, !range !132, !noundef !146
  %151 = icmp eq i8 %150, 0
  br i1 %151, label %169, label %152

152:                                              ; preds = %148
  %153 = getelementptr inbounds %"class.xalanc_1_8::FormatterToXML", ptr %0, i64 0, i32 40
  %154 = load i64, ptr %153, align 8, !tbaa !135
  %155 = getelementptr inbounds %"class.xalanc_1_8::FormatterToXML", ptr %0, i64 0, i32 40, i32 1
  %156 = load i64, ptr %155, align 8, !tbaa !135
  %157 = getelementptr inbounds i8, ptr %0, i64 %156
  %158 = and i64 %154, 1
  %159 = icmp eq i64 %158, 0
  br i1 %159, label %165, label %160

160:                                              ; preds = %152
  %161 = load ptr, ptr %157, align 8, !tbaa !81
  %162 = add i64 %154, -1
  %163 = getelementptr i8, ptr %161, i64 %162, !nosanitize !146
  %164 = load ptr, ptr %163, align 8, !nosanitize !146
  br label %167

165:                                              ; preds = %152
  %166 = inttoptr i64 %154 to ptr
  br label %167

167:                                              ; preds = %160, %165
  %168 = phi ptr [ %164, %160 ], [ %166, %165 ]
  tail call void %168(ptr noundef nonnull align 8 dereferenceable(1644) %157, i16 noundef zeroext 32)
  br label %169

169:                                              ; preds = %167, %148
  %170 = getelementptr inbounds %"class.xalanc_1_8::FormatterToXML", ptr %0, i64 0, i32 40
  %171 = load i64, ptr %170, align 8, !tbaa !135
  %172 = getelementptr inbounds %"class.xalanc_1_8::FormatterToXML", ptr %0, i64 0, i32 40, i32 1
  %173 = load i64, ptr %172, align 8, !tbaa !135
  %174 = getelementptr inbounds i8, ptr %0, i64 %173
  %175 = and i64 %171, 1
  %176 = icmp eq i64 %175, 0
  br i1 %176, label %182, label %177

177:                                              ; preds = %169
  %178 = load ptr, ptr %174, align 8, !tbaa !81
  %179 = add i64 %171, -1
  %180 = getelementptr i8, ptr %178, i64 %179, !nosanitize !146
  %181 = load ptr, ptr %180, align 8, !nosanitize !146
  br label %184

182:                                              ; preds = %169
  %183 = inttoptr i64 %171 to ptr
  br label %184

184:                                              ; preds = %177, %182
  %185 = phi ptr [ %181, %177 ], [ %183, %182 ]
  tail call void %185(ptr noundef nonnull align 8 dereferenceable(1644) %174, i16 noundef zeroext 47)
  br label %186

186:                                              ; preds = %184, %146
  %187 = phi i1 [ false, %184 ], [ true, %146 ]
  %188 = getelementptr inbounds %"class.xalanc_1_8::FormatterToXML", ptr %0, i64 0, i32 40
  %189 = load i64, ptr %188, align 8, !tbaa !135
  %190 = getelementptr inbounds %"class.xalanc_1_8::FormatterToXML", ptr %0, i64 0, i32 40, i32 1
  %191 = load i64, ptr %190, align 8, !tbaa !135
  %192 = getelementptr inbounds i8, ptr %0, i64 %191
  %193 = and i64 %189, 1
  %194 = icmp eq i64 %193, 0
  br i1 %194, label %200, label %195

195:                                              ; preds = %186
  %196 = load ptr, ptr %192, align 8, !tbaa !81
  %197 = add i64 %189, -1
  %198 = getelementptr i8, ptr %196, i64 %197, !nosanitize !146
  %199 = load ptr, ptr %198, align 8, !nosanitize !146
  br label %202

200:                                              ; preds = %186
  %201 = inttoptr i64 %189 to ptr
  br label %202

202:                                              ; preds = %195, %200
  %203 = phi ptr [ %199, %195 ], [ %201, %200 ]
  tail call void %203(ptr noundef nonnull align 8 dereferenceable(1644) %192, i16 noundef zeroext 62)
  br i1 %187, label %204, label %237

204:                                              ; preds = %202
  %205 = getelementptr inbounds %"class.xalanc_1_8::FormatterToXML", ptr %0, i64 0, i32 23
  %206 = load ptr, ptr %205, align 8, !tbaa !118
  %207 = getelementptr inbounds %"class.xalanc_1_8::FormatterToXML", ptr %0, i64 0, i32 23, i32 0, i32 0, i32 0, i32 1
  %208 = load ptr, ptr %207, align 8
  %209 = getelementptr inbounds %"class.xalanc_1_8::FormatterToXML", ptr %0, i64 0, i32 23, i32 0, i32 0, i32 0, i32 1, i32 0, i32 1
  %210 = load i32, ptr %209, align 8
  %211 = icmp eq ptr %206, %208
  %212 = icmp eq i32 %210, 0
  %213 = select i1 %211, i1 %212, i1 false
  br i1 %213, label %214, label %216

214:                                              ; preds = %204
  %215 = getelementptr inbounds %"class.xalanc_1_8::FormatterToXML", ptr %0, i64 0, i32 8
  store i8 0, ptr %215, align 1, !tbaa !111
  br label %237

216:                                              ; preds = %204
  %217 = zext i32 %210 to i64
  %218 = add nsw i64 %217, -1
  %219 = sdiv i64 %218, 64
  %220 = getelementptr inbounds i64, ptr %208, i64 %219
  %221 = srem i64 %218, 64
  %222 = icmp slt i64 %221, 0
  %223 = add nsw i64 %221, 64
  %224 = ashr i64 %221, 63
  %225 = getelementptr inbounds i64, ptr %220, i64 %224
  %226 = select i1 %222, i64 %223, i64 %221
  %227 = and i64 %226, 4294967295
  %228 = shl nuw i64 1, %227
  %229 = load i64, ptr %225, align 8, !tbaa !167
  %230 = and i64 %229, %228
  %231 = icmp ne i64 %230, 0
  %232 = getelementptr inbounds %"class.xalanc_1_8::FormatterToXML", ptr %0, i64 0, i32 8
  %233 = zext i1 %231 to i8
  store i8 %233, ptr %232, align 1, !tbaa !111
  %234 = add i32 %210, -1
  store i32 %234, ptr %209, align 8, !tbaa !119
  br i1 %212, label %235, label %237

235:                                              ; preds = %216
  store i32 63, ptr %209, align 8, !tbaa !119
  %236 = getelementptr inbounds i64, ptr %208, i64 -1
  store ptr %236, ptr %207, align 8, !tbaa !118
  br label %237

237:                                              ; preds = %235, %216, %214, %202
  %238 = getelementptr inbounds %"class.xalanc_1_8::FormatterToXML", ptr %0, i64 0, i32 12
  store i8 0, ptr %238, align 1, !tbaa !166
  ret void
}

; Function Attrs: mustprogress nofree norecurse nosync nounwind willreturn memory(read, argmem: readwrite, inaccessiblemem: none) uwtable
define dso_local noundef zeroext i1 @_ZN10xalanc_1_814FormatterToXML19childNodesWereAddedEv(ptr nocapture noundef nonnull align 8 dereferenceable(1644) %0) local_unnamed_addr #10 align 2 {
  %2 = getelementptr inbounds %"class.xalanc_1_8::FormatterToXML", ptr %0, i64 0, i32 39
  %3 = load ptr, ptr %2, align 8, !tbaa !118
  %4 = getelementptr inbounds %"class.xalanc_1_8::FormatterToXML", ptr %0, i64 0, i32 39, i32 0, i32 0, i32 0, i32 1
  %5 = load ptr, ptr %4, align 8
  %6 = getelementptr inbounds %"class.xalanc_1_8::FormatterToXML", ptr %0, i64 0, i32 39, i32 0, i32 0, i32 0, i32 1, i32 0, i32 1
  %7 = load i32, ptr %6, align 8
  %8 = icmp eq ptr %3, %5
  %9 = icmp eq i32 %7, 0
  %10 = select i1 %8, i1 %9, i1 false
  br i1 %10, label %30, label %11

11:                                               ; preds = %1
  %12 = zext i32 %7 to i64
  %13 = add nsw i64 %12, -1
  %14 = sdiv i64 %13, 64
  %15 = getelementptr inbounds i64, ptr %5, i64 %14
  %16 = srem i64 %13, 64
  %17 = icmp slt i64 %16, 0
  %18 = add nsw i64 %16, 64
  %19 = ashr i64 %16, 63
  %20 = getelementptr inbounds i64, ptr %15, i64 %19
  %21 = select i1 %17, i64 %18, i64 %16
  %22 = and i64 %21, 4294967295
  %23 = shl nuw i64 1, %22
  %24 = load i64, ptr %20, align 8, !tbaa !167
  %25 = and i64 %24, %23
  %26 = icmp ne i64 %25, 0
  %27 = add i32 %7, -1
  store i32 %27, ptr %6, align 8, !tbaa !119
  br i1 %9, label %28, label %30

28:                                               ; preds = %11
  store i32 63, ptr %6, align 8, !tbaa !119
  %29 = getelementptr inbounds i64, ptr %5, i64 -1
  store ptr %29, ptr %4, align 8, !tbaa !118
  br label %30

30:                                               ; preds = %28, %11, %1
  %31 = phi i1 [ false, %1 ], [ %26, %11 ], [ %26, %28 ]
  ret i1 %31
}

; Function Attrs: uwtable
define dso_local void @_ZN10xalanc_1_814FormatterToXML21processingInstructionEPKtS2_(ptr noundef nonnull align 8 dereferenceable(1644) %0, ptr noundef %1, ptr noundef %2) unnamed_addr #1 align 2 {
  %4 = getelementptr inbounds %"class.xalanc_1_8::FormatterToXML", ptr %0, i64 0, i32 29
  %5 = load i8, ptr %4, align 4, !tbaa !125, !range !132, !noundef !146
  %6 = icmp eq i8 %5, 0
  br i1 %6, label %7, label %308

7:                                                ; preds = %3, %7
  %8 = phi ptr [ %11, %7 ], [ %1, %3 ]
  %9 = load i16, ptr %8, align 2, !tbaa !129
  %10 = icmp eq i16 %9, 0
  %11 = getelementptr inbounds i16, ptr %8, i64 1
  br i1 %10, label %12, label %7

12:                                               ; preds = %7
  %13 = ptrtoint ptr %8 to i64
  %14 = ptrtoint ptr %1 to i64
  %15 = sub i64 %13, %14
  %16 = and i64 %15, 8589934590
  %17 = icmp eq i64 %16, 10
  br i1 %17, label %18, label %35

18:                                               ; preds = %12
  %19 = tail call noundef zeroext i1 @_ZN10xalanc_1_86equalsEPKtS1_j(ptr noundef %1, ptr noundef nonnull @_ZN10xalanc_1_817FormatterListener10s_piTargetE, i32 noundef 5)
  br i1 %19, label %20, label %35

20:                                               ; preds = %18, %20
  %21 = phi ptr [ %24, %20 ], [ %2, %18 ]
  %22 = load i16, ptr %21, align 2, !tbaa !129
  %23 = icmp eq i16 %22, 0
  %24 = getelementptr inbounds i16, ptr %21, i64 1
  br i1 %23, label %25, label %20

25:                                               ; preds = %20
  %26 = ptrtoint ptr %21 to i64
  %27 = ptrtoint ptr %2 to i64
  %28 = sub i64 %26, %27
  %29 = and i64 %28, 8589934590
  %30 = icmp eq i64 %29, 6
  br i1 %30, label %31, label %35

31:                                               ; preds = %25
  %32 = tail call noundef zeroext i1 @_ZN10xalanc_1_86equalsEPKtS1_j(ptr noundef %2, ptr noundef nonnull @_ZN10xalanc_1_817FormatterListener8s_piDataE, i32 noundef 3)
  br i1 %32, label %33, label %35

33:                                               ; preds = %31
  %34 = getelementptr inbounds %"class.xalanc_1_8::FormatterToXML", ptr %0, i64 0, i32 14
  br label %306

35:                                               ; preds = %25, %12, %31, %18
  tail call void @_ZN10xalanc_1_814FormatterToXML17writeParentTagEndEv(ptr noundef nonnull align 8 dereferenceable(1644) %0)
  %36 = getelementptr inbounds %"class.xalanc_1_8::FormatterToXML", ptr %0, i64 0, i32 9
  %37 = load i8, ptr %36, align 4, !tbaa !112, !range !132, !noundef !146
  %38 = icmp ne i8 %37, 0
  %39 = getelementptr inbounds %"class.xalanc_1_8::FormatterToXML", ptr %0, i64 0, i32 8
  %40 = load i8, ptr %39, align 1, !range !132
  %41 = icmp eq i8 %40, 0
  %42 = select i1 %38, i1 %41, i1 false
  %43 = getelementptr inbounds %"class.xalanc_1_8::FormatterToXML", ptr %0, i64 0, i32 12
  %44 = load i8, ptr %43, align 1, !range !132
  %45 = icmp eq i8 %44, 0
  %46 = select i1 %42, i1 %45, i1 false
  br i1 %46, label %47, label %101

47:                                               ; preds = %35
  %48 = getelementptr inbounds %"class.xalanc_1_8::FormatterToXML", ptr %0, i64 0, i32 21
  %49 = load i32, ptr %48, align 8, !tbaa !116
  %50 = getelementptr inbounds %"class.xalanc_1_8::FormatterToXML", ptr %0, i64 0, i32 10
  %51 = load i8, ptr %50, align 1, !tbaa !113, !range !132, !noundef !146
  %52 = icmp eq i8 %51, 0
  br i1 %52, label %75, label %53

53:                                               ; preds = %47
  %54 = getelementptr inbounds %"class.xalanc_1_8::FormatterToXML", ptr %0, i64 0, i32 49
  %55 = load ptr, ptr %54, align 8, !tbaa !128
  %56 = getelementptr inbounds %"class.xalanc_1_8::FormatterToXML", ptr %0, i64 0, i32 50
  %57 = load i32, ptr %56, align 8, !tbaa !130
  %58 = getelementptr inbounds %"class.xalanc_1_8::FormatterToXML", ptr %0, i64 0, i32 47
  %59 = load i64, ptr %58, align 8, !tbaa !142
  %60 = getelementptr inbounds %"class.xalanc_1_8::FormatterToXML", ptr %0, i64 0, i32 47, i32 1
  %61 = load i64, ptr %60, align 8, !tbaa !142
  %62 = getelementptr inbounds i8, ptr %0, i64 %61
  %63 = and i64 %59, 1
  %64 = icmp eq i64 %63, 0
  br i1 %64, label %70, label %65

65:                                               ; preds = %53
  %66 = load ptr, ptr %62, align 8, !tbaa !81
  %67 = add i64 %59, -1
  %68 = getelementptr i8, ptr %66, i64 %67, !nosanitize !146
  %69 = load ptr, ptr %68, align 8, !nosanitize !146
  br label %72

70:                                               ; preds = %53
  %71 = inttoptr i64 %59 to ptr
  br label %72

72:                                               ; preds = %70, %65
  %73 = phi ptr [ %69, %65 ], [ %71, %70 ]
  tail call void %73(ptr noundef nonnull align 8 dereferenceable(1644) %62, ptr noundef %55, i32 noundef 0, i32 noundef %57)
  %74 = load i8, ptr %36, align 4, !tbaa !112, !range !132
  br label %75

75:                                               ; preds = %72, %47
  %76 = phi i8 [ %74, %72 ], [ 1, %47 ]
  %77 = icmp ne i8 %76, 0
  %78 = icmp sgt i32 %49, 0
  %79 = and i1 %78, %77
  br i1 %79, label %80, label %101

80:                                               ; preds = %75
  %81 = getelementptr inbounds %"class.xalanc_1_8::FormatterToXML", ptr %0, i64 0, i32 44
  %82 = getelementptr inbounds %"class.xalanc_1_8::FormatterToXML", ptr %0, i64 0, i32 44, i32 1
  br label %83

83:                                               ; preds = %97, %80
  %84 = phi i32 [ 0, %80 ], [ %99, %97 ]
  %85 = load i64, ptr %81, align 8, !tbaa !136
  %86 = load i64, ptr %82, align 8, !tbaa !136
  %87 = getelementptr inbounds i8, ptr %0, i64 %86
  %88 = and i64 %85, 1
  %89 = icmp eq i64 %88, 0
  br i1 %89, label %95, label %90

90:                                               ; preds = %83
  %91 = load ptr, ptr %87, align 8, !tbaa !81
  %92 = add i64 %85, -1
  %93 = getelementptr i8, ptr %91, i64 %92, !nosanitize !146
  %94 = load ptr, ptr %93, align 8, !nosanitize !146
  br label %97

95:                                               ; preds = %83
  %96 = inttoptr i64 %85 to ptr
  br label %97

97:                                               ; preds = %95, %90
  %98 = phi ptr [ %94, %90 ], [ %96, %95 ]
  tail call void %98(ptr noundef nonnull align 8 dereferenceable(1644) %87, i16 noundef zeroext 32)
  %99 = add nuw nsw i32 %84, 1
  %100 = icmp eq i32 %99, %49
  br i1 %100, label %101, label %83

101:                                              ; preds = %97, %35, %75
  %102 = getelementptr inbounds %"class.xalanc_1_8::FormatterToXML", ptr %0, i64 0, i32 40
  %103 = load i64, ptr %102, align 8, !tbaa !135
  %104 = getelementptr inbounds %"class.xalanc_1_8::FormatterToXML", ptr %0, i64 0, i32 40, i32 1
  %105 = load i64, ptr %104, align 8, !tbaa !135
  %106 = getelementptr inbounds i8, ptr %0, i64 %105
  %107 = and i64 %103, 1
  %108 = icmp eq i64 %107, 0
  br i1 %108, label %114, label %109

109:                                              ; preds = %101
  %110 = load ptr, ptr %106, align 8, !tbaa !81
  %111 = add i64 %103, -1
  %112 = getelementptr i8, ptr %110, i64 %111, !nosanitize !146
  %113 = load ptr, ptr %112, align 8, !nosanitize !146
  br label %116

114:                                              ; preds = %101
  %115 = inttoptr i64 %103 to ptr
  br label %116

116:                                              ; preds = %109, %114
  %117 = phi ptr [ %113, %109 ], [ %115, %114 ]
  tail call void %117(ptr noundef nonnull align 8 dereferenceable(1644) %106, i16 noundef zeroext 60)
  %118 = load i64, ptr %102, align 8, !tbaa !135
  %119 = load i64, ptr %104, align 8, !tbaa !135
  %120 = getelementptr inbounds i8, ptr %0, i64 %119
  %121 = and i64 %118, 1
  %122 = icmp eq i64 %121, 0
  br i1 %122, label %128, label %123

123:                                              ; preds = %116
  %124 = load ptr, ptr %120, align 8, !tbaa !81
  %125 = add i64 %118, -1
  %126 = getelementptr i8, ptr %124, i64 %125, !nosanitize !146
  %127 = load ptr, ptr %126, align 8, !nosanitize !146
  br label %130

128:                                              ; preds = %116
  %129 = inttoptr i64 %118 to ptr
  br label %130

130:                                              ; preds = %123, %128
  %131 = phi ptr [ %127, %123 ], [ %129, %128 ]
  tail call void %131(ptr noundef nonnull align 8 dereferenceable(1644) %120, i16 noundef zeroext 63)
  %132 = getelementptr inbounds %"class.xalanc_1_8::FormatterToXML", ptr %0, i64 0, i32 41
  %133 = load i64, ptr %132, align 8, !tbaa !137
  %134 = getelementptr inbounds %"class.xalanc_1_8::FormatterToXML", ptr %0, i64 0, i32 41, i32 1
  %135 = load i64, ptr %134, align 8, !tbaa !137
  %136 = getelementptr inbounds i8, ptr %0, i64 %135
  %137 = and i64 %133, 1
  %138 = icmp eq i64 %137, 0
  br i1 %138, label %144, label %139

139:                                              ; preds = %130
  %140 = load ptr, ptr %136, align 8, !tbaa !81
  %141 = add i64 %133, -1
  %142 = getelementptr i8, ptr %140, i64 %141, !nosanitize !146
  %143 = load ptr, ptr %142, align 8, !nosanitize !146
  br label %146

144:                                              ; preds = %130
  %145 = inttoptr i64 %133 to ptr
  br label %146

146:                                              ; preds = %139, %144
  %147 = phi ptr [ %143, %139 ], [ %145, %144 ]
  tail call void %147(ptr noundef nonnull align 8 dereferenceable(1644) %136, ptr noundef %1)
  br label %148

148:                                              ; preds = %148, %146
  %149 = phi ptr [ %2, %146 ], [ %152, %148 ]
  %150 = load i16, ptr %149, align 2, !tbaa !129
  %151 = icmp eq i16 %150, 0
  %152 = getelementptr inbounds i16, ptr %149, i64 1
  br i1 %151, label %153, label %148

153:                                              ; preds = %148
  %154 = ptrtoint ptr %149 to i64
  %155 = ptrtoint ptr %2 to i64
  %156 = sub i64 %154, %155
  %157 = lshr exact i64 %156, 1
  %158 = and i64 %156, 8589934590
  %159 = icmp eq i64 %158, 0
  br i1 %159, label %245, label %160

160:                                              ; preds = %153
  %161 = load i16, ptr %2, align 2, !tbaa !129
  %162 = zext i16 %161 to i64
  %163 = getelementptr inbounds [0 x i8], ptr @_ZN10xalanc_1_812XalanXMLChar15theUnicodeTableE, i64 0, i64 %162
  %164 = load i8, ptr %163, align 1, !tbaa !147
  %165 = icmp eq i8 %164, 6
  br i1 %165, label %181, label %166

166:                                              ; preds = %160
  %167 = load i64, ptr %102, align 8, !tbaa !135
  %168 = load i64, ptr %104, align 8, !tbaa !135
  %169 = getelementptr inbounds i8, ptr %0, i64 %168
  %170 = and i64 %167, 1
  %171 = icmp eq i64 %170, 0
  br i1 %171, label %177, label %172

172:                                              ; preds = %166
  %173 = load ptr, ptr %169, align 8, !tbaa !81
  %174 = add i64 %167, -1
  %175 = getelementptr i8, ptr %173, i64 %174, !nosanitize !146
  %176 = load ptr, ptr %175, align 8, !nosanitize !146
  br label %179

177:                                              ; preds = %166
  %178 = inttoptr i64 %167 to ptr
  br label %179

179:                                              ; preds = %172, %177
  %180 = phi ptr [ %176, %172 ], [ %178, %177 ]
  tail call void %180(ptr noundef nonnull align 8 dereferenceable(1644) %169, i16 noundef zeroext 32)
  br label %181

