; ModuleID = 'ResultNamespacesStack.cpp'
source_filename = "ResultNamespacesStack.cpp"
target datalayout = "e-m:e-p270:32:32-p271:32:32-p272:64:64-i64:64-f80:128-n8:16:32:64-S128"
target triple = "x86_64-unknown-linux-gnu"

%"class.std::deque.3" = type { %"class.std::_Deque_base.4" }
%"class.std::_Deque_base.4" = type { %"struct.std::_Deque_base<xalanc_1_8::NameSpace, std::allocator<xalanc_1_8::NameSpace> >::_Deque_impl" }
%"struct.std::_Deque_base<xalanc_1_8::NameSpace, std::allocator<xalanc_1_8::NameSpace> >::_Deque_impl" = type { ptr, i64, %"struct.std::_Deque_iterator.8", %"struct.std::_Deque_iterator.8" }
%"struct.std::_Deque_iterator.8" = type { ptr, ptr, ptr, ptr }
%"class.xalanc_1_8::ResultNamespacesStack" = type { %"class.std::deque", %"struct.std::_Deque_iterator", %"struct.std::_Deque_iterator", %"class.std::vector" }
%"class.std::deque" = type { %"class.std::_Deque_base" }
%"class.std::_Deque_base" = type { %"struct.std::_Deque_base<std::deque<xalanc_1_8::NameSpace>, std::allocator<std::deque<xalanc_1_8::NameSpace> > >::_Deque_impl" }
%"struct.std::_Deque_base<std::deque<xalanc_1_8::NameSpace>, std::allocator<std::deque<xalanc_1_8::NameSpace> > >::_Deque_impl" = type { ptr, i64, %"struct.std::_Deque_iterator", %"struct.std::_Deque_iterator" }
%"struct.std::_Deque_iterator" = type { ptr, ptr, ptr, ptr }
%"class.std::vector" = type { %"struct.std::_Bvector_base" }
%"struct.std::_Bvector_base" = type { %"struct.std::_Bvector_base<std::allocator<bool> >::_Bvector_impl" }
%"struct.std::_Bvector_base<std::allocator<bool> >::_Bvector_impl" = type { %"struct.std::_Bvector_base<std::allocator<bool> >::_Bvector_impl_data" }
%"struct.std::_Bvector_base<std::allocator<bool> >::_Bvector_impl_data" = type { %"struct.std::_Bit_iterator", %"struct.std::_Bit_iterator", ptr }
%"struct.std::_Bit_iterator" = type { %"struct.std::_Bit_iterator_base.base", [4 x i8] }
%"struct.std::_Bit_iterator_base.base" = type <{ ptr, i32 }>
%"class.xalanc_1_8::NameSpace" = type { %"class.xalanc_1_8::XalanDOMString", %"class.xalanc_1_8::XalanDOMString" }
%"class.xalanc_1_8::XalanDOMString" = type <{ %"class.std::vector.9", i32, [4 x i8] }>
%"class.std::vector.9" = type { %"struct.std::_Vector_base" }
%"struct.std::_Vector_base" = type { %"struct.std::_Vector_base<unsigned short, std::allocator<unsigned short> >::_Vector_impl" }
%"struct.std::_Vector_base<unsigned short, std::allocator<unsigned short> >::_Vector_impl" = type { %"struct.std::_Vector_base<unsigned short, std::allocator<unsigned short> >::_Vector_impl_data" }
%"struct.std::_Vector_base<unsigned short, std::allocator<unsigned short> >::_Vector_impl_data" = type { ptr, ptr, ptr }
%"struct.std::_Deque_iterator.13" = type { ptr, ptr, ptr, ptr }
%"struct.std::_Deque_iterator.14" = type { ptr, ptr, ptr, ptr }

$_ZNSt5dequeIN10xalanc_1_89NameSpaceESaIS1_EED2Ev = comdat any

$__clang_call_terminate = comdat any

$_ZNSt5dequeIS_IN10xalanc_1_89NameSpaceESaIS1_EESaIS3_EED2Ev = comdat any

$_ZNSt5dequeIS_IN10xalanc_1_89NameSpaceESaIS1_EESaIS3_EE6resizeEmS3_ = comdat any

$_ZNSt5dequeIN10xalanc_1_89NameSpaceESaIS1_EE6resizeEmS1_ = comdat any

$_ZN10xalanc_1_89NameSpaceD2Ev = comdat any

$_ZNSt6vectorItSaItEEaSERKS1_ = comdat any

$_ZNSt11_Deque_baseIN10xalanc_1_89NameSpaceESaIS1_EE17_M_initialize_mapEm = comdat any

$_ZNSt11_Deque_baseIN10xalanc_1_89NameSpaceESaIS1_EED2Ev = comdat any

$_ZNSt5dequeIN10xalanc_1_89NameSpaceESaIS1_EE19_M_destroy_data_auxESt15_Deque_iteratorIS1_RS1_PS1_ES7_ = comdat any

$_ZNSt5dequeIS_IN10xalanc_1_89NameSpaceESaIS1_EESaIS3_EE18_M_fill_initializeERKS3_ = comdat any

$_ZNSt11_Deque_baseISt5dequeIN10xalanc_1_89NameSpaceESaIS2_EESaIS4_EED2Ev = comdat any

$_ZNSt11_Deque_baseISt5dequeIN10xalanc_1_89NameSpaceESaIS2_EESaIS4_EE17_M_initialize_mapEm = comdat any

$_ZNSt5dequeIN10xalanc_1_89NameSpaceESaIS1_EEC2ERKS3_ = comdat any

$_ZNSt20__uninitialized_copyILb0EE13__uninit_copyISt15_Deque_iteratorIN10xalanc_1_89NameSpaceERKS4_PS5_ES2_IS4_RS4_PS4_EEET0_T_SD_SC_ = comdat any

$_ZSt8_DestroyISt15_Deque_iteratorIN10xalanc_1_89NameSpaceERS2_PS2_EEvT_S6_ = comdat any

$_ZNSt5dequeIS_IN10xalanc_1_89NameSpaceESaIS1_EESaIS3_EE19_M_destroy_data_auxESt15_Deque_iteratorIS3_RS3_PS3_ES9_ = comdat any

$_ZNSt5dequeIS_IN10xalanc_1_89NameSpaceESaIS1_EESaIS3_EE14_M_fill_insertESt15_Deque_iteratorIS3_RS3_PS3_EmRKS3_ = comdat any

$_ZNSt5dequeIS_IN10xalanc_1_89NameSpaceESaIS1_EESaIS3_EE13_M_insert_auxESt15_Deque_iteratorIS3_RS3_PS3_EmRKS3_ = comdat any

$_ZNSt5dequeIS_IN10xalanc_1_89NameSpaceESaIS1_EESaIS3_EE24_M_new_elements_at_frontEm = comdat any

$_ZNSt5dequeIS_IN10xalanc_1_89NameSpaceESaIS1_EESaIS3_EE17_M_reallocate_mapEmb = comdat any

$_ZNSt20__uninitialized_fillILb0EE13__uninit_fillISt15_Deque_iteratorISt5dequeIN10xalanc_1_89NameSpaceESaIS5_EERS7_PS7_ES7_EEvT_SB_RKT0_ = comdat any

$_ZNSt5dequeIS_IN10xalanc_1_89NameSpaceESaIS1_EESaIS3_EE23_M_new_elements_at_backEm = comdat any

$_ZSt4fillISt5dequeIN10xalanc_1_89NameSpaceESaIS2_EEEvRKSt15_Deque_iteratorIT_RS6_PS6_ESB_RKS6_ = comdat any

$_ZSt25__uninitialized_move_fillISt15_Deque_iteratorISt5dequeIN10xalanc_1_89NameSpaceESaIS3_EERS5_PS5_ES8_S5_SaIS5_EEvT_SA_T0_SB_RKT1_RT2_ = comdat any

$_ZSt25__uninitialized_fill_moveISt15_Deque_iteratorISt5dequeIN10xalanc_1_89NameSpaceESaIS3_EERS5_PS5_ES5_S8_SaIS5_EET_SA_SA_RKT0_T1_SE_RT2_ = comdat any

$_ZNSt20__uninitialized_copyILb0EE13__uninit_copyISt15_Deque_iteratorISt5dequeIN10xalanc_1_89NameSpaceESaIS5_EERS7_PS7_ESA_EET0_T_SC_SB_ = comdat any

$_ZNSt5dequeIN10xalanc_1_89NameSpaceESaIS1_EEaSERKS3_ = comdat any

$_ZSt4copyIN10xalanc_1_89NameSpaceEESt15_Deque_iteratorIT_RS3_PS3_ES2_IS3_RKS3_PS7_ESA_S6_ = comdat any

$_ZNSt5dequeIN10xalanc_1_89NameSpaceESaIS1_EE19_M_range_insert_auxISt15_Deque_iteratorIS1_RKS1_PS6_EEEvS5_IS1_RS1_PS1_ET_SD_St20forward_iterator_tag = comdat any

$_ZNSt5dequeIN10xalanc_1_89NameSpaceESaIS1_EE13_M_insert_auxISt15_Deque_iteratorIS1_RKS1_PS6_EEEvS5_IS1_RS1_PS1_ET_SD_m = comdat any

$_ZNSt5dequeIN10xalanc_1_89NameSpaceESaIS1_EE24_M_new_elements_at_frontEm = comdat any

$_ZNSt5dequeIN10xalanc_1_89NameSpaceESaIS1_EE17_M_reallocate_mapEmb = comdat any

$_ZNSt5dequeIN10xalanc_1_89NameSpaceESaIS1_EE23_M_new_elements_at_backEm = comdat any

$_ZSt25__uninitialized_move_copyISt15_Deque_iteratorIN10xalanc_1_89NameSpaceERS2_PS2_ES0_IS2_RKS2_PS6_ES5_SaIS2_EET1_T_SC_T0_SD_SB_RT2_ = comdat any

$_ZSt25__uninitialized_copy_moveISt15_Deque_iteratorIN10xalanc_1_89NameSpaceERKS2_PS3_ES0_IS2_RS2_PS2_ES9_SaIS2_EET1_T_SC_T0_SD_SB_RT2_ = comdat any

$_ZNSt20__uninitialized_copyILb0EE13__uninit_copyISt15_Deque_iteratorIN10xalanc_1_89NameSpaceERS4_PS4_ES7_EET0_T_S9_S8_ = comdat any

$_ZSt8_DestroyISt15_Deque_iteratorIN10xalanc_1_89NameSpaceERS2_PS2_ES2_EvT_S6_RSaIT0_E = comdat any

$_ZSt13copy_backwardIN10xalanc_1_89NameSpaceEESt15_Deque_iteratorIT_RS3_PS3_ES2_IS3_RKS3_PS7_ESA_S6_ = comdat any

$_ZNSt5dequeIN10xalanc_1_89NameSpaceESaIS1_EE14_M_fill_insertESt15_Deque_iteratorIS1_RS1_PS1_EmRKS1_ = comdat any

$_ZNSt5dequeIN10xalanc_1_89NameSpaceESaIS1_EE13_M_insert_auxESt15_Deque_iteratorIS1_RS1_PS1_EmRKS1_ = comdat any

$_ZNSt20__uninitialized_fillILb0EE13__uninit_fillISt15_Deque_iteratorIN10xalanc_1_89NameSpaceERS4_PS4_ES4_EEvT_S8_RKT0_ = comdat any

$_ZSt4fillIN10xalanc_1_89NameSpaceEEvRKSt15_Deque_iteratorIT_RS3_PS3_ES8_RKS3_ = comdat any

$_ZSt25__uninitialized_move_fillISt15_Deque_iteratorIN10xalanc_1_89NameSpaceERS2_PS2_ES5_S2_SaIS2_EEvT_S7_T0_S8_RKT1_RT2_ = comdat any

$_ZSt25__uninitialized_fill_moveISt15_Deque_iteratorIN10xalanc_1_89NameSpaceERS2_PS2_ES2_S5_SaIS2_EET_S7_S7_RKT0_T1_SB_RT2_ = comdat any

$_ZNSt6vectorIbSaIbEE13_M_reallocateEm = comdat any

$_ZNSt6vectorIbSaIbEE13_M_insert_auxESt13_Bit_iteratorb = comdat any

@.str.1 = private unnamed_addr constant [32 x i8] c"deque::_M_new_elements_at_front\00", align 1
@.str.2 = private unnamed_addr constant [31 x i8] c"deque::_M_new_elements_at_back\00", align 1
@.str.4 = private unnamed_addr constant [28 x i8] c"vector<bool>::_M_insert_aux\00", align 1

@_ZN10xalanc_1_821ResultNamespacesStackC1Ev = dso_local unnamed_addr alias void (ptr), ptr @_ZN10xalanc_1_821ResultNamespacesStackC2Ev
@_ZN10xalanc_1_821ResultNamespacesStackD1Ev = dso_local unnamed_addr alias void (ptr), ptr @_ZN10xalanc_1_821ResultNamespacesStackD2Ev

; Function Attrs: uwtable
define dso_local void @_ZN10xalanc_1_821ResultNamespacesStackC2Ev(ptr noundef nonnull align 8 dereferenceable(184) %0) unnamed_addr #0 align 2 personality ptr @__gxx_personality_v0 {
  %2 = alloca %"class.std::deque.3", align 8
  call void @llvm.lifetime.start.p0(i64 80, ptr nonnull %2) #12
  call void @llvm.memset.p0.i64(ptr noundef nonnull align 8 dereferenceable(80) %2, i8 0, i64 80, i1 false)
  call void @_ZNSt11_Deque_baseIN10xalanc_1_89NameSpaceESaIS1_EE17_M_initialize_mapEm(ptr noundef nonnull align 8 dereferenceable(80) %2, i64 noundef 0)
  call void @llvm.memset.p0.i64(ptr noundef nonnull align 8 dereferenceable(80) %0, i8 0, i64 80, i1 false)
  invoke void @_ZNSt11_Deque_baseISt5dequeIN10xalanc_1_89NameSpaceESaIS2_EESaIS4_EE17_M_initialize_mapEm(ptr noundef nonnull align 8 dereferenceable(80) %0, i64 noundef 1)
          to label %3 unwind label %31

3:                                                ; preds = %1
  invoke void @_ZNSt5dequeIS_IN10xalanc_1_89NameSpaceESaIS1_EESaIS3_EE18_M_fill_initializeERKS3_(ptr noundef nonnull align 8 dereferenceable(80) %0, ptr noundef nonnull align 8 dereferenceable(80) %2)
          to label %9 unwind label %4

4:                                                ; preds = %3
  %5 = landingpad { ptr, i32 }
          cleanup
  invoke void @_ZNSt11_Deque_baseISt5dequeIN10xalanc_1_89NameSpaceESaIS2_EESaIS4_EED2Ev(ptr noundef nonnull align 8 dereferenceable(80) %0)
          to label %33 unwind label %6

6:                                                ; preds = %4
  %7 = landingpad { ptr, i32 }
          catch ptr null
  %8 = extractvalue { ptr, i32 } %7, 0
  call void @__clang_call_terminate(ptr %8) #13
  unreachable

9:                                                ; preds = %3
  call void @_ZNSt5dequeIN10xalanc_1_89NameSpaceESaIS1_EED2Ev(ptr noundef nonnull align 8 dereferenceable(80) %2)
  call void @llvm.lifetime.end.p0(i64 80, ptr nonnull %2) #12
  %10 = getelementptr inbounds %"class.xalanc_1_8::ResultNamespacesStack", ptr %0, i64 0, i32 1
  call void @llvm.experimental.noalias.scope.decl(metadata !7)
  %11 = getelementptr inbounds %"struct.std::_Deque_base<std::deque<xalanc_1_8::NameSpace>, std::allocator<std::deque<xalanc_1_8::NameSpace> > >::_Deque_impl", ptr %0, i64 0, i32 2
  %12 = load ptr, ptr %11, align 8, !tbaa !10, !noalias !7
  store ptr %12, ptr %10, align 8, !tbaa !10, !alias.scope !7
  %13 = getelementptr inbounds %"class.xalanc_1_8::ResultNamespacesStack", ptr %0, i64 0, i32 1, i32 1
  %14 = getelementptr inbounds %"struct.std::_Deque_base<std::deque<xalanc_1_8::NameSpace>, std::allocator<std::deque<xalanc_1_8::NameSpace> > >::_Deque_impl", ptr %0, i64 0, i32 2, i32 1
  %15 = load ptr, ptr %14, align 8, !tbaa !15, !noalias !7
  store ptr %15, ptr %13, align 8, !tbaa !15, !alias.scope !7
  %16 = getelementptr inbounds %"class.xalanc_1_8::ResultNamespacesStack", ptr %0, i64 0, i32 1, i32 2
  %17 = getelementptr inbounds %"struct.std::_Deque_base<std::deque<xalanc_1_8::NameSpace>, std::allocator<std::deque<xalanc_1_8::NameSpace> > >::_Deque_impl", ptr %0, i64 0, i32 2, i32 2
  %18 = load ptr, ptr %17, align 8, !tbaa !16, !noalias !7
  store ptr %18, ptr %16, align 8, !tbaa !16, !alias.scope !7
  %19 = getelementptr inbounds %"class.xalanc_1_8::ResultNamespacesStack", ptr %0, i64 0, i32 1, i32 3
  %20 = getelementptr inbounds %"struct.std::_Deque_base<std::deque<xalanc_1_8::NameSpace>, std::allocator<std::deque<xalanc_1_8::NameSpace> > >::_Deque_impl", ptr %0, i64 0, i32 2, i32 3
  %21 = load ptr, ptr %20, align 8, !tbaa !17, !noalias !7
  store ptr %21, ptr %19, align 8, !tbaa !17, !alias.scope !7
  %22 = getelementptr inbounds %"class.xalanc_1_8::ResultNamespacesStack", ptr %0, i64 0, i32 2
  store ptr %12, ptr %22, align 8, !tbaa !10
  %23 = getelementptr inbounds %"class.xalanc_1_8::ResultNamespacesStack", ptr %0, i64 0, i32 2, i32 1
  store ptr %15, ptr %23, align 8, !tbaa !15
  %24 = getelementptr inbounds %"class.xalanc_1_8::ResultNamespacesStack", ptr %0, i64 0, i32 2, i32 2
  store ptr %18, ptr %24, align 8, !tbaa !16
  %25 = getelementptr inbounds %"class.xalanc_1_8::ResultNamespacesStack", ptr %0, i64 0, i32 2, i32 3
  store ptr %21, ptr %25, align 8, !tbaa !17
  %26 = getelementptr inbounds %"class.xalanc_1_8::ResultNamespacesStack", ptr %0, i64 0, i32 3
  store ptr null, ptr %26, align 8, !tbaa !18
  %27 = getelementptr inbounds %"class.xalanc_1_8::ResultNamespacesStack", ptr %0, i64 0, i32 3, i32 0, i32 0, i32 0, i32 0, i32 0, i32 1
  store i32 0, ptr %27, align 8, !tbaa !21
  %28 = getelementptr inbounds %"class.xalanc_1_8::ResultNamespacesStack", ptr %0, i64 0, i32 3, i32 0, i32 0, i32 0, i32 1
  store ptr null, ptr %28, align 8, !tbaa !18
  %29 = getelementptr inbounds %"class.xalanc_1_8::ResultNamespacesStack", ptr %0, i64 0, i32 3, i32 0, i32 0, i32 0, i32 1, i32 0, i32 1
  store i32 0, ptr %29, align 8, !tbaa !21
  %30 = getelementptr inbounds %"class.xalanc_1_8::ResultNamespacesStack", ptr %0, i64 0, i32 3, i32 0, i32 0, i32 0, i32 2
  store ptr null, ptr %30, align 8, !tbaa !22
  ret void

31:                                               ; preds = %1
  %32 = landingpad { ptr, i32 }
          cleanup
  br label %33

33:                                               ; preds = %4, %31
  %34 = phi { ptr, i32 } [ %32, %31 ], [ %5, %4 ]
  invoke void @_ZNSt5dequeIN10xalanc_1_89NameSpaceESaIS1_EED2Ev(ptr noundef nonnull align 8 dereferenceable(80) %2)
          to label %35 unwind label %36

35:                                               ; preds = %33
  call void @llvm.lifetime.end.p0(i64 80, ptr nonnull %2) #12
  resume { ptr, i32 } %34

36:                                               ; preds = %33
  %37 = landingpad { ptr, i32 }
          catch ptr null
  %38 = extractvalue { ptr, i32 } %37, 0
  call void @__clang_call_terminate(ptr %38) #13
  unreachable
}

; Function Attrs: mustprogress nocallback nofree nosync nounwind willreturn memory(argmem: readwrite)
declare void @llvm.lifetime.start.p0(i64 immarg, ptr nocapture) #1

declare i32 @__gxx_personality_v0(...)

; Function Attrs: mustprogress nocallback nofree nosync nounwind willreturn memory(argmem: readwrite)
declare void @llvm.lifetime.end.p0(i64 immarg, ptr nocapture) #1

; Function Attrs: uwtable
define linkonce_odr dso_local void @_ZNSt5dequeIN10xalanc_1_89NameSpaceESaIS1_EED2Ev(ptr noundef nonnull align 8 dereferenceable(80) %0) unnamed_addr #0 comdat align 2 personality ptr @__gxx_personality_v0 {
  %2 = alloca %"struct.std::_Deque_iterator.8", align 8
  %3 = alloca %"struct.std::_Deque_iterator.8", align 8
  %4 = getelementptr inbounds %"struct.std::_Deque_base<xalanc_1_8::NameSpace, std::allocator<xalanc_1_8::NameSpace> >::_Deque_impl", ptr %0, i64 0, i32 2
  %5 = load ptr, ptr %4, align 8, !tbaa !25, !noalias !27
  %6 = getelementptr inbounds %"struct.std::_Deque_base<xalanc_1_8::NameSpace, std::allocator<xalanc_1_8::NameSpace> >::_Deque_impl", ptr %0, i64 0, i32 2, i32 1
  %7 = load ptr, ptr %6, align 8, !tbaa !30, !noalias !27
  %8 = getelementptr inbounds %"struct.std::_Deque_base<xalanc_1_8::NameSpace, std::allocator<xalanc_1_8::NameSpace> >::_Deque_impl", ptr %0, i64 0, i32 2, i32 2
  %9 = load ptr, ptr %8, align 8, !tbaa !31, !noalias !27
  %10 = getelementptr inbounds %"struct.std::_Deque_base<xalanc_1_8::NameSpace, std::allocator<xalanc_1_8::NameSpace> >::_Deque_impl", ptr %0, i64 0, i32 2, i32 3
  %11 = load ptr, ptr %10, align 8, !tbaa !32, !noalias !27
  %12 = getelementptr inbounds %"struct.std::_Deque_base<xalanc_1_8::NameSpace, std::allocator<xalanc_1_8::NameSpace> >::_Deque_impl", ptr %0, i64 0, i32 3
  %13 = load ptr, ptr %12, align 8, !tbaa !25, !noalias !33
  %14 = getelementptr inbounds %"struct.std::_Deque_base<xalanc_1_8::NameSpace, std::allocator<xalanc_1_8::NameSpace> >::_Deque_impl", ptr %0, i64 0, i32 3, i32 1
  %15 = load ptr, ptr %14, align 8, !tbaa !30, !noalias !33
  %16 = getelementptr inbounds %"struct.std::_Deque_base<xalanc_1_8::NameSpace, std::allocator<xalanc_1_8::NameSpace> >::_Deque_impl", ptr %0, i64 0, i32 3, i32 2
  %17 = load ptr, ptr %16, align 8, !tbaa !31, !noalias !33
  %18 = getelementptr inbounds %"struct.std::_Deque_base<xalanc_1_8::NameSpace, std::allocator<xalanc_1_8::NameSpace> >::_Deque_impl", ptr %0, i64 0, i32 3, i32 3
  %19 = load ptr, ptr %18, align 8, !tbaa !32, !noalias !33
  call void @llvm.lifetime.start.p0(i64 32, ptr nonnull %2)
  call void @llvm.lifetime.start.p0(i64 32, ptr nonnull %3)
  store ptr %5, ptr %2, align 8, !tbaa !25
  %20 = getelementptr inbounds %"struct.std::_Deque_iterator.8", ptr %2, i64 0, i32 1
  store ptr %7, ptr %20, align 8, !tbaa !30
  %21 = getelementptr inbounds %"struct.std::_Deque_iterator.8", ptr %2, i64 0, i32 2
  store ptr %9, ptr %21, align 8, !tbaa !31
  %22 = getelementptr inbounds %"struct.std::_Deque_iterator.8", ptr %2, i64 0, i32 3
  store ptr %11, ptr %22, align 8, !tbaa !32
  store ptr %13, ptr %3, align 8, !tbaa !25
  %23 = getelementptr inbounds %"struct.std::_Deque_iterator.8", ptr %3, i64 0, i32 1
  store ptr %15, ptr %23, align 8, !tbaa !30
  %24 = getelementptr inbounds %"struct.std::_Deque_iterator.8", ptr %3, i64 0, i32 2
  store ptr %17, ptr %24, align 8, !tbaa !31
  %25 = getelementptr inbounds %"struct.std::_Deque_iterator.8", ptr %3, i64 0, i32 3
  store ptr %19, ptr %25, align 8, !tbaa !32
  invoke void @_ZNSt5dequeIN10xalanc_1_89NameSpaceESaIS1_EE19_M_destroy_data_auxESt15_Deque_iteratorIS1_RS1_PS1_ES7_(ptr noundef nonnull align 8 dereferenceable(80) %0, ptr noundef nonnull %2, ptr noundef nonnull %3)
          to label %26 unwind label %44

26:                                               ; preds = %1
  call void @llvm.lifetime.end.p0(i64 32, ptr nonnull %2)
  call void @llvm.lifetime.end.p0(i64 32, ptr nonnull %3)
  %27 = load ptr, ptr %0, align 8, !tbaa !36
  %28 = icmp eq ptr %27, null
  br i1 %28, label %43, label %29

29:                                               ; preds = %26
  %30 = load ptr, ptr %10, align 8, !tbaa !40
  %31 = load ptr, ptr %18, align 8, !tbaa !41
  %32 = getelementptr inbounds ptr, ptr %31, i64 1
  %33 = icmp ult ptr %30, %32
  br i1 %33, label %34, label %41

34:                                               ; preds = %29, %34
  %35 = phi ptr [ %37, %34 ], [ %30, %29 ]
  %36 = load ptr, ptr %35, align 8, !tbaa !42
  call void @_ZdlPv(ptr noundef %36) #12
  %37 = getelementptr inbounds ptr, ptr %35, i64 1
  %38 = icmp ult ptr %35, %31
  br i1 %38, label %34, label %39

39:                                               ; preds = %34
  %40 = load ptr, ptr %0, align 8, !tbaa !36
  br label %41

41:                                               ; preds = %39, %29
  %42 = phi ptr [ %40, %39 ], [ %27, %29 ]
  call void @_ZdlPv(ptr noundef %42) #12
  br label %43

43:                                               ; preds = %26, %41
  ret void

44:                                               ; preds = %1
  %45 = landingpad { ptr, i32 }
          cleanup
  invoke void @_ZNSt11_Deque_baseIN10xalanc_1_89NameSpaceESaIS1_EED2Ev(ptr noundef nonnull align 8 dereferenceable(80) %0)
          to label %46 unwind label %47

46:                                               ; preds = %44
  resume { ptr, i32 } %45

47:                                               ; preds = %44
  %48 = landingpad { ptr, i32 }
          catch ptr null
  %49 = extractvalue { ptr, i32 } %48, 0
  call void @__clang_call_terminate(ptr %49) #13
  unreachable
}

; Function Attrs: noinline noreturn nounwind uwtable
define linkonce_odr hidden void @__clang_call_terminate(ptr noundef %0) local_unnamed_addr #2 comdat {
  %2 = tail call ptr @__cxa_begin_catch(ptr %0) #12
  tail call void @_ZSt9terminatev() #13
  unreachable
}

declare ptr @__cxa_begin_catch(ptr) local_unnamed_addr

declare void @_ZSt9terminatev() local_unnamed_addr

; Function Attrs: uwtable
define linkonce_odr dso_local void @_ZNSt5dequeIS_IN10xalanc_1_89NameSpaceESaIS1_EESaIS3_EED2Ev(ptr noundef nonnull align 8 dereferenceable(80) %0) unnamed_addr #0 comdat align 2 personality ptr @__gxx_personality_v0 {
  %2 = alloca %"struct.std::_Deque_iterator", align 8
  %3 = alloca %"struct.std::_Deque_iterator", align 8
  %4 = getelementptr inbounds %"struct.std::_Deque_base<std::deque<xalanc_1_8::NameSpace>, std::allocator<std::deque<xalanc_1_8::NameSpace> > >::_Deque_impl", ptr %0, i64 0, i32 2
  %5 = load ptr, ptr %4, align 8, !tbaa !10, !noalias !43
  %6 = getelementptr inbounds %"struct.std::_Deque_base<std::deque<xalanc_1_8::NameSpace>, std::allocator<std::deque<xalanc_1_8::NameSpace> > >::_Deque_impl", ptr %0, i64 0, i32 2, i32 1
  %7 = load ptr, ptr %6, align 8, !tbaa !15, !noalias !43
  %8 = getelementptr inbounds %"struct.std::_Deque_base<std::deque<xalanc_1_8::NameSpace>, std::allocator<std::deque<xalanc_1_8::NameSpace> > >::_Deque_impl", ptr %0, i64 0, i32 2, i32 2
  %9 = load ptr, ptr %8, align 8, !tbaa !16, !noalias !43
  %10 = getelementptr inbounds %"struct.std::_Deque_base<std::deque<xalanc_1_8::NameSpace>, std::allocator<std::deque<xalanc_1_8::NameSpace> > >::_Deque_impl", ptr %0, i64 0, i32 2, i32 3
  %11 = load ptr, ptr %10, align 8, !tbaa !17, !noalias !43
  %12 = getelementptr inbounds %"struct.std::_Deque_base<std::deque<xalanc_1_8::NameSpace>, std::allocator<std::deque<xalanc_1_8::NameSpace> > >::_Deque_impl", ptr %0, i64 0, i32 3
  %13 = load ptr, ptr %12, align 8, !tbaa !10, !noalias !46
  %14 = getelementptr inbounds %"struct.std::_Deque_base<std::deque<xalanc_1_8::NameSpace>, std::allocator<std::deque<xalanc_1_8::NameSpace> > >::_Deque_impl", ptr %0, i64 0, i32 3, i32 1
  %15 = load ptr, ptr %14, align 8, !tbaa !15, !noalias !46
  %16 = getelementptr inbounds %"struct.std::_Deque_base<std::deque<xalanc_1_8::NameSpace>, std::allocator<std::deque<xalanc_1_8::NameSpace> > >::_Deque_impl", ptr %0, i64 0, i32 3, i32 2
  %17 = load ptr, ptr %16, align 8, !tbaa !16, !noalias !46
  %18 = getelementptr inbounds %"struct.std::_Deque_base<std::deque<xalanc_1_8::NameSpace>, std::allocator<std::deque<xalanc_1_8::NameSpace> > >::_Deque_impl", ptr %0, i64 0, i32 3, i32 3
  %19 = load ptr, ptr %18, align 8, !tbaa !17, !noalias !46
  call void @llvm.lifetime.start.p0(i64 32, ptr nonnull %2)
  call void @llvm.lifetime.start.p0(i64 32, ptr nonnull %3)
  store ptr %5, ptr %2, align 8, !tbaa !10
  %20 = getelementptr inbounds %"struct.std::_Deque_iterator", ptr %2, i64 0, i32 1
  store ptr %7, ptr %20, align 8, !tbaa !15
  %21 = getelementptr inbounds %"struct.std::_Deque_iterator", ptr %2, i64 0, i32 2
  store ptr %9, ptr %21, align 8, !tbaa !16
  %22 = getelementptr inbounds %"struct.std::_Deque_iterator", ptr %2, i64 0, i32 3
  store ptr %11, ptr %22, align 8, !tbaa !17
  store ptr %13, ptr %3, align 8, !tbaa !10
  %23 = getelementptr inbounds %"struct.std::_Deque_iterator", ptr %3, i64 0, i32 1
  store ptr %15, ptr %23, align 8, !tbaa !15
  %24 = getelementptr inbounds %"struct.std::_Deque_iterator", ptr %3, i64 0, i32 2
  store ptr %17, ptr %24, align 8, !tbaa !16
  %25 = getelementptr inbounds %"struct.std::_Deque_iterator", ptr %3, i64 0, i32 3
  store ptr %19, ptr %25, align 8, !tbaa !17
  invoke void @_ZNSt5dequeIS_IN10xalanc_1_89NameSpaceESaIS1_EESaIS3_EE19_M_destroy_data_auxESt15_Deque_iteratorIS3_RS3_PS3_ES9_(ptr noundef nonnull align 8 dereferenceable(80) %0, ptr noundef nonnull %2, ptr noundef nonnull %3)
          to label %26 unwind label %44

26:                                               ; preds = %1
  call void @llvm.lifetime.end.p0(i64 32, ptr nonnull %2)
  call void @llvm.lifetime.end.p0(i64 32, ptr nonnull %3)
  %27 = load ptr, ptr %0, align 8, !tbaa !49
  %28 = icmp eq ptr %27, null
  br i1 %28, label %43, label %29

29:                                               ; preds = %26
  %30 = load ptr, ptr %10, align 8, !tbaa !52
  %31 = load ptr, ptr %18, align 8, !tbaa !53
  %32 = getelementptr inbounds ptr, ptr %31, i64 1
  %33 = icmp ult ptr %30, %32
  br i1 %33, label %34, label %41

34:                                               ; preds = %29, %34
  %35 = phi ptr [ %37, %34 ], [ %30, %29 ]
  %36 = load ptr, ptr %35, align 8, !tbaa !42
  call void @_ZdlPv(ptr noundef %36) #12
  %37 = getelementptr inbounds ptr, ptr %35, i64 1
  %38 = icmp ult ptr %35, %31
  br i1 %38, label %34, label %39

39:                                               ; preds = %34
  %40 = load ptr, ptr %0, align 8, !tbaa !49
  br label %41

41:                                               ; preds = %39, %29
  %42 = phi ptr [ %40, %39 ], [ %27, %29 ]
  call void @_ZdlPv(ptr noundef %42) #12
  br label %43

43:                                               ; preds = %26, %41
  ret void

44:                                               ; preds = %1
  %45 = landingpad { ptr, i32 }
          cleanup
  invoke void @_ZNSt11_Deque_baseISt5dequeIN10xalanc_1_89NameSpaceESaIS2_EESaIS4_EED2Ev(ptr noundef nonnull align 8 dereferenceable(80) %0)
          to label %46 unwind label %47

46:                                               ; preds = %44
  resume { ptr, i32 } %45

47:                                               ; preds = %44
  %48 = landingpad { ptr, i32 }
          catch ptr null
  %49 = extractvalue { ptr, i32 } %48, 0
  call void @__clang_call_terminate(ptr %49) #13
  unreachable
}

; Function Attrs: uwtable
define dso_local void @_ZN10xalanc_1_821ResultNamespacesStackD2Ev(ptr noundef nonnull align 8 dereferenceable(184) %0) unnamed_addr #0 align 2 personality ptr @__gxx_personality_v0 {
  %2 = getelementptr inbounds %"class.xalanc_1_8::ResultNamespacesStack", ptr %0, i64 0, i32 3
  %3 = load ptr, ptr %2, align 8, !tbaa !18
  %4 = icmp eq ptr %3, null
  br i1 %4, label %16, label %5

5:                                                ; preds = %1
  %6 = getelementptr inbounds %"class.xalanc_1_8::ResultNamespacesStack", ptr %0, i64 0, i32 3, i32 0, i32 0, i32 0, i32 2
  %7 = load ptr, ptr %6, align 8, !tbaa !22
  %8 = ptrtoint ptr %7 to i64
  %9 = ptrtoint ptr %3 to i64
  %10 = sub i64 %8, %9
  %11 = ashr exact i64 %10, 3
  %12 = sub nsw i64 0, %11
  %13 = getelementptr inbounds i64, ptr %7, i64 %12
  tail call void @_ZdlPv(ptr noundef %13) #12
  %14 = getelementptr inbounds %"class.xalanc_1_8::ResultNamespacesStack", ptr %0, i64 0, i32 3, i32 0, i32 0, i32 0, i32 1
  store ptr null, ptr %14, align 8
  %15 = getelementptr inbounds %"class.xalanc_1_8::ResultNamespacesStack", ptr %0, i64 0, i32 3, i32 0, i32 0, i32 0, i32 1, i32 0, i32 1
  store i32 0, ptr %15, align 8
  tail call void @llvm.memcpy.p0.p0.i64(ptr noundef nonnull align 8 dereferenceable(12) %2, ptr noundef nonnull align 8 dereferenceable(12) %14, i64 12, i1 false)
  store ptr null, ptr %6, align 8, !tbaa !22
  br label %16

16:                                               ; preds = %5, %1
  tail call void @_ZNSt5dequeIS_IN10xalanc_1_89NameSpaceESaIS1_EESaIS3_EED2Ev(ptr noundef nonnull align 8 dereferenceable(80) %0)
  ret void
}

; Function Attrs: uwtable
define dso_local void @_ZN10xalanc_1_821ResultNamespacesStack14addDeclarationERKNS_14XalanDOMStringEPKtj(ptr noundef nonnull align 8 dereferenceable(184) %0, ptr noundef nonnull align 8 dereferenceable(28) %1, ptr noundef %2, i32 noundef %3) local_unnamed_addr #0 align 2 personality ptr @__gxx_personality_v0 {
  %5 = alloca %"class.std::deque.3", align 8
  %6 = alloca %"class.xalanc_1_8::NameSpace", align 8
  %7 = getelementptr inbounds %"class.xalanc_1_8::ResultNamespacesStack", ptr %0, i64 0, i32 3, i32 0, i32 0, i32 0, i32 1
  %8 = load ptr, ptr %7, align 8
  %9 = getelementptr inbounds %"class.xalanc_1_8::ResultNamespacesStack", ptr %0, i64 0, i32 3, i32 0, i32 0, i32 0, i32 1, i32 0, i32 1
  %10 = load i32, ptr %9, align 8
  %11 = zext i32 %10 to i64
  %12 = add nsw i64 %11, -1
  %13 = sdiv i64 %12, 64
  %14 = getelementptr inbounds i64, ptr %8, i64 %13
  %15 = srem i64 %12, 64
  %16 = icmp slt i64 %15, 0
  %17 = add nsw i64 %15, 64
  %18 = ashr i64 %15, 63
  %19 = getelementptr inbounds i64, ptr %14, i64 %18
  %20 = select i1 %16, i64 %17, i64 %15
  %21 = and i64 %20, 4294967295
  %22 = shl nuw i64 1, %21
  %23 = load i64, ptr %19, align 8, !tbaa !54
  %24 = and i64 %22, %23
  %25 = icmp eq i64 %24, 0
  %26 = getelementptr inbounds %"class.xalanc_1_8::ResultNamespacesStack", ptr %0, i64 0, i32 2
  %27 = load ptr, ptr %26, align 8, !tbaa !10
  br i1 %25, label %144, label %28

28:                                               ; preds = %4
  %29 = getelementptr inbounds %"class.std::deque.3", ptr %27, i64 1
  store ptr %29, ptr %26, align 8, !tbaa !10
  %30 = getelementptr inbounds %"class.xalanc_1_8::ResultNamespacesStack", ptr %0, i64 0, i32 2, i32 2
  %31 = load ptr, ptr %30, align 8, !tbaa !16
  %32 = icmp eq ptr %29, %31
  br i1 %32, label %33, label %40

33:                                               ; preds = %28
  %34 = getelementptr inbounds %"class.xalanc_1_8::ResultNamespacesStack", ptr %0, i64 0, i32 2, i32 3
  %35 = load ptr, ptr %34, align 8, !tbaa !17
  %36 = getelementptr inbounds ptr, ptr %35, i64 1
  store ptr %36, ptr %34, align 8, !tbaa !17
  %37 = load ptr, ptr %36, align 8, !tbaa !42
  %38 = getelementptr inbounds %"class.xalanc_1_8::ResultNamespacesStack", ptr %0, i64 0, i32 2, i32 1
  store ptr %37, ptr %38, align 8, !tbaa !15
  %39 = getelementptr inbounds %"class.std::deque.3", ptr %37, i64 6
  store ptr %39, ptr %30, align 8, !tbaa !16
  store ptr %37, ptr %26, align 8, !tbaa !10
  br label %40

40:                                               ; preds = %28, %33
  %41 = phi ptr [ %29, %28 ], [ %37, %33 ]
  %42 = getelementptr inbounds %"struct.std::_Deque_base<std::deque<xalanc_1_8::NameSpace>, std::allocator<std::deque<xalanc_1_8::NameSpace> > >::_Deque_impl", ptr %0, i64 0, i32 3
  %43 = load ptr, ptr %42, align 8, !tbaa !10
  %44 = getelementptr inbounds %"struct.std::_Deque_base<std::deque<xalanc_1_8::NameSpace>, std::allocator<std::deque<xalanc_1_8::NameSpace> > >::_Deque_impl", ptr %0, i64 0, i32 3, i32 1
  %45 = getelementptr inbounds %"struct.std::_Deque_base<std::deque<xalanc_1_8::NameSpace>, std::allocator<std::deque<xalanc_1_8::NameSpace> > >::_Deque_impl", ptr %0, i64 0, i32 3, i32 2
  %46 = getelementptr inbounds %"struct.std::_Deque_base<std::deque<xalanc_1_8::NameSpace>, std::allocator<std::deque<xalanc_1_8::NameSpace> > >::_Deque_impl", ptr %0, i64 0, i32 3, i32 3
  %47 = icmp eq ptr %41, %43
  br i1 %47, label %48, label %128

48:                                               ; preds = %40
  %49 = getelementptr inbounds %"struct.std::_Deque_base<std::deque<xalanc_1_8::NameSpace>, std::allocator<std::deque<xalanc_1_8::NameSpace> > >::_Deque_impl", ptr %0, i64 0, i32 2
  %50 = load ptr, ptr %46, align 8, !tbaa !17
  %51 = getelementptr inbounds %"struct.std::_Deque_base<std::deque<xalanc_1_8::NameSpace>, std::allocator<std::deque<xalanc_1_8::NameSpace> > >::_Deque_impl", ptr %0, i64 0, i32 2, i32 3
  %52 = load ptr, ptr %51, align 8, !tbaa !17
  %53 = ptrtoint ptr %50 to i64
  %54 = ptrtoint ptr %52 to i64
  %55 = sub i64 %53, %54
  %56 = ashr exact i64 %55, 3
  %57 = mul nsw i64 %56, 6
  %58 = load ptr, ptr %44, align 8, !tbaa !15
  %59 = ptrtoint ptr %41 to i64
  %60 = ptrtoint ptr %58 to i64
  %61 = sub i64 %59, %60
  %62 = sdiv exact i64 %61, 80
  %63 = getelementptr inbounds %"struct.std::_Deque_base<std::deque<xalanc_1_8::NameSpace>, std::allocator<std::deque<xalanc_1_8::NameSpace> > >::_Deque_impl", ptr %0, i64 0, i32 2, i32 2
  %64 = load ptr, ptr %63, align 8, !tbaa !16
  %65 = load ptr, ptr %49, align 8, !tbaa !10
  %66 = ptrtoint ptr %64 to i64
  %67 = ptrtoint ptr %65 to i64
  %68 = sub i64 %66, %67
  %69 = sdiv exact i64 %68, 80
  %70 = add nsw i64 %57, -5
  %71 = add nsw i64 %70, %62
  %72 = add nsw i64 %71, %69
  call void @llvm.memset.p0.i64(ptr noundef nonnull align 8 dereferenceable(80) %5, i8 0, i64 80, i1 false)
  call void @_ZNSt11_Deque_baseIN10xalanc_1_89NameSpaceESaIS1_EE17_M_initialize_mapEm(ptr noundef nonnull align 8 dereferenceable(80) %5, i64 noundef 0)
  invoke void @_ZNSt5dequeIS_IN10xalanc_1_89NameSpaceESaIS1_EESaIS3_EE6resizeEmS3_(ptr noundef nonnull align 8 dereferenceable(80) %0, i64 noundef %72, ptr noundef nonnull %5)
          to label %73 unwind label %126

73:                                               ; preds = %48
  call void @_ZNSt5dequeIN10xalanc_1_89NameSpaceESaIS1_EED2Ev(ptr noundef nonnull align 8 dereferenceable(80) %5)
  %74 = load ptr, ptr %42, align 8, !tbaa !10, !noalias !55
  %75 = load ptr, ptr %44, align 8, !tbaa !15, !noalias !55
  %76 = load ptr, ptr %45, align 8, !tbaa !16, !noalias !55
  %77 = load ptr, ptr %46, align 8, !tbaa !17, !noalias !55
  %78 = ptrtoint ptr %74 to i64
  %79 = ptrtoint ptr %75 to i64
  %80 = sub i64 %78, %79
  %81 = sdiv exact i64 %80, 80
  %82 = add nsw i64 %81, -1
  %83 = icmp sgt i64 %80, 0
  br i1 %83, label %84, label %90

84:                                               ; preds = %73
  %85 = icmp ult i64 %81, 7
  br i1 %85, label %86, label %88

86:                                               ; preds = %84
  %87 = getelementptr inbounds %"class.std::deque.3", ptr %74, i64 -1
  br label %102

88:                                               ; preds = %84
  %89 = udiv i64 %82, 6
  br label %94

90:                                               ; preds = %73
  %91 = sub nsw i64 0, %81
  %92 = udiv i64 %91, 6
  %93 = xor i64 %92, -1
  br label %94

94:                                               ; preds = %90, %88
  %95 = phi i64 [ %89, %88 ], [ %93, %90 ]
  %96 = getelementptr inbounds ptr, ptr %77, i64 %95
  %97 = load ptr, ptr %96, align 8, !tbaa !42, !noalias !58
  %98 = getelementptr inbounds %"class.std::deque.3", ptr %97, i64 6
  %99 = mul nsw i64 %95, -6
  %100 = add nsw i64 %99, %82
  %101 = getelementptr inbounds %"class.std::deque.3", ptr %97, i64 %100
  br label %102

102:                                              ; preds = %86, %94
  %103 = phi ptr [ %77, %86 ], [ %96, %94 ]
  %104 = phi ptr [ %76, %86 ], [ %98, %94 ]
  %105 = phi ptr [ %75, %86 ], [ %97, %94 ]
  %106 = phi ptr [ %87, %86 ], [ %101, %94 ]
  store ptr %106, ptr %26, align 8, !tbaa.struct !61
  %107 = getelementptr inbounds %"class.xalanc_1_8::ResultNamespacesStack", ptr %0, i64 0, i32 2, i32 1
  store ptr %105, ptr %107, align 8, !tbaa.struct !62
  store ptr %104, ptr %30, align 8, !tbaa.struct !63
  %108 = getelementptr inbounds %"class.xalanc_1_8::ResultNamespacesStack", ptr %0, i64 0, i32 2, i32 3
  store ptr %103, ptr %108, align 8, !tbaa.struct !64
  %109 = load ptr, ptr %49, align 8, !tbaa !10, !noalias !65
  %110 = getelementptr inbounds %"struct.std::_Deque_base<std::deque<xalanc_1_8::NameSpace>, std::allocator<std::deque<xalanc_1_8::NameSpace> > >::_Deque_impl", ptr %0, i64 0, i32 2, i32 1
  %111 = load ptr, ptr %110, align 8, !tbaa !15, !noalias !65
  %112 = load ptr, ptr %63, align 8, !tbaa !16, !noalias !65
  %113 = load ptr, ptr %51, align 8, !tbaa !17, !noalias !65
  %114 = getelementptr inbounds %"class.xalanc_1_8::ResultNamespacesStack", ptr %0, i64 0, i32 1
  store ptr %109, ptr %114, align 8, !tbaa.struct !61
  %115 = getelementptr inbounds %"class.xalanc_1_8::ResultNamespacesStack", ptr %0, i64 0, i32 1, i32 1
  store ptr %111, ptr %115, align 8, !tbaa.struct !62
  %116 = getelementptr inbounds %"class.xalanc_1_8::ResultNamespacesStack", ptr %0, i64 0, i32 1, i32 2
  store ptr %112, ptr %116, align 8, !tbaa.struct !63
  %117 = getelementptr inbounds %"class.xalanc_1_8::ResultNamespacesStack", ptr %0, i64 0, i32 1, i32 3
  store ptr %113, ptr %117, align 8, !tbaa.struct !64
  %118 = load ptr, ptr %7, align 8
  %119 = load i32, ptr %9, align 8
  %120 = zext i32 %119 to i64
  %121 = add nsw i64 %120, -1
  %122 = sdiv i64 %121, 64
  %123 = srem i64 %121, 64
  %124 = add nsw i64 %123, 64
  %125 = ashr i64 %123, 63
  br label %128

126:                                              ; preds = %48
  %127 = landingpad { ptr, i32 }
          cleanup
  invoke void @_ZNSt5dequeIN10xalanc_1_89NameSpaceESaIS1_EED2Ev(ptr noundef nonnull align 8 dereferenceable(80) %5)
          to label %164 unwind label %212

128:                                              ; preds = %102, %40
  %129 = phi i64 [ %125, %102 ], [ %18, %40 ]
  %130 = phi i64 [ %124, %102 ], [ %17, %40 ]
  %131 = phi i64 [ %123, %102 ], [ %15, %40 ]
  %132 = phi i64 [ %122, %102 ], [ %13, %40 ]
  %133 = phi ptr [ %106, %102 ], [ %41, %40 ]
  %134 = phi ptr [ %118, %102 ], [ %8, %40 ]
  %135 = getelementptr inbounds i64, ptr %134, i64 %132
  %136 = icmp slt i64 %131, 0
  %137 = getelementptr inbounds i64, ptr %135, i64 %129
  %138 = select i1 %136, i64 %130, i64 %131
  %139 = and i64 %138, 4294967295
  %140 = shl nuw i64 1, %139
  %141 = xor i64 %140, -1
  %142 = load i64, ptr %137, align 8, !tbaa !54
  %143 = and i64 %142, %141
  store i64 %143, ptr %137, align 8, !tbaa !54
  br label %144

144:                                              ; preds = %4, %128
  %145 = phi ptr [ %133, %128 ], [ %27, %4 ]
  %146 = getelementptr inbounds %"struct.std::_Deque_base<xalanc_1_8::NameSpace, std::allocator<xalanc_1_8::NameSpace> >::_Deque_impl", ptr %145, i64 0, i32 3
  %147 = getelementptr inbounds %"struct.std::_Deque_base<xalanc_1_8::NameSpace, std::allocator<xalanc_1_8::NameSpace> >::_Deque_impl", ptr %145, i64 0, i32 2
  %148 = getelementptr inbounds %"struct.std::_Deque_base<xalanc_1_8::NameSpace, std::allocator<xalanc_1_8::NameSpace> >::_Deque_impl", ptr %145, i64 0, i32 3, i32 3
  %149 = load ptr, ptr %148, align 8, !tbaa !32
  %150 = getelementptr inbounds %"struct.std::_Deque_base<xalanc_1_8::NameSpace, std::allocator<xalanc_1_8::NameSpace> >::_Deque_impl", ptr %145, i64 0, i32 2, i32 3
  %151 = load ptr, ptr %150, align 8, !tbaa !32
  %152 = load ptr, ptr %146, align 8, !tbaa !25
  %153 = getelementptr inbounds %"struct.std::_Deque_base<xalanc_1_8::NameSpace, std::allocator<xalanc_1_8::NameSpace> >::_Deque_impl", ptr %145, i64 0, i32 3, i32 1
  %154 = load ptr, ptr %153, align 8, !tbaa !30
  %155 = getelementptr inbounds %"struct.std::_Deque_base<xalanc_1_8::NameSpace, std::allocator<xalanc_1_8::NameSpace> >::_Deque_impl", ptr %145, i64 0, i32 2, i32 2
  %156 = load ptr, ptr %155, align 8, !tbaa !31
  %157 = load ptr, ptr %147, align 8, !tbaa !25
  call void @_ZN10xalanc_1_814XalanDOMStringC1Ev(ptr noundef nonnull align 8 dereferenceable(28) %6)
  %158 = getelementptr inbounds %"class.xalanc_1_8::NameSpace", ptr %6, i64 0, i32 1
  invoke void @_ZN10xalanc_1_814XalanDOMStringC1Ev(ptr noundef nonnull align 8 dereferenceable(28) %158)
          to label %166 unwind label %159

159:                                              ; preds = %144
  %160 = landingpad { ptr, i32 }
          cleanup
  %161 = load ptr, ptr %6, align 8, !tbaa !68
  %162 = icmp eq ptr %161, null
  br i1 %162, label %164, label %163

163:                                              ; preds = %159
  call void @_ZdlPv(ptr noundef nonnull %161) #12
  br label %164

164:                                              ; preds = %126, %210, %159, %163
  %165 = phi { ptr, i32 } [ %160, %163 ], [ %160, %159 ], [ %127, %126 ], [ %211, %210 ]
  resume { ptr, i32 } %165

166:                                              ; preds = %144
  %167 = ptrtoint ptr %149 to i64
  %168 = ptrtoint ptr %151 to i64
  %169 = ptrtoint ptr %152 to i64
  %170 = ptrtoint ptr %154 to i64
  %171 = sub i64 %169, %170
  %172 = ashr exact i64 %171, 6
  %173 = ptrtoint ptr %156 to i64
  %174 = ptrtoint ptr %157 to i64
  %175 = sub i64 %173, %174
  %176 = ashr exact i64 %175, 6
  %177 = add i64 %167, -7
  %178 = sub i64 %177, %168
  %179 = add i64 %178, %172
  %180 = add i64 %179, %176
  invoke void @_ZNSt5dequeIN10xalanc_1_89NameSpaceESaIS1_EE6resizeEmS1_(ptr noundef nonnull align 8 dereferenceable(80) %145, i64 noundef %180, ptr noundef nonnull %6)
          to label %181 unwind label %210

181:                                              ; preds = %166
  %182 = load ptr, ptr %158, align 8, !tbaa !68
  %183 = icmp eq ptr %182, null
  br i1 %183, label %185, label %184

184:                                              ; preds = %181
  call void @_ZdlPv(ptr noundef nonnull %182) #12
  br label %185

185:                                              ; preds = %184, %181
  %186 = load ptr, ptr %6, align 8, !tbaa !68
  %187 = icmp eq ptr %186, null
  br i1 %187, label %189, label %188

188:                                              ; preds = %185
  call void @_ZdlPv(ptr noundef nonnull %186) #12
  br label %189

189:                                              ; preds = %185, %188
  %190 = load ptr, ptr %146, align 8, !tbaa !25, !noalias !70
  %191 = load ptr, ptr %153, align 8, !tbaa !30, !noalias !70
  %192 = icmp eq ptr %190, %191
  br i1 %192, label %193, label %198

193:                                              ; preds = %189
  %194 = load ptr, ptr %148, align 8, !tbaa !32, !noalias !70
  %195 = getelementptr inbounds ptr, ptr %194, i64 -1
  %196 = load ptr, ptr %195, align 8, !tbaa !42
  %197 = getelementptr inbounds %"class.xalanc_1_8::NameSpace", ptr %196, i64 8
  br label %198

198:                                              ; preds = %189, %193
  %199 = phi ptr [ %197, %193 ], [ %190, %189 ]
  %200 = getelementptr inbounds %"class.xalanc_1_8::NameSpace", ptr %199, i64 -1
  %201 = icmp eq ptr %200, %1
  br i1 %201, label %207, label %202

202:                                              ; preds = %198
  %203 = call noundef nonnull align 8 dereferenceable(24) ptr @_ZNSt6vectorItSaItEEaSERKS1_(ptr noundef nonnull align 8 dereferenceable(24) %200, ptr noundef nonnull align 8 dereferenceable(24) %1)
  %204 = getelementptr inbounds %"class.xalanc_1_8::XalanDOMString", ptr %1, i64 0, i32 1
  %205 = load i32, ptr %204, align 8, !tbaa !73
  %206 = getelementptr %"class.xalanc_1_8::NameSpace", ptr %199, i64 -1, i32 0, i32 1
  store i32 %205, ptr %206, align 8, !tbaa !73
  br label %207

207:                                              ; preds = %198, %202
  %208 = getelementptr %"class.xalanc_1_8::NameSpace", ptr %199, i64 -1, i32 1
  call void @_ZN10xalanc_1_814XalanDOMString5eraseEjj(ptr noundef nonnull align 8 dereferenceable(28) %208, i32 noundef 0, i32 noundef -1)
  %209 = call noundef nonnull align 8 dereferenceable(28) ptr @_ZN10xalanc_1_814XalanDOMString6appendEPKtj(ptr noundef nonnull align 8 dereferenceable(28) %208, ptr noundef %2, i32 noundef %3)
  ret void

210:                                              ; preds = %166
  %211 = landingpad { ptr, i32 }
          cleanup
  invoke void @_ZN10xalanc_1_89NameSpaceD2Ev(ptr noundef nonnull align 8 dereferenceable(64) %6)
          to label %164 unwind label %212

212:                                              ; preds = %210, %126
  %213 = landingpad { ptr, i32 }
          catch ptr null
  %214 = extractvalue { ptr, i32 } %213, 0
  call void @__clang_call_terminate(ptr %214) #13
  unreachable
}

; Function Attrs: uwtable
define linkonce_odr dso_local void @_ZNSt5dequeIS_IN10xalanc_1_89NameSpaceESaIS1_EESaIS3_EE6resizeEmS3_(ptr noundef nonnull align 8 dereferenceable(80) %0, i64 noundef %1, ptr noundef %2) local_unnamed_addr #0 comdat align 2 {
  %4 = alloca %"struct.std::_Deque_iterator", align 8
  %5 = alloca %"struct.std::_Deque_iterator", align 8
  %6 = alloca %"struct.std::_Deque_iterator", align 8
  %7 = getelementptr inbounds %"struct.std::_Deque_base<std::deque<xalanc_1_8::NameSpace>, std::allocator<std::deque<xalanc_1_8::NameSpace> > >::_Deque_impl", ptr %0, i64 0, i32 3
  %8 = getelementptr inbounds %"struct.std::_Deque_base<std::deque<xalanc_1_8::NameSpace>, std::allocator<std::deque<xalanc_1_8::NameSpace> > >::_Deque_impl", ptr %0, i64 0, i32 2
  %9 = getelementptr inbounds %"struct.std::_Deque_base<std::deque<xalanc_1_8::NameSpace>, std::allocator<std::deque<xalanc_1_8::NameSpace> > >::_Deque_impl", ptr %0, i64 0, i32 3, i32 3
  %10 = load ptr, ptr %9, align 8, !tbaa !17
  %11 = getelementptr inbounds %"struct.std::_Deque_base<std::deque<xalanc_1_8::NameSpace>, std::allocator<std::deque<xalanc_1_8::NameSpace> > >::_Deque_impl", ptr %0, i64 0, i32 2, i32 3
  %12 = load ptr, ptr %11, align 8, !tbaa !17
  %13 = ptrtoint ptr %10 to i64
  %14 = ptrtoint ptr %12 to i64
  %15 = sub i64 %13, %14
  %16 = ashr exact i64 %15, 3
  %17 = mul nsw i64 %16, 6
  %18 = add nsw i64 %17, -6
  %19 = load ptr, ptr %7, align 8, !tbaa !10
  %20 = getelementptr inbounds %"struct.std::_Deque_base<std::deque<xalanc_1_8::NameSpace>, std::allocator<std::deque<xalanc_1_8::NameSpace> > >::_Deque_impl", ptr %0, i64 0, i32 3, i32 1
  %21 = load ptr, ptr %20, align 8, !tbaa !15
  %22 = ptrtoint ptr %19 to i64
  %23 = ptrtoint ptr %21 to i64
  %24 = sub i64 %22, %23
  %25 = sdiv exact i64 %24, 80
  %26 = add nsw i64 %18, %25
  %27 = getelementptr inbounds %"struct.std::_Deque_base<std::deque<xalanc_1_8::NameSpace>, std::allocator<std::deque<xalanc_1_8::NameSpace> > >::_Deque_impl", ptr %0, i64 0, i32 2, i32 2
  %28 = load ptr, ptr %27, align 8, !tbaa !16
  %29 = load ptr, ptr %8, align 8, !tbaa !10
  %30 = ptrtoint ptr %28 to i64
  %31 = ptrtoint ptr %29 to i64
  %32 = sub i64 %30, %31
  %33 = sdiv exact i64 %32, 80
  %34 = add nsw i64 %26, %33
  %35 = icmp ult i64 %34, %1
  br i1 %35, label %36, label %43

36:                                               ; preds = %3
  store ptr %19, ptr %6, align 8, !tbaa !10
  %37 = getelementptr inbounds %"struct.std::_Deque_iterator", ptr %6, i64 0, i32 1
  store ptr %21, ptr %37, align 8, !tbaa !15
  %38 = getelementptr inbounds %"struct.std::_Deque_iterator", ptr %6, i64 0, i32 2
  %39 = getelementptr inbounds %"struct.std::_Deque_base<std::deque<xalanc_1_8::NameSpace>, std::allocator<std::deque<xalanc_1_8::NameSpace> > >::_Deque_impl", ptr %0, i64 0, i32 3, i32 2
  %40 = load ptr, ptr %39, align 8, !tbaa !16
  store ptr %40, ptr %38, align 8, !tbaa !16
  %41 = getelementptr inbounds %"struct.std::_Deque_iterator", ptr %6, i64 0, i32 3
  store ptr %10, ptr %41, align 8, !tbaa !17
  %42 = sub i64 %1, %34
  call void @_ZNSt5dequeIS_IN10xalanc_1_89NameSpaceESaIS1_EESaIS3_EE14_M_fill_insertESt15_Deque_iteratorIS3_RS3_PS3_EmRKS3_(ptr noundef nonnull align 8 dereferenceable(80) %0, ptr noundef nonnull %6, i64 noundef %42, ptr noundef nonnull align 8 dereferenceable(80) %2)
  br label %92

43:                                               ; preds = %3
  %44 = icmp ugt i64 %34, %1
  br i1 %44, label %45, label %92

45:                                               ; preds = %43
  %46 = getelementptr inbounds %"struct.std::_Deque_base<std::deque<xalanc_1_8::NameSpace>, std::allocator<std::deque<xalanc_1_8::NameSpace> > >::_Deque_impl", ptr %0, i64 0, i32 2, i32 1
  %47 = load ptr, ptr %46, align 8, !tbaa !15, !noalias !78
  %48 = ptrtoint ptr %47 to i64
  %49 = sub i64 %31, %48
  %50 = sdiv exact i64 %49, 80
  %51 = add nsw i64 %50, %1
  %52 = icmp sgt i64 %51, -1
  br i1 %52, label %53, label %59

53:                                               ; preds = %45
  %54 = icmp ult i64 %51, 6
  br i1 %54, label %55, label %57

55:                                               ; preds = %53
  %56 = getelementptr inbounds %"class.std::deque.3", ptr %29, i64 %1
  br label %71

57:                                               ; preds = %53
  %58 = udiv i64 %51, 6
  br label %63

59:                                               ; preds = %45
  %60 = xor i64 %51, -1
  %61 = udiv i64 %60, 6
  %62 = xor i64 %61, -1
  br label %63

63:                                               ; preds = %59, %57
  %64 = phi i64 [ %58, %57 ], [ %62, %59 ]
  %65 = getelementptr inbounds ptr, ptr %12, i64 %64
  %66 = load ptr, ptr %65, align 8, !tbaa !42, !noalias !78
  %67 = getelementptr inbounds %"class.std::deque.3", ptr %66, i64 6
  %68 = mul i64 %64, -6
  %69 = add i64 %68, %51
  %70 = getelementptr inbounds %"class.std::deque.3", ptr %66, i64 %69
  br label %71

71:                                               ; preds = %55, %63
  %72 = phi ptr [ %12, %55 ], [ %65, %63 ]
  %73 = phi ptr [ %28, %55 ], [ %67, %63 ]
  %74 = phi ptr [ %47, %55 ], [ %66, %63 ]
  %75 = phi ptr [ %56, %55 ], [ %70, %63 ]
  %76 = getelementptr inbounds %"struct.std::_Deque_base<std::deque<xalanc_1_8::NameSpace>, std::allocator<std::deque<xalanc_1_8::NameSpace> > >::_Deque_impl", ptr %0, i64 0, i32 3, i32 2
  %77 = load ptr, ptr %76, align 8, !tbaa !16, !noalias !81
  call void @llvm.lifetime.start.p0(i64 32, ptr nonnull %4)
  call void @llvm.lifetime.start.p0(i64 32, ptr nonnull %5)
  store ptr %75, ptr %4, align 8, !tbaa !10
  %78 = getelementptr inbounds %"struct.std::_Deque_iterator", ptr %4, i64 0, i32 1
  store ptr %74, ptr %78, align 8, !tbaa !15
  %79 = getelementptr inbounds %"struct.std::_Deque_iterator", ptr %4, i64 0, i32 2
  store ptr %73, ptr %79, align 8, !tbaa !16
  %80 = getelementptr inbounds %"struct.std::_Deque_iterator", ptr %4, i64 0, i32 3
  store ptr %72, ptr %80, align 8, !tbaa !17
  store ptr %19, ptr %5, align 8, !tbaa !10
  %81 = getelementptr inbounds %"struct.std::_Deque_iterator", ptr %5, i64 0, i32 1
  store ptr %21, ptr %81, align 8, !tbaa !15
  %82 = getelementptr inbounds %"struct.std::_Deque_iterator", ptr %5, i64 0, i32 2
  store ptr %77, ptr %82, align 8, !tbaa !16
  %83 = getelementptr inbounds %"struct.std::_Deque_iterator", ptr %5, i64 0, i32 3
  store ptr %10, ptr %83, align 8, !tbaa !17
  call void @_ZNSt5dequeIS_IN10xalanc_1_89NameSpaceESaIS1_EESaIS3_EE19_M_destroy_data_auxESt15_Deque_iteratorIS3_RS3_PS3_ES9_(ptr noundef nonnull align 8 dereferenceable(80) %0, ptr noundef nonnull %4, ptr noundef nonnull %5)
  call void @llvm.lifetime.end.p0(i64 32, ptr nonnull %4)
  call void @llvm.lifetime.end.p0(i64 32, ptr nonnull %5)
  %84 = load ptr, ptr %9, align 8, !tbaa !53
  %85 = icmp ult ptr %72, %84
  br i1 %85, label %86, label %91

86:                                               ; preds = %71, %86
  %87 = phi ptr [ %88, %86 ], [ %72, %71 ]
  %88 = getelementptr inbounds ptr, ptr %87, i64 1
  %89 = load ptr, ptr %88, align 8, !tbaa !42
  call void @_ZdlPv(ptr noundef %89) #12
  %90 = icmp ult ptr %88, %84
  br i1 %90, label %86, label %91

91:                                               ; preds = %86, %71
  store ptr %75, ptr %7, align 8, !tbaa.struct !61
  store ptr %74, ptr %20, align 8, !tbaa.struct !62
  store ptr %73, ptr %76, align 8, !tbaa.struct !63
  store ptr %72, ptr %9, align 8, !tbaa.struct !64
  br label %92

92:                                               ; preds = %43, %91, %36
  ret void
}

; Function Attrs: mustprogress nocallback nofree nounwind willreturn memory(argmem: readwrite)
declare void @llvm.memcpy.p0.p0.i64(ptr noalias nocapture writeonly, ptr noalias nocapture readonly, i64, i1 immarg) #3

; Function Attrs: uwtable
define linkonce_odr dso_local void @_ZNSt5dequeIN10xalanc_1_89NameSpaceESaIS1_EE6resizeEmS1_(ptr noundef nonnull align 8 dereferenceable(80) %0, i64 noundef %1, ptr noundef %2) local_unnamed_addr #0 comdat align 2 {
  %4 = alloca %"struct.std::_Deque_iterator.8", align 8
  %5 = alloca %"struct.std::_Deque_iterator.8", align 8
  %6 = alloca %"struct.std::_Deque_iterator.8", align 8
  %7 = getelementptr inbounds %"struct.std::_Deque_base<xalanc_1_8::NameSpace, std::allocator<xalanc_1_8::NameSpace> >::_Deque_impl", ptr %0, i64 0, i32 3
  %8 = getelementptr inbounds %"struct.std::_Deque_base<xalanc_1_8::NameSpace, std::allocator<xalanc_1_8::NameSpace> >::_Deque_impl", ptr %0, i64 0, i32 2
  %9 = getelementptr inbounds %"struct.std::_Deque_base<xalanc_1_8::NameSpace, std::allocator<xalanc_1_8::NameSpace> >::_Deque_impl", ptr %0, i64 0, i32 3, i32 3
  %10 = load ptr, ptr %9, align 8, !tbaa !32
  %11 = getelementptr inbounds %"struct.std::_Deque_base<xalanc_1_8::NameSpace, std::allocator<xalanc_1_8::NameSpace> >::_Deque_impl", ptr %0, i64 0, i32 2, i32 3
  %12 = load ptr, ptr %11, align 8, !tbaa !32
  %13 = ptrtoint ptr %10 to i64
  %14 = ptrtoint ptr %12 to i64
  %15 = load ptr, ptr %7, align 8, !tbaa !25
  %16 = getelementptr inbounds %"struct.std::_Deque_base<xalanc_1_8::NameSpace, std::allocator<xalanc_1_8::NameSpace> >::_Deque_impl", ptr %0, i64 0, i32 3, i32 1
  %17 = load ptr, ptr %16, align 8, !tbaa !30
  %18 = ptrtoint ptr %15 to i64
  %19 = ptrtoint ptr %17 to i64
  %20 = sub i64 %18, %19
  %21 = ashr exact i64 %20, 6
  %22 = getelementptr inbounds %"struct.std::_Deque_base<xalanc_1_8::NameSpace, std::allocator<xalanc_1_8::NameSpace> >::_Deque_impl", ptr %0, i64 0, i32 2, i32 2
  %23 = load ptr, ptr %22, align 8, !tbaa !31
  %24 = load ptr, ptr %8, align 8, !tbaa !25
  %25 = ptrtoint ptr %23 to i64
  %26 = ptrtoint ptr %24 to i64
  %27 = sub i64 %25, %26
  %28 = ashr exact i64 %27, 6
  %29 = add i64 %13, -8
  %30 = sub i64 %29, %14
  %31 = add nsw i64 %30, %21
  %32 = add nsw i64 %31, %28
  %33 = icmp ult i64 %32, %1
  br i1 %33, label %34, label %41

34:                                               ; preds = %3
  store ptr %15, ptr %6, align 8, !tbaa !25
  %35 = getelementptr inbounds %"struct.std::_Deque_iterator.8", ptr %6, i64 0, i32 1
  store ptr %17, ptr %35, align 8, !tbaa !30
  %36 = getelementptr inbounds %"struct.std::_Deque_iterator.8", ptr %6, i64 0, i32 2
  %37 = getelementptr inbounds %"struct.std::_Deque_base<xalanc_1_8::NameSpace, std::allocator<xalanc_1_8::NameSpace> >::_Deque_impl", ptr %0, i64 0, i32 3, i32 2
  %38 = load ptr, ptr %37, align 8, !tbaa !31
  store ptr %38, ptr %36, align 8, !tbaa !31
  %39 = getelementptr inbounds %"struct.std::_Deque_iterator.8", ptr %6, i64 0, i32 3
  store ptr %10, ptr %39, align 8, !tbaa !32
  %40 = sub i64 %1, %32
  call void @_ZNSt5dequeIN10xalanc_1_89NameSpaceESaIS1_EE14_M_fill_insertESt15_Deque_iteratorIS1_RS1_PS1_EmRKS1_(ptr noundef nonnull align 8 dereferenceable(80) %0, ptr noundef nonnull %6, i64 noundef %40, ptr noundef nonnull align 8 dereferenceable(64) %2)
  br label %89

41:                                               ; preds = %3
  %42 = icmp ugt i64 %32, %1
  br i1 %42, label %43, label %89

43:                                               ; preds = %41
  %44 = getelementptr inbounds %"struct.std::_Deque_base<xalanc_1_8::NameSpace, std::allocator<xalanc_1_8::NameSpace> >::_Deque_impl", ptr %0, i64 0, i32 2, i32 1
  %45 = load ptr, ptr %44, align 8, !tbaa !30, !noalias !84
  %46 = ptrtoint ptr %45 to i64
  %47 = sub i64 %26, %46
  %48 = ashr exact i64 %47, 6
  %49 = add nsw i64 %48, %1
  %50 = icmp sgt i64 %49, -1
  br i1 %50, label %51, label %57

51:                                               ; preds = %43
  %52 = icmp ult i64 %49, 8
  br i1 %52, label %53, label %55

53:                                               ; preds = %51
  %54 = getelementptr inbounds %"class.xalanc_1_8::NameSpace", ptr %24, i64 %1
  br label %68

55:                                               ; preds = %51
  %56 = lshr i64 %49, 3
  br label %60

57:                                               ; preds = %43
  %58 = lshr i64 %49, 3
  %59 = or i64 %58, -2305843009213693952
  br label %60

60:                                               ; preds = %57, %55
  %61 = phi i64 [ %56, %55 ], [ %59, %57 ]
  %62 = getelementptr inbounds ptr, ptr %12, i64 %61
  %63 = load ptr, ptr %62, align 8, !tbaa !42, !noalias !84
  %64 = getelementptr inbounds %"class.xalanc_1_8::NameSpace", ptr %63, i64 8
  %65 = shl nsw i64 %61, 3
  %66 = sub nsw i64 %49, %65
  %67 = getelementptr inbounds %"class.xalanc_1_8::NameSpace", ptr %63, i64 %66
  br label %68

68:                                               ; preds = %53, %60
  %69 = phi ptr [ %12, %53 ], [ %62, %60 ]
  %70 = phi ptr [ %23, %53 ], [ %64, %60 ]
  %71 = phi ptr [ %45, %53 ], [ %63, %60 ]
  %72 = phi ptr [ %54, %53 ], [ %67, %60 ]
  %73 = getelementptr inbounds %"struct.std::_Deque_base<xalanc_1_8::NameSpace, std::allocator<xalanc_1_8::NameSpace> >::_Deque_impl", ptr %0, i64 0, i32 3, i32 2
  %74 = load ptr, ptr %73, align 8, !tbaa !31, !noalias !87
  call void @llvm.lifetime.start.p0(i64 32, ptr nonnull %4)
  call void @llvm.lifetime.start.p0(i64 32, ptr nonnull %5)
  store ptr %72, ptr %4, align 8, !tbaa !25
  %75 = getelementptr inbounds %"struct.std::_Deque_iterator.8", ptr %4, i64 0, i32 1
  store ptr %71, ptr %75, align 8, !tbaa !30
  %76 = getelementptr inbounds %"struct.std::_Deque_iterator.8", ptr %4, i64 0, i32 2
  store ptr %70, ptr %76, align 8, !tbaa !31
  %77 = getelementptr inbounds %"struct.std::_Deque_iterator.8", ptr %4, i64 0, i32 3
  store ptr %69, ptr %77, align 8, !tbaa !32
  store ptr %15, ptr %5, align 8, !tbaa !25
  %78 = getelementptr inbounds %"struct.std::_Deque_iterator.8", ptr %5, i64 0, i32 1
  store ptr %17, ptr %78, align 8, !tbaa !30
  %79 = getelementptr inbounds %"struct.std::_Deque_iterator.8", ptr %5, i64 0, i32 2
  store ptr %74, ptr %79, align 8, !tbaa !31
  %80 = getelementptr inbounds %"struct.std::_Deque_iterator.8", ptr %5, i64 0, i32 3
  store ptr %10, ptr %80, align 8, !tbaa !32
  call void @_ZNSt5dequeIN10xalanc_1_89NameSpaceESaIS1_EE19_M_destroy_data_auxESt15_Deque_iteratorIS1_RS1_PS1_ES7_(ptr noundef nonnull align 8 dereferenceable(80) %0, ptr noundef nonnull %4, ptr noundef nonnull %5)
  call void @llvm.lifetime.end.p0(i64 32, ptr nonnull %4)
  call void @llvm.lifetime.end.p0(i64 32, ptr nonnull %5)
  %81 = load ptr, ptr %9, align 8, !tbaa !41
  %82 = icmp ult ptr %69, %81
  br i1 %82, label %83, label %88

83:                                               ; preds = %68, %83
  %84 = phi ptr [ %85, %83 ], [ %69, %68 ]
  %85 = getelementptr inbounds ptr, ptr %84, i64 1
  %86 = load ptr, ptr %85, align 8, !tbaa !42
  call void @_ZdlPv(ptr noundef %86) #12
  %87 = icmp ult ptr %85, %81
  br i1 %87, label %83, label %88

88:                                               ; preds = %83, %68
  store ptr %72, ptr %7, align 8, !tbaa.struct !61
  store ptr %71, ptr %16, align 8, !tbaa.struct !62
  store ptr %70, ptr %73, align 8, !tbaa.struct !63
  store ptr %69, ptr %9, align 8, !tbaa.struct !64
  br label %89

89:                                               ; preds = %41, %88, %34
  ret void
}

; Function Attrs: uwtable
define linkonce_odr dso_local void @_ZN10xalanc_1_89NameSpaceD2Ev(ptr noundef nonnull align 8 dereferenceable(64) %0) unnamed_addr #0 comdat align 2 personality ptr @__gxx_personality_v0 {
  %2 = getelementptr inbounds %"class.xalanc_1_8::NameSpace", ptr %0, i64 0, i32 1
  %3 = load ptr, ptr %2, align 8, !tbaa !68
  %4 = icmp eq ptr %3, null
  br i1 %4, label %6, label %5

5:                                                ; preds = %1
  tail call void @_ZdlPv(ptr noundef nonnull %3) #12
  br label %6

6:                                                ; preds = %5, %1
  %7 = load ptr, ptr %0, align 8, !tbaa !68
  %8 = icmp eq ptr %7, null
  br i1 %8, label %10, label %9

9:                                                ; preds = %6
  tail call void @_ZdlPv(ptr noundef nonnull %7) #12
  br label %10

10:                                               ; preds = %6, %9
  ret void
}

; Function Attrs: uwtable
define dso_local void @_ZN10xalanc_1_821ResultNamespacesStack11pushContextEv(ptr noundef nonnull align 8 dereferenceable(184) %0) local_unnamed_addr #0 align 2 {
  %2 = getelementptr inbounds %"class.xalanc_1_8::ResultNamespacesStack", ptr %0, i64 0, i32 3
  %3 = load ptr, ptr %2, align 8, !tbaa !18
  %4 = getelementptr inbounds %"class.xalanc_1_8::ResultNamespacesStack", ptr %0, i64 0, i32 3, i32 0, i32 0, i32 0, i32 1
  %5 = load ptr, ptr %4, align 8
  %6 = getelementptr inbounds %"class.xalanc_1_8::ResultNamespacesStack", ptr %0, i64 0, i32 3, i32 0, i32 0, i32 0, i32 1, i32 0, i32 1
  %7 = load i32, ptr %6, align 8
  %8 = icmp eq ptr %3, %5
  %9 = icmp eq i32 %7, 0
  %10 = select i1 %8, i1 %9, i1 false
  br i1 %10, label %11, label %22

11:                                               ; preds = %1
  %12 = getelementptr inbounds %"class.xalanc_1_8::ResultNamespacesStack", ptr %0, i64 0, i32 3, i32 0, i32 0, i32 0, i32 2
  %13 = load ptr, ptr %12, align 8, !tbaa !22
  %14 = ptrtoint ptr %13 to i64
  %15 = ptrtoint ptr %3 to i64
  %16 = sub i64 %14, %15
  %17 = shl nsw i64 %16, 3
  %18 = icmp ult i64 %17, 25
  br i1 %18, label %19, label %28

19:                                               ; preds = %11
  tail call void @_ZNSt6vectorIbSaIbEE13_M_reallocateEm(ptr noundef nonnull align 8 dereferenceable(40) %2, i64 noundef 25)
  %20 = load i32, ptr %6, align 8
  %21 = load ptr, ptr %4, align 8
  br label %22

22:                                               ; preds = %19, %1
  %23 = phi ptr [ %5, %1 ], [ %21, %19 ]
  %24 = phi i32 [ %7, %1 ], [ %20, %19 ]
  %25 = getelementptr inbounds %"class.xalanc_1_8::ResultNamespacesStack", ptr %0, i64 0, i32 3, i32 0, i32 0, i32 0, i32 2
  %26 = load ptr, ptr %25, align 8, !tbaa !22
  %27 = icmp eq ptr %23, %26
  br i1 %27, label %45, label %33

28:                                               ; preds = %11
  %29 = getelementptr inbounds %"class.xalanc_1_8::ResultNamespacesStack", ptr %0, i64 0, i32 3, i32 0, i32 0, i32 0, i32 2
  %30 = load ptr, ptr %29, align 8, !tbaa !22
  %31 = icmp eq ptr %3, %30
  br i1 %31, label %45, label %32

32:                                               ; preds = %28
  store i32 1, ptr %6, align 8, !tbaa !21
  br label %38

33:                                               ; preds = %22
  %34 = add i32 %24, 1
  store i32 %34, ptr %6, align 8, !tbaa !21
  %35 = icmp eq i32 %24, 63
  br i1 %35, label %36, label %38

36:                                               ; preds = %33
  store i32 0, ptr %6, align 8, !tbaa !21
  %37 = getelementptr inbounds i64, ptr %23, i64 1
  store ptr %37, ptr %4, align 8, !tbaa !18
  br label %38

38:                                               ; preds = %32, %36, %33
  %39 = phi ptr [ %3, %32 ], [ %23, %36 ], [ %23, %33 ]
  %40 = phi i32 [ 0, %32 ], [ 63, %36 ], [ %24, %33 ]
  %41 = zext i32 %40 to i64
  %42 = shl nuw i64 1, %41
  %43 = load i64, ptr %39, align 8, !tbaa !54
  %44 = or i64 %43, %42
  store i64 %44, ptr %39, align 8, !tbaa !54
  br label %48

45:                                               ; preds = %28, %22
  %46 = phi i32 [ 0, %28 ], [ %24, %22 ]
  %47 = phi ptr [ %3, %28 ], [ %23, %22 ]
  tail call void @_ZNSt6vectorIbSaIbEE13_M_insert_auxESt13_Bit_iteratorb(ptr noundef nonnull align 8 dereferenceable(40) %2, ptr %47, i32 %46, i1 noundef zeroext true)
  br label %48

48:                                               ; preds = %38, %45
  ret void
}

; Function Attrs: uwtable
define dso_local void @_ZN10xalanc_1_821ResultNamespacesStack10popContextEv(ptr nocapture noundef nonnull align 8 dereferenceable(184) %0) local_unnamed_addr #0 align 2 {
  %2 = alloca %"struct.std::_Deque_iterator.8", align 8
  %3 = alloca %"struct.std::_Deque_iterator.8", align 8
  %4 = getelementptr inbounds %"class.xalanc_1_8::ResultNamespacesStack", ptr %0, i64 0, i32 3, i32 0, i32 0, i32 0, i32 1
  %5 = load ptr, ptr %4, align 8
  %6 = getelementptr inbounds %"class.xalanc_1_8::ResultNamespacesStack", ptr %0, i64 0, i32 3, i32 0, i32 0, i32 0, i32 1, i32 0, i32 1
  %7 = load i32, ptr %6, align 8
  %8 = zext i32 %7 to i64
  %9 = add nsw i64 %8, -1
  %10 = sdiv i64 %9, 64
  %11 = getelementptr inbounds i64, ptr %5, i64 %10
  %12 = srem i64 %9, 64
  %13 = icmp slt i64 %12, 0
  %14 = add nsw i64 %12, 64
  %15 = ashr i64 %12, 63
  %16 = getelementptr inbounds i64, ptr %11, i64 %15
  %17 = select i1 %13, i64 %14, i64 %12
  %18 = and i64 %17, 4294967295
  %19 = shl nuw i64 1, %18
  %20 = load i64, ptr %16, align 8, !tbaa !54
  %21 = and i64 %19, %20
  %22 = icmp eq i64 %21, 0
  br i1 %22, label %23, label %71

23:                                               ; preds = %1
  %24 = getelementptr inbounds %"class.xalanc_1_8::ResultNamespacesStack", ptr %0, i64 0, i32 2
  %25 = load ptr, ptr %24, align 8, !tbaa !10
  %26 = getelementptr inbounds %"struct.std::_Deque_base<xalanc_1_8::NameSpace, std::allocator<xalanc_1_8::NameSpace> >::_Deque_impl", ptr %25, i64 0, i32 2
  %27 = load ptr, ptr %26, align 8, !tbaa !25, !noalias !90
  %28 = getelementptr inbounds %"struct.std::_Deque_base<xalanc_1_8::NameSpace, std::allocator<xalanc_1_8::NameSpace> >::_Deque_impl", ptr %25, i64 0, i32 2, i32 1
  %29 = load ptr, ptr %28, align 8, !tbaa !30, !noalias !90
  %30 = getelementptr inbounds %"struct.std::_Deque_base<xalanc_1_8::NameSpace, std::allocator<xalanc_1_8::NameSpace> >::_Deque_impl", ptr %25, i64 0, i32 2, i32 2
  %31 = load ptr, ptr %30, align 8, !tbaa !31, !noalias !90
  %32 = getelementptr inbounds %"struct.std::_Deque_base<xalanc_1_8::NameSpace, std::allocator<xalanc_1_8::NameSpace> >::_Deque_impl", ptr %25, i64 0, i32 2, i32 3
  %33 = load ptr, ptr %32, align 8, !tbaa !32, !noalias !90
  %34 = getelementptr inbounds %"struct.std::_Deque_base<xalanc_1_8::NameSpace, std::allocator<xalanc_1_8::NameSpace> >::_Deque_impl", ptr %25, i64 0, i32 3
  %35 = load ptr, ptr %34, align 8, !tbaa !25, !noalias !93
  %36 = getelementptr inbounds %"struct.std::_Deque_base<xalanc_1_8::NameSpace, std::allocator<xalanc_1_8::NameSpace> >::_Deque_impl", ptr %25, i64 0, i32 3, i32 1
  %37 = load ptr, ptr %36, align 8, !tbaa !30, !noalias !93
  %38 = getelementptr inbounds %"struct.std::_Deque_base<xalanc_1_8::NameSpace, std::allocator<xalanc_1_8::NameSpace> >::_Deque_impl", ptr %25, i64 0, i32 3, i32 2
  %39 = load ptr, ptr %38, align 8, !tbaa !31, !noalias !93
  %40 = getelementptr inbounds %"struct.std::_Deque_base<xalanc_1_8::NameSpace, std::allocator<xalanc_1_8::NameSpace> >::_Deque_impl", ptr %25, i64 0, i32 3, i32 3
  %41 = load ptr, ptr %40, align 8, !tbaa !32, !noalias !93
  call void @llvm.lifetime.start.p0(i64 32, ptr nonnull %2)
  call void @llvm.lifetime.start.p0(i64 32, ptr nonnull %3)
  store ptr %27, ptr %2, align 8, !tbaa !25
  %42 = getelementptr inbounds %"struct.std::_Deque_iterator.8", ptr %2, i64 0, i32 1
  store ptr %29, ptr %42, align 8, !tbaa !30
  %43 = getelementptr inbounds %"struct.std::_Deque_iterator.8", ptr %2, i64 0, i32 2
  store ptr %31, ptr %43, align 8, !tbaa !31
  %44 = getelementptr inbounds %"struct.std::_Deque_iterator.8", ptr %2, i64 0, i32 3
  store ptr %33, ptr %44, align 8, !tbaa !32
  store ptr %35, ptr %3, align 8, !tbaa !25
  %45 = getelementptr inbounds %"struct.std::_Deque_iterator.8", ptr %3, i64 0, i32 1
  store ptr %37, ptr %45, align 8, !tbaa !30
  %46 = getelementptr inbounds %"struct.std::_Deque_iterator.8", ptr %3, i64 0, i32 2
  store ptr %39, ptr %46, align 8, !tbaa !31
  %47 = getelementptr inbounds %"struct.std::_Deque_iterator.8", ptr %3, i64 0, i32 3
  store ptr %41, ptr %47, align 8, !tbaa !32
  call void @_ZNSt5dequeIN10xalanc_1_89NameSpaceESaIS1_EE19_M_destroy_data_auxESt15_Deque_iteratorIS1_RS1_PS1_ES7_(ptr noundef nonnull align 8 dereferenceable(80) %25, ptr noundef nonnull %2, ptr noundef nonnull %3)
  call void @llvm.lifetime.end.p0(i64 32, ptr nonnull %2)
  call void @llvm.lifetime.end.p0(i64 32, ptr nonnull %3)
  %48 = load ptr, ptr %40, align 8, !tbaa !41
  %49 = icmp ult ptr %33, %48
  br i1 %49, label %50, label %55

50:                                               ; preds = %23, %50
  %51 = phi ptr [ %52, %50 ], [ %33, %23 ]
  %52 = getelementptr inbounds ptr, ptr %51, i64 1
  %53 = load ptr, ptr %52, align 8, !tbaa !42
  call void @_ZdlPv(ptr noundef %53) #12
  %54 = icmp ult ptr %52, %48
  br i1 %54, label %50, label %55

55:                                               ; preds = %50, %23
  store ptr %27, ptr %34, align 8, !tbaa.struct !61
  store ptr %29, ptr %36, align 8, !tbaa.struct !62
  store ptr %31, ptr %38, align 8, !tbaa.struct !63
  store ptr %33, ptr %40, align 8, !tbaa.struct !64
  %56 = load ptr, ptr %24, align 8, !tbaa !10
  %57 = getelementptr inbounds %"class.xalanc_1_8::ResultNamespacesStack", ptr %0, i64 0, i32 2, i32 1
  %58 = load ptr, ptr %57, align 8, !tbaa !15
  %59 = icmp eq ptr %56, %58
  br i1 %59, label %60, label %67

60:                                               ; preds = %55
  %61 = getelementptr inbounds %"class.xalanc_1_8::ResultNamespacesStack", ptr %0, i64 0, i32 2, i32 3
  %62 = load ptr, ptr %61, align 8, !tbaa !17
  %63 = getelementptr inbounds ptr, ptr %62, i64 -1
  store ptr %63, ptr %61, align 8, !tbaa !17
  %64 = load ptr, ptr %63, align 8, !tbaa !42
  store ptr %64, ptr %57, align 8, !tbaa !15
  %65 = getelementptr inbounds %"class.std::deque.3", ptr %64, i64 6
  %66 = getelementptr inbounds %"class.xalanc_1_8::ResultNamespacesStack", ptr %0, i64 0, i32 2, i32 2
  store ptr %65, ptr %66, align 8, !tbaa !16
  br label %67

67:                                               ; preds = %55, %60
  %68 = phi ptr [ %65, %60 ], [ %56, %55 ]
  %69 = getelementptr inbounds %"class.std::deque.3", ptr %68, i64 -1
  store ptr %69, ptr %24, align 8, !tbaa !10
  %70 = load i32, ptr %6, align 8, !tbaa !21
  br label %71

71:                                               ; preds = %67, %1
  %72 = phi i32 [ %70, %67 ], [ %7, %1 ]
  %73 = add i32 %72, -1
  store i32 %73, ptr %6, align 8, !tbaa !21
  %74 = icmp eq i32 %72, 0
  br i1 %74, label %75, label %78

75:                                               ; preds = %71
  store i32 63, ptr %6, align 8, !tbaa !21
  %76 = load ptr, ptr %4, align 8, !tbaa !18
  %77 = getelementptr inbounds i64, ptr %76, i64 -1
  store ptr %77, ptr %4, align 8, !tbaa !18
  br label %78

78:                                               ; preds = %71, %75
  ret void
}

; Function Attrs: uwtable
define dso_local noundef ptr @_ZNK10xalanc_1_821ResultNamespacesStack21getNamespaceForPrefixERKNS_14XalanDOMStringE(ptr nocapture noundef nonnull readonly align 8 dereferenceable(184) %0, ptr noundef nonnull align 8 dereferenceable(28) %1) local_unnamed_addr #0 align 2 {
  %3 = alloca %"struct.std::_Deque_iterator.13", align 8
  %4 = alloca %"struct.std::_Deque_iterator.13", align 8
  %5 = getelementptr inbounds %"class.xalanc_1_8::ResultNamespacesStack", ptr %0, i64 0, i32 2
  %6 = getelementptr inbounds %"class.xalanc_1_8::ResultNamespacesStack", ptr %0, i64 0, i32 1
  %7 = load ptr, ptr %5, align 8, !tbaa !10
  %8 = load ptr, ptr %6, align 8, !tbaa !10
  %9 = icmp eq ptr %7, %8
  br i1 %9, label %59, label %10

10:                                               ; preds = %2
  store ptr %8, ptr %3, align 8, !tbaa !96
  %11 = getelementptr inbounds %"struct.std::_Deque_iterator.13", ptr %3, i64 0, i32 1
  %12 = getelementptr inbounds %"class.xalanc_1_8::ResultNamespacesStack", ptr %0, i64 0, i32 1, i32 1
  %13 = load ptr, ptr %12, align 8, !tbaa !15
  store ptr %13, ptr %11, align 8, !tbaa !98
  %14 = getelementptr inbounds %"struct.std::_Deque_iterator.13", ptr %3, i64 0, i32 2
  %15 = getelementptr inbounds %"class.xalanc_1_8::ResultNamespacesStack", ptr %0, i64 0, i32 1, i32 2
  %16 = load ptr, ptr %15, align 8, !tbaa !16
  store ptr %16, ptr %14, align 8, !tbaa !99
  %17 = getelementptr inbounds %"struct.std::_Deque_iterator.13", ptr %3, i64 0, i32 3
  %18 = getelementptr inbounds %"class.xalanc_1_8::ResultNamespacesStack", ptr %0, i64 0, i32 1, i32 3
  %19 = load ptr, ptr %18, align 8, !tbaa !17
  store ptr %19, ptr %17, align 8, !tbaa !100
  %20 = getelementptr inbounds %"class.xalanc_1_8::ResultNamespacesStack", ptr %0, i64 0, i32 2, i32 1
  %21 = load ptr, ptr %20, align 8, !tbaa !15, !noalias !101
  %22 = getelementptr inbounds %"class.xalanc_1_8::ResultNamespacesStack", ptr %0, i64 0, i32 2, i32 2
  %23 = load ptr, ptr %22, align 8, !tbaa !16, !noalias !101
  %24 = getelementptr inbounds %"class.xalanc_1_8::ResultNamespacesStack", ptr %0, i64 0, i32 2, i32 3
  %25 = load ptr, ptr %24, align 8, !tbaa !17, !noalias !101
  %26 = ptrtoint ptr %7 to i64
  %27 = ptrtoint ptr %21 to i64
  %28 = sub i64 %26, %27
  %29 = sdiv exact i64 %28, 80
  %30 = add nsw i64 %29, 1
  %31 = icmp sgt i64 %28, -160
  br i1 %31, label %32, label %38

32:                                               ; preds = %10
  %33 = icmp ult i64 %30, 6
  br i1 %33, label %34, label %36

34:                                               ; preds = %32
  %35 = getelementptr inbounds %"class.std::deque.3", ptr %7, i64 1
  br label %50

36:                                               ; preds = %32
  %37 = udiv i64 %30, 6
  br label %42

38:                                               ; preds = %10
  %39 = sub nsw i64 -2, %29
  %40 = udiv i64 %39, 6
  %41 = xor i64 %40, -1
  br label %42

42:                                               ; preds = %38, %36
  %43 = phi i64 [ %37, %36 ], [ %41, %38 ]
  %44 = getelementptr inbounds ptr, ptr %25, i64 %43
  %45 = load ptr, ptr %44, align 8, !tbaa !42, !noalias !101
  %46 = getelementptr inbounds %"class.std::deque.3", ptr %45, i64 6
  %47 = mul nsw i64 %43, -6
  %48 = add nsw i64 %47, %30
  %49 = getelementptr inbounds %"class.std::deque.3", ptr %45, i64 %48
  br label %50

50:                                               ; preds = %34, %42
  %51 = phi ptr [ %25, %34 ], [ %44, %42 ]
  %52 = phi ptr [ %23, %34 ], [ %46, %42 ]
  %53 = phi ptr [ %21, %34 ], [ %45, %42 ]
  %54 = phi ptr [ %35, %34 ], [ %49, %42 ]
  store ptr %54, ptr %4, align 8, !tbaa !96
  %55 = getelementptr inbounds %"struct.std::_Deque_iterator.13", ptr %4, i64 0, i32 1
  store ptr %53, ptr %55, align 8, !tbaa !98
  %56 = getelementptr inbounds %"struct.std::_Deque_iterator.13", ptr %4, i64 0, i32 2
  store ptr %52, ptr %56, align 8, !tbaa !99
  %57 = getelementptr inbounds %"struct.std::_Deque_iterator.13", ptr %4, i64 0, i32 3
  store ptr %51, ptr %57, align 8, !tbaa !100
  %58 = tail call noundef ptr @_ZN10xalanc_1_810XalanQName21getNamespaceForPrefixESt15_Deque_iteratorISt5dequeINS_9NameSpaceESaIS3_EERKS5_PS6_ES9_RKNS_14XalanDOMStringE(ptr noundef nonnull byval(%"struct.std::_Deque_iterator.13") align 8 %3, ptr noundef nonnull byval(%"struct.std::_Deque_iterator.13") align 8 %4, ptr noundef nonnull align 8 dereferenceable(28) %1)
  br label %59

59:                                               ; preds = %2, %50
  %60 = phi ptr [ %58, %50 ], [ null, %2 ]
  ret ptr %60
}

declare noundef ptr @_ZN10xalanc_1_810XalanQName21getNamespaceForPrefixESt15_Deque_iteratorISt5dequeINS_9NameSpaceESaIS3_EERKS5_PS6_ES9_RKNS_14XalanDOMStringE(ptr noundef byval(%"struct.std::_Deque_iterator.13") align 8, ptr noundef byval(%"struct.std::_Deque_iterator.13") align 8, ptr noundef nonnull align 8 dereferenceable(28)) local_unnamed_addr #4

; Function Attrs: uwtable
define dso_local noundef ptr @_ZNK10xalanc_1_821ResultNamespacesStack21getPrefixForNamespaceERKNS_14XalanDOMStringE(ptr nocapture noundef nonnull readonly align 8 dereferenceable(184) %0, ptr noundef nonnull align 8 dereferenceable(28) %1) local_unnamed_addr #0 align 2 {
  %3 = alloca %"struct.std::_Deque_iterator.13", align 8
  %4 = alloca %"struct.std::_Deque_iterator.13", align 8
  %5 = getelementptr inbounds %"class.xalanc_1_8::ResultNamespacesStack", ptr %0, i64 0, i32 2
  %6 = getelementptr inbounds %"class.xalanc_1_8::ResultNamespacesStack", ptr %0, i64 0, i32 1
  %7 = load ptr, ptr %5, align 8, !tbaa !10
  %8 = load ptr, ptr %6, align 8, !tbaa !10
  %9 = icmp eq ptr %7, %8
  br i1 %9, label %59, label %10

10:                                               ; preds = %2
  store ptr %8, ptr %3, align 8, !tbaa !96
  %11 = getelementptr inbounds %"struct.std::_Deque_iterator.13", ptr %3, i64 0, i32 1
  %12 = getelementptr inbounds %"class.xalanc_1_8::ResultNamespacesStack", ptr %0, i64 0, i32 1, i32 1
  %13 = load ptr, ptr %12, align 8, !tbaa !15
  store ptr %13, ptr %11, align 8, !tbaa !98
  %14 = getelementptr inbounds %"struct.std::_Deque_iterator.13", ptr %3, i64 0, i32 2
  %15 = getelementptr inbounds %"class.xalanc_1_8::ResultNamespacesStack", ptr %0, i64 0, i32 1, i32 2
  %16 = load ptr, ptr %15, align 8, !tbaa !16
  store ptr %16, ptr %14, align 8, !tbaa !99
  %17 = getelementptr inbounds %"struct.std::_Deque_iterator.13", ptr %3, i64 0, i32 3
  %18 = getelementptr inbounds %"class.xalanc_1_8::ResultNamespacesStack", ptr %0, i64 0, i32 1, i32 3
  %19 = load ptr, ptr %18, align 8, !tbaa !17
  store ptr %19, ptr %17, align 8, !tbaa !100
  %20 = getelementptr inbounds %"class.xalanc_1_8::ResultNamespacesStack", ptr %0, i64 0, i32 2, i32 1
  %21 = load ptr, ptr %20, align 8, !tbaa !15, !noalias !104
  %22 = getelementptr inbounds %"class.xalanc_1_8::ResultNamespacesStack", ptr %0, i64 0, i32 2, i32 2
  %23 = load ptr, ptr %22, align 8, !tbaa !16, !noalias !104
  %24 = getelementptr inbounds %"class.xalanc_1_8::ResultNamespacesStack", ptr %0, i64 0, i32 2, i32 3
  %25 = load ptr, ptr %24, align 8, !tbaa !17, !noalias !104
  %26 = ptrtoint ptr %7 to i64
  %27 = ptrtoint ptr %21 to i64
  %28 = sub i64 %26, %27
  %29 = sdiv exact i64 %28, 80
  %30 = add nsw i64 %29, 1
  %31 = icmp sgt i64 %28, -160
  br i1 %31, label %32, label %38

32:                                               ; preds = %10
  %33 = icmp ult i64 %30, 6
  br i1 %33, label %34, label %36

34:                                               ; preds = %32
  %35 = getelementptr inbounds %"class.std::deque.3", ptr %7, i64 1
  br label %50

36:                                               ; preds = %32
  %37 = udiv i64 %30, 6
  br label %42

38:                                               ; preds = %10
  %39 = sub nsw i64 -2, %29
  %40 = udiv i64 %39, 6
  %41 = xor i64 %40, -1
  br label %42

42:                                               ; preds = %38, %36
  %43 = phi i64 [ %37, %36 ], [ %41, %38 ]
  %44 = getelementptr inbounds ptr, ptr %25, i64 %43
  %45 = load ptr, ptr %44, align 8, !tbaa !42, !noalias !104
  %46 = getelementptr inbounds %"class.std::deque.3", ptr %45, i64 6
  %47 = mul nsw i64 %43, -6
  %48 = add nsw i64 %47, %30
  %49 = getelementptr inbounds %"class.std::deque.3", ptr %45, i64 %48
  br label %50

50:                                               ; preds = %34, %42
  %51 = phi ptr [ %25, %34 ], [ %44, %42 ]
  %52 = phi ptr [ %23, %34 ], [ %46, %42 ]
  %53 = phi ptr [ %21, %34 ], [ %45, %42 ]
  %54 = phi ptr [ %35, %34 ], [ %49, %42 ]
  store ptr %54, ptr %4, align 8, !tbaa !96
  %55 = getelementptr inbounds %"struct.std::_Deque_iterator.13", ptr %4, i64 0, i32 1
  store ptr %53, ptr %55, align 8, !tbaa !98
  %56 = getelementptr inbounds %"struct.std::_Deque_iterator.13", ptr %4, i64 0, i32 2
  store ptr %52, ptr %56, align 8, !tbaa !99
  %57 = getelementptr inbounds %"struct.std::_Deque_iterator.13", ptr %4, i64 0, i32 3
  store ptr %51, ptr %57, align 8, !tbaa !100
  %58 = tail call noundef ptr @_ZN10xalanc_1_810XalanQName21getPrefixForNamespaceESt15_Deque_iteratorISt5dequeINS_9NameSpaceESaIS3_EERKS5_PS6_ES9_RKNS_14XalanDOMStringE(ptr noundef nonnull byval(%"struct.std::_Deque_iterator.13") align 8 %3, ptr noundef nonnull byval(%"struct.std::_Deque_iterator.13") align 8 %4, ptr noundef nonnull align 8 dereferenceable(28) %1)
  br label %59

59:                                               ; preds = %2, %50
  %60 = phi ptr [ %58, %50 ], [ null, %2 ]
  ret ptr %60
}

declare noundef ptr @_ZN10xalanc_1_810XalanQName21getPrefixForNamespaceESt15_Deque_iteratorISt5dequeINS_9NameSpaceESaIS3_EERKS5_PS6_ES9_RKNS_14XalanDOMStringE(ptr noundef byval(%"struct.std::_Deque_iterator.13") align 8, ptr noundef byval(%"struct.std::_Deque_iterator.13") align 8, ptr noundef nonnull align 8 dereferenceable(28)) local_unnamed_addr #4

; Function Attrs: uwtable
define dso_local noundef zeroext i1 @_ZN10xalanc_1_821ResultNamespacesStack20prefixIsPresentLocalERKNS_14XalanDOMStringE(ptr nocapture noundef nonnull readonly align 8 dereferenceable(184) %0, ptr noundef nonnull align 8 dereferenceable(28) %1) local_unnamed_addr #0 align 2 {
  %3 = getelementptr inbounds %"class.xalanc_1_8::ResultNamespacesStack", ptr %0, i64 0, i32 3, i32 0, i32 0, i32 0, i32 1
  %4 = load ptr, ptr %3, align 8
  %5 = getelementptr inbounds %"class.xalanc_1_8::ResultNamespacesStack", ptr %0, i64 0, i32 3, i32 0, i32 0, i32 0, i32 1, i32 0, i32 1
  %6 = load i32, ptr %5, align 8
  %7 = zext i32 %6 to i64
  %8 = add nsw i64 %7, -1
  %9 = sdiv i64 %8, 64
  %10 = getelementptr inbounds i64, ptr %4, i64 %9
  %11 = srem i64 %8, 64
  %12 = icmp slt i64 %11, 0
  %13 = add nsw i64 %11, 64
  %14 = ashr i64 %11, 63
  %15 = getelementptr inbounds i64, ptr %10, i64 %14
  %16 = select i1 %12, i64 %13, i64 %11
  %17 = and i64 %16, 4294967295
  %18 = shl nuw i64 1, %17
  %19 = load i64, ptr %15, align 8, !tbaa !54
  %20 = and i64 %18, %19
  %21 = icmp eq i64 %20, 0
  br i1 %21, label %22, label %52

22:                                               ; preds = %2
  %23 = getelementptr inbounds %"class.xalanc_1_8::ResultNamespacesStack", ptr %0, i64 0, i32 2
  %24 = load ptr, ptr %23, align 8, !tbaa !10
  %25 = getelementptr inbounds %"struct.std::_Deque_base<xalanc_1_8::NameSpace, std::allocator<xalanc_1_8::NameSpace> >::_Deque_impl", ptr %24, i64 0, i32 2
  %26 = load ptr, ptr %25, align 8, !tbaa !25, !noalias !107
  %27 = getelementptr inbounds %"struct.std::_Deque_base<xalanc_1_8::NameSpace, std::allocator<xalanc_1_8::NameSpace> >::_Deque_impl", ptr %24, i64 0, i32 3
  %28 = load ptr, ptr %27, align 8, !tbaa !25, !noalias !110
  %29 = icmp eq ptr %26, %28
  br i1 %29, label %52, label %30

30:                                               ; preds = %22
  %31 = getelementptr inbounds %"struct.std::_Deque_base<xalanc_1_8::NameSpace, std::allocator<xalanc_1_8::NameSpace> >::_Deque_impl", ptr %24, i64 0, i32 2, i32 3
  %32 = load ptr, ptr %31, align 8, !tbaa !32, !noalias !107
  %33 = getelementptr inbounds %"struct.std::_Deque_base<xalanc_1_8::NameSpace, std::allocator<xalanc_1_8::NameSpace> >::_Deque_impl", ptr %24, i64 0, i32 2, i32 2
  %34 = load ptr, ptr %33, align 8, !tbaa !31, !noalias !107
  br label %35

35:                                               ; preds = %30, %47
  %36 = phi ptr [ %50, %47 ], [ %32, %30 ]
  %37 = phi ptr [ %49, %47 ], [ %34, %30 ]
  %38 = phi ptr [ %48, %47 ], [ %26, %30 ]
  %39 = tail call noundef zeroext i1 @_ZN10xalanc_1_814XalanDOMString6equalsERKS0_S2_(ptr noundef nonnull align 8 dereferenceable(28) %1, ptr noundef nonnull align 8 dereferenceable(28) %38)
  br i1 %39, label %52, label %40

40:                                               ; preds = %35
  %41 = getelementptr inbounds %"class.xalanc_1_8::NameSpace", ptr %38, i64 1
  %42 = icmp eq ptr %41, %37
  br i1 %42, label %43, label %47

43:                                               ; preds = %40
  %44 = getelementptr inbounds ptr, ptr %36, i64 1
  %45 = load ptr, ptr %44, align 8, !tbaa !42
  %46 = getelementptr inbounds %"class.xalanc_1_8::NameSpace", ptr %45, i64 8
  br label %47

47:                                               ; preds = %43, %40
  %48 = phi ptr [ %45, %43 ], [ %41, %40 ]
  %49 = phi ptr [ %46, %43 ], [ %37, %40 ]
  %50 = phi ptr [ %44, %43 ], [ %36, %40 ]
  %51 = icmp eq ptr %48, %28
  br i1 %51, label %52, label %35

52:                                               ; preds = %35, %47, %22, %2
  %53 = phi i1 [ false, %2 ], [ false, %22 ], [ %39, %47 ], [ %39, %35 ]
  ret i1 %53
}

; Function Attrs: uwtable
define dso_local void @_ZN10xalanc_1_821ResultNamespacesStack5clearEv(ptr nocapture noundef nonnull align 8 dereferenceable(184) %0) local_unnamed_addr #0 align 2 personality ptr @__gxx_personality_v0 {
  %2 = alloca %"class.std::deque", align 8
  %3 = alloca %"class.std::deque.3", align 8
  call void @llvm.lifetime.start.p0(i64 80, ptr nonnull %2) #12
  call void @llvm.lifetime.start.p0(i64 80, ptr nonnull %3) #12
  call void @llvm.memset.p0.i64(ptr noundef nonnull align 8 dereferenceable(80) %3, i8 0, i64 80, i1 false)
  call void @_ZNSt11_Deque_baseIN10xalanc_1_89NameSpaceESaIS1_EE17_M_initialize_mapEm(ptr noundef nonnull align 8 dereferenceable(80) %3, i64 noundef 0)
  call void @llvm.memset.p0.i64(ptr noundef nonnull align 8 dereferenceable(80) %2, i8 0, i64 80, i1 false)
  invoke void @_ZNSt11_Deque_baseISt5dequeIN10xalanc_1_89NameSpaceESaIS2_EESaIS4_EE17_M_initialize_mapEm(ptr noundef nonnull align 8 dereferenceable(80) %2, i64 noundef 1)
          to label %4 unwind label %55

4:                                                ; preds = %1
  invoke void @_ZNSt5dequeIS_IN10xalanc_1_89NameSpaceESaIS1_EESaIS3_EE18_M_fill_initializeERKS3_(ptr noundef nonnull align 8 dereferenceable(80) %2, ptr noundef nonnull align 8 dereferenceable(80) %3)
          to label %10 unwind label %5

5:                                                ; preds = %4
  %6 = landingpad { ptr, i32 }
          cleanup
  invoke void @_ZNSt11_Deque_baseISt5dequeIN10xalanc_1_89NameSpaceESaIS2_EESaIS4_EED2Ev(ptr noundef nonnull align 8 dereferenceable(80) %2)
          to label %57 unwind label %7

7:                                                ; preds = %5
  %8 = landingpad { ptr, i32 }
          catch ptr null
  %9 = extractvalue { ptr, i32 } %8, 0
  call void @__clang_call_terminate(ptr %9) #13
  unreachable

10:                                               ; preds = %4
  %11 = getelementptr inbounds %"struct.std::_Deque_base<std::deque<xalanc_1_8::NameSpace>, std::allocator<std::deque<xalanc_1_8::NameSpace> > >::_Deque_impl", ptr %2, i64 0, i32 2
  %12 = getelementptr inbounds %"struct.std::_Deque_base<std::deque<xalanc_1_8::NameSpace>, std::allocator<std::deque<xalanc_1_8::NameSpace> > >::_Deque_impl", ptr %0, i64 0, i32 2
  %13 = load ptr, ptr %11, align 8, !tbaa !10
  %14 = getelementptr inbounds %"struct.std::_Deque_base<std::deque<xalanc_1_8::NameSpace>, std::allocator<std::deque<xalanc_1_8::NameSpace> > >::_Deque_impl", ptr %2, i64 0, i32 2, i32 1
  %15 = load ptr, ptr %14, align 8, !tbaa !15
  %16 = getelementptr inbounds %"struct.std::_Deque_base<std::deque<xalanc_1_8::NameSpace>, std::allocator<std::deque<xalanc_1_8::NameSpace> > >::_Deque_impl", ptr %2, i64 0, i32 2, i32 2
  %17 = load ptr, ptr %16, align 8, !tbaa !16
  %18 = getelementptr inbounds %"struct.std::_Deque_base<std::deque<xalanc_1_8::NameSpace>, std::allocator<std::deque<xalanc_1_8::NameSpace> > >::_Deque_impl", ptr %2, i64 0, i32 2, i32 3
  %19 = load ptr, ptr %18, align 8, !tbaa !17
  call void @llvm.memcpy.p0.p0.i64(ptr noundef nonnull align 8 dereferenceable(32) %11, ptr noundef nonnull align 8 dereferenceable(32) %12, i64 32, i1 false), !tbaa.struct !61
  store ptr %13, ptr %12, align 8, !tbaa.struct !61
  %20 = getelementptr inbounds %"struct.std::_Deque_base<std::deque<xalanc_1_8::NameSpace>, std::allocator<std::deque<xalanc_1_8::NameSpace> > >::_Deque_impl", ptr %0, i64 0, i32 2, i32 1
  store ptr %15, ptr %20, align 8, !tbaa.struct !62
  %21 = getelementptr inbounds %"struct.std::_Deque_base<std::deque<xalanc_1_8::NameSpace>, std::allocator<std::deque<xalanc_1_8::NameSpace> > >::_Deque_impl", ptr %0, i64 0, i32 2, i32 2
  store ptr %17, ptr %21, align 8, !tbaa.struct !63
  %22 = getelementptr inbounds %"struct.std::_Deque_base<std::deque<xalanc_1_8::NameSpace>, std::allocator<std::deque<xalanc_1_8::NameSpace> > >::_Deque_impl", ptr %0, i64 0, i32 2, i32 3
  store ptr %19, ptr %22, align 8, !tbaa.struct !64
  %23 = getelementptr inbounds %"struct.std::_Deque_base<std::deque<xalanc_1_8::NameSpace>, std::allocator<std::deque<xalanc_1_8::NameSpace> > >::_Deque_impl", ptr %2, i64 0, i32 3
  %24 = getelementptr inbounds %"struct.std::_Deque_base<std::deque<xalanc_1_8::NameSpace>, std::allocator<std::deque<xalanc_1_8::NameSpace> > >::_Deque_impl", ptr %0, i64 0, i32 3
  %25 = load ptr, ptr %23, align 8, !tbaa !10
  %26 = getelementptr inbounds %"struct.std::_Deque_base<std::deque<xalanc_1_8::NameSpace>, std::allocator<std::deque<xalanc_1_8::NameSpace> > >::_Deque_impl", ptr %2, i64 0, i32 3, i32 1
  %27 = load ptr, ptr %26, align 8, !tbaa !15
  %28 = getelementptr inbounds %"struct.std::_Deque_base<std::deque<xalanc_1_8::NameSpace>, std::allocator<std::deque<xalanc_1_8::NameSpace> > >::_Deque_impl", ptr %2, i64 0, i32 3, i32 2
  %29 = load ptr, ptr %28, align 8, !tbaa !16
  %30 = getelementptr inbounds %"struct.std::_Deque_base<std::deque<xalanc_1_8::NameSpace>, std::allocator<std::deque<xalanc_1_8::NameSpace> > >::_Deque_impl", ptr %2, i64 0, i32 3, i32 3
  %31 = load ptr, ptr %30, align 8, !tbaa !17
  call void @llvm.memcpy.p0.p0.i64(ptr noundef nonnull align 8 dereferenceable(32) %23, ptr noundef nonnull align 8 dereferenceable(32) %24, i64 32, i1 false), !tbaa.struct !61
  store ptr %25, ptr %24, align 8, !tbaa.struct !61
  %32 = getelementptr inbounds %"struct.std::_Deque_base<std::deque<xalanc_1_8::NameSpace>, std::allocator<std::deque<xalanc_1_8::NameSpace> > >::_Deque_impl", ptr %0, i64 0, i32 3, i32 1
  store ptr %27, ptr %32, align 8, !tbaa.struct !62
  %33 = getelementptr inbounds %"struct.std::_Deque_base<std::deque<xalanc_1_8::NameSpace>, std::allocator<std::deque<xalanc_1_8::NameSpace> > >::_Deque_impl", ptr %0, i64 0, i32 3, i32 2
  store ptr %29, ptr %33, align 8, !tbaa.struct !63
  %34 = getelementptr inbounds %"struct.std::_Deque_base<std::deque<xalanc_1_8::NameSpace>, std::allocator<std::deque<xalanc_1_8::NameSpace> > >::_Deque_impl", ptr %0, i64 0, i32 3, i32 3
  store ptr %31, ptr %34, align 8, !tbaa.struct !64
  %35 = load ptr, ptr %2, align 8, !tbaa !42
  %36 = load ptr, ptr %0, align 8, !tbaa !42
  store ptr %36, ptr %2, align 8, !tbaa !42
  store ptr %35, ptr %0, align 8, !tbaa !42
  %37 = getelementptr inbounds %"struct.std::_Deque_base<std::deque<xalanc_1_8::NameSpace>, std::allocator<std::deque<xalanc_1_8::NameSpace> > >::_Deque_impl", ptr %2, i64 0, i32 1
  %38 = getelementptr inbounds %"struct.std::_Deque_base<std::deque<xalanc_1_8::NameSpace>, std::allocator<std::deque<xalanc_1_8::NameSpace> > >::_Deque_impl", ptr %0, i64 0, i32 1
  %39 = load i64, ptr %37, align 8, !tbaa !54
  %40 = load i64, ptr %38, align 8, !tbaa !54
  store i64 %40, ptr %37, align 8, !tbaa !54
  store i64 %39, ptr %38, align 8, !tbaa !54
  invoke void @_ZNSt5dequeIS_IN10xalanc_1_89NameSpaceESaIS1_EESaIS3_EED2Ev(ptr noundef nonnull align 8 dereferenceable(80) %2)
          to label %41 unwind label %55

41:                                               ; preds = %10
  call void @_ZNSt5dequeIN10xalanc_1_89NameSpaceESaIS1_EED2Ev(ptr noundef nonnull align 8 dereferenceable(80) %3)
  call void @llvm.lifetime.end.p0(i64 80, ptr nonnull %3) #12
  call void @llvm.lifetime.end.p0(i64 80, ptr nonnull %2) #12
  %42 = load ptr, ptr %12, align 8, !tbaa !10, !noalias !113
  %43 = load ptr, ptr %20, align 8, !tbaa !15, !noalias !113
  %44 = load ptr, ptr %21, align 8, !tbaa !16, !noalias !113
  %45 = load ptr, ptr %22, align 8, !tbaa !17, !noalias !113
  %46 = getelementptr inbounds %"class.xalanc_1_8::ResultNamespacesStack", ptr %0, i64 0, i32 1
  store ptr %42, ptr %46, align 8, !tbaa.struct !61
  %47 = getelementptr inbounds %"class.xalanc_1_8::ResultNamespacesStack", ptr %0, i64 0, i32 1, i32 1
  store ptr %43, ptr %47, align 8, !tbaa.struct !62
  %48 = getelementptr inbounds %"class.xalanc_1_8::ResultNamespacesStack", ptr %0, i64 0, i32 1, i32 2
  store ptr %44, ptr %48, align 8, !tbaa.struct !63
  %49 = getelementptr inbounds %"class.xalanc_1_8::ResultNamespacesStack", ptr %0, i64 0, i32 1, i32 3
  store ptr %45, ptr %49, align 8, !tbaa.struct !64
  %50 = getelementptr inbounds %"class.xalanc_1_8::ResultNamespacesStack", ptr %0, i64 0, i32 2
  call void @llvm.memcpy.p0.p0.i64(ptr noundef nonnull align 8 dereferenceable(32) %50, ptr noundef nonnull align 8 dereferenceable(32) %46, i64 32, i1 false), !tbaa.struct !61
  %51 = getelementptr inbounds %"class.xalanc_1_8::ResultNamespacesStack", ptr %0, i64 0, i32 3
  %52 = load ptr, ptr %51, align 8, !tbaa !18
  %53 = getelementptr inbounds %"class.xalanc_1_8::ResultNamespacesStack", ptr %0, i64 0, i32 3, i32 0, i32 0, i32 0, i32 1
  store ptr %52, ptr %53, align 8
  %54 = getelementptr inbounds %"class.xalanc_1_8::ResultNamespacesStack", ptr %0, i64 0, i32 3, i32 0, i32 0, i32 0, i32 1, i32 0, i32 1
  store i32 0, ptr %54, align 8
  ret void

55:                                               ; preds = %1, %10
  %56 = landingpad { ptr, i32 }
          cleanup
  br label %57

57:                                               ; preds = %55, %5
  %58 = phi { ptr, i32 } [ %56, %55 ], [ %6, %5 ]
  invoke void @_ZNSt5dequeIN10xalanc_1_89NameSpaceESaIS1_EED2Ev(ptr noundef nonnull align 8 dereferenceable(80) %3)
          to label %59 unwind label %60

59:                                               ; preds = %57
  call void @llvm.lifetime.end.p0(i64 80, ptr nonnull %3) #12
  call void @llvm.lifetime.end.p0(i64 80, ptr nonnull %2) #12
  resume { ptr, i32 } %58

60:                                               ; preds = %57
  %61 = landingpad { ptr, i32 }
          catch ptr null
  %62 = extractvalue { ptr, i32 } %61, 0
  call void @__clang_call_terminate(ptr %62) #13
  unreachable
}

declare void @_ZN10xalanc_1_814XalanDOMStringC1Ev(ptr noundef nonnull align 8 dereferenceable(28)) unnamed_addr #4

; Function Attrs: nobuiltin nounwind
declare void @_ZdlPv(ptr noundef) local_unnamed_addr #5

; Function Attrs: uwtable
define linkonce_odr dso_local noundef nonnull align 8 dereferenceable(24) ptr @_ZNSt6vectorItSaItEEaSERKS1_(ptr noundef nonnull align 8 dereferenceable(24) %0, ptr noundef nonnull align 8 dereferenceable(24) %1) local_unnamed_addr #0 comdat align 2 personality ptr @__gxx_personality_v0 {
  %3 = icmp eq ptr %1, %0
  br i1 %3, label %70, label %4

4:                                                ; preds = %2
  %5 = getelementptr inbounds %"struct.std::_Vector_base<unsigned short, std::allocator<unsigned short> >::_Vector_impl_data", ptr %1, i64 0, i32 1
  %6 = load ptr, ptr %5, align 8, !tbaa !42
  %7 = load ptr, ptr %1, align 8, !tbaa !42
  %8 = ptrtoint ptr %6 to i64
  %9 = ptrtoint ptr %7 to i64
  %10 = sub i64 %8, %9
  %11 = ashr exact i64 %10, 1
  %12 = getelementptr inbounds %"struct.std::_Vector_base<unsigned short, std::allocator<unsigned short> >::_Vector_impl_data", ptr %0, i64 0, i32 2
  %13 = load ptr, ptr %12, align 8, !tbaa !116
  %14 = load ptr, ptr %0, align 8, !tbaa !42
  %15 = ptrtoint ptr %13 to i64
  %16 = ptrtoint ptr %14 to i64
  %17 = sub i64 %15, %16
  %18 = ashr exact i64 %17, 1
  %19 = icmp ugt i64 %11, %18
  br i1 %19, label %20, label %33

20:                                               ; preds = %4
  %21 = icmp ugt i64 %10, 9223372036854775806
  br i1 %21, label %22, label %23

22:                                               ; preds = %20
  tail call void @_ZSt17__throw_bad_allocv() #14
  unreachable

23:                                               ; preds = %20
  %24 = tail call noalias noundef nonnull ptr @_Znwm(i64 noundef %10) #15
  %25 = icmp eq ptr %6, %7
  br i1 %25, label %27, label %26

26:                                               ; preds = %23
  tail call void @llvm.memcpy.p0.p0.i64(ptr nonnull align 2 %24, ptr align 2 %7, i64 %10, i1 false)
  br label %27

27:                                               ; preds = %23, %26
  %28 = load ptr, ptr %0, align 8, !tbaa !68
  %29 = icmp eq ptr %28, null
  br i1 %29, label %31, label %30

30:                                               ; preds = %27
  tail call void @_ZdlPv(ptr noundef nonnull %28) #12
  br label %31

31:                                               ; preds = %27, %30
  store ptr %24, ptr %0, align 8, !tbaa !68
  %32 = getelementptr inbounds i16, ptr %24, i64 %11
  store ptr %32, ptr %12, align 8, !tbaa !116
  br label %66

33:                                               ; preds = %4
  %34 = getelementptr inbounds %"struct.std::_Vector_base<unsigned short, std::allocator<unsigned short> >::_Vector_impl_data", ptr %0, i64 0, i32 1
  %35 = load ptr, ptr %34, align 8, !tbaa !117
  %36 = ptrtoint ptr %35 to i64
  %37 = sub i64 %36, %16
  %38 = ashr exact i64 %37, 1
  %39 = icmp ult i64 %38, %11
  br i1 %39, label %43, label %40

40:                                               ; preds = %33
  %41 = icmp eq ptr %6, %7
  br i1 %41, label %66, label %42

42:                                               ; preds = %40
  tail call void @llvm.memmove.p0.p0.i64(ptr align 2 %14, ptr align 2 %7, i64 %10, i1 false)
  br label %66

43:                                               ; preds = %33
  %44 = icmp eq ptr %35, %14
  br i1 %44, label %52, label %45

45:                                               ; preds = %43
  tail call void @llvm.memmove.p0.p0.i64(ptr align 2 %14, ptr align 2 %7, i64 %37, i1 false)
  %46 = load ptr, ptr %1, align 8, !tbaa !68
  %47 = load ptr, ptr %34, align 8, !tbaa !117
  %48 = load ptr, ptr %0, align 8, !tbaa !68
  %49 = load ptr, ptr %5, align 8, !tbaa !117
  %50 = ptrtoint ptr %47 to i64
  %51 = ptrtoint ptr %48 to i64
  br label %52

52:                                               ; preds = %43, %45
  %53 = phi i64 [ %16, %43 ], [ %51, %45 ]
  %54 = phi i64 [ %16, %43 ], [ %50, %45 ]
  %55 = phi ptr [ %6, %43 ], [ %49, %45 ]
  %56 = phi ptr [ %14, %43 ], [ %47, %45 ]
  %57 = phi ptr [ %7, %43 ], [ %46, %45 ]
  %58 = sub i64 %54, %53
  %59 = ashr exact i64 %58, 1
  %60 = getelementptr inbounds i16, ptr %57, i64 %59
  %61 = icmp eq ptr %55, %60
  br i1 %61, label %66, label %62

62:                                               ; preds = %52
  %63 = ptrtoint ptr %55 to i64
  %64 = ptrtoint ptr %60 to i64
  %65 = sub i64 %63, %64
  tail call void @llvm.memmove.p0.p0.i64(ptr align 2 %56, ptr align 2 %60, i64 %65, i1 false)
  br label %66

66:                                               ; preds = %62, %52, %42, %40, %31
  %67 = load ptr, ptr %0, align 8, !tbaa !68
  %68 = getelementptr inbounds i16, ptr %67, i64 %11
  %69 = getelementptr inbounds %"struct.std::_Vector_base<unsigned short, std::allocator<unsigned short> >::_Vector_impl_data", ptr %0, i64 0, i32 1
  store ptr %68, ptr %69, align 8, !tbaa !117
  br label %70

70:                                               ; preds = %66, %2
  ret ptr %0
}

declare void @__cxa_rethrow() local_unnamed_addr

declare void @__cxa_end_catch() local_unnamed_addr

; Function Attrs: noreturn
declare void @_ZSt17__throw_bad_allocv() local_unnamed_addr #6

; Function Attrs: nobuiltin allocsize(0)
declare noundef nonnull ptr @_Znwm(i64 noundef) local_unnamed_addr #7

; Function Attrs: mustprogress nocallback nofree nounwind willreturn memory(argmem: readwrite)
declare void @llvm.memmove.p0.p0.i64(ptr nocapture writeonly, ptr nocapture readonly, i64, i1 immarg) #3

declare void @_ZN10xalanc_1_814XalanDOMString5eraseEjj(ptr noundef nonnull align 8 dereferenceable(28), i32 noundef, i32 noundef) local_unnamed_addr #4

declare noundef nonnull align 8 dereferenceable(28) ptr @_ZN10xalanc_1_814XalanDOMString6appendEPKtj(ptr noundef nonnull align 8 dereferenceable(28), ptr noundef, i32 noundef) local_unnamed_addr #4

declare noundef zeroext i1 @_ZN10xalanc_1_814XalanDOMString6equalsERKS0_S2_(ptr noundef nonnull align 8 dereferenceable(28), ptr noundef nonnull align 8 dereferenceable(28)) local_unnamed_addr #4

; Function Attrs: uwtable
define linkonce_odr dso_local void @_ZNSt11_Deque_baseIN10xalanc_1_89NameSpaceESaIS1_EE17_M_initialize_mapEm(ptr noundef nonnull align 8 dereferenceable(80) %0, i64 noundef %1) local_unnamed_addr #0 comdat align 2 personality ptr @__gxx_personality_v0 {
  %3 = lshr i64 %1, 3
  %4 = tail call i64 @llvm.umax.i64(i64 %3, i64 5)
  %5 = add nuw nsw i64 %4, 3
  %6 = getelementptr inbounds %"struct.std::_Deque_base<xalanc_1_8::NameSpace, std::allocator<xalanc_1_8::NameSpace> >::_Deque_impl", ptr %0, i64 0, i32 1
  store i64 %5, ptr %6, align 8, !tbaa !118
  %7 = icmp ugt i64 %4, 1152921504606846972
  br i1 %7, label %8, label %9

8:                                                ; preds = %2
  tail call void @_ZSt17__throw_bad_allocv() #14
  unreachable

9:                                                ; preds = %2
  %10 = add nuw nsw i64 %3, 1
  %11 = shl nuw nsw i64 %5, 3
  %12 = tail call noalias noundef nonnull ptr @_Znwm(i64 noundef %11) #15
  store ptr %12, ptr %0, align 8, !tbaa !36
  %13 = load i64, ptr %6, align 8, !tbaa !118
  %14 = sub i64 %13, %10
  %15 = lshr i64 %14, 1
  %16 = getelementptr inbounds ptr, ptr %12, i64 %15
  %17 = getelementptr inbounds ptr, ptr %16, i64 %10
  br label %18

18:                                               ; preds = %9, %21
  %19 = phi ptr [ %22, %21 ], [ %16, %9 ]
  %20 = invoke noalias noundef nonnull dereferenceable(512) ptr @_Znwm(i64 noundef 512) #15
          to label %21 unwind label %24

21:                                               ; preds = %18
  store ptr %20, ptr %19, align 8, !tbaa !42
  %22 = getelementptr inbounds ptr, ptr %19, i64 1
  %23 = icmp ult ptr %22, %17
  br i1 %23, label %18, label %48

24:                                               ; preds = %18
  %25 = landingpad { ptr, i32 }
          catch ptr null
  %26 = extractvalue { ptr, i32 } %25, 0
  %27 = tail call ptr @__cxa_begin_catch(ptr %26) #12
  %28 = icmp ugt ptr %19, %16
  br i1 %28, label %29, label %34

29:                                               ; preds = %24, %29
  %30 = phi ptr [ %32, %29 ], [ %16, %24 ]
  %31 = load ptr, ptr %30, align 8, !tbaa !42
  tail call void @_ZdlPv(ptr noundef %31) #12
  %32 = getelementptr inbounds ptr, ptr %30, i64 1
  %33 = icmp ult ptr %32, %19
  br i1 %33, label %29, label %34

34:                                               ; preds = %29, %24
  invoke void @__cxa_rethrow() #14
          to label %40 unwind label %35

35:                                               ; preds = %34
  %36 = landingpad { ptr, i32 }
          catch ptr null
  invoke void @__cxa_end_catch()
          to label %41 unwind label %37

37:                                               ; preds = %35
  %38 = landingpad { ptr, i32 }
          catch ptr null
  %39 = extractvalue { ptr, i32 } %38, 0
  tail call void @__clang_call_terminate(ptr %39) #13
  unreachable

40:                                               ; preds = %34
  unreachable

41:                                               ; preds = %35
  %42 = extractvalue { ptr, i32 } %36, 0
  %43 = tail call ptr @__cxa_begin_catch(ptr %42) #12
  %44 = load ptr, ptr %0, align 8, !tbaa !36
  tail call void @_ZdlPv(ptr noundef %44) #12
  tail call void @llvm.memset.p0.i64(ptr noundef nonnull align 8 dereferenceable(16) %0, i8 0, i64 16, i1 false)
  invoke void @__cxa_rethrow() #14
          to label %67 unwind label %45

45:                                               ; preds = %41
  %46 = landingpad { ptr, i32 }
          cleanup
  invoke void @__cxa_end_catch()
          to label %47 unwind label %64

47:                                               ; preds = %45
  resume { ptr, i32 } %46

48:                                               ; preds = %21
  %49 = getelementptr inbounds %"struct.std::_Deque_base<xalanc_1_8::NameSpace, std::allocator<xalanc_1_8::NameSpace> >::_Deque_impl", ptr %0, i64 0, i32 2
  %50 = getelementptr inbounds %"struct.std::_Deque_base<xalanc_1_8::NameSpace, std::allocator<xalanc_1_8::NameSpace> >::_Deque_impl", ptr %0, i64 0, i32 2, i32 3
  store ptr %16, ptr %50, align 8, !tbaa !32
  %51 = load ptr, ptr %16, align 8, !tbaa !42
  %52 = getelementptr inbounds %"struct.std::_Deque_base<xalanc_1_8::NameSpace, std::allocator<xalanc_1_8::NameSpace> >::_Deque_impl", ptr %0, i64 0, i32 2, i32 1
  store ptr %51, ptr %52, align 8, !tbaa !30
  %53 = getelementptr inbounds %"class.xalanc_1_8::NameSpace", ptr %51, i64 8
  %54 = getelementptr inbounds %"struct.std::_Deque_base<xalanc_1_8::NameSpace, std::allocator<xalanc_1_8::NameSpace> >::_Deque_impl", ptr %0, i64 0, i32 2, i32 2
  store ptr %53, ptr %54, align 8, !tbaa !31
  %55 = getelementptr inbounds %"struct.std::_Deque_base<xalanc_1_8::NameSpace, std::allocator<xalanc_1_8::NameSpace> >::_Deque_impl", ptr %0, i64 0, i32 3
  %56 = getelementptr inbounds ptr, ptr %16, i64 %3
  %57 = getelementptr inbounds %"struct.std::_Deque_base<xalanc_1_8::NameSpace, std::allocator<xalanc_1_8::NameSpace> >::_Deque_impl", ptr %0, i64 0, i32 3, i32 3
  store ptr %56, ptr %57, align 8, !tbaa !32
  %58 = load ptr, ptr %56, align 8, !tbaa !42
  %59 = getelementptr inbounds %"struct.std::_Deque_base<xalanc_1_8::NameSpace, std::allocator<xalanc_1_8::NameSpace> >::_Deque_impl", ptr %0, i64 0, i32 3, i32 1
  store ptr %58, ptr %59, align 8, !tbaa !30
  %60 = getelementptr inbounds %"class.xalanc_1_8::NameSpace", ptr %58, i64 8
  %61 = getelementptr inbounds %"struct.std::_Deque_base<xalanc_1_8::NameSpace, std::allocator<xalanc_1_8::NameSpace> >::_Deque_impl", ptr %0, i64 0, i32 3, i32 2
  store ptr %60, ptr %61, align 8, !tbaa !31
  store ptr %51, ptr %49, align 8, !tbaa !119
  %62 = and i64 %1, 7
  %63 = getelementptr inbounds %"class.xalanc_1_8::NameSpace", ptr %58, i64 %62
  store ptr %63, ptr %55, align 8, !tbaa !120
  ret void

64:                                               ; preds = %45
  %65 = landingpad { ptr, i32 }
          catch ptr null
  %66 = extractvalue { ptr, i32 } %65, 0
  tail call void @__clang_call_terminate(ptr %66) #13
  unreachable

67:                                               ; preds = %41
  unreachable
}

; Function Attrs: uwtable
define linkonce_odr dso_local void @_ZNSt11_Deque_baseIN10xalanc_1_89NameSpaceESaIS1_EED2Ev(ptr noundef nonnull align 8 dereferenceable(80) %0) unnamed_addr #0 comdat align 2 personality ptr @__gxx_personality_v0 {
  %2 = load ptr, ptr %0, align 8, !tbaa !36
  %3 = icmp eq ptr %2, null
  br i1 %3, label %20, label %4

4:                                                ; preds = %1
  %5 = getelementptr inbounds %"struct.std::_Deque_base<xalanc_1_8::NameSpace, std::allocator<xalanc_1_8::NameSpace> >::_Deque_impl", ptr %0, i64 0, i32 2, i32 3
  %6 = load ptr, ptr %5, align 8, !tbaa !40
  %7 = getelementptr inbounds %"struct.std::_Deque_base<xalanc_1_8::NameSpace, std::allocator<xalanc_1_8::NameSpace> >::_Deque_impl", ptr %0, i64 0, i32 3, i32 3
  %8 = load ptr, ptr %7, align 8, !tbaa !41
  %9 = getelementptr inbounds ptr, ptr %8, i64 1
  %10 = icmp ult ptr %6, %9
  br i1 %10, label %11, label %18

11:                                               ; preds = %4, %11
  %12 = phi ptr [ %14, %11 ], [ %6, %4 ]
  %13 = load ptr, ptr %12, align 8, !tbaa !42
  tail call void @_ZdlPv(ptr noundef %13) #12
  %14 = getelementptr inbounds ptr, ptr %12, i64 1
  %15 = icmp ult ptr %12, %8
  br i1 %15, label %11, label %16

16:                                               ; preds = %11
  %17 = load ptr, ptr %0, align 8, !tbaa !36
  br label %18

18:                                               ; preds = %16, %4
  %19 = phi ptr [ %17, %16 ], [ %2, %4 ]
  tail call void @_ZdlPv(ptr noundef %19) #12
  br label %20

20:                                               ; preds = %18, %1
  ret void
}

; Function Attrs: uwtable
define linkonce_odr dso_local void @_ZNSt5dequeIN10xalanc_1_89NameSpaceESaIS1_EE19_M_destroy_data_auxESt15_Deque_iteratorIS1_RS1_PS1_ES7_(ptr noundef nonnull align 8 dereferenceable(80) %0, ptr noundef %1, ptr noundef %2) local_unnamed_addr #0 comdat align 2 personality ptr @__gxx_personality_v0 {
  %4 = getelementptr inbounds %"struct.std::_Deque_iterator.8", ptr %1, i64 0, i32 3
  %5 = load ptr, ptr %4, align 8, !tbaa !32
  %6 = getelementptr inbounds %"struct.std::_Deque_iterator.8", ptr %2, i64 0, i32 3
  %7 = getelementptr inbounds ptr, ptr %5, i64 1
  %8 = load ptr, ptr %6, align 8, !tbaa !32
  %9 = icmp ult ptr %7, %8
  br i1 %9, label %17, label %12

10:                                               ; preds = %98
  %11 = load ptr, ptr %4, align 8, !tbaa !32
  br label %12

12:                                               ; preds = %10, %3
  %13 = phi ptr [ %5, %3 ], [ %11, %10 ]
  %14 = phi ptr [ %8, %3 ], [ %100, %10 ]
  %15 = icmp eq ptr %13, %14
  %16 = load ptr, ptr %1, align 8, !tbaa !25
  br i1 %15, label %137, label %102

17:                                               ; preds = %3, %98
  %18 = phi ptr [ %99, %98 ], [ %7, %3 ]
  %19 = load ptr, ptr %18, align 8, !tbaa !42
  %20 = getelementptr inbounds %"class.xalanc_1_8::NameSpace", ptr %19, i64 0, i32 1
  %21 = load ptr, ptr %20, align 8, !tbaa !68
  %22 = icmp eq ptr %21, null
  br i1 %22, label %24, label %23

23:                                               ; preds = %17
  tail call void @_ZdlPv(ptr noundef nonnull %21) #12
  br label %24

24:                                               ; preds = %23, %17
  %25 = load ptr, ptr %19, align 8, !tbaa !68
  %26 = icmp eq ptr %25, null
  br i1 %26, label %28, label %27

27:                                               ; preds = %24
  tail call void @_ZdlPv(ptr noundef nonnull %25) #12
  br label %28

28:                                               ; preds = %27, %24
  %29 = getelementptr inbounds %"class.xalanc_1_8::NameSpace", ptr %19, i64 1
  %30 = getelementptr inbounds %"class.xalanc_1_8::NameSpace", ptr %19, i64 1, i32 1
  %31 = load ptr, ptr %30, align 8, !tbaa !68
  %32 = icmp eq ptr %31, null
  br i1 %32, label %34, label %33

33:                                               ; preds = %28
  tail call void @_ZdlPv(ptr noundef nonnull %31) #12
  br label %34

34:                                               ; preds = %33, %28
  %35 = load ptr, ptr %29, align 8, !tbaa !68
  %36 = icmp eq ptr %35, null
  br i1 %36, label %38, label %37

37:                                               ; preds = %34
  tail call void @_ZdlPv(ptr noundef nonnull %35) #12
  br label %38

38:                                               ; preds = %37, %34
  %39 = getelementptr inbounds %"class.xalanc_1_8::NameSpace", ptr %19, i64 2
  %40 = getelementptr inbounds %"class.xalanc_1_8::NameSpace", ptr %19, i64 2, i32 1
  %41 = load ptr, ptr %40, align 8, !tbaa !68
  %42 = icmp eq ptr %41, null
  br i1 %42, label %44, label %43

43:                                               ; preds = %38
  tail call void @_ZdlPv(ptr noundef nonnull %41) #12
  br label %44

44:                                               ; preds = %43, %38
  %45 = load ptr, ptr %39, align 8, !tbaa !68
  %46 = icmp eq ptr %45, null
  br i1 %46, label %48, label %47

47:                                               ; preds = %44
  tail call void @_ZdlPv(ptr noundef nonnull %45) #12
  br label %48

48:                                               ; preds = %47, %44
  %49 = getelementptr inbounds %"class.xalanc_1_8::NameSpace", ptr %19, i64 3
  %50 = getelementptr inbounds %"class.xalanc_1_8::NameSpace", ptr %19, i64 3, i32 1
  %51 = load ptr, ptr %50, align 8, !tbaa !68
  %52 = icmp eq ptr %51, null
  br i1 %52, label %54, label %53

53:                                               ; preds = %48
  tail call void @_ZdlPv(ptr noundef nonnull %51) #12
  br label %54

54:                                               ; preds = %53, %48
  %55 = load ptr, ptr %49, align 8, !tbaa !68
  %56 = icmp eq ptr %55, null
  br i1 %56, label %58, label %57

57:                                               ; preds = %54
  tail call void @_ZdlPv(ptr noundef nonnull %55) #12
  br label %58

58:                                               ; preds = %57, %54
  %59 = getelementptr inbounds %"class.xalanc_1_8::NameSpace", ptr %19, i64 4
  %60 = getelementptr inbounds %"class.xalanc_1_8::NameSpace", ptr %19, i64 4, i32 1
  %61 = load ptr, ptr %60, align 8, !tbaa !68
  %62 = icmp eq ptr %61, null
  br i1 %62, label %64, label %63

63:                                               ; preds = %58
  tail call void @_ZdlPv(ptr noundef nonnull %61) #12
  br label %64

64:                                               ; preds = %63, %58
  %65 = load ptr, ptr %59, align 8, !tbaa !68
  %66 = icmp eq ptr %65, null
  br i1 %66, label %68, label %67

67:                                               ; preds = %64
  tail call void @_ZdlPv(ptr noundef nonnull %65) #12
  br label %68

68:                                               ; preds = %67, %64
  %69 = getelementptr inbounds %"class.xalanc_1_8::NameSpace", ptr %19, i64 5
  %70 = getelementptr inbounds %"class.xalanc_1_8::NameSpace", ptr %19, i64 5, i32 1
  %71 = load ptr, ptr %70, align 8, !tbaa !68
  %72 = icmp eq ptr %71, null
  br i1 %72, label %74, label %73

73:                                               ; preds = %68
  tail call void @_ZdlPv(ptr noundef nonnull %71) #12
  br label %74

74:                                               ; preds = %73, %68
  %75 = load ptr, ptr %69, align 8, !tbaa !68
  %76 = icmp eq ptr %75, null
  br i1 %76, label %78, label %77

77:                                               ; preds = %74
  tail call void @_ZdlPv(ptr noundef nonnull %75) #12
  br label %78

78:                                               ; preds = %77, %74
  %79 = getelementptr inbounds %"class.xalanc_1_8::NameSpace", ptr %19, i64 6
  %80 = getelementptr inbounds %"class.xalanc_1_8::NameSpace", ptr %19, i64 6, i32 1
  %81 = load ptr, ptr %80, align 8, !tbaa !68
  %82 = icmp eq ptr %81, null
  br i1 %82, label %84, label %83

83:                                               ; preds = %78
  tail call void @_ZdlPv(ptr noundef nonnull %81) #12
  br label %84

84:                                               ; preds = %83, %78
  %85 = load ptr, ptr %79, align 8, !tbaa !68
  %86 = icmp eq ptr %85, null
  br i1 %86, label %88, label %87

87:                                               ; preds = %84
  tail call void @_ZdlPv(ptr noundef nonnull %85) #12
  br label %88

88:                                               ; preds = %87, %84
  %89 = getelementptr inbounds %"class.xalanc_1_8::NameSpace", ptr %19, i64 7
  %90 = getelementptr inbounds %"class.xalanc_1_8::NameSpace", ptr %19, i64 7, i32 1
  %91 = load ptr, ptr %90, align 8, !tbaa !68
  %92 = icmp eq ptr %91, null
  br i1 %92, label %94, label %93

93:                                               ; preds = %88
  tail call void @_ZdlPv(ptr noundef nonnull %91) #12
  br label %94

94:                                               ; preds = %93, %88
  %95 = load ptr, ptr %89, align 8, !tbaa !68
  %96 = icmp eq ptr %95, null
  br i1 %96, label %98, label %97

97:                                               ; preds = %94
  tail call void @_ZdlPv(ptr noundef nonnull %95) #12
  br label %98

98:                                               ; preds = %97, %94
  %99 = getelementptr inbounds ptr, ptr %18, i64 1
  %100 = load ptr, ptr %6, align 8, !tbaa !32
  %101 = icmp ult ptr %99, %100
  br i1 %101, label %17, label %10

102:                                              ; preds = %12
  %103 = getelementptr inbounds %"struct.std::_Deque_iterator.8", ptr %1, i64 0, i32 2
  %104 = load ptr, ptr %103, align 8, !tbaa !31
  %105 = icmp eq ptr %16, %104
  br i1 %105, label %119, label %106

106:                                              ; preds = %102, %116
  %107 = phi ptr [ %117, %116 ], [ %16, %102 ]
  %108 = getelementptr inbounds %"class.xalanc_1_8::NameSpace", ptr %107, i64 0, i32 1
  %109 = load ptr, ptr %108, align 8, !tbaa !68
  %110 = icmp eq ptr %109, null
  br i1 %110, label %112, label %111

111:                                              ; preds = %106
  tail call void @_ZdlPv(ptr noundef nonnull %109) #12
  br label %112

112:                                              ; preds = %111, %106
  %113 = load ptr, ptr %107, align 8, !tbaa !68
  %114 = icmp eq ptr %113, null
  br i1 %114, label %116, label %115

115:                                              ; preds = %112
  tail call void @_ZdlPv(ptr noundef nonnull %113) #12
  br label %116

116:                                              ; preds = %115, %112
  %117 = getelementptr inbounds %"class.xalanc_1_8::NameSpace", ptr %107, i64 1
  %118 = icmp eq ptr %117, %104
  br i1 %118, label %119, label %106

119:                                              ; preds = %116, %102
  %120 = getelementptr inbounds %"struct.std::_Deque_iterator.8", ptr %2, i64 0, i32 1
  %121 = load ptr, ptr %120, align 8, !tbaa !30
  %122 = load ptr, ptr %2, align 8, !tbaa !25
  %123 = icmp eq ptr %121, %122
  br i1 %123, label %153, label %124

124:                                              ; preds = %119, %134
  %125 = phi ptr [ %135, %134 ], [ %121, %119 ]
  %126 = getelementptr inbounds %"class.xalanc_1_8::NameSpace", ptr %125, i64 0, i32 1
  %127 = load ptr, ptr %126, align 8, !tbaa !68
  %128 = icmp eq ptr %127, null
  br i1 %128, label %130, label %129

129:                                              ; preds = %124
  tail call void @_ZdlPv(ptr noundef nonnull %127) #12
  br label %130

130:                                              ; preds = %129, %124
  %131 = load ptr, ptr %125, align 8, !tbaa !68
  %132 = icmp eq ptr %131, null
  br i1 %132, label %134, label %133

133:                                              ; preds = %130
  tail call void @_ZdlPv(ptr noundef nonnull %131) #12
  br label %134

134:                                              ; preds = %133, %130
  %135 = getelementptr inbounds %"class.xalanc_1_8::NameSpace", ptr %125, i64 1
  %136 = icmp eq ptr %135, %122
  br i1 %136, label %153, label %124

137:                                              ; preds = %12
  %138 = load ptr, ptr %2, align 8, !tbaa !25
  %139 = icmp eq ptr %16, %138
  br i1 %139, label %153, label %140

140:                                              ; preds = %137, %150
  %141 = phi ptr [ %151, %150 ], [ %16, %137 ]
  %142 = getelementptr inbounds %"class.xalanc_1_8::NameSpace", ptr %141, i64 0, i32 1
  %143 = load ptr, ptr %142, align 8, !tbaa !68
  %144 = icmp eq ptr %143, null
  br i1 %144, label %146, label %145

145:                                              ; preds = %140
  tail call void @_ZdlPv(ptr noundef nonnull %143) #12
  br label %146

146:                                              ; preds = %145, %140
  %147 = load ptr, ptr %141, align 8, !tbaa !68
  %148 = icmp eq ptr %147, null
  br i1 %148, label %150, label %149

149:                                              ; preds = %146
  tail call void @_ZdlPv(ptr noundef nonnull %147) #12
  br label %150

150:                                              ; preds = %149, %146
  %151 = getelementptr inbounds %"class.xalanc_1_8::NameSpace", ptr %141, i64 1
  %152 = icmp eq ptr %151, %138
  br i1 %152, label %153, label %140

153:                                              ; preds = %134, %150, %137, %119
  ret void
}

; Function Attrs: uwtable
define linkonce_odr dso_local void @_ZNSt5dequeIS_IN10xalanc_1_89NameSpaceESaIS1_EESaIS3_EE18_M_fill_initializeERKS3_(ptr noundef nonnull align 8 dereferenceable(80) %0, ptr noundef nonnull align 8 dereferenceable(80) %1) local_unnamed_addr #0 comdat align 2 personality ptr @__gxx_personality_v0 {
  %3 = alloca %"struct.std::_Deque_iterator.8", align 8
  %4 = alloca %"struct.std::_Deque_iterator.14", align 8
  %5 = alloca %"struct.std::_Deque_iterator.14", align 8
  %6 = alloca %"struct.std::_Deque_iterator.8", align 8
  %7 = alloca %"struct.std::_Deque_iterator.8", align 8
  %8 = alloca %"struct.std::_Deque_iterator.8", align 8
  %9 = getelementptr inbounds %"struct.std::_Deque_base<std::deque<xalanc_1_8::NameSpace>, std::allocator<std::deque<xalanc_1_8::NameSpace> > >::_Deque_impl", ptr %0, i64 0, i32 2
  %10 = getelementptr inbounds %"struct.std::_Deque_base<std::deque<xalanc_1_8::NameSpace>, std::allocator<std::deque<xalanc_1_8::NameSpace> > >::_Deque_impl", ptr %0, i64 0, i32 2, i32 3
  %11 = load ptr, ptr %10, align 8, !tbaa !52
  %12 = getelementptr inbounds %"struct.std::_Deque_base<std::deque<xalanc_1_8::NameSpace>, std::allocator<std::deque<xalanc_1_8::NameSpace> > >::_Deque_impl", ptr %0, i64 0, i32 3, i32 3
  %13 = load ptr, ptr %12, align 8, !tbaa !53
  %14 = icmp ult ptr %11, %13
  br i1 %14, label %15, label %378

15:                                               ; preds = %2
  %16 = getelementptr inbounds %"struct.std::_Deque_base<xalanc_1_8::NameSpace, std::allocator<xalanc_1_8::NameSpace> >::_Deque_impl", ptr %1, i64 0, i32 3
  %17 = getelementptr inbounds %"struct.std::_Deque_base<xalanc_1_8::NameSpace, std::allocator<xalanc_1_8::NameSpace> >::_Deque_impl", ptr %1, i64 0, i32 2
  %18 = getelementptr inbounds %"struct.std::_Deque_base<xalanc_1_8::NameSpace, std::allocator<xalanc_1_8::NameSpace> >::_Deque_impl", ptr %1, i64 0, i32 3, i32 3
  %19 = getelementptr inbounds %"struct.std::_Deque_base<xalanc_1_8::NameSpace, std::allocator<xalanc_1_8::NameSpace> >::_Deque_impl", ptr %1, i64 0, i32 2, i32 3
  %20 = getelementptr inbounds %"struct.std::_Deque_base<xalanc_1_8::NameSpace, std::allocator<xalanc_1_8::NameSpace> >::_Deque_impl", ptr %1, i64 0, i32 3, i32 1
  %21 = getelementptr inbounds %"struct.std::_Deque_base<xalanc_1_8::NameSpace, std::allocator<xalanc_1_8::NameSpace> >::_Deque_impl", ptr %1, i64 0, i32 2, i32 2
  %22 = getelementptr inbounds %"struct.std::_Deque_base<xalanc_1_8::NameSpace, std::allocator<xalanc_1_8::NameSpace> >::_Deque_impl", ptr %1, i64 0, i32 2, i32 1
  %23 = getelementptr inbounds %"struct.std::_Deque_base<xalanc_1_8::NameSpace, std::allocator<xalanc_1_8::NameSpace> >::_Deque_impl", ptr %1, i64 0, i32 3, i32 2
  %24 = getelementptr inbounds i8, ptr %4, i64 8
  %25 = getelementptr inbounds i8, ptr %4, i64 16
  %26 = getelementptr inbounds i8, ptr %4, i64 24
  %27 = getelementptr inbounds i8, ptr %5, i64 8
  %28 = getelementptr inbounds i8, ptr %5, i64 16
  %29 = getelementptr inbounds i8, ptr %5, i64 24
  %30 = getelementptr inbounds %"struct.std::_Deque_iterator.8", ptr %3, i64 0, i32 1
  %31 = getelementptr inbounds %"struct.std::_Deque_iterator.8", ptr %3, i64 0, i32 2
  %32 = getelementptr inbounds %"struct.std::_Deque_iterator.8", ptr %3, i64 0, i32 3
  br label %33

33:                                               ; preds = %15, %275
  %34 = phi ptr [ %11, %15 ], [ %276, %275 ]
  %35 = load ptr, ptr %34, align 8, !tbaa !42
  %36 = load ptr, ptr %18, align 8, !tbaa !32
  %37 = load ptr, ptr %19, align 8, !tbaa !32
  %38 = ptrtoint ptr %36 to i64
  %39 = ptrtoint ptr %37 to i64
  %40 = load ptr, ptr %16, align 8, !tbaa !25
  %41 = load ptr, ptr %20, align 8, !tbaa !30
  %42 = ptrtoint ptr %40 to i64
  %43 = ptrtoint ptr %41 to i64
  %44 = sub i64 %42, %43
  %45 = ashr exact i64 %44, 6
  %46 = load ptr, ptr %21, align 8, !tbaa !31
  %47 = load ptr, ptr %17, align 8, !tbaa !25
  %48 = ptrtoint ptr %46 to i64
  %49 = ptrtoint ptr %47 to i64
  %50 = sub i64 %48, %49
  %51 = ashr exact i64 %50, 6
  %52 = add i64 %38, -8
  %53 = sub i64 %52, %39
  %54 = add nsw i64 %53, %45
  %55 = add nsw i64 %54, %51
  call void @llvm.memset.p0.i64(ptr noundef nonnull align 8 dereferenceable(80) %35, i8 0, i64 80, i1 false)
  invoke void @_ZNSt11_Deque_baseIN10xalanc_1_89NameSpaceESaIS1_EE17_M_initialize_mapEm(ptr noundef nonnull align 8 dereferenceable(80) %35, i64 noundef %55)
          to label %56 unwind label %279

56:                                               ; preds = %33
  %57 = load ptr, ptr %17, align 8, !tbaa !25, !noalias !121
  %58 = load ptr, ptr %22, align 8, !tbaa !30, !noalias !121
  %59 = load ptr, ptr %21, align 8, !tbaa !31, !noalias !121
  %60 = load ptr, ptr %19, align 8, !tbaa !32, !noalias !121
  %61 = load ptr, ptr %16, align 8, !tbaa !25, !noalias !124
  %62 = load ptr, ptr %20, align 8, !tbaa !30, !noalias !124
  %63 = load ptr, ptr %23, align 8, !tbaa !31, !noalias !124
  %64 = load ptr, ptr %18, align 8, !tbaa !32, !noalias !124
  %65 = getelementptr inbounds %"struct.std::_Deque_base<xalanc_1_8::NameSpace, std::allocator<xalanc_1_8::NameSpace> >::_Deque_impl", ptr %35, i64 0, i32 2
  %66 = load ptr, ptr %65, align 8, !tbaa !25
  %67 = getelementptr inbounds %"struct.std::_Deque_base<xalanc_1_8::NameSpace, std::allocator<xalanc_1_8::NameSpace> >::_Deque_impl", ptr %35, i64 0, i32 2, i32 1
  %68 = load ptr, ptr %67, align 8, !tbaa !30
  %69 = getelementptr inbounds %"struct.std::_Deque_base<xalanc_1_8::NameSpace, std::allocator<xalanc_1_8::NameSpace> >::_Deque_impl", ptr %35, i64 0, i32 2, i32 2
  %70 = load ptr, ptr %69, align 8, !tbaa !31
  %71 = getelementptr inbounds %"struct.std::_Deque_base<xalanc_1_8::NameSpace, std::allocator<xalanc_1_8::NameSpace> >::_Deque_impl", ptr %35, i64 0, i32 2, i32 3
  %72 = load ptr, ptr %71, align 8, !tbaa !32
  call void @llvm.lifetime.start.p0(i64 32, ptr nonnull %6) #12
  call void @llvm.lifetime.start.p0(i64 32, ptr nonnull %5)
  call void @llvm.lifetime.start.p0(i64 32, ptr nonnull %4)
  store ptr %61, ptr %4, align 8
  store ptr %62, ptr %24, align 8
  store ptr %63, ptr %25, align 8
  store ptr %64, ptr %26, align 8
  store ptr %57, ptr %5, align 8
  store ptr %58, ptr %27, align 8
  store ptr %59, ptr %28, align 8
  store ptr %60, ptr %29, align 8
  call void @llvm.lifetime.start.p0(i64 32, ptr nonnull %3), !noalias !127
  store ptr %66, ptr %3, align 8, !tbaa !25, !noalias !130
  store ptr %68, ptr %30, align 8, !tbaa !30, !noalias !130
  store ptr %70, ptr %31, align 8, !tbaa !31, !noalias !130
  store ptr %72, ptr %32, align 8, !tbaa !32, !noalias !130
  invoke void @_ZNSt20__uninitialized_copyILb0EE13__uninit_copyISt15_Deque_iteratorIN10xalanc_1_89NameSpaceERKS4_PS5_ES2_IS4_RS4_PS4_EEET0_T_SD_SC_(ptr nonnull sret(%"struct.std::_Deque_iterator.8") align 8 %6, ptr noundef nonnull byval(%"struct.std::_Deque_iterator.14") align 8 %5, ptr noundef nonnull byval(%"struct.std::_Deque_iterator.14") align 8 %4, ptr noundef nonnull %3)
          to label %80 unwind label %73

73:                                               ; preds = %258, %219, %180, %141, %102, %56
  %74 = phi i64 [ 0, %56 ], [ 1, %102 ], [ 2, %141 ], [ 3, %180 ], [ 4, %219 ], [ 5, %258 ]
  %75 = phi ptr [ %35, %56 ], [ %81, %102 ], [ %120, %141 ], [ %159, %180 ], [ %198, %219 ], [ %237, %258 ]
  %76 = landingpad { ptr, i32 }
          catch ptr null
  call void @llvm.lifetime.end.p0(i64 32, ptr nonnull %6) #12
  invoke void @_ZNSt11_Deque_baseIN10xalanc_1_89NameSpaceESaIS1_EED2Ev(ptr noundef nonnull align 8 dereferenceable(80) %75)
          to label %283 unwind label %77

77:                                               ; preds = %73
  %78 = landingpad { ptr, i32 }
          catch ptr null
  %79 = extractvalue { ptr, i32 } %78, 0
  call void @__clang_call_terminate(ptr %79) #13
  unreachable

80:                                               ; preds = %56
  call void @llvm.lifetime.end.p0(i64 32, ptr nonnull %3), !noalias !127
  call void @llvm.lifetime.end.p0(i64 32, ptr nonnull %5)
  call void @llvm.lifetime.end.p0(i64 32, ptr nonnull %4)
  call void @llvm.lifetime.end.p0(i64 32, ptr nonnull %6) #12
  %81 = getelementptr inbounds %"class.std::deque.3", ptr %35, i64 1
  %82 = load ptr, ptr %18, align 8, !tbaa !32
  %83 = load ptr, ptr %19, align 8, !tbaa !32
  %84 = ptrtoint ptr %82 to i64
  %85 = ptrtoint ptr %83 to i64
  %86 = load ptr, ptr %16, align 8, !tbaa !25
  %87 = load ptr, ptr %20, align 8, !tbaa !30
  %88 = ptrtoint ptr %86 to i64
  %89 = ptrtoint ptr %87 to i64
  %90 = sub i64 %88, %89
  %91 = ashr exact i64 %90, 6
  %92 = load ptr, ptr %21, align 8, !tbaa !31
  %93 = load ptr, ptr %17, align 8, !tbaa !25
  %94 = ptrtoint ptr %92 to i64
  %95 = ptrtoint ptr %93 to i64
  %96 = sub i64 %94, %95
  %97 = ashr exact i64 %96, 6
  %98 = add i64 %84, -8
  %99 = sub i64 %98, %85
  %100 = add nsw i64 %99, %91
  %101 = add nsw i64 %100, %97
  call void @llvm.memset.p0.i64(ptr noundef nonnull align 8 dereferenceable(80) %81, i8 0, i64 80, i1 false)
  invoke void @_ZNSt11_Deque_baseIN10xalanc_1_89NameSpaceESaIS1_EE17_M_initialize_mapEm(ptr noundef nonnull align 8 dereferenceable(80) %81, i64 noundef %101)
          to label %102 unwind label %279

102:                                              ; preds = %80
  %103 = load ptr, ptr %17, align 8, !tbaa !25, !noalias !121
  %104 = load ptr, ptr %22, align 8, !tbaa !30, !noalias !121
  %105 = load ptr, ptr %21, align 8, !tbaa !31, !noalias !121
  %106 = load ptr, ptr %19, align 8, !tbaa !32, !noalias !121
  %107 = load ptr, ptr %16, align 8, !tbaa !25, !noalias !124
  %108 = load ptr, ptr %20, align 8, !tbaa !30, !noalias !124
  %109 = load ptr, ptr %23, align 8, !tbaa !31, !noalias !124
  %110 = load ptr, ptr %18, align 8, !tbaa !32, !noalias !124
  %111 = getelementptr inbounds %"class.std::deque.3", ptr %35, i64 1, i32 0, i32 0, i32 2
  %112 = load ptr, ptr %111, align 8, !tbaa !25
  %113 = getelementptr inbounds %"class.std::deque.3", ptr %35, i64 1, i32 0, i32 0, i32 2, i32 1
  %114 = load ptr, ptr %113, align 8, !tbaa !30
  %115 = getelementptr inbounds %"class.std::deque.3", ptr %35, i64 1, i32 0, i32 0, i32 2, i32 2
  %116 = load ptr, ptr %115, align 8, !tbaa !31
  %117 = getelementptr inbounds %"class.std::deque.3", ptr %35, i64 1, i32 0, i32 0, i32 2, i32 3
  %118 = load ptr, ptr %117, align 8, !tbaa !32
  call void @llvm.lifetime.start.p0(i64 32, ptr nonnull %6) #12
  call void @llvm.lifetime.start.p0(i64 32, ptr nonnull %5)
  call void @llvm.lifetime.start.p0(i64 32, ptr nonnull %4)
  store ptr %107, ptr %4, align 8
  store ptr %108, ptr %24, align 8
  store ptr %109, ptr %25, align 8
  store ptr %110, ptr %26, align 8
  store ptr %103, ptr %5, align 8
  store ptr %104, ptr %27, align 8
  store ptr %105, ptr %28, align 8
  store ptr %106, ptr %29, align 8
  call void @llvm.lifetime.start.p0(i64 32, ptr nonnull %3), !noalias !127
  store ptr %112, ptr %3, align 8, !tbaa !25, !noalias !130
  store ptr %114, ptr %30, align 8, !tbaa !30, !noalias !130
  store ptr %116, ptr %31, align 8, !tbaa !31, !noalias !130
  store ptr %118, ptr %32, align 8, !tbaa !32, !noalias !130
  invoke void @_ZNSt20__uninitialized_copyILb0EE13__uninit_copyISt15_Deque_iteratorIN10xalanc_1_89NameSpaceERKS4_PS5_ES2_IS4_RS4_PS4_EEET0_T_SD_SC_(ptr nonnull sret(%"struct.std::_Deque_iterator.8") align 8 %6, ptr noundef nonnull byval(%"struct.std::_Deque_iterator.14") align 8 %5, ptr noundef nonnull byval(%"struct.std::_Deque_iterator.14") align 8 %4, ptr noundef nonnull %3)
          to label %119 unwind label %73

119:                                              ; preds = %102
  call void @llvm.lifetime.end.p0(i64 32, ptr nonnull %3), !noalias !127
  call void @llvm.lifetime.end.p0(i64 32, ptr nonnull %5)
  call void @llvm.lifetime.end.p0(i64 32, ptr nonnull %4)
  call void @llvm.lifetime.end.p0(i64 32, ptr nonnull %6) #12
  %120 = getelementptr inbounds %"class.std::deque.3", ptr %35, i64 2
  %121 = load ptr, ptr %18, align 8, !tbaa !32
  %122 = load ptr, ptr %19, align 8, !tbaa !32
  %123 = ptrtoint ptr %121 to i64
  %124 = ptrtoint ptr %122 to i64
  %125 = load ptr, ptr %16, align 8, !tbaa !25
  %126 = load ptr, ptr %20, align 8, !tbaa !30
  %127 = ptrtoint ptr %125 to i64
  %128 = ptrtoint ptr %126 to i64
  %129 = sub i64 %127, %128
  %130 = ashr exact i64 %129, 6
  %131 = load ptr, ptr %21, align 8, !tbaa !31
  %132 = load ptr, ptr %17, align 8, !tbaa !25
  %133 = ptrtoint ptr %131 to i64
  %134 = ptrtoint ptr %132 to i64
  %135 = sub i64 %133, %134
  %136 = ashr exact i64 %135, 6
  %137 = add i64 %123, -8
  %138 = sub i64 %137, %124
  %139 = add nsw i64 %138, %130
  %140 = add nsw i64 %139, %136
  call void @llvm.memset.p0.i64(ptr noundef nonnull align 8 dereferenceable(80) %120, i8 0, i64 80, i1 false)
  invoke void @_ZNSt11_Deque_baseIN10xalanc_1_89NameSpaceESaIS1_EE17_M_initialize_mapEm(ptr noundef nonnull align 8 dereferenceable(80) %120, i64 noundef %140)
          to label %141 unwind label %279

141:                                              ; preds = %119
  %142 = load ptr, ptr %17, align 8, !tbaa !25, !noalias !121
  %143 = load ptr, ptr %22, align 8, !tbaa !30, !noalias !121
  %144 = load ptr, ptr %21, align 8, !tbaa !31, !noalias !121
  %145 = load ptr, ptr %19, align 8, !tbaa !32, !noalias !121
  %146 = load ptr, ptr %16, align 8, !tbaa !25, !noalias !124
  %147 = load ptr, ptr %20, align 8, !tbaa !30, !noalias !124
  %148 = load ptr, ptr %23, align 8, !tbaa !31, !noalias !124
  %149 = load ptr, ptr %18, align 8, !tbaa !32, !noalias !124
  %150 = getelementptr inbounds %"class.std::deque.3", ptr %35, i64 2, i32 0, i32 0, i32 2
  %151 = load ptr, ptr %150, align 8, !tbaa !25
  %152 = getelementptr inbounds %"class.std::deque.3", ptr %35, i64 2, i32 0, i32 0, i32 2, i32 1
  %153 = load ptr, ptr %152, align 8, !tbaa !30
  %154 = getelementptr inbounds %"class.std::deque.3", ptr %35, i64 2, i32 0, i32 0, i32 2, i32 2
  %155 = load ptr, ptr %154, align 8, !tbaa !31
  %156 = getelementptr inbounds %"class.std::deque.3", ptr %35, i64 2, i32 0, i32 0, i32 2, i32 3
  %157 = load ptr, ptr %156, align 8, !tbaa !32
  call void @llvm.lifetime.start.p0(i64 32, ptr nonnull %6) #12
  call void @llvm.lifetime.start.p0(i64 32, ptr nonnull %5)
  call void @llvm.lifetime.start.p0(i64 32, ptr nonnull %4)
  store ptr %146, ptr %4, align 8
  store ptr %147, ptr %24, align 8
  store ptr %148, ptr %25, align 8
  store ptr %149, ptr %26, align 8
  store ptr %142, ptr %5, align 8
  store ptr %143, ptr %27, align 8
  store ptr %144, ptr %28, align 8
  store ptr %145, ptr %29, align 8
  call void @llvm.lifetime.start.p0(i64 32, ptr nonnull %3), !noalias !127
  store ptr %151, ptr %3, align 8, !tbaa !25, !noalias !130
  store ptr %153, ptr %30, align 8, !tbaa !30, !noalias !130
  store ptr %155, ptr %31, align 8, !tbaa !31, !noalias !130
  store ptr %157, ptr %32, align 8, !tbaa !32, !noalias !130
  invoke void @_ZNSt20__uninitialized_copyILb0EE13__uninit_copyISt15_Deque_iteratorIN10xalanc_1_89NameSpaceERKS4_PS5_ES2_IS4_RS4_PS4_EEET0_T_SD_SC_(ptr nonnull sret(%"struct.std::_Deque_iterator.8") align 8 %6, ptr noundef nonnull byval(%"struct.std::_Deque_iterator.14") align 8 %5, ptr noundef nonnull byval(%"struct.std::_Deque_iterator.14") align 8 %4, ptr noundef nonnull %3)
          to label %158 unwind label %73

158:                                              ; preds = %141
  call void @llvm.lifetime.end.p0(i64 32, ptr nonnull %3), !noalias !127
  call void @llvm.lifetime.end.p0(i64 32, ptr nonnull %5)
  call void @llvm.lifetime.end.p0(i64 32, ptr nonnull %4)
  call void @llvm.lifetime.end.p0(i64 32, ptr nonnull %6) #12
  %159 = getelementptr inbounds %"class.std::deque.3", ptr %35, i64 3
  %160 = load ptr, ptr %18, align 8, !tbaa !32
  %161 = load ptr, ptr %19, align 8, !tbaa !32
  %162 = ptrtoint ptr %160 to i64
  %163 = ptrtoint ptr %161 to i64
  %164 = load ptr, ptr %16, align 8, !tbaa !25
  %165 = load ptr, ptr %20, align 8, !tbaa !30
  %166 = ptrtoint ptr %164 to i64
  %167 = ptrtoint ptr %165 to i64
  %168 = sub i64 %166, %167
  %169 = ashr exact i64 %168, 6
  %170 = load ptr, ptr %21, align 8, !tbaa !31
  %171 = load ptr, ptr %17, align 8, !tbaa !25
  %172 = ptrtoint ptr %170 to i64
  %173 = ptrtoint ptr %171 to i64
  %174 = sub i64 %172, %173
  %175 = ashr exact i64 %174, 6
  %176 = add i64 %162, -8
  %177 = sub i64 %176, %163
  %178 = add nsw i64 %177, %169
  %179 = add nsw i64 %178, %175
  call void @llvm.memset.p0.i64(ptr noundef nonnull align 8 dereferenceable(80) %159, i8 0, i64 80, i1 false)
  invoke void @_ZNSt11_Deque_baseIN10xalanc_1_89NameSpaceESaIS1_EE17_M_initialize_mapEm(ptr noundef nonnull align 8 dereferenceable(80) %159, i64 noundef %179)
          to label %180 unwind label %279

180:                                              ; preds = %158
  %181 = load ptr, ptr %17, align 8, !tbaa !25, !noalias !121
  %182 = load ptr, ptr %22, align 8, !tbaa !30, !noalias !121
  %183 = load ptr, ptr %21, align 8, !tbaa !31, !noalias !121
  %184 = load ptr, ptr %19, align 8, !tbaa !32, !noalias !121
  %185 = load ptr, ptr %16, align 8, !tbaa !25, !noalias !124
  %186 = load ptr, ptr %20, align 8, !tbaa !30, !noalias !124
  %187 = load ptr, ptr %23, align 8, !tbaa !31, !noalias !124
  %188 = load ptr, ptr %18, align 8, !tbaa !32, !noalias !124
  %189 = getelementptr inbounds %"class.std::deque.3", ptr %35, i64 3, i32 0, i32 0, i32 2
  %190 = load ptr, ptr %189, align 8, !tbaa !25
  %191 = getelementptr inbounds %"class.std::deque.3", ptr %35, i64 3, i32 0, i32 0, i32 2, i32 1
  %192 = load ptr, ptr %191, align 8, !tbaa !30
  %193 = getelementptr inbounds %"class.std::deque.3", ptr %35, i64 3, i32 0, i32 0, i32 2, i32 2
  %194 = load ptr, ptr %193, align 8, !tbaa !31
  %195 = getelementptr inbounds %"class.std::deque.3", ptr %35, i64 3, i32 0, i32 0, i32 2, i32 3
  %196 = load ptr, ptr %195, align 8, !tbaa !32
  call void @llvm.lifetime.start.p0(i64 32, ptr nonnull %6) #12
  call void @llvm.lifetime.start.p0(i64 32, ptr nonnull %5)
  call void @llvm.lifetime.start.p0(i64 32, ptr nonnull %4)
  store ptr %185, ptr %4, align 8
  store ptr %186, ptr %24, align 8
  store ptr %187, ptr %25, align 8
  store ptr %188, ptr %26, align 8
  store ptr %181, ptr %5, align 8
  store ptr %182, ptr %27, align 8
  store ptr %183, ptr %28, align 8
  store ptr %184, ptr %29, align 8
  call void @llvm.lifetime.start.p0(i64 32, ptr nonnull %3), !noalias !127
  store ptr %190, ptr %3, align 8, !tbaa !25, !noalias !130
  store ptr %192, ptr %30, align 8, !tbaa !30, !noalias !130
  store ptr %194, ptr %31, align 8, !tbaa !31, !noalias !130
  store ptr %196, ptr %32, align 8, !tbaa !32, !noalias !130
  invoke void @_ZNSt20__uninitialized_copyILb0EE13__uninit_copyISt15_Deque_iteratorIN10xalanc_1_89NameSpaceERKS4_PS5_ES2_IS4_RS4_PS4_EEET0_T_SD_SC_(ptr nonnull sret(%"struct.std::_Deque_iterator.8") align 8 %6, ptr noundef nonnull byval(%"struct.std::_Deque_iterator.14") align 8 %5, ptr noundef nonnull byval(%"struct.std::_Deque_iterator.14") align 8 %4, ptr noundef nonnull %3)
          to label %197 unwind label %73

197:                                              ; preds = %180
  call void @llvm.lifetime.end.p0(i64 32, ptr nonnull %3), !noalias !127
  call void @llvm.lifetime.end.p0(i64 32, ptr nonnull %5)
  call void @llvm.lifetime.end.p0(i64 32, ptr nonnull %4)
  call void @llvm.lifetime.end.p0(i64 32, ptr nonnull %6) #12
  %198 = getelementptr inbounds %"class.std::deque.3", ptr %35, i64 4
  %199 = load ptr, ptr %18, align 8, !tbaa !32
  %200 = load ptr, ptr %19, align 8, !tbaa !32
  %201 = ptrtoint ptr %199 to i64
  %202 = ptrtoint ptr %200 to i64
  %203 = load ptr, ptr %16, align 8, !tbaa !25
  %204 = load ptr, ptr %20, align 8, !tbaa !30
  %205 = ptrtoint ptr %203 to i64
  %206 = ptrtoint ptr %204 to i64
  %207 = sub i64 %205, %206
  %208 = ashr exact i64 %207, 6
  %209 = load ptr, ptr %21, align 8, !tbaa !31
  %210 = load ptr, ptr %17, align 8, !tbaa !25
  %211 = ptrtoint ptr %209 to i64
  %212 = ptrtoint ptr %210 to i64
  %213 = sub i64 %211, %212
  %214 = ashr exact i64 %213, 6
  %215 = add i64 %201, -8
  %216 = sub i64 %215, %202
  %217 = add nsw i64 %216, %208
  %218 = add nsw i64 %217, %214
  call void @llvm.memset.p0.i64(ptr noundef nonnull align 8 dereferenceable(80) %198, i8 0, i64 80, i1 false)
  invoke void @_ZNSt11_Deque_baseIN10xalanc_1_89NameSpaceESaIS1_EE17_M_initialize_mapEm(ptr noundef nonnull align 8 dereferenceable(80) %198, i64 noundef %218)
          to label %219 unwind label %279

219:                                              ; preds = %197
  %220 = load ptr, ptr %17, align 8, !tbaa !25, !noalias !121
  %221 = load ptr, ptr %22, align 8, !tbaa !30, !noalias !121
  %222 = load ptr, ptr %21, align 8, !tbaa !31, !noalias !121
  %223 = load ptr, ptr %19, align 8, !tbaa !32, !noalias !121
  %224 = load ptr, ptr %16, align 8, !tbaa !25, !noalias !124
  %225 = load ptr, ptr %20, align 8, !tbaa !30, !noalias !124
  %226 = load ptr, ptr %23, align 8, !tbaa !31, !noalias !124
  %227 = load ptr, ptr %18, align 8, !tbaa !32, !noalias !124
  %228 = getelementptr inbounds %"class.std::deque.3", ptr %35, i64 4, i32 0, i32 0, i32 2
  %229 = load ptr, ptr %228, align 8, !tbaa !25
  %230 = getelementptr inbounds %"class.std::deque.3", ptr %35, i64 4, i32 0, i32 0, i32 2, i32 1
  %231 = load ptr, ptr %230, align 8, !tbaa !30
  %232 = getelementptr inbounds %"class.std::deque.3", ptr %35, i64 4, i32 0, i32 0, i32 2, i32 2
  %233 = load ptr, ptr %232, align 8, !tbaa !31
  %234 = getelementptr inbounds %"class.std::deque.3", ptr %35, i64 4, i32 0, i32 0, i32 2, i32 3
  %235 = load ptr, ptr %234, align 8, !tbaa !32
  call void @llvm.lifetime.start.p0(i64 32, ptr nonnull %6) #12
  call void @llvm.lifetime.start.p0(i64 32, ptr nonnull %5)
  call void @llvm.lifetime.start.p0(i64 32, ptr nonnull %4)
  store ptr %224, ptr %4, align 8
  store ptr %225, ptr %24, align 8
  store ptr %226, ptr %25, align 8
  store ptr %227, ptr %26, align 8
  store ptr %220, ptr %5, align 8
  store ptr %221, ptr %27, align 8
  store ptr %222, ptr %28, align 8
  store ptr %223, ptr %29, align 8
  call void @llvm.lifetime.start.p0(i64 32, ptr nonnull %3), !noalias !127
  store ptr %229, ptr %3, align 8, !tbaa !25, !noalias !130
  store ptr %231, ptr %30, align 8, !tbaa !30, !noalias !130
  store ptr %233, ptr %31, align 8, !tbaa !31, !noalias !130
  store ptr %235, ptr %32, align 8, !tbaa !32, !noalias !130
  invoke void @_ZNSt20__uninitialized_copyILb0EE13__uninit_copyISt15_Deque_iteratorIN10xalanc_1_89NameSpaceERKS4_PS5_ES2_IS4_RS4_PS4_EEET0_T_SD_SC_(ptr nonnull sret(%"struct.std::_Deque_iterator.8") align 8 %6, ptr noundef nonnull byval(%"struct.std::_Deque_iterator.14") align 8 %5, ptr noundef nonnull byval(%"struct.std::_Deque_iterator.14") align 8 %4, ptr noundef nonnull %3)
          to label %236 unwind label %73

236:                                              ; preds = %219
  call void @llvm.lifetime.end.p0(i64 32, ptr nonnull %3), !noalias !127
  call void @llvm.lifetime.end.p0(i64 32, ptr nonnull %5)
  call void @llvm.lifetime.end.p0(i64 32, ptr nonnull %4)
  call void @llvm.lifetime.end.p0(i64 32, ptr nonnull %6) #12
  %237 = getelementptr inbounds %"class.std::deque.3", ptr %35, i64 5
  %238 = load ptr, ptr %18, align 8, !tbaa !32
  %239 = load ptr, ptr %19, align 8, !tbaa !32
  %240 = ptrtoint ptr %238 to i64
  %241 = ptrtoint ptr %239 to i64
  %242 = load ptr, ptr %16, align 8, !tbaa !25
  %243 = load ptr, ptr %20, align 8, !tbaa !30
  %244 = ptrtoint ptr %242 to i64
  %245 = ptrtoint ptr %243 to i64
  %246 = sub i64 %244, %245
  %247 = ashr exact i64 %246, 6
  %248 = load ptr, ptr %21, align 8, !tbaa !31
  %249 = load ptr, ptr %17, align 8, !tbaa !25
  %250 = ptrtoint ptr %248 to i64
  %251 = ptrtoint ptr %249 to i64
  %252 = sub i64 %250, %251
  %253 = ashr exact i64 %252, 6
  %254 = add i64 %240, -8
  %255 = sub i64 %254, %241
  %256 = add nsw i64 %255, %247
  %257 = add nsw i64 %256, %253
  call void @llvm.memset.p0.i64(ptr noundef nonnull align 8 dereferenceable(80) %237, i8 0, i64 80, i1 false)
  invoke void @_ZNSt11_Deque_baseIN10xalanc_1_89NameSpaceESaIS1_EE17_M_initialize_mapEm(ptr noundef nonnull align 8 dereferenceable(80) %237, i64 noundef %257)
          to label %258 unwind label %279

258:                                              ; preds = %236
  %259 = load ptr, ptr %17, align 8, !tbaa !25, !noalias !121
  %260 = load ptr, ptr %22, align 8, !tbaa !30, !noalias !121
  %261 = load ptr, ptr %21, align 8, !tbaa !31, !noalias !121
  %262 = load ptr, ptr %19, align 8, !tbaa !32, !noalias !121
  %263 = load ptr, ptr %16, align 8, !tbaa !25, !noalias !124
  %264 = load ptr, ptr %20, align 8, !tbaa !30, !noalias !124
  %265 = load ptr, ptr %23, align 8, !tbaa !31, !noalias !124
  %266 = load ptr, ptr %18, align 8, !tbaa !32, !noalias !124
  %267 = getelementptr inbounds %"class.std::deque.3", ptr %35, i64 5, i32 0, i32 0, i32 2
  %268 = load ptr, ptr %267, align 8, !tbaa !25
  %269 = getelementptr inbounds %"class.std::deque.3", ptr %35, i64 5, i32 0, i32 0, i32 2, i32 1
  %270 = load ptr, ptr %269, align 8, !tbaa !30
  %271 = getelementptr inbounds %"class.std::deque.3", ptr %35, i64 5, i32 0, i32 0, i32 2, i32 2
  %272 = load ptr, ptr %271, align 8, !tbaa !31
  %273 = getelementptr inbounds %"class.std::deque.3", ptr %35, i64 5, i32 0, i32 0, i32 2, i32 3
  %274 = load ptr, ptr %273, align 8, !tbaa !32
  call void @llvm.lifetime.start.p0(i64 32, ptr nonnull %6) #12
  call void @llvm.lifetime.start.p0(i64 32, ptr nonnull %5)
  call void @llvm.lifetime.start.p0(i64 32, ptr nonnull %4)
  store ptr %263, ptr %4, align 8
  store ptr %264, ptr %24, align 8
  store ptr %265, ptr %25, align 8
  store ptr %266, ptr %26, align 8
  store ptr %259, ptr %5, align 8
  store ptr %260, ptr %27, align 8
  store ptr %261, ptr %28, align 8
  store ptr %262, ptr %29, align 8
  call void @llvm.lifetime.start.p0(i64 32, ptr nonnull %3), !noalias !127
  store ptr %268, ptr %3, align 8, !tbaa !25, !noalias !130
  store ptr %270, ptr %30, align 8, !tbaa !30, !noalias !130
  store ptr %272, ptr %31, align 8, !tbaa !31, !noalias !130
  store ptr %274, ptr %32, align 8, !tbaa !32, !noalias !130
  invoke void @_ZNSt20__uninitialized_copyILb0EE13__uninit_copyISt15_Deque_iteratorIN10xalanc_1_89NameSpaceERKS4_PS5_ES2_IS4_RS4_PS4_EEET0_T_SD_SC_(ptr nonnull sret(%"struct.std::_Deque_iterator.8") align 8 %6, ptr noundef nonnull byval(%"struct.std::_Deque_iterator.14") align 8 %5, ptr noundef nonnull byval(%"struct.std::_Deque_iterator.14") align 8 %4, ptr noundef nonnull %3)
          to label %275 unwind label %73

275:                                              ; preds = %258
  call void @llvm.lifetime.end.p0(i64 32, ptr nonnull %3), !noalias !127
  call void @llvm.lifetime.end.p0(i64 32, ptr nonnull %5)
  call void @llvm.lifetime.end.p0(i64 32, ptr nonnull %4)
  call void @llvm.lifetime.end.p0(i64 32, ptr nonnull %6) #12
  %276 = getelementptr inbounds ptr, ptr %34, i64 1
  %277 = load ptr, ptr %12, align 8, !tbaa !53
  %278 = icmp ult ptr %276, %277
  br i1 %278, label %33, label %378

279:                                              ; preds = %236, %197, %158, %119, %80, %33
  %280 = phi i64 [ 0, %33 ], [ 1, %80 ], [ 2, %119 ], [ 3, %158 ], [ 4, %197 ], [ 5, %236 ]
  %281 = phi ptr [ %35, %33 ], [ %81, %80 ], [ %120, %119 ], [ %159, %158 ], [ %198, %197 ], [ %237, %236 ]
  %282 = landingpad { ptr, i32 }
          catch ptr null
  br label %283

283:                                              ; preds = %73, %279
  %284 = phi i64 [ %280, %279 ], [ %74, %73 ]
  %285 = phi ptr [ %281, %279 ], [ %75, %73 ]
  %286 = phi { ptr, i32 } [ %282, %279 ], [ %76, %73 ]
  %287 = extractvalue { ptr, i32 } %286, 0
  %288 = call ptr @__cxa_begin_catch(ptr %287) #12
  %289 = icmp eq i64 %284, 0
  br i1 %289, label %340, label %290

290:                                              ; preds = %283
  %291 = getelementptr inbounds %"struct.std::_Deque_iterator.8", ptr %7, i64 0, i32 1
  %292 = getelementptr inbounds %"struct.std::_Deque_iterator.8", ptr %7, i64 0, i32 2
  %293 = getelementptr inbounds %"struct.std::_Deque_iterator.8", ptr %7, i64 0, i32 3
  %294 = getelementptr inbounds %"struct.std::_Deque_iterator.8", ptr %8, i64 0, i32 1
  %295 = getelementptr inbounds %"struct.std::_Deque_iterator.8", ptr %8, i64 0, i32 2
  %296 = getelementptr inbounds %"struct.std::_Deque_iterator.8", ptr %8, i64 0, i32 3
  br label %297

297:                                              ; preds = %290, %337
  %298 = phi ptr [ %338, %337 ], [ %35, %290 ]
  %299 = getelementptr inbounds %"struct.std::_Deque_base<xalanc_1_8::NameSpace, std::allocator<xalanc_1_8::NameSpace> >::_Deque_impl", ptr %298, i64 0, i32 2
  %300 = load ptr, ptr %299, align 8, !tbaa !25, !noalias !133
  %301 = getelementptr inbounds %"struct.std::_Deque_base<xalanc_1_8::NameSpace, std::allocator<xalanc_1_8::NameSpace> >::_Deque_impl", ptr %298, i64 0, i32 2, i32 1
  %302 = load ptr, ptr %301, align 8, !tbaa !30, !noalias !133
  %303 = getelementptr inbounds %"struct.std::_Deque_base<xalanc_1_8::NameSpace, std::allocator<xalanc_1_8::NameSpace> >::_Deque_impl", ptr %298, i64 0, i32 2, i32 2
  %304 = load ptr, ptr %303, align 8, !tbaa !31, !noalias !133
  %305 = getelementptr inbounds %"struct.std::_Deque_base<xalanc_1_8::NameSpace, std::allocator<xalanc_1_8::NameSpace> >::_Deque_impl", ptr %298, i64 0, i32 2, i32 3
  %306 = load ptr, ptr %305, align 8, !tbaa !32, !noalias !133
  %307 = getelementptr inbounds %"struct.std::_Deque_base<xalanc_1_8::NameSpace, std::allocator<xalanc_1_8::NameSpace> >::_Deque_impl", ptr %298, i64 0, i32 3
  %308 = load ptr, ptr %307, align 8, !tbaa !25, !noalias !136
  %309 = getelementptr inbounds %"struct.std::_Deque_base<xalanc_1_8::NameSpace, std::allocator<xalanc_1_8::NameSpace> >::_Deque_impl", ptr %298, i64 0, i32 3, i32 1
  %310 = load ptr, ptr %309, align 8, !tbaa !30, !noalias !136
  %311 = getelementptr inbounds %"struct.std::_Deque_base<xalanc_1_8::NameSpace, std::allocator<xalanc_1_8::NameSpace> >::_Deque_impl", ptr %298, i64 0, i32 3, i32 2
  %312 = load ptr, ptr %311, align 8, !tbaa !31, !noalias !136
  %313 = getelementptr inbounds %"struct.std::_Deque_base<xalanc_1_8::NameSpace, std::allocator<xalanc_1_8::NameSpace> >::_Deque_impl", ptr %298, i64 0, i32 3, i32 3
  %314 = load ptr, ptr %313, align 8, !tbaa !32, !noalias !136
  call void @llvm.lifetime.start.p0(i64 32, ptr nonnull %7)
  call void @llvm.lifetime.start.p0(i64 32, ptr nonnull %8)
  store ptr %300, ptr %7, align 8, !tbaa !25
  store ptr %302, ptr %291, align 8, !tbaa !30
  store ptr %304, ptr %292, align 8, !tbaa !31
  store ptr %306, ptr %293, align 8, !tbaa !32
  store ptr %308, ptr %8, align 8, !tbaa !25
  store ptr %310, ptr %294, align 8, !tbaa !30
  store ptr %312, ptr %295, align 8, !tbaa !31
  store ptr %314, ptr %296, align 8, !tbaa !32
  invoke void @_ZNSt5dequeIN10xalanc_1_89NameSpaceESaIS1_EE19_M_destroy_data_auxESt15_Deque_iteratorIS1_RS1_PS1_ES7_(ptr noundef nonnull align 8 dereferenceable(80) %298, ptr noundef nonnull %7, ptr noundef nonnull %8)
          to label %315 unwind label %332

315:                                              ; preds = %297
  call void @llvm.lifetime.end.p0(i64 32, ptr nonnull %7)
  call void @llvm.lifetime.end.p0(i64 32, ptr nonnull %8)
  %316 = load ptr, ptr %298, align 8, !tbaa !36
  %317 = icmp eq ptr %316, null
  br i1 %317, label %337, label %318

318:                                              ; preds = %315
  %319 = load ptr, ptr %305, align 8, !tbaa !40
  %320 = load ptr, ptr %313, align 8, !tbaa !41
  %321 = getelementptr inbounds ptr, ptr %320, i64 1
  %322 = icmp ult ptr %319, %321
  br i1 %322, label %323, label %330

323:                                              ; preds = %318, %323
  %324 = phi ptr [ %326, %323 ], [ %319, %318 ]
  %325 = load ptr, ptr %324, align 8, !tbaa !42
  call void @_ZdlPv(ptr noundef %325) #12
  %326 = getelementptr inbounds ptr, ptr %324, i64 1
  %327 = icmp ult ptr %324, %320
  br i1 %327, label %323, label %328

328:                                              ; preds = %323
  %329 = load ptr, ptr %298, align 8, !tbaa !36
  br label %330

330:                                              ; preds = %328, %318
  %331 = phi ptr [ %329, %328 ], [ %316, %318 ]
  call void @_ZdlPv(ptr noundef %331) #12
  br label %337

332:                                              ; preds = %297
  %333 = landingpad { ptr, i32 }
          catch ptr null
  invoke void @_ZNSt11_Deque_baseIN10xalanc_1_89NameSpaceESaIS1_EED2Ev(ptr noundef nonnull align 8 dereferenceable(80) %298)
          to label %343 unwind label %334

334:                                              ; preds = %332
  %335 = landingpad { ptr, i32 }
          catch ptr null
  %336 = extractvalue { ptr, i32 } %335, 0
  call void @__clang_call_terminate(ptr %336) #13
  unreachable

337:                                              ; preds = %330, %315
  %338 = getelementptr inbounds %"class.std::deque.3", ptr %298, i64 1
  %339 = icmp eq ptr %338, %285
  br i1 %339, label %340, label %297

340:                                              ; preds = %337, %283
  invoke void @__cxa_rethrow() #14
          to label %348 unwind label %341

341:                                              ; preds = %340
  %342 = landingpad { ptr, i32 }
          catch ptr null
  br label %343

343:                                              ; preds = %332, %341
  %344 = phi { ptr, i32 } [ %342, %341 ], [ %333, %332 ]
  invoke void @__cxa_end_catch()
          to label %349 unwind label %345

345:                                              ; preds = %343
  %346 = landingpad { ptr, i32 }
          catch ptr null
  %347 = extractvalue { ptr, i32 } %346, 0
  call void @__clang_call_terminate(ptr %347) #13
  unreachable

348:                                              ; preds = %340
  unreachable

349:                                              ; preds = %405, %343
  %350 = phi ptr [ %34, %343 ], [ %379, %405 ]
  %351 = phi { ptr, i32 } [ %344, %343 ], [ %406, %405 ]
  %352 = extractvalue { ptr, i32 } %351, 0
  %353 = call ptr @__cxa_begin_catch(ptr %352) #12
  %354 = load ptr, ptr %9, align 8, !tbaa !10
  %355 = load ptr, ptr %350, align 8, !tbaa !42
  %356 = icmp eq ptr %354, %355
  br i1 %356, label %377, label %357

357:                                              ; preds = %349
  %358 = load ptr, ptr %10, align 8, !tbaa !17
  %359 = getelementptr inbounds %"struct.std::_Deque_base<std::deque<xalanc_1_8::NameSpace>, std::allocator<std::deque<xalanc_1_8::NameSpace> > >::_Deque_impl", ptr %0, i64 0, i32 2, i32 2
  %360 = load ptr, ptr %359, align 8, !tbaa !16
  br label %361

361:                                              ; preds = %357, %372
  %362 = phi ptr [ %373, %372 ], [ %354, %357 ]
  %363 = phi ptr [ %374, %372 ], [ %360, %357 ]
  %364 = phi ptr [ %375, %372 ], [ %358, %357 ]
  invoke void @_ZNSt5dequeIN10xalanc_1_89NameSpaceESaIS1_EED2Ev(ptr noundef nonnull align 8 dereferenceable(80) %362)
          to label %365 unwind label %411

365:                                              ; preds = %361
  %366 = getelementptr inbounds %"class.std::deque.3", ptr %362, i64 1
  %367 = icmp eq ptr %366, %363
  br i1 %367, label %368, label %372

368:                                              ; preds = %365
  %369 = getelementptr inbounds ptr, ptr %364, i64 1
  %370 = load ptr, ptr %369, align 8, !tbaa !42
  %371 = getelementptr inbounds %"class.std::deque.3", ptr %370, i64 6
  br label %372

372:                                              ; preds = %368, %365
  %373 = phi ptr [ %370, %368 ], [ %366, %365 ]
  %374 = phi ptr [ %371, %368 ], [ %363, %365 ]
  %375 = phi ptr [ %369, %368 ], [ %364, %365 ]
  %376 = icmp eq ptr %373, %355
  br i1 %376, label %377, label %361

377:                                              ; preds = %372, %349
  invoke void @__cxa_rethrow() #14
          to label %422 unwind label %413

378:                                              ; preds = %275, %2
  %379 = phi ptr [ %11, %2 ], [ %276, %275 ]
  %380 = getelementptr inbounds %"struct.std::_Deque_base<std::deque<xalanc_1_8::NameSpace>, std::allocator<std::deque<xalanc_1_8::NameSpace> > >::_Deque_impl", ptr %0, i64 0, i32 3
  %381 = getelementptr inbounds %"struct.std::_Deque_base<std::deque<xalanc_1_8::NameSpace>, std::allocator<std::deque<xalanc_1_8::NameSpace> > >::_Deque_impl", ptr %0, i64 0, i32 3, i32 1
  %382 = load ptr, ptr %381, align 8, !tbaa !139
  %383 = load ptr, ptr %380, align 8, !tbaa !140
  %384 = icmp eq ptr %382, %383
  br i1 %384, label %418, label %385

385:                                              ; preds = %378, %387
  %386 = phi ptr [ %388, %387 ], [ %382, %378 ]
  invoke void @_ZNSt5dequeIN10xalanc_1_89NameSpaceESaIS1_EEC2ERKS3_(ptr noundef nonnull align 8 dereferenceable(80) %386, ptr noundef nonnull align 8 dereferenceable(80) %1)
          to label %387 unwind label %390

387:                                              ; preds = %385
  %388 = getelementptr inbounds %"class.std::deque.3", ptr %386, i64 1
  %389 = icmp eq ptr %388, %383
  br i1 %389, label %418, label %385

390:                                              ; preds = %385
  %391 = landingpad { ptr, i32 }
          catch ptr null
  %392 = extractvalue { ptr, i32 } %391, 0
  %393 = call ptr @__cxa_begin_catch(ptr %392) #12
  %394 = icmp eq ptr %386, %382
  br i1 %394, label %400, label %395

395:                                              ; preds = %390, %397
  %396 = phi ptr [ %398, %397 ], [ %382, %390 ]
  invoke void @_ZNSt5dequeIN10xalanc_1_89NameSpaceESaIS1_EED2Ev(ptr noundef nonnull align 8 dereferenceable(80) %396)
          to label %397 unwind label %401

397:                                              ; preds = %395
  %398 = getelementptr inbounds %"class.std::deque.3", ptr %396, i64 1
  %399 = icmp eq ptr %398, %386
  br i1 %399, label %400, label %395

400:                                              ; preds = %397, %390
  invoke void @__cxa_rethrow() #14
          to label %410 unwind label %403

401:                                              ; preds = %395
  %402 = landingpad { ptr, i32 }
          catch ptr null
  br label %405

403:                                              ; preds = %400
  %404 = landingpad { ptr, i32 }
          catch ptr null
  br label %405

405:                                              ; preds = %403, %401
  %406 = phi { ptr, i32 } [ %402, %401 ], [ %404, %403 ]
  invoke void @__cxa_end_catch()
          to label %349 unwind label %407

407:                                              ; preds = %405
  %408 = landingpad { ptr, i32 }
          catch ptr null
  %409 = extractvalue { ptr, i32 } %408, 0
  call void @__clang_call_terminate(ptr %409) #13
  unreachable

410:                                              ; preds = %400
  unreachable

411:                                              ; preds = %361
  %412 = landingpad { ptr, i32 }
          cleanup
  br label %415

413:                                              ; preds = %377
  %414 = landingpad { ptr, i32 }
          cleanup
  br label %415

415:                                              ; preds = %413, %411
  %416 = phi { ptr, i32 } [ %412, %411 ], [ %414, %413 ]
  invoke void @__cxa_end_catch()
          to label %417 unwind label %419

417:                                              ; preds = %415
  resume { ptr, i32 } %416

418:                                              ; preds = %387, %378
  ret void

419:                                              ; preds = %415
  %420 = landingpad { ptr, i32 }
          catch ptr null
  %421 = extractvalue { ptr, i32 } %420, 0
  call void @__clang_call_terminate(ptr %421) #13
  unreachable

422:                                              ; preds = %377
  unreachable
}

; Function Attrs: uwtable
define linkonce_odr dso_local void @_ZNSt11_Deque_baseISt5dequeIN10xalanc_1_89NameSpaceESaIS2_EESaIS4_EED2Ev(ptr noundef nonnull align 8 dereferenceable(80) %0) unnamed_addr #0 comdat align 2 personality ptr @__gxx_personality_v0 {
  %2 = load ptr, ptr %0, align 8, !tbaa !49
  %3 = icmp eq ptr %2, null
  br i1 %3, label %20, label %4

4:                                                ; preds = %1
  %5 = getelementptr inbounds %"struct.std::_Deque_base<std::deque<xalanc_1_8::NameSpace>, std::allocator<std::deque<xalanc_1_8::NameSpace> > >::_Deque_impl", ptr %0, i64 0, i32 2, i32 3
  %6 = load ptr, ptr %5, align 8, !tbaa !52
  %7 = getelementptr inbounds %"struct.std::_Deque_base<std::deque<xalanc_1_8::NameSpace>, std::allocator<std::deque<xalanc_1_8::NameSpace> > >::_Deque_impl", ptr %0, i64 0, i32 3, i32 3
  %8 = load ptr, ptr %7, align 8, !tbaa !53
  %9 = getelementptr inbounds ptr, ptr %8, i64 1
  %10 = icmp ult ptr %6, %9
  br i1 %10, label %11, label %18

11:                                               ; preds = %4, %11
  %12 = phi ptr [ %14, %11 ], [ %6, %4 ]
  %13 = load ptr, ptr %12, align 8, !tbaa !42
  tail call void @_ZdlPv(ptr noundef %13) #12
  %14 = getelementptr inbounds ptr, ptr %12, i64 1
  %15 = icmp ult ptr %12, %8
  br i1 %15, label %11, label %16

16:                                               ; preds = %11
  %17 = load ptr, ptr %0, align 8, !tbaa !49
  br label %18

18:                                               ; preds = %16, %4
  %19 = phi ptr [ %17, %16 ], [ %2, %4 ]
  tail call void @_ZdlPv(ptr noundef %19) #12
  br label %20

20:                                               ; preds = %18, %1
  ret void
}

; Function Attrs: noreturn
declare void @_ZSt20__throw_length_errorPKc(ptr noundef) local_unnamed_addr #6

; Function Attrs: uwtable
define linkonce_odr dso_local void @_ZNSt11_Deque_baseISt5dequeIN10xalanc_1_89NameSpaceESaIS2_EESaIS4_EE17_M_initialize_mapEm(ptr noundef nonnull align 8 dereferenceable(80) %0, i64 noundef %1) local_unnamed_addr #0 comdat align 2 personality ptr @__gxx_personality_v0 {
  %3 = udiv i64 %1, 6
  %4 = urem i64 %1, 6
  %5 = tail call i64 @llvm.umax.i64(i64 %3, i64 5)
  %6 = add nuw nsw i64 %5, 3
  %7 = getelementptr inbounds %"struct.std::_Deque_base<std::deque<xalanc_1_8::NameSpace>, std::allocator<std::deque<xalanc_1_8::NameSpace> > >::_Deque_impl", ptr %0, i64 0, i32 1
  store i64 %6, ptr %7, align 8, !tbaa !141
  %8 = icmp ugt i64 %5, 1152921504606846972
  br i1 %8, label %9, label %10

9:                                                ; preds = %2
  tail call void @_ZSt17__throw_bad_allocv() #14
  unreachable

10:                                               ; preds = %2
  %11 = add nuw nsw i64 %3, 1
  %12 = shl nuw nsw i64 %6, 3
  %13 = tail call noalias noundef nonnull ptr @_Znwm(i64 noundef %12) #15
  store ptr %13, ptr %0, align 8, !tbaa !49
  %14 = load i64, ptr %7, align 8, !tbaa !141
  %15 = sub i64 %14, %11
  %16 = lshr i64 %15, 1
  %17 = getelementptr inbounds ptr, ptr %13, i64 %16
  %18 = getelementptr inbounds ptr, ptr %17, i64 %11
  br label %19

19:                                               ; preds = %10, %22
  %20 = phi ptr [ %23, %22 ], [ %17, %10 ]
  %21 = invoke noalias noundef nonnull dereferenceable(480) ptr @_Znwm(i64 noundef 480) #15
          to label %22 unwind label %25

22:                                               ; preds = %19
  store ptr %21, ptr %20, align 8, !tbaa !42
  %23 = getelementptr inbounds ptr, ptr %20, i64 1
  %24 = icmp ult ptr %23, %18
  br i1 %24, label %19, label %49

25:                                               ; preds = %19
  %26 = landingpad { ptr, i32 }
          catch ptr null
  %27 = extractvalue { ptr, i32 } %26, 0
  %28 = tail call ptr @__cxa_begin_catch(ptr %27) #12
  %29 = icmp ugt ptr %20, %17
  br i1 %29, label %30, label %35

30:                                               ; preds = %25, %30
  %31 = phi ptr [ %33, %30 ], [ %17, %25 ]
  %32 = load ptr, ptr %31, align 8, !tbaa !42
  tail call void @_ZdlPv(ptr noundef %32) #12
  %33 = getelementptr inbounds ptr, ptr %31, i64 1
  %34 = icmp ult ptr %33, %20
  br i1 %34, label %30, label %35

35:                                               ; preds = %30, %25
  invoke void @__cxa_rethrow() #14
          to label %41 unwind label %36

36:                                               ; preds = %35
  %37 = landingpad { ptr, i32 }
          catch ptr null
  invoke void @__cxa_end_catch()
          to label %42 unwind label %38

38:                                               ; preds = %36
  %39 = landingpad { ptr, i32 }
          catch ptr null
  %40 = extractvalue { ptr, i32 } %39, 0
  tail call void @__clang_call_terminate(ptr %40) #13
  unreachable

41:                                               ; preds = %35
  unreachable

42:                                               ; preds = %36
  %43 = extractvalue { ptr, i32 } %37, 0
  %44 = tail call ptr @__cxa_begin_catch(ptr %43) #12
  %45 = load ptr, ptr %0, align 8, !tbaa !49
  tail call void @_ZdlPv(ptr noundef %45) #12
  tail call void @llvm.memset.p0.i64(ptr noundef nonnull align 8 dereferenceable(16) %0, i8 0, i64 16, i1 false)
  invoke void @__cxa_rethrow() #14
          to label %67 unwind label %46

46:                                               ; preds = %42
  %47 = landingpad { ptr, i32 }
          cleanup
  invoke void @__cxa_end_catch()
          to label %48 unwind label %64

48:                                               ; preds = %46
  resume { ptr, i32 } %47

49:                                               ; preds = %22
  %50 = getelementptr inbounds %"struct.std::_Deque_base<std::deque<xalanc_1_8::NameSpace>, std::allocator<std::deque<xalanc_1_8::NameSpace> > >::_Deque_impl", ptr %0, i64 0, i32 2
  %51 = getelementptr inbounds %"struct.std::_Deque_base<std::deque<xalanc_1_8::NameSpace>, std::allocator<std::deque<xalanc_1_8::NameSpace> > >::_Deque_impl", ptr %0, i64 0, i32 2, i32 3
  store ptr %17, ptr %51, align 8, !tbaa !17
  %52 = load ptr, ptr %17, align 8, !tbaa !42
  %53 = getelementptr inbounds %"struct.std::_Deque_base<std::deque<xalanc_1_8::NameSpace>, std::allocator<std::deque<xalanc_1_8::NameSpace> > >::_Deque_impl", ptr %0, i64 0, i32 2, i32 1
  store ptr %52, ptr %53, align 8, !tbaa !15
  %54 = getelementptr inbounds %"class.std::deque.3", ptr %52, i64 6
  %55 = getelementptr inbounds %"struct.std::_Deque_base<std::deque<xalanc_1_8::NameSpace>, std::allocator<std::deque<xalanc_1_8::NameSpace> > >::_Deque_impl", ptr %0, i64 0, i32 2, i32 2
  store ptr %54, ptr %55, align 8, !tbaa !16
  %56 = getelementptr inbounds %"struct.std::_Deque_base<std::deque<xalanc_1_8::NameSpace>, std::allocator<std::deque<xalanc_1_8::NameSpace> > >::_Deque_impl", ptr %0, i64 0, i32 3
  %57 = getelementptr inbounds ptr, ptr %17, i64 %3
  %58 = getelementptr inbounds %"struct.std::_Deque_base<std::deque<xalanc_1_8::NameSpace>, std::allocator<std::deque<xalanc_1_8::NameSpace> > >::_Deque_impl", ptr %0, i64 0, i32 3, i32 3
  store ptr %57, ptr %58, align 8, !tbaa !17
  %59 = load ptr, ptr %57, align 8, !tbaa !42
  %60 = getelementptr inbounds %"struct.std::_Deque_base<std::deque<xalanc_1_8::NameSpace>, std::allocator<std::deque<xalanc_1_8::NameSpace> > >::_Deque_impl", ptr %0, i64 0, i32 3, i32 1
  store ptr %59, ptr %60, align 8, !tbaa !15
  %61 = getelementptr inbounds %"class.std::deque.3", ptr %59, i64 6
  %62 = getelementptr inbounds %"struct.std::_Deque_base<std::deque<xalanc_1_8::NameSpace>, std::allocator<std::deque<xalanc_1_8::NameSpace> > >::_Deque_impl", ptr %0, i64 0, i32 3, i32 2
  store ptr %61, ptr %62, align 8, !tbaa !16
  store ptr %52, ptr %50, align 8, !tbaa !142
  %63 = getelementptr inbounds %"class.std::deque.3", ptr %59, i64 %4
  store ptr %63, ptr %56, align 8, !tbaa !140
  ret void

64:                                               ; preds = %46
  %65 = landingpad { ptr, i32 }
          catch ptr null
  %66 = extractvalue { ptr, i32 } %65, 0
  tail call void @__clang_call_terminate(ptr %66) #13
  unreachable

67:                                               ; preds = %42
  unreachable
}

; Function Attrs: uwtable
define linkonce_odr dso_local void @_ZNSt5dequeIN10xalanc_1_89NameSpaceESaIS1_EEC2ERKS3_(ptr noundef nonnull align 8 dereferenceable(80) %0, ptr noundef nonnull align 8 dereferenceable(80) %1) unnamed_addr #0 comdat align 2 personality ptr @__gxx_personality_v0 {
  %3 = alloca %"struct.std::_Deque_iterator.8", align 8
  %4 = alloca %"struct.std::_Deque_iterator.14", align 8
  %5 = alloca %"struct.std::_Deque_iterator.14", align 8
  %6 = alloca %"struct.std::_Deque_iterator.8", align 8
  %7 = getelementptr inbounds %"struct.std::_Deque_base<xalanc_1_8::NameSpace, std::allocator<xalanc_1_8::NameSpace> >::_Deque_impl", ptr %1, i64 0, i32 3
  %8 = getelementptr inbounds %"struct.std::_Deque_base<xalanc_1_8::NameSpace, std::allocator<xalanc_1_8::NameSpace> >::_Deque_impl", ptr %1, i64 0, i32 2
  %9 = getelementptr inbounds %"struct.std::_Deque_base<xalanc_1_8::NameSpace, std::allocator<xalanc_1_8::NameSpace> >::_Deque_impl", ptr %1, i64 0, i32 3, i32 3
  %10 = load ptr, ptr %9, align 8, !tbaa !32
  %11 = getelementptr inbounds %"struct.std::_Deque_base<xalanc_1_8::NameSpace, std::allocator<xalanc_1_8::NameSpace> >::_Deque_impl", ptr %1, i64 0, i32 2, i32 3
  %12 = load ptr, ptr %11, align 8, !tbaa !32
  %13 = ptrtoint ptr %10 to i64
  %14 = ptrtoint ptr %12 to i64
  %15 = load ptr, ptr %7, align 8, !tbaa !25
  %16 = getelementptr inbounds %"struct.std::_Deque_base<xalanc_1_8::NameSpace, std::allocator<xalanc_1_8::NameSpace> >::_Deque_impl", ptr %1, i64 0, i32 3, i32 1
  %17 = load ptr, ptr %16, align 8, !tbaa !30
  %18 = ptrtoint ptr %15 to i64
  %19 = ptrtoint ptr %17 to i64
  %20 = sub i64 %18, %19
  %21 = ashr exact i64 %20, 6
  %22 = getelementptr inbounds %"struct.std::_Deque_base<xalanc_1_8::NameSpace, std::allocator<xalanc_1_8::NameSpace> >::_Deque_impl", ptr %1, i64 0, i32 2, i32 2
  %23 = load ptr, ptr %22, align 8, !tbaa !31
  %24 = load ptr, ptr %8, align 8, !tbaa !25
  %25 = ptrtoint ptr %23 to i64
  %26 = ptrtoint ptr %24 to i64
  %27 = sub i64 %25, %26
  %28 = ashr exact i64 %27, 6
  %29 = add i64 %13, -8
  %30 = sub i64 %29, %14
  %31 = add nsw i64 %30, %21
  %32 = add nsw i64 %31, %28
  tail call void @llvm.memset.p0.i64(ptr noundef nonnull align 8 dereferenceable(80) %0, i8 0, i64 80, i1 false)
  tail call void @_ZNSt11_Deque_baseIN10xalanc_1_89NameSpaceESaIS1_EE17_M_initialize_mapEm(ptr noundef nonnull align 8 dereferenceable(80) %0, i64 noundef %32)
  %33 = load ptr, ptr %8, align 8, !tbaa !25, !noalias !143
  %34 = getelementptr inbounds %"struct.std::_Deque_base<xalanc_1_8::NameSpace, std::allocator<xalanc_1_8::NameSpace> >::_Deque_impl", ptr %1, i64 0, i32 2, i32 1
  %35 = load ptr, ptr %34, align 8, !tbaa !30, !noalias !143
  %36 = load ptr, ptr %22, align 8, !tbaa !31, !noalias !143
  %37 = load ptr, ptr %11, align 8, !tbaa !32, !noalias !143
  %38 = load ptr, ptr %7, align 8, !tbaa !25, !noalias !146
  %39 = load ptr, ptr %16, align 8, !tbaa !30, !noalias !146
  %40 = getelementptr inbounds %"struct.std::_Deque_base<xalanc_1_8::NameSpace, std::allocator<xalanc_1_8::NameSpace> >::_Deque_impl", ptr %1, i64 0, i32 3, i32 2
  %41 = load ptr, ptr %40, align 8, !tbaa !31, !noalias !146
  %42 = load ptr, ptr %9, align 8, !tbaa !32, !noalias !146
  %43 = getelementptr inbounds %"struct.std::_Deque_base<xalanc_1_8::NameSpace, std::allocator<xalanc_1_8::NameSpace> >::_Deque_impl", ptr %0, i64 0, i32 2
  %44 = load ptr, ptr %43, align 8, !tbaa !25
  %45 = getelementptr inbounds %"struct.std::_Deque_base<xalanc_1_8::NameSpace, std::allocator<xalanc_1_8::NameSpace> >::_Deque_impl", ptr %0, i64 0, i32 2, i32 1
  %46 = load ptr, ptr %45, align 8, !tbaa !30
  %47 = getelementptr inbounds %"struct.std::_Deque_base<xalanc_1_8::NameSpace, std::allocator<xalanc_1_8::NameSpace> >::_Deque_impl", ptr %0, i64 0, i32 2, i32 2
  %48 = load ptr, ptr %47, align 8, !tbaa !31
  %49 = getelementptr inbounds %"struct.std::_Deque_base<xalanc_1_8::NameSpace, std::allocator<xalanc_1_8::NameSpace> >::_Deque_impl", ptr %0, i64 0, i32 2, i32 3
  %50 = load ptr, ptr %49, align 8, !tbaa !32
  call void @llvm.lifetime.start.p0(i64 32, ptr nonnull %6) #12
  call void @llvm.lifetime.start.p0(i64 32, ptr nonnull %5)
  call void @llvm.lifetime.start.p0(i64 32, ptr nonnull %4)
  store ptr %38, ptr %4, align 8
  %51 = getelementptr inbounds i8, ptr %4, i64 8
  store ptr %39, ptr %51, align 8
  %52 = getelementptr inbounds i8, ptr %4, i64 16
  store ptr %41, ptr %52, align 8
  %53 = getelementptr inbounds i8, ptr %4, i64 24
  store ptr %42, ptr %53, align 8
  store ptr %33, ptr %5, align 8
  %54 = getelementptr inbounds i8, ptr %5, i64 8
  store ptr %35, ptr %54, align 8
  %55 = getelementptr inbounds i8, ptr %5, i64 16
  store ptr %36, ptr %55, align 8
  %56 = getelementptr inbounds i8, ptr %5, i64 24
  store ptr %37, ptr %56, align 8
  call void @llvm.lifetime.start.p0(i64 32, ptr nonnull %3), !noalias !149
  store ptr %44, ptr %3, align 8, !tbaa !25, !noalias !152
  %57 = getelementptr inbounds %"struct.std::_Deque_iterator.8", ptr %3, i64 0, i32 1
  store ptr %46, ptr %57, align 8, !tbaa !30, !noalias !152
  %58 = getelementptr inbounds %"struct.std::_Deque_iterator.8", ptr %3, i64 0, i32 2
  store ptr %48, ptr %58, align 8, !tbaa !31, !noalias !152
  %59 = getelementptr inbounds %"struct.std::_Deque_iterator.8", ptr %3, i64 0, i32 3
  store ptr %50, ptr %59, align 8, !tbaa !32, !noalias !152
  invoke void @_ZNSt20__uninitialized_copyILb0EE13__uninit_copyISt15_Deque_iteratorIN10xalanc_1_89NameSpaceERKS4_PS5_ES2_IS4_RS4_PS4_EEET0_T_SD_SC_(ptr nonnull sret(%"struct.std::_Deque_iterator.8") align 8 %6, ptr noundef nonnull byval(%"struct.std::_Deque_iterator.14") align 8 %5, ptr noundef nonnull byval(%"struct.std::_Deque_iterator.14") align 8 %4, ptr noundef nonnull %3)
          to label %60 unwind label %61

60:                                               ; preds = %2
  call void @llvm.lifetime.end.p0(i64 32, ptr nonnull %3), !noalias !149
  call void @llvm.lifetime.end.p0(i64 32, ptr nonnull %5)
  call void @llvm.lifetime.end.p0(i64 32, ptr nonnull %4)
  call void @llvm.lifetime.end.p0(i64 32, ptr nonnull %6) #12
  ret void

61:                                               ; preds = %2
  %62 = landingpad { ptr, i32 }
          cleanup
  call void @llvm.lifetime.end.p0(i64 32, ptr nonnull %6) #12
  invoke void @_ZNSt11_Deque_baseIN10xalanc_1_89NameSpaceESaIS1_EED2Ev(ptr noundef nonnull align 8 dereferenceable(80) %0)
          to label %63 unwind label %64

63:                                               ; preds = %61
  resume { ptr, i32 } %62

64:                                               ; preds = %61
  %65 = landingpad { ptr, i32 }
          catch ptr null
  %66 = extractvalue { ptr, i32 } %65, 0
  call void @__clang_call_terminate(ptr %66) #13
  unreachable
}

; Function Attrs: uwtable
define linkonce_odr dso_local void @_ZNSt20__uninitialized_copyILb0EE13__uninit_copyISt15_Deque_iteratorIN10xalanc_1_89NameSpaceERKS4_PS5_ES2_IS4_RS4_PS4_EEET0_T_SD_SC_(ptr noalias sret(%"struct.std::_Deque_iterator.8") align 8 %0, ptr noundef byval(%"struct.std::_Deque_iterator.14") align 8 %1, ptr noundef byval(%"struct.std::_Deque_iterator.14") align 8 %2, ptr noundef %3) local_unnamed_addr #0 comdat align 2 personality ptr @__gxx_personality_v0 {
  %5 = alloca %"struct.std::_Deque_iterator.8", align 8
  %6 = alloca %"struct.std::_Deque_iterator.8", align 8
  %7 = load ptr, ptr %3, align 8, !tbaa !25
  store ptr %7, ptr %0, align 8, !tbaa !25
  %8 = getelementptr inbounds %"struct.std::_Deque_iterator.8", ptr %0, i64 0, i32 1
  %9 = getelementptr inbounds %"struct.std::_Deque_iterator.8", ptr %3, i64 0, i32 1
  %10 = load ptr, ptr %9, align 8, !tbaa !30
  store ptr %10, ptr %8, align 8, !tbaa !30
  %11 = getelementptr inbounds %"struct.std::_Deque_iterator.8", ptr %0, i64 0, i32 2
  %12 = getelementptr inbounds %"struct.std::_Deque_iterator.8", ptr %3, i64 0, i32 2
  %13 = load ptr, ptr %12, align 8, !tbaa !31
  store ptr %13, ptr %11, align 8, !tbaa !31
  %14 = getelementptr inbounds %"struct.std::_Deque_iterator.8", ptr %0, i64 0, i32 3
  %15 = getelementptr inbounds %"struct.std::_Deque_iterator.8", ptr %3, i64 0, i32 3
  %16 = load ptr, ptr %15, align 8, !tbaa !32
  store ptr %16, ptr %14, align 8, !tbaa !32
  %17 = load ptr, ptr %2, align 8, !tbaa !155
  %18 = load ptr, ptr %1, align 8, !tbaa !155
  %19 = icmp eq ptr %18, %17
  br i1 %19, label %78, label %20

20:                                               ; preds = %4
  %21 = getelementptr inbounds %"struct.std::_Deque_iterator.14", ptr %1, i64 0, i32 2
  %22 = getelementptr inbounds %"struct.std::_Deque_iterator.14", ptr %1, i64 0, i32 3
  %23 = getelementptr inbounds %"struct.std::_Deque_iterator.14", ptr %1, i64 0, i32 1
  br label %24

24:                                               ; preds = %20, %55
  %25 = phi ptr [ %10, %20 ], [ %56, %55 ]
  %26 = phi ptr [ %18, %20 ], [ %48, %55 ]
  %27 = phi ptr [ %7, %20 ], [ %59, %55 ]
  %28 = phi ptr [ %13, %20 ], [ %58, %55 ]
  %29 = phi ptr [ %16, %20 ], [ %57, %55 ]
  invoke void @_ZN10xalanc_1_814XalanDOMStringC1ERKS0_jj(ptr noundef nonnull align 8 dereferenceable(28) %27, ptr noundef nonnull align 8 dereferenceable(28) %26, i32 noundef 0, i32 noundef -1)
          to label %30 unwind label %61

30:                                               ; preds = %24
  %31 = getelementptr inbounds %"class.xalanc_1_8::NameSpace", ptr %27, i64 0, i32 1
  %32 = getelementptr inbounds %"class.xalanc_1_8::NameSpace", ptr %26, i64 0, i32 1
  invoke void @_ZN10xalanc_1_814XalanDOMStringC1ERKS0_jj(ptr noundef nonnull align 8 dereferenceable(28) %31, ptr noundef nonnull align 8 dereferenceable(28) %32, i32 noundef 0, i32 noundef -1)
          to label %38 unwind label %33

33:                                               ; preds = %30
  %34 = landingpad { ptr, i32 }
          catch ptr null
  store ptr %26, ptr %1, align 8, !tbaa !155
  %35 = load ptr, ptr %27, align 8, !tbaa !68
  %36 = icmp eq ptr %35, null
  br i1 %36, label %63, label %37

37:                                               ; preds = %33
  tail call void @_ZdlPv(ptr noundef nonnull %35) #12
  br label %63

38:                                               ; preds = %30
  %39 = getelementptr inbounds %"class.xalanc_1_8::NameSpace", ptr %26, i64 1
  %40 = load ptr, ptr %21, align 8, !tbaa !157
  %41 = icmp eq ptr %39, %40
  br i1 %41, label %42, label %47

42:                                               ; preds = %38
  %43 = load ptr, ptr %22, align 8, !tbaa !158
  %44 = getelementptr inbounds ptr, ptr %43, i64 1
  store ptr %44, ptr %22, align 8, !tbaa !158
  %45 = load ptr, ptr %44, align 8, !tbaa !42
  store ptr %45, ptr %23, align 8, !tbaa !159
  %46 = getelementptr inbounds %"class.xalanc_1_8::NameSpace", ptr %45, i64 8
  store ptr %46, ptr %21, align 8, !tbaa !157
  br label %47

47:                                               ; preds = %38, %42
  %48 = phi ptr [ %39, %38 ], [ %45, %42 ]
  %49 = getelementptr inbounds %"class.xalanc_1_8::NameSpace", ptr %27, i64 1
  store ptr %49, ptr %0, align 8, !tbaa !25
  %50 = icmp eq ptr %49, %28
  br i1 %50, label %51, label %55

51:                                               ; preds = %47
  %52 = getelementptr inbounds ptr, ptr %29, i64 1
  store ptr %52, ptr %14, align 8, !tbaa !32
  %53 = load ptr, ptr %52, align 8, !tbaa !42
  store ptr %53, ptr %8, align 8, !tbaa !30
  %54 = getelementptr inbounds %"class.xalanc_1_8::NameSpace", ptr %53, i64 8
  store ptr %54, ptr %11, align 8, !tbaa !31
  store ptr %53, ptr %0, align 8, !tbaa !25
  br label %55

55:                                               ; preds = %47, %51
  %56 = phi ptr [ %25, %47 ], [ %53, %51 ]
  %57 = phi ptr [ %29, %47 ], [ %52, %51 ]
  %58 = phi ptr [ %28, %47 ], [ %54, %51 ]
  %59 = phi ptr [ %49, %47 ], [ %53, %51 ]
  %60 = icmp eq ptr %48, %17
  br i1 %60, label %78, label %24

61:                                               ; preds = %24
  %62 = landingpad { ptr, i32 }
          catch ptr null
  store ptr %26, ptr %1, align 8, !tbaa !155
  br label %63

63:                                               ; preds = %33, %37, %61
  %64 = phi { ptr, i32 } [ %62, %61 ], [ %34, %37 ], [ %34, %33 ]
  %65 = extractvalue { ptr, i32 } %64, 0
  %66 = tail call ptr @__cxa_begin_catch(ptr %65) #12
  %67 = load ptr, ptr %3, align 8, !tbaa !25
  store ptr %67, ptr %5, align 8, !tbaa !25
  %68 = getelementptr inbounds %"struct.std::_Deque_iterator.8", ptr %5, i64 0, i32 1
  %69 = load ptr, ptr %9, align 8, !tbaa !30
  store ptr %69, ptr %68, align 8, !tbaa !30
  %70 = getelementptr inbounds %"struct.std::_Deque_iterator.8", ptr %5, i64 0, i32 2
  %71 = load ptr, ptr %12, align 8, !tbaa !31
  store ptr %71, ptr %70, align 8, !tbaa !31
  %72 = getelementptr inbounds %"struct.std::_Deque_iterator.8", ptr %5, i64 0, i32 3
  %73 = load ptr, ptr %15, align 8, !tbaa !32
  store ptr %73, ptr %72, align 8, !tbaa !32
  store ptr %27, ptr %6, align 8, !tbaa !25
  %74 = getelementptr inbounds %"struct.std::_Deque_iterator.8", ptr %6, i64 0, i32 1
  store ptr %25, ptr %74, align 8, !tbaa !30
  %75 = getelementptr inbounds %"struct.std::_Deque_iterator.8", ptr %6, i64 0, i32 2
  store ptr %28, ptr %75, align 8, !tbaa !31
  %76 = getelementptr inbounds %"struct.std::_Deque_iterator.8", ptr %6, i64 0, i32 3
  store ptr %29, ptr %76, align 8, !tbaa !32
  invoke void @_ZSt8_DestroyISt15_Deque_iteratorIN10xalanc_1_89NameSpaceERS2_PS2_EEvT_S6_(ptr noundef nonnull %5, ptr noundef nonnull %6)
          to label %77 unwind label %79

77:                                               ; preds = %63
  invoke void @__cxa_rethrow() #14
          to label %85 unwind label %79

78:                                               ; preds = %55, %4
  ret void

79:                                               ; preds = %77, %63
  %80 = landingpad { ptr, i32 }
          cleanup
  invoke void @__cxa_end_catch()
          to label %81 unwind label %82

81:                                               ; preds = %79
  resume { ptr, i32 } %80

82:                                               ; preds = %79
  %83 = landingpad { ptr, i32 }
          catch ptr null
  %84 = extractvalue { ptr, i32 } %83, 0
  call void @__clang_call_terminate(ptr %84) #13
  unreachable

85:                                               ; preds = %77
  unreachable
}

; Function Attrs: inlinehint uwtable
define linkonce_odr dso_local void @_ZSt8_DestroyISt15_Deque_iteratorIN10xalanc_1_89NameSpaceERS2_PS2_EEvT_S6_(ptr noundef %0, ptr noundef %1) local_unnamed_addr #8 comdat personality ptr @__gxx_personality_v0 {
  %3 = load ptr, ptr %0, align 8, !tbaa !25
  %4 = load ptr, ptr %1, align 8, !tbaa !25
  %5 = icmp eq ptr %3, %4
  br i1 %5, label %35, label %6

6:                                                ; preds = %2
  %7 = getelementptr inbounds %"struct.std::_Deque_iterator.8", ptr %0, i64 0, i32 3
  %8 = load ptr, ptr %7, align 8, !tbaa !32
  %9 = getelementptr inbounds %"struct.std::_Deque_iterator.8", ptr %0, i64 0, i32 2
  %10 = load ptr, ptr %9, align 8, !tbaa !31
  br label %11

11:                                               ; preds = %6, %30
  %12 = phi ptr [ %31, %30 ], [ %3, %6 ]
  %13 = phi ptr [ %32, %30 ], [ %10, %6 ]
  %14 = phi ptr [ %33, %30 ], [ %8, %6 ]
  %15 = getelementptr inbounds %"class.xalanc_1_8::NameSpace", ptr %12, i64 0, i32 1
  %16 = load ptr, ptr %15, align 8, !tbaa !68
  %17 = icmp eq ptr %16, null
  br i1 %17, label %19, label %18

18:                                               ; preds = %11
  tail call void @_ZdlPv(ptr noundef nonnull %16) #12
  br label %19

19:                                               ; preds = %18, %11
  %20 = load ptr, ptr %12, align 8, !tbaa !68
  %21 = icmp eq ptr %20, null
  br i1 %21, label %23, label %22

22:                                               ; preds = %19
  tail call void @_ZdlPv(ptr noundef nonnull %20) #12
  br label %23

23:                                               ; preds = %22, %19
  %24 = getelementptr inbounds %"class.xalanc_1_8::NameSpace", ptr %12, i64 1
  %25 = icmp eq ptr %24, %13
  br i1 %25, label %26, label %30

26:                                               ; preds = %23
  %27 = getelementptr inbounds ptr, ptr %14, i64 1
  %28 = load ptr, ptr %27, align 8, !tbaa !42
  %29 = getelementptr inbounds %"class.xalanc_1_8::NameSpace", ptr %28, i64 8
  br label %30

30:                                               ; preds = %26, %23
  %31 = phi ptr [ %28, %26 ], [ %24, %23 ]
  %32 = phi ptr [ %29, %26 ], [ %13, %23 ]
  %33 = phi ptr [ %27, %26 ], [ %14, %23 ]
  %34 = icmp eq ptr %31, %4
  br i1 %34, label %35, label %11

35:                                               ; preds = %30, %2
  ret void
}

declare void @_ZN10xalanc_1_814XalanDOMStringC1ERKS0_jj(ptr noundef nonnull align 8 dereferenceable(28), ptr noundef nonnull align 8 dereferenceable(28), i32 noundef, i32 noundef) unnamed_addr #4

; Function Attrs: uwtable
define linkonce_odr dso_local void @_ZNSt5dequeIS_IN10xalanc_1_89NameSpaceESaIS1_EESaIS3_EE19_M_destroy_data_auxESt15_Deque_iteratorIS3_RS3_PS3_ES9_(ptr noundef nonnull align 8 dereferenceable(80) %0, ptr noundef %1, ptr noundef %2) local_unnamed_addr #0 comdat align 2 personality ptr @__gxx_personality_v0 {
  %4 = alloca %"struct.std::_Deque_iterator.8", align 8
  %5 = alloca %"struct.std::_Deque_iterator.8", align 8
  %6 = getelementptr inbounds %"struct.std::_Deque_iterator", ptr %1, i64 0, i32 3
  %7 = load ptr, ptr %6, align 8, !tbaa !17
  %8 = getelementptr inbounds %"struct.std::_Deque_iterator", ptr %2, i64 0, i32 3
  %9 = getelementptr inbounds ptr, ptr %7, i64 1
  %10 = load ptr, ptr %8, align 8, !tbaa !17
  %11 = icmp ult ptr %9, %10
  br i1 %11, label %12, label %21

12:                                               ; preds = %3
  %13 = getelementptr inbounds %"struct.std::_Deque_iterator.8", ptr %4, i64 0, i32 1
  %14 = getelementptr inbounds %"struct.std::_Deque_iterator.8", ptr %4, i64 0, i32 2
  %15 = getelementptr inbounds %"struct.std::_Deque_iterator.8", ptr %4, i64 0, i32 3
  %16 = getelementptr inbounds %"struct.std::_Deque_iterator.8", ptr %5, i64 0, i32 1
  %17 = getelementptr inbounds %"struct.std::_Deque_iterator.8", ptr %5, i64 0, i32 2
  %18 = getelementptr inbounds %"struct.std::_Deque_iterator.8", ptr %5, i64 0, i32 3
  br label %26

19:                                               ; preds = %259
  %20 = load ptr, ptr %6, align 8, !tbaa !17
  br label %21

21:                                               ; preds = %19, %3
  %22 = phi ptr [ %7, %3 ], [ %20, %19 ]
  %23 = phi ptr [ %10, %3 ], [ %261, %19 ]
  %24 = icmp eq ptr %22, %23
  %25 = load ptr, ptr %1, align 8, !tbaa !10
  br i1 %24, label %280, label %263

26:                                               ; preds = %12, %259
  %27 = phi ptr [ %9, %12 ], [ %260, %259 ]
  %28 = load ptr, ptr %27, align 8, !tbaa !42
  %29 = getelementptr inbounds %"struct.std::_Deque_base<xalanc_1_8::NameSpace, std::allocator<xalanc_1_8::NameSpace> >::_Deque_impl", ptr %28, i64 0, i32 2
  %30 = load ptr, ptr %29, align 8, !tbaa !25, !noalias !160
  %31 = getelementptr inbounds %"struct.std::_Deque_base<xalanc_1_8::NameSpace, std::allocator<xalanc_1_8::NameSpace> >::_Deque_impl", ptr %28, i64 0, i32 2, i32 1
  %32 = load ptr, ptr %31, align 8, !tbaa !30, !noalias !160
  %33 = getelementptr inbounds %"struct.std::_Deque_base<xalanc_1_8::NameSpace, std::allocator<xalanc_1_8::NameSpace> >::_Deque_impl", ptr %28, i64 0, i32 2, i32 2
  %34 = load ptr, ptr %33, align 8, !tbaa !31, !noalias !160
  %35 = getelementptr inbounds %"struct.std::_Deque_base<xalanc_1_8::NameSpace, std::allocator<xalanc_1_8::NameSpace> >::_Deque_impl", ptr %28, i64 0, i32 2, i32 3
  %36 = load ptr, ptr %35, align 8, !tbaa !32, !noalias !160
  %37 = getelementptr inbounds %"struct.std::_Deque_base<xalanc_1_8::NameSpace, std::allocator<xalanc_1_8::NameSpace> >::_Deque_impl", ptr %28, i64 0, i32 3
  %38 = load ptr, ptr %37, align 8, !tbaa !25, !noalias !163
  %39 = getelementptr inbounds %"struct.std::_Deque_base<xalanc_1_8::NameSpace, std::allocator<xalanc_1_8::NameSpace> >::_Deque_impl", ptr %28, i64 0, i32 3, i32 1
  %40 = load ptr, ptr %39, align 8, !tbaa !30, !noalias !163
  %41 = getelementptr inbounds %"struct.std::_Deque_base<xalanc_1_8::NameSpace, std::allocator<xalanc_1_8::NameSpace> >::_Deque_impl", ptr %28, i64 0, i32 3, i32 2
  %42 = load ptr, ptr %41, align 8, !tbaa !31, !noalias !163
  %43 = getelementptr inbounds %"struct.std::_Deque_base<xalanc_1_8::NameSpace, std::allocator<xalanc_1_8::NameSpace> >::_Deque_impl", ptr %28, i64 0, i32 3, i32 3
  %44 = load ptr, ptr %43, align 8, !tbaa !32, !noalias !163
  call void @llvm.lifetime.start.p0(i64 32, ptr nonnull %4)
  call void @llvm.lifetime.start.p0(i64 32, ptr nonnull %5)
  store ptr %30, ptr %4, align 8, !tbaa !25
  store ptr %32, ptr %13, align 8, !tbaa !30
  store ptr %34, ptr %14, align 8, !tbaa !31
  store ptr %36, ptr %15, align 8, !tbaa !32
  store ptr %38, ptr %5, align 8, !tbaa !25
  store ptr %40, ptr %16, align 8, !tbaa !30
  store ptr %42, ptr %17, align 8, !tbaa !31
  store ptr %44, ptr %18, align 8, !tbaa !32
  invoke void @_ZNSt5dequeIN10xalanc_1_89NameSpaceESaIS1_EE19_M_destroy_data_auxESt15_Deque_iteratorIS1_RS1_PS1_ES7_(ptr noundef nonnull align 8 dereferenceable(80) %28, ptr noundef nonnull %4, ptr noundef nonnull %5)
          to label %45 unwind label %62

45:                                               ; preds = %26
  call void @llvm.lifetime.end.p0(i64 32, ptr nonnull %4)
  call void @llvm.lifetime.end.p0(i64 32, ptr nonnull %5)
  %46 = load ptr, ptr %28, align 8, !tbaa !36
  %47 = icmp eq ptr %46, null
  br i1 %47, label %84, label %48

48:                                               ; preds = %45
  %49 = load ptr, ptr %35, align 8, !tbaa !40
  %50 = load ptr, ptr %43, align 8, !tbaa !41
  %51 = getelementptr inbounds ptr, ptr %50, i64 1
  %52 = icmp ult ptr %49, %51
  br i1 %52, label %53, label %60

53:                                               ; preds = %48, %53
  %54 = phi ptr [ %56, %53 ], [ %49, %48 ]
  %55 = load ptr, ptr %54, align 8, !tbaa !42
  call void @_ZdlPv(ptr noundef %55) #12
  %56 = getelementptr inbounds ptr, ptr %54, i64 1
  %57 = icmp ult ptr %54, %50
  br i1 %57, label %53, label %58

58:                                               ; preds = %53
  %59 = load ptr, ptr %28, align 8, !tbaa !36
  br label %60

60:                                               ; preds = %58, %48
  %61 = phi ptr [ %59, %58 ], [ %46, %48 ]
  call void @_ZdlPv(ptr noundef %61) #12
  br label %84

62:                                               ; preds = %224, %189, %154, %119, %84, %26
  %63 = phi ptr [ %28, %26 ], [ %85, %84 ], [ %120, %119 ], [ %155, %154 ], [ %190, %189 ], [ %225, %224 ]
  %64 = phi ptr [ %35, %26 ], [ %92, %84 ], [ %127, %119 ], [ %162, %154 ], [ %197, %189 ], [ %232, %224 ]
  %65 = phi ptr [ %43, %26 ], [ %100, %84 ], [ %135, %119 ], [ %170, %154 ], [ %205, %189 ], [ %240, %224 ]
  %66 = landingpad { ptr, i32 }
          cleanup
  %67 = load ptr, ptr %63, align 8, !tbaa !36
  %68 = icmp eq ptr %67, null
  br i1 %68, label %83, label %69

69:                                               ; preds = %62
  %70 = load ptr, ptr %64, align 8, !tbaa !40
  %71 = load ptr, ptr %65, align 8, !tbaa !41
  %72 = getelementptr inbounds ptr, ptr %71, i64 1
  %73 = icmp ult ptr %70, %72
  br i1 %73, label %74, label %81

74:                                               ; preds = %69, %74
  %75 = phi ptr [ %77, %74 ], [ %70, %69 ]
  %76 = load ptr, ptr %75, align 8, !tbaa !42
  call void @_ZdlPv(ptr noundef %76) #12
  %77 = getelementptr inbounds ptr, ptr %75, i64 1
  %78 = icmp ult ptr %75, %71
  br i1 %78, label %74, label %79

79:                                               ; preds = %74
  %80 = load ptr, ptr %63, align 8, !tbaa !36
  br label %81

81:                                               ; preds = %79, %69
  %82 = phi ptr [ %80, %79 ], [ %67, %69 ]
  call void @_ZdlPv(ptr noundef %82) #12
  br label %83

83:                                               ; preds = %81, %62
  resume { ptr, i32 } %66

84:                                               ; preds = %45, %60
  %85 = getelementptr inbounds %"class.std::deque.3", ptr %28, i64 1
  %86 = getelementptr inbounds %"class.std::deque.3", ptr %28, i64 1, i32 0, i32 0, i32 2
  %87 = load ptr, ptr %86, align 8, !tbaa !25, !noalias !160
  %88 = getelementptr inbounds %"class.std::deque.3", ptr %28, i64 1, i32 0, i32 0, i32 2, i32 1
  %89 = load ptr, ptr %88, align 8, !tbaa !30, !noalias !160
  %90 = getelementptr inbounds %"class.std::deque.3", ptr %28, i64 1, i32 0, i32 0, i32 2, i32 2
  %91 = load ptr, ptr %90, align 8, !tbaa !31, !noalias !160
  %92 = getelementptr inbounds %"class.std::deque.3", ptr %28, i64 1, i32 0, i32 0, i32 2, i32 3
  %93 = load ptr, ptr %92, align 8, !tbaa !32, !noalias !160
  %94 = getelementptr inbounds %"class.std::deque.3", ptr %28, i64 1, i32 0, i32 0, i32 3
  %95 = load ptr, ptr %94, align 8, !tbaa !25, !noalias !163
  %96 = getelementptr inbounds %"class.std::deque.3", ptr %28, i64 1, i32 0, i32 0, i32 3, i32 1
  %97 = load ptr, ptr %96, align 8, !tbaa !30, !noalias !163
  %98 = getelementptr inbounds %"class.std::deque.3", ptr %28, i64 1, i32 0, i32 0, i32 3, i32 2
  %99 = load ptr, ptr %98, align 8, !tbaa !31, !noalias !163
  %100 = getelementptr inbounds %"class.std::deque.3", ptr %28, i64 1, i32 0, i32 0, i32 3, i32 3
  %101 = load ptr, ptr %100, align 8, !tbaa !32, !noalias !163
  call void @llvm.lifetime.start.p0(i64 32, ptr nonnull %4)
  call void @llvm.lifetime.start.p0(i64 32, ptr nonnull %5)
  store ptr %87, ptr %4, align 8, !tbaa !25
  store ptr %89, ptr %13, align 8, !tbaa !30
  store ptr %91, ptr %14, align 8, !tbaa !31
  store ptr %93, ptr %15, align 8, !tbaa !32
  store ptr %95, ptr %5, align 8, !tbaa !25
  store ptr %97, ptr %16, align 8, !tbaa !30
  store ptr %99, ptr %17, align 8, !tbaa !31
  store ptr %101, ptr %18, align 8, !tbaa !32
  invoke void @_ZNSt5dequeIN10xalanc_1_89NameSpaceESaIS1_EE19_M_destroy_data_auxESt15_Deque_iteratorIS1_RS1_PS1_ES7_(ptr noundef nonnull align 8 dereferenceable(80) %85, ptr noundef nonnull %4, ptr noundef nonnull %5)
          to label %102 unwind label %62

102:                                              ; preds = %84
  call void @llvm.lifetime.end.p0(i64 32, ptr nonnull %4)
  call void @llvm.lifetime.end.p0(i64 32, ptr nonnull %5)
  %103 = load ptr, ptr %85, align 8, !tbaa !36
  %104 = icmp eq ptr %103, null
  br i1 %104, label %119, label %105

105:                                              ; preds = %102
  %106 = load ptr, ptr %92, align 8, !tbaa !40
  %107 = load ptr, ptr %100, align 8, !tbaa !41
  %108 = getelementptr inbounds ptr, ptr %107, i64 1
  %109 = icmp ult ptr %106, %108
  br i1 %109, label %110, label %117

110:                                              ; preds = %105, %110
  %111 = phi ptr [ %113, %110 ], [ %106, %105 ]
  %112 = load ptr, ptr %111, align 8, !tbaa !42
  call void @_ZdlPv(ptr noundef %112) #12
  %113 = getelementptr inbounds ptr, ptr %111, i64 1
  %114 = icmp ult ptr %111, %107
  br i1 %114, label %110, label %115

115:                                              ; preds = %110
  %116 = load ptr, ptr %85, align 8, !tbaa !36
  br label %117

117:                                              ; preds = %115, %105
  %118 = phi ptr [ %116, %115 ], [ %103, %105 ]
  call void @_ZdlPv(ptr noundef %118) #12
  br label %119

119:                                              ; preds = %117, %102
  %120 = getelementptr inbounds %"class.std::deque.3", ptr %28, i64 2
  %121 = getelementptr inbounds %"class.std::deque.3", ptr %28, i64 2, i32 0, i32 0, i32 2
  %122 = load ptr, ptr %121, align 8, !tbaa !25, !noalias !160
  %123 = getelementptr inbounds %"class.std::deque.3", ptr %28, i64 2, i32 0, i32 0, i32 2, i32 1
  %124 = load ptr, ptr %123, align 8, !tbaa !30, !noalias !160
  %125 = getelementptr inbounds %"class.std::deque.3", ptr %28, i64 2, i32 0, i32 0, i32 2, i32 2
  %126 = load ptr, ptr %125, align 8, !tbaa !31, !noalias !160
  %127 = getelementptr inbounds %"class.std::deque.3", ptr %28, i64 2, i32 0, i32 0, i32 2, i32 3
  %128 = load ptr, ptr %127, align 8, !tbaa !32, !noalias !160
  %129 = getelementptr inbounds %"class.std::deque.3", ptr %28, i64 2, i32 0, i32 0, i32 3
  %130 = load ptr, ptr %129, align 8, !tbaa !25, !noalias !163
  %131 = getelementptr inbounds %"class.std::deque.3", ptr %28, i64 2, i32 0, i32 0, i32 3, i32 1
  %132 = load ptr, ptr %131, align 8, !tbaa !30, !noalias !163
  %133 = getelementptr inbounds %"class.std::deque.3", ptr %28, i64 2, i32 0, i32 0, i32 3, i32 2
  %134 = load ptr, ptr %133, align 8, !tbaa !31, !noalias !163
  %135 = getelementptr inbounds %"class.std::deque.3", ptr %28, i64 2, i32 0, i32 0, i32 3, i32 3
  %136 = load ptr, ptr %135, align 8, !tbaa !32, !noalias !163
  call void @llvm.lifetime.start.p0(i64 32, ptr nonnull %4)
  call void @llvm.lifetime.start.p0(i64 32, ptr nonnull %5)
  store ptr %122, ptr %4, align 8, !tbaa !25
  store ptr %124, ptr %13, align 8, !tbaa !30
  store ptr %126, ptr %14, align 8, !tbaa !31
  store ptr %128, ptr %15, align 8, !tbaa !32
  store ptr %130, ptr %5, align 8, !tbaa !25
  store ptr %132, ptr %16, align 8, !tbaa !30
  store ptr %134, ptr %17, align 8, !tbaa !31
  store ptr %136, ptr %18, align 8, !tbaa !32
  invoke void @_ZNSt5dequeIN10xalanc_1_89NameSpaceESaIS1_EE19_M_destroy_data_auxESt15_Deque_iteratorIS1_RS1_PS1_ES7_(ptr noundef nonnull align 8 dereferenceable(80) %120, ptr noundef nonnull %4, ptr noundef nonnull %5)
          to label %137 unwind label %62

137:                                              ; preds = %119
  call void @llvm.lifetime.end.p0(i64 32, ptr nonnull %4)
  call void @llvm.lifetime.end.p0(i64 32, ptr nonnull %5)
  %138 = load ptr, ptr %120, align 8, !tbaa !36
  %139 = icmp eq ptr %138, null
  br i1 %139, label %154, label %140

140:                                              ; preds = %137
  %141 = load ptr, ptr %127, align 8, !tbaa !40
  %142 = load ptr, ptr %135, align 8, !tbaa !41
  %143 = getelementptr inbounds ptr, ptr %142, i64 1
  %144 = icmp ult ptr %141, %143
  br i1 %144, label %145, label %152

145:                                              ; preds = %140, %145
  %146 = phi ptr [ %148, %145 ], [ %141, %140 ]
  %147 = load ptr, ptr %146, align 8, !tbaa !42
  call void @_ZdlPv(ptr noundef %147) #12
  %148 = getelementptr inbounds ptr, ptr %146, i64 1
  %149 = icmp ult ptr %146, %142
  br i1 %149, label %145, label %150

150:                                              ; preds = %145
  %151 = load ptr, ptr %120, align 8, !tbaa !36
  br label %152

152:                                              ; preds = %150, %140
  %153 = phi ptr [ %151, %150 ], [ %138, %140 ]
  call void @_ZdlPv(ptr noundef %153) #12
  br label %154

154:                                              ; preds = %152, %137
  %155 = getelementptr inbounds %"class.std::deque.3", ptr %28, i64 3
  %156 = getelementptr inbounds %"class.std::deque.3", ptr %28, i64 3, i32 0, i32 0, i32 2
  %157 = load ptr, ptr %156, align 8, !tbaa !25, !noalias !160
  %158 = getelementptr inbounds %"class.std::deque.3", ptr %28, i64 3, i32 0, i32 0, i32 2, i32 1
  %159 = load ptr, ptr %158, align 8, !tbaa !30, !noalias !160
  %160 = getelementptr inbounds %"class.std::deque.3", ptr %28, i64 3, i32 0, i32 0, i32 2, i32 2
  %161 = load ptr, ptr %160, align 8, !tbaa !31, !noalias !160
  %162 = getelementptr inbounds %"class.std::deque.3", ptr %28, i64 3, i32 0, i32 0, i32 2, i32 3
  %163 = load ptr, ptr %162, align 8, !tbaa !32, !noalias !160
  %164 = getelementptr inbounds %"class.std::deque.3", ptr %28, i64 3, i32 0, i32 0, i32 3
  %165 = load ptr, ptr %164, align 8, !tbaa !25, !noalias !163
  %166 = getelementptr inbounds %"class.std::deque.3", ptr %28, i64 3, i32 0, i32 0, i32 3, i32 1
  %167 = load ptr, ptr %166, align 8, !tbaa !30, !noalias !163
  %168 = getelementptr inbounds %"class.std::deque.3", ptr %28, i64 3, i32 0, i32 0, i32 3, i32 2
  %169 = load ptr, ptr %168, align 8, !tbaa !31, !noalias !163
  %170 = getelementptr inbounds %"class.std::deque.3", ptr %28, i64 3, i32 0, i32 0, i32 3, i32 3
  %171 = load ptr, ptr %170, align 8, !tbaa !32, !noalias !163
  call void @llvm.lifetime.start.p0(i64 32, ptr nonnull %4)
  call void @llvm.lifetime.start.p0(i64 32, ptr nonnull %5)
  store ptr %157, ptr %4, align 8, !tbaa !25
  store ptr %159, ptr %13, align 8, !tbaa !30
  store ptr %161, ptr %14, align 8, !tbaa !31
  store ptr %163, ptr %15, align 8, !tbaa !32
  store ptr %165, ptr %5, align 8, !tbaa !25
  store ptr %167, ptr %16, align 8, !tbaa !30
  store ptr %169, ptr %17, align 8, !tbaa !31
  store ptr %171, ptr %18, align 8, !tbaa !32
  invoke void @_ZNSt5dequeIN10xalanc_1_89NameSpaceESaIS1_EE19_M_destroy_data_auxESt15_Deque_iteratorIS1_RS1_PS1_ES7_(ptr noundef nonnull align 8 dereferenceable(80) %155, ptr noundef nonnull %4, ptr noundef nonnull %5)
          to label %172 unwind label %62

172:                                              ; preds = %154
  call void @llvm.lifetime.end.p0(i64 32, ptr nonnull %4)
  call void @llvm.lifetime.end.p0(i64 32, ptr nonnull %5)
  %173 = load ptr, ptr %155, align 8, !tbaa !36
  %174 = icmp eq ptr %173, null
  br i1 %174, label %189, label %175

175:                                              ; preds = %172
  %176 = load ptr, ptr %162, align 8, !tbaa !40
  %177 = load ptr, ptr %170, align 8, !tbaa !41
  %178 = getelementptr inbounds ptr, ptr %177, i64 1
  %179 = icmp ult ptr %176, %178
  br i1 %179, label %180, label %187

180:                                              ; preds = %175, %180
  %181 = phi ptr [ %183, %180 ], [ %176, %175 ]
  %182 = load ptr, ptr %181, align 8, !tbaa !42
  call void @_ZdlPv(ptr noundef %182) #12
  %183 = getelementptr inbounds ptr, ptr %181, i64 1
  %184 = icmp ult ptr %181, %177
  br i1 %184, label %180, label %185

185:                                              ; preds = %180
  %186 = load ptr, ptr %155, align 8, !tbaa !36
  br label %187

187:                                              ; preds = %185, %175
  %188 = phi ptr [ %186, %185 ], [ %173, %175 ]
  call void @_ZdlPv(ptr noundef %188) #12
  br label %189

189:                                              ; preds = %187, %172
  %190 = getelementptr inbounds %"class.std::deque.3", ptr %28, i64 4
  %191 = getelementptr inbounds %"class.std::deque.3", ptr %28, i64 4, i32 0, i32 0, i32 2
  %192 = load ptr, ptr %191, align 8, !tbaa !25, !noalias !160
  %193 = getelementptr inbounds %"class.std::deque.3", ptr %28, i64 4, i32 0, i32 0, i32 2, i32 1
  %194 = load ptr, ptr %193, align 8, !tbaa !30, !noalias !160
  %195 = getelementptr inbounds %"class.std::deque.3", ptr %28, i64 4, i32 0, i32 0, i32 2, i32 2
  %196 = load ptr, ptr %195, align 8, !tbaa !31, !noalias !160
  %197 = getelementptr inbounds %"class.std::deque.3", ptr %28, i64 4, i32 0, i32 0, i32 2, i32 3
  %198 = load ptr, ptr %197, align 8, !tbaa !32, !noalias !160
  %199 = getelementptr inbounds %"class.std::deque.3", ptr %28, i64 4, i32 0, i32 0, i32 3
  %200 = load ptr, ptr %199, align 8, !tbaa !25, !noalias !163
  %201 = getelementptr inbounds %"class.std::deque.3", ptr %28, i64 4, i32 0, i32 0, i32 3, i32 1
  %202 = load ptr, ptr %201, align 8, !tbaa !30, !noalias !163
  %203 = getelementptr inbounds %"class.std::deque.3", ptr %28, i64 4, i32 0, i32 0, i32 3, i32 2
  %204 = load ptr, ptr %203, align 8, !tbaa !31, !noalias !163
  %205 = getelementptr inbounds %"class.std::deque.3", ptr %28, i64 4, i32 0, i32 0, i32 3, i32 3
  %206 = load ptr, ptr %205, align 8, !tbaa !32, !noalias !163
  call void @llvm.lifetime.start.p0(i64 32, ptr nonnull %4)
  call void @llvm.lifetime.start.p0(i64 32, ptr nonnull %5)
  store ptr %192, ptr %4, align 8, !tbaa !25
  store ptr %194, ptr %13, align 8, !tbaa !30
  store ptr %196, ptr %14, align 8, !tbaa !31
  store ptr %198, ptr %15, align 8, !tbaa !32
  store ptr %200, ptr %5, align 8, !tbaa !25
  store ptr %202, ptr %16, align 8, !tbaa !30
  store ptr %204, ptr %17, align 8, !tbaa !31
  store ptr %206, ptr %18, align 8, !tbaa !32
  invoke void @_ZNSt5dequeIN10xalanc_1_89NameSpaceESaIS1_EE19_M_destroy_data_auxESt15_Deque_iteratorIS1_RS1_PS1_ES7_(ptr noundef nonnull align 8 dereferenceable(80) %190, ptr noundef nonnull %4, ptr noundef nonnull %5)
          to label %207 unwind label %62

207:                                              ; preds = %189
  call void @llvm.lifetime.end.p0(i64 32, ptr nonnull %4)
  call void @llvm.lifetime.end.p0(i64 32, ptr nonnull %5)
  %208 = load ptr, ptr %190, align 8, !tbaa !36
  %209 = icmp eq ptr %208, null
  br i1 %209, label %224, label %210

210:                                              ; preds = %207
  %211 = load ptr, ptr %197, align 8, !tbaa !40
  %212 = load ptr, ptr %205, align 8, !tbaa !41
  %213 = getelementptr inbounds ptr, ptr %212, i64 1
  %214 = icmp ult ptr %211, %213
  br i1 %214, label %215, label %222

215:                                              ; preds = %210, %215
  %216 = phi ptr [ %218, %215 ], [ %211, %210 ]
  %217 = load ptr, ptr %216, align 8, !tbaa !42
  call void @_ZdlPv(ptr noundef %217) #12
  %218 = getelementptr inbounds ptr, ptr %216, i64 1
  %219 = icmp ult ptr %216, %212
  br i1 %219, label %215, label %220

220:                                              ; preds = %215
  %221 = load ptr, ptr %190, align 8, !tbaa !36
  br label %222

222:                                              ; preds = %220, %210
  %223 = phi ptr [ %221, %220 ], [ %208, %210 ]
  call void @_ZdlPv(ptr noundef %223) #12
  br label %224

224:                                              ; preds = %222, %207
  %225 = getelementptr inbounds %"class.std::deque.3", ptr %28, i64 5
  %226 = getelementptr inbounds %"class.std::deque.3", ptr %28, i64 5, i32 0, i32 0, i32 2
  %227 = load ptr, ptr %226, align 8, !tbaa !25, !noalias !160
  %228 = getelementptr inbounds %"class.std::deque.3", ptr %28, i64 5, i32 0, i32 0, i32 2, i32 1
  %229 = load ptr, ptr %228, align 8, !tbaa !30, !noalias !160
  %230 = getelementptr inbounds %"class.std::deque.3", ptr %28, i64 5, i32 0, i32 0, i32 2, i32 2
  %231 = load ptr, ptr %230, align 8, !tbaa !31, !noalias !160
  %232 = getelementptr inbounds %"class.std::deque.3", ptr %28, i64 5, i32 0, i32 0, i32 2, i32 3
  %233 = load ptr, ptr %232, align 8, !tbaa !32, !noalias !160
  %234 = getelementptr inbounds %"class.std::deque.3", ptr %28, i64 5, i32 0, i32 0, i32 3
  %235 = load ptr, ptr %234, align 8, !tbaa !25, !noalias !163
  %236 = getelementptr inbounds %"class.std::deque.3", ptr %28, i64 5, i32 0, i32 0, i32 3, i32 1
  %237 = load ptr, ptr %236, align 8, !tbaa !30, !noalias !163
  %238 = getelementptr inbounds %"class.std::deque.3", ptr %28, i64 5, i32 0, i32 0, i32 3, i32 2
  %239 = load ptr, ptr %238, align 8, !tbaa !31, !noalias !163
  %240 = getelementptr inbounds %"class.std::deque.3", ptr %28, i64 5, i32 0, i32 0, i32 3, i32 3
  %241 = load ptr, ptr %240, align 8, !tbaa !32, !noalias !163
  call void @llvm.lifetime.start.p0(i64 32, ptr nonnull %4)
  call void @llvm.lifetime.start.p0(i64 32, ptr nonnull %5)
  store ptr %227, ptr %4, align 8, !tbaa !25
  store ptr %229, ptr %13, align 8, !tbaa !30
  store ptr %231, ptr %14, align 8, !tbaa !31
  store ptr %233, ptr %15, align 8, !tbaa !32
  store ptr %235, ptr %5, align 8, !tbaa !25
  store ptr %237, ptr %16, align 8, !tbaa !30
  store ptr %239, ptr %17, align 8, !tbaa !31
  store ptr %241, ptr %18, align 8, !tbaa !32
  invoke void @_ZNSt5dequeIN10xalanc_1_89NameSpaceESaIS1_EE19_M_destroy_data_auxESt15_Deque_iteratorIS1_RS1_PS1_ES7_(ptr noundef nonnull align 8 dereferenceable(80) %225, ptr noundef nonnull %4, ptr noundef nonnull %5)
          to label %242 unwind label %62

242:                                              ; preds = %224
  call void @llvm.lifetime.end.p0(i64 32, ptr nonnull %4)
  call void @llvm.lifetime.end.p0(i64 32, ptr nonnull %5)
  %243 = load ptr, ptr %225, align 8, !tbaa !36
  %244 = icmp eq ptr %243, null
  br i1 %244, label %259, label %245

245:                                              ; preds = %242
  %246 = load ptr, ptr %232, align 8, !tbaa !40
  %247 = load ptr, ptr %240, align 8, !tbaa !41
  %248 = getelementptr inbounds ptr, ptr %247, i64 1
  %249 = icmp ult ptr %246, %248
  br i1 %249, label %250, label %257

250:                                              ; preds = %245, %250
  %251 = phi ptr [ %253, %250 ], [ %246, %245 ]
  %252 = load ptr, ptr %251, align 8, !tbaa !42
  call void @_ZdlPv(ptr noundef %252) #12
  %253 = getelementptr inbounds ptr, ptr %251, i64 1
  %254 = icmp ult ptr %251, %247
  br i1 %254, label %250, label %255

255:                                              ; preds = %250
  %256 = load ptr, ptr %225, align 8, !tbaa !36
  br label %257

257:                                              ; preds = %255, %245
  %258 = phi ptr [ %256, %255 ], [ %243, %245 ]
  call void @_ZdlPv(ptr noundef %258) #12
  br label %259

259:                                              ; preds = %257, %242
  %260 = getelementptr inbounds ptr, ptr %27, i64 1
  %261 = load ptr, ptr %8, align 8, !tbaa !17
  %262 = icmp ult ptr %260, %261
  br i1 %262, label %26, label %19

263:                                              ; preds = %21
  %264 = getelementptr inbounds %"struct.std::_Deque_iterator", ptr %1, i64 0, i32 2
  %265 = load ptr, ptr %264, align 8, !tbaa !16
  %266 = icmp eq ptr %25, %265
  br i1 %266, label %271, label %267

267:                                              ; preds = %263, %267
  %268 = phi ptr [ %269, %267 ], [ %25, %263 ]
  call void @_ZNSt5dequeIN10xalanc_1_89NameSpaceESaIS1_EED2Ev(ptr noundef nonnull align 8 dereferenceable(80) %268)
  %269 = getelementptr inbounds %"class.std::deque.3", ptr %268, i64 1
  %270 = icmp eq ptr %269, %265
  br i1 %270, label %271, label %267

271:                                              ; preds = %267, %263
  %272 = getelementptr inbounds %"struct.std::_Deque_iterator", ptr %2, i64 0, i32 1
  %273 = load ptr, ptr %272, align 8, !tbaa !15
  %274 = load ptr, ptr %2, align 8, !tbaa !10
  %275 = icmp eq ptr %273, %274
  br i1 %275, label %287, label %276

276:                                              ; preds = %271, %276
  %277 = phi ptr [ %278, %276 ], [ %273, %271 ]
  call void @_ZNSt5dequeIN10xalanc_1_89NameSpaceESaIS1_EED2Ev(ptr noundef nonnull align 8 dereferenceable(80) %277)
  %278 = getelementptr inbounds %"class.std::deque.3", ptr %277, i64 1
  %279 = icmp eq ptr %278, %274
  br i1 %279, label %287, label %276

280:                                              ; preds = %21
  %281 = load ptr, ptr %2, align 8, !tbaa !10
  %282 = icmp eq ptr %25, %281
  br i1 %282, label %287, label %283

283:                                              ; preds = %280, %283
  %284 = phi ptr [ %285, %283 ], [ %25, %280 ]
  call void @_ZNSt5dequeIN10xalanc_1_89NameSpaceESaIS1_EED2Ev(ptr noundef nonnull align 8 dereferenceable(80) %284)
  %285 = getelementptr inbounds %"class.std::deque.3", ptr %284, i64 1
  %286 = icmp eq ptr %285, %281
  br i1 %286, label %287, label %283

287:                                              ; preds = %276, %283, %280, %271
  ret void
}

; Function Attrs: uwtable
define linkonce_odr dso_local void @_ZNSt5dequeIS_IN10xalanc_1_89NameSpaceESaIS1_EESaIS3_EE14_M_fill_insertESt15_Deque_iteratorIS3_RS3_PS3_EmRKS3_(ptr noundef nonnull align 8 dereferenceable(80) %0, ptr noundef %1, i64 noundef %2, ptr noundef nonnull align 8 dereferenceable(80) %3) local_unnamed_addr #0 comdat align 2 personality ptr @__gxx_personality_v0 {
  %5 = alloca %"struct.std::_Deque_iterator", align 8
  %6 = alloca %"struct.std::_Deque_iterator", align 8
  %7 = alloca %"struct.std::_Deque_iterator", align 8
  %8 = alloca %"struct.std::_Deque_iterator", align 8
  %9 = alloca %"struct.std::_Deque_iterator", align 8
  %10 = load ptr, ptr %1, align 8, !tbaa !10
  %11 = getelementptr inbounds %"struct.std::_Deque_base<std::deque<xalanc_1_8::NameSpace>, std::allocator<std::deque<xalanc_1_8::NameSpace> > >::_Deque_impl", ptr %0, i64 0, i32 2
  %12 = load ptr, ptr %11, align 8, !tbaa !10
  %13 = icmp eq ptr %10, %12
  br i1 %13, label %14, label %85

14:                                               ; preds = %4
  %15 = getelementptr inbounds %"struct.std::_Deque_base<std::deque<xalanc_1_8::NameSpace>, std::allocator<std::deque<xalanc_1_8::NameSpace> > >::_Deque_impl", ptr %0, i64 0, i32 2, i32 1
  %16 = load ptr, ptr %15, align 8, !tbaa !15
  %17 = ptrtoint ptr %10 to i64
  %18 = ptrtoint ptr %16 to i64
  %19 = sub i64 %17, %18
  %20 = sdiv exact i64 %19, 80
  %21 = icmp ult i64 %20, %2
  br i1 %21, label %22, label %30

22:                                               ; preds = %14
  %23 = sub i64 %2, %20
  tail call void @_ZNSt5dequeIS_IN10xalanc_1_89NameSpaceESaIS1_EESaIS3_EE24_M_new_elements_at_frontEm(ptr noundef nonnull align 8 dereferenceable(80) %0, i64 noundef %23), !noalias !166
  %24 = load ptr, ptr %11, align 8, !tbaa !10
  %25 = load ptr, ptr %15, align 8, !tbaa !15
  %26 = ptrtoint ptr %24 to i64
  %27 = ptrtoint ptr %25 to i64
  %28 = sub i64 %26, %27
  %29 = sdiv exact i64 %28, 80
  br label %30

30:                                               ; preds = %22, %14
  %31 = phi ptr [ %24, %22 ], [ %10, %14 ]
  %32 = phi i64 [ %29, %22 ], [ %20, %14 ]
  %33 = phi ptr [ %25, %22 ], [ %16, %14 ]
  %34 = getelementptr inbounds %"struct.std::_Deque_base<std::deque<xalanc_1_8::NameSpace>, std::allocator<std::deque<xalanc_1_8::NameSpace> > >::_Deque_impl", ptr %0, i64 0, i32 2, i32 2
  %35 = load ptr, ptr %34, align 8, !tbaa !16
  %36 = getelementptr inbounds %"struct.std::_Deque_base<std::deque<xalanc_1_8::NameSpace>, std::allocator<std::deque<xalanc_1_8::NameSpace> > >::_Deque_impl", ptr %0, i64 0, i32 2, i32 3
  %37 = load ptr, ptr %36, align 8, !tbaa !17
  %38 = sub nsw i64 0, %2
  %39 = sub i64 %32, %2
  %40 = icmp sgt i64 %39, -1
  br i1 %40, label %41, label %47

41:                                               ; preds = %30
  %42 = icmp ult i64 %39, 6
  br i1 %42, label %43, label %45

43:                                               ; preds = %41
  %44 = getelementptr inbounds %"class.std::deque.3", ptr %31, i64 %38
  br label %59

45:                                               ; preds = %41
  %46 = udiv i64 %39, 6
  br label %51

47:                                               ; preds = %30
  %48 = xor i64 %39, -1
  %49 = udiv i64 %48, 6
  %50 = xor i64 %49, -1
  br label %51

51:                                               ; preds = %47, %45
  %52 = phi i64 [ %46, %45 ], [ %50, %47 ]
  %53 = getelementptr inbounds ptr, ptr %37, i64 %52
  %54 = load ptr, ptr %53, align 8, !tbaa !42, !noalias !169
  %55 = getelementptr inbounds %"class.std::deque.3", ptr %54, i64 6
  %56 = mul i64 %52, -6
  %57 = add i64 %56, %39
  %58 = getelementptr inbounds %"class.std::deque.3", ptr %54, i64 %57
  br label %59

59:                                               ; preds = %43, %51
  %60 = phi ptr [ %37, %43 ], [ %53, %51 ]
  %61 = phi ptr [ %35, %43 ], [ %55, %51 ]
  %62 = phi ptr [ %33, %43 ], [ %54, %51 ]
  %63 = phi ptr [ %44, %43 ], [ %58, %51 ]
  call void @llvm.lifetime.start.p0(i64 32, ptr nonnull %7)
  call void @llvm.lifetime.start.p0(i64 32, ptr nonnull %8)
  store ptr %63, ptr %7, align 8, !tbaa !10
  %64 = getelementptr inbounds %"struct.std::_Deque_iterator", ptr %7, i64 0, i32 1
  store ptr %62, ptr %64, align 8, !tbaa !15
  %65 = getelementptr inbounds %"struct.std::_Deque_iterator", ptr %7, i64 0, i32 2
  store ptr %61, ptr %65, align 8, !tbaa !16
  %66 = getelementptr inbounds %"struct.std::_Deque_iterator", ptr %7, i64 0, i32 3
  store ptr %60, ptr %66, align 8, !tbaa !17
  store ptr %31, ptr %8, align 8, !tbaa !10
  %67 = getelementptr inbounds %"struct.std::_Deque_iterator", ptr %8, i64 0, i32 1
  store ptr %33, ptr %67, align 8, !tbaa !15
  %68 = getelementptr inbounds %"struct.std::_Deque_iterator", ptr %8, i64 0, i32 2
  store ptr %35, ptr %68, align 8, !tbaa !16
  %69 = getelementptr inbounds %"struct.std::_Deque_iterator", ptr %8, i64 0, i32 3
  store ptr %37, ptr %69, align 8, !tbaa !17
  invoke void @_ZNSt20__uninitialized_fillILb0EE13__uninit_fillISt15_Deque_iteratorISt5dequeIN10xalanc_1_89NameSpaceESaIS5_EERS7_PS7_ES7_EEvT_SB_RKT0_(ptr noundef nonnull %7, ptr noundef nonnull %8, ptr noundef nonnull align 8 dereferenceable(80) %3)
          to label %70 unwind label %71

70:                                               ; preds = %59
  call void @llvm.lifetime.end.p0(i64 32, ptr nonnull %7)
  call void @llvm.lifetime.end.p0(i64 32, ptr nonnull %8)
  store ptr %63, ptr %11, align 8, !tbaa.struct !61
  store ptr %62, ptr %15, align 8, !tbaa.struct !62
  store ptr %61, ptr %34, align 8, !tbaa.struct !63
  store ptr %60, ptr %36, align 8, !tbaa.struct !64
  br label %170

71:                                               ; preds = %59
  %72 = landingpad { ptr, i32 }
          catch ptr null
  %73 = extractvalue { ptr, i32 } %72, 0
  %74 = call ptr @__cxa_begin_catch(ptr %73) #12
  %75 = load ptr, ptr %36, align 8, !tbaa !52
  %76 = icmp ult ptr %60, %75
  br i1 %76, label %77, label %82

77:                                               ; preds = %71, %77
  %78 = phi ptr [ %80, %77 ], [ %60, %71 ]
  %79 = load ptr, ptr %78, align 8, !tbaa !42
  call void @_ZdlPv(ptr noundef %79) #12
  %80 = getelementptr inbounds ptr, ptr %78, i64 1
  %81 = icmp ult ptr %80, %75
  br i1 %81, label %77, label %82

82:                                               ; preds = %77, %71
  invoke void @__cxa_rethrow() #14
          to label %176 unwind label %83

83:                                               ; preds = %82
  %84 = landingpad { ptr, i32 }
          cleanup
  invoke void @__cxa_end_catch()
          to label %171 unwind label %173

85:                                               ; preds = %4
  %86 = getelementptr inbounds %"struct.std::_Deque_base<std::deque<xalanc_1_8::NameSpace>, std::allocator<std::deque<xalanc_1_8::NameSpace> > >::_Deque_impl", ptr %0, i64 0, i32 3
  %87 = load ptr, ptr %86, align 8, !tbaa !10
  %88 = icmp eq ptr %10, %87
  br i1 %88, label %89, label %160

89:                                               ; preds = %85
  %90 = getelementptr inbounds %"struct.std::_Deque_base<std::deque<xalanc_1_8::NameSpace>, std::allocator<std::deque<xalanc_1_8::NameSpace> > >::_Deque_impl", ptr %0, i64 0, i32 3, i32 2
  %91 = load ptr, ptr %90, align 8, !tbaa !16
  %92 = ptrtoint ptr %91 to i64
  %93 = ptrtoint ptr %10 to i64
  %94 = sub i64 %92, %93
  %95 = sdiv exact i64 %94, 80
  %96 = add nsw i64 %95, -1
  %97 = icmp ult i64 %96, %2
  br i1 %97, label %98, label %103

98:                                               ; preds = %89
  %99 = sub i64 %2, %96
  tail call void @_ZNSt5dequeIS_IN10xalanc_1_89NameSpaceESaIS1_EESaIS3_EE23_M_new_elements_at_backEm(ptr noundef nonnull align 8 dereferenceable(80) %0, i64 noundef %99), !noalias !172
  %100 = load ptr, ptr %86, align 8, !tbaa !10
  %101 = load ptr, ptr %90, align 8, !tbaa !16
  %102 = ptrtoint ptr %100 to i64
  br label %103

103:                                              ; preds = %98, %89
  %104 = phi ptr [ %100, %98 ], [ %10, %89 ]
  %105 = phi i64 [ %102, %98 ], [ %93, %89 ]
  %106 = phi ptr [ %101, %98 ], [ %91, %89 ]
  %107 = getelementptr inbounds %"struct.std::_Deque_base<std::deque<xalanc_1_8::NameSpace>, std::allocator<std::deque<xalanc_1_8::NameSpace> > >::_Deque_impl", ptr %0, i64 0, i32 3, i32 1
  %108 = load ptr, ptr %107, align 8, !tbaa !15
  %109 = getelementptr inbounds %"struct.std::_Deque_base<std::deque<xalanc_1_8::NameSpace>, std::allocator<std::deque<xalanc_1_8::NameSpace> > >::_Deque_impl", ptr %0, i64 0, i32 3, i32 3
  %110 = load ptr, ptr %109, align 8, !tbaa !17
  %111 = ptrtoint ptr %108 to i64
  %112 = sub i64 %105, %111
  %113 = sdiv exact i64 %112, 80
  %114 = add nsw i64 %113, %2
  %115 = icmp sgt i64 %114, -1
  br i1 %115, label %116, label %122

116:                                              ; preds = %103
  %117 = icmp ult i64 %114, 6
  br i1 %117, label %118, label %120

118:                                              ; preds = %116
  %119 = getelementptr inbounds %"class.std::deque.3", ptr %104, i64 %2
  br label %134

120:                                              ; preds = %116
  %121 = udiv i64 %114, 6
  br label %126

122:                                              ; preds = %103
  %123 = xor i64 %114, -1
  %124 = udiv i64 %123, 6
  %125 = xor i64 %124, -1
  br label %126

126:                                              ; preds = %122, %120
  %127 = phi i64 [ %121, %120 ], [ %125, %122 ]
  %128 = getelementptr inbounds ptr, ptr %110, i64 %127
  %129 = load ptr, ptr %128, align 8, !tbaa !42, !noalias !175
  %130 = getelementptr inbounds %"class.std::deque.3", ptr %129, i64 6
  %131 = mul i64 %127, -6
  %132 = add i64 %131, %114
  %133 = getelementptr inbounds %"class.std::deque.3", ptr %129, i64 %132
  br label %134

134:                                              ; preds = %118, %126
  %135 = phi ptr [ %110, %118 ], [ %128, %126 ]
  %136 = phi ptr [ %106, %118 ], [ %130, %126 ]
  %137 = phi ptr [ %108, %118 ], [ %129, %126 ]
  %138 = phi ptr [ %119, %118 ], [ %133, %126 ]
  call void @llvm.lifetime.start.p0(i64 32, ptr nonnull %5)
  call void @llvm.lifetime.start.p0(i64 32, ptr nonnull %6)
  store ptr %104, ptr %5, align 8, !tbaa !10
  %139 = getelementptr inbounds %"struct.std::_Deque_iterator", ptr %5, i64 0, i32 1
  store ptr %108, ptr %139, align 8, !tbaa !15
  %140 = getelementptr inbounds %"struct.std::_Deque_iterator", ptr %5, i64 0, i32 2
  store ptr %106, ptr %140, align 8, !tbaa !16
  %141 = getelementptr inbounds %"struct.std::_Deque_iterator", ptr %5, i64 0, i32 3
  store ptr %110, ptr %141, align 8, !tbaa !17
  store ptr %138, ptr %6, align 8, !tbaa !10
  %142 = getelementptr inbounds %"struct.std::_Deque_iterator", ptr %6, i64 0, i32 1
  store ptr %137, ptr %142, align 8, !tbaa !15
  %143 = getelementptr inbounds %"struct.std::_Deque_iterator", ptr %6, i64 0, i32 2
  store ptr %136, ptr %143, align 8, !tbaa !16
  %144 = getelementptr inbounds %"struct.std::_Deque_iterator", ptr %6, i64 0, i32 3
  store ptr %135, ptr %144, align 8, !tbaa !17
  invoke void @_ZNSt20__uninitialized_fillILb0EE13__uninit_fillISt15_Deque_iteratorISt5dequeIN10xalanc_1_89NameSpaceESaIS5_EERS7_PS7_ES7_EEvT_SB_RKT0_(ptr noundef nonnull %5, ptr noundef nonnull %6, ptr noundef nonnull align 8 dereferenceable(80) %3)
          to label %145 unwind label %146

145:                                              ; preds = %134
  call void @llvm.lifetime.end.p0(i64 32, ptr nonnull %5)
  call void @llvm.lifetime.end.p0(i64 32, ptr nonnull %6)
  store ptr %138, ptr %86, align 8, !tbaa.struct !61
  store ptr %137, ptr %107, align 8, !tbaa.struct !62
  store ptr %136, ptr %90, align 8, !tbaa.struct !63
  store ptr %135, ptr %109, align 8, !tbaa.struct !64
  br label %170

146:                                              ; preds = %134
  %147 = landingpad { ptr, i32 }
          catch ptr null
  %148 = extractvalue { ptr, i32 } %147, 0
  %149 = call ptr @__cxa_begin_catch(ptr %148) #12
  %150 = load ptr, ptr %109, align 8, !tbaa !53
  %151 = icmp ult ptr %150, %135
  br i1 %151, label %152, label %157

152:                                              ; preds = %146, %152
  %153 = phi ptr [ %154, %152 ], [ %150, %146 ]
  %154 = getelementptr inbounds ptr, ptr %153, i64 1
  %155 = load ptr, ptr %154, align 8, !tbaa !42
  call void @_ZdlPv(ptr noundef %155) #12
  %156 = icmp ult ptr %154, %135
  br i1 %156, label %152, label %157

157:                                              ; preds = %152, %146
  invoke void @__cxa_rethrow() #14
          to label %176 unwind label %158

158:                                              ; preds = %157
  %159 = landingpad { ptr, i32 }
          cleanup
  invoke void @__cxa_end_catch()
          to label %171 unwind label %173

160:                                              ; preds = %85
  store ptr %10, ptr %9, align 8, !tbaa !10
  %161 = getelementptr inbounds %"struct.std::_Deque_iterator", ptr %9, i64 0, i32 1
  %162 = getelementptr inbounds %"struct.std::_Deque_iterator", ptr %1, i64 0, i32 1
  %163 = load ptr, ptr %162, align 8, !tbaa !15
  store ptr %163, ptr %161, align 8, !tbaa !15
  %164 = getelementptr inbounds %"struct.std::_Deque_iterator", ptr %9, i64 0, i32 2
  %165 = getelementptr inbounds %"struct.std::_Deque_iterator", ptr %1, i64 0, i32 2
  %166 = load ptr, ptr %165, align 8, !tbaa !16
  store ptr %166, ptr %164, align 8, !tbaa !16
  %167 = getelementptr inbounds %"struct.std::_Deque_iterator", ptr %9, i64 0, i32 3
  %168 = getelementptr inbounds %"struct.std::_Deque_iterator", ptr %1, i64 0, i32 3
  %169 = load ptr, ptr %168, align 8, !tbaa !17
  store ptr %169, ptr %167, align 8, !tbaa !17
  call void @_ZNSt5dequeIS_IN10xalanc_1_89NameSpaceESaIS1_EESaIS3_EE13_M_insert_auxESt15_Deque_iteratorIS3_RS3_PS3_EmRKS3_(ptr noundef nonnull align 8 dereferenceable(80) %0, ptr noundef nonnull %9, i64 noundef %2, ptr noundef nonnull align 8 dereferenceable(80) %3)
  br label %170

170:                                              ; preds = %145, %160, %70
  ret void

171:                                              ; preds = %158, %83
  %172 = phi { ptr, i32 } [ %84, %83 ], [ %159, %158 ]
  resume { ptr, i32 } %172

173:                                              ; preds = %158, %83
  %174 = landingpad { ptr, i32 }
          catch ptr null
  %175 = extractvalue { ptr, i32 } %174, 0
  call void @__clang_call_terminate(ptr %175) #13
  unreachable

176:                                              ; preds = %157, %82
  unreachable
}

; Function Attrs: uwtable
define linkonce_odr dso_local void @_ZNSt5dequeIS_IN10xalanc_1_89NameSpaceESaIS1_EESaIS3_EE13_M_insert_auxESt15_Deque_iteratorIS3_RS3_PS3_EmRKS3_(ptr noundef nonnull align 8 dereferenceable(80) %0, ptr noundef %1, i64 noundef %2, ptr noundef nonnull align 8 dereferenceable(80) %3) local_unnamed_addr #0 comdat align 2 personality ptr @__gxx_personality_v0 {
  %5 = alloca %"struct.std::_Deque_iterator", align 8
  %6 = alloca %"struct.std::_Deque_iterator", align 8
  %7 = alloca %"struct.std::_Deque_iterator", align 8
  %8 = alloca %"struct.std::_Deque_iterator", align 8
  %9 = alloca %"struct.std::_Deque_iterator", align 8
  %10 = alloca %"struct.std::_Deque_iterator", align 8
  %11 = alloca %"class.std::deque.3", align 8
  %12 = alloca %"struct.std::_Deque_iterator", align 8
  %13 = alloca %"struct.std::_Deque_iterator", align 8
  %14 = alloca %"struct.std::_Deque_iterator", align 8
  %15 = alloca %"struct.std::_Deque_iterator", align 8
  %16 = alloca %"struct.std::_Deque_iterator", align 8
  %17 = alloca %"struct.std::_Deque_iterator", align 8
  %18 = alloca %"struct.std::_Deque_iterator", align 8
  %19 = alloca %"struct.std::_Deque_iterator", align 8
  %20 = alloca %"struct.std::_Deque_iterator", align 8
  %21 = alloca %"struct.std::_Deque_iterator", align 8
  %22 = alloca %"struct.std::_Deque_iterator", align 8
  %23 = alloca %"struct.std::_Deque_iterator", align 8
  %24 = alloca %"struct.std::_Deque_iterator", align 8
  %25 = alloca %"struct.std::_Deque_iterator", align 8
  %26 = alloca %"struct.std::_Deque_iterator", align 8
  %27 = getelementptr inbounds %"struct.std::_Deque_base<std::deque<xalanc_1_8::NameSpace>, std::allocator<std::deque<xalanc_1_8::NameSpace> > >::_Deque_impl", ptr %0, i64 0, i32 2
  %28 = getelementptr inbounds %"struct.std::_Deque_iterator", ptr %1, i64 0, i32 3
  %29 = load ptr, ptr %28, align 8, !tbaa !17
  %30 = getelementptr inbounds %"struct.std::_Deque_base<std::deque<xalanc_1_8::NameSpace>, std::allocator<std::deque<xalanc_1_8::NameSpace> > >::_Deque_impl", ptr %0, i64 0, i32 2, i32 3
  %31 = load ptr, ptr %30, align 8, !tbaa !17
  %32 = ptrtoint ptr %29 to i64
  %33 = ptrtoint ptr %31 to i64
  %34 = sub i64 %32, %33
  %35 = ashr exact i64 %34, 3
  %36 = mul nsw i64 %35, 6
  %37 = add nsw i64 %36, -6
  %38 = load ptr, ptr %1, align 8, !tbaa !10
  %39 = getelementptr inbounds %"struct.std::_Deque_iterator", ptr %1, i64 0, i32 1
  %40 = load ptr, ptr %39, align 8, !tbaa !15
  %41 = ptrtoint ptr %38 to i64
  %42 = ptrtoint ptr %40 to i64
  %43 = sub i64 %41, %42
  %44 = sdiv exact i64 %43, 80
  %45 = add nsw i64 %37, %44
  %46 = getelementptr inbounds %"struct.std::_Deque_base<std::deque<xalanc_1_8::NameSpace>, std::allocator<std::deque<xalanc_1_8::NameSpace> > >::_Deque_impl", ptr %0, i64 0, i32 2, i32 2
  %47 = load ptr, ptr %46, align 8, !tbaa !16
  %48 = load ptr, ptr %27, align 8, !tbaa !10
  %49 = ptrtoint ptr %47 to i64
  %50 = ptrtoint ptr %48 to i64
  %51 = sub i64 %49, %50
  %52 = sdiv exact i64 %51, 80
  %53 = add nsw i64 %45, %52
  %54 = getelementptr inbounds %"struct.std::_Deque_base<std::deque<xalanc_1_8::NameSpace>, std::allocator<std::deque<xalanc_1_8::NameSpace> > >::_Deque_impl", ptr %0, i64 0, i32 3
  %55 = getelementptr inbounds %"struct.std::_Deque_base<std::deque<xalanc_1_8::NameSpace>, std::allocator<std::deque<xalanc_1_8::NameSpace> > >::_Deque_impl", ptr %0, i64 0, i32 3, i32 3
  %56 = load ptr, ptr %55, align 8, !tbaa !17
  %57 = ptrtoint ptr %56 to i64
  %58 = sub i64 %57, %33
  %59 = ashr exact i64 %58, 3
  %60 = mul nsw i64 %59, 6
  %61 = add nsw i64 %60, -6
  %62 = load ptr, ptr %54, align 8, !tbaa !10
  %63 = getelementptr inbounds %"struct.std::_Deque_base<std::deque<xalanc_1_8::NameSpace>, std::allocator<std::deque<xalanc_1_8::NameSpace> > >::_Deque_impl", ptr %0, i64 0, i32 3, i32 1
  %64 = load ptr, ptr %63, align 8, !tbaa !15
  %65 = ptrtoint ptr %62 to i64
  %66 = ptrtoint ptr %64 to i64
  %67 = sub i64 %65, %66
  %68 = sdiv exact i64 %67, 80
  %69 = add nsw i64 %61, %68
  %70 = add nsw i64 %69, %52
  call void @llvm.lifetime.start.p0(i64 80, ptr nonnull %11) #12
  call void @_ZNSt5dequeIN10xalanc_1_89NameSpaceESaIS1_EEC2ERKS3_(ptr noundef nonnull align 8 dereferenceable(80) %11, ptr noundef nonnull align 8 dereferenceable(80) %3)
  %71 = lshr i64 %70, 1
  %72 = icmp slt i64 %53, %71
  br i1 %72, label %73, label %396

73:                                               ; preds = %4
  %74 = load ptr, ptr %27, align 8, !tbaa !10
  %75 = getelementptr inbounds %"struct.std::_Deque_base<std::deque<xalanc_1_8::NameSpace>, std::allocator<std::deque<xalanc_1_8::NameSpace> > >::_Deque_impl", ptr %0, i64 0, i32 2, i32 1
  %76 = load ptr, ptr %75, align 8, !tbaa !15
  %77 = ptrtoint ptr %74 to i64
  %78 = ptrtoint ptr %76 to i64
  %79 = sub i64 %77, %78
  %80 = sdiv exact i64 %79, 80
  %81 = icmp ult i64 %80, %2
  br i1 %81, label %82, label %91

82:                                               ; preds = %73
  %83 = sub i64 %2, %80
  invoke void @_ZNSt5dequeIS_IN10xalanc_1_89NameSpaceESaIS1_EESaIS3_EE24_M_new_elements_at_frontEm(ptr noundef nonnull align 8 dereferenceable(80) %0, i64 noundef %83)
          to label %84 unwind label %353

84:                                               ; preds = %82
  %85 = load ptr, ptr %27, align 8, !tbaa !10
  %86 = load ptr, ptr %75, align 8, !tbaa !15
  %87 = ptrtoint ptr %85 to i64
  %88 = ptrtoint ptr %86 to i64
  %89 = sub i64 %87, %88
  %90 = sdiv exact i64 %89, 80
  br label %91

91:                                               ; preds = %84, %73
  %92 = phi i64 [ %90, %84 ], [ %80, %73 ]
  %93 = phi ptr [ %86, %84 ], [ %76, %73 ]
  %94 = phi ptr [ %85, %84 ], [ %74, %73 ]
  %95 = load ptr, ptr %46, align 8, !tbaa !16
  %96 = load ptr, ptr %30, align 8, !tbaa !17
  %97 = sub nsw i64 0, %2
  %98 = sub i64 %92, %2
  %99 = icmp sgt i64 %98, -1
  br i1 %99, label %100, label %106

100:                                              ; preds = %91
  %101 = icmp ult i64 %98, 6
  br i1 %101, label %102, label %104

102:                                              ; preds = %100
  %103 = getelementptr inbounds %"class.std::deque.3", ptr %94, i64 %97
  br label %118

104:                                              ; preds = %100
  %105 = udiv i64 %98, 6
  br label %110

106:                                              ; preds = %91
  %107 = xor i64 %98, -1
  %108 = udiv i64 %107, 6
  %109 = xor i64 %108, -1
  br label %110

110:                                              ; preds = %106, %104
  %111 = phi i64 [ %105, %104 ], [ %109, %106 ]
  %112 = getelementptr inbounds ptr, ptr %96, i64 %111
  %113 = load ptr, ptr %112, align 8, !tbaa !42, !noalias !178
  %114 = getelementptr inbounds %"class.std::deque.3", ptr %113, i64 6
  %115 = mul i64 %111, -6
  %116 = add i64 %115, %98
  %117 = getelementptr inbounds %"class.std::deque.3", ptr %113, i64 %116
  br label %118

118:                                              ; preds = %110, %102
  %119 = phi ptr [ %96, %102 ], [ %112, %110 ]
  %120 = phi ptr [ %95, %102 ], [ %114, %110 ]
  %121 = phi ptr [ %93, %102 ], [ %113, %110 ]
  %122 = phi ptr [ %103, %102 ], [ %117, %110 ]
  call void @llvm.lifetime.start.p0(i64 32, ptr nonnull %12) #12
  store ptr %94, ptr %12, align 8, !tbaa !10
  %123 = getelementptr inbounds %"struct.std::_Deque_iterator", ptr %12, i64 0, i32 1
  store ptr %93, ptr %123, align 8, !tbaa !15
  %124 = getelementptr inbounds %"struct.std::_Deque_iterator", ptr %12, i64 0, i32 2
  store ptr %95, ptr %124, align 8, !tbaa !16
  %125 = getelementptr inbounds %"struct.std::_Deque_iterator", ptr %12, i64 0, i32 3
  store ptr %96, ptr %125, align 8, !tbaa !17
  %126 = ptrtoint ptr %94 to i64
  %127 = ptrtoint ptr %93 to i64
  %128 = sub i64 %126, %127
  %129 = sdiv exact i64 %128, 80
  %130 = add nsw i64 %129, %53
  %131 = icmp sgt i64 %130, -1
  br i1 %131, label %132, label %138

132:                                              ; preds = %118
  %133 = icmp ult i64 %130, 6
  br i1 %133, label %134, label %136

134:                                              ; preds = %132
  %135 = getelementptr inbounds %"class.std::deque.3", ptr %94, i64 %53
  br label %150

136:                                              ; preds = %132
  %137 = udiv i64 %130, 6
  br label %142

138:                                              ; preds = %118
  %139 = xor i64 %130, -1
  %140 = udiv i64 %139, 6
  %141 = xor i64 %140, -1
  br label %142

142:                                              ; preds = %138, %136
  %143 = phi i64 [ %137, %136 ], [ %141, %138 ]
  %144 = getelementptr inbounds ptr, ptr %96, i64 %143
  %145 = load ptr, ptr %144, align 8, !tbaa !42, !noalias !183
  %146 = getelementptr inbounds %"class.std::deque.3", ptr %145, i64 6
  %147 = mul nsw i64 %143, -6
  %148 = add i64 %147, %130
  %149 = getelementptr inbounds %"class.std::deque.3", ptr %145, i64 %148
  br label %150

150:                                              ; preds = %142, %134
  %151 = phi ptr [ %96, %134 ], [ %144, %142 ]
  %152 = phi ptr [ %95, %134 ], [ %146, %142 ]
  %153 = phi ptr [ %93, %134 ], [ %145, %142 ]
  %154 = phi ptr [ %135, %134 ], [ %149, %142 ]
  store ptr %154, ptr %1, align 8, !tbaa.struct !61
  store ptr %153, ptr %39, align 8, !tbaa.struct !62
  %155 = getelementptr inbounds i8, ptr %1, i64 16
  store ptr %152, ptr %155, align 8, !tbaa.struct !63
  store ptr %151, ptr %28, align 8, !tbaa.struct !64
  %156 = icmp slt i64 %53, %2
  %157 = load ptr, ptr %27, align 8, !tbaa !10
  br i1 %156, label %361, label %158

158:                                              ; preds = %150
  %159 = load ptr, ptr %75, align 8, !tbaa !15
  %160 = load ptr, ptr %46, align 8, !tbaa !16
  %161 = load ptr, ptr %30, align 8, !tbaa !17
  %162 = ptrtoint ptr %157 to i64
  %163 = ptrtoint ptr %159 to i64
  %164 = sub i64 %162, %163
  %165 = sdiv exact i64 %164, 80
  %166 = add nsw i64 %165, %2
  %167 = icmp sgt i64 %166, -1
  br i1 %167, label %168, label %174

168:                                              ; preds = %158
  %169 = icmp ult i64 %166, 6
  br i1 %169, label %170, label %172

170:                                              ; preds = %168
  %171 = getelementptr inbounds %"class.std::deque.3", ptr %157, i64 %2
  br label %186

172:                                              ; preds = %168
  %173 = udiv i64 %166, 6
  br label %178

174:                                              ; preds = %158
  %175 = xor i64 %166, -1
  %176 = udiv i64 %175, 6
  %177 = xor i64 %176, -1
  br label %178

178:                                              ; preds = %174, %172
  %179 = phi i64 [ %173, %172 ], [ %177, %174 ]
  %180 = getelementptr inbounds ptr, ptr %161, i64 %179
  %181 = load ptr, ptr %180, align 8, !tbaa !42, !noalias !186
  %182 = getelementptr inbounds %"class.std::deque.3", ptr %181, i64 6
  %183 = mul i64 %179, -6
  %184 = add i64 %183, %166
  %185 = getelementptr inbounds %"class.std::deque.3", ptr %181, i64 %184
  br label %186

186:                                              ; preds = %178, %170
  %187 = phi ptr [ %161, %170 ], [ %180, %178 ]
  %188 = phi ptr [ %160, %170 ], [ %182, %178 ]
  %189 = phi ptr [ %159, %170 ], [ %181, %178 ]
  %190 = phi ptr [ %171, %170 ], [ %185, %178 ]
  call void @llvm.lifetime.start.p0(i64 32, ptr nonnull %13) #12
  call void @llvm.lifetime.start.p0(i64 32, ptr nonnull %8), !noalias !189
  call void @llvm.lifetime.start.p0(i64 32, ptr nonnull %9), !noalias !189
  call void @llvm.lifetime.start.p0(i64 32, ptr nonnull %10), !noalias !189
  store ptr %157, ptr %8, align 8, !tbaa !10, !noalias !194
  %191 = getelementptr inbounds %"struct.std::_Deque_iterator", ptr %8, i64 0, i32 1
  store ptr %159, ptr %191, align 8, !tbaa !15, !noalias !194
  %192 = getelementptr inbounds %"struct.std::_Deque_iterator", ptr %8, i64 0, i32 2
  store ptr %160, ptr %192, align 8, !tbaa !16, !noalias !194
  %193 = getelementptr inbounds %"struct.std::_Deque_iterator", ptr %8, i64 0, i32 3
  store ptr %161, ptr %193, align 8, !tbaa !17, !noalias !194
  store ptr %190, ptr %9, align 8, !tbaa !10, !noalias !194
  %194 = getelementptr inbounds %"struct.std::_Deque_iterator", ptr %9, i64 0, i32 1
  store ptr %189, ptr %194, align 8, !tbaa !15, !noalias !194
  %195 = getelementptr inbounds %"struct.std::_Deque_iterator", ptr %9, i64 0, i32 2
  store ptr %188, ptr %195, align 8, !tbaa !16, !noalias !194
  %196 = getelementptr inbounds %"struct.std::_Deque_iterator", ptr %9, i64 0, i32 3
  store ptr %187, ptr %196, align 8, !tbaa !17, !noalias !194
  store ptr %122, ptr %10, align 8, !tbaa !10, !noalias !194
  %197 = getelementptr inbounds %"struct.std::_Deque_iterator", ptr %10, i64 0, i32 1
  store ptr %121, ptr %197, align 8, !tbaa !15, !noalias !194
  %198 = getelementptr inbounds %"struct.std::_Deque_iterator", ptr %10, i64 0, i32 2
  store ptr %120, ptr %198, align 8, !tbaa !16, !noalias !194
  %199 = getelementptr inbounds %"struct.std::_Deque_iterator", ptr %10, i64 0, i32 3
  store ptr %119, ptr %199, align 8, !tbaa !17, !noalias !194
  invoke void @_ZNSt20__uninitialized_copyILb0EE13__uninit_copyISt15_Deque_iteratorISt5dequeIN10xalanc_1_89NameSpaceESaIS5_EERS7_PS7_ESA_EET0_T_SC_SB_(ptr nonnull sret(%"struct.std::_Deque_iterator") align 8 %13, ptr noundef nonnull %8, ptr noundef nonnull %9, ptr noundef nonnull %10)
          to label %200 unwind label %355

200:                                              ; preds = %186
  call void @llvm.lifetime.end.p0(i64 32, ptr nonnull %8), !noalias !189
  call void @llvm.lifetime.end.p0(i64 32, ptr nonnull %9), !noalias !189
  call void @llvm.lifetime.end.p0(i64 32, ptr nonnull %10), !noalias !189
  call void @llvm.lifetime.end.p0(i64 32, ptr nonnull %13) #12
  store ptr %122, ptr %27, align 8, !tbaa.struct !61
  store ptr %121, ptr %75, align 8, !tbaa.struct !62
  store ptr %120, ptr %46, align 8, !tbaa.struct !63
  store ptr %119, ptr %30, align 8, !tbaa.struct !64
  %201 = load ptr, ptr %1, align 8, !tbaa !10
  %202 = load ptr, ptr %39, align 8, !tbaa !15
  %203 = load ptr, ptr %28, align 8, !tbaa !17
  %204 = ptrtoint ptr %203 to i64
  %205 = ptrtoint ptr %187 to i64
  %206 = sub i64 %204, %205
  %207 = ashr exact i64 %206, 3
  %208 = mul nsw i64 %207, 6
  %209 = ptrtoint ptr %201 to i64
  %210 = ptrtoint ptr %202 to i64
  %211 = sub i64 %209, %210
  %212 = sdiv exact i64 %211, 80
  %213 = ptrtoint ptr %188 to i64
  %214 = ptrtoint ptr %190 to i64
  %215 = sub i64 %213, %214
  %216 = sdiv exact i64 %215, 80
  %217 = add nsw i64 %216, -6
  %218 = add nsw i64 %217, %212
  %219 = add nsw i64 %218, %208
  %220 = icmp sgt i64 %219, 0
  br i1 %220, label %221, label %318

221:                                              ; preds = %200, %303
  %222 = phi ptr [ %276, %303 ], [ %189, %200 ]
  %223 = phi ptr [ %304, %303 ], [ %96, %200 ]
  %224 = phi ptr [ %305, %303 ], [ %95, %200 ]
  %225 = phi ptr [ %306, %303 ], [ %93, %200 ]
  %226 = phi ptr [ %307, %303 ], [ %94, %200 ]
  %227 = phi i64 [ %308, %303 ], [ %219, %200 ]
  %228 = phi ptr [ %278, %303 ], [ %188, %200 ]
  %229 = phi ptr [ %279, %303 ], [ %190, %200 ]
  %230 = phi ptr [ %277, %303 ], [ %187, %200 ]
  %231 = ptrtoint ptr %228 to i64
  %232 = ptrtoint ptr %229 to i64
  %233 = sub i64 %231, %232
  %234 = sdiv exact i64 %233, 80
  %235 = ptrtoint ptr %224 to i64
  %236 = ptrtoint ptr %226 to i64
  %237 = sub i64 %235, %236
  %238 = sdiv exact i64 %237, 80
  %239 = call i64 @llvm.smin.i64(i64 %238, i64 %234)
  %240 = call i64 @llvm.smin.i64(i64 %239, i64 %227)
  %241 = getelementptr inbounds %"class.std::deque.3", ptr %229, i64 %240
  %242 = icmp sgt i64 %240, 0
  br i1 %242, label %243, label %253

243:                                              ; preds = %221, %248
  %244 = phi i64 [ %251, %248 ], [ %240, %221 ]
  %245 = phi ptr [ %250, %248 ], [ %226, %221 ]
  %246 = phi ptr [ %249, %248 ], [ %229, %221 ]
  %247 = invoke noundef nonnull align 8 dereferenceable(80) ptr @_ZNSt5dequeIN10xalanc_1_89NameSpaceESaIS1_EEaSERKS3_(ptr noundef nonnull align 8 dereferenceable(80) %245, ptr noundef nonnull align 8 dereferenceable(80) %246)
          to label %248 unwind label %357

248:                                              ; preds = %243
  %249 = getelementptr inbounds %"class.std::deque.3", ptr %246, i64 1
  %250 = getelementptr inbounds %"class.std::deque.3", ptr %245, i64 1
  %251 = add nsw i64 %244, -1
  %252 = icmp ugt i64 %244, 1
  br i1 %252, label %243, label %253

253:                                              ; preds = %248, %221
  %254 = ptrtoint ptr %222 to i64
  %255 = sub i64 %232, %254
  %256 = sdiv exact i64 %255, 80
  %257 = add nsw i64 %240, %256
  %258 = icmp sgt i64 %257, -1
  br i1 %258, label %259, label %263

259:                                              ; preds = %253
  %260 = icmp ult i64 %257, 6
  br i1 %260, label %275, label %261

261:                                              ; preds = %259
  %262 = udiv i64 %257, 6
  br label %267

263:                                              ; preds = %253
  %264 = xor i64 %257, -1
  %265 = udiv i64 %264, 6
  %266 = xor i64 %265, -1
  br label %267

267:                                              ; preds = %263, %261
  %268 = phi i64 [ %262, %261 ], [ %266, %263 ]
  %269 = getelementptr inbounds ptr, ptr %230, i64 %268
  %270 = load ptr, ptr %269, align 8, !tbaa !42, !noalias !197
  %271 = getelementptr inbounds %"class.std::deque.3", ptr %270, i64 6
  %272 = mul i64 %268, -6
  %273 = add i64 %272, %257
  %274 = getelementptr inbounds %"class.std::deque.3", ptr %270, i64 %273
  br label %275

275:                                              ; preds = %267, %259
  %276 = phi ptr [ %222, %259 ], [ %270, %267 ]
  %277 = phi ptr [ %230, %259 ], [ %269, %267 ]
  %278 = phi ptr [ %228, %259 ], [ %271, %267 ]
  %279 = phi ptr [ %241, %259 ], [ %274, %267 ]
  %280 = ptrtoint ptr %225 to i64
  %281 = sub i64 %236, %280
  %282 = sdiv exact i64 %281, 80
  %283 = add nsw i64 %240, %282
  %284 = icmp sgt i64 %283, -1
  br i1 %284, label %285, label %291

285:                                              ; preds = %275
  %286 = icmp ult i64 %283, 6
  br i1 %286, label %287, label %289

287:                                              ; preds = %285
  %288 = getelementptr inbounds %"class.std::deque.3", ptr %226, i64 %240
  br label %303

289:                                              ; preds = %285
  %290 = udiv i64 %283, 6
  br label %295

291:                                              ; preds = %275
  %292 = xor i64 %283, -1
  %293 = udiv i64 %292, 6
  %294 = xor i64 %293, -1
  br label %295

295:                                              ; preds = %291, %289
  %296 = phi i64 [ %290, %289 ], [ %294, %291 ]
  %297 = getelementptr inbounds ptr, ptr %223, i64 %296
  %298 = load ptr, ptr %297, align 8, !tbaa !42, !noalias !197
  %299 = getelementptr inbounds %"class.std::deque.3", ptr %298, i64 6
  %300 = mul i64 %296, -6
  %301 = add i64 %300, %283
  %302 = getelementptr inbounds %"class.std::deque.3", ptr %298, i64 %301
  br label %303

303:                                              ; preds = %295, %287
  %304 = phi ptr [ %223, %287 ], [ %297, %295 ]
  %305 = phi ptr [ %224, %287 ], [ %299, %295 ]
  %306 = phi ptr [ %225, %287 ], [ %298, %295 ]
  %307 = phi ptr [ %288, %287 ], [ %302, %295 ]
  %308 = sub nsw i64 %227, %240
  %309 = icmp sgt i64 %308, 0
  br i1 %309, label %221, label %310

310:                                              ; preds = %303
  %311 = load ptr, ptr %1, align 8, !tbaa !10, !noalias !202
  %312 = load ptr, ptr %39, align 8, !tbaa !15, !noalias !202
  %313 = load ptr, ptr %28, align 8, !tbaa !17, !noalias !202
  %314 = ptrtoint ptr %311 to i64
  %315 = ptrtoint ptr %312 to i64
  %316 = sub i64 %314, %315
  %317 = sdiv exact i64 %316, 80
  br label %318

318:                                              ; preds = %310, %200
  %319 = phi i64 [ %317, %310 ], [ %212, %200 ]
  %320 = phi ptr [ %313, %310 ], [ %203, %200 ]
  %321 = phi ptr [ %312, %310 ], [ %202, %200 ]
  %322 = phi ptr [ %311, %310 ], [ %201, %200 ]
  call void @llvm.lifetime.start.p0(i64 32, ptr nonnull %14) #12
  call void @llvm.experimental.noalias.scope.decl(metadata !202)
  %323 = load ptr, ptr %155, align 8, !tbaa !16, !noalias !202
  %324 = sub i64 %319, %2
  %325 = icmp sgt i64 %324, -1
  br i1 %325, label %326, label %332

326:                                              ; preds = %318
  %327 = icmp ult i64 %324, 6
  br i1 %327, label %328, label %330

328:                                              ; preds = %326
  %329 = getelementptr inbounds %"class.std::deque.3", ptr %322, i64 %97
  br label %344

330:                                              ; preds = %326
  %331 = udiv i64 %324, 6
  br label %336

332:                                              ; preds = %318
  %333 = xor i64 %324, -1
  %334 = udiv i64 %333, 6
  %335 = xor i64 %334, -1
  br label %336

336:                                              ; preds = %332, %330
  %337 = phi i64 [ %331, %330 ], [ %335, %332 ]
  %338 = getelementptr inbounds ptr, ptr %320, i64 %337
  %339 = load ptr, ptr %338, align 8, !tbaa !42, !noalias !202
  %340 = getelementptr inbounds %"class.std::deque.3", ptr %339, i64 6
  %341 = mul i64 %337, -6
  %342 = add i64 %341, %324
  %343 = getelementptr inbounds %"class.std::deque.3", ptr %339, i64 %342
  br label %344

344:                                              ; preds = %336, %328
  %345 = phi ptr [ %320, %328 ], [ %338, %336 ]
  %346 = phi ptr [ %323, %328 ], [ %340, %336 ]
  %347 = phi ptr [ %321, %328 ], [ %339, %336 ]
  %348 = phi ptr [ %329, %328 ], [ %343, %336 ]
  store ptr %348, ptr %14, align 8, !tbaa !10, !alias.scope !202
  %349 = getelementptr inbounds %"struct.std::_Deque_iterator", ptr %14, i64 0, i32 1
  store ptr %347, ptr %349, align 8, !tbaa !15, !alias.scope !202
  %350 = getelementptr inbounds %"struct.std::_Deque_iterator", ptr %14, i64 0, i32 2
  store ptr %346, ptr %350, align 8, !tbaa !16, !alias.scope !202
  %351 = getelementptr inbounds %"struct.std::_Deque_iterator", ptr %14, i64 0, i32 3
  store ptr %345, ptr %351, align 8, !tbaa !17, !alias.scope !202
  invoke void @_ZSt4fillISt5dequeIN10xalanc_1_89NameSpaceESaIS2_EEEvRKSt15_Deque_iteratorIT_RS6_PS6_ESB_RKS6_(ptr noundef nonnull align 8 dereferenceable(32) %14, ptr noundef nonnull align 8 dereferenceable(32) %1, ptr noundef nonnull align 8 dereferenceable(80) %11)
          to label %352 unwind label %359

352:                                              ; preds = %344
  call void @llvm.lifetime.end.p0(i64 32, ptr nonnull %14) #12
  br label %394

353:                                              ; preds = %82
  %354 = landingpad { ptr, i32 }
          cleanup
  br label %759

355:                                              ; preds = %186
  %356 = landingpad { ptr, i32 }
          catch ptr null
  call void @llvm.lifetime.end.p0(i64 32, ptr nonnull %13) #12
  br label %380

357:                                              ; preds = %243
  %358 = landingpad { ptr, i32 }
          catch ptr null
  br label %380

359:                                              ; preds = %344
  %360 = landingpad { ptr, i32 }
          catch ptr null
  call void @llvm.lifetime.end.p0(i64 32, ptr nonnull %14) #12
  br label %380

361:                                              ; preds = %150
  store ptr %157, ptr %15, align 8, !tbaa !10
  %362 = getelementptr inbounds %"struct.std::_Deque_iterator", ptr %15, i64 0, i32 1
  %363 = load ptr, ptr %75, align 8, !tbaa !15
  store ptr %363, ptr %362, align 8, !tbaa !15
  %364 = getelementptr inbounds %"struct.std::_Deque_iterator", ptr %15, i64 0, i32 2
  %365 = load ptr, ptr %46, align 8, !tbaa !16
  store ptr %365, ptr %364, align 8, !tbaa !16
  %366 = getelementptr inbounds %"struct.std::_Deque_iterator", ptr %15, i64 0, i32 3
  %367 = load ptr, ptr %30, align 8, !tbaa !17
  store ptr %367, ptr %366, align 8, !tbaa !17
  store ptr %154, ptr %16, align 8, !tbaa !10
  %368 = getelementptr inbounds %"struct.std::_Deque_iterator", ptr %16, i64 0, i32 1
  store ptr %153, ptr %368, align 8, !tbaa !15
  %369 = getelementptr inbounds %"struct.std::_Deque_iterator", ptr %16, i64 0, i32 2
  store ptr %152, ptr %369, align 8, !tbaa !16
  %370 = getelementptr inbounds %"struct.std::_Deque_iterator", ptr %16, i64 0, i32 3
  store ptr %151, ptr %370, align 8, !tbaa !17
  store ptr %122, ptr %17, align 8, !tbaa !10
  %371 = getelementptr inbounds %"struct.std::_Deque_iterator", ptr %17, i64 0, i32 1
  store ptr %121, ptr %371, align 8, !tbaa !15
  %372 = getelementptr inbounds %"struct.std::_Deque_iterator", ptr %17, i64 0, i32 2
  store ptr %120, ptr %372, align 8, !tbaa !16
  %373 = getelementptr inbounds %"struct.std::_Deque_iterator", ptr %17, i64 0, i32 3
  store ptr %119, ptr %373, align 8, !tbaa !17
  store ptr %157, ptr %18, align 8, !tbaa !10
  %374 = getelementptr inbounds %"struct.std::_Deque_iterator", ptr %18, i64 0, i32 1
  store ptr %363, ptr %374, align 8, !tbaa !15
  %375 = getelementptr inbounds %"struct.std::_Deque_iterator", ptr %18, i64 0, i32 2
  store ptr %365, ptr %375, align 8, !tbaa !16
  %376 = getelementptr inbounds %"struct.std::_Deque_iterator", ptr %18, i64 0, i32 3
  store ptr %367, ptr %376, align 8, !tbaa !17
  invoke void @_ZSt25__uninitialized_move_fillISt15_Deque_iteratorISt5dequeIN10xalanc_1_89NameSpaceESaIS3_EERS5_PS5_ES8_S5_SaIS5_EEvT_SA_T0_SB_RKT1_RT2_(ptr noundef nonnull %15, ptr noundef nonnull %16, ptr noundef nonnull %17, ptr noundef nonnull %18, ptr noundef nonnull align 8 dereferenceable(80) %11, ptr noundef nonnull align 1 dereferenceable(1) %0)
          to label %377 unwind label %378

377:                                              ; preds = %361
  store ptr %122, ptr %27, align 8, !tbaa.struct !61
  store ptr %121, ptr %75, align 8, !tbaa.struct !62
  store ptr %120, ptr %46, align 8, !tbaa.struct !63
  store ptr %119, ptr %30, align 8, !tbaa.struct !64
