; ModuleID = 'Stylesheet.cpp'
source_filename = "Stylesheet.cpp"
target datalayout = "e-m:e-p270:32:32-p271:32:32-p272:64:64-i64:64-f80:128-n8:16:32:64-S128"
target triple = "x86_64-unknown-linux-gnu"

%"class.xalanc_1_8::XalanDOMString" = type <{ %"class.std::vector", i32, [4 x i8] }>
%"class.std::vector" = type { %"struct.std::_Vector_base" }
%"struct.std::_Vector_base" = type { %"struct.std::_Vector_base<unsigned short, std::allocator<unsigned short> >::_Vector_impl" }
%"struct.std::_Vector_base<unsigned short, std::allocator<unsigned short> >::_Vector_impl" = type { %"struct.std::_Vector_base<unsigned short, std::allocator<unsigned short> >::_Vector_impl_data" }
%"struct.std::_Vector_base<unsigned short, std::allocator<unsigned short> >::_Vector_impl_data" = type { ptr, ptr, ptr }
%"class.xalanc_1_8::XalanQNameByReference" = type { %"class.xalanc_1_8::XalanQName", ptr, ptr }
%"class.xalanc_1_8::XalanQName" = type { ptr }
%"union.xalanc_1_8::DoubleSupport::NumberUnion" = type { double }
%"class.xalanc_1_8::Stylesheet" = type { %"class.xalanc_1_8::PrefixResolver", ptr, %"class.xalanc_1_8::XalanDOMString", %"class.std::vector.0", %"class.std::vector.5", %"class.xalanc_1_8::XalanDOMString", %"class.std::vector.10", i64, %"class.std::deque", %"class.std::deque.18", i8, %"class.std::map", ptr, %"class.std::vector.27", %"class.std::map.32", %"class.std::vector.40", double, %"class.std::map.45", %"struct.std::_Rb_tree_const_iterator", %"class.std::vector.50", %"class.std::map.45", %"struct.std::_Rb_tree_const_iterator", %"class.std::vector.50", %"class.std::vector.50", %"class.std::vector.50", %"class.std::vector.50", %"class.std::vector.50", %"class.std::vector.50", %"class.std::deque.55", i64, %"class.std::vector.61", %"class.xalanc_1_8::NamespacesHandler" }
%"class.xalanc_1_8::PrefixResolver" = type { ptr }
%"class.std::vector.0" = type { %"struct.std::_Vector_base.1" }
%"struct.std::_Vector_base.1" = type { %"struct.std::_Vector_base<xalanc_1_8::KeyDeclaration, std::allocator<xalanc_1_8::KeyDeclaration> >::_Vector_impl" }
%"struct.std::_Vector_base<xalanc_1_8::KeyDeclaration, std::allocator<xalanc_1_8::KeyDeclaration> >::_Vector_impl" = type { %"struct.std::_Vector_base<xalanc_1_8::KeyDeclaration, std::allocator<xalanc_1_8::KeyDeclaration> >::_Vector_impl_data" }
%"struct.std::_Vector_base<xalanc_1_8::KeyDeclaration, std::allocator<xalanc_1_8::KeyDeclaration> >::_Vector_impl_data" = type { ptr, ptr, ptr }
%"class.std::vector.5" = type { %"struct.std::_Vector_base.6" }
%"struct.std::_Vector_base.6" = type { %"struct.std::_Vector_base<xalanc_1_8::XalanSpaceNodeTester, std::allocator<xalanc_1_8::XalanSpaceNodeTester> >::_Vector_impl" }
%"struct.std::_Vector_base<xalanc_1_8::XalanSpaceNodeTester, std::allocator<xalanc_1_8::XalanSpaceNodeTester> >::_Vector_impl" = type { %"struct.std::_Vector_base<xalanc_1_8::XalanSpaceNodeTester, std::allocator<xalanc_1_8::XalanSpaceNodeTester> >::_Vector_impl_data" }
%"struct.std::_Vector_base<xalanc_1_8::XalanSpaceNodeTester, std::allocator<xalanc_1_8::XalanSpaceNodeTester> >::_Vector_impl_data" = type { ptr, ptr, ptr }
%"class.std::vector.10" = type { %"struct.std::_Vector_base.11" }
%"struct.std::_Vector_base.11" = type { %"struct.std::_Vector_base<xalanc_1_8::Stylesheet *, std::allocator<xalanc_1_8::Stylesheet *> >::_Vector_impl" }
%"struct.std::_Vector_base<xalanc_1_8::Stylesheet *, std::allocator<xalanc_1_8::Stylesheet *> >::_Vector_impl" = type { %"struct.std::_Vector_base<xalanc_1_8::Stylesheet *, std::allocator<xalanc_1_8::Stylesheet *> >::_Vector_impl_data" }
%"struct.std::_Vector_base<xalanc_1_8::Stylesheet *, std::allocator<xalanc_1_8::Stylesheet *> >::_Vector_impl_data" = type { ptr, ptr, ptr }
%"class.std::deque" = type { %"class.std::_Deque_base" }
%"class.std::_Deque_base" = type { %"struct.std::_Deque_base<std::deque<xalanc_1_8::NameSpace>, std::allocator<std::deque<xalanc_1_8::NameSpace> > >::_Deque_impl" }
%"struct.std::_Deque_base<std::deque<xalanc_1_8::NameSpace>, std::allocator<std::deque<xalanc_1_8::NameSpace> > >::_Deque_impl" = type { ptr, i64, %"struct.std::_Deque_iterator", %"struct.std::_Deque_iterator" }
%"struct.std::_Deque_iterator" = type { ptr, ptr, ptr, ptr }
%"class.std::deque.18" = type { %"class.std::_Deque_base.19" }
%"class.std::_Deque_base.19" = type { %"struct.std::_Deque_base<xalanc_1_8::NameSpace, std::allocator<xalanc_1_8::NameSpace> >::_Deque_impl" }
%"struct.std::_Deque_base<xalanc_1_8::NameSpace, std::allocator<xalanc_1_8::NameSpace> >::_Deque_impl" = type { ptr, i64, %"struct.std::_Deque_iterator.23", %"struct.std::_Deque_iterator.23" }
%"struct.std::_Deque_iterator.23" = type { ptr, ptr, ptr, ptr }
%"class.std::map" = type { %"class.std::_Rb_tree" }
%"class.std::_Rb_tree" = type { %"struct.std::_Rb_tree<xalanc_1_8::XalanDOMString, std::pair<const xalanc_1_8::XalanDOMString, xalanc_1_8::ExtensionNSHandler *>, std::_Select1st<std::pair<const xalanc_1_8::XalanDOMString, xalanc_1_8::ExtensionNSHandler *> >, std::less<xalanc_1_8::XalanDOMString> >::_Rb_tree_impl" }
%"struct.std::_Rb_tree<xalanc_1_8::XalanDOMString, std::pair<const xalanc_1_8::XalanDOMString, xalanc_1_8::ExtensionNSHandler *>, std::_Select1st<std::pair<const xalanc_1_8::XalanDOMString, xalanc_1_8::ExtensionNSHandler *> >, std::less<xalanc_1_8::XalanDOMString> >::_Rb_tree_impl" = type { %"struct.std::_Rb_tree_key_compare", %"struct.std::_Rb_tree_header" }
%"struct.std::_Rb_tree_key_compare" = type { %"struct.std::less" }
%"struct.std::less" = type { i8 }
%"struct.std::_Rb_tree_header" = type { %"struct.std::_Rb_tree_node_base", i64 }
%"struct.std::_Rb_tree_node_base" = type { i32, ptr, ptr, ptr }
%"class.std::vector.27" = type { %"struct.std::_Vector_base.28" }
%"struct.std::_Vector_base.28" = type { %"struct.std::_Vector_base<xalanc_1_8::XalanDOMString, std::allocator<xalanc_1_8::XalanDOMString> >::_Vector_impl" }
%"struct.std::_Vector_base<xalanc_1_8::XalanDOMString, std::allocator<xalanc_1_8::XalanDOMString> >::_Vector_impl" = type { %"struct.std::_Vector_base<xalanc_1_8::XalanDOMString, std::allocator<xalanc_1_8::XalanDOMString> >::_Vector_impl_data" }
%"struct.std::_Vector_base<xalanc_1_8::XalanDOMString, std::allocator<xalanc_1_8::XalanDOMString> >::_Vector_impl_data" = type { ptr, ptr, ptr }
%"class.std::map.32" = type { %"class.std::_Rb_tree.33" }
%"class.std::_Rb_tree.33" = type { %"struct.std::_Rb_tree<xalanc_1_8::XalanQNameByReference, std::pair<const xalanc_1_8::XalanQNameByReference, const xalanc_1_8::ElemTemplate *>, std::_Select1st<std::pair<const xalanc_1_8::XalanQNameByReference, const xalanc_1_8::ElemTemplate *> >, std::less<xalanc_1_8::XalanQName> >::_Rb_tree_impl" }
%"struct.std::_Rb_tree<xalanc_1_8::XalanQNameByReference, std::pair<const xalanc_1_8::XalanQNameByReference, const xalanc_1_8::ElemTemplate *>, std::_Select1st<std::pair<const xalanc_1_8::XalanQNameByReference, const xalanc_1_8::ElemTemplate *> >, std::less<xalanc_1_8::XalanQName> >::_Rb_tree_impl" = type { %"struct.std::_Rb_tree_key_compare.37", %"struct.std::_Rb_tree_header" }
%"struct.std::_Rb_tree_key_compare.37" = type { %"struct.std::less.38" }
%"struct.std::less.38" = type { i8 }
%"class.std::vector.40" = type { %"struct.std::_Vector_base.41" }
%"struct.std::_Vector_base.41" = type { %"struct.std::_Vector_base<xalanc_1_8::ElemVariable *, std::allocator<xalanc_1_8::ElemVariable *> >::_Vector_impl" }
%"struct.std::_Vector_base<xalanc_1_8::ElemVariable *, std::allocator<xalanc_1_8::ElemVariable *> >::_Vector_impl" = type { %"struct.std::_Vector_base<xalanc_1_8::ElemVariable *, std::allocator<xalanc_1_8::ElemVariable *> >::_Vector_impl_data" }
%"struct.std::_Vector_base<xalanc_1_8::ElemVariable *, std::allocator<xalanc_1_8::ElemVariable *> >::_Vector_impl_data" = type { ptr, ptr, ptr }
%"class.std::map.45" = type { %"class.std::_Rb_tree.46" }
%"class.std::_Rb_tree.46" = type { %"struct.std::_Rb_tree<xalanc_1_8::XalanDOMString, std::pair<const xalanc_1_8::XalanDOMString, std::vector<const xalanc_1_8::Stylesheet::MatchPattern2 *> >, std::_Select1st<std::pair<const xalanc_1_8::XalanDOMString, std::vector<const xalanc_1_8::Stylesheet::MatchPattern2 *> > >, std::less<xalanc_1_8::XalanDOMString> >::_Rb_tree_impl" }
%"struct.std::_Rb_tree<xalanc_1_8::XalanDOMString, std::pair<const xalanc_1_8::XalanDOMString, std::vector<const xalanc_1_8::Stylesheet::MatchPattern2 *> >, std::_Select1st<std::pair<const xalanc_1_8::XalanDOMString, std::vector<const xalanc_1_8::Stylesheet::MatchPattern2 *> > >, std::less<xalanc_1_8::XalanDOMString> >::_Rb_tree_impl" = type { %"struct.std::_Rb_tree_key_compare", %"struct.std::_Rb_tree_header" }
%"struct.std::_Rb_tree_const_iterator" = type { ptr }
%"class.std::vector.50" = type { %"struct.std::_Vector_base.51" }
%"struct.std::_Vector_base.51" = type { %"struct.std::_Vector_base<const xalanc_1_8::Stylesheet::MatchPattern2 *, std::allocator<const xalanc_1_8::Stylesheet::MatchPattern2 *> >::_Vector_impl" }
%"struct.std::_Vector_base<const xalanc_1_8::Stylesheet::MatchPattern2 *, std::allocator<const xalanc_1_8::Stylesheet::MatchPattern2 *> >::_Vector_impl" = type { %"struct.std::_Vector_base<const xalanc_1_8::Stylesheet::MatchPattern2 *, std::allocator<const xalanc_1_8::Stylesheet::MatchPattern2 *> >::_Vector_impl_data" }
%"struct.std::_Vector_base<const xalanc_1_8::Stylesheet::MatchPattern2 *, std::allocator<const xalanc_1_8::Stylesheet::MatchPattern2 *> >::_Vector_impl_data" = type { ptr, ptr, ptr }
%"class.std::deque.55" = type { %"class.std::_Deque_base.56" }
%"class.std::_Deque_base.56" = type { %"struct.std::_Deque_base<xalanc_1_8::Stylesheet::MatchPattern2, std::allocator<xalanc_1_8::Stylesheet::MatchPattern2> >::_Deque_impl" }
%"struct.std::_Deque_base<xalanc_1_8::Stylesheet::MatchPattern2, std::allocator<xalanc_1_8::Stylesheet::MatchPattern2> >::_Deque_impl" = type { ptr, i64, %"struct.std::_Deque_iterator.60", %"struct.std::_Deque_iterator.60" }
%"struct.std::_Deque_iterator.60" = type { ptr, ptr, ptr, ptr }
%"class.std::vector.61" = type { %"struct.std::_Vector_base.62" }
%"struct.std::_Vector_base.62" = type { %"struct.std::_Vector_base<xalanc_1_8::ElemDecimalFormat *, std::allocator<xalanc_1_8::ElemDecimalFormat *> >::_Vector_impl" }
%"struct.std::_Vector_base<xalanc_1_8::ElemDecimalFormat *, std::allocator<xalanc_1_8::ElemDecimalFormat *> >::_Vector_impl" = type { %"struct.std::_Vector_base<xalanc_1_8::ElemDecimalFormat *, std::allocator<xalanc_1_8::ElemDecimalFormat *> >::_Vector_impl_data" }
%"struct.std::_Vector_base<xalanc_1_8::ElemDecimalFormat *, std::allocator<xalanc_1_8::ElemDecimalFormat *> >::_Vector_impl_data" = type { ptr, ptr, ptr }
%"class.xalanc_1_8::NamespacesHandler" = type { %"class.std::vector.66", %"class.std::vector.71", %"class.std::vector.76", %"class.std::map.81" }
%"class.std::vector.66" = type { %"struct.std::_Vector_base.67" }
%"struct.std::_Vector_base.67" = type { %"struct.std::_Vector_base<xalanc_1_8::NamespacesHandler::Namespace, std::allocator<xalanc_1_8::NamespacesHandler::Namespace> >::_Vector_impl" }
%"struct.std::_Vector_base<xalanc_1_8::NamespacesHandler::Namespace, std::allocator<xalanc_1_8::NamespacesHandler::Namespace> >::_Vector_impl" = type { %"struct.std::_Vector_base<xalanc_1_8::NamespacesHandler::Namespace, std::allocator<xalanc_1_8::NamespacesHandler::Namespace> >::_Vector_impl_data" }
%"struct.std::_Vector_base<xalanc_1_8::NamespacesHandler::Namespace, std::allocator<xalanc_1_8::NamespacesHandler::Namespace> >::_Vector_impl_data" = type { ptr, ptr, ptr }
%"class.std::vector.71" = type { %"struct.std::_Vector_base.72" }
%"struct.std::_Vector_base.72" = type { %"struct.std::_Vector_base<xalanc_1_8::NamespacesHandler::NamespaceExtended, std::allocator<xalanc_1_8::NamespacesHandler::NamespaceExtended> >::_Vector_impl" }
%"struct.std::_Vector_base<xalanc_1_8::NamespacesHandler::NamespaceExtended, std::allocator<xalanc_1_8::NamespacesHandler::NamespaceExtended> >::_Vector_impl" = type { %"struct.std::_Vector_base<xalanc_1_8::NamespacesHandler::NamespaceExtended, std::allocator<xalanc_1_8::NamespacesHandler::NamespaceExtended> >::_Vector_impl_data" }
%"struct.std::_Vector_base<xalanc_1_8::NamespacesHandler::NamespaceExtended, std::allocator<xalanc_1_8::NamespacesHandler::NamespaceExtended> >::_Vector_impl_data" = type { ptr, ptr, ptr }
%"class.std::vector.76" = type { %"struct.std::_Vector_base.77" }
%"struct.std::_Vector_base.77" = type { %"struct.std::_Vector_base<const xalanc_1_8::XalanDOMString *, std::allocator<const xalanc_1_8::XalanDOMString *> >::_Vector_impl" }
%"struct.std::_Vector_base<const xalanc_1_8::XalanDOMString *, std::allocator<const xalanc_1_8::XalanDOMString *> >::_Vector_impl" = type { %"struct.std::_Vector_base<const xalanc_1_8::XalanDOMString *, std::allocator<const xalanc_1_8::XalanDOMString *> >::_Vector_impl_data" }
%"struct.std::_Vector_base<const xalanc_1_8::XalanDOMString *, std::allocator<const xalanc_1_8::XalanDOMString *> >::_Vector_impl_data" = type { ptr, ptr, ptr }
%"class.std::map.81" = type { %"class.std::_Rb_tree.82" }
%"class.std::_Rb_tree.82" = type { %"struct.std::_Rb_tree<const xalanc_1_8::XalanDOMString *, std::pair<const xalanc_1_8::XalanDOMString *const, const xalanc_1_8::XalanDOMString *>, std::_Select1st<std::pair<const xalanc_1_8::XalanDOMString *const, const xalanc_1_8::XalanDOMString *> >, xalanc_1_8::DOMStringPointerLessThanFunction>::_Rb_tree_impl" }
%"struct.std::_Rb_tree<const xalanc_1_8::XalanDOMString *, std::pair<const xalanc_1_8::XalanDOMString *const, const xalanc_1_8::XalanDOMString *>, std::_Select1st<std::pair<const xalanc_1_8::XalanDOMString *const, const xalanc_1_8::XalanDOMString *> >, xalanc_1_8::DOMStringPointerLessThanFunction>::_Rb_tree_impl" = type { %"struct.std::_Rb_tree_key_compare.86", %"struct.std::_Rb_tree_header" }
%"struct.std::_Rb_tree_key_compare.86" = type { %"struct.xalanc_1_8::DOMStringPointerLessThanFunction" }
%"struct.xalanc_1_8::DOMStringPointerLessThanFunction" = type { i8 }
%"class.xalanc_1_8::XalanSpaceNodeTester" = type { %"class.xalanc_1_8::XPath::NodeTester", i32, i32 }
%"class.xalanc_1_8::XPath::NodeTester" = type { ptr, ptr, ptr, { i64, i64 }, { i64, i64 } }
%"struct.std::_Rb_tree_node.152" = type { %"struct.std::_Rb_tree_node_base", %"struct.std::pair.131" }
%"struct.std::pair.131" = type { %"class.xalanc_1_8::XalanDOMString", ptr }
%"class.xalanc_1_8::AttributeListImpl" = type { %"class.xercesc_2_5::AttributeList", %"class.std::vector.93", %"class.std::vector.93" }
%"class.xercesc_2_5::AttributeList" = type { ptr }
%"class.std::vector.93" = type { %"struct.std::_Vector_base.94" }
%"struct.std::_Vector_base.94" = type { %"struct.std::_Vector_base<xalanc_1_8::AttributeVectorEntry *, std::allocator<xalanc_1_8::AttributeVectorEntry *> >::_Vector_impl" }
%"struct.std::_Vector_base<xalanc_1_8::AttributeVectorEntry *, std::allocator<xalanc_1_8::AttributeVectorEntry *> >::_Vector_impl" = type { %"struct.std::_Vector_base<xalanc_1_8::AttributeVectorEntry *, std::allocator<xalanc_1_8::AttributeVectorEntry *> >::_Vector_impl_data" }
%"struct.std::_Vector_base<xalanc_1_8::AttributeVectorEntry *, std::allocator<xalanc_1_8::AttributeVectorEntry *> >::_Vector_impl_data" = type { ptr, ptr, ptr }
%"class.xalanc_1_8::KeyDeclaration" = type { ptr, ptr, ptr, ptr, i64, i64 }
%"class.xalanc_1_8::NameSpace" = type { %"class.xalanc_1_8::XalanDOMString", %"class.xalanc_1_8::XalanDOMString" }
%"struct.std::_Rb_tree_node" = type { %"struct.std::_Rb_tree_node_base", %"struct.std::pair.143" }
%"struct.std::pair.143" = type { %"class.xalanc_1_8::XalanDOMString", %"class.std::vector.50" }
%"class.xalanc_1_8::ElemTemplate" = type { %"class.xalanc_1_8::ElemTemplateElement.base", ptr, ptr, ptr, double }
%"class.xalanc_1_8::ElemTemplateElement.base" = type <{ %"class.xalanc_1_8::PrefixResolver", ptr, %"class.xalanc_1_8::NamespacesHandler", i32, i32, i32, [4 x i8], ptr, ptr, ptr, %union.anon, ptr, %"class.xalanc_1_8::ElemTemplateElement::LocatorProxy", i16 }>
%union.anon = type { ptr }
%"class.xalanc_1_8::ElemTemplateElement::LocatorProxy" = type { %"class.xalanc_1_8::XalanLocator", ptr }
%"class.xalanc_1_8::XalanLocator" = type { %"class.xercesc_2_5::Locator" }
%"class.xercesc_2_5::Locator" = type { ptr }
%struct.anon = type { i32, i32 }
%"class.xalanc_1_8::Stylesheet::MatchPattern2" = type <{ ptr, i64, %"class.xalanc_1_8::XalanDOMString", ptr, ptr, i32, [4 x i8] }>
%"class.std::vector.117" = type { %"struct.std::_Vector_base.118" }
%"struct.std::_Vector_base.118" = type { %"struct.std::_Vector_base<xalanc_1_8::XPath::TargetData, std::allocator<xalanc_1_8::XPath::TargetData> >::_Vector_impl" }
%"struct.std::_Vector_base<xalanc_1_8::XPath::TargetData, std::allocator<xalanc_1_8::XPath::TargetData> >::_Vector_impl" = type { %"struct.std::_Vector_base<xalanc_1_8::XPath::TargetData, std::allocator<xalanc_1_8::XPath::TargetData> >::_Vector_impl_data" }
%"struct.std::_Vector_base<xalanc_1_8::XPath::TargetData, std::allocator<xalanc_1_8::XPath::TargetData> >::_Vector_impl_data" = type { ptr, ptr, ptr }
%"struct.std::_Rb_tree_node.148" = type { %"struct.std::_Rb_tree_node_base", %"struct.std::pair" }
%"struct.std::pair" = type { %"class.xalanc_1_8::XalanQNameByReference", ptr }
%"class.xalanc_1_8::XPathExpression" = type { %"class.std::vector.98", i32, %"class.std::vector.103", i32, ptr, %"class.std::vector.108" }
%"class.std::vector.98" = type { %"struct.std::_Vector_base.99" }
%"struct.std::_Vector_base.99" = type { %"struct.std::_Vector_base<int, std::allocator<int> >::_Vector_impl" }
%"struct.std::_Vector_base<int, std::allocator<int> >::_Vector_impl" = type { %"struct.std::_Vector_base<int, std::allocator<int> >::_Vector_impl_data" }
%"struct.std::_Vector_base<int, std::allocator<int> >::_Vector_impl_data" = type { ptr, ptr, ptr }
%"class.std::vector.103" = type { %"struct.std::_Vector_base.104" }
%"struct.std::_Vector_base.104" = type { %"struct.std::_Vector_base<xalanc_1_8::XToken, std::allocator<xalanc_1_8::XToken> >::_Vector_impl" }
%"struct.std::_Vector_base<xalanc_1_8::XToken, std::allocator<xalanc_1_8::XToken> >::_Vector_impl" = type { %"struct.std::_Vector_base<xalanc_1_8::XToken, std::allocator<xalanc_1_8::XToken> >::_Vector_impl_data" }
%"struct.std::_Vector_base<xalanc_1_8::XToken, std::allocator<xalanc_1_8::XToken> >::_Vector_impl_data" = type { ptr, ptr, ptr }
%"class.std::vector.108" = type { %"struct.std::_Vector_base.109" }
%"struct.std::_Vector_base.109" = type { %"struct.std::_Vector_base<double, std::allocator<double> >::_Vector_impl" }
%"struct.std::_Vector_base<double, std::allocator<double> >::_Vector_impl" = type { %"struct.std::_Vector_base<double, std::allocator<double> >::_Vector_impl_data" }
%"struct.std::_Vector_base<double, std::allocator<double> >::_Vector_impl_data" = type { ptr, ptr, ptr }
%"class.xalanc_1_8::XPath::TargetData" = type { ptr, i32, i32 }
%"struct.std::_Rb_tree<xalanc_1_8::XalanDOMString, std::pair<const xalanc_1_8::XalanDOMString, std::vector<const xalanc_1_8::Stylesheet::MatchPattern2 *> >, std::_Select1st<std::pair<const xalanc_1_8::XalanDOMString, std::vector<const xalanc_1_8::Stylesheet::MatchPattern2 *> > >, std::less<xalanc_1_8::XalanDOMString> >::_Alloc_node" = type { ptr }
%"struct.std::_Rb_tree<xalanc_1_8::XalanDOMString, std::pair<const xalanc_1_8::XalanDOMString, xalanc_1_8::ExtensionNSHandler *>, std::_Select1st<std::pair<const xalanc_1_8::XalanDOMString, xalanc_1_8::ExtensionNSHandler *> >, std::less<xalanc_1_8::XalanDOMString> >::_Alloc_node" = type { ptr }
%"class.xalanc_1_8::XObjectPtr" = type { ptr }
%"struct.std::_Vector_base<xalanc_1_8::TopLevelArg, std::allocator<xalanc_1_8::TopLevelArg> >::_Vector_impl_data" = type { ptr, ptr, ptr }
%"class.xalanc_1_8::ElemTemplateElement" = type <{ %"class.xalanc_1_8::PrefixResolver", ptr, %"class.xalanc_1_8::NamespacesHandler", i32, i32, i32, [4 x i8], ptr, ptr, ptr, %union.anon, ptr, %"class.xalanc_1_8::ElemTemplateElement::LocatorProxy", i16, [6 x i8] }>
%"class.xalanc_1_8::TopLevelArg" = type { %"class.xalanc_1_8::XalanQNameByValue", %"class.xalanc_1_8::XalanDOMString", %"class.xalanc_1_8::XObjectPtr" }
%"class.xalanc_1_8::XalanQNameByValue" = type { %"class.xalanc_1_8::XalanQName", %"class.xalanc_1_8::XalanDOMString", %"class.xalanc_1_8::XalanDOMString" }
%"class.xalanc_1_8::ElemDecimalFormat" = type { %"class.xalanc_1_8::ElemTemplateElement.base", ptr, ptr, ptr, ptr, %"class.xalanc_1_8::XalanDecimalFormatSymbols" }
%"class.xalanc_1_8::XalanDecimalFormatSymbols" = type { %"class.xalanc_1_8::XalanDOMString", i16, i16, i16, [2 x i8], %"class.xalanc_1_8::XalanDOMString", %"class.xalanc_1_8::XalanDOMString", i16, i16, [4 x i8], %"class.xalanc_1_8::XalanDOMString", i16, i16, i16, i16 }
%"struct.std::_Deque_iterator.167" = type { ptr, ptr, ptr, ptr }

$_ZN10xalanc_1_814XalanDOMStringD2Ev = comdat any

$_ZNSt6vectorIN10xalanc_1_814XalanDOMStringESaIS1_EE9push_backERKS1_ = comdat any

$__clang_call_terminate = comdat any

$_ZNSt5dequeIN10xalanc_1_810Stylesheet13MatchPattern2ESaIS2_EED2Ev = comdat any

$_ZNSt6vectorIN10xalanc_1_814XalanDOMStringESaIS1_EED2Ev = comdat any

$_ZNSt5dequeIN10xalanc_1_89NameSpaceESaIS1_EED2Ev = comdat any

$_ZNSt5dequeIS_IN10xalanc_1_89NameSpaceESaIS1_EESaIS3_EED2Ev = comdat any

$_ZNSt6vectorIN10xalanc_1_820XalanSpaceNodeTesterESaIS1_EED2Ev = comdat any

$_ZN10xalanc_1_89NameSpaceD2Ev = comdat any

$_ZNSt3mapIN10xalanc_1_821XalanQNameByReferenceEPKNS0_12ElemTemplateESt4lessINS0_10XalanQNameEESaISt4pairIKS1_S4_EEEixERS9_ = comdat any

$_ZNSt3mapIN10xalanc_1_814XalanDOMStringESt6vectorIPKNS0_10Stylesheet13MatchPattern2ESaIS6_EESt4lessIS1_ESaISt4pairIKS1_S8_EEEixERSC_ = comdat any

$_ZNK10xalanc_1_810Stylesheet23locateMatchPatternList2ERKNS_9XalanNodeENS1_8NodeTypeE = comdat any

$_ZNSt6vectorItSaItEEaSERKS1_ = comdat any

$_ZNSt8_Rb_treeIN10xalanc_1_814XalanDOMStringESt4pairIKS1_St6vectorIPKNS0_10Stylesheet13MatchPattern2ESaIS8_EEESt10_Select1stISB_ESt4lessIS1_ESaISB_EE8_M_eraseEPSt13_Rb_tree_nodeISB_E = comdat any

$_ZNSt4pairIKN10xalanc_1_814XalanDOMStringESt6vectorIPKNS0_10Stylesheet13MatchPattern2ESaIS7_EEED2Ev = comdat any

$_ZNSt8_Rb_treeIN10xalanc_1_821XalanQNameByReferenceESt4pairIKS1_PKNS0_12ElemTemplateEESt10_Select1stIS7_ESt4lessINS0_10XalanQNameEESaIS7_EE8_M_eraseEPSt13_Rb_tree_nodeIS7_E = comdat any

$_ZNSt8_Rb_treeIN10xalanc_1_814XalanDOMStringESt4pairIKS1_PNS0_18ExtensionNSHandlerEESt10_Select1stIS6_ESt4lessIS1_ESaIS6_EE8_M_eraseEPSt13_Rb_tree_nodeIS6_E = comdat any

$_ZNSt6vectorIPKN10xalanc_1_810Stylesheet13MatchPattern2ESaIS4_EE6insertEN9__gnu_cxx17__normal_iteratorIPS4_S6_EERKS4_ = comdat any

$_ZNSt11_Deque_baseISt5dequeIN10xalanc_1_89NameSpaceESaIS2_EESaIS4_EE17_M_initialize_mapEm = comdat any

$_ZNSt11_Deque_baseIN10xalanc_1_89NameSpaceESaIS1_EE17_M_initialize_mapEm = comdat any

$_ZNSt11_Deque_baseIN10xalanc_1_810Stylesheet13MatchPattern2ESaIS2_EE17_M_initialize_mapEm = comdat any

$_ZNSt11_Deque_baseISt5dequeIN10xalanc_1_89NameSpaceESaIS2_EESaIS4_EED2Ev = comdat any

$_ZNSt5dequeIS_IN10xalanc_1_89NameSpaceESaIS1_EESaIS3_EE19_M_destroy_data_auxESt15_Deque_iteratorIS3_RS3_PS3_ES9_ = comdat any

$_ZNSt11_Deque_baseIN10xalanc_1_89NameSpaceESaIS1_EED2Ev = comdat any

$_ZNSt5dequeIN10xalanc_1_89NameSpaceESaIS1_EE19_M_destroy_data_auxESt15_Deque_iteratorIS1_RS1_PS1_ES7_ = comdat any

$_ZNSt11_Deque_baseIN10xalanc_1_810Stylesheet13MatchPattern2ESaIS2_EED2Ev = comdat any

$_ZNSt5dequeIN10xalanc_1_810Stylesheet13MatchPattern2ESaIS2_EE19_M_destroy_data_auxESt15_Deque_iteratorIS2_RS2_PS2_ES8_ = comdat any

$_ZNSt6vectorIN10xalanc_1_814XalanDOMStringESaIS1_EE17_M_realloc_insertEN9__gnu_cxx17__normal_iteratorIPS1_S3_EERKS1_ = comdat any

$_ZNSt6vectorIN10xalanc_1_814KeyDeclarationESaIS1_EE17_M_realloc_insertEN9__gnu_cxx17__normal_iteratorIPS1_S3_EERKS1_ = comdat any

$_ZNSt5dequeIN10xalanc_1_89NameSpaceESaIS1_EE16_M_push_back_auxERKS1_ = comdat any

$_ZNSt5dequeIN10xalanc_1_89NameSpaceESaIS1_EE17_M_reallocate_mapEmb = comdat any

$_ZNSt5dequeIS_IN10xalanc_1_89NameSpaceESaIS1_EESaIS3_EE16_M_push_back_auxERKS3_ = comdat any

$_ZNSt5dequeIN10xalanc_1_89NameSpaceESaIS1_EEC2ERKS3_ = comdat any

$_ZNSt20__uninitialized_copyILb0EE13__uninit_copyISt15_Deque_iteratorIN10xalanc_1_89NameSpaceERKS4_PS5_ES2_IS4_RS4_PS4_EEET0_T_SD_SC_ = comdat any

$_ZSt8_DestroyISt15_Deque_iteratorIN10xalanc_1_89NameSpaceERS2_PS2_EEvT_S6_ = comdat any

$_ZNSt5dequeIS_IN10xalanc_1_89NameSpaceESaIS1_EESaIS3_EE17_M_reallocate_mapEmb = comdat any

$_ZNSt6vectorIN10xalanc_1_820XalanSpaceNodeTesterESaIS1_EE13_M_insert_auxEN9__gnu_cxx17__normal_iteratorIPS1_S3_EERKS1_ = comdat any

$_ZNSt6vectorIN10xalanc_1_820XalanSpaceNodeTesterESaIS1_EE17_M_realloc_insertEN9__gnu_cxx17__normal_iteratorIPS1_S3_EERKS1_ = comdat any

$_ZNSt6vectorIN10xalanc_1_820XalanSpaceNodeTesterESaIS1_EE20_M_allocate_and_copyIPS1_EES5_mT_S6_ = comdat any

$_ZNSt6vectorIN10xalanc_1_814KeyDeclarationESaIS1_EE15_M_range_insertIN9__gnu_cxx17__normal_iteratorIPS1_S3_EEEEvS8_T_S9_St20forward_iterator_tag = comdat any

$_ZNSt6vectorIN10xalanc_1_820XalanSpaceNodeTesterESaIS1_EE15_M_range_insertIN9__gnu_cxx17__normal_iteratorIPS1_S3_EEEEvS8_T_S9_St20forward_iterator_tag = comdat any

$_ZN10xalanc_1_8ltERKNS_10XalanQNameES2_ = comdat any

$_ZNSt8_Rb_treeIN10xalanc_1_821XalanQNameByReferenceESt4pairIKS1_PKNS0_12ElemTemplateEESt10_Select1stIS7_ESt4lessINS0_10XalanQNameEESaIS7_EE29_M_get_insert_hint_unique_posESt23_Rb_tree_const_iteratorIS7_ERS3_ = comdat any

$_ZNSt5dequeIN10xalanc_1_810Stylesheet13MatchPattern2ESaIS2_EE16_M_push_back_auxERKS2_ = comdat any

$_ZNSt5dequeIN10xalanc_1_810Stylesheet13MatchPattern2ESaIS2_EE17_M_reallocate_mapEmb = comdat any

$_ZNSt8_Rb_treeIN10xalanc_1_814XalanDOMStringESt4pairIKS1_St6vectorIPKNS0_10Stylesheet13MatchPattern2ESaIS8_EEESt10_Select1stISB_ESt4lessIS1_ESaISB_EE17_M_insert_unique_INSH_11_Alloc_nodeEEESt17_Rb_tree_iteratorISB_ESt23_Rb_tree_const_iteratorISB_ERKSB_RT_ = comdat any

$_ZNSt8_Rb_treeIN10xalanc_1_814XalanDOMStringESt4pairIKS1_St6vectorIPKNS0_10Stylesheet13MatchPattern2ESaIS8_EEESt10_Select1stISB_ESt4lessIS1_ESaISB_EE29_M_get_insert_hint_unique_posESt23_Rb_tree_const_iteratorISB_ERS3_ = comdat any

$_ZNSt8_Rb_treeIN10xalanc_1_814XalanDOMStringESt4pairIKS1_St6vectorIPKNS0_10Stylesheet13MatchPattern2ESaIS8_EEESt10_Select1stISB_ESt4lessIS1_ESaISB_EE24_M_get_insert_unique_posERS3_ = comdat any

$_ZNSt8_Rb_treeIN10xalanc_1_814XalanDOMStringESt4pairIKS1_St6vectorIPKNS0_10Stylesheet13MatchPattern2ESaIS8_EEESt10_Select1stISB_ESt4lessIS1_ESaISB_EE17_M_construct_nodeEPSt13_Rb_tree_nodeISB_ERKSB_ = comdat any

$_ZNSt8_Rb_treeIN10xalanc_1_814XalanDOMStringESt4pairIKS1_PNS0_18ExtensionNSHandlerEESt10_Select1stIS6_ESt4lessIS1_ESaIS6_EE24_M_get_insert_unique_posERS3_ = comdat any

$_ZNSt8_Rb_treeIN10xalanc_1_814XalanDOMStringESt4pairIKS1_PNS0_18ExtensionNSHandlerEESt10_Select1stIS6_ESt4lessIS1_ESaIS6_EE10_M_insert_INSC_11_Alloc_nodeEEESt17_Rb_tree_iteratorIS6_EPSt18_Rb_tree_node_baseSI_RKS6_RT_ = comdat any

$_ZTSN11xercesc_2_525XMLPlatformUtilsExceptionE = comdat any

$_ZTIN11xercesc_2_525XMLPlatformUtilsExceptionE = comdat any

@_ZN10xalanc_1_810Stylesheet13s_emptyStringE = dso_local global %"class.xalanc_1_8::XalanDOMString" zeroinitializer, align 8
@__dso_handle = external hidden global i8
@_ZN10xalanc_1_810Stylesheet12s_emptyQNameE = dso_local global %"class.xalanc_1_8::XalanQNameByReference" zeroinitializer, align 8
@_ZTVN10xalanc_1_810StylesheetE = dso_local unnamed_addr constant { [7 x ptr] } { [7 x ptr] [ptr null, ptr @_ZTIN10xalanc_1_810StylesheetE, ptr @_ZN10xalanc_1_810StylesheetD2Ev, ptr @_ZN10xalanc_1_810StylesheetD0Ev, ptr @_ZNK10xalanc_1_810Stylesheet21getNamespaceForPrefixERKNS_14XalanDOMStringE, ptr @_ZNK10xalanc_1_810Stylesheet6getURIEv, ptr @_ZN10xalanc_1_810Stylesheet16postConstructionERNS_29StylesheetConstructionContextE] }, align 8, !type !0, !type !1, !type !2, !type !3, !type !4, !type !5, !type !6, !type !7
@_ZTVN10__cxxabiv120__si_class_type_infoE = external global ptr
@_ZTSN11xercesc_2_525XMLPlatformUtilsExceptionE = linkonce_odr dso_local constant [43 x i8] c"N11xercesc_2_525XMLPlatformUtilsExceptionE\00", comdat, align 1
@_ZTIN11xercesc_2_512XMLExceptionE = external constant ptr
@_ZTIN11xercesc_2_525XMLPlatformUtilsExceptionE = linkonce_odr dso_local constant { ptr, ptr, ptr } { ptr getelementptr inbounds (ptr, ptr @_ZTVN10__cxxabiv120__si_class_type_infoE, i64 2), ptr @_ZTSN11xercesc_2_525XMLPlatformUtilsExceptionE, ptr @_ZTIN11xercesc_2_512XMLExceptionE }, comdat, align 8
@_ZN10xalanc_1_89Constants13ATTRNAME_NAMEE = external local_unnamed_addr constant ptr, align 8
@_ZN10xalanc_1_89Constants14ATTRTYPE_CDATAE = external local_unnamed_addr constant ptr, align 8
@_ZN10xalanc_1_89Constants14ATTRVAL_SIMPLEE = external local_unnamed_addr constant ptr, align 8
@_ZN10xalanc_1_89Constants14ATTRNAME_MATCHE = external local_unnamed_addr constant ptr, align 8
@_ZN10xalanc_1_89Constants12ATTRNAME_USEE = external local_unnamed_addr constant ptr, align 8
@_ZN10xalanc_1_89Constants31ELEMNAME_KEY_WITH_PREFIX_STRINGE = external local_unnamed_addr constant ptr, align 8
@_ZN10xalanc_1_811DOMServices27s_XMLNamespaceWithSeparatorE = external local_unnamed_addr constant ptr, align 8
@_ZN10xalanc_1_811DOMServices14s_XMLNamespaceE = external local_unnamed_addr constant ptr, align 8
@_ZN10xalanc_1_811DOMServices33s_XMLNamespaceWithSeparatorLengthE = external local_unnamed_addr constant ptr, align 8
@_ZN10xalanc_1_89Constants11ATTRVAL_YESE = external local_unnamed_addr constant ptr, align 8
@_ZN10xalanc_1_89Constants10ATTRVAL_NOE = external local_unnamed_addr constant ptr, align 8
@_ZN10xalanc_1_85XPath15PSEUDONAME_TEXTE = external constant [0 x i16], align 2
@_ZN10xalanc_1_85XPath18PSEUDONAME_COMMENTE = external constant [0 x i16], align 2
@_ZN10xalanc_1_85XPath15PSEUDONAME_ROOTE = external constant [0 x i16], align 2
@_ZN10xalanc_1_85XPath13PSEUDONAME_PIE = external constant [0 x i16], align 2
@_ZN10xalanc_1_85XPath15PSEUDONAME_NODEE = external constant [0 x i16], align 2
@_ZN10xalanc_1_85XPath14PSEUDONAME_ANYE = external constant [0 x i16], align 2
@.str = private unnamed_addr constant [3 x i8] c", \00", align 1
@.str.2 = private unnamed_addr constant [2 x i8] c"\22\00", align 1
@.str.3 = private unnamed_addr constant [2 x i8] c" \00", align 1
@_ZN10xalanc_1_89Constants26ATTRNAME_STYLESHEET_PREFIXE = external local_unnamed_addr constant ptr, align 8
@_ZN10xalanc_1_89Constants22ATTRVAL_DEFAULT_PREFIXE = external local_unnamed_addr constant ptr, align 8
@_ZN10xalanc_1_811DOMServices13s_emptyStringE = external global %"class.xalanc_1_8::XalanDOMString", align 8
@_ZN10xalanc_1_89Constants22ATTRNAME_RESULT_PREFIXE = external local_unnamed_addr constant ptr, align 8
@_ZTVN10__cxxabiv121__vmi_class_type_infoE = external global ptr
@_ZTSN10xalanc_1_810StylesheetE = dso_local constant [27 x i8] c"N10xalanc_1_810StylesheetE\00", align 1
@_ZTIN10xalanc_1_814PrefixResolverE = external constant ptr
@_ZTIN10xalanc_1_810StylesheetE = dso_local constant { ptr, ptr, i32, i32, ptr, i64 } { ptr getelementptr inbounds (ptr, ptr @_ZTVN10__cxxabiv121__vmi_class_type_infoE, i64 2), ptr @_ZTSN10xalanc_1_810StylesheetE, i32 0, i32 1, ptr @_ZTIN10xalanc_1_814PrefixResolverE, i64 0 }, align 8
@_ZN10xalanc_1_814XalanDOMString7s_emptyE = external constant i16, align 2
@_ZN10xalanc_1_813DoubleSupport18s_negativeInfinityE = external local_unnamed_addr constant double, align 8
@_ZN10xalanc_1_813DoubleSupport5s_NaNE = external local_unnamed_addr global %"union.xalanc_1_8::DoubleSupport::NumberUnion", align 8
@.str.4 = private unnamed_addr constant [26 x i8] c"vector::_M_realloc_insert\00", align 1
@.str.5 = private unnamed_addr constant [48 x i8] c"cannot create std::deque larger than max_size()\00", align 1
@.str.6 = private unnamed_addr constant [16 x i8] c"vector::reserve\00", align 1
@.str.7 = private unnamed_addr constant [24 x i8] c"vector::_M_range_insert\00", align 1
@_ZTVN10xalanc_1_821XalanQNameByReferenceE = available_externally unnamed_addr constant { [6 x ptr] } { [6 x ptr] [ptr null, ptr @_ZTIN10xalanc_1_821XalanQNameByReferenceE, ptr @_ZN10xalanc_1_821XalanQNameByReferenceD1Ev, ptr @_ZN10xalanc_1_821XalanQNameByReferenceD0Ev, ptr @_ZNK10xalanc_1_821XalanQNameByReference12getLocalPartEv, ptr @_ZNK10xalanc_1_821XalanQNameByReference12getNamespaceEv] }, align 8
@_ZTIN10xalanc_1_821XalanQNameByReferenceE = external constant ptr
@llvm.global_ctors = appending global [1 x { i32, ptr, ptr }] [{ i32, ptr, ptr } { i32 65535, ptr @_GLOBAL__sub_I_Stylesheet.cpp, ptr null }]
@switch.table._ZNK10xalanc_1_810Stylesheet12findTemplateERNS_26StylesheetExecutionContextEPNS_9XalanNodeENS3_8NodeTypeERKNS_10XalanQNameEb.8 = private unnamed_addr constant [4 x double] [double -5.000000e-01, double -2.500000e-01, double 0.000000e+00, double 5.000000e-01], align 8

@_ZN10xalanc_1_810StylesheetC1ERNS_14StylesheetRootERKNS_14XalanDOMStringERNS_29StylesheetConstructionContextE = dso_local unnamed_addr alias void (ptr, ptr, ptr, ptr), ptr @_ZN10xalanc_1_810StylesheetC2ERNS_14StylesheetRootERKNS_14XalanDOMStringERNS_29StylesheetConstructionContextE
@_ZN10xalanc_1_810StylesheetD1Ev = dso_local unnamed_addr alias void (ptr), ptr @_ZN10xalanc_1_810StylesheetD2Ev

declare i32 @__gxx_personality_v0(...)

; Function Attrs: nobuiltin nounwind
declare void @_ZdlPv(ptr noundef) local_unnamed_addr #0

declare void @_ZN10xalanc_1_814XalanDOMStringC1Ev(ptr noundef nonnull align 8 dereferenceable(28)) unnamed_addr #1

; Function Attrs: uwtable
define linkonce_odr dso_local void @_ZN10xalanc_1_814XalanDOMStringD2Ev(ptr noundef nonnull align 8 dereferenceable(28) %0) unnamed_addr #2 comdat align 2 personality ptr @__gxx_personality_v0 {
  %2 = load ptr, ptr %0, align 8, !tbaa !15
  %3 = icmp eq ptr %2, null
  br i1 %3, label %5, label %4

4:                                                ; preds = %1
  tail call void @_ZdlPv(ptr noundef nonnull %2) #18
  br label %5

5:                                                ; preds = %1, %4
  ret void
}

; Function Attrs: nofree nounwind
declare i32 @__cxa_atexit(ptr, ptr, ptr) local_unnamed_addr #3

declare void @_ZN10xalanc_1_821XalanQNameByReferenceC1Ev(ptr noundef nonnull align 8 dereferenceable(24)) unnamed_addr #1

declare void @_ZN10xalanc_1_821XalanQNameByReferenceD1Ev(ptr noundef nonnull align 8 dereferenceable(24)) unnamed_addr #1

; Function Attrs: uwtable
define dso_local void @_ZN10xalanc_1_810StylesheetC2ERNS_14StylesheetRootERKNS_14XalanDOMStringERNS_29StylesheetConstructionContextE(ptr noundef nonnull align 8 dereferenceable(1000) %0, ptr noundef nonnull align 1 %1, ptr noundef nonnull align 8 dereferenceable(28) %2, ptr noundef nonnull align 8 dereferenceable(8) %3) unnamed_addr #2 align 2 personality ptr @__gxx_personality_v0 {
  %5 = alloca %"class.xalanc_1_8::XalanDOMString", align 8
  tail call void @_ZN10xalanc_1_814PrefixResolverC2Ev(ptr noundef nonnull align 8 dereferenceable(8) %0)
  store ptr getelementptr inbounds ({ [7 x ptr] }, ptr @_ZTVN10xalanc_1_810StylesheetE, i64 0, inrange i32 0, i64 2), ptr %0, align 8, !tbaa !20
  %6 = getelementptr inbounds %"class.xalanc_1_8::Stylesheet", ptr %0, i64 0, i32 1
  store ptr %1, ptr %6, align 8, !tbaa !22
  %7 = getelementptr inbounds %"class.xalanc_1_8::Stylesheet", ptr %0, i64 0, i32 2
  invoke void @_ZN10xalanc_1_814XalanDOMStringC1ERKS0_jj(ptr noundef nonnull align 8 dereferenceable(28) %7, ptr noundef nonnull align 8 dereferenceable(28) %2, i32 noundef 0, i32 noundef -1)
          to label %8 unwind label %80

8:                                                ; preds = %4
  %9 = getelementptr inbounds %"class.xalanc_1_8::Stylesheet", ptr %0, i64 0, i32 3
  %10 = getelementptr inbounds %"class.xalanc_1_8::Stylesheet", ptr %0, i64 0, i32 4
  %11 = getelementptr inbounds %"class.xalanc_1_8::Stylesheet", ptr %0, i64 0, i32 5
  tail call void @llvm.memset.p0.i64(ptr noundef nonnull align 8 dereferenceable(48) %9, i8 0, i64 48, i1 false)
  %12 = load ptr, ptr %3, align 8, !tbaa !20
  %13 = getelementptr inbounds ptr, ptr %12, i64 17
  %14 = load ptr, ptr %13, align 8
  %15 = invoke noundef nonnull align 8 dereferenceable(28) ptr %14(ptr noundef nonnull align 8 dereferenceable(8) %3)
          to label %16 unwind label %84

16:                                               ; preds = %8
  invoke void @_ZN10xalanc_1_814XalanDOMStringC1ERKS0_jj(ptr noundef nonnull align 8 dereferenceable(28) %11, ptr noundef nonnull align 8 dereferenceable(28) %15, i32 noundef 0, i32 noundef -1)
          to label %17 unwind label %84

17:                                               ; preds = %16
  %18 = getelementptr inbounds %"class.xalanc_1_8::Stylesheet", ptr %0, i64 0, i32 6
  %19 = getelementptr inbounds %"class.xalanc_1_8::Stylesheet", ptr %0, i64 0, i32 8
  tail call void @llvm.memset.p0.i64(ptr noundef nonnull align 8 dereferenceable(112) %18, i8 0, i64 112, i1 false)
  invoke void @_ZNSt11_Deque_baseISt5dequeIN10xalanc_1_89NameSpaceESaIS2_EESaIS4_EE17_M_initialize_mapEm(ptr noundef nonnull align 8 dereferenceable(80) %19, i64 noundef 0)
          to label %20 unwind label %88

20:                                               ; preds = %17
  %21 = getelementptr inbounds %"class.xalanc_1_8::Stylesheet", ptr %0, i64 0, i32 9
  tail call void @llvm.memset.p0.i64(ptr noundef nonnull align 8 dereferenceable(80) %21, i8 0, i64 80, i1 false)
  invoke void @_ZNSt11_Deque_baseIN10xalanc_1_89NameSpaceESaIS1_EE17_M_initialize_mapEm(ptr noundef nonnull align 8 dereferenceable(80) %21, i64 noundef 0)
          to label %22 unwind label %92

22:                                               ; preds = %20
  %23 = getelementptr inbounds %"class.xalanc_1_8::Stylesheet", ptr %0, i64 0, i32 10
  store i8 0, ptr %23, align 8, !tbaa !23
  %24 = getelementptr inbounds %"class.xalanc_1_8::Stylesheet", ptr %0, i64 0, i32 11
  %25 = getelementptr inbounds %"class.xalanc_1_8::Stylesheet", ptr %0, i64 0, i32 11, i32 0, i32 0, i32 1
  store i32 0, ptr %25, align 8, !tbaa !109
  %26 = getelementptr inbounds %"class.xalanc_1_8::Stylesheet", ptr %0, i64 0, i32 11, i32 0, i32 0, i32 1, i32 0, i32 1
  store ptr null, ptr %26, align 8, !tbaa !110
  %27 = getelementptr inbounds %"class.xalanc_1_8::Stylesheet", ptr %0, i64 0, i32 11, i32 0, i32 0, i32 1, i32 0, i32 2
  store ptr %25, ptr %27, align 8, !tbaa !111
  %28 = getelementptr inbounds %"class.xalanc_1_8::Stylesheet", ptr %0, i64 0, i32 11, i32 0, i32 0, i32 1, i32 0, i32 3
  store ptr %25, ptr %28, align 8, !tbaa !112
  %29 = getelementptr inbounds %"class.xalanc_1_8::Stylesheet", ptr %0, i64 0, i32 11, i32 0, i32 0, i32 1, i32 1
  %30 = getelementptr inbounds %"class.xalanc_1_8::Stylesheet", ptr %0, i64 0, i32 13
  %31 = getelementptr inbounds %"class.xalanc_1_8::Stylesheet", ptr %0, i64 0, i32 14
  %32 = getelementptr inbounds %"class.xalanc_1_8::Stylesheet", ptr %0, i64 0, i32 14, i32 0, i32 0, i32 1
  store i32 0, ptr %32, align 8, !tbaa !109
  %33 = getelementptr inbounds %"class.xalanc_1_8::Stylesheet", ptr %0, i64 0, i32 14, i32 0, i32 0, i32 1, i32 0, i32 1
  store ptr null, ptr %33, align 8, !tbaa !110
  %34 = getelementptr inbounds %"class.xalanc_1_8::Stylesheet", ptr %0, i64 0, i32 14, i32 0, i32 0, i32 1, i32 0, i32 2
  tail call void @llvm.memset.p0.i64(ptr noundef nonnull align 8 dereferenceable(40) %29, i8 0, i64 40, i1 false)
  store ptr %32, ptr %34, align 8, !tbaa !111
  %35 = getelementptr inbounds %"class.xalanc_1_8::Stylesheet", ptr %0, i64 0, i32 14, i32 0, i32 0, i32 1, i32 0, i32 3
  store ptr %32, ptr %35, align 8, !tbaa !112
  %36 = getelementptr inbounds %"class.xalanc_1_8::Stylesheet", ptr %0, i64 0, i32 14, i32 0, i32 0, i32 1, i32 1
  %37 = getelementptr inbounds %"class.xalanc_1_8::Stylesheet", ptr %0, i64 0, i32 15
  %38 = getelementptr inbounds %"class.xalanc_1_8::Stylesheet", ptr %0, i64 0, i32 16
  tail call void @llvm.memset.p0.i64(ptr noundef nonnull align 8 dereferenceable(32) %36, i8 0, i64 32, i1 false)
  store double 1.000000e+00, ptr %38, align 8, !tbaa !113
  %39 = getelementptr inbounds %"class.xalanc_1_8::Stylesheet", ptr %0, i64 0, i32 17
  %40 = getelementptr inbounds %"class.xalanc_1_8::Stylesheet", ptr %0, i64 0, i32 17, i32 0, i32 0, i32 1
  store i32 0, ptr %40, align 8, !tbaa !109
  %41 = getelementptr inbounds %"class.xalanc_1_8::Stylesheet", ptr %0, i64 0, i32 17, i32 0, i32 0, i32 1, i32 0, i32 1
  store ptr null, ptr %41, align 8, !tbaa !110
  %42 = getelementptr inbounds %"class.xalanc_1_8::Stylesheet", ptr %0, i64 0, i32 17, i32 0, i32 0, i32 1, i32 0, i32 2
  store ptr %40, ptr %42, align 8, !tbaa !111
  %43 = getelementptr inbounds %"class.xalanc_1_8::Stylesheet", ptr %0, i64 0, i32 17, i32 0, i32 0, i32 1, i32 0, i32 3
  store ptr %40, ptr %43, align 8, !tbaa !112
  %44 = getelementptr inbounds %"class.xalanc_1_8::Stylesheet", ptr %0, i64 0, i32 17, i32 0, i32 0, i32 1, i32 1
  store i64 0, ptr %44, align 8, !tbaa !114
  %45 = getelementptr inbounds %"class.xalanc_1_8::Stylesheet", ptr %0, i64 0, i32 18
  store ptr %40, ptr %45, align 8, !tbaa !115
  %46 = getelementptr inbounds %"class.xalanc_1_8::Stylesheet", ptr %0, i64 0, i32 19
  tail call void @llvm.memset.p0.i64(ptr noundef nonnull align 8 dereferenceable(24) %46, i8 0, i64 24, i1 false)
  %47 = getelementptr inbounds %"class.xalanc_1_8::Stylesheet", ptr %0, i64 0, i32 20
  %48 = getelementptr inbounds %"class.xalanc_1_8::Stylesheet", ptr %0, i64 0, i32 20, i32 0, i32 0, i32 1
  store i32 0, ptr %48, align 8, !tbaa !109
  %49 = getelementptr inbounds %"class.xalanc_1_8::Stylesheet", ptr %0, i64 0, i32 20, i32 0, i32 0, i32 1, i32 0, i32 1
  store ptr null, ptr %49, align 8, !tbaa !110
  %50 = getelementptr inbounds %"class.xalanc_1_8::Stylesheet", ptr %0, i64 0, i32 20, i32 0, i32 0, i32 1, i32 0, i32 2
  store ptr %48, ptr %50, align 8, !tbaa !111
  %51 = getelementptr inbounds %"class.xalanc_1_8::Stylesheet", ptr %0, i64 0, i32 20, i32 0, i32 0, i32 1, i32 0, i32 3
  store ptr %48, ptr %51, align 8, !tbaa !112
  %52 = getelementptr inbounds %"class.xalanc_1_8::Stylesheet", ptr %0, i64 0, i32 20, i32 0, i32 0, i32 1, i32 1
  store i64 0, ptr %52, align 8, !tbaa !114
  %53 = getelementptr inbounds %"class.xalanc_1_8::Stylesheet", ptr %0, i64 0, i32 21
  store ptr %48, ptr %53, align 8, !tbaa !115
  %54 = getelementptr inbounds %"class.xalanc_1_8::Stylesheet", ptr %0, i64 0, i32 22
  %55 = getelementptr inbounds %"class.xalanc_1_8::Stylesheet", ptr %0, i64 0, i32 23
  %56 = getelementptr inbounds %"class.xalanc_1_8::Stylesheet", ptr %0, i64 0, i32 24
  %57 = getelementptr inbounds %"class.xalanc_1_8::Stylesheet", ptr %0, i64 0, i32 25
  %58 = getelementptr inbounds %"class.xalanc_1_8::Stylesheet", ptr %0, i64 0, i32 26
  %59 = getelementptr inbounds %"class.xalanc_1_8::Stylesheet", ptr %0, i64 0, i32 27
  %60 = getelementptr inbounds %"class.xalanc_1_8::Stylesheet", ptr %0, i64 0, i32 28
  tail call void @llvm.memset.p0.i64(ptr noundef nonnull align 8 dereferenceable(224) %54, i8 0, i64 224, i1 false)
  invoke void @_ZNSt11_Deque_baseIN10xalanc_1_810Stylesheet13MatchPattern2ESaIS2_EE17_M_initialize_mapEm(ptr noundef nonnull align 8 dereferenceable(80) %60, i64 noundef 0)
          to label %61 unwind label %96

61:                                               ; preds = %22
  %62 = getelementptr inbounds %"class.xalanc_1_8::Stylesheet", ptr %0, i64 0, i32 29
  %63 = getelementptr inbounds %"class.xalanc_1_8::Stylesheet", ptr %0, i64 0, i32 30
  %64 = getelementptr inbounds %"class.xalanc_1_8::Stylesheet", ptr %0, i64 0, i32 31
  tail call void @llvm.memset.p0.i64(ptr noundef nonnull align 8 dereferenceable(32) %62, i8 0, i64 32, i1 false)
  invoke void @_ZN10xalanc_1_817NamespacesHandlerC1Ev(ptr noundef nonnull align 8 dereferenceable(120) %64)
          to label %65 unwind label %100

65:                                               ; preds = %61
  %66 = getelementptr inbounds %"class.xalanc_1_8::Stylesheet", ptr %0, i64 0, i32 2, i32 1
  %67 = load i32, ptr %66, align 8, !tbaa !116
  %68 = icmp eq i32 %67, 0
  br i1 %68, label %69, label %108

69:                                               ; preds = %65
  %70 = getelementptr inbounds %"class.xalanc_1_8::Stylesheet", ptr %0, i64 0, i32 13, i32 0, i32 0, i32 0, i32 1
  %71 = load ptr, ptr %70, align 8, !tbaa !22
  %72 = getelementptr inbounds %"class.xalanc_1_8::Stylesheet", ptr %0, i64 0, i32 13, i32 0, i32 0, i32 0, i32 2
  %73 = load ptr, ptr %72, align 8, !tbaa !117
  %74 = icmp eq ptr %71, %73
  br i1 %74, label %79, label %75

75:                                               ; preds = %69
  invoke void @_ZN10xalanc_1_814XalanDOMStringC1ERKS0_jj(ptr noundef nonnull align 8 dereferenceable(28) %71, ptr noundef nonnull align 8 dereferenceable(28) %7, i32 noundef 0, i32 noundef -1)
          to label %76 unwind label %104

76:                                               ; preds = %75
  %77 = load ptr, ptr %70, align 8, !tbaa !118
  %78 = getelementptr inbounds %"class.xalanc_1_8::XalanDOMString", ptr %77, i64 1
  store ptr %78, ptr %70, align 8, !tbaa !118
  br label %162

79:                                               ; preds = %69
  invoke void @_ZNSt6vectorIN10xalanc_1_814XalanDOMStringESaIS1_EE17_M_realloc_insertEN9__gnu_cxx17__normal_iteratorIPS1_S3_EERKS1_(ptr noundef nonnull align 8 dereferenceable(24) %30, ptr %71, ptr noundef nonnull align 8 dereferenceable(28) %7)
          to label %162 unwind label %104

80:                                               ; preds = %4
  %81 = landingpad { ptr, i32 }
          cleanup
  %82 = extractvalue { ptr, i32 } %81, 0
  %83 = extractvalue { ptr, i32 } %81, 1
  br label %241

84:                                               ; preds = %16, %8
  %85 = landingpad { ptr, i32 }
          cleanup
  %86 = extractvalue { ptr, i32 } %85, 0
  %87 = extractvalue { ptr, i32 } %85, 1
  br label %230

88:                                               ; preds = %17
  %89 = landingpad { ptr, i32 }
          cleanup
  %90 = extractvalue { ptr, i32 } %89, 0
  %91 = extractvalue { ptr, i32 } %89, 1
  br label %220

92:                                               ; preds = %20
  %93 = landingpad { ptr, i32 }
          cleanup
  %94 = extractvalue { ptr, i32 } %93, 0
  %95 = extractvalue { ptr, i32 } %93, 1
  br label %217

96:                                               ; preds = %22
  %97 = landingpad { ptr, i32 }
          cleanup
  %98 = extractvalue { ptr, i32 } %97, 0
  %99 = extractvalue { ptr, i32 } %97, 1
  br label %173

100:                                              ; preds = %61
  %101 = landingpad { ptr, i32 }
          cleanup
  %102 = extractvalue { ptr, i32 } %101, 0
  %103 = extractvalue { ptr, i32 } %101, 1
  br label %166

104:                                              ; preds = %79, %75
  %105 = landingpad { ptr, i32 }
          cleanup
  %106 = extractvalue { ptr, i32 } %105, 0
  %107 = extractvalue { ptr, i32 } %105, 1
  br label %163

108:                                              ; preds = %65
  call void @llvm.lifetime.start.p0(i64 32, ptr nonnull %5) #18
  %109 = load ptr, ptr %3, align 8, !tbaa !20
  %110 = getelementptr inbounds ptr, ptr %109, i64 14
  %111 = load ptr, ptr %110, align 8
  invoke void %111(ptr nonnull sret(%"class.xalanc_1_8::XalanDOMString") align 8 %5, ptr noundef nonnull align 8 dereferenceable(8) %3, ptr noundef nonnull align 8 dereferenceable(28) %7)
          to label %112 unwind label %133

112:                                              ; preds = %108
  %113 = getelementptr inbounds %"class.xalanc_1_8::XalanDOMString", ptr %5, i64 0, i32 1
  %114 = load i32, ptr %113, align 8, !tbaa !116
  %115 = icmp eq i32 %114, 0
  br i1 %115, label %140, label %116

116:                                              ; preds = %112
  %117 = getelementptr inbounds %"class.xalanc_1_8::Stylesheet", ptr %0, i64 0, i32 13, i32 0, i32 0, i32 0, i32 1
  %118 = load ptr, ptr %117, align 8, !tbaa !22
  %119 = getelementptr inbounds %"class.xalanc_1_8::Stylesheet", ptr %0, i64 0, i32 13, i32 0, i32 0, i32 0, i32 2
  %120 = load ptr, ptr %119, align 8, !tbaa !117
  %121 = icmp eq ptr %118, %120
  br i1 %121, label %126, label %122

122:                                              ; preds = %116
  invoke void @_ZN10xalanc_1_814XalanDOMStringC1ERKS0_jj(ptr noundef nonnull align 8 dereferenceable(28) %118, ptr noundef nonnull align 8 dereferenceable(28) %5, i32 noundef 0, i32 noundef -1)
          to label %123 unwind label %135

123:                                              ; preds = %122
  %124 = load ptr, ptr %117, align 8, !tbaa !118
  %125 = getelementptr inbounds %"class.xalanc_1_8::XalanDOMString", ptr %124, i64 1
  store ptr %125, ptr %117, align 8, !tbaa !118
  br label %127

126:                                              ; preds = %116
  invoke void @_ZNSt6vectorIN10xalanc_1_814XalanDOMStringESaIS1_EE17_M_realloc_insertEN9__gnu_cxx17__normal_iteratorIPS1_S3_EERKS1_(ptr noundef nonnull align 8 dereferenceable(24) %30, ptr %118, ptr noundef nonnull align 8 dereferenceable(28) %5)
          to label %127 unwind label %135

127:                                              ; preds = %123, %126
  %128 = icmp eq ptr %5, %7
  br i1 %128, label %140, label %129

129:                                              ; preds = %127
  %130 = invoke noundef nonnull align 8 dereferenceable(24) ptr @_ZNSt6vectorItSaItEEaSERKS1_(ptr noundef nonnull align 8 dereferenceable(24) %7, ptr noundef nonnull align 8 dereferenceable(24) %5)
          to label %131 unwind label %135

131:                                              ; preds = %129
  %132 = load i32, ptr %113, align 8, !tbaa !116
  store i32 %132, ptr %66, align 8, !tbaa !116
  br label %140

133:                                              ; preds = %108
  %134 = landingpad { ptr, i32 }
          cleanup
          catch ptr @_ZTIN11xercesc_2_525XMLPlatformUtilsExceptionE
  br label %145

135:                                              ; preds = %129, %126, %122
  %136 = landingpad { ptr, i32 }
          cleanup
          catch ptr @_ZTIN11xercesc_2_525XMLPlatformUtilsExceptionE
  %137 = load ptr, ptr %5, align 8, !tbaa !15
  %138 = icmp eq ptr %137, null
  br i1 %138, label %145, label %139

139:                                              ; preds = %135
  call void @_ZdlPv(ptr noundef nonnull %137) #18
  br label %145

140:                                              ; preds = %131, %127, %112
  %141 = load ptr, ptr %5, align 8, !tbaa !15
  %142 = icmp eq ptr %141, null
  br i1 %142, label %144, label %143

143:                                              ; preds = %140
  call void @_ZdlPv(ptr noundef nonnull %141) #18
  br label %144

144:                                              ; preds = %143, %140
  call void @llvm.lifetime.end.p0(i64 32, ptr nonnull %5) #18
  br label %162

145:                                              ; preds = %139, %135, %133
  %146 = phi { ptr, i32 } [ %134, %133 ], [ %136, %135 ], [ %136, %139 ]
  %147 = extractvalue { ptr, i32 } %146, 0
  %148 = extractvalue { ptr, i32 } %146, 1
  call void @llvm.lifetime.end.p0(i64 32, ptr nonnull %5) #18
  %149 = call i32 @llvm.eh.typeid.for(ptr nonnull @_ZTIN11xercesc_2_525XMLPlatformUtilsExceptionE) #18
  %150 = icmp eq i32 %148, %149
  br i1 %150, label %151, label %163

151:                                              ; preds = %145
  %152 = call ptr @__cxa_begin_catch(ptr %147) #18
  invoke void @_ZNSt6vectorIN10xalanc_1_814XalanDOMStringESaIS1_EE9push_backERKS1_(ptr noundef nonnull align 8 dereferenceable(24) %30, ptr noundef nonnull align 8 dereferenceable(28) %2)
          to label %153 unwind label %154

153:                                              ; preds = %151
  invoke void @__cxa_end_catch()
          to label %162 unwind label %156

154:                                              ; preds = %151
  %155 = landingpad { ptr, i32 }
          cleanup
  invoke void @__cxa_end_catch()
          to label %158 unwind label %247

156:                                              ; preds = %153
  %157 = landingpad { ptr, i32 }
          cleanup
  br label %158

158:                                              ; preds = %154, %156
  %159 = phi { ptr, i32 } [ %157, %156 ], [ %155, %154 ]
  %160 = extractvalue { ptr, i32 } %159, 0
  %161 = extractvalue { ptr, i32 } %159, 1
  br label %163

162:                                              ; preds = %76, %79, %153, %144
  ret void

163:                                              ; preds = %158, %145, %104
  %164 = phi i32 [ %107, %104 ], [ %161, %158 ], [ %148, %145 ]
  %165 = phi ptr [ %106, %104 ], [ %160, %158 ], [ %147, %145 ]
  invoke void @_ZN10xalanc_1_817NamespacesHandlerD1Ev(ptr noundef nonnull align 8 dereferenceable(120) %64)
          to label %166 unwind label %247

166:                                              ; preds = %163, %100
  %167 = phi i32 [ %164, %163 ], [ %103, %100 ]
  %168 = phi ptr [ %165, %163 ], [ %102, %100 ]
  %169 = load ptr, ptr %63, align 8, !tbaa !119
  %170 = icmp eq ptr %169, null
  br i1 %170, label %172, label %171

171:                                              ; preds = %166
  call void @_ZdlPv(ptr noundef nonnull %169) #18
  br label %172

172:                                              ; preds = %171, %166
  invoke void @_ZNSt5dequeIN10xalanc_1_810Stylesheet13MatchPattern2ESaIS2_EED2Ev(ptr noundef nonnull align 8 dereferenceable(80) %60)
          to label %173 unwind label %247

173:                                              ; preds = %172, %96
  %174 = phi i32 [ %167, %172 ], [ %99, %96 ]
  %175 = phi ptr [ %168, %172 ], [ %98, %96 ]
  %176 = load ptr, ptr %59, align 8, !tbaa !120
  %177 = icmp eq ptr %176, null
  br i1 %177, label %179, label %178

178:                                              ; preds = %173
  call void @_ZdlPv(ptr noundef nonnull %176) #18
  br label %179

179:                                              ; preds = %178, %173
  %180 = load ptr, ptr %58, align 8, !tbaa !120
  %181 = icmp eq ptr %180, null
  br i1 %181, label %183, label %182

182:                                              ; preds = %179
  call void @_ZdlPv(ptr noundef nonnull %180) #18
  br label %183

183:                                              ; preds = %182, %179
  %184 = load ptr, ptr %57, align 8, !tbaa !120
  %185 = icmp eq ptr %184, null
  br i1 %185, label %187, label %186

186:                                              ; preds = %183
  call void @_ZdlPv(ptr noundef nonnull %184) #18
  br label %187

187:                                              ; preds = %186, %183
  %188 = load ptr, ptr %56, align 8, !tbaa !120
  %189 = icmp eq ptr %188, null
  br i1 %189, label %191, label %190

190:                                              ; preds = %187
  call void @_ZdlPv(ptr noundef nonnull %188) #18
  br label %191

191:                                              ; preds = %190, %187
  %192 = load ptr, ptr %55, align 8, !tbaa !120
  %193 = icmp eq ptr %192, null
  br i1 %193, label %195, label %194

194:                                              ; preds = %191
  call void @_ZdlPv(ptr noundef nonnull %192) #18
  br label %195

195:                                              ; preds = %194, %191
  %196 = load ptr, ptr %54, align 8, !tbaa !120
  %197 = icmp eq ptr %196, null
  br i1 %197, label %199, label %198

198:                                              ; preds = %195
  call void @_ZdlPv(ptr noundef nonnull %196) #18
  br label %199

199:                                              ; preds = %198, %195
  %200 = load ptr, ptr %49, align 8, !tbaa !110
  invoke void @_ZNSt8_Rb_treeIN10xalanc_1_814XalanDOMStringESt4pairIKS1_St6vectorIPKNS0_10Stylesheet13MatchPattern2ESaIS8_EEESt10_Select1stISB_ESt4lessIS1_ESaISB_EE8_M_eraseEPSt13_Rb_tree_nodeISB_E(ptr noundef nonnull align 8 dereferenceable(48) %47, ptr noundef %200)
          to label %201 unwind label %247

201:                                              ; preds = %199
  %202 = load ptr, ptr %46, align 8, !tbaa !120
  %203 = icmp eq ptr %202, null
  br i1 %203, label %205, label %204

204:                                              ; preds = %201
  call void @_ZdlPv(ptr noundef nonnull %202) #18
  br label %205

205:                                              ; preds = %204, %201
  %206 = load ptr, ptr %41, align 8, !tbaa !110
  invoke void @_ZNSt8_Rb_treeIN10xalanc_1_814XalanDOMStringESt4pairIKS1_St6vectorIPKNS0_10Stylesheet13MatchPattern2ESaIS8_EEESt10_Select1stISB_ESt4lessIS1_ESaISB_EE8_M_eraseEPSt13_Rb_tree_nodeISB_E(ptr noundef nonnull align 8 dereferenceable(48) %39, ptr noundef %206)
          to label %207 unwind label %247

207:                                              ; preds = %205
  %208 = load ptr, ptr %37, align 8, !tbaa !121
  %209 = icmp eq ptr %208, null
  br i1 %209, label %211, label %210

210:                                              ; preds = %207
  call void @_ZdlPv(ptr noundef nonnull %208) #18
  br label %211

211:                                              ; preds = %210, %207
  %212 = load ptr, ptr %33, align 8, !tbaa !110
  invoke void @_ZNSt8_Rb_treeIN10xalanc_1_821XalanQNameByReferenceESt4pairIKS1_PKNS0_12ElemTemplateEESt10_Select1stIS7_ESt4lessINS0_10XalanQNameEESaIS7_EE8_M_eraseEPSt13_Rb_tree_nodeIS7_E(ptr noundef nonnull align 8 dereferenceable(48) %31, ptr noundef %212)
          to label %213 unwind label %247

213:                                              ; preds = %211
  invoke void @_ZNSt6vectorIN10xalanc_1_814XalanDOMStringESaIS1_EED2Ev(ptr noundef nonnull align 8 dereferenceable(24) %30)
          to label %214 unwind label %247

214:                                              ; preds = %213
  %215 = load ptr, ptr %26, align 8, !tbaa !110
  invoke void @_ZNSt8_Rb_treeIN10xalanc_1_814XalanDOMStringESt4pairIKS1_PNS0_18ExtensionNSHandlerEESt10_Select1stIS6_ESt4lessIS1_ESaIS6_EE8_M_eraseEPSt13_Rb_tree_nodeIS6_E(ptr noundef nonnull align 8 dereferenceable(48) %24, ptr noundef %215)
          to label %216 unwind label %247

216:                                              ; preds = %214
  invoke void @_ZNSt5dequeIN10xalanc_1_89NameSpaceESaIS1_EED2Ev(ptr noundef nonnull align 8 dereferenceable(80) %21)
          to label %217 unwind label %247

217:                                              ; preds = %216, %92
  %218 = phi i32 [ %174, %216 ], [ %95, %92 ]
  %219 = phi ptr [ %175, %216 ], [ %94, %92 ]
  invoke void @_ZNSt5dequeIS_IN10xalanc_1_89NameSpaceESaIS1_EESaIS3_EED2Ev(ptr noundef nonnull align 8 dereferenceable(80) %19)
          to label %220 unwind label %247

220:                                              ; preds = %217, %88
  %221 = phi i32 [ %218, %217 ], [ %91, %88 ]
  %222 = phi ptr [ %219, %217 ], [ %90, %88 ]
  %223 = load ptr, ptr %18, align 8, !tbaa !122
  %224 = icmp eq ptr %223, null
  br i1 %224, label %226, label %225

225:                                              ; preds = %220
  call void @_ZdlPv(ptr noundef nonnull %223) #18
  br label %226

226:                                              ; preds = %225, %220
  %227 = load ptr, ptr %11, align 8, !tbaa !15
  %228 = icmp eq ptr %227, null
  br i1 %228, label %230, label %229

229:                                              ; preds = %226
  call void @_ZdlPv(ptr noundef nonnull %227) #18
  br label %230

230:                                              ; preds = %229, %226, %84
  %231 = phi i32 [ %87, %84 ], [ %221, %226 ], [ %221, %229 ]
  %232 = phi ptr [ %86, %84 ], [ %222, %226 ], [ %222, %229 ]
  invoke void @_ZNSt6vectorIN10xalanc_1_820XalanSpaceNodeTesterESaIS1_EED2Ev(ptr noundef nonnull align 8 dereferenceable(24) %10)
          to label %233 unwind label %247

233:                                              ; preds = %230
  %234 = load ptr, ptr %9, align 8, !tbaa !123
  %235 = icmp eq ptr %234, null
  br i1 %235, label %237, label %236

236:                                              ; preds = %233
  call void @_ZdlPv(ptr noundef nonnull %234) #18
  br label %237

237:                                              ; preds = %236, %233
  %238 = load ptr, ptr %7, align 8, !tbaa !15
  %239 = icmp eq ptr %238, null
  br i1 %239, label %241, label %240

240:                                              ; preds = %237
  call void @_ZdlPv(ptr noundef nonnull %238) #18
  br label %241

241:                                              ; preds = %240, %237, %80
  %242 = phi i32 [ %83, %80 ], [ %231, %237 ], [ %231, %240 ]
  %243 = phi ptr [ %82, %80 ], [ %232, %237 ], [ %232, %240 ]
  invoke void @_ZN10xalanc_1_814PrefixResolverD2Ev(ptr noundef nonnull align 8 dereferenceable(8) %0)
          to label %244 unwind label %247

244:                                              ; preds = %241
  %245 = insertvalue { ptr, i32 } poison, ptr %243, 0
  %246 = insertvalue { ptr, i32 } %245, i32 %242, 1
  resume { ptr, i32 } %246

247:                                              ; preds = %214, %211, %205, %199, %241, %230, %217, %216, %213, %172, %163, %154
  %248 = landingpad { ptr, i32 }
          catch ptr null
  %249 = extractvalue { ptr, i32 } %248, 0
  call void @__clang_call_terminate(ptr %249) #19
  unreachable
}

declare void @_ZN10xalanc_1_814PrefixResolverC2Ev(ptr noundef nonnull align 8 dereferenceable(8)) unnamed_addr #1

declare void @_ZN10xalanc_1_814XalanDOMStringC1ERKS0_jj(ptr noundef nonnull align 8 dereferenceable(28), ptr noundef nonnull align 8 dereferenceable(28), i32 noundef, i32 noundef) unnamed_addr #1

; Function Attrs: mustprogress nocallback nofree nosync nounwind willreturn memory(argmem: readwrite)
declare void @llvm.lifetime.start.p0(i64 immarg, ptr nocapture) #4

; Function Attrs: mustprogress nocallback nofree nosync nounwind willreturn memory(argmem: readwrite)
declare void @llvm.lifetime.end.p0(i64 immarg, ptr nocapture) #4

declare void @_ZN10xalanc_1_817NamespacesHandlerC1Ev(ptr noundef nonnull align 8 dereferenceable(120)) unnamed_addr #1

; Function Attrs: uwtable
define linkonce_odr dso_local void @_ZNSt6vectorIN10xalanc_1_814XalanDOMStringESaIS1_EE9push_backERKS1_(ptr noundef nonnull align 8 dereferenceable(24) %0, ptr noundef nonnull align 8 dereferenceable(28) %1) local_unnamed_addr #2 comdat align 2 {
  %3 = getelementptr inbounds %"struct.std::_Vector_base<xalanc_1_8::XalanDOMString, std::allocator<xalanc_1_8::XalanDOMString> >::_Vector_impl_data", ptr %0, i64 0, i32 1
  %4 = load ptr, ptr %3, align 8, !tbaa !22
  %5 = getelementptr inbounds %"struct.std::_Vector_base<xalanc_1_8::XalanDOMString, std::allocator<xalanc_1_8::XalanDOMString> >::_Vector_impl_data", ptr %0, i64 0, i32 2
  %6 = load ptr, ptr %5, align 8, !tbaa !117
  %7 = icmp eq ptr %4, %6
  br i1 %7, label %11, label %8

8:                                                ; preds = %2
  tail call void @_ZN10xalanc_1_814XalanDOMStringC1ERKS0_jj(ptr noundef nonnull align 8 dereferenceable(28) %4, ptr noundef nonnull align 8 dereferenceable(28) %1, i32 noundef 0, i32 noundef -1)
  %9 = load ptr, ptr %3, align 8, !tbaa !118
  %10 = getelementptr inbounds %"class.xalanc_1_8::XalanDOMString", ptr %9, i64 1
  store ptr %10, ptr %3, align 8, !tbaa !118
  br label %12

11:                                               ; preds = %2
  tail call void @_ZNSt6vectorIN10xalanc_1_814XalanDOMStringESaIS1_EE17_M_realloc_insertEN9__gnu_cxx17__normal_iteratorIPS1_S3_EERKS1_(ptr noundef nonnull align 8 dereferenceable(24) %0, ptr %4, ptr noundef nonnull align 8 dereferenceable(28) %1)
  br label %12

12:                                               ; preds = %11, %8
  ret void
}

; Function Attrs: noinline noreturn nounwind uwtable
define linkonce_odr hidden void @__clang_call_terminate(ptr noundef %0) local_unnamed_addr #5 comdat {
  %2 = tail call ptr @__cxa_begin_catch(ptr %0) #18
  tail call void @_ZSt9terminatev() #19
  unreachable
}

declare ptr @__cxa_begin_catch(ptr) local_unnamed_addr

declare void @_ZSt9terminatev() local_unnamed_addr

; Function Attrs: nofree nosync nounwind memory(none)
declare i32 @llvm.eh.typeid.for(ptr) #6

declare void @__cxa_end_catch() local_unnamed_addr

declare void @_ZN10xalanc_1_817NamespacesHandlerD1Ev(ptr noundef nonnull align 8 dereferenceable(120)) unnamed_addr #1

; Function Attrs: uwtable
define linkonce_odr dso_local void @_ZNSt5dequeIN10xalanc_1_810Stylesheet13MatchPattern2ESaIS2_EED2Ev(ptr noundef nonnull align 8 dereferenceable(80) %0) unnamed_addr #2 comdat align 2 personality ptr @__gxx_personality_v0 {
  %2 = alloca %"struct.std::_Deque_iterator.60", align 8
  %3 = alloca %"struct.std::_Deque_iterator.60", align 8
  %4 = getelementptr inbounds %"struct.std::_Deque_base<xalanc_1_8::Stylesheet::MatchPattern2, std::allocator<xalanc_1_8::Stylesheet::MatchPattern2> >::_Deque_impl", ptr %0, i64 0, i32 2
  %5 = load ptr, ptr %4, align 8, !tbaa !124, !noalias !125
  %6 = getelementptr inbounds %"struct.std::_Deque_base<xalanc_1_8::Stylesheet::MatchPattern2, std::allocator<xalanc_1_8::Stylesheet::MatchPattern2> >::_Deque_impl", ptr %0, i64 0, i32 2, i32 1
  %7 = load ptr, ptr %6, align 8, !tbaa !128, !noalias !125
  %8 = getelementptr inbounds %"struct.std::_Deque_base<xalanc_1_8::Stylesheet::MatchPattern2, std::allocator<xalanc_1_8::Stylesheet::MatchPattern2> >::_Deque_impl", ptr %0, i64 0, i32 2, i32 2
  %9 = load ptr, ptr %8, align 8, !tbaa !129, !noalias !125
  %10 = getelementptr inbounds %"struct.std::_Deque_base<xalanc_1_8::Stylesheet::MatchPattern2, std::allocator<xalanc_1_8::Stylesheet::MatchPattern2> >::_Deque_impl", ptr %0, i64 0, i32 2, i32 3
  %11 = load ptr, ptr %10, align 8, !tbaa !130, !noalias !125
  %12 = getelementptr inbounds %"struct.std::_Deque_base<xalanc_1_8::Stylesheet::MatchPattern2, std::allocator<xalanc_1_8::Stylesheet::MatchPattern2> >::_Deque_impl", ptr %0, i64 0, i32 3
  %13 = load ptr, ptr %12, align 8, !tbaa !124, !noalias !131
  %14 = getelementptr inbounds %"struct.std::_Deque_base<xalanc_1_8::Stylesheet::MatchPattern2, std::allocator<xalanc_1_8::Stylesheet::MatchPattern2> >::_Deque_impl", ptr %0, i64 0, i32 3, i32 1
  %15 = load ptr, ptr %14, align 8, !tbaa !128, !noalias !131
  %16 = getelementptr inbounds %"struct.std::_Deque_base<xalanc_1_8::Stylesheet::MatchPattern2, std::allocator<xalanc_1_8::Stylesheet::MatchPattern2> >::_Deque_impl", ptr %0, i64 0, i32 3, i32 2
  %17 = load ptr, ptr %16, align 8, !tbaa !129, !noalias !131
  %18 = getelementptr inbounds %"struct.std::_Deque_base<xalanc_1_8::Stylesheet::MatchPattern2, std::allocator<xalanc_1_8::Stylesheet::MatchPattern2> >::_Deque_impl", ptr %0, i64 0, i32 3, i32 3
  %19 = load ptr, ptr %18, align 8, !tbaa !130, !noalias !131
  call void @llvm.lifetime.start.p0(i64 32, ptr nonnull %2)
  call void @llvm.lifetime.start.p0(i64 32, ptr nonnull %3)
  store ptr %5, ptr %2, align 8, !tbaa !124
  %20 = getelementptr inbounds %"struct.std::_Deque_iterator.60", ptr %2, i64 0, i32 1
  store ptr %7, ptr %20, align 8, !tbaa !128
  %21 = getelementptr inbounds %"struct.std::_Deque_iterator.60", ptr %2, i64 0, i32 2
  store ptr %9, ptr %21, align 8, !tbaa !129
  %22 = getelementptr inbounds %"struct.std::_Deque_iterator.60", ptr %2, i64 0, i32 3
  store ptr %11, ptr %22, align 8, !tbaa !130
  store ptr %13, ptr %3, align 8, !tbaa !124
  %23 = getelementptr inbounds %"struct.std::_Deque_iterator.60", ptr %3, i64 0, i32 1
  store ptr %15, ptr %23, align 8, !tbaa !128
  %24 = getelementptr inbounds %"struct.std::_Deque_iterator.60", ptr %3, i64 0, i32 2
  store ptr %17, ptr %24, align 8, !tbaa !129
  %25 = getelementptr inbounds %"struct.std::_Deque_iterator.60", ptr %3, i64 0, i32 3
  store ptr %19, ptr %25, align 8, !tbaa !130
  invoke void @_ZNSt5dequeIN10xalanc_1_810Stylesheet13MatchPattern2ESaIS2_EE19_M_destroy_data_auxESt15_Deque_iteratorIS2_RS2_PS2_ES8_(ptr noundef nonnull align 8 dereferenceable(80) %0, ptr noundef nonnull %2, ptr noundef nonnull %3)
          to label %26 unwind label %44

26:                                               ; preds = %1
  call void @llvm.lifetime.end.p0(i64 32, ptr nonnull %2)
  call void @llvm.lifetime.end.p0(i64 32, ptr nonnull %3)
  %27 = load ptr, ptr %0, align 8, !tbaa !134
  %28 = icmp eq ptr %27, null
  br i1 %28, label %43, label %29

29:                                               ; preds = %26
  %30 = load ptr, ptr %10, align 8, !tbaa !135
  %31 = load ptr, ptr %18, align 8, !tbaa !136
  %32 = getelementptr inbounds ptr, ptr %31, i64 1
  %33 = icmp ult ptr %30, %32
  br i1 %33, label %34, label %41

34:                                               ; preds = %29, %34
  %35 = phi ptr [ %37, %34 ], [ %30, %29 ]
  %36 = load ptr, ptr %35, align 8, !tbaa !22
  call void @_ZdlPv(ptr noundef %36) #18
  %37 = getelementptr inbounds ptr, ptr %35, i64 1
  %38 = icmp ult ptr %35, %31
  br i1 %38, label %34, label %39

39:                                               ; preds = %34
  %40 = load ptr, ptr %0, align 8, !tbaa !134
  br label %41

41:                                               ; preds = %39, %29
  %42 = phi ptr [ %40, %39 ], [ %27, %29 ]
  call void @_ZdlPv(ptr noundef %42) #18
  br label %43

43:                                               ; preds = %26, %41
  ret void

44:                                               ; preds = %1
  %45 = landingpad { ptr, i32 }
          cleanup
  invoke void @_ZNSt11_Deque_baseIN10xalanc_1_810Stylesheet13MatchPattern2ESaIS2_EED2Ev(ptr noundef nonnull align 8 dereferenceable(80) %0)
          to label %46 unwind label %47

46:                                               ; preds = %44
  resume { ptr, i32 } %45

47:                                               ; preds = %44
  %48 = landingpad { ptr, i32 }
          catch ptr null
  %49 = extractvalue { ptr, i32 } %48, 0
  call void @__clang_call_terminate(ptr %49) #19
  unreachable
}

; Function Attrs: uwtable
define linkonce_odr dso_local void @_ZNSt6vectorIN10xalanc_1_814XalanDOMStringESaIS1_EED2Ev(ptr noundef nonnull align 8 dereferenceable(24) %0) unnamed_addr #2 comdat align 2 personality ptr @__gxx_personality_v0 {
  %2 = load ptr, ptr %0, align 8, !tbaa !137
  %3 = getelementptr inbounds %"struct.std::_Vector_base<xalanc_1_8::XalanDOMString, std::allocator<xalanc_1_8::XalanDOMString> >::_Vector_impl_data", ptr %0, i64 0, i32 1
  %4 = load ptr, ptr %3, align 8, !tbaa !118
  %5 = icmp eq ptr %2, %4
  br i1 %5, label %16, label %6

6:                                                ; preds = %1, %11
  %7 = phi ptr [ %12, %11 ], [ %2, %1 ]
  %8 = load ptr, ptr %7, align 8, !tbaa !15
  %9 = icmp eq ptr %8, null
  br i1 %9, label %11, label %10

10:                                               ; preds = %6
  tail call void @_ZdlPv(ptr noundef nonnull %8) #18
  br label %11

11:                                               ; preds = %10, %6
  %12 = getelementptr inbounds %"class.xalanc_1_8::XalanDOMString", ptr %7, i64 1
  %13 = icmp eq ptr %12, %4
  br i1 %13, label %14, label %6

14:                                               ; preds = %11
  %15 = load ptr, ptr %0, align 8, !tbaa !137
  br label %16

16:                                               ; preds = %14, %1
  %17 = phi ptr [ %15, %14 ], [ %2, %1 ]
  %18 = icmp eq ptr %17, null
  br i1 %18, label %20, label %19

19:                                               ; preds = %16
  tail call void @_ZdlPv(ptr noundef nonnull %17) #18
  br label %20

20:                                               ; preds = %16, %19
  ret void
}

; Function Attrs: uwtable
define linkonce_odr dso_local void @_ZNSt5dequeIN10xalanc_1_89NameSpaceESaIS1_EED2Ev(ptr noundef nonnull align 8 dereferenceable(80) %0) unnamed_addr #2 comdat align 2 personality ptr @__gxx_personality_v0 {
  %2 = alloca %"struct.std::_Deque_iterator.23", align 8
  %3 = alloca %"struct.std::_Deque_iterator.23", align 8
  %4 = getelementptr inbounds %"struct.std::_Deque_base<xalanc_1_8::NameSpace, std::allocator<xalanc_1_8::NameSpace> >::_Deque_impl", ptr %0, i64 0, i32 2
  %5 = load ptr, ptr %4, align 8, !tbaa !138, !noalias !139
  %6 = getelementptr inbounds %"struct.std::_Deque_base<xalanc_1_8::NameSpace, std::allocator<xalanc_1_8::NameSpace> >::_Deque_impl", ptr %0, i64 0, i32 2, i32 1
  %7 = load ptr, ptr %6, align 8, !tbaa !142, !noalias !139
  %8 = getelementptr inbounds %"struct.std::_Deque_base<xalanc_1_8::NameSpace, std::allocator<xalanc_1_8::NameSpace> >::_Deque_impl", ptr %0, i64 0, i32 2, i32 2
  %9 = load ptr, ptr %8, align 8, !tbaa !143, !noalias !139
  %10 = getelementptr inbounds %"struct.std::_Deque_base<xalanc_1_8::NameSpace, std::allocator<xalanc_1_8::NameSpace> >::_Deque_impl", ptr %0, i64 0, i32 2, i32 3
  %11 = load ptr, ptr %10, align 8, !tbaa !144, !noalias !139
  %12 = getelementptr inbounds %"struct.std::_Deque_base<xalanc_1_8::NameSpace, std::allocator<xalanc_1_8::NameSpace> >::_Deque_impl", ptr %0, i64 0, i32 3
  %13 = load ptr, ptr %12, align 8, !tbaa !138, !noalias !145
  %14 = getelementptr inbounds %"struct.std::_Deque_base<xalanc_1_8::NameSpace, std::allocator<xalanc_1_8::NameSpace> >::_Deque_impl", ptr %0, i64 0, i32 3, i32 1
  %15 = load ptr, ptr %14, align 8, !tbaa !142, !noalias !145
  %16 = getelementptr inbounds %"struct.std::_Deque_base<xalanc_1_8::NameSpace, std::allocator<xalanc_1_8::NameSpace> >::_Deque_impl", ptr %0, i64 0, i32 3, i32 2
  %17 = load ptr, ptr %16, align 8, !tbaa !143, !noalias !145
  %18 = getelementptr inbounds %"struct.std::_Deque_base<xalanc_1_8::NameSpace, std::allocator<xalanc_1_8::NameSpace> >::_Deque_impl", ptr %0, i64 0, i32 3, i32 3
  %19 = load ptr, ptr %18, align 8, !tbaa !144, !noalias !145
  call void @llvm.lifetime.start.p0(i64 32, ptr nonnull %2)
  call void @llvm.lifetime.start.p0(i64 32, ptr nonnull %3)
  store ptr %5, ptr %2, align 8, !tbaa !138
  %20 = getelementptr inbounds %"struct.std::_Deque_iterator.23", ptr %2, i64 0, i32 1
  store ptr %7, ptr %20, align 8, !tbaa !142
  %21 = getelementptr inbounds %"struct.std::_Deque_iterator.23", ptr %2, i64 0, i32 2
  store ptr %9, ptr %21, align 8, !tbaa !143
  %22 = getelementptr inbounds %"struct.std::_Deque_iterator.23", ptr %2, i64 0, i32 3
  store ptr %11, ptr %22, align 8, !tbaa !144
  store ptr %13, ptr %3, align 8, !tbaa !138
  %23 = getelementptr inbounds %"struct.std::_Deque_iterator.23", ptr %3, i64 0, i32 1
  store ptr %15, ptr %23, align 8, !tbaa !142
  %24 = getelementptr inbounds %"struct.std::_Deque_iterator.23", ptr %3, i64 0, i32 2
  store ptr %17, ptr %24, align 8, !tbaa !143
  %25 = getelementptr inbounds %"struct.std::_Deque_iterator.23", ptr %3, i64 0, i32 3
  store ptr %19, ptr %25, align 8, !tbaa !144
  invoke void @_ZNSt5dequeIN10xalanc_1_89NameSpaceESaIS1_EE19_M_destroy_data_auxESt15_Deque_iteratorIS1_RS1_PS1_ES7_(ptr noundef nonnull align 8 dereferenceable(80) %0, ptr noundef nonnull %2, ptr noundef nonnull %3)
          to label %26 unwind label %44

26:                                               ; preds = %1
  call void @llvm.lifetime.end.p0(i64 32, ptr nonnull %2)
  call void @llvm.lifetime.end.p0(i64 32, ptr nonnull %3)
  %27 = load ptr, ptr %0, align 8, !tbaa !148
  %28 = icmp eq ptr %27, null
  br i1 %28, label %43, label %29

29:                                               ; preds = %26
  %30 = load ptr, ptr %10, align 8, !tbaa !149
  %31 = load ptr, ptr %18, align 8, !tbaa !150
  %32 = getelementptr inbounds ptr, ptr %31, i64 1
  %33 = icmp ult ptr %30, %32
  br i1 %33, label %34, label %41

34:                                               ; preds = %29, %34
  %35 = phi ptr [ %37, %34 ], [ %30, %29 ]
  %36 = load ptr, ptr %35, align 8, !tbaa !22
  call void @_ZdlPv(ptr noundef %36) #18
  %37 = getelementptr inbounds ptr, ptr %35, i64 1
  %38 = icmp ult ptr %35, %31
  br i1 %38, label %34, label %39

39:                                               ; preds = %34
  %40 = load ptr, ptr %0, align 8, !tbaa !148
  br label %41

41:                                               ; preds = %39, %29
  %42 = phi ptr [ %40, %39 ], [ %27, %29 ]
  call void @_ZdlPv(ptr noundef %42) #18
  br label %43

43:                                               ; preds = %26, %41
  ret void

44:                                               ; preds = %1
  %45 = landingpad { ptr, i32 }
          cleanup
  invoke void @_ZNSt11_Deque_baseIN10xalanc_1_89NameSpaceESaIS1_EED2Ev(ptr noundef nonnull align 8 dereferenceable(80) %0)
          to label %46 unwind label %47

46:                                               ; preds = %44
  resume { ptr, i32 } %45

47:                                               ; preds = %44
  %48 = landingpad { ptr, i32 }
          catch ptr null
  %49 = extractvalue { ptr, i32 } %48, 0
  call void @__clang_call_terminate(ptr %49) #19
  unreachable
}

; Function Attrs: uwtable
define linkonce_odr dso_local void @_ZNSt5dequeIS_IN10xalanc_1_89NameSpaceESaIS1_EESaIS3_EED2Ev(ptr noundef nonnull align 8 dereferenceable(80) %0) unnamed_addr #2 comdat align 2 personality ptr @__gxx_personality_v0 {
  %2 = alloca %"struct.std::_Deque_iterator", align 8
  %3 = alloca %"struct.std::_Deque_iterator", align 8
  %4 = getelementptr inbounds %"struct.std::_Deque_base<std::deque<xalanc_1_8::NameSpace>, std::allocator<std::deque<xalanc_1_8::NameSpace> > >::_Deque_impl", ptr %0, i64 0, i32 2
  %5 = load ptr, ptr %4, align 8, !tbaa !151, !noalias !152
  %6 = getelementptr inbounds %"struct.std::_Deque_base<std::deque<xalanc_1_8::NameSpace>, std::allocator<std::deque<xalanc_1_8::NameSpace> > >::_Deque_impl", ptr %0, i64 0, i32 2, i32 1
  %7 = load ptr, ptr %6, align 8, !tbaa !155, !noalias !152
  %8 = getelementptr inbounds %"struct.std::_Deque_base<std::deque<xalanc_1_8::NameSpace>, std::allocator<std::deque<xalanc_1_8::NameSpace> > >::_Deque_impl", ptr %0, i64 0, i32 2, i32 2
  %9 = load ptr, ptr %8, align 8, !tbaa !156, !noalias !152
  %10 = getelementptr inbounds %"struct.std::_Deque_base<std::deque<xalanc_1_8::NameSpace>, std::allocator<std::deque<xalanc_1_8::NameSpace> > >::_Deque_impl", ptr %0, i64 0, i32 2, i32 3
  %11 = load ptr, ptr %10, align 8, !tbaa !157, !noalias !152
  %12 = getelementptr inbounds %"struct.std::_Deque_base<std::deque<xalanc_1_8::NameSpace>, std::allocator<std::deque<xalanc_1_8::NameSpace> > >::_Deque_impl", ptr %0, i64 0, i32 3
  %13 = load ptr, ptr %12, align 8, !tbaa !151, !noalias !158
  %14 = getelementptr inbounds %"struct.std::_Deque_base<std::deque<xalanc_1_8::NameSpace>, std::allocator<std::deque<xalanc_1_8::NameSpace> > >::_Deque_impl", ptr %0, i64 0, i32 3, i32 1
  %15 = load ptr, ptr %14, align 8, !tbaa !155, !noalias !158
  %16 = getelementptr inbounds %"struct.std::_Deque_base<std::deque<xalanc_1_8::NameSpace>, std::allocator<std::deque<xalanc_1_8::NameSpace> > >::_Deque_impl", ptr %0, i64 0, i32 3, i32 2
  %17 = load ptr, ptr %16, align 8, !tbaa !156, !noalias !158
  %18 = getelementptr inbounds %"struct.std::_Deque_base<std::deque<xalanc_1_8::NameSpace>, std::allocator<std::deque<xalanc_1_8::NameSpace> > >::_Deque_impl", ptr %0, i64 0, i32 3, i32 3
  %19 = load ptr, ptr %18, align 8, !tbaa !157, !noalias !158
  call void @llvm.lifetime.start.p0(i64 32, ptr nonnull %2)
  call void @llvm.lifetime.start.p0(i64 32, ptr nonnull %3)
  store ptr %5, ptr %2, align 8, !tbaa !151
  %20 = getelementptr inbounds %"struct.std::_Deque_iterator", ptr %2, i64 0, i32 1
  store ptr %7, ptr %20, align 8, !tbaa !155
  %21 = getelementptr inbounds %"struct.std::_Deque_iterator", ptr %2, i64 0, i32 2
  store ptr %9, ptr %21, align 8, !tbaa !156
  %22 = getelementptr inbounds %"struct.std::_Deque_iterator", ptr %2, i64 0, i32 3
  store ptr %11, ptr %22, align 8, !tbaa !157
  store ptr %13, ptr %3, align 8, !tbaa !151
  %23 = getelementptr inbounds %"struct.std::_Deque_iterator", ptr %3, i64 0, i32 1
  store ptr %15, ptr %23, align 8, !tbaa !155
  %24 = getelementptr inbounds %"struct.std::_Deque_iterator", ptr %3, i64 0, i32 2
  store ptr %17, ptr %24, align 8, !tbaa !156
  %25 = getelementptr inbounds %"struct.std::_Deque_iterator", ptr %3, i64 0, i32 3
  store ptr %19, ptr %25, align 8, !tbaa !157
  invoke void @_ZNSt5dequeIS_IN10xalanc_1_89NameSpaceESaIS1_EESaIS3_EE19_M_destroy_data_auxESt15_Deque_iteratorIS3_RS3_PS3_ES9_(ptr noundef nonnull align 8 dereferenceable(80) %0, ptr noundef nonnull %2, ptr noundef nonnull %3)
          to label %26 unwind label %44

26:                                               ; preds = %1
  call void @llvm.lifetime.end.p0(i64 32, ptr nonnull %2)
  call void @llvm.lifetime.end.p0(i64 32, ptr nonnull %3)
  %27 = load ptr, ptr %0, align 8, !tbaa !161
  %28 = icmp eq ptr %27, null
  br i1 %28, label %43, label %29

29:                                               ; preds = %26
  %30 = load ptr, ptr %10, align 8, !tbaa !162
  %31 = load ptr, ptr %18, align 8, !tbaa !163
  %32 = getelementptr inbounds ptr, ptr %31, i64 1
  %33 = icmp ult ptr %30, %32
  br i1 %33, label %34, label %41

34:                                               ; preds = %29, %34
  %35 = phi ptr [ %37, %34 ], [ %30, %29 ]
  %36 = load ptr, ptr %35, align 8, !tbaa !22
  call void @_ZdlPv(ptr noundef %36) #18
  %37 = getelementptr inbounds ptr, ptr %35, i64 1
  %38 = icmp ult ptr %35, %31
  br i1 %38, label %34, label %39

39:                                               ; preds = %34
  %40 = load ptr, ptr %0, align 8, !tbaa !161
  br label %41

41:                                               ; preds = %39, %29
  %42 = phi ptr [ %40, %39 ], [ %27, %29 ]
  call void @_ZdlPv(ptr noundef %42) #18
  br label %43

43:                                               ; preds = %26, %41
  ret void

44:                                               ; preds = %1
  %45 = landingpad { ptr, i32 }
          cleanup
  invoke void @_ZNSt11_Deque_baseISt5dequeIN10xalanc_1_89NameSpaceESaIS2_EESaIS4_EED2Ev(ptr noundef nonnull align 8 dereferenceable(80) %0)
          to label %46 unwind label %47

46:                                               ; preds = %44
  resume { ptr, i32 } %45

47:                                               ; preds = %44
  %48 = landingpad { ptr, i32 }
          catch ptr null
  %49 = extractvalue { ptr, i32 } %48, 0
  call void @__clang_call_terminate(ptr %49) #19
  unreachable
}

; Function Attrs: uwtable
define linkonce_odr dso_local void @_ZNSt6vectorIN10xalanc_1_820XalanSpaceNodeTesterESaIS1_EED2Ev(ptr noundef nonnull align 8 dereferenceable(24) %0) unnamed_addr #2 comdat align 2 personality ptr @__gxx_personality_v0 {
  %2 = load ptr, ptr %0, align 8, !tbaa !164
  %3 = getelementptr inbounds %"struct.std::_Vector_base<xalanc_1_8::XalanSpaceNodeTester, std::allocator<xalanc_1_8::XalanSpaceNodeTester> >::_Vector_impl_data", ptr %0, i64 0, i32 1
  %4 = load ptr, ptr %3, align 8, !tbaa !165
  %5 = icmp eq ptr %2, %4
  br i1 %5, label %13, label %6

6:                                                ; preds = %1, %8
  %7 = phi ptr [ %9, %8 ], [ %2, %1 ]
  invoke void @_ZN10xalanc_1_820XalanSpaceNodeTesterD1Ev(ptr noundef nonnull align 8 dereferenceable(64) %7)
          to label %8 unwind label %18

8:                                                ; preds = %6
  %9 = getelementptr inbounds %"class.xalanc_1_8::XalanSpaceNodeTester", ptr %7, i64 1
  %10 = icmp eq ptr %9, %4
  br i1 %10, label %11, label %6

11:                                               ; preds = %8
  %12 = load ptr, ptr %0, align 8, !tbaa !164
  br label %13

13:                                               ; preds = %11, %1
  %14 = phi ptr [ %12, %11 ], [ %2, %1 ]
  %15 = icmp eq ptr %14, null
  br i1 %15, label %17, label %16

16:                                               ; preds = %13
  tail call void @_ZdlPv(ptr noundef nonnull %14) #18
  br label %17

17:                                               ; preds = %13, %16
  ret void

18:                                               ; preds = %6
  %19 = landingpad { ptr, i32 }
          cleanup
  %20 = load ptr, ptr %0, align 8, !tbaa !164
  %21 = icmp eq ptr %20, null
  br i1 %21, label %23, label %22

22:                                               ; preds = %18
  tail call void @_ZdlPv(ptr noundef nonnull %20) #18
  br label %23

23:                                               ; preds = %22, %18
  resume { ptr, i32 } %19
}

declare void @_ZN10xalanc_1_814PrefixResolverD2Ev(ptr noundef nonnull align 8 dereferenceable(8)) unnamed_addr #1

; Function Attrs: uwtable
define dso_local void @_ZN10xalanc_1_810StylesheetD2Ev(ptr noundef nonnull align 8 dereferenceable(1000) %0) unnamed_addr #2 align 2 personality ptr @__gxx_personality_v0 {
  store ptr getelementptr inbounds ({ [7 x ptr] }, ptr @_ZTVN10xalanc_1_810StylesheetE, i64 0, inrange i32 0, i64 2), ptr %0, align 8, !tbaa !20
  %2 = getelementptr inbounds %"class.xalanc_1_8::Stylesheet", ptr %0, i64 0, i32 6
  %3 = load ptr, ptr %2, align 8, !tbaa !22
  %4 = getelementptr inbounds %"class.xalanc_1_8::Stylesheet", ptr %0, i64 0, i32 6, i32 0, i32 0, i32 0, i32 1
  %5 = load ptr, ptr %4, align 8, !tbaa !22
  %6 = icmp eq ptr %3, %5
  br i1 %6, label %18, label %7

7:                                                ; preds = %1, %15
  %8 = phi ptr [ %16, %15 ], [ %3, %1 ]
  %9 = load ptr, ptr %8, align 8, !tbaa !22
  %10 = icmp eq ptr %9, null
  br i1 %10, label %15, label %11

11:                                               ; preds = %7
  %12 = load ptr, ptr %9, align 8, !tbaa !20
  %13 = getelementptr inbounds ptr, ptr %12, i64 1
  %14 = load ptr, ptr %13, align 8
  invoke void %14(ptr noundef nonnull align 8 dereferenceable(1000) %9)
          to label %15 unwind label %186

15:                                               ; preds = %11, %7
  %16 = getelementptr inbounds ptr, ptr %8, i64 1
  %17 = icmp eq ptr %16, %5
  br i1 %17, label %18, label %7

18:                                               ; preds = %15, %1
  %19 = getelementptr inbounds %"class.xalanc_1_8::Stylesheet", ptr %0, i64 0, i32 30
  %20 = load ptr, ptr %19, align 8, !tbaa !22
  %21 = getelementptr inbounds %"class.xalanc_1_8::Stylesheet", ptr %0, i64 0, i32 30, i32 0, i32 0, i32 0, i32 1
  %22 = load ptr, ptr %21, align 8, !tbaa !22
  %23 = icmp eq ptr %20, %22
  br i1 %23, label %35, label %24

24:                                               ; preds = %18, %32
  %25 = phi ptr [ %33, %32 ], [ %20, %18 ]
  %26 = load ptr, ptr %25, align 8, !tbaa !22
  %27 = icmp eq ptr %26, null
  br i1 %27, label %32, label %28

28:                                               ; preds = %24
  %29 = load ptr, ptr %26, align 8, !tbaa !20
  %30 = getelementptr inbounds ptr, ptr %29, i64 1
  %31 = load ptr, ptr %30, align 8
  invoke void %31(ptr noundef nonnull align 8 dereferenceable(400) %26)
          to label %32 unwind label %184

32:                                               ; preds = %28, %24
  %33 = getelementptr inbounds ptr, ptr %25, i64 1
  %34 = icmp eq ptr %33, %22
  br i1 %34, label %35, label %24

35:                                               ; preds = %32, %18
  %36 = getelementptr inbounds %"class.xalanc_1_8::Stylesheet", ptr %0, i64 0, i32 11
  %37 = getelementptr inbounds %"class.xalanc_1_8::Stylesheet", ptr %0, i64 0, i32 11, i32 0, i32 0, i32 1, i32 0, i32 2
  %38 = load ptr, ptr %37, align 8, !tbaa !111
  %39 = getelementptr inbounds %"class.xalanc_1_8::Stylesheet", ptr %0, i64 0, i32 11, i32 0, i32 0, i32 1
  %40 = icmp eq ptr %38, %39
  br i1 %40, label %53, label %41

41:                                               ; preds = %35, %50
  %42 = phi ptr [ %51, %50 ], [ %38, %35 ]
  %43 = getelementptr inbounds %"struct.std::_Rb_tree_node.152", ptr %42, i64 0, i32 1, i32 1
  %44 = load ptr, ptr %43, align 8, !tbaa !166
  %45 = icmp eq ptr %44, null
  br i1 %45, label %50, label %46

46:                                               ; preds = %41
  %47 = load ptr, ptr %44, align 8, !tbaa !20
  %48 = getelementptr inbounds ptr, ptr %47, i64 1
  %49 = load ptr, ptr %48, align 8
  invoke void %49(ptr noundef nonnull align 8 dereferenceable(249) %44)
          to label %50 unwind label %182

50:                                               ; preds = %46, %41
  %51 = tail call noundef ptr @_ZSt18_Rb_tree_incrementPSt18_Rb_tree_node_base(ptr noundef nonnull %42) #20
  %52 = icmp eq ptr %51, %39
  br i1 %52, label %53, label %41

53:                                               ; preds = %50, %35
  %54 = getelementptr inbounds %"class.xalanc_1_8::Stylesheet", ptr %0, i64 0, i32 31
  invoke void @_ZN10xalanc_1_817NamespacesHandlerD1Ev(ptr noundef nonnull align 8 dereferenceable(120) %54)
          to label %55 unwind label %191

55:                                               ; preds = %53
  %56 = load ptr, ptr %19, align 8, !tbaa !119
  %57 = icmp eq ptr %56, null
  br i1 %57, label %59, label %58

58:                                               ; preds = %55
  tail call void @_ZdlPv(ptr noundef nonnull %56) #18
  br label %59

59:                                               ; preds = %58, %55
  %60 = getelementptr inbounds %"class.xalanc_1_8::Stylesheet", ptr %0, i64 0, i32 28
  invoke void @_ZNSt5dequeIN10xalanc_1_810Stylesheet13MatchPattern2ESaIS2_EED2Ev(ptr noundef nonnull align 8 dereferenceable(80) %60)
          to label %61 unwind label %199

61:                                               ; preds = %59
  %62 = getelementptr inbounds %"class.xalanc_1_8::Stylesheet", ptr %0, i64 0, i32 27
  %63 = load ptr, ptr %62, align 8, !tbaa !120
  %64 = icmp eq ptr %63, null
  br i1 %64, label %66, label %65

65:                                               ; preds = %61
  tail call void @_ZdlPv(ptr noundef nonnull %63) #18
  br label %66

66:                                               ; preds = %65, %61
  %67 = getelementptr inbounds %"class.xalanc_1_8::Stylesheet", ptr %0, i64 0, i32 26
  %68 = load ptr, ptr %67, align 8, !tbaa !120
  %69 = icmp eq ptr %68, null
  br i1 %69, label %71, label %70

70:                                               ; preds = %66
  tail call void @_ZdlPv(ptr noundef nonnull %68) #18
  br label %71

71:                                               ; preds = %70, %66
  %72 = getelementptr inbounds %"class.xalanc_1_8::Stylesheet", ptr %0, i64 0, i32 25
  %73 = load ptr, ptr %72, align 8, !tbaa !120
  %74 = icmp eq ptr %73, null
  br i1 %74, label %76, label %75

75:                                               ; preds = %71
  tail call void @_ZdlPv(ptr noundef nonnull %73) #18
  br label %76

76:                                               ; preds = %75, %71
  %77 = getelementptr inbounds %"class.xalanc_1_8::Stylesheet", ptr %0, i64 0, i32 24
  %78 = load ptr, ptr %77, align 8, !tbaa !120
  %79 = icmp eq ptr %78, null
  br i1 %79, label %81, label %80

80:                                               ; preds = %76
  tail call void @_ZdlPv(ptr noundef nonnull %78) #18
  br label %81

81:                                               ; preds = %80, %76
  %82 = getelementptr inbounds %"class.xalanc_1_8::Stylesheet", ptr %0, i64 0, i32 23
  %83 = load ptr, ptr %82, align 8, !tbaa !120
  %84 = icmp eq ptr %83, null
  br i1 %84, label %86, label %85

85:                                               ; preds = %81
  tail call void @_ZdlPv(ptr noundef nonnull %83) #18
  br label %86

86:                                               ; preds = %85, %81
  %87 = getelementptr inbounds %"class.xalanc_1_8::Stylesheet", ptr %0, i64 0, i32 22
  %88 = load ptr, ptr %87, align 8, !tbaa !120
  %89 = icmp eq ptr %88, null
  br i1 %89, label %91, label %90

90:                                               ; preds = %86
  tail call void @_ZdlPv(ptr noundef nonnull %88) #18
  br label %91

91:                                               ; preds = %90, %86
  %92 = getelementptr inbounds %"class.xalanc_1_8::Stylesheet", ptr %0, i64 0, i32 20
  %93 = getelementptr inbounds %"class.xalanc_1_8::Stylesheet", ptr %0, i64 0, i32 20, i32 0, i32 0, i32 1, i32 0, i32 1
  %94 = load ptr, ptr %93, align 8, !tbaa !110
  invoke void @_ZNSt8_Rb_treeIN10xalanc_1_814XalanDOMStringESt4pairIKS1_St6vectorIPKNS0_10Stylesheet13MatchPattern2ESaIS8_EEESt10_Select1stISB_ESt4lessIS1_ESaISB_EE8_M_eraseEPSt13_Rb_tree_nodeISB_E(ptr noundef nonnull align 8 dereferenceable(48) %92, ptr noundef %94)
          to label %95 unwind label %234

95:                                               ; preds = %91
  %96 = getelementptr inbounds %"class.xalanc_1_8::Stylesheet", ptr %0, i64 0, i32 19
  %97 = load ptr, ptr %96, align 8, !tbaa !120
  %98 = icmp eq ptr %97, null
  br i1 %98, label %100, label %99

99:                                               ; preds = %95
  tail call void @_ZdlPv(ptr noundef nonnull %97) #18
  br label %100

100:                                              ; preds = %99, %95
  %101 = getelementptr inbounds %"class.xalanc_1_8::Stylesheet", ptr %0, i64 0, i32 17
  %102 = getelementptr inbounds %"class.xalanc_1_8::Stylesheet", ptr %0, i64 0, i32 17, i32 0, i32 0, i32 1, i32 0, i32 1
  %103 = load ptr, ptr %102, align 8, !tbaa !110
  invoke void @_ZNSt8_Rb_treeIN10xalanc_1_814XalanDOMStringESt4pairIKS1_St6vectorIPKNS0_10Stylesheet13MatchPattern2ESaIS8_EEESt10_Select1stISB_ESt4lessIS1_ESaISB_EE8_M_eraseEPSt13_Rb_tree_nodeISB_E(ptr noundef nonnull align 8 dereferenceable(48) %101, ptr noundef %103)
          to label %104 unwind label %246

104:                                              ; preds = %100
  %105 = getelementptr inbounds %"class.xalanc_1_8::Stylesheet", ptr %0, i64 0, i32 15
  %106 = load ptr, ptr %105, align 8, !tbaa !121
  %107 = icmp eq ptr %106, null
  br i1 %107, label %109, label %108

108:                                              ; preds = %104
  tail call void @_ZdlPv(ptr noundef nonnull %106) #18
  br label %109

109:                                              ; preds = %108, %104
  %110 = getelementptr inbounds %"class.xalanc_1_8::Stylesheet", ptr %0, i64 0, i32 14
  %111 = getelementptr inbounds %"class.xalanc_1_8::Stylesheet", ptr %0, i64 0, i32 14, i32 0, i32 0, i32 1, i32 0, i32 1
  %112 = load ptr, ptr %111, align 8, !tbaa !110
  invoke void @_ZNSt8_Rb_treeIN10xalanc_1_821XalanQNameByReferenceESt4pairIKS1_PKNS0_12ElemTemplateEESt10_Select1stIS7_ESt4lessINS0_10XalanQNameEESaIS7_EE8_M_eraseEPSt13_Rb_tree_nodeIS7_E(ptr noundef nonnull align 8 dereferenceable(48) %110, ptr noundef %112)
          to label %113 unwind label %258

113:                                              ; preds = %109
  %114 = getelementptr inbounds %"class.xalanc_1_8::Stylesheet", ptr %0, i64 0, i32 13
  %115 = load ptr, ptr %114, align 8, !tbaa !137
  %116 = getelementptr inbounds %"class.xalanc_1_8::Stylesheet", ptr %0, i64 0, i32 13, i32 0, i32 0, i32 0, i32 1
  %117 = load ptr, ptr %116, align 8, !tbaa !118
  %118 = icmp eq ptr %115, %117
  br i1 %118, label %129, label %119

119:                                              ; preds = %113, %124
  %120 = phi ptr [ %125, %124 ], [ %115, %113 ]
  %121 = load ptr, ptr %120, align 8, !tbaa !15
  %122 = icmp eq ptr %121, null
  br i1 %122, label %124, label %123

123:                                              ; preds = %119
  tail call void @_ZdlPv(ptr noundef nonnull %121) #18
  br label %124

124:                                              ; preds = %123, %119
  %125 = getelementptr inbounds %"class.xalanc_1_8::XalanDOMString", ptr %120, i64 1
  %126 = icmp eq ptr %125, %117
  br i1 %126, label %127, label %119

127:                                              ; preds = %124
  %128 = load ptr, ptr %114, align 8, !tbaa !137
  br label %129

129:                                              ; preds = %127, %113
  %130 = phi ptr [ %128, %127 ], [ %115, %113 ]
  %131 = icmp eq ptr %130, null
  br i1 %131, label %133, label %132

132:                                              ; preds = %129
  tail call void @_ZdlPv(ptr noundef nonnull %130) #18
  br label %133

133:                                              ; preds = %132, %129
  %134 = getelementptr inbounds %"class.xalanc_1_8::Stylesheet", ptr %0, i64 0, i32 11, i32 0, i32 0, i32 1, i32 0, i32 1
  %135 = load ptr, ptr %134, align 8, !tbaa !110
  invoke void @_ZNSt8_Rb_treeIN10xalanc_1_814XalanDOMStringESt4pairIKS1_PNS0_18ExtensionNSHandlerEESt10_Select1stIS6_ESt4lessIS1_ESaIS6_EE8_M_eraseEPSt13_Rb_tree_nodeIS6_E(ptr noundef nonnull align 8 dereferenceable(48) %36, ptr noundef %135)
          to label %136 unwind label %267

136:                                              ; preds = %133
  %137 = getelementptr inbounds %"class.xalanc_1_8::Stylesheet", ptr %0, i64 0, i32 9
  invoke void @_ZNSt5dequeIN10xalanc_1_89NameSpaceESaIS1_EED2Ev(ptr noundef nonnull align 8 dereferenceable(80) %137)
          to label %138 unwind label %273

138:                                              ; preds = %136
  %139 = getelementptr inbounds %"class.xalanc_1_8::Stylesheet", ptr %0, i64 0, i32 8
  invoke void @_ZNSt5dequeIS_IN10xalanc_1_89NameSpaceESaIS1_EESaIS3_EED2Ev(ptr noundef nonnull align 8 dereferenceable(80) %139)
          to label %140 unwind label %278

140:                                              ; preds = %138
  %141 = load ptr, ptr %2, align 8, !tbaa !122
  %142 = icmp eq ptr %141, null
  br i1 %142, label %144, label %143

143:                                              ; preds = %140
  tail call void @_ZdlPv(ptr noundef nonnull %141) #18
  br label %144

144:                                              ; preds = %143, %140
  %145 = getelementptr inbounds %"class.xalanc_1_8::Stylesheet", ptr %0, i64 0, i32 5
  %146 = load ptr, ptr %145, align 8, !tbaa !15
  %147 = icmp eq ptr %146, null
  br i1 %147, label %149, label %148

148:                                              ; preds = %144
  tail call void @_ZdlPv(ptr noundef nonnull %146) #18
  br label %149

149:                                              ; preds = %148, %144
  %150 = getelementptr inbounds %"class.xalanc_1_8::Stylesheet", ptr %0, i64 0, i32 4
  %151 = load ptr, ptr %150, align 8, !tbaa !164
  %152 = getelementptr inbounds %"class.xalanc_1_8::Stylesheet", ptr %0, i64 0, i32 4, i32 0, i32 0, i32 0, i32 1
  %153 = load ptr, ptr %152, align 8, !tbaa !165
  %154 = icmp eq ptr %151, %153
  br i1 %154, label %162, label %155

155:                                              ; preds = %149, %157
  %156 = phi ptr [ %158, %157 ], [ %151, %149 ]
  invoke void @_ZN10xalanc_1_820XalanSpaceNodeTesterD1Ev(ptr noundef nonnull align 8 dereferenceable(64) %156)
          to label %157 unwind label %166

157:                                              ; preds = %155
  %158 = getelementptr inbounds %"class.xalanc_1_8::XalanSpaceNodeTester", ptr %156, i64 1
  %159 = icmp eq ptr %158, %153
  br i1 %159, label %160, label %155

160:                                              ; preds = %157
  %161 = load ptr, ptr %150, align 8, !tbaa !164
  br label %162

162:                                              ; preds = %160, %149
  %163 = phi ptr [ %161, %160 ], [ %151, %149 ]
  %164 = icmp eq ptr %163, null
  br i1 %164, label %171, label %165

165:                                              ; preds = %162
  tail call void @_ZdlPv(ptr noundef nonnull %163) #18
  br label %171

166:                                              ; preds = %155
  %167 = landingpad { ptr, i32 }
          cleanup
  %168 = load ptr, ptr %150, align 8, !tbaa !164
  %169 = icmp eq ptr %168, null
  br i1 %169, label %295, label %170

170:                                              ; preds = %166
  tail call void @_ZdlPv(ptr noundef nonnull %168) #18
  br label %295

171:                                              ; preds = %165, %162
  %172 = getelementptr inbounds %"class.xalanc_1_8::Stylesheet", ptr %0, i64 0, i32 3
  %173 = load ptr, ptr %172, align 8, !tbaa !123
  %174 = icmp eq ptr %173, null
  br i1 %174, label %176, label %175

175:                                              ; preds = %171
  tail call void @_ZdlPv(ptr noundef nonnull %173) #18
  br label %176

176:                                              ; preds = %175, %171
  %177 = getelementptr inbounds %"class.xalanc_1_8::Stylesheet", ptr %0, i64 0, i32 2
  %178 = load ptr, ptr %177, align 8, !tbaa !15
  %179 = icmp eq ptr %178, null
  br i1 %179, label %181, label %180

180:                                              ; preds = %176
  tail call void @_ZdlPv(ptr noundef nonnull %178) #18
  br label %181

181:                                              ; preds = %180, %176
  tail call void @_ZN10xalanc_1_814PrefixResolverD2Ev(ptr noundef nonnull align 8 dereferenceable(8) %0)
  ret void

182:                                              ; preds = %46
  %183 = landingpad { ptr, i32 }
          cleanup
  br label %188

184:                                              ; preds = %28
  %185 = landingpad { ptr, i32 }
          cleanup
  br label %188

186:                                              ; preds = %11
  %187 = landingpad { ptr, i32 }
          cleanup
  br label %188

188:                                              ; preds = %184, %186, %182
  %189 = phi { ptr, i32 } [ %183, %182 ], [ %185, %184 ], [ %187, %186 ]
  %190 = getelementptr inbounds %"class.xalanc_1_8::Stylesheet", ptr %0, i64 0, i32 31
  invoke void @_ZN10xalanc_1_817NamespacesHandlerD1Ev(ptr noundef nonnull align 8 dereferenceable(120) %190)
          to label %193 unwind label %308

191:                                              ; preds = %53
  %192 = landingpad { ptr, i32 }
          cleanup
  br label %193

193:                                              ; preds = %188, %191
  %194 = phi { ptr, i32 } [ %192, %191 ], [ %189, %188 ]
  %195 = getelementptr inbounds %"class.xalanc_1_8::Stylesheet", ptr %0, i64 0, i32 30
  %196 = load ptr, ptr %195, align 8, !tbaa !119
  %197 = icmp eq ptr %196, null
  br i1 %197, label %201, label %198

198:                                              ; preds = %193
  tail call void @_ZdlPv(ptr noundef nonnull %196) #18
  br label %201

199:                                              ; preds = %59
  %200 = landingpad { ptr, i32 }
          cleanup
  br label %203

201:                                              ; preds = %198, %193
  %202 = getelementptr inbounds %"class.xalanc_1_8::Stylesheet", ptr %0, i64 0, i32 28
  invoke void @_ZNSt5dequeIN10xalanc_1_810Stylesheet13MatchPattern2ESaIS2_EED2Ev(ptr noundef nonnull align 8 dereferenceable(80) %202)
          to label %203 unwind label %308

203:                                              ; preds = %201, %199
  %204 = phi { ptr, i32 } [ %200, %199 ], [ %194, %201 ]
  %205 = getelementptr inbounds %"class.xalanc_1_8::Stylesheet", ptr %0, i64 0, i32 27
  %206 = load ptr, ptr %205, align 8, !tbaa !120
  %207 = icmp eq ptr %206, null
  br i1 %207, label %209, label %208

208:                                              ; preds = %203
  tail call void @_ZdlPv(ptr noundef nonnull %206) #18
  br label %209

209:                                              ; preds = %208, %203
  %210 = getelementptr inbounds %"class.xalanc_1_8::Stylesheet", ptr %0, i64 0, i32 26
  %211 = load ptr, ptr %210, align 8, !tbaa !120
  %212 = icmp eq ptr %211, null
  br i1 %212, label %214, label %213

213:                                              ; preds = %209
  tail call void @_ZdlPv(ptr noundef nonnull %211) #18
  br label %214

214:                                              ; preds = %213, %209
  %215 = getelementptr inbounds %"class.xalanc_1_8::Stylesheet", ptr %0, i64 0, i32 25
  %216 = load ptr, ptr %215, align 8, !tbaa !120
  %217 = icmp eq ptr %216, null
  br i1 %217, label %219, label %218

218:                                              ; preds = %214
  tail call void @_ZdlPv(ptr noundef nonnull %216) #18
  br label %219

219:                                              ; preds = %218, %214
  %220 = getelementptr inbounds %"class.xalanc_1_8::Stylesheet", ptr %0, i64 0, i32 24
  %221 = load ptr, ptr %220, align 8, !tbaa !120
  %222 = icmp eq ptr %221, null
  br i1 %222, label %224, label %223

223:                                              ; preds = %219
  tail call void @_ZdlPv(ptr noundef nonnull %221) #18
  br label %224

224:                                              ; preds = %223, %219
  %225 = getelementptr inbounds %"class.xalanc_1_8::Stylesheet", ptr %0, i64 0, i32 23
  %226 = load ptr, ptr %225, align 8, !tbaa !120
  %227 = icmp eq ptr %226, null
  br i1 %227, label %229, label %228

228:                                              ; preds = %224
  tail call void @_ZdlPv(ptr noundef nonnull %226) #18
  br label %229

229:                                              ; preds = %228, %224
  %230 = getelementptr inbounds %"class.xalanc_1_8::Stylesheet", ptr %0, i64 0, i32 22
  %231 = load ptr, ptr %230, align 8, !tbaa !120
  %232 = icmp eq ptr %231, null
  br i1 %232, label %236, label %233

233:                                              ; preds = %229
  tail call void @_ZdlPv(ptr noundef nonnull %231) #18
  br label %236

234:                                              ; preds = %91
  %235 = landingpad { ptr, i32 }
          cleanup
  br label %240

236:                                              ; preds = %233, %229
  %237 = getelementptr inbounds %"class.xalanc_1_8::Stylesheet", ptr %0, i64 0, i32 20
  %238 = getelementptr inbounds %"class.xalanc_1_8::Stylesheet", ptr %0, i64 0, i32 20, i32 0, i32 0, i32 1, i32 0, i32 1
  %239 = load ptr, ptr %238, align 8, !tbaa !110
  invoke void @_ZNSt8_Rb_treeIN10xalanc_1_814XalanDOMStringESt4pairIKS1_St6vectorIPKNS0_10Stylesheet13MatchPattern2ESaIS8_EEESt10_Select1stISB_ESt4lessIS1_ESaISB_EE8_M_eraseEPSt13_Rb_tree_nodeISB_E(ptr noundef nonnull align 8 dereferenceable(48) %237, ptr noundef %239)
          to label %240 unwind label %308

240:                                              ; preds = %236, %234
  %241 = phi { ptr, i32 } [ %235, %234 ], [ %204, %236 ]
  %242 = getelementptr inbounds %"class.xalanc_1_8::Stylesheet", ptr %0, i64 0, i32 19
  %243 = load ptr, ptr %242, align 8, !tbaa !120
  %244 = icmp eq ptr %243, null
  br i1 %244, label %248, label %245

245:                                              ; preds = %240
  tail call void @_ZdlPv(ptr noundef nonnull %243) #18
  br label %248

246:                                              ; preds = %100
  %247 = landingpad { ptr, i32 }
          cleanup
  br label %252

248:                                              ; preds = %245, %240
  %249 = getelementptr inbounds %"class.xalanc_1_8::Stylesheet", ptr %0, i64 0, i32 17
  %250 = getelementptr inbounds %"class.xalanc_1_8::Stylesheet", ptr %0, i64 0, i32 17, i32 0, i32 0, i32 1, i32 0, i32 1
  %251 = load ptr, ptr %250, align 8, !tbaa !110
  invoke void @_ZNSt8_Rb_treeIN10xalanc_1_814XalanDOMStringESt4pairIKS1_St6vectorIPKNS0_10Stylesheet13MatchPattern2ESaIS8_EEESt10_Select1stISB_ESt4lessIS1_ESaISB_EE8_M_eraseEPSt13_Rb_tree_nodeISB_E(ptr noundef nonnull align 8 dereferenceable(48) %249, ptr noundef %251)
          to label %252 unwind label %308

252:                                              ; preds = %248, %246
  %253 = phi { ptr, i32 } [ %247, %246 ], [ %241, %248 ]
  %254 = getelementptr inbounds %"class.xalanc_1_8::Stylesheet", ptr %0, i64 0, i32 15
  %255 = load ptr, ptr %254, align 8, !tbaa !121
  %256 = icmp eq ptr %255, null
  br i1 %256, label %260, label %257

257:                                              ; preds = %252
  tail call void @_ZdlPv(ptr noundef nonnull %255) #18
  br label %260

258:                                              ; preds = %109
  %259 = landingpad { ptr, i32 }
          cleanup
  br label %264

260:                                              ; preds = %257, %252
  %261 = getelementptr inbounds %"class.xalanc_1_8::Stylesheet", ptr %0, i64 0, i32 14
  %262 = getelementptr inbounds %"class.xalanc_1_8::Stylesheet", ptr %0, i64 0, i32 14, i32 0, i32 0, i32 1, i32 0, i32 1
  %263 = load ptr, ptr %262, align 8, !tbaa !110
  invoke void @_ZNSt8_Rb_treeIN10xalanc_1_821XalanQNameByReferenceESt4pairIKS1_PKNS0_12ElemTemplateEESt10_Select1stIS7_ESt4lessINS0_10XalanQNameEESaIS7_EE8_M_eraseEPSt13_Rb_tree_nodeIS7_E(ptr noundef nonnull align 8 dereferenceable(48) %261, ptr noundef %263)
          to label %264 unwind label %308

264:                                              ; preds = %260, %258
  %265 = phi { ptr, i32 } [ %259, %258 ], [ %253, %260 ]
  %266 = getelementptr inbounds %"class.xalanc_1_8::Stylesheet", ptr %0, i64 0, i32 13
  invoke void @_ZNSt6vectorIN10xalanc_1_814XalanDOMStringESaIS1_EED2Ev(ptr noundef nonnull align 8 dereferenceable(24) %266)
          to label %269 unwind label %308

267:                                              ; preds = %133
  %268 = landingpad { ptr, i32 }
          cleanup
  br label %275

269:                                              ; preds = %264
  %270 = getelementptr inbounds %"class.xalanc_1_8::Stylesheet", ptr %0, i64 0, i32 11
  %271 = getelementptr inbounds %"class.xalanc_1_8::Stylesheet", ptr %0, i64 0, i32 11, i32 0, i32 0, i32 1, i32 0, i32 1
  %272 = load ptr, ptr %271, align 8, !tbaa !110
  invoke void @_ZNSt8_Rb_treeIN10xalanc_1_814XalanDOMStringESt4pairIKS1_PNS0_18ExtensionNSHandlerEESt10_Select1stIS6_ESt4lessIS1_ESaIS6_EE8_M_eraseEPSt13_Rb_tree_nodeIS6_E(ptr noundef nonnull align 8 dereferenceable(48) %270, ptr noundef %272)
          to label %275 unwind label %308

273:                                              ; preds = %136
  %274 = landingpad { ptr, i32 }
          cleanup
  br label %280

275:                                              ; preds = %269, %267
  %276 = phi { ptr, i32 } [ %268, %267 ], [ %265, %269 ]
  %277 = getelementptr inbounds %"class.xalanc_1_8::Stylesheet", ptr %0, i64 0, i32 9
  invoke void @_ZNSt5dequeIN10xalanc_1_89NameSpaceESaIS1_EED2Ev(ptr noundef nonnull align 8 dereferenceable(80) %277)
          to label %280 unwind label %308

278:                                              ; preds = %138
  %279 = landingpad { ptr, i32 }
          cleanup
  br label %283

280:                                              ; preds = %275, %273
  %281 = phi { ptr, i32 } [ %274, %273 ], [ %276, %275 ]
  %282 = getelementptr inbounds %"class.xalanc_1_8::Stylesheet", ptr %0, i64 0, i32 8
  invoke void @_ZNSt5dequeIS_IN10xalanc_1_89NameSpaceESaIS1_EESaIS3_EED2Ev(ptr noundef nonnull align 8 dereferenceable(80) %282)
          to label %283 unwind label %308

283:                                              ; preds = %280, %278
  %284 = phi { ptr, i32 } [ %279, %278 ], [ %281, %280 ]
  %285 = load ptr, ptr %2, align 8, !tbaa !122
  %286 = icmp eq ptr %285, null
  br i1 %286, label %288, label %287

287:                                              ; preds = %283
  tail call void @_ZdlPv(ptr noundef nonnull %285) #18
  br label %288

288:                                              ; preds = %287, %283
  %289 = getelementptr inbounds %"class.xalanc_1_8::Stylesheet", ptr %0, i64 0, i32 5
  %290 = load ptr, ptr %289, align 8, !tbaa !15
  %291 = icmp eq ptr %290, null
  br i1 %291, label %293, label %292

292:                                              ; preds = %288
  tail call void @_ZdlPv(ptr noundef nonnull %290) #18
  br label %293

293:                                              ; preds = %292, %288
  %294 = getelementptr inbounds %"class.xalanc_1_8::Stylesheet", ptr %0, i64 0, i32 4
  invoke void @_ZNSt6vectorIN10xalanc_1_820XalanSpaceNodeTesterESaIS1_EED2Ev(ptr noundef nonnull align 8 dereferenceable(24) %294)
          to label %295 unwind label %308

295:                                              ; preds = %170, %166, %293
  %296 = phi { ptr, i32 } [ %284, %293 ], [ %167, %170 ], [ %167, %166 ]
  %297 = getelementptr inbounds %"class.xalanc_1_8::Stylesheet", ptr %0, i64 0, i32 3
  %298 = load ptr, ptr %297, align 8, !tbaa !123
  %299 = icmp eq ptr %298, null
  br i1 %299, label %301, label %300

300:                                              ; preds = %295
  tail call void @_ZdlPv(ptr noundef nonnull %298) #18
  br label %301

301:                                              ; preds = %300, %295
  %302 = getelementptr inbounds %"class.xalanc_1_8::Stylesheet", ptr %0, i64 0, i32 2
  %303 = load ptr, ptr %302, align 8, !tbaa !15
  %304 = icmp eq ptr %303, null
  br i1 %304, label %306, label %305

305:                                              ; preds = %301
  tail call void @_ZdlPv(ptr noundef nonnull %303) #18
  br label %306

306:                                              ; preds = %305, %301
  invoke void @_ZN10xalanc_1_814PrefixResolverD2Ev(ptr noundef nonnull align 8 dereferenceable(8) %0)
          to label %307 unwind label %308

307:                                              ; preds = %306
  resume { ptr, i32 } %296

308:                                              ; preds = %269, %260, %248, %236, %306, %293, %280, %275, %264, %201, %188
  %309 = landingpad { ptr, i32 }
          catch ptr null
  %310 = extractvalue { ptr, i32 } %309, 0
  tail call void @__clang_call_terminate(ptr %310) #19
  unreachable
}

; Function Attrs: uwtable
define dso_local void @_ZN10xalanc_1_810StylesheetD0Ev(ptr noundef nonnull align 8 dereferenceable(1000) %0) unnamed_addr #2 align 2 personality ptr @__gxx_personality_v0 {
  invoke void @_ZN10xalanc_1_810StylesheetD2Ev(ptr noundef nonnull align 8 dereferenceable(1000) %0)
          to label %2 unwind label %3

2:                                                ; preds = %1
  tail call void @_ZdlPv(ptr noundef nonnull %0) #21
  ret void

3:                                                ; preds = %1
  %4 = landingpad { ptr, i32 }
          cleanup
  tail call void @_ZdlPv(ptr noundef nonnull %0) #21
  resume { ptr, i32 } %4
}

; Function Attrs: uwtable
define dso_local noundef ptr @_ZN10xalanc_1_810Stylesheet15initWrapperlessERNS_29StylesheetConstructionContextEPKN11xercesc_2_57LocatorE(ptr noundef nonnull align 8 dereferenceable(1000) %0, ptr noundef nonnull align 8 dereferenceable(8) %1, ptr noundef %2) local_unnamed_addr #2 align 2 personality ptr @__gxx_personality_v0 {
  %4 = alloca %"class.xalanc_1_8::XalanDOMString", align 8
  %5 = alloca %"class.xalanc_1_8::AttributeListImpl", align 8
  %6 = getelementptr inbounds %"class.xalanc_1_8::Stylesheet", ptr %0, i64 0, i32 10
  %7 = load i8, ptr %6, align 8, !tbaa !23, !range !168, !noundef !169
  %8 = icmp eq i8 %7, 0
  br i1 %8, label %24, label %9

9:                                                ; preds = %3
  call void @llvm.lifetime.start.p0(i64 32, ptr nonnull %4) #18
  call void @_ZN10xalanc_1_818XalanMessageLoader10getMessageENS_13XalanMessages5CodesE(ptr nonnull sret(%"class.xalanc_1_8::XalanDOMString") align 8 %4, i32 noundef 98)
  %10 = load ptr, ptr %1, align 8, !tbaa !20
  %11 = getelementptr inbounds ptr, ptr %10, i64 7
  %12 = load ptr, ptr %11, align 8
  invoke void %12(ptr noundef nonnull align 8 dereferenceable(8) %1, ptr noundef nonnull align 8 dereferenceable(28) %4, ptr noundef null, ptr noundef %2)
          to label %13 unwind label %18

13:                                               ; preds = %9
  %14 = load ptr, ptr %4, align 8, !tbaa !15
  %15 = icmp eq ptr %14, null
  br i1 %15, label %17, label %16

16:                                               ; preds = %13
  call void @_ZdlPv(ptr noundef nonnull %14) #18
  br label %17

17:                                               ; preds = %13, %16
  call void @llvm.lifetime.end.p0(i64 32, ptr nonnull %4) #18
  br label %24

18:                                               ; preds = %9
  %19 = landingpad { ptr, i32 }
          cleanup
  %20 = load ptr, ptr %4, align 8, !tbaa !15
  %21 = icmp eq ptr %20, null
  br i1 %21, label %23, label %22

22:                                               ; preds = %18
  call void @_ZdlPv(ptr noundef nonnull %20) #18
  br label %23

23:                                               ; preds = %22, %18
  call void @llvm.lifetime.end.p0(i64 32, ptr nonnull %4) #18
  br label %61

24:                                               ; preds = %3, %17
  store i8 1, ptr %6, align 8, !tbaa !23
  call void @llvm.lifetime.start.p0(i64 56, ptr nonnull %5) #18
  call void @_ZN10xalanc_1_817AttributeListImplC1Ev(ptr noundef nonnull align 8 dereferenceable(56) %5)
  %25 = load ptr, ptr @_ZN10xalanc_1_89Constants13ATTRNAME_NAMEE, align 8, !tbaa !22
  %26 = load ptr, ptr %25, align 8, !tbaa !22
  %27 = getelementptr inbounds %"struct.std::_Vector_base<unsigned short, std::allocator<unsigned short> >::_Vector_impl_data", ptr %25, i64 0, i32 1
  %28 = load ptr, ptr %27, align 8, !tbaa !22
  %29 = icmp eq ptr %26, %28
  %30 = select i1 %29, ptr @_ZN10xalanc_1_814XalanDOMString7s_emptyE, ptr %26
  %31 = load ptr, ptr @_ZN10xalanc_1_89Constants14ATTRTYPE_CDATAE, align 8, !tbaa !22
  %32 = load ptr, ptr %31, align 8, !tbaa !22
  %33 = getelementptr inbounds %"struct.std::_Vector_base<unsigned short, std::allocator<unsigned short> >::_Vector_impl_data", ptr %31, i64 0, i32 1
  %34 = load ptr, ptr %33, align 8, !tbaa !22
  %35 = icmp eq ptr %32, %34
  %36 = select i1 %35, ptr @_ZN10xalanc_1_814XalanDOMString7s_emptyE, ptr %32
  %37 = load ptr, ptr @_ZN10xalanc_1_89Constants14ATTRVAL_SIMPLEE, align 8, !tbaa !22
  %38 = load ptr, ptr %37, align 8, !tbaa !22
  %39 = getelementptr inbounds %"struct.std::_Vector_base<unsigned short, std::allocator<unsigned short> >::_Vector_impl_data", ptr %37, i64 0, i32 1
  %40 = load ptr, ptr %39, align 8, !tbaa !22
  %41 = icmp eq ptr %38, %40
  %42 = select i1 %41, ptr @_ZN10xalanc_1_814XalanDOMString7s_emptyE, ptr %38
  %43 = invoke noundef zeroext i1 @_ZN10xalanc_1_817AttributeListImpl12addAttributeEPKtS2_S2_(ptr noundef nonnull align 8 dereferenceable(56) %5, ptr noundef %30, ptr noundef %36, ptr noundef %42)
          to label %44 unwind label %54

44:                                               ; preds = %24
  %45 = load ptr, ptr %1, align 8, !tbaa !20
  %46 = getelementptr inbounds ptr, ptr %45, i64 43
  %47 = load ptr, ptr %46, align 8
  %48 = invoke noundef ptr %47(ptr noundef nonnull align 8 dereferenceable(8) %1, i32 noundef 20, ptr noundef nonnull align 8 dereferenceable(1000) %0, ptr noundef nonnull align 8 dereferenceable(8) %5, ptr noundef %2)
          to label %49 unwind label %56

49:                                               ; preds = %44
  %50 = load ptr, ptr %48, align 8, !tbaa !20
  %51 = getelementptr inbounds ptr, ptr %50, i64 12
  %52 = load ptr, ptr %51, align 8
  invoke void %52(ptr noundef nonnull align 8 dereferenceable(210) %48, ptr noundef nonnull align 8 dereferenceable(8) %1, ptr noundef nonnull align 8 dereferenceable(1000) %0)
          to label %53 unwind label %56

53:                                               ; preds = %49
  call void @_ZN10xalanc_1_817AttributeListImplD1Ev(ptr noundef nonnull align 8 dereferenceable(56) %5)
  call void @llvm.lifetime.end.p0(i64 56, ptr nonnull %5) #18
  ret ptr %48

54:                                               ; preds = %24
  %55 = landingpad { ptr, i32 }
          cleanup
  br label %58

56:                                               ; preds = %49, %44
  %57 = landingpad { ptr, i32 }
          cleanup
  br label %58

58:                                               ; preds = %56, %54
  %59 = phi { ptr, i32 } [ %57, %56 ], [ %55, %54 ]
  invoke void @_ZN10xalanc_1_817AttributeListImplD1Ev(ptr noundef nonnull align 8 dereferenceable(56) %5)
          to label %60 unwind label %63

60:                                               ; preds = %58
  call void @llvm.lifetime.end.p0(i64 56, ptr nonnull %5) #18
  br label %61

61:                                               ; preds = %60, %23
  %62 = phi { ptr, i32 } [ %59, %60 ], [ %19, %23 ]
  resume { ptr, i32 } %62

63:                                               ; preds = %58
  %64 = landingpad { ptr, i32 }
          catch ptr null
  %65 = extractvalue { ptr, i32 } %64, 0
  call void @__clang_call_terminate(ptr %65) #19
  unreachable
}

declare void @_ZN10xalanc_1_818XalanMessageLoader10getMessageENS_13XalanMessages5CodesE(ptr sret(%"class.xalanc_1_8::XalanDOMString") align 8, i32 noundef) local_unnamed_addr #1

declare void @_ZN10xalanc_1_817AttributeListImplC1Ev(ptr noundef nonnull align 8 dereferenceable(56)) unnamed_addr #1

declare noundef zeroext i1 @_ZN10xalanc_1_817AttributeListImpl12addAttributeEPKtS2_S2_(ptr noundef nonnull align 8 dereferenceable(56), ptr noundef, ptr noundef, ptr noundef) unnamed_addr #1

declare void @_ZN10xalanc_1_817AttributeListImplD1Ev(ptr noundef nonnull align 8 dereferenceable(56)) unnamed_addr #1

; Function Attrs: uwtable
define dso_local void @_ZN10xalanc_1_810Stylesheet17processKeyElementERKNS_14PrefixResolverERKN11xercesc_2_513AttributeListEPKNS4_7LocatorERNS_29StylesheetConstructionContextE(ptr noundef nonnull align 8 dereferenceable(1000) %0, ptr noundef nonnull align 8 dereferenceable(8) %1, ptr noundef nonnull align 8 dereferenceable(8) %2, ptr noundef %3, ptr noundef nonnull align 8 dereferenceable(8) %4) local_unnamed_addr #2 align 2 personality ptr @__gxx_personality_v0 {
  %6 = alloca %"class.xalanc_1_8::XalanDOMString", align 8
  %7 = alloca %"class.xalanc_1_8::XalanDOMString", align 8
  %8 = alloca %"class.xalanc_1_8::XalanDOMString", align 8
  %9 = alloca %"class.xalanc_1_8::XalanDOMString", align 8
  %10 = alloca %"class.xalanc_1_8::XalanDOMString", align 8
  %11 = alloca %"class.xalanc_1_8::XalanDOMString", align 8
  %12 = alloca %"class.xalanc_1_8::KeyDeclaration", align 8
  %13 = load ptr, ptr %2, align 8, !tbaa !20
  %14 = getelementptr inbounds ptr, ptr %13, i64 2
  %15 = load ptr, ptr %14, align 8
  %16 = tail call noundef i32 %15(ptr noundef nonnull align 8 dereferenceable(8) %2)
  %17 = icmp eq i32 %16, 0
  br i1 %17, label %155, label %18

18:                                               ; preds = %5
  %19 = load ptr, ptr @_ZN10xalanc_1_89Constants13ATTRNAME_NAMEE, align 8
  %20 = getelementptr inbounds %"struct.std::_Vector_base<unsigned short, std::allocator<unsigned short> >::_Vector_impl_data", ptr %19, i64 0, i32 1
  %21 = load ptr, ptr @_ZN10xalanc_1_89Constants14ATTRNAME_MATCHE, align 8
  %22 = getelementptr inbounds %"struct.std::_Vector_base<unsigned short, std::allocator<unsigned short> >::_Vector_impl_data", ptr %21, i64 0, i32 1
  %23 = load ptr, ptr @_ZN10xalanc_1_89Constants12ATTRNAME_USEE, align 8
  %24 = getelementptr inbounds %"struct.std::_Vector_base<unsigned short, std::allocator<unsigned short> >::_Vector_impl_data", ptr %23, i64 0, i32 1
  %25 = load ptr, ptr @_ZN10xalanc_1_89Constants31ELEMNAME_KEY_WITH_PREFIX_STRINGE, align 8
  %26 = getelementptr inbounds %"struct.std::_Vector_base<unsigned short, std::allocator<unsigned short> >::_Vector_impl_data", ptr %25, i64 0, i32 1
  %27 = getelementptr inbounds %"class.xalanc_1_8::Stylesheet", ptr %0, i64 0, i32 8
  br label %30

28:                                               ; preds = %149
  %29 = icmp eq ptr %152, null
  br i1 %29, label %155, label %174

30:                                               ; preds = %18, %149
  %31 = phi ptr [ null, %18 ], [ %152, %149 ]
  %32 = phi i32 [ 0, %18 ], [ %153, %149 ]
  %33 = phi ptr [ null, %18 ], [ %151, %149 ]
  %34 = phi ptr [ null, %18 ], [ %150, %149 ]
  %35 = load ptr, ptr %2, align 8, !tbaa !20
  %36 = getelementptr inbounds ptr, ptr %35, i64 3
  %37 = load ptr, ptr %36, align 8
  %38 = call noundef ptr %37(ptr noundef nonnull align 8 dereferenceable(8) %2, i32 noundef %32)
  %39 = load ptr, ptr %19, align 8, !tbaa !22
  %40 = load ptr, ptr %20, align 8, !tbaa !22
  %41 = icmp eq ptr %39, %40
  %42 = select i1 %41, ptr @_ZN10xalanc_1_814XalanDOMString7s_emptyE, ptr %39
  %43 = call noundef i32 @_ZN10xalanc_1_814XalanDOMString6lengthEPKt(ptr noundef %42)
  %44 = call noundef i32 @_ZN10xalanc_1_814XalanDOMString6lengthEPKt(ptr noundef %38)
  %45 = call noundef zeroext i1 @_ZN10xalanc_1_814XalanDOMString6equalsEPKtjS2_j(ptr noundef %42, i32 noundef %43, ptr noundef %38, i32 noundef %44)
  br i1 %45, label %46, label %83

46:                                               ; preds = %30
  %47 = load ptr, ptr %2, align 8, !tbaa !20
  %48 = getelementptr inbounds ptr, ptr %47, i64 5
  %49 = load ptr, ptr %48, align 8
  %50 = call noundef ptr %49(ptr noundef nonnull align 8 dereferenceable(8) %2, i32 noundef %32)
  %51 = load ptr, ptr %4, align 8, !tbaa !20
  %52 = getelementptr inbounds ptr, ptr %51, i64 41
  %53 = load ptr, ptr %52, align 8
  %54 = call noundef ptr %53(ptr noundef nonnull align 8 dereferenceable(8) %4, ptr noundef %50, ptr noundef nonnull align 8 dereferenceable(80) %27, ptr noundef %3, i1 noundef zeroext false)
  %55 = load ptr, ptr %54, align 8, !tbaa !20
  %56 = getelementptr inbounds ptr, ptr %55, i64 2
  %57 = load ptr, ptr %56, align 8
  %58 = call noundef nonnull align 8 dereferenceable(28) ptr %57(ptr noundef nonnull align 8 dereferenceable(8) %54)
  %59 = call noundef zeroext i1 @_ZN10xalanc_1_810XalanQName13isValidNCNameERKNS_14XalanDOMStringE(ptr noundef nonnull align 8 dereferenceable(28) %58)
  br i1 %59, label %149, label %60

60:                                               ; preds = %46
  call void @llvm.lifetime.start.p0(i64 32, ptr nonnull %6) #18
  %61 = load ptr, ptr %19, align 8, !tbaa !22
  %62 = load ptr, ptr %20, align 8, !tbaa !22
  %63 = icmp eq ptr %61, %62
  %64 = select i1 %63, ptr @_ZN10xalanc_1_814XalanDOMString7s_emptyE, ptr %61
  %65 = load ptr, ptr %2, align 8, !tbaa !20
  %66 = getelementptr inbounds ptr, ptr %65, i64 5
  %67 = load ptr, ptr %66, align 8
  %68 = call noundef ptr %67(ptr noundef nonnull align 8 dereferenceable(8) %2, i32 noundef %32)
  call void @_ZN10xalanc_1_818XalanMessageLoader10getMessageENS_13XalanMessages5CodesEPKtS4_S4_S4_(ptr nonnull sret(%"class.xalanc_1_8::XalanDOMString") align 8 %6, i32 noundef 65, ptr noundef %64, ptr noundef %68, ptr noundef null, ptr noundef null)
  %69 = load ptr, ptr %4, align 8, !tbaa !20
  %70 = getelementptr inbounds ptr, ptr %69, i64 7
  %71 = load ptr, ptr %70, align 8
  invoke void %71(ptr noundef nonnull align 8 dereferenceable(8) %4, ptr noundef nonnull align 8 dereferenceable(28) %6, ptr noundef null, ptr noundef %3)
          to label %72 unwind label %77

72:                                               ; preds = %60
  %73 = load ptr, ptr %6, align 8, !tbaa !15
  %74 = icmp eq ptr %73, null
  br i1 %74, label %76, label %75

75:                                               ; preds = %72
  call void @_ZdlPv(ptr noundef nonnull %73) #18
  br label %76

76:                                               ; preds = %72, %75
  call void @llvm.lifetime.end.p0(i64 32, ptr nonnull %6) #18
  br label %149

77:                                               ; preds = %60
  %78 = landingpad { ptr, i32 }
          cleanup
  %79 = load ptr, ptr %6, align 8, !tbaa !15
  %80 = icmp eq ptr %79, null
  br i1 %80, label %82, label %81

81:                                               ; preds = %77
  call void @_ZdlPv(ptr noundef nonnull %79) #18
  br label %82

82:                                               ; preds = %81, %77
  call void @llvm.lifetime.end.p0(i64 32, ptr nonnull %6) #18
  br label %247

83:                                               ; preds = %30
  %84 = load ptr, ptr %21, align 8, !tbaa !22
  %85 = load ptr, ptr %22, align 8, !tbaa !22
  %86 = icmp eq ptr %84, %85
  %87 = select i1 %86, ptr @_ZN10xalanc_1_814XalanDOMString7s_emptyE, ptr %84
  %88 = call noundef i32 @_ZN10xalanc_1_814XalanDOMString6lengthEPKt(ptr noundef %87)
  %89 = call noundef i32 @_ZN10xalanc_1_814XalanDOMString6lengthEPKt(ptr noundef %38)
  %90 = call noundef zeroext i1 @_ZN10xalanc_1_814XalanDOMString6equalsEPKtjS2_j(ptr noundef %87, i32 noundef %88, ptr noundef %38, i32 noundef %89)
  br i1 %90, label %91, label %111

91:                                               ; preds = %83
  call void @llvm.lifetime.start.p0(i64 32, ptr nonnull %7) #18
  %92 = load ptr, ptr %2, align 8, !tbaa !20
  %93 = getelementptr inbounds ptr, ptr %92, i64 5
  %94 = load ptr, ptr %93, align 8
  %95 = call noundef ptr %94(ptr noundef nonnull align 8 dereferenceable(8) %2, i32 noundef %32)
  call void @_ZN10xalanc_1_814XalanDOMStringC1EPKtj(ptr noundef nonnull align 8 dereferenceable(28) %7, ptr noundef %95, i32 noundef -1)
  %96 = load ptr, ptr %4, align 8, !tbaa !20
  %97 = getelementptr inbounds ptr, ptr %96, i64 18
  %98 = load ptr, ptr %97, align 8
  %99 = invoke noundef ptr %98(ptr noundef nonnull align 8 dereferenceable(8) %4, ptr noundef null, ptr noundef nonnull align 8 dereferenceable(28) %7, ptr noundef nonnull align 8 dereferenceable(8) %1)
          to label %100 unwind label %105

100:                                              ; preds = %91
  %101 = load ptr, ptr %7, align 8, !tbaa !15
  %102 = icmp eq ptr %101, null
  br i1 %102, label %104, label %103

103:                                              ; preds = %100
  call void @_ZdlPv(ptr noundef nonnull %101) #18
  br label %104

104:                                              ; preds = %100, %103
  call void @llvm.lifetime.end.p0(i64 32, ptr nonnull %7) #18
  br label %149

105:                                              ; preds = %91
  %106 = landingpad { ptr, i32 }
          cleanup
  %107 = load ptr, ptr %7, align 8, !tbaa !15
  %108 = icmp eq ptr %107, null
  br i1 %108, label %110, label %109

109:                                              ; preds = %105
  call void @_ZdlPv(ptr noundef nonnull %107) #18
  br label %110

110:                                              ; preds = %109, %105
  call void @llvm.lifetime.end.p0(i64 32, ptr nonnull %7) #18
  br label %247

111:                                              ; preds = %83
  %112 = load ptr, ptr %23, align 8, !tbaa !22
  %113 = load ptr, ptr %24, align 8, !tbaa !22
  %114 = icmp eq ptr %112, %113
  %115 = select i1 %114, ptr @_ZN10xalanc_1_814XalanDOMString7s_emptyE, ptr %112
  %116 = call noundef i32 @_ZN10xalanc_1_814XalanDOMString6lengthEPKt(ptr noundef %115)
  %117 = call noundef i32 @_ZN10xalanc_1_814XalanDOMString6lengthEPKt(ptr noundef %38)
  %118 = call noundef zeroext i1 @_ZN10xalanc_1_814XalanDOMString6equalsEPKtjS2_j(ptr noundef %115, i32 noundef %116, ptr noundef %38, i32 noundef %117)
  br i1 %118, label %119, label %128

119:                                              ; preds = %111
  %120 = load ptr, ptr %2, align 8, !tbaa !20
  %121 = getelementptr inbounds ptr, ptr %120, i64 5
  %122 = load ptr, ptr %121, align 8
  %123 = call noundef ptr %122(ptr noundef nonnull align 8 dereferenceable(8) %2, i32 noundef %32)
  %124 = load ptr, ptr %4, align 8, !tbaa !20
  %125 = getelementptr inbounds ptr, ptr %124, i64 21
  %126 = load ptr, ptr %125, align 8
  %127 = call noundef ptr %126(ptr noundef nonnull align 8 dereferenceable(8) %4, ptr noundef null, ptr noundef %123, ptr noundef nonnull align 8 dereferenceable(8) %1)
  br label %149

128:                                              ; preds = %111
  %129 = call noundef zeroext i1 @_ZNK10xalanc_1_810Stylesheet8isAttrOKEPKtRKN11xercesc_2_513AttributeListEiRNS_29StylesheetConstructionContextE(ptr noundef nonnull align 8 dereferenceable(1000) %0, ptr noundef %38, ptr nonnull align 8 poison, i32 poison, ptr noundef nonnull align 8 dereferenceable(8) %4)
  br i1 %129, label %149, label %130

130:                                              ; preds = %128
  call void @llvm.lifetime.start.p0(i64 32, ptr nonnull %8) #18
  %131 = load ptr, ptr %25, align 8, !tbaa !22
  %132 = load ptr, ptr %26, align 8, !tbaa !22
  %133 = icmp eq ptr %131, %132
  %134 = select i1 %133, ptr @_ZN10xalanc_1_814XalanDOMString7s_emptyE, ptr %131
  call void @_ZN10xalanc_1_818XalanMessageLoader10getMessageENS_13XalanMessages5CodesEPKtS4_S4_S4_(ptr nonnull sret(%"class.xalanc_1_8::XalanDOMString") align 8 %8, i32 noundef 79, ptr noundef %134, ptr noundef %38, ptr noundef null, ptr noundef null)
  %135 = load ptr, ptr %4, align 8, !tbaa !20
  %136 = getelementptr inbounds ptr, ptr %135, i64 7
  %137 = load ptr, ptr %136, align 8
  invoke void %137(ptr noundef nonnull align 8 dereferenceable(8) %4, ptr noundef nonnull align 8 dereferenceable(28) %8, ptr noundef null, ptr noundef %3)
          to label %138 unwind label %143

138:                                              ; preds = %130
  %139 = load ptr, ptr %8, align 8, !tbaa !15
  %140 = icmp eq ptr %139, null
  br i1 %140, label %142, label %141

141:                                              ; preds = %138
  call void @_ZdlPv(ptr noundef nonnull %139) #18
  br label %142

142:                                              ; preds = %138, %141
  call void @llvm.lifetime.end.p0(i64 32, ptr nonnull %8) #18
  br label %149

143:                                              ; preds = %130
  %144 = landingpad { ptr, i32 }
          cleanup
  %145 = load ptr, ptr %8, align 8, !tbaa !15
  %146 = icmp eq ptr %145, null
  br i1 %146, label %148, label %147

147:                                              ; preds = %143
  call void @_ZdlPv(ptr noundef nonnull %145) #18
  br label %148

148:                                              ; preds = %147, %143
  call void @llvm.lifetime.end.p0(i64 32, ptr nonnull %8) #18
  br label %247

149:                                              ; preds = %104, %128, %142, %119, %46, %76
  %150 = phi ptr [ %34, %76 ], [ %34, %46 ], [ %34, %104 ], [ %127, %119 ], [ %34, %142 ], [ %34, %128 ]
  %151 = phi ptr [ %33, %76 ], [ %33, %46 ], [ %99, %104 ], [ %33, %119 ], [ %33, %142 ], [ %33, %128 ]
  %152 = phi ptr [ %54, %76 ], [ %54, %46 ], [ %31, %104 ], [ %31, %119 ], [ %31, %142 ], [ %31, %128 ]
  %153 = add nuw i32 %32, 1
  %154 = icmp eq i32 %153, %16
  br i1 %154, label %28, label %30

155:                                              ; preds = %5, %28
  %156 = phi ptr [ %151, %28 ], [ null, %5 ]
  %157 = phi ptr [ %150, %28 ], [ null, %5 ]
  call void @llvm.lifetime.start.p0(i64 32, ptr nonnull %9) #18
  %158 = load ptr, ptr @_ZN10xalanc_1_89Constants31ELEMNAME_KEY_WITH_PREFIX_STRINGE, align 8, !tbaa !22
  %159 = load ptr, ptr @_ZN10xalanc_1_89Constants13ATTRNAME_NAMEE, align 8, !tbaa !22
  call void @_ZN10xalanc_1_818XalanMessageLoader10getMessageENS_13XalanMessages5CodesERKNS_14XalanDOMStringES5_(ptr nonnull sret(%"class.xalanc_1_8::XalanDOMString") align 8 %9, i32 noundef 151, ptr noundef nonnull align 8 dereferenceable(28) %158, ptr noundef nonnull align 8 dereferenceable(28) %159)
  %160 = load ptr, ptr %4, align 8, !tbaa !20
  %161 = getelementptr inbounds ptr, ptr %160, i64 7
  %162 = load ptr, ptr %161, align 8
  invoke void %162(ptr noundef nonnull align 8 dereferenceable(8) %4, ptr noundef nonnull align 8 dereferenceable(28) %9, ptr noundef null, ptr noundef %3)
          to label %163 unwind label %168

163:                                              ; preds = %155
  %164 = load ptr, ptr %9, align 8, !tbaa !15
  %165 = icmp eq ptr %164, null
  br i1 %165, label %167, label %166

166:                                              ; preds = %163
  call void @_ZdlPv(ptr noundef nonnull %164) #18
  br label %167

167:                                              ; preds = %163, %166
  call void @llvm.lifetime.end.p0(i64 32, ptr nonnull %9) #18
  br label %174

168:                                              ; preds = %155
  %169 = landingpad { ptr, i32 }
          cleanup
  %170 = load ptr, ptr %9, align 8, !tbaa !15
  %171 = icmp eq ptr %170, null
  br i1 %171, label %173, label %172

172:                                              ; preds = %168
  call void @_ZdlPv(ptr noundef nonnull %170) #18
  br label %173

173:                                              ; preds = %172, %168
  call void @llvm.lifetime.end.p0(i64 32, ptr nonnull %9) #18
  br label %247

174:                                              ; preds = %167, %28
  %175 = phi ptr [ null, %167 ], [ %152, %28 ]
  %176 = phi ptr [ %156, %167 ], [ %151, %28 ]
  %177 = phi ptr [ %157, %167 ], [ %150, %28 ]
  %178 = icmp eq ptr %176, null
  br i1 %178, label %179, label %196

179:                                              ; preds = %174
  call void @llvm.lifetime.start.p0(i64 32, ptr nonnull %10) #18
  %180 = load ptr, ptr @_ZN10xalanc_1_89Constants31ELEMNAME_KEY_WITH_PREFIX_STRINGE, align 8, !tbaa !22
  %181 = load ptr, ptr @_ZN10xalanc_1_89Constants14ATTRNAME_MATCHE, align 8, !tbaa !22
  call void @_ZN10xalanc_1_818XalanMessageLoader10getMessageENS_13XalanMessages5CodesERKNS_14XalanDOMStringES5_(ptr nonnull sret(%"class.xalanc_1_8::XalanDOMString") align 8 %10, i32 noundef 151, ptr noundef nonnull align 8 dereferenceable(28) %180, ptr noundef nonnull align 8 dereferenceable(28) %181)
  %182 = load ptr, ptr %4, align 8, !tbaa !20
  %183 = getelementptr inbounds ptr, ptr %182, i64 7
  %184 = load ptr, ptr %183, align 8
  invoke void %184(ptr noundef nonnull align 8 dereferenceable(8) %4, ptr noundef nonnull align 8 dereferenceable(28) %10, ptr noundef null, ptr noundef %3)
          to label %185 unwind label %190

185:                                              ; preds = %179
  %186 = load ptr, ptr %10, align 8, !tbaa !15
  %187 = icmp eq ptr %186, null
  br i1 %187, label %189, label %188

188:                                              ; preds = %185
  call void @_ZdlPv(ptr noundef nonnull %186) #18
  br label %189

189:                                              ; preds = %185, %188
  call void @llvm.lifetime.end.p0(i64 32, ptr nonnull %10) #18
  br label %196

190:                                              ; preds = %179
  %191 = landingpad { ptr, i32 }
          cleanup
  %192 = load ptr, ptr %10, align 8, !tbaa !15
  %193 = icmp eq ptr %192, null
  br i1 %193, label %195, label %194

194:                                              ; preds = %190
  call void @_ZdlPv(ptr noundef nonnull %192) #18
  br label %195

195:                                              ; preds = %194, %190
  call void @llvm.lifetime.end.p0(i64 32, ptr nonnull %10) #18
  br label %247

196:                                              ; preds = %189, %174
  %197 = icmp eq ptr %177, null
  br i1 %197, label %198, label %215

198:                                              ; preds = %196
  call void @llvm.lifetime.start.p0(i64 32, ptr nonnull %11) #18
  %199 = load ptr, ptr @_ZN10xalanc_1_89Constants31ELEMNAME_KEY_WITH_PREFIX_STRINGE, align 8, !tbaa !22
  %200 = load ptr, ptr @_ZN10xalanc_1_89Constants12ATTRNAME_USEE, align 8, !tbaa !22
  call void @_ZN10xalanc_1_818XalanMessageLoader10getMessageENS_13XalanMessages5CodesERKNS_14XalanDOMStringES5_(ptr nonnull sret(%"class.xalanc_1_8::XalanDOMString") align 8 %11, i32 noundef 151, ptr noundef nonnull align 8 dereferenceable(28) %199, ptr noundef nonnull align 8 dereferenceable(28) %200)
  %201 = load ptr, ptr %4, align 8, !tbaa !20
  %202 = getelementptr inbounds ptr, ptr %201, i64 7
  %203 = load ptr, ptr %202, align 8
  invoke void %203(ptr noundef nonnull align 8 dereferenceable(8) %4, ptr noundef nonnull align 8 dereferenceable(28) %11, ptr noundef null, ptr noundef %3)
          to label %204 unwind label %209

204:                                              ; preds = %198
  %205 = load ptr, ptr %11, align 8, !tbaa !15
  %206 = icmp eq ptr %205, null
  br i1 %206, label %208, label %207

207:                                              ; preds = %204
  call void @_ZdlPv(ptr noundef nonnull %205) #18
  br label %208

208:                                              ; preds = %204, %207
  call void @llvm.lifetime.end.p0(i64 32, ptr nonnull %11) #18
  br label %215

209:                                              ; preds = %198
  %210 = landingpad { ptr, i32 }
          cleanup
  %211 = load ptr, ptr %11, align 8, !tbaa !15
  %212 = icmp eq ptr %211, null
  br i1 %212, label %214, label %213

213:                                              ; preds = %209
  call void @_ZdlPv(ptr noundef nonnull %211) #18
  br label %214

214:                                              ; preds = %213, %209
  call void @llvm.lifetime.end.p0(i64 32, ptr nonnull %11) #18
  br label %247

215:                                              ; preds = %208, %196
  %216 = getelementptr inbounds %"class.xalanc_1_8::Stylesheet", ptr %0, i64 0, i32 3
  call void @llvm.lifetime.start.p0(i64 48, ptr nonnull %12) #18
  %217 = getelementptr inbounds %"class.xalanc_1_8::Stylesheet", ptr %0, i64 0, i32 2
  %218 = icmp eq ptr %3, null
  br i1 %218, label %228, label %219

219:                                              ; preds = %215
  %220 = load ptr, ptr %3, align 8, !tbaa !20
  %221 = getelementptr inbounds ptr, ptr %220, i64 4
  %222 = load ptr, ptr %221, align 8
  %223 = call noundef i64 %222(ptr noundef nonnull align 8 dereferenceable(8) %3)
  %224 = load ptr, ptr %3, align 8, !tbaa !20
  %225 = getelementptr inbounds ptr, ptr %224, i64 5
  %226 = load ptr, ptr %225, align 8
  %227 = call noundef i64 %226(ptr noundef nonnull align 8 dereferenceable(8) %3)
  br label %228

228:                                              ; preds = %215, %219
  %229 = phi i64 [ %223, %219 ], [ -1, %215 ]
  %230 = phi i64 [ %227, %219 ], [ -1, %215 ]
  store ptr %175, ptr %12, align 8, !tbaa !170
  %231 = getelementptr inbounds %"class.xalanc_1_8::KeyDeclaration", ptr %12, i64 0, i32 1
  store ptr %176, ptr %231, align 8, !tbaa !172
  %232 = getelementptr inbounds %"class.xalanc_1_8::KeyDeclaration", ptr %12, i64 0, i32 2
  store ptr %177, ptr %232, align 8, !tbaa !173
  %233 = getelementptr inbounds %"class.xalanc_1_8::KeyDeclaration", ptr %12, i64 0, i32 3
  store ptr %217, ptr %233, align 8, !tbaa !174
  %234 = getelementptr inbounds %"class.xalanc_1_8::KeyDeclaration", ptr %12, i64 0, i32 4
  store i64 %229, ptr %234, align 8, !tbaa !175
  %235 = getelementptr inbounds %"class.xalanc_1_8::KeyDeclaration", ptr %12, i64 0, i32 5
  store i64 %230, ptr %235, align 8, !tbaa !176
  %236 = getelementptr inbounds %"class.xalanc_1_8::Stylesheet", ptr %0, i64 0, i32 3, i32 0, i32 0, i32 0, i32 1
  %237 = load ptr, ptr %236, align 8, !tbaa !22
  %238 = getelementptr inbounds %"class.xalanc_1_8::Stylesheet", ptr %0, i64 0, i32 3, i32 0, i32 0, i32 0, i32 2
  %239 = load ptr, ptr %238, align 8, !tbaa !177
  %240 = icmp eq ptr %237, %239
  br i1 %240, label %245, label %241

241:                                              ; preds = %228
  store ptr %175, ptr %237, align 8, !tbaa !170
  %242 = getelementptr inbounds %"class.xalanc_1_8::KeyDeclaration", ptr %237, i64 0, i32 1
  store ptr %176, ptr %242, align 8, !tbaa !172
  %243 = getelementptr inbounds %"class.xalanc_1_8::KeyDeclaration", ptr %237, i64 0, i32 2
  store ptr %177, ptr %243, align 8, !tbaa !173
  %244 = getelementptr inbounds %"class.xalanc_1_8::KeyDeclaration", ptr %237, i64 1
  store ptr %244, ptr %236, align 8, !tbaa !178
  br label %246

245:                                              ; preds = %228
  call void @_ZNSt6vectorIN10xalanc_1_814KeyDeclarationESaIS1_EE17_M_realloc_insertEN9__gnu_cxx17__normal_iteratorIPS1_S3_EERKS1_(ptr noundef nonnull align 8 dereferenceable(24) %216, ptr %237, ptr noundef nonnull align 8 dereferenceable(48) %12)
  br label %246

246:                                              ; preds = %245, %241
  call void @llvm.lifetime.end.p0(i64 48, ptr nonnull %12) #18
  ret void

247:                                              ; preds = %82, %110, %148, %214, %195, %173
  %248 = phi { ptr, i32 } [ %210, %214 ], [ %191, %195 ], [ %169, %173 ], [ %78, %82 ], [ %106, %110 ], [ %144, %148 ]
  resume { ptr, i32 } %248
}

declare void @_ZN10xalanc_1_818XalanMessageLoader10getMessageENS_13XalanMessages5CodesEPKtS4_S4_S4_(ptr sret(%"class.xalanc_1_8::XalanDOMString") align 8, i32 noundef, ptr noundef, ptr noundef, ptr noundef, ptr noundef) local_unnamed_addr #1

declare void @_ZN10xalanc_1_814XalanDOMStringC1EPKtj(ptr noundef nonnull align 8 dereferenceable(28), ptr noundef, i32 noundef) unnamed_addr #1

; Function Attrs: uwtable
define dso_local noundef zeroext i1 @_ZNK10xalanc_1_810Stylesheet8isAttrOKEPKtRKN11xercesc_2_513AttributeListEiRNS_29StylesheetConstructionContextE(ptr noundef nonnull align 8 dereferenceable(1000) %0, ptr noundef %1, ptr nocapture nonnull readnone align 8 %2, i32 %3, ptr noundef nonnull align 8 dereferenceable(8) %4) local_unnamed_addr #2 align 2 personality ptr @__gxx_personality_v0 {
  %6 = alloca %"class.xalanc_1_8::XalanDOMString", align 8
  %7 = load ptr, ptr @_ZN10xalanc_1_811DOMServices14s_XMLNamespaceE, align 8, !tbaa !22
  %8 = load ptr, ptr %7, align 8, !tbaa !22
  %9 = getelementptr inbounds %"struct.std::_Vector_base<unsigned short, std::allocator<unsigned short> >::_Vector_impl_data", ptr %7, i64 0, i32 1
  %10 = load ptr, ptr %9, align 8, !tbaa !22
  %11 = icmp eq ptr %8, %10
  %12 = select i1 %11, ptr @_ZN10xalanc_1_814XalanDOMString7s_emptyE, ptr %8
  %13 = tail call noundef i32 @_ZN10xalanc_1_814XalanDOMString6lengthEPKt(ptr noundef %12)
  %14 = tail call noundef i32 @_ZN10xalanc_1_814XalanDOMString6lengthEPKt(ptr noundef %1)
  %15 = tail call noundef zeroext i1 @_ZN10xalanc_1_814XalanDOMString6equalsEPKtjS2_j(ptr noundef %12, i32 noundef %13, ptr noundef %1, i32 noundef %14)
  br i1 %15, label %96, label %16

16:                                               ; preds = %5
  %17 = load ptr, ptr @_ZN10xalanc_1_811DOMServices27s_XMLNamespaceWithSeparatorE, align 8, !tbaa !22
  br label %18

18:                                               ; preds = %18, %16
  %19 = phi ptr [ %1, %16 ], [ %22, %18 ]
  %20 = load i16, ptr %19, align 2, !tbaa !179
  %21 = icmp eq i16 %20, 0
  %22 = getelementptr inbounds i16, ptr %19, i64 1
  br i1 %21, label %23, label %18

23:                                               ; preds = %18
  %24 = ptrtoint ptr %19 to i64
  %25 = ptrtoint ptr %1 to i64
  %26 = sub i64 %24, %25
  %27 = lshr exact i64 %26, 1
  %28 = trunc i64 %27 to i32
  %29 = load ptr, ptr %17, align 8, !tbaa !22
  %30 = getelementptr inbounds %"struct.std::_Vector_base<unsigned short, std::allocator<unsigned short> >::_Vector_impl_data", ptr %17, i64 0, i32 1
  %31 = load ptr, ptr %30, align 8, !tbaa !22
  %32 = icmp eq ptr %29, %31
  %33 = select i1 %32, ptr @_ZN10xalanc_1_814XalanDOMString7s_emptyE, ptr %29
  %34 = getelementptr inbounds %"class.xalanc_1_8::XalanDOMString", ptr %17, i64 0, i32 1
  %35 = load i32, ptr %34, align 8, !tbaa !116
  %36 = tail call noundef zeroext i1 @_ZN10xalanc_1_810startsWithEPKtjS1_j(ptr noundef %1, i32 noundef %28, ptr noundef %33, i32 noundef %35)
  br i1 %36, label %96, label %37

37:                                               ; preds = %23, %37
  %38 = phi ptr [ %40, %37 ], [ %1, %23 ]
  %39 = load i16, ptr %38, align 2, !tbaa !179
  %40 = getelementptr inbounds i16, ptr %38, i64 1
  switch i16 %39, label %37 [
    i16 58, label %41
    i16 0, label %41
  ]

41:                                               ; preds = %37, %37
  %42 = ptrtoint ptr %38 to i64
  %43 = sub i64 %42, %25
  %44 = lshr exact i64 %43, 1
  br label %45

45:                                               ; preds = %45, %41
  %46 = phi ptr [ %1, %41 ], [ %49, %45 ]
  %47 = load i16, ptr %46, align 2, !tbaa !179
  %48 = icmp eq i16 %47, 0
  %49 = getelementptr inbounds i16, ptr %46, i64 1
  br i1 %48, label %50, label %45

50:                                               ; preds = %45
  %51 = trunc i64 %44 to i32
  %52 = ptrtoint ptr %46 to i64
  %53 = sub i64 %52, %25
  %54 = lshr exact i64 %53, 1
  %55 = trunc i64 %54 to i32
  %56 = icmp ult i32 %51, %55
  br i1 %56, label %57, label %87

57:                                               ; preds = %50
  call void @llvm.lifetime.start.p0(i64 32, ptr nonnull %6) #18
  call void @_ZN10xalanc_1_814XalanDOMStringC1EPKtj(ptr noundef nonnull align 8 dereferenceable(28) %6, ptr noundef %1, i32 noundef %51)
  %58 = getelementptr inbounds %"class.xalanc_1_8::Stylesheet", ptr %0, i64 0, i32 8
  %59 = invoke noundef ptr @_ZN10xalanc_1_810XalanQName21getNamespaceForPrefixERKSt5dequeIS1_INS_9NameSpaceESaIS2_EESaIS4_EERKNS_14XalanDOMStringE(ptr noundef nonnull align 8 dereferenceable(80) %58, ptr noundef nonnull align 8 dereferenceable(28) %6)
          to label %60 unwind label %81

60:                                               ; preds = %57
  %61 = icmp eq ptr %59, null
  br i1 %61, label %75, label %62

62:                                               ; preds = %60
  %63 = getelementptr inbounds %"class.xalanc_1_8::XalanDOMString", ptr %59, i64 0, i32 1
  %64 = load i32, ptr %63, align 8, !tbaa !116
  %65 = icmp eq i32 %64, 0
  br i1 %65, label %75, label %66

66:                                               ; preds = %62
  %67 = load ptr, ptr %4, align 8, !tbaa !20
  %68 = getelementptr inbounds ptr, ptr %67, i64 17
  %69 = load ptr, ptr %68, align 8
  %70 = invoke noundef nonnull align 8 dereferenceable(28) ptr %69(ptr noundef nonnull align 8 dereferenceable(8) %4)
          to label %71 unwind label %81

71:                                               ; preds = %66
  %72 = invoke noundef zeroext i1 @_ZN10xalanc_1_814XalanDOMString6equalsERKS0_S2_(ptr noundef nonnull align 8 dereferenceable(28) %59, ptr noundef nonnull align 8 dereferenceable(28) %70)
          to label %73 unwind label %81

73:                                               ; preds = %71
  %74 = xor i1 %72, true
  br label %75

75:                                               ; preds = %73, %62, %60
  %76 = phi i1 [ false, %62 ], [ false, %60 ], [ %74, %73 ]
  %77 = load ptr, ptr %6, align 8, !tbaa !15
  %78 = icmp eq ptr %77, null
  br i1 %78, label %80, label %79

79:                                               ; preds = %75
  call void @_ZdlPv(ptr noundef nonnull %77) #18
  br label %80

80:                                               ; preds = %75, %79
  call void @llvm.lifetime.end.p0(i64 32, ptr nonnull %6) #18
  br label %96

81:                                               ; preds = %71, %57, %66
  %82 = landingpad { ptr, i32 }
          cleanup
  %83 = load ptr, ptr %6, align 8, !tbaa !15
  %84 = icmp eq ptr %83, null
  br i1 %84, label %86, label %85

85:                                               ; preds = %81
  call void @_ZdlPv(ptr noundef nonnull %83) #18
  br label %86

86:                                               ; preds = %85, %81
  call void @llvm.lifetime.end.p0(i64 32, ptr nonnull %6) #18
  resume { ptr, i32 } %82

87:                                               ; preds = %50
  %88 = getelementptr inbounds %"class.xalanc_1_8::Stylesheet", ptr %0, i64 0, i32 16
  %89 = load double, ptr %88, align 8, !tbaa !113
  %90 = load ptr, ptr %4, align 8, !tbaa !20
  %91 = getelementptr inbounds ptr, ptr %90, i64 32
  %92 = load ptr, ptr %91, align 8
  %93 = tail call reassoc nnan ninf nsz arcp afn noundef nofpclass(nan inf) double %92(ptr noundef nonnull align 8 dereferenceable(8) %4)
  %94 = fcmp reassoc nnan ninf nsz arcp afn ogt double %89, %93
  br i1 %94, label %95, label %96

95:                                               ; preds = %87
  br label %96

96:                                               ; preds = %5, %80, %95, %87, %23
  %97 = phi i1 [ true, %23 ], [ %76, %80 ], [ true, %95 ], [ false, %87 ], [ true, %5 ]
  ret i1 %97
}

declare void @_ZN10xalanc_1_818XalanMessageLoader10getMessageENS_13XalanMessages5CodesERKNS_14XalanDOMStringES5_(ptr sret(%"class.xalanc_1_8::XalanDOMString") align 8, i32 noundef, ptr noundef nonnull align 8 dereferenceable(28), ptr noundef nonnull align 8 dereferenceable(28)) local_unnamed_addr #1

; Function Attrs: uwtable
define dso_local void @_ZN10xalanc_1_810Stylesheet14pushNamespacesERKN11xercesc_2_513AttributeListE(ptr noundef nonnull align 8 dereferenceable(1000) %0, ptr noundef nonnull align 8 dereferenceable(8) %1) local_unnamed_addr #2 align 2 personality ptr @__gxx_personality_v0 {
  %3 = alloca %"class.std::deque.18", align 8
  %4 = alloca %"class.xalanc_1_8::XalanDOMString", align 8
  %5 = alloca %"class.xalanc_1_8::NameSpace", align 8
  %6 = alloca %"class.xalanc_1_8::XalanDOMString", align 8
  %7 = load ptr, ptr %1, align 8, !tbaa !20
  %8 = getelementptr inbounds ptr, ptr %7, i64 2
  %9 = load ptr, ptr %8, align 8
  %10 = tail call noundef i32 %9(ptr noundef nonnull align 8 dereferenceable(8) %1)
  call void @llvm.lifetime.start.p0(i64 80, ptr nonnull %3) #18
  call void @llvm.memset.p0.i64(ptr noundef nonnull align 8 dereferenceable(80) %3, i8 0, i64 80, i1 false)
  call void @_ZNSt11_Deque_baseIN10xalanc_1_89NameSpaceESaIS1_EE17_M_initialize_mapEm(ptr noundef nonnull align 8 dereferenceable(80) %3, i64 noundef 0)
  call void @llvm.lifetime.start.p0(i64 32, ptr nonnull %4) #18
  invoke void @_ZN10xalanc_1_814XalanDOMStringC1Ev(ptr noundef nonnull align 8 dereferenceable(28) %4)
          to label %11 unwind label %38

11:                                               ; preds = %2
  %12 = icmp eq i32 %10, 0
  br i1 %12, label %25, label %13

13:                                               ; preds = %11
  %14 = load ptr, ptr @_ZN10xalanc_1_811DOMServices27s_XMLNamespaceWithSeparatorE, align 8
  %15 = getelementptr inbounds %"struct.std::_Vector_base<unsigned short, std::allocator<unsigned short> >::_Vector_impl_data", ptr %14, i64 0, i32 1
  %16 = getelementptr inbounds %"class.xalanc_1_8::XalanDOMString", ptr %14, i64 0, i32 1
  %17 = load ptr, ptr @_ZN10xalanc_1_811DOMServices14s_XMLNamespaceE, align 8
  %18 = getelementptr inbounds %"struct.std::_Vector_base<unsigned short, std::allocator<unsigned short> >::_Vector_impl_data", ptr %17, i64 0, i32 1
  %19 = getelementptr inbounds %"struct.std::_Vector_base<unsigned short, std::allocator<unsigned short> >::_Vector_impl_data", ptr %4, i64 0, i32 1
  %20 = getelementptr inbounds %"class.xalanc_1_8::XalanDOMString", ptr %4, i64 0, i32 1
  %21 = load ptr, ptr @_ZN10xalanc_1_811DOMServices33s_XMLNamespaceWithSeparatorLengthE, align 8
  %22 = getelementptr inbounds %"class.xalanc_1_8::NameSpace", ptr %5, i64 0, i32 1
  %23 = getelementptr inbounds %"struct.std::_Deque_base<xalanc_1_8::NameSpace, std::allocator<xalanc_1_8::NameSpace> >::_Deque_impl", ptr %3, i64 0, i32 3
  %24 = getelementptr inbounds %"struct.std::_Deque_base<xalanc_1_8::NameSpace, std::allocator<xalanc_1_8::NameSpace> >::_Deque_impl", ptr %3, i64 0, i32 3, i32 2
  br label %40

25:                                               ; preds = %149, %11
  %26 = getelementptr inbounds %"class.xalanc_1_8::Stylesheet", ptr %0, i64 0, i32 8, i32 0, i32 0, i32 3
  %27 = load ptr, ptr %26, align 8, !tbaa !181
  %28 = getelementptr inbounds %"class.xalanc_1_8::Stylesheet", ptr %0, i64 0, i32 8, i32 0, i32 0, i32 3, i32 2
  %29 = load ptr, ptr %28, align 8, !tbaa !182
  %30 = getelementptr inbounds %"class.std::deque.18", ptr %29, i64 -1
  %31 = icmp eq ptr %27, %30
  br i1 %31, label %36, label %32

32:                                               ; preds = %25
  invoke void @_ZNSt5dequeIN10xalanc_1_89NameSpaceESaIS1_EEC2ERKS3_(ptr noundef nonnull align 8 dereferenceable(80) %27, ptr noundef nonnull align 8 dereferenceable(80) %3)
          to label %33 unwind label %157

33:                                               ; preds = %32
  %34 = load ptr, ptr %26, align 8, !tbaa !181
  %35 = getelementptr inbounds %"class.std::deque.18", ptr %34, i64 1
  store ptr %35, ptr %26, align 8, !tbaa !181
  br label %152

36:                                               ; preds = %25
  %37 = getelementptr inbounds %"class.xalanc_1_8::Stylesheet", ptr %0, i64 0, i32 8
  invoke void @_ZNSt5dequeIS_IN10xalanc_1_89NameSpaceESaIS1_EESaIS3_EE16_M_push_back_auxERKS3_(ptr noundef nonnull align 8 dereferenceable(80) %37, ptr noundef nonnull align 8 dereferenceable(80) %3)
          to label %152 unwind label %157

38:                                               ; preds = %2
  %39 = landingpad { ptr, i32 }
          cleanup
  br label %164

40:                                               ; preds = %13, %149
  %41 = phi i32 [ 0, %13 ], [ %150, %149 ]
  %42 = load ptr, ptr %1, align 8, !tbaa !20
  %43 = getelementptr inbounds ptr, ptr %42, i64 3
  %44 = load ptr, ptr %43, align 8
  %45 = invoke noundef ptr %44(ptr noundef nonnull align 8 dereferenceable(8) %1, i32 noundef %41)
          to label %46 unwind label %87

46:                                               ; preds = %40
  %47 = load ptr, ptr %1, align 8, !tbaa !20
  %48 = getelementptr inbounds ptr, ptr %47, i64 5
  %49 = load ptr, ptr %48, align 8
  %50 = invoke noundef ptr %49(ptr noundef nonnull align 8 dereferenceable(8) %1, i32 noundef %41)
          to label %51 unwind label %89

51:                                               ; preds = %46, %51
  %52 = phi ptr [ %55, %51 ], [ %45, %46 ]
  %53 = load i16, ptr %52, align 2, !tbaa !179
  %54 = icmp eq i16 %53, 0
  %55 = getelementptr inbounds i16, ptr %52, i64 1
  br i1 %54, label %56, label %51

56:                                               ; preds = %51
  %57 = ptrtoint ptr %52 to i64
  %58 = ptrtoint ptr %45 to i64
  %59 = sub i64 %57, %58
  %60 = lshr exact i64 %59, 1
  %61 = trunc i64 %60 to i32
  %62 = load ptr, ptr %14, align 8, !tbaa !22
  %63 = load ptr, ptr %15, align 8, !tbaa !22
  %64 = icmp eq ptr %62, %63
  %65 = select i1 %64, ptr @_ZN10xalanc_1_814XalanDOMString7s_emptyE, ptr %62
  %66 = load i32, ptr %16, align 8, !tbaa !116
  %67 = invoke noundef zeroext i1 @_ZN10xalanc_1_810startsWithEPKtjS1_j(ptr noundef %45, i32 noundef %61, ptr noundef %65, i32 noundef %66)
          to label %68 unwind label %91

68:                                               ; preds = %56
  %69 = load ptr, ptr %17, align 8, !tbaa !22
  %70 = load ptr, ptr %18, align 8, !tbaa !22
  %71 = icmp eq ptr %69, %70
  %72 = select i1 %71, ptr @_ZN10xalanc_1_814XalanDOMString7s_emptyE, ptr %69
  %73 = invoke noundef i32 @_ZN10xalanc_1_814XalanDOMString6lengthEPKt(ptr noundef %72)
          to label %74 unwind label %91

74:                                               ; preds = %68
  %75 = invoke noundef i32 @_ZN10xalanc_1_814XalanDOMString6lengthEPKt(ptr noundef %45)
          to label %76 unwind label %91

76:                                               ; preds = %74
  %77 = invoke noundef zeroext i1 @_ZN10xalanc_1_814XalanDOMString6equalsEPKtjS2_j(ptr noundef %72, i32 noundef %73, ptr noundef %45, i32 noundef %75)
          to label %78 unwind label %91

78:                                               ; preds = %76
  %79 = or i1 %67, %77
  br i1 %79, label %80, label %149

80:                                               ; preds = %78
  br i1 %67, label %93, label %81

81:                                               ; preds = %80
  %82 = load ptr, ptr %4, align 8, !tbaa !22
  %83 = load ptr, ptr %19, align 8, !tbaa !22
  %84 = icmp eq ptr %82, %83
  br i1 %84, label %86, label %85

85:                                               ; preds = %81
  store ptr %82, ptr %19, align 8, !tbaa !183
  br label %86

86:                                               ; preds = %81, %85
  store i32 0, ptr %20, align 8, !tbaa !116
  br label %96

87:                                               ; preds = %40
  %88 = landingpad { ptr, i32 }
          cleanup
  br label %159

89:                                               ; preds = %46
  %90 = landingpad { ptr, i32 }
          cleanup
  br label %159

91:                                               ; preds = %76, %74, %68, %56, %93
  %92 = landingpad { ptr, i32 }
          cleanup
  br label %159

93:                                               ; preds = %80
  %94 = load i32, ptr %21, align 4, !tbaa !184
  %95 = invoke noundef nonnull align 8 dereferenceable(28) ptr @_ZN10xalanc_1_89substringEPKtRNS_14XalanDOMStringEjj(ptr noundef %45, ptr noundef nonnull align 8 dereferenceable(28) %4, i32 noundef %94, i32 noundef -1)
          to label %96 unwind label %91

96:                                               ; preds = %86, %93
  call void @llvm.lifetime.start.p0(i64 64, ptr nonnull %5) #18
  call void @llvm.lifetime.start.p0(i64 32, ptr nonnull %6) #18
  invoke void @_ZN10xalanc_1_814XalanDOMStringC1EPKtj(ptr noundef nonnull align 8 dereferenceable(28) %6, ptr noundef %50, i32 noundef -1)
          to label %97 unwind label %134

97:                                               ; preds = %96
  invoke void @_ZN10xalanc_1_814XalanDOMStringC1ERKS0_jj(ptr noundef nonnull align 8 dereferenceable(28) %5, ptr noundef nonnull align 8 dereferenceable(28) %4, i32 noundef 0, i32 noundef -1)
          to label %98 unwind label %136

98:                                               ; preds = %97
  invoke void @_ZN10xalanc_1_814XalanDOMStringC1ERKS0_jj(ptr noundef nonnull align 8 dereferenceable(28) %22, ptr noundef nonnull align 8 dereferenceable(28) %6, i32 noundef 0, i32 noundef -1)
          to label %104 unwind label %99

99:                                               ; preds = %98
  %100 = landingpad { ptr, i32 }
          cleanup
  %101 = load ptr, ptr %5, align 8, !tbaa !15
  %102 = icmp eq ptr %101, null
  br i1 %102, label %142, label %103

103:                                              ; preds = %99
  call void @_ZdlPv(ptr noundef nonnull %101) #18
  br label %142

104:                                              ; preds = %98
  %105 = load ptr, ptr %23, align 8, !tbaa !185
  %106 = load ptr, ptr %24, align 8, !tbaa !186
  %107 = getelementptr inbounds %"class.xalanc_1_8::NameSpace", ptr %106, i64 -1
  %108 = icmp eq ptr %105, %107
  br i1 %108, label %120, label %109

109:                                              ; preds = %104
  invoke void @_ZN10xalanc_1_814XalanDOMStringC1ERKS0_jj(ptr noundef nonnull align 8 dereferenceable(28) %105, ptr noundef nonnull align 8 dereferenceable(28) %5, i32 noundef 0, i32 noundef -1)
          to label %110 unwind label %138

110:                                              ; preds = %109
  %111 = getelementptr inbounds %"class.xalanc_1_8::NameSpace", ptr %105, i64 0, i32 1
  invoke void @_ZN10xalanc_1_814XalanDOMStringC1ERKS0_jj(ptr noundef nonnull align 8 dereferenceable(28) %111, ptr noundef nonnull align 8 dereferenceable(28) %22, i32 noundef 0, i32 noundef -1)
          to label %117 unwind label %112

112:                                              ; preds = %110
  %113 = landingpad { ptr, i32 }
          cleanup
  %114 = load ptr, ptr %105, align 8, !tbaa !15
  %115 = icmp eq ptr %114, null
  br i1 %115, label %140, label %116

116:                                              ; preds = %112
  call void @_ZdlPv(ptr noundef nonnull %114) #18
  br label %140

117:                                              ; preds = %110
  %118 = load ptr, ptr %23, align 8, !tbaa !185
  %119 = getelementptr inbounds %"class.xalanc_1_8::NameSpace", ptr %118, i64 1
  store ptr %119, ptr %23, align 8, !tbaa !185
  br label %121

120:                                              ; preds = %104
  invoke void @_ZNSt5dequeIN10xalanc_1_89NameSpaceESaIS1_EE16_M_push_back_auxERKS1_(ptr noundef nonnull align 8 dereferenceable(80) %3, ptr noundef nonnull align 8 dereferenceable(64) %5)
          to label %121 unwind label %138

121:                                              ; preds = %117, %120
  %122 = load ptr, ptr %22, align 8, !tbaa !15
  %123 = icmp eq ptr %122, null
  br i1 %123, label %125, label %124

124:                                              ; preds = %121
  call void @_ZdlPv(ptr noundef nonnull %122) #18
  br label %125

125:                                              ; preds = %124, %121
  %126 = load ptr, ptr %5, align 8, !tbaa !15
  %127 = icmp eq ptr %126, null
  br i1 %127, label %129, label %128

128:                                              ; preds = %125
  call void @_ZdlPv(ptr noundef nonnull %126) #18
  br label %129

129:                                              ; preds = %128, %125
  %130 = load ptr, ptr %6, align 8, !tbaa !15
  %131 = icmp eq ptr %130, null
  br i1 %131, label %133, label %132

132:                                              ; preds = %129
  call void @_ZdlPv(ptr noundef nonnull %130) #18
  br label %133

133:                                              ; preds = %132, %129
  call void @llvm.lifetime.end.p0(i64 32, ptr nonnull %6) #18
  call void @llvm.lifetime.end.p0(i64 64, ptr nonnull %5) #18
  br label %149

134:                                              ; preds = %96
  %135 = landingpad { ptr, i32 }
          cleanup
  br label %147

136:                                              ; preds = %97
  %137 = landingpad { ptr, i32 }
          cleanup
  br label %142

138:                                              ; preds = %120, %109
  %139 = landingpad { ptr, i32 }
          cleanup
  br label %140

140:                                              ; preds = %112, %116, %138
  %141 = phi { ptr, i32 } [ %139, %138 ], [ %113, %116 ], [ %113, %112 ]
  invoke void @_ZN10xalanc_1_89NameSpaceD2Ev(ptr noundef nonnull align 8 dereferenceable(64) %5)
          to label %142 unwind label %167

142:                                              ; preds = %136, %103, %99, %140
  %143 = phi { ptr, i32 } [ %141, %140 ], [ %137, %136 ], [ %100, %103 ], [ %100, %99 ]
  %144 = load ptr, ptr %6, align 8, !tbaa !15
  %145 = icmp eq ptr %144, null
  br i1 %145, label %147, label %146

146:                                              ; preds = %142
  call void @_ZdlPv(ptr noundef nonnull %144) #18
  br label %147

147:                                              ; preds = %146, %142, %134
  %148 = phi { ptr, i32 } [ %135, %134 ], [ %143, %142 ], [ %143, %146 ]
  call void @llvm.lifetime.end.p0(i64 32, ptr nonnull %6) #18
  call void @llvm.lifetime.end.p0(i64 64, ptr nonnull %5) #18
  br label %159

149:                                              ; preds = %78, %133
  %150 = add nuw i32 %41, 1
  %151 = icmp eq i32 %150, %10
  br i1 %151, label %25, label %40

152:                                              ; preds = %33, %36
  %153 = load ptr, ptr %4, align 8, !tbaa !15
  %154 = icmp eq ptr %153, null
  br i1 %154, label %156, label %155

155:                                              ; preds = %152
  call void @_ZdlPv(ptr noundef nonnull %153) #18
  br label %156

156:                                              ; preds = %155, %152
  call void @llvm.lifetime.end.p0(i64 32, ptr nonnull %4) #18
  call void @_ZNSt5dequeIN10xalanc_1_89NameSpaceESaIS1_EED2Ev(ptr noundef nonnull align 8 dereferenceable(80) %3)
  call void @llvm.lifetime.end.p0(i64 80, ptr nonnull %3) #18
  ret void

157:                                              ; preds = %36, %32
  %158 = landingpad { ptr, i32 }
          cleanup
  br label %159

159:                                              ; preds = %87, %91, %147, %89, %157
  %160 = phi { ptr, i32 } [ %158, %157 ], [ %88, %87 ], [ %90, %89 ], [ %148, %147 ], [ %92, %91 ]
  %161 = load ptr, ptr %4, align 8, !tbaa !15
  %162 = icmp eq ptr %161, null
  br i1 %162, label %164, label %163

163:                                              ; preds = %159
  call void @_ZdlPv(ptr noundef nonnull %161) #18
  br label %164

164:                                              ; preds = %163, %159, %38
  %165 = phi { ptr, i32 } [ %39, %38 ], [ %160, %159 ], [ %160, %163 ]
  call void @llvm.lifetime.end.p0(i64 32, ptr nonnull %4) #18
  invoke void @_ZNSt5dequeIN10xalanc_1_89NameSpaceESaIS1_EED2Ev(ptr noundef nonnull align 8 dereferenceable(80) %3)
          to label %166 unwind label %167

166:                                              ; preds = %164
  call void @llvm.lifetime.end.p0(i64 80, ptr nonnull %3) #18
  resume { ptr, i32 } %165

167:                                              ; preds = %164, %140
  %168 = landingpad { ptr, i32 }
          catch ptr null
  %169 = extractvalue { ptr, i32 } %168, 0
  call void @__clang_call_terminate(ptr %169) #19
  unreachable
}

declare noundef nonnull align 8 dereferenceable(28) ptr @_ZN10xalanc_1_89substringEPKtRNS_14XalanDOMStringEjj(ptr noundef, ptr noundef nonnull align 8 dereferenceable(28), i32 noundef, i32 noundef) local_unnamed_addr #1

; Function Attrs: uwtable
define linkonce_odr dso_local void @_ZN10xalanc_1_89NameSpaceD2Ev(ptr noundef nonnull align 8 dereferenceable(64) %0) unnamed_addr #2 comdat align 2 personality ptr @__gxx_personality_v0 {
  %2 = getelementptr inbounds %"class.xalanc_1_8::NameSpace", ptr %0, i64 0, i32 1
  %3 = load ptr, ptr %2, align 8, !tbaa !15
  %4 = icmp eq ptr %3, null
  br i1 %4, label %6, label %5

5:                                                ; preds = %1
  tail call void @_ZdlPv(ptr noundef nonnull %3) #18
  br label %6

6:                                                ; preds = %5, %1
  %7 = load ptr, ptr %0, align 8, !tbaa !15
  %8 = icmp eq ptr %7, null
  br i1 %8, label %10, label %9

9:                                                ; preds = %6
  tail call void @_ZdlPv(ptr noundef nonnull %7) #18
  br label %10

10:                                               ; preds = %6, %9
  ret void
}

; Function Attrs: uwtable
define dso_local void @_ZN10xalanc_1_810Stylesheet20addWhitespaceElementERKNS_20XalanSpaceNodeTesterE(ptr noundef nonnull align 8 dereferenceable(1000) %0, ptr noundef nonnull align 8 dereferenceable(64) %1) local_unnamed_addr #2 align 2 {
  %3 = getelementptr inbounds %"class.xalanc_1_8::XalanSpaceNodeTester", ptr %1, i64 0, i32 1
  %4 = load i32, ptr %3, align 8, !tbaa !187
  %5 = getelementptr inbounds %"class.xalanc_1_8::Stylesheet", ptr %0, i64 0, i32 4
  %6 = load ptr, ptr %5, align 8, !tbaa !22
  %7 = getelementptr inbounds %"class.xalanc_1_8::Stylesheet", ptr %0, i64 0, i32 4, i32 0, i32 0, i32 0, i32 1
  %8 = load ptr, ptr %7, align 8, !tbaa !22
  %9 = icmp eq ptr %6, %8
  br i1 %9, label %18, label %10

10:                                               ; preds = %2, %15
  %11 = phi ptr [ %16, %15 ], [ %6, %2 ]
  %12 = getelementptr inbounds %"class.xalanc_1_8::XalanSpaceNodeTester", ptr %11, i64 0, i32 1
  %13 = load i32, ptr %12, align 8, !tbaa !187
  %14 = icmp slt i32 %4, %13
  br i1 %14, label %15, label %18

15:                                               ; preds = %10
  %16 = getelementptr inbounds %"class.xalanc_1_8::XalanSpaceNodeTester", ptr %11, i64 1
  %17 = icmp eq ptr %16, %8
  br i1 %17, label %18, label %10

18:                                               ; preds = %15, %10, %2
  %19 = phi ptr [ %6, %2 ], [ %11, %10 ], [ %8, %15 ]
  %20 = getelementptr inbounds %"class.xalanc_1_8::Stylesheet", ptr %0, i64 0, i32 4, i32 0, i32 0, i32 0, i32 2
  %21 = load ptr, ptr %20, align 8, !tbaa !192
  %22 = icmp eq ptr %8, %21
  br i1 %22, label %29, label %23

23:                                               ; preds = %18
  %24 = icmp eq ptr %8, %19
  br i1 %24, label %25, label %28

25:                                               ; preds = %23
  tail call void @_ZN10xalanc_1_820XalanSpaceNodeTesterC1ERKS0_(ptr noundef nonnull align 8 dereferenceable(64) %8, ptr noundef nonnull align 8 dereferenceable(64) %1)
  %26 = load ptr, ptr %7, align 8, !tbaa !165
  %27 = getelementptr inbounds %"class.xalanc_1_8::XalanSpaceNodeTester", ptr %26, i64 1
  store ptr %27, ptr %7, align 8, !tbaa !165
  br label %30

28:                                               ; preds = %23
  tail call void @_ZNSt6vectorIN10xalanc_1_820XalanSpaceNodeTesterESaIS1_EE13_M_insert_auxEN9__gnu_cxx17__normal_iteratorIPS1_S3_EERKS1_(ptr noundef nonnull align 8 dereferenceable(24) %5, ptr %19, ptr noundef nonnull align 8 dereferenceable(64) %1)
  br label %30

29:                                               ; preds = %18
  tail call void @_ZNSt6vectorIN10xalanc_1_820XalanSpaceNodeTesterESaIS1_EE17_M_realloc_insertEN9__gnu_cxx17__normal_iteratorIPS1_S3_EERKS1_(ptr noundef nonnull align 8 dereferenceable(24) %5, ptr %19, ptr noundef nonnull align 8 dereferenceable(64) %1)
  br label %30

30:                                               ; preds = %25, %28, %29
  ret void
}

; Function Attrs: mustprogress nocallback nofree nounwind willreturn memory(argmem: readwrite)
declare void @llvm.memcpy.p0.p0.i64(ptr noalias nocapture writeonly, ptr noalias nocapture readonly, i64, i1 immarg) #7

; Function Attrs: uwtable
define dso_local void @_ZN10xalanc_1_810Stylesheet16postConstructionERNS_29StylesheetConstructionContextE(ptr noundef nonnull align 8 dereferenceable(1000) %0, ptr noundef nonnull align 8 dereferenceable(8) %1) unnamed_addr #2 align 2 personality ptr @__gxx_personality_v0 {
  %3 = alloca %"class.xalanc_1_8::XalanDOMString", align 8
  %4 = getelementptr inbounds %"class.xalanc_1_8::Stylesheet", ptr %0, i64 0, i32 6
  %5 = getelementptr inbounds %"class.xalanc_1_8::Stylesheet", ptr %0, i64 0, i32 6, i32 0, i32 0, i32 0, i32 1
  %6 = load ptr, ptr %5, align 8, !tbaa !22
  %7 = load ptr, ptr %4, align 8, !tbaa !22
  %8 = ptrtoint ptr %6 to i64
  %9 = ptrtoint ptr %7 to i64
  %10 = sub i64 %8, %9
  %11 = ashr exact i64 %10, 3
  %12 = getelementptr inbounds %"class.xalanc_1_8::Stylesheet", ptr %0, i64 0, i32 7
  store i64 %11, ptr %12, align 8, !tbaa !193
  %13 = icmp eq ptr %6, %7
  br i1 %13, label %50, label %14

14:                                               ; preds = %2
  %15 = getelementptr inbounds %"class.xalanc_1_8::Stylesheet", ptr %0, i64 0, i32 31
  br label %16

16:                                               ; preds = %14, %16
  %17 = phi i64 [ 0, %14 ], [ %36, %16 ]
  %18 = phi i64 [ 0, %14 ], [ %45, %16 ]
  %19 = phi ptr [ %6, %14 ], [ %20, %16 ]
  %20 = getelementptr inbounds ptr, ptr %19, i64 -1
  %21 = load ptr, ptr %20, align 8, !tbaa !22
  %22 = load ptr, ptr %21, align 8, !tbaa !20
  %23 = getelementptr inbounds ptr, ptr %22, i64 4
  %24 = load ptr, ptr %23, align 8
  tail call void %24(ptr noundef nonnull align 8 dereferenceable(1000) %21, ptr noundef nonnull align 8 dereferenceable(8) %1)
  %25 = load ptr, ptr %20, align 8, !tbaa !22
  %26 = getelementptr inbounds %"class.xalanc_1_8::Stylesheet", ptr %25, i64 0, i32 31
  tail call void @_ZN10xalanc_1_817NamespacesHandler20copyNamespaceAliasesERKS0_(ptr noundef nonnull align 8 dereferenceable(120) %15, ptr noundef nonnull align 8 dereferenceable(120) %26)
  %27 = load ptr, ptr %20, align 8, !tbaa !22
  %28 = getelementptr inbounds %"class.xalanc_1_8::Stylesheet", ptr %27, i64 0, i32 3
  %29 = getelementptr inbounds %"class.xalanc_1_8::Stylesheet", ptr %27, i64 0, i32 3, i32 0, i32 0, i32 0, i32 1
  %30 = load ptr, ptr %29, align 8, !tbaa !178
  %31 = load ptr, ptr %28, align 8, !tbaa !123
  %32 = ptrtoint ptr %30 to i64
  %33 = ptrtoint ptr %31 to i64
  %34 = sub i64 %32, %33
  %35 = sdiv exact i64 %34, 48
  %36 = add i64 %35, %17
  %37 = getelementptr inbounds %"class.xalanc_1_8::Stylesheet", ptr %27, i64 0, i32 4
  %38 = getelementptr inbounds %"class.xalanc_1_8::Stylesheet", ptr %27, i64 0, i32 4, i32 0, i32 0, i32 0, i32 1
  %39 = load ptr, ptr %38, align 8, !tbaa !165
  %40 = load ptr, ptr %37, align 8, !tbaa !164
  %41 = ptrtoint ptr %39 to i64
  %42 = ptrtoint ptr %40 to i64
  %43 = sub i64 %41, %42
  %44 = ashr exact i64 %43, 6
  %45 = add i64 %44, %18
  %46 = icmp eq ptr %20, %7
  br i1 %46, label %47, label %16

47:                                               ; preds = %16
  %48 = load ptr, ptr %5, align 8, !tbaa !22
  %49 = load ptr, ptr %4, align 8, !tbaa !22
  br label %50

50:                                               ; preds = %47, %2
  %51 = phi ptr [ %6, %2 ], [ %49, %47 ]
  %52 = phi ptr [ %6, %2 ], [ %48, %47 ]
  %53 = phi i64 [ 0, %2 ], [ %45, %47 ]
  %54 = phi i64 [ 0, %2 ], [ %36, %47 ]
  %55 = getelementptr inbounds %"class.xalanc_1_8::Stylesheet", ptr %0, i64 0, i32 3
  %56 = getelementptr inbounds %"class.xalanc_1_8::Stylesheet", ptr %0, i64 0, i32 3, i32 0, i32 0, i32 0, i32 1
  %57 = load ptr, ptr %56, align 8, !tbaa !178
  %58 = load ptr, ptr %55, align 8, !tbaa !123
  %59 = ptrtoint ptr %57 to i64
  %60 = ptrtoint ptr %58 to i64
  %61 = sub i64 %59, %60
  %62 = sdiv exact i64 %61, 48
  %63 = add i64 %62, %54
  %64 = icmp ugt i64 %63, 192153584101141162
  br i1 %64, label %65, label %66

65:                                               ; preds = %50
  tail call void @_ZSt20__throw_length_errorPKc(ptr noundef nonnull @.str.6) #22
  unreachable

66:                                               ; preds = %50
  %67 = getelementptr inbounds %"class.xalanc_1_8::Stylesheet", ptr %0, i64 0, i32 3, i32 0, i32 0, i32 0, i32 2
  %68 = load ptr, ptr %67, align 8, !tbaa !177
  %69 = ptrtoint ptr %68 to i64
  %70 = sub i64 %69, %60
  %71 = sdiv exact i64 %70, 48
  %72 = icmp ult i64 %71, %63
  br i1 %72, label %73, label %97

73:                                               ; preds = %66
  %74 = mul nuw nsw i64 %63, 48
  %75 = tail call noalias noundef nonnull ptr @_Znwm(i64 noundef %74) #23
  %76 = icmp eq ptr %58, %57
  br i1 %76, label %90, label %77

77:                                               ; preds = %73, %77
  %78 = phi ptr [ %88, %77 ], [ %75, %73 ]
  %79 = phi ptr [ %87, %77 ], [ %58, %73 ]
  %80 = load ptr, ptr %79, align 8, !tbaa !170
  store ptr %80, ptr %78, align 8, !tbaa !170
  %81 = getelementptr inbounds %"class.xalanc_1_8::KeyDeclaration", ptr %78, i64 0, i32 1
  %82 = getelementptr inbounds %"class.xalanc_1_8::KeyDeclaration", ptr %79, i64 0, i32 1
  %83 = load ptr, ptr %82, align 8, !tbaa !172
  store ptr %83, ptr %81, align 8, !tbaa !172
  %84 = getelementptr inbounds %"class.xalanc_1_8::KeyDeclaration", ptr %78, i64 0, i32 2
  %85 = getelementptr inbounds %"class.xalanc_1_8::KeyDeclaration", ptr %79, i64 0, i32 2
  %86 = load ptr, ptr %85, align 8, !tbaa !173
  store ptr %86, ptr %84, align 8, !tbaa !173
  %87 = getelementptr inbounds %"class.xalanc_1_8::KeyDeclaration", ptr %79, i64 1
  %88 = getelementptr inbounds %"class.xalanc_1_8::KeyDeclaration", ptr %78, i64 1
  %89 = icmp eq ptr %87, %57
  br i1 %89, label %90, label %77

90:                                               ; preds = %77, %73
  %91 = load ptr, ptr %55, align 8, !tbaa !123
  %92 = icmp eq ptr %91, null
  br i1 %92, label %94, label %93

93:                                               ; preds = %90
  tail call void @_ZdlPv(ptr noundef nonnull %91) #18
  br label %94

94:                                               ; preds = %93, %90
  store ptr %75, ptr %55, align 8, !tbaa !123
  %95 = getelementptr inbounds %"class.xalanc_1_8::KeyDeclaration", ptr %75, i64 %62
  store ptr %95, ptr %56, align 8, !tbaa !178
  %96 = getelementptr inbounds %"class.xalanc_1_8::KeyDeclaration", ptr %75, i64 %63
  store ptr %96, ptr %67, align 8, !tbaa !177
  br label %97

97:                                               ; preds = %66, %94
  %98 = getelementptr inbounds %"class.xalanc_1_8::Stylesheet", ptr %0, i64 0, i32 4
  %99 = getelementptr inbounds %"class.xalanc_1_8::Stylesheet", ptr %0, i64 0, i32 4, i32 0, i32 0, i32 0, i32 1
  %100 = load ptr, ptr %99, align 8, !tbaa !165
  %101 = load ptr, ptr %98, align 8, !tbaa !164
  %102 = ptrtoint ptr %100 to i64
  %103 = ptrtoint ptr %101 to i64
  %104 = sub i64 %102, %103
  %105 = ashr exact i64 %104, 6
  %106 = add i64 %105, %53
  %107 = icmp ugt i64 %106, 144115188075855871
  br i1 %107, label %108, label %109

108:                                              ; preds = %97
  tail call void @_ZSt20__throw_length_errorPKc(ptr noundef nonnull @.str.6) #22
  unreachable

109:                                              ; preds = %97
  %110 = getelementptr inbounds %"class.xalanc_1_8::Stylesheet", ptr %0, i64 0, i32 4, i32 0, i32 0, i32 0, i32 2
  %111 = load ptr, ptr %110, align 8, !tbaa !192
  %112 = ptrtoint ptr %111 to i64
  %113 = sub i64 %112, %103
  %114 = ashr exact i64 %113, 6
  %115 = icmp ult i64 %114, %106
  br i1 %115, label %116, label %134

116:                                              ; preds = %109
  %117 = tail call noundef ptr @_ZNSt6vectorIN10xalanc_1_820XalanSpaceNodeTesterESaIS1_EE20_M_allocate_and_copyIPS1_EES5_mT_S6_(ptr noundef nonnull align 8 dereferenceable(24) %98, i64 noundef %106, ptr noundef %101, ptr noundef %100)
  %118 = load ptr, ptr %98, align 8, !tbaa !164
  %119 = load ptr, ptr %99, align 8, !tbaa !165
  %120 = icmp eq ptr %118, %119
  br i1 %120, label %127, label %121

121:                                              ; preds = %116, %121
  %122 = phi ptr [ %123, %121 ], [ %118, %116 ]
  tail call void @_ZN10xalanc_1_820XalanSpaceNodeTesterD1Ev(ptr noundef nonnull align 8 dereferenceable(64) %122)
  %123 = getelementptr inbounds %"class.xalanc_1_8::XalanSpaceNodeTester", ptr %122, i64 1
  %124 = icmp eq ptr %123, %119
  br i1 %124, label %125, label %121

125:                                              ; preds = %121
  %126 = load ptr, ptr %98, align 8, !tbaa !164
  br label %127

127:                                              ; preds = %125, %116
  %128 = phi ptr [ %126, %125 ], [ %118, %116 ]
  %129 = icmp eq ptr %128, null
  br i1 %129, label %131, label %130

130:                                              ; preds = %127
  tail call void @_ZdlPv(ptr noundef nonnull %128) #18
  br label %131

131:                                              ; preds = %130, %127
  store ptr %117, ptr %98, align 8, !tbaa !164
  %132 = getelementptr inbounds %"class.xalanc_1_8::XalanSpaceNodeTester", ptr %117, i64 %105
  store ptr %132, ptr %99, align 8, !tbaa !165
  %133 = getelementptr inbounds %"class.xalanc_1_8::XalanSpaceNodeTester", ptr %117, i64 %106
  store ptr %133, ptr %110, align 8, !tbaa !192
  br label %134

134:                                              ; preds = %109, %131
  %135 = icmp eq ptr %51, %52
  br i1 %135, label %179, label %136

136:                                              ; preds = %134, %176
  %137 = phi ptr [ %177, %176 ], [ %51, %134 ]
  %138 = load ptr, ptr %56, align 8, !tbaa !22
  %139 = load ptr, ptr %137, align 8, !tbaa !22
  %140 = getelementptr inbounds %"class.xalanc_1_8::Stylesheet", ptr %139, i64 0, i32 3
  %141 = load ptr, ptr %140, align 8, !tbaa !22
  %142 = getelementptr inbounds %"class.xalanc_1_8::Stylesheet", ptr %139, i64 0, i32 3, i32 0, i32 0, i32 0, i32 1
  %143 = load ptr, ptr %142, align 8, !tbaa !22
  tail call void @_ZNSt6vectorIN10xalanc_1_814KeyDeclarationESaIS1_EE15_M_range_insertIN9__gnu_cxx17__normal_iteratorIPS1_S3_EEEEvS8_T_S9_St20forward_iterator_tag(ptr noundef nonnull align 8 dereferenceable(24) %55, ptr %138, ptr %141, ptr %143)
  %144 = load ptr, ptr %137, align 8, !tbaa !22
  %145 = getelementptr inbounds %"class.xalanc_1_8::Stylesheet", ptr %144, i64 0, i32 3
  %146 = load ptr, ptr %145, align 8, !tbaa !123
  %147 = icmp eq ptr %146, null
  tail call void @llvm.memset.p0.i64(ptr noundef nonnull align 8 dereferenceable(24) %145, i8 0, i64 24, i1 false)
  br i1 %147, label %149, label %148

148:                                              ; preds = %136
  tail call void @_ZdlPv(ptr noundef nonnull %146) #18
  br label %149

149:                                              ; preds = %148, %136
  %150 = load ptr, ptr %99, align 8, !tbaa !22
  %151 = load ptr, ptr %137, align 8, !tbaa !22
  %152 = getelementptr inbounds %"class.xalanc_1_8::Stylesheet", ptr %151, i64 0, i32 4
  %153 = load ptr, ptr %152, align 8, !tbaa !22
  %154 = getelementptr inbounds %"class.xalanc_1_8::Stylesheet", ptr %151, i64 0, i32 4, i32 0, i32 0, i32 0, i32 1
  %155 = load ptr, ptr %154, align 8, !tbaa !22
  tail call void @_ZNSt6vectorIN10xalanc_1_820XalanSpaceNodeTesterESaIS1_EE15_M_range_insertIN9__gnu_cxx17__normal_iteratorIPS1_S3_EEEEvS8_T_S9_St20forward_iterator_tag(ptr noundef nonnull align 8 dereferenceable(24) %98, ptr %150, ptr %153, ptr %155)
  %156 = load ptr, ptr %137, align 8, !tbaa !22
  %157 = getelementptr inbounds %"class.xalanc_1_8::Stylesheet", ptr %156, i64 0, i32 4
  %158 = load ptr, ptr %157, align 8, !tbaa !164
  %159 = getelementptr inbounds %"class.xalanc_1_8::Stylesheet", ptr %156, i64 0, i32 4, i32 0, i32 0, i32 0, i32 1
  %160 = load ptr, ptr %159, align 8, !tbaa !165
  %161 = icmp eq ptr %158, %160
  tail call void @llvm.memset.p0.i64(ptr noundef nonnull align 8 dereferenceable(24) %157, i8 0, i64 24, i1 false)
  br i1 %161, label %167, label %162

162:                                              ; preds = %149, %164
  %163 = phi ptr [ %165, %164 ], [ %158, %149 ]
  invoke void @_ZN10xalanc_1_820XalanSpaceNodeTesterD1Ev(ptr noundef nonnull align 8 dereferenceable(64) %163)
          to label %164 unwind label %170

164:                                              ; preds = %162
  %165 = getelementptr inbounds %"class.xalanc_1_8::XalanSpaceNodeTester", ptr %163, i64 1
  %166 = icmp eq ptr %165, %160
  br i1 %166, label %167, label %162

167:                                              ; preds = %164, %149
  %168 = icmp eq ptr %158, null
  br i1 %168, label %176, label %169

169:                                              ; preds = %167
  tail call void @_ZdlPv(ptr noundef nonnull %158) #18
  br label %176

170:                                              ; preds = %162
  %171 = landingpad { ptr, i32 }
          cleanup
  %172 = icmp eq ptr %158, null
  br i1 %172, label %174, label %173

173:                                              ; preds = %170
  tail call void @_ZdlPv(ptr noundef nonnull %158) #18
  br label %174

174:                                              ; preds = %170, %173, %200
  %175 = phi { ptr, i32 } [ %196, %200 ], [ %171, %173 ], [ %171, %170 ]
  resume { ptr, i32 } %175

176:                                              ; preds = %167, %169
  %177 = getelementptr inbounds ptr, ptr %137, i64 1
  %178 = icmp eq ptr %177, %52
  br i1 %178, label %179, label %136

179:                                              ; preds = %176, %134
  %180 = getelementptr inbounds %"class.xalanc_1_8::Stylesheet", ptr %0, i64 0, i32 31
  call void @llvm.lifetime.start.p0(i64 32, ptr nonnull %3) #18
  call void @_ZN10xalanc_1_814XalanDOMStringC1Ev(ptr noundef nonnull align 8 dereferenceable(28) %3)
  invoke void @_ZN10xalanc_1_817NamespacesHandler16postConstructionERNS_29StylesheetConstructionContextEbRKNS_14XalanDOMStringEPKS0_PKNS0_13PrefixCheckerE(ptr noundef nonnull align 8 dereferenceable(120) %180, ptr noundef nonnull align 8 dereferenceable(8) %1, i1 noundef zeroext true, ptr noundef nonnull align 8 dereferenceable(28) %3, ptr noundef null, ptr noundef null)
          to label %181 unwind label %195

181:                                              ; preds = %179
  %182 = load ptr, ptr %3, align 8, !tbaa !15
  %183 = icmp eq ptr %182, null
  br i1 %183, label %185, label %184

184:                                              ; preds = %181
  call void @_ZdlPv(ptr noundef nonnull %182) #18
  br label %185

185:                                              ; preds = %181, %184
  call void @llvm.lifetime.end.p0(i64 32, ptr nonnull %3) #18
  %186 = getelementptr inbounds %"class.xalanc_1_8::Stylesheet", ptr %0, i64 0, i32 12
  %187 = load ptr, ptr %186, align 8, !tbaa !194
  %188 = icmp eq ptr %187, null
  br i1 %188, label %189, label %201

189:                                              ; preds = %201, %185
  %190 = getelementptr inbounds %"class.xalanc_1_8::Stylesheet", ptr %0, i64 0, i32 15
  %191 = load ptr, ptr %190, align 8, !tbaa !22
  %192 = getelementptr inbounds %"class.xalanc_1_8::Stylesheet", ptr %0, i64 0, i32 15, i32 0, i32 0, i32 0, i32 1
  %193 = load ptr, ptr %192, align 8, !tbaa !22
  %194 = icmp eq ptr %191, %193
  br i1 %194, label %211, label %245

195:                                              ; preds = %179
  %196 = landingpad { ptr, i32 }
          cleanup
  %197 = load ptr, ptr %3, align 8, !tbaa !15
  %198 = icmp eq ptr %197, null
  br i1 %198, label %200, label %199

199:                                              ; preds = %195
  call void @_ZdlPv(ptr noundef nonnull %197) #18
  br label %200

200:                                              ; preds = %199, %195
  call void @llvm.lifetime.end.p0(i64 32, ptr nonnull %3) #18
  br label %174

201:                                              ; preds = %185, %201
  %202 = phi ptr [ %209, %201 ], [ %187, %185 ]
  %203 = load ptr, ptr %202, align 8, !tbaa !20
  %204 = getelementptr inbounds ptr, ptr %203, i64 15
  %205 = load ptr, ptr %204, align 8
  call void %205(ptr noundef nonnull align 8 dereferenceable(210) %202, ptr noundef nonnull align 8 dereferenceable(8) %1, ptr noundef nonnull align 8 dereferenceable(120) %180)
  %206 = load ptr, ptr %202, align 8, !tbaa !20
  %207 = getelementptr inbounds ptr, ptr %206, i64 19
  %208 = load ptr, ptr %207, align 8
  %209 = call noundef ptr %208(ptr noundef nonnull align 8 dereferenceable(210) %202)
  %210 = icmp eq ptr %209, null
  br i1 %210, label %189, label %201

211:                                              ; preds = %245, %189
  %212 = getelementptr inbounds %"class.xalanc_1_8::Stylesheet", ptr %0, i64 0, i32 17
  %213 = getelementptr inbounds %"class.xalanc_1_8::Stylesheet", ptr %0, i64 0, i32 19
  call fastcc void @_ZN10xalanc_1_8L10addToTableERSt3mapINS_14XalanDOMStringESt6vectorIPKNS_10Stylesheet13MatchPattern2ESaIS6_EESt4lessIS1_ESaISt4pairIKS1_S8_EEERKS8_(ptr noundef nonnull align 8 dereferenceable(48) %212, ptr noundef nonnull align 8 dereferenceable(24) %213)
  %214 = getelementptr inbounds %"class.xalanc_1_8::Stylesheet", ptr %0, i64 0, i32 20
  %215 = getelementptr inbounds %"class.xalanc_1_8::Stylesheet", ptr %0, i64 0, i32 22
  call fastcc void @_ZN10xalanc_1_8L10addToTableERSt3mapINS_14XalanDOMStringESt6vectorIPKNS_10Stylesheet13MatchPattern2ESaIS6_EESt4lessIS1_ESaISt4pairIKS1_S8_EEERKS8_(ptr noundef nonnull align 8 dereferenceable(48) %214, ptr noundef nonnull align 8 dereferenceable(24) %215)
  %216 = getelementptr inbounds %"class.xalanc_1_8::Stylesheet", ptr %0, i64 0, i32 28, i32 0, i32 0, i32 3
  %217 = getelementptr inbounds %"class.xalanc_1_8::Stylesheet", ptr %0, i64 0, i32 28, i32 0, i32 0, i32 2
  %218 = getelementptr inbounds %"class.xalanc_1_8::Stylesheet", ptr %0, i64 0, i32 28, i32 0, i32 0, i32 3, i32 3
  %219 = load ptr, ptr %218, align 8, !tbaa !130
  %220 = getelementptr inbounds %"class.xalanc_1_8::Stylesheet", ptr %0, i64 0, i32 28, i32 0, i32 0, i32 2, i32 3
  %221 = load ptr, ptr %220, align 8, !tbaa !130
  %222 = ptrtoint ptr %219 to i64
  %223 = ptrtoint ptr %221 to i64
  %224 = sub i64 %222, %223
  %225 = ashr exact i64 %224, 3
  %226 = mul nsw i64 %225, 7
  %227 = add nsw i64 %226, -7
  %228 = load ptr, ptr %216, align 8, !tbaa !124
  %229 = getelementptr inbounds %"class.xalanc_1_8::Stylesheet", ptr %0, i64 0, i32 28, i32 0, i32 0, i32 3, i32 1
  %230 = load ptr, ptr %229, align 8, !tbaa !128
  %231 = ptrtoint ptr %228 to i64
  %232 = ptrtoint ptr %230 to i64
  %233 = sub i64 %231, %232
  %234 = sdiv exact i64 %233, 72
  %235 = add nsw i64 %227, %234
  %236 = getelementptr inbounds %"class.xalanc_1_8::Stylesheet", ptr %0, i64 0, i32 28, i32 0, i32 0, i32 2, i32 2
  %237 = load ptr, ptr %236, align 8, !tbaa !129
  %238 = load ptr, ptr %217, align 8, !tbaa !124
  %239 = ptrtoint ptr %237 to i64
  %240 = ptrtoint ptr %238 to i64
  %241 = sub i64 %239, %240
  %242 = sdiv exact i64 %241, 72
  %243 = add nsw i64 %235, %242
  %244 = getelementptr inbounds %"class.xalanc_1_8::Stylesheet", ptr %0, i64 0, i32 29
  store i64 %243, ptr %244, align 8, !tbaa !195
  ret void

245:                                              ; preds = %189, %245
  %246 = phi ptr [ %251, %245 ], [ %191, %189 ]
  %247 = load ptr, ptr %246, align 8, !tbaa !22
  %248 = load ptr, ptr %247, align 8, !tbaa !20
  %249 = getelementptr inbounds ptr, ptr %248, i64 15
  %250 = load ptr, ptr %249, align 8
  call void %250(ptr noundef nonnull align 8 dereferenceable(210) %247, ptr noundef nonnull align 8 dereferenceable(8) %1, ptr noundef nonnull align 8 dereferenceable(120) %180)
  %251 = getelementptr inbounds ptr, ptr %246, i64 1
  %252 = load ptr, ptr %192, align 8, !tbaa !22
  %253 = icmp eq ptr %251, %252
  br i1 %253, label %211, label %245
}

declare void @_ZN10xalanc_1_817NamespacesHandler20copyNamespaceAliasesERKS0_(ptr noundef nonnull align 8 dereferenceable(120), ptr noundef nonnull align 8 dereferenceable(120)) local_unnamed_addr #1

declare void @_ZN10xalanc_1_817NamespacesHandler16postConstructionERNS_29StylesheetConstructionContextEbRKNS_14XalanDOMStringEPKS0_PKNS0_13PrefixCheckerE(ptr noundef nonnull align 8 dereferenceable(120), ptr noundef nonnull align 8 dereferenceable(8), i1 noundef zeroext, ptr noundef nonnull align 8 dereferenceable(28), ptr noundef, ptr noundef) local_unnamed_addr #1

; Function Attrs: uwtable
define internal fastcc void @_ZN10xalanc_1_8L10addToTableERSt3mapINS_14XalanDOMStringESt6vectorIPKNS_10Stylesheet13MatchPattern2ESaIS6_EESt4lessIS1_ESaISt4pairIKS1_S8_EEERKS8_(ptr noundef nonnull readonly align 8 dereferenceable(48) %0, ptr nocapture noundef nonnull readonly align 8 dereferenceable(24) %1) unnamed_addr #2 personality ptr @__gxx_personality_v0 {
  %3 = getelementptr inbounds i8, ptr %0, i64 24
  %4 = load ptr, ptr %3, align 8, !tbaa !111
  %5 = getelementptr inbounds i8, ptr %0, i64 8
  %6 = getelementptr inbounds %"struct.std::_Vector_base<const xalanc_1_8::Stylesheet::MatchPattern2 *, std::allocator<const xalanc_1_8::Stylesheet::MatchPattern2 *> >::_Vector_impl_data", ptr %1, i64 0, i32 1
  %7 = load ptr, ptr %6, align 8, !tbaa !22
  %8 = icmp eq ptr %4, %5
  br i1 %8, label %159, label %9

9:                                                ; preds = %2
  %10 = load double, ptr @_ZN10xalanc_1_813DoubleSupport18s_negativeInfinityE, align 8
  %11 = load ptr, ptr %1, align 8, !tbaa !22
  %12 = icmp eq ptr %11, %7
  br i1 %12, label %13, label %17

13:                                               ; preds = %9, %13
  %14 = phi ptr [ %15, %13 ], [ %4, %9 ]
  %15 = tail call noundef ptr @_ZSt18_Rb_tree_incrementPSt18_Rb_tree_node_base(ptr noundef %14) #20
  %16 = icmp eq ptr %15, %5
  br i1 %16, label %159, label %13

17:                                               ; preds = %9, %156
  %18 = phi ptr [ %157, %156 ], [ %4, %9 ]
  %19 = load ptr, ptr %1, align 8, !tbaa !22
  %20 = icmp eq ptr %19, %7
  br i1 %20, label %156, label %21

21:                                               ; preds = %17
  %22 = getelementptr inbounds %"struct.std::_Rb_tree_node", ptr %18, i64 0, i32 1, i32 1
  %23 = getelementptr inbounds %"struct.std::_Rb_tree_node", ptr %18, i64 0, i32 1, i32 1, i32 0, i32 0, i32 0, i32 1
  %24 = getelementptr inbounds %"struct.std::_Rb_tree_node", ptr %18, i64 0, i32 1, i32 1, i32 0, i32 0, i32 0, i32 2
  br label %25

25:                                               ; preds = %21, %153
  %26 = phi ptr [ %19, %21 ], [ %154, %153 ]
  %27 = load ptr, ptr %26, align 8, !tbaa !22
  %28 = load ptr, ptr %27, align 8, !tbaa !196
  %29 = getelementptr inbounds %"class.xalanc_1_8::ElemTemplate", ptr %28, i64 0, i32 4
  %30 = load double, ptr %29, align 8, !tbaa !198
  %31 = load i32, ptr @_ZN10xalanc_1_813DoubleSupport5s_NaNE, align 8, !tbaa !204
  %32 = bitcast double %30 to i64
  %33 = trunc i64 %32 to i32
  %34 = icmp ne i32 %31, %33
  %35 = load i32, ptr getelementptr inbounds (%struct.anon, ptr @_ZN10xalanc_1_813DoubleSupport5s_NaNE, i64 0, i32 1), align 4
  %36 = lshr i64 %32, 32
  %37 = trunc i64 %36 to i32
  %38 = icmp ne i32 %35, %37
  %39 = select i1 %34, i1 true, i1 %38
  %40 = fcmp reassoc nnan ninf nsz arcp afn oeq double %10, %30
  %41 = select i1 %39, i1 %40, i1 false
  br i1 %41, label %42, label %50

42:                                               ; preds = %25
  %43 = getelementptr inbounds %"class.xalanc_1_8::Stylesheet::MatchPattern2", ptr %27, i64 0, i32 5
  %44 = load i32, ptr %43, align 8, !tbaa !205
  switch i32 %44, label %49 [
    i32 0, label %45
    i32 1, label %50
    i32 2, label %46
    i32 4, label %47
    i32 3, label %48
  ]

45:                                               ; preds = %42
  br label %50

46:                                               ; preds = %42
  br label %50

47:                                               ; preds = %42
  br label %50

48:                                               ; preds = %42
  br label %50

49:                                               ; preds = %42
  br label %50

50:                                               ; preds = %49, %48, %47, %46, %45, %42, %25
  %51 = phi double [ %30, %25 ], [ 0.000000e+00, %49 ], [ 0.000000e+00, %48 ], [ 5.000000e-01, %47 ], [ -2.500000e-01, %46 ], [ %10, %45 ], [ -5.000000e-01, %42 ]
  %52 = getelementptr inbounds %"class.xalanc_1_8::Stylesheet::MatchPattern2", ptr %27, i64 0, i32 1
  %53 = load i64, ptr %52, align 8, !tbaa !206
  %54 = load ptr, ptr %22, align 8, !tbaa !22
  %55 = load ptr, ptr %23, align 8, !tbaa !22
  %56 = icmp eq ptr %54, %55
  br i1 %56, label %92, label %57

57:                                               ; preds = %50, %89
  %58 = phi ptr [ %90, %89 ], [ %54, %50 ]
  %59 = load ptr, ptr %58, align 8, !tbaa !22
  %60 = load ptr, ptr %59, align 8, !tbaa !196
  %61 = getelementptr inbounds %"class.xalanc_1_8::ElemTemplate", ptr %60, i64 0, i32 4
  %62 = load double, ptr %61, align 8, !tbaa !198
  %63 = bitcast double %62 to i64
  %64 = trunc i64 %63 to i32
  %65 = icmp ne i32 %31, %64
  %66 = lshr i64 %63, 32
  %67 = trunc i64 %66 to i32
  %68 = icmp ne i32 %35, %67
  %69 = select i1 %65, i1 true, i1 %68
  %70 = fcmp reassoc nnan ninf nsz arcp afn oeq double %10, %62
  %71 = select i1 %69, i1 %70, i1 false
  br i1 %71, label %72, label %80

72:                                               ; preds = %57
  %73 = getelementptr inbounds %"class.xalanc_1_8::Stylesheet::MatchPattern2", ptr %59, i64 0, i32 5
  %74 = load i32, ptr %73, align 8, !tbaa !205
  switch i32 %74, label %79 [
    i32 0, label %75
    i32 1, label %80
    i32 2, label %76
    i32 4, label %77
    i32 3, label %78
  ]

75:                                               ; preds = %72
  br label %80

76:                                               ; preds = %72
  br label %80

77:                                               ; preds = %72
  br label %80

78:                                               ; preds = %72
  br label %80

79:                                               ; preds = %72
  br label %80

80:                                               ; preds = %79, %78, %77, %76, %75, %72, %57
  %81 = phi double [ %62, %57 ], [ 0.000000e+00, %79 ], [ 0.000000e+00, %78 ], [ 5.000000e-01, %77 ], [ -2.500000e-01, %76 ], [ %10, %75 ], [ -5.000000e-01, %72 ]
  %82 = fcmp reassoc nnan ninf nsz arcp afn ogt double %51, %81
  br i1 %82, label %92, label %83

83:                                               ; preds = %80
  %84 = fcmp reassoc nnan ninf nsz arcp afn oeq double %51, %81
  br i1 %84, label %85, label %89

85:                                               ; preds = %83
  %86 = getelementptr inbounds %"class.xalanc_1_8::Stylesheet::MatchPattern2", ptr %59, i64 0, i32 1
  %87 = load i64, ptr %86, align 8, !tbaa !206
  %88 = icmp ugt i64 %53, %87
  br i1 %88, label %92, label %89

89:                                               ; preds = %85, %83
  %90 = getelementptr inbounds ptr, ptr %58, i64 1
  %91 = icmp eq ptr %90, %55
  br i1 %91, label %92, label %57

92:                                               ; preds = %80, %85, %89, %50
  %93 = phi ptr [ %54, %50 ], [ %55, %89 ], [ %58, %80 ], [ %58, %85 ]
  %94 = ptrtoint ptr %93 to i64
  %95 = ptrtoint ptr %54 to i64
  %96 = sub i64 %94, %95
  %97 = ashr exact i64 %96, 3
  %98 = load ptr, ptr %24, align 8, !tbaa !207
  %99 = icmp eq ptr %55, %98
  br i1 %99, label %119, label %100

100:                                              ; preds = %92
  %101 = icmp eq ptr %55, %93
  br i1 %101, label %102, label %105

102:                                              ; preds = %100
  store ptr %27, ptr %55, align 8, !tbaa !22
  %103 = load ptr, ptr %23, align 8, !tbaa !208
  %104 = getelementptr inbounds ptr, ptr %103, i64 1
  store ptr %104, ptr %23, align 8, !tbaa !208
  br label %153

105:                                              ; preds = %100
  %106 = getelementptr inbounds ptr, ptr %55, i64 -1
  %107 = load ptr, ptr %106, align 8, !tbaa !22
  store ptr %107, ptr %55, align 8, !tbaa !22
  %108 = load ptr, ptr %23, align 8, !tbaa !208
  %109 = getelementptr inbounds ptr, ptr %108, i64 1
  store ptr %109, ptr %23, align 8, !tbaa !208
  %110 = getelementptr inbounds ptr, ptr %108, i64 -1
  %111 = icmp eq ptr %110, %93
  br i1 %111, label %118, label %112

112:                                              ; preds = %105
  %113 = ptrtoint ptr %110 to i64
  %114 = sub i64 %113, %94
  %115 = ashr exact i64 %114, 3
  %116 = sub nsw i64 0, %115
  %117 = getelementptr inbounds ptr, ptr %108, i64 %116
  tail call void @llvm.memmove.p0.p0.i64(ptr nonnull align 8 %117, ptr align 8 %93, i64 %114, i1 false)
  br label %118

118:                                              ; preds = %112, %105
  store ptr %27, ptr %93, align 8, !tbaa !22
  br label %153

119:                                              ; preds = %92
  %120 = ptrtoint ptr %55 to i64
  %121 = sub i64 %120, %95
  %122 = icmp eq i64 %121, 9223372036854775800
  br i1 %122, label %123, label %124

123:                                              ; preds = %119
  tail call void @_ZSt20__throw_length_errorPKc(ptr noundef nonnull @.str.4) #22
  unreachable

124:                                              ; preds = %119
  %125 = ashr exact i64 %121, 3
  %126 = tail call i64 @llvm.umax.i64(i64 %125, i64 1)
  %127 = add i64 %126, %125
  %128 = icmp ult i64 %127, %125
  %129 = icmp ugt i64 %127, 1152921504606846975
  %130 = or i1 %128, %129
  %131 = select i1 %130, i64 1152921504606846975, i64 %127
  %132 = icmp eq i64 %131, 0
  br i1 %132, label %136, label %133

133:                                              ; preds = %124
  %134 = shl nuw nsw i64 %131, 3
  %135 = tail call noalias noundef nonnull ptr @_Znwm(i64 noundef %134) #23
  br label %136

136:                                              ; preds = %133, %124
  %137 = phi ptr [ %135, %133 ], [ null, %124 ]
  %138 = getelementptr inbounds ptr, ptr %137, i64 %97
  store ptr %27, ptr %138, align 8, !tbaa !22
  %139 = icmp eq ptr %54, %93
  br i1 %139, label %141, label %140

140:                                              ; preds = %136
  tail call void @llvm.memmove.p0.p0.i64(ptr nonnull align 8 %137, ptr align 8 %54, i64 %96, i1 false)
  br label %141

141:                                              ; preds = %140, %136
  %142 = getelementptr inbounds ptr, ptr %138, i64 1
  %143 = sub i64 %120, %94
  %144 = icmp eq ptr %55, %93
  br i1 %144, label %146, label %145

145:                                              ; preds = %141
  tail call void @llvm.memmove.p0.p0.i64(ptr nonnull align 8 %142, ptr align 8 %93, i64 %143, i1 false)
  br label %146

146:                                              ; preds = %145, %141
  %147 = icmp eq ptr %54, null
  br i1 %147, label %149, label %148

148:                                              ; preds = %146
  tail call void @_ZdlPv(ptr noundef nonnull %54) #18
  br label %149

149:                                              ; preds = %148, %146
  %150 = ashr exact i64 %143, 3
  %151 = getelementptr inbounds ptr, ptr %142, i64 %150
  store ptr %137, ptr %22, align 8, !tbaa !120
  store ptr %151, ptr %23, align 8, !tbaa !208
  %152 = getelementptr inbounds ptr, ptr %137, i64 %131
  store ptr %152, ptr %24, align 8, !tbaa !207
  br label %153

153:                                              ; preds = %102, %118, %149
  %154 = getelementptr inbounds ptr, ptr %26, i64 1
  %155 = icmp eq ptr %154, %7
  br i1 %155, label %156, label %25

156:                                              ; preds = %153, %17
  %157 = tail call noundef ptr @_ZSt18_Rb_tree_incrementPSt18_Rb_tree_node_base(ptr noundef %18) #20
  %158 = icmp eq ptr %157, %5
  br i1 %158, label %159, label %17, !llvm.loop !209

159:                                              ; preds = %156, %13, %2
  ret void
}

; Function Attrs: uwtable
define dso_local noundef ptr @_ZNK10xalanc_1_810Stylesheet21getNamespaceFromStackEPKt(ptr noundef nonnull align 8 dereferenceable(1000) %0, ptr noundef %1) local_unnamed_addr #2 align 2 personality ptr @__gxx_personality_v0 {
  %3 = alloca %"class.xalanc_1_8::XalanDOMString", align 8
  br label %4

4:                                                ; preds = %4, %2
  %5 = phi ptr [ %1, %2 ], [ %7, %4 ]
  %6 = load i16, ptr %5, align 2, !tbaa !179
  %7 = getelementptr inbounds i16, ptr %5, i64 1
  switch i16 %6, label %4 [
    i16 58, label %8
    i16 0, label %8
  ]

8:                                                ; preds = %4, %4
  %9 = ptrtoint ptr %5 to i64
  %10 = ptrtoint ptr %1 to i64
  %11 = sub i64 %9, %10
  %12 = lshr exact i64 %11, 1
  br label %13

13:                                               ; preds = %13, %8
  %14 = phi ptr [ %1, %8 ], [ %17, %13 ]
  %15 = load i16, ptr %14, align 2, !tbaa !179
  %16 = icmp eq i16 %15, 0
  %17 = getelementptr inbounds i16, ptr %14, i64 1
  br i1 %16, label %18, label %13

18:                                               ; preds = %13
  %19 = trunc i64 %12 to i32
  %20 = ptrtoint ptr %14 to i64
  %21 = sub i64 %20, %10
  %22 = lshr exact i64 %21, 1
  %23 = trunc i64 %22 to i32
  %24 = icmp eq i32 %19, %23
  br i1 %24, label %25, label %28

25:                                               ; preds = %18
  %26 = getelementptr inbounds %"class.xalanc_1_8::Stylesheet", ptr %0, i64 0, i32 8
  %27 = tail call noundef ptr @_ZN10xalanc_1_810XalanQName21getNamespaceForPrefixERKSt5dequeIS1_INS_9NameSpaceESaIS2_EESaIS4_EERKNS_14XalanDOMStringE(ptr noundef nonnull align 8 dereferenceable(80) %26, ptr noundef nonnull align 8 dereferenceable(28) @_ZN10xalanc_1_810Stylesheet13s_emptyStringE)
  br label %42

28:                                               ; preds = %18
  call void @llvm.lifetime.start.p0(i64 32, ptr nonnull %3) #18
  call void @_ZN10xalanc_1_814XalanDOMStringC1EPKtj(ptr noundef nonnull align 8 dereferenceable(28) %3, ptr noundef %1, i32 noundef %19)
  %29 = getelementptr inbounds %"class.xalanc_1_8::Stylesheet", ptr %0, i64 0, i32 8
  %30 = invoke noundef ptr @_ZN10xalanc_1_810XalanQName21getNamespaceForPrefixERKSt5dequeIS1_INS_9NameSpaceESaIS2_EESaIS4_EERKNS_14XalanDOMStringE(ptr noundef nonnull align 8 dereferenceable(80) %29, ptr noundef nonnull align 8 dereferenceable(28) %3)
          to label %31 unwind label %36

31:                                               ; preds = %28
  %32 = load ptr, ptr %3, align 8, !tbaa !15
  %33 = icmp eq ptr %32, null
  br i1 %33, label %35, label %34

34:                                               ; preds = %31
  call void @_ZdlPv(ptr noundef nonnull %32) #18
  br label %35

35:                                               ; preds = %31, %34
  call void @llvm.lifetime.end.p0(i64 32, ptr nonnull %3) #18
  br label %42

36:                                               ; preds = %28
  %37 = landingpad { ptr, i32 }
          cleanup
  %38 = load ptr, ptr %3, align 8, !tbaa !15
  %39 = icmp eq ptr %38, null
  br i1 %39, label %41, label %40

40:                                               ; preds = %36
  call void @_ZdlPv(ptr noundef nonnull %38) #18
  br label %41

41:                                               ; preds = %40, %36
  call void @llvm.lifetime.end.p0(i64 32, ptr nonnull %3) #18
  resume { ptr, i32 } %37

42:                                               ; preds = %35, %25
  %43 = phi ptr [ %27, %25 ], [ %30, %35 ]
  ret ptr %43
}

; Function Attrs: uwtable
define dso_local noundef ptr @_ZNK10xalanc_1_810Stylesheet21getNamespaceForPrefixERKNS_14XalanDOMStringERNS_29StylesheetConstructionContextE(ptr noundef nonnull align 8 dereferenceable(1000) %0, ptr noundef nonnull align 8 dereferenceable(28) %1, ptr noundef nonnull align 8 dereferenceable(8) %2) local_unnamed_addr #2 align 2 personality ptr @__gxx_personality_v0 {
  %4 = alloca %"class.xalanc_1_8::XalanDOMString", align 8
  %5 = load ptr, ptr %0, align 8, !tbaa !20
  %6 = getelementptr inbounds ptr, ptr %5, i64 2
  %7 = load ptr, ptr %6, align 8
  %8 = tail call noundef ptr %7(ptr noundef nonnull align 8 dereferenceable(1000) %0, ptr noundef nonnull align 8 dereferenceable(28) %1)
  %9 = icmp eq ptr %8, null
  br i1 %9, label %10, label %25

10:                                               ; preds = %3
  call void @llvm.lifetime.start.p0(i64 32, ptr nonnull %4) #18
  call void @_ZN10xalanc_1_818XalanMessageLoader10getMessageENS_13XalanMessages5CodesERKNS_14XalanDOMStringE(ptr nonnull sret(%"class.xalanc_1_8::XalanDOMString") align 8 %4, i32 noundef 72, ptr noundef nonnull align 8 dereferenceable(28) %1)
  %11 = load ptr, ptr %2, align 8, !tbaa !20
  %12 = getelementptr inbounds ptr, ptr %11, i64 47
  %13 = load ptr, ptr %12, align 8
  invoke void %13(ptr noundef nonnull align 8 dereferenceable(8) %2, ptr noundef nonnull align 8 dereferenceable(28) %4, ptr noundef null, ptr noundef null)
          to label %14 unwind label %19

14:                                               ; preds = %10
  %15 = load ptr, ptr %4, align 8, !tbaa !15
  %16 = icmp eq ptr %15, null
  br i1 %16, label %18, label %17

17:                                               ; preds = %14
  call void @_ZdlPv(ptr noundef nonnull %15) #18
  br label %18

18:                                               ; preds = %14, %17
  call void @llvm.lifetime.end.p0(i64 32, ptr nonnull %4) #18
  br label %25

19:                                               ; preds = %10
  %20 = landingpad { ptr, i32 }
          cleanup
  %21 = load ptr, ptr %4, align 8, !tbaa !15
  %22 = icmp eq ptr %21, null
  br i1 %22, label %24, label %23

23:                                               ; preds = %19
  call void @_ZdlPv(ptr noundef nonnull %21) #18
  br label %24

24:                                               ; preds = %23, %19
  call void @llvm.lifetime.end.p0(i64 32, ptr nonnull %4) #18
  resume { ptr, i32 } %20

25:                                               ; preds = %18, %3
  ret ptr %8
}

declare void @_ZN10xalanc_1_818XalanMessageLoader10getMessageENS_13XalanMessages5CodesERKNS_14XalanDOMStringE(ptr sret(%"class.xalanc_1_8::XalanDOMString") align 8, i32 noundef, ptr noundef nonnull align 8 dereferenceable(28)) local_unnamed_addr #1

; Function Attrs: uwtable
define dso_local noundef ptr @_ZNK10xalanc_1_810Stylesheet21getNamespaceForPrefixEPKtRNS_29StylesheetConstructionContextE(ptr noundef nonnull align 8 dereferenceable(1000) %0, ptr noundef %1, ptr noundef nonnull align 8 dereferenceable(8) %2) local_unnamed_addr #2 align 2 personality ptr @__gxx_personality_v0 {
  %4 = alloca %"class.xalanc_1_8::XalanDOMString", align 8
  %5 = load ptr, ptr %2, align 8, !tbaa !20
  %6 = getelementptr inbounds ptr, ptr %5, i64 5
  %7 = load ptr, ptr %6, align 8
  %8 = tail call noundef nonnull align 8 dereferenceable(28) ptr %7(ptr noundef nonnull align 8 dereferenceable(8) %2)
  invoke void @_ZN10xalanc_1_814XalanDOMString5eraseEjj(ptr noundef nonnull align 8 dereferenceable(28) %8, i32 noundef 0, i32 noundef -1)
          to label %9 unwind label %41

9:                                                ; preds = %3
  %10 = invoke noundef i32 @_ZN10xalanc_1_814XalanDOMString6lengthEPKt(ptr noundef %1)
          to label %11 unwind label %41

11:                                               ; preds = %9
  %12 = invoke noundef nonnull align 8 dereferenceable(28) ptr @_ZN10xalanc_1_814XalanDOMString6appendEPKtj(ptr noundef nonnull align 8 dereferenceable(28) %8, ptr noundef %1, i32 noundef %10)
          to label %13 unwind label %41

13:                                               ; preds = %11
  %14 = load ptr, ptr %0, align 8, !tbaa !20
  %15 = getelementptr inbounds ptr, ptr %14, i64 2
  %16 = load ptr, ptr %15, align 8
  %17 = invoke noundef ptr %16(ptr noundef nonnull align 8 dereferenceable(1000) %0, ptr noundef nonnull align 8 dereferenceable(28) %8)
          to label %18 unwind label %41

18:                                               ; preds = %13
  %19 = icmp eq ptr %17, null
  br i1 %19, label %20, label %36

20:                                               ; preds = %18
  call void @llvm.lifetime.start.p0(i64 32, ptr nonnull %4) #18
  invoke void @_ZN10xalanc_1_818XalanMessageLoader10getMessageENS_13XalanMessages5CodesERKNS_14XalanDOMStringE(ptr nonnull sret(%"class.xalanc_1_8::XalanDOMString") align 8 %4, i32 noundef 72, ptr noundef nonnull align 8 dereferenceable(28) %8)
          to label %21 unwind label %41

21:                                               ; preds = %20
  %22 = load ptr, ptr %2, align 8, !tbaa !20
  %23 = getelementptr inbounds ptr, ptr %22, i64 47
  %24 = load ptr, ptr %23, align 8
  invoke void %24(ptr noundef nonnull align 8 dereferenceable(8) %2, ptr noundef nonnull align 8 dereferenceable(28) %4, ptr noundef null, ptr noundef null)
          to label %25 unwind label %30

25:                                               ; preds = %21
  %26 = load ptr, ptr %4, align 8, !tbaa !15
  %27 = icmp eq ptr %26, null
  br i1 %27, label %29, label %28

28:                                               ; preds = %25
  call void @_ZdlPv(ptr noundef nonnull %26) #18
  br label %29

29:                                               ; preds = %28, %25
  call void @llvm.lifetime.end.p0(i64 32, ptr nonnull %4) #18
  br label %36

30:                                               ; preds = %21
  %31 = landingpad { ptr, i32 }
          cleanup
  %32 = load ptr, ptr %4, align 8, !tbaa !15
  %33 = icmp eq ptr %32, null
  br i1 %33, label %35, label %34

34:                                               ; preds = %30
  call void @_ZdlPv(ptr noundef nonnull %32) #18
  br label %35

35:                                               ; preds = %34, %30
  call void @llvm.lifetime.end.p0(i64 32, ptr nonnull %4) #18
  br label %43

36:                                               ; preds = %29, %18
  %37 = load ptr, ptr %2, align 8, !tbaa !20
  %38 = getelementptr inbounds ptr, ptr %37, i64 6
  %39 = load ptr, ptr %38, align 8
  %40 = call noundef zeroext i1 %39(ptr noundef nonnull align 8 dereferenceable(8) %2, ptr noundef nonnull align 8 dereferenceable(28) %8)
  ret ptr %17

41:                                               ; preds = %20, %13, %11, %9, %3
  %42 = landingpad { ptr, i32 }
          cleanup
  br label %43

43:                                               ; preds = %41, %35
  %44 = phi { ptr, i32 } [ %42, %41 ], [ %31, %35 ]
  %45 = load ptr, ptr %2, align 8, !tbaa !20
  %46 = getelementptr inbounds ptr, ptr %45, i64 6
  %47 = load ptr, ptr %46, align 8
  %48 = invoke noundef zeroext i1 %47(ptr noundef nonnull align 8 dereferenceable(8) %2, ptr noundef nonnull align 8 dereferenceable(28) %8)
          to label %49 unwind label %50

49:                                               ; preds = %43
  resume { ptr, i32 } %44

50:                                               ; preds = %43
  %51 = landingpad { ptr, i32 }
          catch ptr null
  %52 = extractvalue { ptr, i32 } %51, 0
  call void @__clang_call_terminate(ptr %52) #19
  unreachable
}

; Function Attrs: uwtable
define dso_local noundef zeroext i1 @_ZNK10xalanc_1_810Stylesheet10getYesOrNoEPKtS2_RNS_29StylesheetConstructionContextE(ptr nocapture noundef nonnull readnone align 8 dereferenceable(1000) %0, ptr nocapture noundef readnone %1, ptr noundef %2, ptr noundef nonnull align 8 dereferenceable(8) %3) local_unnamed_addr #2 align 2 personality ptr @__gxx_personality_v0 {
  %5 = alloca %"class.xalanc_1_8::XalanDOMString", align 8
  %6 = load ptr, ptr @_ZN10xalanc_1_89Constants11ATTRVAL_YESE, align 8, !tbaa !22
  %7 = load ptr, ptr %6, align 8, !tbaa !22
  %8 = getelementptr inbounds %"struct.std::_Vector_base<unsigned short, std::allocator<unsigned short> >::_Vector_impl_data", ptr %6, i64 0, i32 1
  %9 = load ptr, ptr %8, align 8, !tbaa !22
  %10 = icmp eq ptr %7, %9
  %11 = select i1 %10, ptr @_ZN10xalanc_1_814XalanDOMString7s_emptyE, ptr %7
  %12 = tail call noundef i32 @_ZN10xalanc_1_814XalanDOMString6lengthEPKt(ptr noundef %11)
  %13 = tail call noundef i32 @_ZN10xalanc_1_814XalanDOMString6lengthEPKt(ptr noundef %2)
  %14 = tail call noundef zeroext i1 @_ZN10xalanc_1_814XalanDOMString6equalsEPKtjS2_j(ptr noundef %11, i32 noundef %12, ptr noundef %2, i32 noundef %13)
  br i1 %14, label %40, label %15

15:                                               ; preds = %4
  %16 = load ptr, ptr @_ZN10xalanc_1_89Constants10ATTRVAL_NOE, align 8, !tbaa !22
  %17 = load ptr, ptr %16, align 8, !tbaa !22
  %18 = getelementptr inbounds %"struct.std::_Vector_base<unsigned short, std::allocator<unsigned short> >::_Vector_impl_data", ptr %16, i64 0, i32 1
  %19 = load ptr, ptr %18, align 8, !tbaa !22
  %20 = icmp eq ptr %17, %19
  %21 = select i1 %20, ptr @_ZN10xalanc_1_814XalanDOMString7s_emptyE, ptr %17
  %22 = tail call noundef i32 @_ZN10xalanc_1_814XalanDOMString6lengthEPKt(ptr noundef %21)
  %23 = tail call noundef i32 @_ZN10xalanc_1_814XalanDOMString6lengthEPKt(ptr noundef %2)
  %24 = tail call noundef zeroext i1 @_ZN10xalanc_1_814XalanDOMString6equalsEPKtjS2_j(ptr noundef %21, i32 noundef %22, ptr noundef %2, i32 noundef %23)
  br i1 %24, label %40, label %25

25:                                               ; preds = %15
  call void @llvm.lifetime.start.p0(i64 32, ptr nonnull %5) #18
  call void @_ZN10xalanc_1_818XalanMessageLoader10getMessageENS_13XalanMessages5CodesERKNS_14XalanDOMStringES5_(ptr nonnull sret(%"class.xalanc_1_8::XalanDOMString") align 8 %5, i32 noundef 97, ptr noundef nonnull align 8 dereferenceable(28) %6, ptr noundef nonnull align 8 dereferenceable(28) %16)
  %26 = load ptr, ptr %3, align 8, !tbaa !20
  %27 = getelementptr inbounds ptr, ptr %26, i64 47
  %28 = load ptr, ptr %27, align 8
  invoke void %28(ptr noundef nonnull align 8 dereferenceable(8) %3, ptr noundef nonnull align 8 dereferenceable(28) %5, ptr noundef null, ptr noundef null)
          to label %29 unwind label %34

29:                                               ; preds = %25
  %30 = load ptr, ptr %5, align 8, !tbaa !15
  %31 = icmp eq ptr %30, null
  br i1 %31, label %33, label %32

32:                                               ; preds = %29
  call void @_ZdlPv(ptr noundef nonnull %30) #18
  br label %33

33:                                               ; preds = %29, %32
  call void @llvm.lifetime.end.p0(i64 32, ptr nonnull %5) #18
  br label %40

34:                                               ; preds = %25
  %35 = landingpad { ptr, i32 }
          cleanup
  %36 = load ptr, ptr %5, align 8, !tbaa !15
  %37 = icmp eq ptr %36, null
  br i1 %37, label %39, label %38

38:                                               ; preds = %34
  call void @_ZdlPv(ptr noundef nonnull %36) #18
  br label %39

39:                                               ; preds = %38, %34
  call void @llvm.lifetime.end.p0(i64 32, ptr nonnull %5) #18
  resume { ptr, i32 } %35

40:                                               ; preds = %15, %4, %33
  ret i1 %14
}

; Function Attrs: mustprogress nofree norecurse nosync nounwind willreturn memory(read, inaccessiblemem: none) uwtable
define dso_local noundef nofpclass(nan inf) double @_ZNK10xalanc_1_810Stylesheet13MatchPattern220getPriorityOrDefaultEv(ptr nocapture noundef nonnull readonly align 8 dereferenceable(68) %0) local_unnamed_addr #8 align 2 {
  %2 = load ptr, ptr %0, align 8, !tbaa !196
  %3 = getelementptr inbounds %"class.xalanc_1_8::ElemTemplate", ptr %2, i64 0, i32 4
  %4 = load double, ptr %3, align 8, !tbaa !198
  %5 = load i32, ptr @_ZN10xalanc_1_813DoubleSupport5s_NaNE, align 8, !tbaa !204
  %6 = bitcast double %4 to i64
  %7 = trunc i64 %6 to i32
  %8 = icmp ne i32 %5, %7
  %9 = load i32, ptr getelementptr inbounds (%struct.anon, ptr @_ZN10xalanc_1_813DoubleSupport5s_NaNE, i64 0, i32 1), align 4
  %10 = lshr i64 %6, 32
  %11 = trunc i64 %10 to i32
  %12 = icmp ne i32 %9, %11
  %13 = select i1 %8, i1 true, i1 %12
  %14 = load double, ptr @_ZN10xalanc_1_813DoubleSupport18s_negativeInfinityE, align 8
  %15 = fcmp reassoc nnan ninf nsz arcp afn oeq double %14, %4
  %16 = select i1 %13, i1 %15, i1 false
  br i1 %16, label %17, label %25

17:                                               ; preds = %1
  %18 = getelementptr inbounds %"class.xalanc_1_8::Stylesheet::MatchPattern2", ptr %0, i64 0, i32 5
  %19 = load i32, ptr %18, align 8, !tbaa !205
  switch i32 %19, label %24 [
    i32 0, label %20
    i32 1, label %25
    i32 2, label %21
    i32 4, label %22
    i32 3, label %23
  ]

20:                                               ; preds = %17
  br label %25

21:                                               ; preds = %17
  br label %25

22:                                               ; preds = %17
  br label %25

23:                                               ; preds = %17
  br label %25

24:                                               ; preds = %17
  br label %25

25:                                               ; preds = %24, %23, %22, %21, %20, %17, %1
  %26 = phi double [ %4, %1 ], [ 0.000000e+00, %24 ], [ 0.000000e+00, %23 ], [ 5.000000e-01, %22 ], [ -2.500000e-01, %21 ], [ %14, %20 ], [ -5.000000e-01, %17 ]
  ret double %26
}

; Function Attrs: uwtable
define dso_local void @_ZN10xalanc_1_810Stylesheet11addTemplateEPNS_12ElemTemplateERNS_29StylesheetConstructionContextE(ptr noundef nonnull align 8 dereferenceable(1000) %0, ptr noundef %1, ptr noundef nonnull align 8 dereferenceable(8) %2) local_unnamed_addr #2 align 2 personality ptr @__gxx_personality_v0 {
  %4 = alloca %"class.xalanc_1_8::XalanDOMString", align 8
  %5 = alloca %"class.xalanc_1_8::XalanQNameByReference", align 8
  %6 = alloca %"class.xalanc_1_8::XalanQNameByReference", align 8
  %7 = alloca %"class.xalanc_1_8::XalanDOMString", align 8
  %8 = alloca %"class.std::vector.117", align 8
  %9 = alloca %"class.xalanc_1_8::Stylesheet::MatchPattern2", align 8
  %10 = getelementptr inbounds %"class.xalanc_1_8::Stylesheet", ptr %0, i64 0, i32 10
  %11 = load i8, ptr %10, align 8, !tbaa !23, !range !168, !noundef !169
  %12 = icmp eq i8 %11, 0
  %13 = getelementptr inbounds %"class.xalanc_1_8::Stylesheet", ptr %0, i64 0, i32 12
  %14 = load ptr, ptr %13, align 8, !tbaa !194
  %15 = icmp eq ptr %14, null
  br i1 %12, label %33, label %16

16:                                               ; preds = %3
  br i1 %15, label %32, label %17

17:                                               ; preds = %16
  call void @llvm.lifetime.start.p0(i64 32, ptr nonnull %4) #18
  call void @_ZN10xalanc_1_818XalanMessageLoader10getMessageENS_13XalanMessages5CodesE(ptr nonnull sret(%"class.xalanc_1_8::XalanDOMString") align 8 %4, i32 noundef 98)
  %18 = load ptr, ptr %2, align 8, !tbaa !20
  %19 = getelementptr inbounds ptr, ptr %18, i64 47
  %20 = load ptr, ptr %19, align 8
  invoke void %20(ptr noundef nonnull align 8 dereferenceable(8) %2, ptr noundef nonnull align 8 dereferenceable(28) %4, ptr noundef null, ptr noundef %1)
          to label %21 unwind label %26

21:                                               ; preds = %17
  %22 = load ptr, ptr %4, align 8, !tbaa !15
  %23 = icmp eq ptr %22, null
  br i1 %23, label %25, label %24

24:                                               ; preds = %21
  call void @_ZdlPv(ptr noundef nonnull %22) #18
  br label %25

25:                                               ; preds = %21, %24
  call void @llvm.lifetime.end.p0(i64 32, ptr nonnull %4) #18
  br label %57

26:                                               ; preds = %17
  %27 = landingpad { ptr, i32 }
          cleanup
  %28 = load ptr, ptr %4, align 8, !tbaa !15
  %29 = icmp eq ptr %28, null
  br i1 %29, label %31, label %30

30:                                               ; preds = %26
  call void @_ZdlPv(ptr noundef nonnull %28) #18
  br label %31

31:                                               ; preds = %30, %26
  call void @llvm.lifetime.end.p0(i64 32, ptr nonnull %4) #18
  br label %367

32:                                               ; preds = %16
  store ptr %1, ptr %13, align 8, !tbaa !194
  br label %57

33:                                               ; preds = %3
  br i1 %15, label %34, label %35

34:                                               ; preds = %33
  store ptr %1, ptr %13, align 8, !tbaa !194
  br label %57

35:                                               ; preds = %33, %52
  %36 = phi ptr [ %55, %52 ], [ %14, %33 ]
  %37 = load ptr, ptr %36, align 8, !tbaa !20
  %38 = getelementptr inbounds ptr, ptr %37, i64 19
  %39 = load ptr, ptr %38, align 8
  %40 = tail call noundef ptr %39(ptr noundef nonnull align 8 dereferenceable(210) %36)
  %41 = icmp eq ptr %40, null
  %42 = load ptr, ptr %36, align 8, !tbaa !20
  br i1 %41, label %43, label %52

43:                                               ; preds = %35
  %44 = getelementptr inbounds ptr, ptr %42, i64 20
  %45 = load ptr, ptr %44, align 8
  tail call void %45(ptr noundef nonnull align 8 dereferenceable(210) %36, ptr noundef %1)
  %46 = load ptr, ptr %1, align 8, !tbaa !20
  %47 = getelementptr inbounds ptr, ptr %46, i64 20
  %48 = load ptr, ptr %47, align 8
  tail call void %48(ptr noundef nonnull align 8 dereferenceable(210) %1, ptr noundef null)
  %49 = load ptr, ptr %1, align 8, !tbaa !20
  %50 = getelementptr inbounds ptr, ptr %49, i64 22
  %51 = load ptr, ptr %50, align 8
  tail call void %51(ptr noundef nonnull align 8 dereferenceable(210) %1, ptr noundef nonnull %36)
  br label %57

52:                                               ; preds = %35
  %53 = getelementptr inbounds ptr, ptr %42, i64 19
  %54 = load ptr, ptr %53, align 8
  %55 = tail call noundef ptr %54(ptr noundef nonnull align 8 dereferenceable(210) %36)
  %56 = icmp eq ptr %55, null
  br i1 %56, label %57, label %35

57:                                               ; preds = %52, %43, %34, %25, %32
  %58 = load ptr, ptr %1, align 8, !tbaa !20
  %59 = getelementptr inbounds ptr, ptr %58, i64 11
  %60 = load ptr, ptr %59, align 8
  %61 = call noundef nonnull align 8 dereferenceable(8) ptr %60(ptr noundef nonnull align 8 dereferenceable(248) %1)
  %62 = load ptr, ptr %61, align 8, !tbaa !20
  %63 = getelementptr inbounds ptr, ptr %62, i64 3
  %64 = load ptr, ptr %63, align 8
  %65 = call noundef nonnull align 8 dereferenceable(28) ptr %64(ptr noundef nonnull align 8 dereferenceable(8) %61)
  %66 = getelementptr inbounds %"class.xalanc_1_8::XalanDOMString", ptr %65, i64 0, i32 1
  %67 = load i32, ptr %66, align 8, !tbaa !116
  %68 = icmp eq i32 %67, 0
  br i1 %68, label %69, label %77

69:                                               ; preds = %57
  %70 = load ptr, ptr %61, align 8, !tbaa !20
  %71 = getelementptr inbounds ptr, ptr %70, i64 2
  %72 = load ptr, ptr %71, align 8
  %73 = call noundef nonnull align 8 dereferenceable(28) ptr %72(ptr noundef nonnull align 8 dereferenceable(8) %61)
  %74 = getelementptr inbounds %"class.xalanc_1_8::XalanDOMString", ptr %73, i64 0, i32 1
  %75 = load i32, ptr %74, align 8, !tbaa !116
  %76 = icmp eq i32 %75, 0
  br i1 %76, label %130, label %77

77:                                               ; preds = %57, %69
  %78 = getelementptr inbounds %"class.xalanc_1_8::Stylesheet", ptr %0, i64 0, i32 14
  call void @llvm.lifetime.start.p0(i64 24, ptr nonnull %5) #18
  call void @_ZN10xalanc_1_821XalanQNameByReferenceC1ERKNS_10XalanQNameE(ptr noundef nonnull align 8 dereferenceable(24) %5, ptr noundef nonnull align 8 dereferenceable(8) %61)
  %79 = getelementptr inbounds %"class.xalanc_1_8::Stylesheet", ptr %0, i64 0, i32 14, i32 0, i32 0, i32 1, i32 0, i32 1
  %80 = load ptr, ptr %79, align 8, !tbaa !110
  %81 = getelementptr inbounds %"class.xalanc_1_8::Stylesheet", ptr %0, i64 0, i32 14, i32 0, i32 0, i32 1
  %82 = icmp eq ptr %80, null
  br i1 %82, label %100, label %83

83:                                               ; preds = %77, %88
  %84 = phi ptr [ %93, %88 ], [ %80, %77 ]
  %85 = phi ptr [ %91, %88 ], [ %81, %77 ]
  %86 = getelementptr inbounds %"struct.std::_Rb_tree_node.148", ptr %84, i64 0, i32 1
  %87 = invoke noundef zeroext i1 @_ZN10xalanc_1_8ltERKNS_10XalanQNameES2_(ptr noundef nonnull align 8 dereferenceable(8) %86, ptr noundef nonnull align 8 dereferenceable(8) %5)
          to label %88 unwind label %105

88:                                               ; preds = %83
  %89 = getelementptr inbounds %"struct.std::_Rb_tree_node_base", ptr %84, i64 0, i32 3
  %90 = getelementptr inbounds %"struct.std::_Rb_tree_node_base", ptr %84, i64 0, i32 2
  %91 = select i1 %87, ptr %85, ptr %84
  %92 = select i1 %87, ptr %89, ptr %90
  %93 = load ptr, ptr %92, align 8, !tbaa !22
  %94 = icmp eq ptr %93, null
  br i1 %94, label %95, label %83

95:                                               ; preds = %88
  %96 = icmp eq ptr %91, %81
  br i1 %96, label %100, label %97

97:                                               ; preds = %95
  %98 = getelementptr inbounds %"struct.std::_Rb_tree_node.148", ptr %91, i64 0, i32 1
  %99 = invoke noundef zeroext i1 @_ZN10xalanc_1_8ltERKNS_10XalanQNameES2_(ptr noundef nonnull align 8 dereferenceable(8) %5, ptr noundef nonnull align 8 dereferenceable(8) %98)
          to label %101 unwind label %107

100:                                              ; preds = %95, %77
  call void @_ZN10xalanc_1_821XalanQNameByReferenceD1Ev(ptr noundef nonnull align 8 dereferenceable(24) %5)
  call void @llvm.lifetime.end.p0(i64 24, ptr nonnull %5) #18
  br label %102

101:                                              ; preds = %97
  call void @_ZN10xalanc_1_821XalanQNameByReferenceD1Ev(ptr noundef nonnull align 8 dereferenceable(24) %5)
  call void @llvm.lifetime.end.p0(i64 24, ptr nonnull %5) #18
  br i1 %99, label %102, label %115

102:                                              ; preds = %100, %101
  call void @llvm.lifetime.start.p0(i64 24, ptr nonnull %6) #18
  call void @_ZN10xalanc_1_821XalanQNameByReferenceC1ERKNS_10XalanQNameE(ptr noundef nonnull align 8 dereferenceable(24) %6, ptr noundef nonnull align 8 dereferenceable(8) %61)
  %103 = invoke noundef nonnull align 8 dereferenceable(8) ptr @_ZNSt3mapIN10xalanc_1_821XalanQNameByReferenceEPKNS0_12ElemTemplateESt4lessINS0_10XalanQNameEESaISt4pairIKS1_S4_EEEixERS9_(ptr noundef nonnull align 8 dereferenceable(48) %78, ptr noundef nonnull align 8 dereferenceable(24) %6)
          to label %104 unwind label %112

104:                                              ; preds = %102
  store ptr %1, ptr %103, align 8, !tbaa !22
  call void @_ZN10xalanc_1_821XalanQNameByReferenceD1Ev(ptr noundef nonnull align 8 dereferenceable(24) %6)
  call void @llvm.lifetime.end.p0(i64 24, ptr nonnull %6) #18
  br label %130

105:                                              ; preds = %83
  %106 = landingpad { ptr, i32 }
          cleanup
  br label %109

107:                                              ; preds = %97
  %108 = landingpad { ptr, i32 }
          cleanup
  br label %109

109:                                              ; preds = %107, %105
  %110 = phi { ptr, i32 } [ %106, %105 ], [ %108, %107 ]
  invoke void @_ZN10xalanc_1_821XalanQNameByReferenceD1Ev(ptr noundef nonnull align 8 dereferenceable(24) %5)
          to label %111 unwind label %369

111:                                              ; preds = %109
  call void @llvm.lifetime.end.p0(i64 24, ptr nonnull %5) #18
  br label %367

112:                                              ; preds = %102
  %113 = landingpad { ptr, i32 }
          cleanup
  invoke void @_ZN10xalanc_1_821XalanQNameByReferenceD1Ev(ptr noundef nonnull align 8 dereferenceable(24) %6)
          to label %114 unwind label %369

114:                                              ; preds = %112
  call void @llvm.lifetime.end.p0(i64 24, ptr nonnull %6) #18
  br label %367

115:                                              ; preds = %101
  call void @llvm.lifetime.start.p0(i64 32, ptr nonnull %7) #18
  call void @_ZN10xalanc_1_818XalanMessageLoader10getMessageENS_13XalanMessages5CodesE(ptr nonnull sret(%"class.xalanc_1_8::XalanDOMString") align 8 %7, i32 noundef 99)
  %116 = load ptr, ptr %2, align 8, !tbaa !20
  %117 = getelementptr inbounds ptr, ptr %116, i64 47
  %118 = load ptr, ptr %117, align 8
  invoke void %118(ptr noundef nonnull align 8 dereferenceable(8) %2, ptr noundef nonnull align 8 dereferenceable(28) %7, ptr noundef null, ptr noundef nonnull %1)
          to label %119 unwind label %124

119:                                              ; preds = %115
  %120 = load ptr, ptr %7, align 8, !tbaa !15
  %121 = icmp eq ptr %120, null
  br i1 %121, label %123, label %122

122:                                              ; preds = %119
  call void @_ZdlPv(ptr noundef nonnull %120) #18
  br label %123

123:                                              ; preds = %119, %122
  call void @llvm.lifetime.end.p0(i64 32, ptr nonnull %7) #18
  br label %130

124:                                              ; preds = %115
  %125 = landingpad { ptr, i32 }
          cleanup
  %126 = load ptr, ptr %7, align 8, !tbaa !15
  %127 = icmp eq ptr %126, null
  br i1 %127, label %129, label %128

128:                                              ; preds = %124
  call void @_ZdlPv(ptr noundef nonnull %126) #18
  br label %129

129:                                              ; preds = %128, %124
  call void @llvm.lifetime.end.p0(i64 32, ptr nonnull %7) #18
  br label %367

130:                                              ; preds = %104, %123, %69
  %131 = getelementptr inbounds %"class.xalanc_1_8::ElemTemplate", ptr %1, i64 0, i32 1
  %132 = load ptr, ptr %131, align 8, !tbaa !211
  %133 = icmp eq ptr %132, null
  br i1 %133, label %366, label %134

134:                                              ; preds = %130
  call void @llvm.lifetime.start.p0(i64 24, ptr nonnull %8) #18
  call void @llvm.memset.p0.i64(ptr noundef nonnull align 8 dereferenceable(24) %8, i8 0, i64 24, i1 false)
  invoke void @_ZNK10xalanc_1_85XPath13getTargetDataERSt6vectorINS0_10TargetDataESaIS2_EE(ptr noundef nonnull align 8 dereferenceable(105) %132, ptr noundef nonnull align 8 dereferenceable(24) %8)
          to label %135 unwind label %182

135:                                              ; preds = %134
  %136 = getelementptr inbounds %"struct.std::_Vector_base<xalanc_1_8::XPath::TargetData, std::allocator<xalanc_1_8::XPath::TargetData> >::_Vector_impl_data", ptr %8, i64 0, i32 1
  %137 = load ptr, ptr %136, align 8, !tbaa !212
  %138 = load ptr, ptr %8, align 8, !tbaa !214
  %139 = ptrtoint ptr %137 to i64
  %140 = ptrtoint ptr %138 to i64
  %141 = sub i64 %139, %140
  %142 = ashr i64 %141, 4
  %143 = icmp eq ptr %137, %138
  br i1 %143, label %355, label %144

144:                                              ; preds = %135
  %145 = load ptr, ptr %2, align 8, !tbaa !20
  %146 = getelementptr inbounds ptr, ptr %145, i64 5
  %147 = load ptr, ptr %146, align 8
  %148 = invoke noundef nonnull align 8 dereferenceable(28) ptr %147(ptr noundef nonnull align 8 dereferenceable(8) %2)
          to label %149 unwind label %184

149:                                              ; preds = %144
  %150 = getelementptr inbounds %"class.xalanc_1_8::Stylesheet", ptr %0, i64 0, i32 28
  %151 = getelementptr inbounds %"class.xalanc_1_8::Stylesheet", ptr %0, i64 0, i32 28, i32 0, i32 0, i32 3
  %152 = getelementptr inbounds %"class.xalanc_1_8::Stylesheet", ptr %0, i64 0, i32 28, i32 0, i32 0, i32 2
  %153 = getelementptr inbounds %"class.xalanc_1_8::Stylesheet", ptr %0, i64 0, i32 28, i32 0, i32 0, i32 3, i32 3
  %154 = getelementptr inbounds %"class.xalanc_1_8::Stylesheet", ptr %0, i64 0, i32 28, i32 0, i32 0, i32 2, i32 3
  %155 = getelementptr inbounds %"class.xalanc_1_8::Stylesheet", ptr %0, i64 0, i32 28, i32 0, i32 0, i32 3, i32 1
  %156 = getelementptr inbounds %"class.xalanc_1_8::Stylesheet", ptr %0, i64 0, i32 28, i32 0, i32 0, i32 2, i32 2
  %157 = getelementptr inbounds %"class.xalanc_1_8::XPathExpression", ptr %132, i64 0, i32 4
  %158 = getelementptr inbounds %"class.xalanc_1_8::Stylesheet::MatchPattern2", ptr %9, i64 0, i32 1
  %159 = getelementptr inbounds %"class.xalanc_1_8::Stylesheet::MatchPattern2", ptr %9, i64 0, i32 2
  %160 = getelementptr inbounds %"class.xalanc_1_8::Stylesheet::MatchPattern2", ptr %9, i64 0, i32 3
  %161 = getelementptr inbounds %"class.xalanc_1_8::Stylesheet::MatchPattern2", ptr %9, i64 0, i32 4
  %162 = getelementptr inbounds %"class.xalanc_1_8::Stylesheet::MatchPattern2", ptr %9, i64 0, i32 5
  %163 = getelementptr inbounds %"class.xalanc_1_8::Stylesheet", ptr %0, i64 0, i32 28, i32 0, i32 0, i32 3, i32 2
  %164 = getelementptr inbounds %"struct.std::_Vector_base<unsigned short, std::allocator<unsigned short> >::_Vector_impl_data", ptr %148, i64 0, i32 1
  %165 = getelementptr inbounds %"class.xalanc_1_8::Stylesheet", ptr %0, i64 0, i32 20
  %166 = getelementptr inbounds %"class.xalanc_1_8::Stylesheet", ptr %0, i64 0, i32 17
  %167 = getelementptr inbounds %"class.xalanc_1_8::Stylesheet", ptr %0, i64 0, i32 19
  %168 = getelementptr inbounds %"class.xalanc_1_8::Stylesheet", ptr %0, i64 0, i32 22
  %169 = getelementptr inbounds %"class.xalanc_1_8::Stylesheet", ptr %0, i64 0, i32 27
  %170 = getelementptr inbounds %"class.xalanc_1_8::Stylesheet", ptr %0, i64 0, i32 24
  %171 = getelementptr inbounds %"class.xalanc_1_8::Stylesheet", ptr %0, i64 0, i32 23
  %172 = getelementptr inbounds %"class.xalanc_1_8::Stylesheet", ptr %0, i64 0, i32 26
  %173 = getelementptr inbounds %"class.xalanc_1_8::Stylesheet", ptr %0, i64 0, i32 25
  %174 = call i64 @llvm.umax.i64(i64 %142, i64 1)
  br label %186

175:                                              ; preds = %346
  %176 = load ptr, ptr %2, align 8, !tbaa !20
  %177 = getelementptr inbounds ptr, ptr %176, i64 6
  %178 = load ptr, ptr %177, align 8
  %179 = invoke noundef zeroext i1 %178(ptr noundef nonnull align 8 dereferenceable(8) %2, ptr noundef nonnull align 8 dereferenceable(28) %148)
          to label %180 unwind label %184

180:                                              ; preds = %175
  %181 = load ptr, ptr %8, align 8, !tbaa !214
  br label %355

182:                                              ; preds = %134
  %183 = landingpad { ptr, i32 }
          cleanup
  br label %360

184:                                              ; preds = %175, %144
  %185 = landingpad { ptr, i32 }
          cleanup
  br label %360

186:                                              ; preds = %149, %346
  %187 = phi i64 [ 0, %149 ], [ %347, %346 ]
  %188 = load ptr, ptr %8, align 8, !tbaa !214
  %189 = getelementptr inbounds %"class.xalanc_1_8::XPath::TargetData", ptr %188, i64 %187
  %190 = load ptr, ptr %189, align 8, !tbaa !215
  invoke void @_ZN10xalanc_1_814XalanDOMString5eraseEjj(ptr noundef nonnull align 8 dereferenceable(28) %148, i32 noundef 0, i32 noundef -1)
          to label %191 unwind label %260

191:                                              ; preds = %186
  %192 = invoke noundef i32 @_ZN10xalanc_1_814XalanDOMString6lengthEPKt(ptr noundef %190)
          to label %193 unwind label %260

193:                                              ; preds = %191
  %194 = invoke noundef nonnull align 8 dereferenceable(28) ptr @_ZN10xalanc_1_814XalanDOMString6appendEPKtj(ptr noundef nonnull align 8 dereferenceable(28) %148, ptr noundef %190, i32 noundef %192)
          to label %195 unwind label %260

195:                                              ; preds = %193
  call void @llvm.lifetime.start.p0(i64 72, ptr nonnull %9) #18
  %196 = load ptr, ptr %153, align 8, !tbaa !130
  %197 = load ptr, ptr %154, align 8, !tbaa !130
  %198 = ptrtoint ptr %196 to i64
  %199 = ptrtoint ptr %197 to i64
  %200 = sub i64 %198, %199
  %201 = ashr exact i64 %200, 3
  %202 = mul nsw i64 %201, 7
  %203 = add nsw i64 %202, -7
  %204 = load ptr, ptr %151, align 8, !tbaa !124
  %205 = load ptr, ptr %155, align 8, !tbaa !128
  %206 = ptrtoint ptr %204 to i64
  %207 = ptrtoint ptr %205 to i64
  %208 = sub i64 %206, %207
  %209 = sdiv exact i64 %208, 72
  %210 = add nsw i64 %203, %209
  %211 = load ptr, ptr %156, align 8, !tbaa !129
  %212 = load ptr, ptr %152, align 8, !tbaa !124
  %213 = ptrtoint ptr %211 to i64
  %214 = ptrtoint ptr %212 to i64
  %215 = sub i64 %213, %214
  %216 = sdiv exact i64 %215, 72
  %217 = add nsw i64 %210, %216
  %218 = load ptr, ptr %157, align 8, !tbaa !218
  %219 = load ptr, ptr %8, align 8, !tbaa !214
  %220 = getelementptr inbounds %"class.xalanc_1_8::XPath::TargetData", ptr %219, i64 %187, i32 1
  %221 = load i32, ptr %220, align 8, !tbaa !232
  store ptr %1, ptr %9, align 8, !tbaa !196
  store i64 %217, ptr %158, align 8, !tbaa !206
  invoke void @_ZN10xalanc_1_814XalanDOMStringC1ERKS0_jj(ptr noundef nonnull align 8 dereferenceable(28) %159, ptr noundef nonnull align 8 dereferenceable(28) %148, i32 noundef 0, i32 noundef -1)
          to label %222 unwind label %262

222:                                              ; preds = %195
  store ptr %132, ptr %160, align 8, !tbaa !233
  store ptr %218, ptr %161, align 8, !tbaa !234
  store i32 %221, ptr %162, align 8, !tbaa !205
  %223 = load ptr, ptr %151, align 8, !tbaa !235
  %224 = load ptr, ptr %163, align 8, !tbaa !236
  %225 = getelementptr inbounds %"class.xalanc_1_8::Stylesheet::MatchPattern2", ptr %224, i64 -1
  %226 = icmp eq ptr %223, %225
  br i1 %226, label %233, label %227

227:                                              ; preds = %222
  call void @llvm.memcpy.p0.p0.i64(ptr noundef nonnull align 8 dereferenceable(16) %223, ptr noundef nonnull align 8 dereferenceable(16) %9, i64 16, i1 false)
  %228 = getelementptr inbounds %"class.xalanc_1_8::Stylesheet::MatchPattern2", ptr %223, i64 0, i32 2
  invoke void @_ZN10xalanc_1_814XalanDOMStringC1ERKS0_jj(ptr noundef nonnull align 8 dereferenceable(28) %228, ptr noundef nonnull align 8 dereferenceable(28) %159, i32 noundef 0, i32 noundef -1)
          to label %229 unwind label %264

229:                                              ; preds = %227
  %230 = getelementptr inbounds %"class.xalanc_1_8::Stylesheet::MatchPattern2", ptr %223, i64 0, i32 3
  call void @llvm.memcpy.p0.p0.i64(ptr noundef nonnull align 8 dereferenceable(20) %230, ptr noundef nonnull align 8 dereferenceable(20) %160, i64 20, i1 false)
  %231 = load ptr, ptr %151, align 8, !tbaa !235
  %232 = getelementptr inbounds %"class.xalanc_1_8::Stylesheet::MatchPattern2", ptr %231, i64 1
  store ptr %232, ptr %151, align 8, !tbaa !235
  br label %234

233:                                              ; preds = %222
  invoke void @_ZNSt5dequeIN10xalanc_1_810Stylesheet13MatchPattern2ESaIS2_EE16_M_push_back_auxERKS2_(ptr noundef nonnull align 8 dereferenceable(80) %150, ptr noundef nonnull align 8 dereferenceable(68) %9)
          to label %234 unwind label %264

234:                                              ; preds = %229, %233
  %235 = load ptr, ptr %159, align 8, !tbaa !15
  %236 = icmp eq ptr %235, null
  br i1 %236, label %238, label %237

237:                                              ; preds = %234
  call void @_ZdlPv(ptr noundef nonnull %235) #18
  br label %238

238:                                              ; preds = %237, %234
  call void @llvm.lifetime.end.p0(i64 72, ptr nonnull %9) #18
  %239 = load ptr, ptr %151, align 8, !tbaa !124, !noalias !237
  %240 = load ptr, ptr %155, align 8, !tbaa !128, !noalias !237
  %241 = icmp eq ptr %239, %240
  br i1 %241, label %242, label %247

242:                                              ; preds = %238
  %243 = load ptr, ptr %153, align 8, !tbaa !130, !noalias !237
  %244 = getelementptr inbounds ptr, ptr %243, i64 -1
  %245 = load ptr, ptr %244, align 8, !tbaa !22
  %246 = getelementptr inbounds %"class.xalanc_1_8::Stylesheet::MatchPattern2", ptr %245, i64 7
  br label %247

247:                                              ; preds = %242, %238
  %248 = phi ptr [ %246, %242 ], [ %239, %238 ]
  %249 = getelementptr inbounds %"class.xalanc_1_8::Stylesheet::MatchPattern2", ptr %248, i64 -1
  %250 = load ptr, ptr %148, align 8, !tbaa !22
  %251 = load ptr, ptr %164, align 8, !tbaa !22
  %252 = icmp eq ptr %250, %251
  %253 = select i1 %252, ptr @_ZN10xalanc_1_814XalanDOMString7s_emptyE, ptr %250
  %254 = invoke noundef i32 @_ZN10xalanc_1_814XalanDOMString6lengthEPKt(ptr noundef %253)
          to label %255 unwind label %271

255:                                              ; preds = %247
  %256 = invoke noundef i32 @_ZN10xalanc_1_814XalanDOMString6lengthEPKt(ptr noundef nonnull @_ZN10xalanc_1_85XPath15PSEUDONAME_TEXTE)
          to label %257 unwind label %271

257:                                              ; preds = %255
  %258 = invoke noundef zeroext i1 @_ZN10xalanc_1_814XalanDOMString6equalsEPKtjS2_j(ptr noundef %253, i32 noundef %254, ptr noundef nonnull @_ZN10xalanc_1_85XPath15PSEUDONAME_TEXTE, i32 noundef %256)
          to label %259 unwind label %271

259:                                              ; preds = %257
  br i1 %258, label %344, label %273

260:                                              ; preds = %193, %191, %186
  %261 = landingpad { ptr, i32 }
          cleanup
  br label %349

262:                                              ; preds = %195
  %263 = landingpad { ptr, i32 }
          cleanup
  br label %269

264:                                              ; preds = %233, %227
  %265 = landingpad { ptr, i32 }
          cleanup
  %266 = load ptr, ptr %159, align 8, !tbaa !15
  %267 = icmp eq ptr %266, null
  br i1 %267, label %269, label %268

268:                                              ; preds = %264
  call void @_ZdlPv(ptr noundef nonnull %266) #18
  br label %269

269:                                              ; preds = %268, %264, %262
  %270 = phi { ptr, i32 } [ %263, %262 ], [ %265, %264 ], [ %265, %268 ]
  call void @llvm.lifetime.end.p0(i64 72, ptr nonnull %9) #18
  br label %349

271:                                              ; preds = %341, %344, %330, %328, %322, %314, %312, %306, %303, %301, %295, %292, %290, %284, %281, %279, %273, %257, %255, %247, %338, %321, %320, %319, %318, %317
  %272 = landingpad { ptr, i32 }
          cleanup
  br label %349

273:                                              ; preds = %259
  %274 = load ptr, ptr %148, align 8, !tbaa !22
  %275 = load ptr, ptr %164, align 8, !tbaa !22
  %276 = icmp eq ptr %274, %275
  %277 = select i1 %276, ptr @_ZN10xalanc_1_814XalanDOMString7s_emptyE, ptr %274
  %278 = invoke noundef i32 @_ZN10xalanc_1_814XalanDOMString6lengthEPKt(ptr noundef %277)
          to label %279 unwind label %271

279:                                              ; preds = %273
  %280 = invoke noundef i32 @_ZN10xalanc_1_814XalanDOMString6lengthEPKt(ptr noundef nonnull @_ZN10xalanc_1_85XPath18PSEUDONAME_COMMENTE)
          to label %281 unwind label %271

281:                                              ; preds = %279
  %282 = invoke noundef zeroext i1 @_ZN10xalanc_1_814XalanDOMString6equalsEPKtjS2_j(ptr noundef %277, i32 noundef %278, ptr noundef nonnull @_ZN10xalanc_1_85XPath18PSEUDONAME_COMMENTE, i32 noundef %280)
          to label %283 unwind label %271

283:                                              ; preds = %281
  br i1 %282, label %344, label %284

284:                                              ; preds = %283
  %285 = load ptr, ptr %148, align 8, !tbaa !22
  %286 = load ptr, ptr %164, align 8, !tbaa !22
  %287 = icmp eq ptr %285, %286
  %288 = select i1 %287, ptr @_ZN10xalanc_1_814XalanDOMString7s_emptyE, ptr %285
  %289 = invoke noundef i32 @_ZN10xalanc_1_814XalanDOMString6lengthEPKt(ptr noundef %288)
          to label %290 unwind label %271

290:                                              ; preds = %284
  %291 = invoke noundef i32 @_ZN10xalanc_1_814XalanDOMString6lengthEPKt(ptr noundef nonnull @_ZN10xalanc_1_85XPath15PSEUDONAME_ROOTE)
          to label %292 unwind label %271

292:                                              ; preds = %290
  %293 = invoke noundef zeroext i1 @_ZN10xalanc_1_814XalanDOMString6equalsEPKtjS2_j(ptr noundef %288, i32 noundef %289, ptr noundef nonnull @_ZN10xalanc_1_85XPath15PSEUDONAME_ROOTE, i32 noundef %291)
          to label %294 unwind label %271

294:                                              ; preds = %292
  br i1 %293, label %344, label %295

295:                                              ; preds = %294
  %296 = load ptr, ptr %148, align 8, !tbaa !22
  %297 = load ptr, ptr %164, align 8, !tbaa !22
  %298 = icmp eq ptr %296, %297
  %299 = select i1 %298, ptr @_ZN10xalanc_1_814XalanDOMString7s_emptyE, ptr %296
  %300 = invoke noundef i32 @_ZN10xalanc_1_814XalanDOMString6lengthEPKt(ptr noundef %299)
          to label %301 unwind label %271

301:                                              ; preds = %295
  %302 = invoke noundef i32 @_ZN10xalanc_1_814XalanDOMString6lengthEPKt(ptr noundef nonnull @_ZN10xalanc_1_85XPath13PSEUDONAME_PIE)
          to label %303 unwind label %271

303:                                              ; preds = %301
  %304 = invoke noundef zeroext i1 @_ZN10xalanc_1_814XalanDOMString6equalsEPKtjS2_j(ptr noundef %299, i32 noundef %300, ptr noundef nonnull @_ZN10xalanc_1_85XPath13PSEUDONAME_PIE, i32 noundef %302)
          to label %305 unwind label %271

305:                                              ; preds = %303
  br i1 %304, label %344, label %306

306:                                              ; preds = %305
  %307 = load ptr, ptr %148, align 8, !tbaa !22
  %308 = load ptr, ptr %164, align 8, !tbaa !22
  %309 = icmp eq ptr %307, %308
  %310 = select i1 %309, ptr @_ZN10xalanc_1_814XalanDOMString7s_emptyE, ptr %307
  %311 = invoke noundef i32 @_ZN10xalanc_1_814XalanDOMString6lengthEPKt(ptr noundef %310)
          to label %312 unwind label %271

312:                                              ; preds = %306
  %313 = invoke noundef i32 @_ZN10xalanc_1_814XalanDOMString6lengthEPKt(ptr noundef nonnull @_ZN10xalanc_1_85XPath15PSEUDONAME_NODEE)
          to label %314 unwind label %271

314:                                              ; preds = %312
  %315 = invoke noundef zeroext i1 @_ZN10xalanc_1_814XalanDOMString6equalsEPKtjS2_j(ptr noundef %310, i32 noundef %311, ptr noundef nonnull @_ZN10xalanc_1_85XPath15PSEUDONAME_NODEE, i32 noundef %313)
          to label %316 unwind label %271

316:                                              ; preds = %314
  br i1 %315, label %317, label %322

317:                                              ; preds = %316
  invoke fastcc void @_ZN10xalanc_1_8L9addToListERSt6vectorIPKNS_10Stylesheet13MatchPattern2ESaIS4_EES4_(ptr noundef nonnull align 8 dereferenceable(24) %169, ptr noundef nonnull %249)
          to label %318 unwind label %271

