; ModuleID = 'XalanCDataSection.cpp'
source_filename = "XalanCDataSection.cpp"
target datalayout = "e-m:e-p270:32:32-p271:32:32-p272:64:64-i64:64-f80:128-n8:16:32:64-S128"
target triple = "x86_64-unknown-linux-gnu"

@_ZTVN10xalanc_1_817XalanCDATASectionE = dso_local unnamed_addr constant { [39 x ptr] } { [39 x ptr] [ptr null, ptr @_ZTIN10xalanc_1_817XalanCDATASectionE, ptr @_ZN10xalanc_1_817XalanCDATASectionD2Ev, ptr @_ZN10xalanc_1_817XalanCDATASectionD0Ev, ptr @__cxa_pure_virtual, ptr @__cxa_pure_virtual, ptr @__cxa_pure_virtual, ptr @__cxa_pure_virtual, ptr @__cxa_pure_virtual, ptr @__cxa_pure_virtual, ptr @__cxa_pure_virtual, ptr @__cxa_pure_virtual, ptr @__cxa_pure_virtual, ptr @__cxa_pure_virtual, ptr @__cxa_pure_virtual, ptr @__cxa_pure_virtual, ptr @__cxa_pure_virtual, ptr @__cxa_pure_virtual, ptr @__cxa_pure_virtual, ptr @__cxa_pure_virtual, ptr @__cxa_pure_virtual, ptr @__cxa_pure_virtual, ptr @__cxa_pure_virtual, ptr @__cxa_pure_virtual, ptr @__cxa_pure_virtual, ptr @__cxa_pure_virtual, ptr @__cxa_pure_virtual, ptr @__cxa_pure_virtual, ptr @__cxa_pure_virtual, ptr @__cxa_pure_virtual, ptr @__cxa_pure_virtual, ptr @__cxa_pure_virtual, ptr @__cxa_pure_virtual, ptr @__cxa_pure_virtual, ptr @__cxa_pure_virtual, ptr @__cxa_pure_virtual, ptr @__cxa_pure_virtual, ptr @__cxa_pure_virtual, ptr @__cxa_pure_virtual] }, align 8, !type !0, !type !1, !type !2, !type !3, !type !4, !type !5, !type !6, !type !7, !type !8, !type !9, !type !10, !type !11, !type !12, !type !13, !type !14, !type !15, !type !16, !type !17, !type !18, !type !19, !type !20, !type !21, !type !22, !type !23, !type !24, !type !25, !type !26, !type !27, !type !28, !type !29, !type !30, !type !31, !type !32, !type !33, !type !34, !type !35, !type !36, !type !37, !type !38, !type !39, !type !40, !type !41, !type !42, !type !43, !type !44, !type !45, !type !46, !type !47, !type !48, !type !49, !type !50, !type !51, !type !52, !type !53, !type !54, !type !55, !type !56, !type !57, !type !58, !type !59, !type !60, !type !61, !type !62, !type !63, !type !64, !type !65, !type !66, !type !67, !type !68, !type !69, !type !70, !type !71, !type !72, !type !73, !type !74, !type !75, !type !76, !type !77, !type !78, !type !79, !type !80, !type !81, !type !82, !type !83, !type !84, !type !85, !type !86, !type !87, !type !88, !type !89, !type !90, !type !91, !type !92, !type !93, !type !94, !type !95, !type !96, !type !97, !type !98, !type !99, !type !100, !type !101, !type !102, !type !103, !type !104, !type !105, !type !106, !type !107, !type !108, !type !109, !type !110, !type !111, !type !112, !type !113, !type !114, !type !115, !type !116, !type !117, !type !118, !type !119, !type !120, !type !121, !type !122, !type !123, !type !124, !type !125, !type !126, !type !127, !type !128, !type !129, !type !130, !type !131, !type !132, !type !133, !type !134, !type !135, !type !136, !type !137, !type !138, !type !139, !type !140, !type !141, !type !142, !type !143
@_ZTVN10__cxxabiv120__si_class_type_infoE = external global ptr
@_ZTSN10xalanc_1_817XalanCDATASectionE = dso_local constant [34 x i8] c"N10xalanc_1_817XalanCDATASectionE\00", align 1
@_ZTIN10xalanc_1_89XalanTextE = external constant ptr
@_ZTIN10xalanc_1_817XalanCDATASectionE = dso_local constant { ptr, ptr, ptr } { ptr getelementptr inbounds (ptr, ptr @_ZTVN10__cxxabiv120__si_class_type_infoE, i64 2), ptr @_ZTSN10xalanc_1_817XalanCDATASectionE, ptr @_ZTIN10xalanc_1_89XalanTextE }, align 8

@_ZN10xalanc_1_817XalanCDATASectionD1Ev = dso_local unnamed_addr alias void (ptr), ptr @_ZN10xalanc_1_817XalanCDATASectionD2Ev

; Function Attrs: uwtable
define dso_local void @_ZN10xalanc_1_817XalanCDATASectionC2Ev(ptr noundef nonnull align 8 dereferenceable(8) %0) unnamed_addr #0 align 2 {
  tail call void @_ZN10xalanc_1_89XalanTextC2Ev(ptr noundef nonnull align 8 dereferenceable(8) %0)
  store ptr getelementptr inbounds ({ [39 x ptr] }, ptr @_ZTVN10xalanc_1_817XalanCDATASectionE, i64 0, inrange i32 0, i64 2), ptr %0, align 8, !tbaa !151
  ret void
}

declare void @_ZN10xalanc_1_89XalanTextC2Ev(ptr noundef nonnull align 8 dereferenceable(8)) unnamed_addr #1

declare void @_ZN10xalanc_1_89XalanTextD2Ev(ptr noundef nonnull align 8 dereferenceable(8)) unnamed_addr #1

; Function Attrs: uwtable
define dso_local void @_ZN10xalanc_1_817XalanCDATASectionD2Ev(ptr noundef nonnull align 8 dereferenceable(8) %0) unnamed_addr #0 align 2 {
  tail call void @_ZN10xalanc_1_89XalanTextD2Ev(ptr noundef nonnull align 8 dereferenceable(8) %0)
  ret void
}

; Function Attrs: noreturn nounwind uwtable
define dso_local void @_ZN10xalanc_1_817XalanCDATASectionD0Ev(ptr nocapture nonnull readnone align 8 %0) unnamed_addr #2 align 2 {
  tail call void @llvm.trap() #5
  unreachable
}

; Function Attrs: cold noreturn nounwind
declare void @llvm.trap() #3

; Function Attrs: uwtable
define dso_local void @_ZN10xalanc_1_817XalanCDATASectionC2ERKS0_(ptr noundef nonnull align 8 dereferenceable(8) %0, ptr noundef nonnull align 8 dereferenceable(8) %1) unnamed_addr #0 align 2 {
  tail call void @_ZN10xalanc_1_89XalanTextC2ERKS0_(ptr noundef nonnull align 8 dereferenceable(8) %0, ptr noundef nonnull align 8 dereferenceable(8) %1)
  store ptr getelementptr inbounds ({ [39 x ptr] }, ptr @_ZTVN10xalanc_1_817XalanCDATASectionE, i64 0, inrange i32 0, i64 2), ptr %0, align 8, !tbaa !151
  ret void
}

declare void @_ZN10xalanc_1_89XalanTextC2ERKS0_(ptr noundef nonnull align 8 dereferenceable(8), ptr noundef nonnull align 8 dereferenceable(8)) unnamed_addr #1

; Function Attrs: uwtable
define dso_local noundef nonnull align 8 dereferenceable(8) ptr @_ZN10xalanc_1_817XalanCDATASectionaSERKS0_(ptr noundef nonnull returned align 8 dereferenceable(8) %0, ptr noundef nonnull align 8 dereferenceable(8) %1) local_unnamed_addr #0 align 2 {
  %3 = tail call noundef nonnull align 8 dereferenceable(8) ptr @_ZN10xalanc_1_89XalanTextaSERKS0_(ptr noundef nonnull align 8 dereferenceable(8) %0, ptr noundef nonnull align 8 dereferenceable(8) %1)
  ret ptr %0
}

declare noundef nonnull align 8 dereferenceable(8) ptr @_ZN10xalanc_1_89XalanTextaSERKS0_(ptr noundef nonnull align 8 dereferenceable(8), ptr noundef nonnull align 8 dereferenceable(8)) local_unnamed_addr #1

; Function Attrs: mustprogress nofree norecurse nosync nounwind willreturn memory(none) uwtable
define dso_local noundef zeroext i1 @_ZNK10xalanc_1_817XalanCDATASectioneqERKS0_(ptr nocapture noundef nonnull readnone align 8 dereferenceable(8) %0, ptr nocapture noundef nonnull readnone align 8 dereferenceable(8) %1) local_unnamed_addr #4 align 2 {
  ret i1 false
}

declare void @__cxa_pure_virtual() unnamed_addr

attributes #0 = { uwtable "approx-func-fp-math"="true" "denormal-fp-math"="preserve-sign,preserve-sign" "min-legal-vector-width"="0" "no-infs-fp-math"="true" "no-nans-fp-math"="true" "no-signed-zeros-fp-math"="true" "no-trapping-math"="true" "stack-protector-buffer-size"="8" "target-cpu"="znver2" "target-features"="+adx,+aes,+avx,+avx2,+bmi,+bmi2,+clflushopt,+clwb,+clzero,+crc32,+cx16,+cx8,+f16c,+fma,+fsgsbase,+fxsr,+lzcnt,+mmx,+movbe,+mwaitx,+pclmul,+popcnt,+prfchw,+rdpid,+rdpru,+rdrnd,+rdseed,+sahf,+sha,+sse,+sse2,+sse3,+sse4.1,+sse4.2,+sse4a,+ssse3,+wbnoinvd,+x87,+xsave,+xsavec,+xsaveopt,+xsaves" }
attributes #1 = { "approx-func-fp-math"="true" "denormal-fp-math"="preserve-sign,preserve-sign" "no-infs-fp-math"="true" "no-nans-fp-math"="true" "no-signed-zeros-fp-math"="true" "no-trapping-math"="true" "stack-protector-buffer-size"="8" "target-cpu"="znver2" "target-features"="+adx,+aes,+avx,+avx2,+bmi,+bmi2,+clflushopt,+clwb,+clzero,+crc32,+cx16,+cx8,+f16c,+fma,+fsgsbase,+fxsr,+lzcnt,+mmx,+movbe,+mwaitx,+pclmul,+popcnt,+prfchw,+rdpid,+rdpru,+rdrnd,+rdseed,+sahf,+sha,+sse,+sse2,+sse3,+sse4.1,+sse4.2,+sse4a,+ssse3,+wbnoinvd,+x87,+xsave,+xsavec,+xsaveopt,+xsaves" }
attributes #2 = { noreturn nounwind uwtable "approx-func-fp-math"="true" "denormal-fp-math"="preserve-sign,preserve-sign" "min-legal-vector-width"="0" "no-infs-fp-math"="true" "no-nans-fp-math"="true" "no-signed-zeros-fp-math"="true" "no-trapping-math"="true" "stack-protector-buffer-size"="8" "target-cpu"="znver2" "target-features"="+adx,+aes,+avx,+avx2,+bmi,+bmi2,+clflushopt,+clwb,+clzero,+crc32,+cx16,+cx8,+f16c,+fma,+fsgsbase,+fxsr,+lzcnt,+mmx,+movbe,+mwaitx,+pclmul,+popcnt,+prfchw,+rdpid,+rdpru,+rdrnd,+rdseed,+sahf,+sha,+sse,+sse2,+sse3,+sse4.1,+sse4.2,+sse4a,+ssse3,+wbnoinvd,+x87,+xsave,+xsavec,+xsaveopt,+xsaves" }
attributes #3 = { cold noreturn nounwind }
attributes #4 = { mustprogress nofree norecurse nosync nounwind willreturn memory(none) uwtable "approx-func-fp-math"="true" "denormal-fp-math"="preserve-sign,preserve-sign" "min-legal-vector-width"="0" "no-infs-fp-math"="true" "no-nans-fp-math"="true" "no-signed-zeros-fp-math"="true" "no-trapping-math"="true" "stack-protector-buffer-size"="8" "target-cpu"="znver2" "target-features"="+adx,+aes,+avx,+avx2,+bmi,+bmi2,+clflushopt,+clwb,+clzero,+crc32,+cx16,+cx8,+f16c,+fma,+fsgsbase,+fxsr,+lzcnt,+mmx,+movbe,+mwaitx,+pclmul,+popcnt,+prfchw,+rdpid,+rdpru,+rdrnd,+rdseed,+sahf,+sha,+sse,+sse2,+sse3,+sse4.1,+sse4.2,+sse4a,+ssse3,+wbnoinvd,+x87,+xsave,+xsavec,+xsaveopt,+xsaves" }
attributes #5 = { noreturn nounwind }

!llvm.module.flags = !{!144, !145, !146, !147, !148, !149}
!llvm.ident = !{!150}

!0 = !{i64 16, !"_ZTSN10xalanc_1_817XalanCDATASectionE"}
!1 = !{i64 32, !"_ZTSMN10xalanc_1_817XalanCDATASectionEKFRKNS_14XalanDOMStringEvE.virtual"}
!2 = !{i64 40, !"_ZTSMN10xalanc_1_817XalanCDATASectionEKFRKNS_14XalanDOMStringEvE.virtual"}
!3 = !{i64 48, !"_ZTSMN10xalanc_1_817XalanCDATASectionEKFNS_9XalanNode8NodeTypeEvE.virtual"}
!4 = !{i64 56, !"_ZTSMN10xalanc_1_817XalanCDATASectionEKFPNS_9XalanNodeEvE.virtual"}
!5 = !{i64 64, !"_ZTSMN10xalanc_1_817XalanCDATASectionEKFPKNS_13XalanNodeListEvE.virtual"}
!6 = !{i64 72, !"_ZTSMN10xalanc_1_817XalanCDATASectionEKFPNS_9XalanNodeEvE.virtual"}
!7 = !{i64 80, !"_ZTSMN10xalanc_1_817XalanCDATASectionEKFPNS_9XalanNodeEvE.virtual"}
!8 = !{i64 88, !"_ZTSMN10xalanc_1_817XalanCDATASectionEKFPNS_9XalanNodeEvE.virtual"}
!9 = !{i64 96, !"_ZTSMN10xalanc_1_817XalanCDATASectionEKFPNS_9XalanNodeEvE.virtual"}
!10 = !{i64 104, !"_ZTSMN10xalanc_1_817XalanCDATASectionEKFPKNS_17XalanNamedNodeMapEvE.virtual"}
!11 = !{i64 112, !"_ZTSMN10xalanc_1_817XalanCDATASectionEKFPNS_13XalanDocumentEvE.virtual"}
!12 = !{i64 120, !"_ZTSMN10xalanc_1_817XalanCDATASectionEKFPS0_bE.virtual"}
!13 = !{i64 128, !"_ZTSMN10xalanc_1_817XalanCDATASectionEFPNS_9XalanNodeES2_S2_E.virtual"}
!14 = !{i64 136, !"_ZTSMN10xalanc_1_817XalanCDATASectionEFPNS_9XalanNodeES2_S2_E.virtual"}
!15 = !{i64 144, !"_ZTSMN10xalanc_1_817XalanCDATASectionEFPNS_9XalanNodeES2_E.virtual"}
!16 = !{i64 152, !"_ZTSMN10xalanc_1_817XalanCDATASectionEFPNS_9XalanNodeES2_E.virtual"}
!17 = !{i64 160, !"_ZTSMN10xalanc_1_817XalanCDATASectionEKFbvE.virtual"}
!18 = !{i64 168, !"_ZTSMN10xalanc_1_817XalanCDATASectionEFvRKNS_14XalanDOMStringEE.virtual"}
!19 = !{i64 176, !"_ZTSMN10xalanc_1_817XalanCDATASectionEFvvE.virtual"}
!20 = !{i64 184, !"_ZTSMN10xalanc_1_817XalanCDATASectionEKFbRKNS_14XalanDOMStringES3_E.virtual"}
!21 = !{i64 192, !"_ZTSMN10xalanc_1_817XalanCDATASectionEKFRKNS_14XalanDOMStringEvE.virtual"}
!22 = !{i64 200, !"_ZTSMN10xalanc_1_817XalanCDATASectionEKFRKNS_14XalanDOMStringEvE.virtual"}
!23 = !{i64 208, !"_ZTSMN10xalanc_1_817XalanCDATASectionEKFRKNS_14XalanDOMStringEvE.virtual"}
!24 = !{i64 216, !"_ZTSMN10xalanc_1_817XalanCDATASectionEFvRKNS_14XalanDOMStringEE.virtual"}
!25 = !{i64 224, !"_ZTSMN10xalanc_1_817XalanCDATASectionEKFbvE.virtual"}
!26 = !{i64 232, !"_ZTSMN10xalanc_1_817XalanCDATASectionEKFmvE.virtual"}
!27 = !{i64 240, !"_ZTSMN10xalanc_1_817XalanCDATASectionEKFRKNS_14XalanDOMStringEvE.virtual"}
!28 = !{i64 248, !"_ZTSMN10xalanc_1_817XalanCDATASectionEKFjvE.virtual"}
!29 = !{i64 256, !"_ZTSMN10xalanc_1_817XalanCDATASectionEKFNS_14XalanDOMStringEjjE.virtual"}
!30 = !{i64 264, !"_ZTSMN10xalanc_1_817XalanCDATASectionEFvRKNS_14XalanDOMStringEE.virtual"}
!31 = !{i64 272, !"_ZTSMN10xalanc_1_817XalanCDATASectionEFvjRKNS_14XalanDOMStringEE.virtual"}
!32 = !{i64 280, !"_ZTSMN10xalanc_1_817XalanCDATASectionEFvjjE.virtual"}
!33 = !{i64 288, !"_ZTSMN10xalanc_1_817XalanCDATASectionEFvjjRKNS_14XalanDOMStringEE.virtual"}
!34 = !{i64 296, !"_ZTSMN10xalanc_1_817XalanCDATASectionEFPNS_9XalanTextEjE.virtual"}
!35 = !{i64 304, !"_ZTSMN10xalanc_1_817XalanCDATASectionEKFbvE.virtual"}
!36 = !{i64 16, !"_ZTSN10xalanc_1_818XalanCharacterDataE"}
!37 = !{i64 32, !"_ZTSMN10xalanc_1_818XalanCharacterDataEKFRKNS_14XalanDOMStringEvE.virtual"}
!38 = !{i64 40, !"_ZTSMN10xalanc_1_818XalanCharacterDataEKFRKNS_14XalanDOMStringEvE.virtual"}
!39 = !{i64 48, !"_ZTSMN10xalanc_1_818XalanCharacterDataEKFNS_9XalanNode8NodeTypeEvE.virtual"}
!40 = !{i64 56, !"_ZTSMN10xalanc_1_818XalanCharacterDataEKFPNS_9XalanNodeEvE.virtual"}
!41 = !{i64 64, !"_ZTSMN10xalanc_1_818XalanCharacterDataEKFPKNS_13XalanNodeListEvE.virtual"}
!42 = !{i64 72, !"_ZTSMN10xalanc_1_818XalanCharacterDataEKFPNS_9XalanNodeEvE.virtual"}
!43 = !{i64 80, !"_ZTSMN10xalanc_1_818XalanCharacterDataEKFPNS_9XalanNodeEvE.virtual"}
!44 = !{i64 88, !"_ZTSMN10xalanc_1_818XalanCharacterDataEKFPNS_9XalanNodeEvE.virtual"}
!45 = !{i64 96, !"_ZTSMN10xalanc_1_818XalanCharacterDataEKFPNS_9XalanNodeEvE.virtual"}
!46 = !{i64 104, !"_ZTSMN10xalanc_1_818XalanCharacterDataEKFPKNS_17XalanNamedNodeMapEvE.virtual"}
!47 = !{i64 112, !"_ZTSMN10xalanc_1_818XalanCharacterDataEKFPNS_13XalanDocumentEvE.virtual"}
!48 = !{i64 120, !"_ZTSMN10xalanc_1_818XalanCharacterDataEKFPNS_17XalanCDATASectionEbE.virtual"}
!49 = !{i64 128, !"_ZTSMN10xalanc_1_818XalanCharacterDataEFPNS_9XalanNodeES2_S2_E.virtual"}
!50 = !{i64 136, !"_ZTSMN10xalanc_1_818XalanCharacterDataEFPNS_9XalanNodeES2_S2_E.virtual"}
!51 = !{i64 144, !"_ZTSMN10xalanc_1_818XalanCharacterDataEFPNS_9XalanNodeES2_E.virtual"}
!52 = !{i64 152, !"_ZTSMN10xalanc_1_818XalanCharacterDataEFPNS_9XalanNodeES2_E.virtual"}
!53 = !{i64 160, !"_ZTSMN10xalanc_1_818XalanCharacterDataEKFbvE.virtual"}
!54 = !{i64 168, !"_ZTSMN10xalanc_1_818XalanCharacterDataEFvRKNS_14XalanDOMStringEE.virtual"}
!55 = !{i64 176, !"_ZTSMN10xalanc_1_818XalanCharacterDataEFvvE.virtual"}
!56 = !{i64 184, !"_ZTSMN10xalanc_1_818XalanCharacterDataEKFbRKNS_14XalanDOMStringES3_E.virtual"}
!57 = !{i64 192, !"_ZTSMN10xalanc_1_818XalanCharacterDataEKFRKNS_14XalanDOMStringEvE.virtual"}
!58 = !{i64 200, !"_ZTSMN10xalanc_1_818XalanCharacterDataEKFRKNS_14XalanDOMStringEvE.virtual"}
!59 = !{i64 208, !"_ZTSMN10xalanc_1_818XalanCharacterDataEKFRKNS_14XalanDOMStringEvE.virtual"}
!60 = !{i64 216, !"_ZTSMN10xalanc_1_818XalanCharacterDataEFvRKNS_14XalanDOMStringEE.virtual"}
!61 = !{i64 224, !"_ZTSMN10xalanc_1_818XalanCharacterDataEKFbvE.virtual"}
!62 = !{i64 232, !"_ZTSMN10xalanc_1_818XalanCharacterDataEKFmvE.virtual"}
!63 = !{i64 240, !"_ZTSMN10xalanc_1_818XalanCharacterDataEKFRKNS_14XalanDOMStringEvE.virtual"}
!64 = !{i64 248, !"_ZTSMN10xalanc_1_818XalanCharacterDataEKFjvE.virtual"}
!65 = !{i64 256, !"_ZTSMN10xalanc_1_818XalanCharacterDataEKFNS_14XalanDOMStringEjjE.virtual"}
!66 = !{i64 264, !"_ZTSMN10xalanc_1_818XalanCharacterDataEFvRKNS_14XalanDOMStringEE.virtual"}
!67 = !{i64 272, !"_ZTSMN10xalanc_1_818XalanCharacterDataEFvjRKNS_14XalanDOMStringEE.virtual"}
!68 = !{i64 280, !"_ZTSMN10xalanc_1_818XalanCharacterDataEFvjjE.virtual"}
!69 = !{i64 288, !"_ZTSMN10xalanc_1_818XalanCharacterDataEFvjjRKNS_14XalanDOMStringEE.virtual"}
!70 = !{i64 296, !"_ZTSMN10xalanc_1_818XalanCharacterDataEFPNS_9XalanTextEjE.virtual"}
!71 = !{i64 304, !"_ZTSMN10xalanc_1_818XalanCharacterDataEKFbvE.virtual"}
!72 = !{i64 16, !"_ZTSN10xalanc_1_89XalanNodeE"}
!73 = !{i64 32, !"_ZTSMN10xalanc_1_89XalanNodeEKFRKNS_14XalanDOMStringEvE.virtual"}
!74 = !{i64 40, !"_ZTSMN10xalanc_1_89XalanNodeEKFRKNS_14XalanDOMStringEvE.virtual"}
!75 = !{i64 48, !"_ZTSMN10xalanc_1_89XalanNodeEKFNS0_8NodeTypeEvE.virtual"}
!76 = !{i64 56, !"_ZTSMN10xalanc_1_89XalanNodeEKFPS0_vE.virtual"}
!77 = !{i64 64, !"_ZTSMN10xalanc_1_89XalanNodeEKFPKNS_13XalanNodeListEvE.virtual"}
!78 = !{i64 72, !"_ZTSMN10xalanc_1_89XalanNodeEKFPS0_vE.virtual"}
!79 = !{i64 80, !"_ZTSMN10xalanc_1_89XalanNodeEKFPS0_vE.virtual"}
!80 = !{i64 88, !"_ZTSMN10xalanc_1_89XalanNodeEKFPS0_vE.virtual"}
!81 = !{i64 96, !"_ZTSMN10xalanc_1_89XalanNodeEKFPS0_vE.virtual"}
!82 = !{i64 104, !"_ZTSMN10xalanc_1_89XalanNodeEKFPKNS_17XalanNamedNodeMapEvE.virtual"}
!83 = !{i64 112, !"_ZTSMN10xalanc_1_89XalanNodeEKFPNS_13XalanDocumentEvE.virtual"}
!84 = !{i64 120, !"_ZTSMN10xalanc_1_89XalanNodeEKFPNS_17XalanCDATASectionEbE.virtual"}
!85 = !{i64 128, !"_ZTSMN10xalanc_1_89XalanNodeEFPS0_S1_S1_E.virtual"}
!86 = !{i64 136, !"_ZTSMN10xalanc_1_89XalanNodeEFPS0_S1_S1_E.virtual"}
!87 = !{i64 144, !"_ZTSMN10xalanc_1_89XalanNodeEFPS0_S1_E.virtual"}
!88 = !{i64 152, !"_ZTSMN10xalanc_1_89XalanNodeEFPS0_S1_E.virtual"}
!89 = !{i64 160, !"_ZTSMN10xalanc_1_89XalanNodeEKFbvE.virtual"}
!90 = !{i64 168, !"_ZTSMN10xalanc_1_89XalanNodeEFvRKNS_14XalanDOMStringEE.virtual"}
!91 = !{i64 176, !"_ZTSMN10xalanc_1_89XalanNodeEFvvE.virtual"}
!92 = !{i64 184, !"_ZTSMN10xalanc_1_89XalanNodeEKFbRKNS_14XalanDOMStringES3_E.virtual"}
!93 = !{i64 192, !"_ZTSMN10xalanc_1_89XalanNodeEKFRKNS_14XalanDOMStringEvE.virtual"}
!94 = !{i64 200, !"_ZTSMN10xalanc_1_89XalanNodeEKFRKNS_14XalanDOMStringEvE.virtual"}
!95 = !{i64 208, !"_ZTSMN10xalanc_1_89XalanNodeEKFRKNS_14XalanDOMStringEvE.virtual"}
!96 = !{i64 216, !"_ZTSMN10xalanc_1_89XalanNodeEFvRKNS_14XalanDOMStringEE.virtual"}
!97 = !{i64 224, !"_ZTSMN10xalanc_1_89XalanNodeEKFbvE.virtual"}
!98 = !{i64 232, !"_ZTSMN10xalanc_1_89XalanNodeEKFmvE.virtual"}
!99 = !{i64 240, !"_ZTSMN10xalanc_1_89XalanNodeEKFRKNS_14XalanDOMStringEvE.virtual"}
!100 = !{i64 248, !"_ZTSMN10xalanc_1_89XalanNodeEKFjvE.virtual"}
!101 = !{i64 256, !"_ZTSMN10xalanc_1_89XalanNodeEKFNS_14XalanDOMStringEjjE.virtual"}
!102 = !{i64 264, !"_ZTSMN10xalanc_1_89XalanNodeEFvRKNS_14XalanDOMStringEE.virtual"}
!103 = !{i64 272, !"_ZTSMN10xalanc_1_89XalanNodeEFvjRKNS_14XalanDOMStringEE.virtual"}
!104 = !{i64 280, !"_ZTSMN10xalanc_1_89XalanNodeEFvjjE.virtual"}
!105 = !{i64 288, !"_ZTSMN10xalanc_1_89XalanNodeEFvjjRKNS_14XalanDOMStringEE.virtual"}
!106 = !{i64 296, !"_ZTSMN10xalanc_1_89XalanNodeEFPNS_9XalanTextEjE.virtual"}
!107 = !{i64 304, !"_ZTSMN10xalanc_1_89XalanNodeEKFbvE.virtual"}
!108 = !{i64 16, !"_ZTSN10xalanc_1_89XalanTextE"}
!109 = !{i64 32, !"_ZTSMN10xalanc_1_89XalanTextEKFRKNS_14XalanDOMStringEvE.virtual"}
!110 = !{i64 40, !"_ZTSMN10xalanc_1_89XalanTextEKFRKNS_14XalanDOMStringEvE.virtual"}
!111 = !{i64 48, !"_ZTSMN10xalanc_1_89XalanTextEKFNS_9XalanNode8NodeTypeEvE.virtual"}
!112 = !{i64 56, !"_ZTSMN10xalanc_1_89XalanTextEKFPNS_9XalanNodeEvE.virtual"}
!113 = !{i64 64, !"_ZTSMN10xalanc_1_89XalanTextEKFPKNS_13XalanNodeListEvE.virtual"}
!114 = !{i64 72, !"_ZTSMN10xalanc_1_89XalanTextEKFPNS_9XalanNodeEvE.virtual"}
!115 = !{i64 80, !"_ZTSMN10xalanc_1_89XalanTextEKFPNS_9XalanNodeEvE.virtual"}
!116 = !{i64 88, !"_ZTSMN10xalanc_1_89XalanTextEKFPNS_9XalanNodeEvE.virtual"}
!117 = !{i64 96, !"_ZTSMN10xalanc_1_89XalanTextEKFPNS_9XalanNodeEvE.virtual"}
!118 = !{i64 104, !"_ZTSMN10xalanc_1_89XalanTextEKFPKNS_17XalanNamedNodeMapEvE.virtual"}
!119 = !{i64 112, !"_ZTSMN10xalanc_1_89XalanTextEKFPNS_13XalanDocumentEvE.virtual"}
!120 = !{i64 120, !"_ZTSMN10xalanc_1_89XalanTextEKFPNS_17XalanCDATASectionEbE.virtual"}
!121 = !{i64 128, !"_ZTSMN10xalanc_1_89XalanTextEFPNS_9XalanNodeES2_S2_E.virtual"}
!122 = !{i64 136, !"_ZTSMN10xalanc_1_89XalanTextEFPNS_9XalanNodeES2_S2_E.virtual"}
!123 = !{i64 144, !"_ZTSMN10xalanc_1_89XalanTextEFPNS_9XalanNodeES2_E.virtual"}
!124 = !{i64 152, !"_ZTSMN10xalanc_1_89XalanTextEFPNS_9XalanNodeES2_E.virtual"}
!125 = !{i64 160, !"_ZTSMN10xalanc_1_89XalanTextEKFbvE.virtual"}
!126 = !{i64 168, !"_ZTSMN10xalanc_1_89XalanTextEFvRKNS_14XalanDOMStringEE.virtual"}
!127 = !{i64 176, !"_ZTSMN10xalanc_1_89XalanTextEFvvE.virtual"}
!128 = !{i64 184, !"_ZTSMN10xalanc_1_89XalanTextEKFbRKNS_14XalanDOMStringES3_E.virtual"}
!129 = !{i64 192, !"_ZTSMN10xalanc_1_89XalanTextEKFRKNS_14XalanDOMStringEvE.virtual"}
!130 = !{i64 200, !"_ZTSMN10xalanc_1_89XalanTextEKFRKNS_14XalanDOMStringEvE.virtual"}
!131 = !{i64 208, !"_ZTSMN10xalanc_1_89XalanTextEKFRKNS_14XalanDOMStringEvE.virtual"}
!132 = !{i64 216, !"_ZTSMN10xalanc_1_89XalanTextEFvRKNS_14XalanDOMStringEE.virtual"}
!133 = !{i64 224, !"_ZTSMN10xalanc_1_89XalanTextEKFbvE.virtual"}
!134 = !{i64 232, !"_ZTSMN10xalanc_1_89XalanTextEKFmvE.virtual"}
!135 = !{i64 240, !"_ZTSMN10xalanc_1_89XalanTextEKFRKNS_14XalanDOMStringEvE.virtual"}
!136 = !{i64 248, !"_ZTSMN10xalanc_1_89XalanTextEKFjvE.virtual"}
!137 = !{i64 256, !"_ZTSMN10xalanc_1_89XalanTextEKFNS_14XalanDOMStringEjjE.virtual"}
!138 = !{i64 264, !"_ZTSMN10xalanc_1_89XalanTextEFvRKNS_14XalanDOMStringEE.virtual"}
!139 = !{i64 272, !"_ZTSMN10xalanc_1_89XalanTextEFvjRKNS_14XalanDOMStringEE.virtual"}
!140 = !{i64 280, !"_ZTSMN10xalanc_1_89XalanTextEFvjjE.virtual"}
!141 = !{i64 288, !"_ZTSMN10xalanc_1_89XalanTextEFvjjRKNS_14XalanDOMStringEE.virtual"}
!142 = !{i64 296, !"_ZTSMN10xalanc_1_89XalanTextEFPS0_jE.virtual"}
!143 = !{i64 304, !"_ZTSMN10xalanc_1_89XalanTextEKFbvE.virtual"}
!144 = !{i32 1, !"wchar_size", i32 4}
!145 = !{i32 8, !"PIC Level", i32 2}
!146 = !{i32 7, !"PIE Level", i32 2}
!147 = !{i32 7, !"uwtable", i32 2}
!148 = !{i32 1, !"ThinLTO", i32 0}
!149 = !{i32 1, !"EnableSplitLTOUnit", i32 1}
!150 = !{!"clang version 17.0.0 (git@github.com:llvm/llvm-project.git cff7a7747db02d1214b20e98677e5ddcb402ffe0)"}
!151 = !{!152, !152, i64 0}
!152 = !{!"vtable pointer", !153, i64 0}
!153 = !{!"Simple C++ TBAA"}

^0 = module: (path: "", hash: (0, 0, 0, 0, 0))
^1 = gv: (name: "_ZTVN10xalanc_1_817XalanCDATASectionE", summaries: (variable: (module: ^0, flags: (linkage: external, visibility: default, notEligibleToImport: 1, live: 0, dsoLocal: 1, canAutoHide: 0), varFlags: (readonly: 1, writeonly: 0, constant: 1), refs: (^14, ^9, ^8, ^13)))) ; guid = 4938358709704091808
^2 = gv: (name: "_ZN10xalanc_1_817XalanCDATASectionaSERKS0_", summaries: (function: (module: ^0, flags: (linkage: external, visibility: default, notEligibleToImport: 1, live: 0, dsoLocal: 1, canAutoHide: 0), insts: 2, calls: ((callee: ^15, relbf: 256))))) ; guid = 6779317119894604173
^3 = gv: (name: "_ZN10xalanc_1_89XalanTextC2Ev") ; guid = 7582588007791536806
^4 = gv: (name: "_ZN10xalanc_1_817XalanCDATASectionD1Ev", summaries: (alias: (module: ^0, flags: (linkage: external, visibility: default, notEligibleToImport: 1, live: 0, dsoLocal: 1, canAutoHide: 0), aliasee: ^9))) ; guid = 8594302100418457436
^5 = gv: (name: "_ZNK10xalanc_1_817XalanCDATASectioneqERKS0_", summaries: (function: (module: ^0, flags: (linkage: external, visibility: default, notEligibleToImport: 1, live: 0, dsoLocal: 1, canAutoHide: 0), insts: 1, funcFlags: (readNone: 1, readOnly: 0, noRecurse: 1, returnDoesNotAlias: 0, noInline: 0, alwaysInline: 0, noUnwind: 1, mayThrow: 0, hasUnknownCall: 0, mustBeUnreachable: 0)))) ; guid = 9800302268825910976
^6 = gv: (name: "_ZN10xalanc_1_89XalanTextD2Ev") ; guid = 10743956340424288538
^7 = gv: (name: "_ZTVN10__cxxabiv120__si_class_type_infoE") ; guid = 10873349890511596996
^8 = gv: (name: "_ZN10xalanc_1_817XalanCDATASectionD0Ev", summaries: (function: (module: ^0, flags: (linkage: external, visibility: default, notEligibleToImport: 1, live: 0, dsoLocal: 1, canAutoHide: 0), insts: 2, funcFlags: (readNone: 0, readOnly: 0, noRecurse: 0, returnDoesNotAlias: 0, noInline: 0, alwaysInline: 0, noUnwind: 1, mayThrow: 0, hasUnknownCall: 0, mustBeUnreachable: 1)))) ; guid = 11045434853189589972
^9 = gv: (name: "_ZN10xalanc_1_817XalanCDATASectionD2Ev", summaries: (function: (module: ^0, flags: (linkage: external, visibility: default, notEligibleToImport: 1, live: 0, dsoLocal: 1, canAutoHide: 0), insts: 2, calls: ((callee: ^6, relbf: 256))))) ; guid = 12764640513918579899
^10 = gv: (name: "_ZTIN10xalanc_1_89XalanTextE") ; guid = 13323875252782285670
^11 = gv: (name: "_ZN10xalanc_1_817XalanCDATASectionC2ERKS0_", summaries: (function: (module: ^0, flags: (linkage: external, visibility: default, notEligibleToImport: 1, live: 0, dsoLocal: 1, canAutoHide: 0), insts: 3, calls: ((callee: ^12, relbf: 256)), refs: (^1)))) ; guid = 13887576737882260303
^12 = gv: (name: "_ZN10xalanc_1_89XalanTextC2ERKS0_") ; guid = 14157288661402471607
^13 = gv: (name: "__cxa_pure_virtual") ; guid = 15445200097692986839
^14 = gv: (name: "_ZTIN10xalanc_1_817XalanCDATASectionE", summaries: (variable: (module: ^0, flags: (linkage: external, visibility: default, notEligibleToImport: 1, live: 0, dsoLocal: 1, canAutoHide: 0), varFlags: (readonly: 1, writeonly: 0, constant: 1), refs: (^16, ^10, ^7)))) ; guid = 16342787953320827771
^15 = gv: (name: "_ZN10xalanc_1_89XalanTextaSERKS0_") ; guid = 16576263520923407692
^16 = gv: (name: "_ZTSN10xalanc_1_817XalanCDATASectionE", summaries: (variable: (module: ^0, flags: (linkage: external, visibility: default, notEligibleToImport: 1, live: 0, dsoLocal: 1, canAutoHide: 0), varFlags: (readonly: 1, writeonly: 0, constant: 1)))) ; guid = 16836938751833932419
^17 = gv: (name: "_ZN10xalanc_1_817XalanCDATASectionC2Ev", summaries: (function: (module: ^0, flags: (linkage: external, visibility: default, notEligibleToImport: 1, live: 0, dsoLocal: 1, canAutoHide: 0), insts: 3, calls: ((callee: ^3, relbf: 256)), refs: (^1)))) ; guid = 17785241554992130027
^18 = flags: 8
^19 = blockcount: 0
