; ModuleID = 'XMLString.cpp'
source_filename = "XMLString.cpp"
target datalayout = "e-m:e-p270:32:32-p271:32:32-p272:64:64-i64:64-f80:128-n8:16:32:64-S128"
target triple = "x86_64-unknown-linux-gnu"

%"class.xercesc_2_5::ArrayJanitor" = type { ptr, ptr }
%"class.xercesc_2_5::ArrayJanitor.0" = type { ptr, ptr }
%"class.xercesc_2_5::BaseRefVectorOf" = type { ptr, i8, i32, i32, ptr, ptr }
%"class.xercesc_2_5::XMLException" = type { ptr, i32, ptr, i32, ptr, ptr }

$_ZN11xercesc_2_524IllegalArgumentExceptionC2EPKcjNS_10XMLExcepts5CodesEPNS_13MemoryManagerE = comdat any

$_ZN11xercesc_2_516RuntimeExceptionC2EPKcjNS_10XMLExcepts5CodesEPNS_13MemoryManagerE = comdat any

$_ZN11xercesc_2_530ArrayIndexOutOfBoundsExceptionC2EPKcjNS_10XMLExcepts5CodesEPNS_13MemoryManagerE = comdat any

$_ZN11xercesc_2_512ArrayJanitorItED2Ev = comdat any

$_ZN11xercesc_2_512ArrayJanitorIcED2Ev = comdat any

$__clang_call_terminate = comdat any

$_ZN11xercesc_2_521NumberFormatExceptionC2EPKcjNS_10XMLExcepts5CodesEPNS_13MemoryManagerE = comdat any

$_ZN11xercesc_2_524IllegalArgumentExceptionD0Ev = comdat any

$_ZNK11xercesc_2_524IllegalArgumentException7getTypeEv = comdat any

$_ZNK11xercesc_2_524IllegalArgumentException9duplicateEv = comdat any

$_ZN11xercesc_2_516RuntimeExceptionD0Ev = comdat any

$_ZNK11xercesc_2_516RuntimeException7getTypeEv = comdat any

$_ZNK11xercesc_2_516RuntimeException9duplicateEv = comdat any

$_ZN11xercesc_2_530ArrayIndexOutOfBoundsExceptionD0Ev = comdat any

$_ZNK11xercesc_2_530ArrayIndexOutOfBoundsException7getTypeEv = comdat any

$_ZNK11xercesc_2_530ArrayIndexOutOfBoundsException9duplicateEv = comdat any

$_ZN11xercesc_2_521NumberFormatExceptionD0Ev = comdat any

$_ZNK11xercesc_2_521NumberFormatException7getTypeEv = comdat any

$_ZNK11xercesc_2_521NumberFormatException9duplicateEv = comdat any

$_ZN11xercesc_2_516RefArrayVectorOfItED2Ev = comdat any

$_ZN11xercesc_2_516RefArrayVectorOfItED0Ev = comdat any

$_ZN11xercesc_2_516RefArrayVectorOfItE12setElementAtEPtj = comdat any

$_ZN11xercesc_2_516RefArrayVectorOfItE17removeAllElementsEv = comdat any

$_ZN11xercesc_2_516RefArrayVectorOfItE15removeElementAtEj = comdat any

$_ZN11xercesc_2_516RefArrayVectorOfItE17removeLastElementEv = comdat any

$_ZN11xercesc_2_516RefArrayVectorOfItE7cleanupEv = comdat any

$_ZN11xercesc_2_515BaseRefVectorOfItED2Ev = comdat any

$_ZN11xercesc_2_515BaseRefVectorOfItED0Ev = comdat any

$_ZN11xercesc_2_515BaseRefVectorOfItE12setElementAtEPtj = comdat any

$_ZN11xercesc_2_515BaseRefVectorOfItE17removeAllElementsEv = comdat any

$_ZN11xercesc_2_515BaseRefVectorOfItE15removeElementAtEj = comdat any

$_ZN11xercesc_2_515BaseRefVectorOfItE17removeLastElementEv = comdat any

$_ZN11xercesc_2_515BaseRefVectorOfItE7cleanupEv = comdat any

$_ZTSN11xercesc_2_524IllegalArgumentExceptionE = comdat any

$_ZTIN11xercesc_2_524IllegalArgumentExceptionE = comdat any

$_ZTSN11xercesc_2_516RuntimeExceptionE = comdat any

$_ZTIN11xercesc_2_516RuntimeExceptionE = comdat any

$_ZTSN11xercesc_2_530ArrayIndexOutOfBoundsExceptionE = comdat any

$_ZTIN11xercesc_2_530ArrayIndexOutOfBoundsExceptionE = comdat any

$_ZTSN11xercesc_2_521NumberFormatExceptionE = comdat any

$_ZTIN11xercesc_2_521NumberFormatExceptionE = comdat any

$_ZTVN11xercesc_2_524IllegalArgumentExceptionE = comdat any

$_ZTVN11xercesc_2_516RuntimeExceptionE = comdat any

$_ZTVN11xercesc_2_530ArrayIndexOutOfBoundsExceptionE = comdat any

$_ZTVN11xercesc_2_521NumberFormatExceptionE = comdat any

$_ZTVN11xercesc_2_516RefArrayVectorOfItEE = comdat any

$_ZTSN11xercesc_2_516RefArrayVectorOfItEE = comdat any

$_ZTSN11xercesc_2_515BaseRefVectorOfItEE = comdat any

$_ZTSN11xercesc_2_57XMemoryE = comdat any

$_ZTIN11xercesc_2_57XMemoryE = comdat any

$_ZTIN11xercesc_2_515BaseRefVectorOfItEE = comdat any

$_ZTIN11xercesc_2_516RefArrayVectorOfItEE = comdat any

$_ZTVN11xercesc_2_515BaseRefVectorOfItEE = comdat any

@_ZN11xercesc_2_59XMLString15fgMemoryManagerE = dso_local local_unnamed_addr global ptr null, align 8
@_ZZN11xercesc_2_59XMLString9binToTextEmPcjjPNS_13MemoryManagerEE9digitList = internal unnamed_addr constant [16 x i8] c"0123456789ABCDEF", align 16
@.str = private unnamed_addr constant [14 x i8] c"XMLString.cpp\00", align 1
@_ZTVN10__cxxabiv120__si_class_type_infoE = external global ptr
@_ZTSN11xercesc_2_524IllegalArgumentExceptionE = linkonce_odr dso_local constant [42 x i8] c"N11xercesc_2_524IllegalArgumentExceptionE\00", comdat, align 1
@_ZTIN11xercesc_2_512XMLExceptionE = external constant ptr
@_ZTIN11xercesc_2_524IllegalArgumentExceptionE = linkonce_odr dso_local constant { ptr, ptr, ptr } { ptr getelementptr inbounds (ptr, ptr @_ZTVN10__cxxabiv120__si_class_type_infoE, i64 2), ptr @_ZTSN11xercesc_2_524IllegalArgumentExceptionE, ptr @_ZTIN11xercesc_2_512XMLExceptionE }, comdat, align 8
@_ZTSN11xercesc_2_516RuntimeExceptionE = linkonce_odr dso_local constant [34 x i8] c"N11xercesc_2_516RuntimeExceptionE\00", comdat, align 1
@_ZTIN11xercesc_2_516RuntimeExceptionE = linkonce_odr dso_local constant { ptr, ptr, ptr } { ptr getelementptr inbounds (ptr, ptr @_ZTVN10__cxxabiv120__si_class_type_infoE, i64 2), ptr @_ZTSN11xercesc_2_516RuntimeExceptionE, ptr @_ZTIN11xercesc_2_512XMLExceptionE }, comdat, align 8
@_ZTSN11xercesc_2_530ArrayIndexOutOfBoundsExceptionE = linkonce_odr dso_local constant [48 x i8] c"N11xercesc_2_530ArrayIndexOutOfBoundsExceptionE\00", comdat, align 1
@_ZTIN11xercesc_2_530ArrayIndexOutOfBoundsExceptionE = linkonce_odr dso_local constant { ptr, ptr, ptr } { ptr getelementptr inbounds (ptr, ptr @_ZTVN10__cxxabiv120__si_class_type_infoE, i64 2), ptr @_ZTSN11xercesc_2_530ArrayIndexOutOfBoundsExceptionE, ptr @_ZTIN11xercesc_2_512XMLExceptionE }, comdat, align 8
@_ZN11xercesc_2_5L8gNullStrE = internal unnamed_addr constant [7 x i16] [i16 123, i16 110, i16 117, i16 108, i16 108, i16 125, i16 0], align 2
@_ZN11xercesc_2_5L11gTranscoderE = internal unnamed_addr global ptr null, align 8
@_ZZN11xercesc_2_59XMLString9binToTextEmPtjjPNS_13MemoryManagerEE9digitList = internal unnamed_addr constant [16 x i16] [i16 48, i16 49, i16 50, i16 51, i16 52, i16 53, i16 54, i16 55, i16 56, i16 57, i16 65, i16 66, i16 67, i16 68, i16 101, i16 70], align 16
@_ZN11xercesc_2_516XMLPlatformUtils14fgTransServiceE = external local_unnamed_addr global ptr, align 8
@_ZTSN11xercesc_2_521NumberFormatExceptionE = linkonce_odr dso_local constant [39 x i8] c"N11xercesc_2_521NumberFormatExceptionE\00", comdat, align 1
@_ZTIN11xercesc_2_521NumberFormatExceptionE = linkonce_odr dso_local constant { ptr, ptr, ptr } { ptr getelementptr inbounds (ptr, ptr @_ZTVN10__cxxabiv120__si_class_type_infoE, i64 2), ptr @_ZTSN11xercesc_2_521NumberFormatExceptionE, ptr @_ZTIN11xercesc_2_512XMLExceptionE }, comdat, align 8
@_ZTVN10__cxxabiv117__class_type_infoE = external global ptr
@_ZTVN11xercesc_2_524IllegalArgumentExceptionE = linkonce_odr dso_local unnamed_addr constant { [6 x ptr] } { [6 x ptr] [ptr null, ptr @_ZTIN11xercesc_2_524IllegalArgumentExceptionE, ptr @_ZN11xercesc_2_512XMLExceptionD2Ev, ptr @_ZN11xercesc_2_524IllegalArgumentExceptionD0Ev, ptr @_ZNK11xercesc_2_524IllegalArgumentException7getTypeEv, ptr @_ZNK11xercesc_2_524IllegalArgumentException9duplicateEv] }, comdat, align 8, !type !0, !type !1, !type !2, !type !3, !type !4, !type !5
@_ZN11xercesc_2_56XMLUni31fgIllegalArgumentException_NameE = external constant [0 x i16], align 2
@_ZTVN11xercesc_2_516RuntimeExceptionE = linkonce_odr dso_local unnamed_addr constant { [6 x ptr] } { [6 x ptr] [ptr null, ptr @_ZTIN11xercesc_2_516RuntimeExceptionE, ptr @_ZN11xercesc_2_512XMLExceptionD2Ev, ptr @_ZN11xercesc_2_516RuntimeExceptionD0Ev, ptr @_ZNK11xercesc_2_516RuntimeException7getTypeEv, ptr @_ZNK11xercesc_2_516RuntimeException9duplicateEv] }, comdat, align 8, !type !0, !type !1, !type !2, !type !6, !type !7, !type !8
@_ZN11xercesc_2_56XMLUni23fgRuntimeException_NameE = external constant [0 x i16], align 2
@_ZTVN11xercesc_2_530ArrayIndexOutOfBoundsExceptionE = linkonce_odr dso_local unnamed_addr constant { [6 x ptr] } { [6 x ptr] [ptr null, ptr @_ZTIN11xercesc_2_530ArrayIndexOutOfBoundsExceptionE, ptr @_ZN11xercesc_2_512XMLExceptionD2Ev, ptr @_ZN11xercesc_2_530ArrayIndexOutOfBoundsExceptionD0Ev, ptr @_ZNK11xercesc_2_530ArrayIndexOutOfBoundsException7getTypeEv, ptr @_ZNK11xercesc_2_530ArrayIndexOutOfBoundsException9duplicateEv] }, comdat, align 8, !type !0, !type !1, !type !2, !type !9, !type !10, !type !11
@_ZN11xercesc_2_56XMLUni37fgArrayIndexOutOfBoundsException_NameE = external constant [0 x i16], align 2
@_ZTVN11xercesc_2_521NumberFormatExceptionE = linkonce_odr dso_local unnamed_addr constant { [6 x ptr] } { [6 x ptr] [ptr null, ptr @_ZTIN11xercesc_2_521NumberFormatExceptionE, ptr @_ZN11xercesc_2_512XMLExceptionD2Ev, ptr @_ZN11xercesc_2_521NumberFormatExceptionD0Ev, ptr @_ZNK11xercesc_2_521NumberFormatException7getTypeEv, ptr @_ZNK11xercesc_2_521NumberFormatException9duplicateEv] }, comdat, align 8, !type !0, !type !1, !type !2, !type !12, !type !13, !type !14
@_ZN11xercesc_2_56XMLUni28fgNumberFormatException_NameE = external constant [0 x i16], align 2
@_ZTVN11xercesc_2_516RefArrayVectorOfItEE = linkonce_odr dso_local unnamed_addr constant { [9 x ptr] } { [9 x ptr] [ptr null, ptr @_ZTIN11xercesc_2_516RefArrayVectorOfItEE, ptr @_ZN11xercesc_2_516RefArrayVectorOfItED2Ev, ptr @_ZN11xercesc_2_516RefArrayVectorOfItED0Ev, ptr @_ZN11xercesc_2_516RefArrayVectorOfItE12setElementAtEPtj, ptr @_ZN11xercesc_2_516RefArrayVectorOfItE17removeAllElementsEv, ptr @_ZN11xercesc_2_516RefArrayVectorOfItE15removeElementAtEj, ptr @_ZN11xercesc_2_516RefArrayVectorOfItE17removeLastElementEv, ptr @_ZN11xercesc_2_516RefArrayVectorOfItE7cleanupEv] }, comdat, align 8, !type !15, !type !16, !type !17, !type !18, !type !19, !type !20, !type !21, !type !22, !type !23, !type !24, !type !25, !type !26
@_ZTSN11xercesc_2_516RefArrayVectorOfItEE = linkonce_odr dso_local constant [37 x i8] c"N11xercesc_2_516RefArrayVectorOfItEE\00", comdat, align 1
@_ZTSN11xercesc_2_515BaseRefVectorOfItEE = linkonce_odr dso_local constant [36 x i8] c"N11xercesc_2_515BaseRefVectorOfItEE\00", comdat, align 1
@_ZTSN11xercesc_2_57XMemoryE = linkonce_odr dso_local constant [24 x i8] c"N11xercesc_2_57XMemoryE\00", comdat, align 1
@_ZTIN11xercesc_2_57XMemoryE = linkonce_odr dso_local constant { ptr, ptr } { ptr getelementptr inbounds (ptr, ptr @_ZTVN10__cxxabiv117__class_type_infoE, i64 2), ptr @_ZTSN11xercesc_2_57XMemoryE }, comdat, align 8
@_ZTIN11xercesc_2_515BaseRefVectorOfItEE = linkonce_odr dso_local constant { ptr, ptr, ptr } { ptr getelementptr inbounds (ptr, ptr @_ZTVN10__cxxabiv120__si_class_type_infoE, i64 2), ptr @_ZTSN11xercesc_2_515BaseRefVectorOfItEE, ptr @_ZTIN11xercesc_2_57XMemoryE }, comdat, align 8
@_ZTIN11xercesc_2_516RefArrayVectorOfItEE = linkonce_odr dso_local constant { ptr, ptr, ptr } { ptr getelementptr inbounds (ptr, ptr @_ZTVN10__cxxabiv120__si_class_type_infoE, i64 2), ptr @_ZTSN11xercesc_2_516RefArrayVectorOfItEE, ptr @_ZTIN11xercesc_2_515BaseRefVectorOfItEE }, comdat, align 8
@_ZTVN11xercesc_2_515BaseRefVectorOfItEE = linkonce_odr dso_local unnamed_addr constant { [9 x ptr] } { [9 x ptr] [ptr null, ptr @_ZTIN11xercesc_2_515BaseRefVectorOfItEE, ptr @_ZN11xercesc_2_515BaseRefVectorOfItED2Ev, ptr @_ZN11xercesc_2_515BaseRefVectorOfItED0Ev, ptr @_ZN11xercesc_2_515BaseRefVectorOfItE12setElementAtEPtj, ptr @_ZN11xercesc_2_515BaseRefVectorOfItE17removeAllElementsEv, ptr @_ZN11xercesc_2_515BaseRefVectorOfItE15removeElementAtEj, ptr @_ZN11xercesc_2_515BaseRefVectorOfItE17removeLastElementEv, ptr @_ZN11xercesc_2_515BaseRefVectorOfItE7cleanupEv] }, comdat, align 8, !type !15, !type !16, !type !17, !type !18, !type !19, !type !20
@.str.1 = private unnamed_addr constant [33 x i8] c"./xercesc/util/BaseRefVectorOf.c\00", align 1
@.str.2 = private unnamed_addr constant [34 x i8] c"./xercesc/util/RefArrayVectorOf.c\00", align 1

declare i32 @__gxx_personality_v0(...)

; Function Attrs: nobuiltin nounwind
declare void @_ZdlPv(ptr noundef) local_unnamed_addr #0

; Function Attrs: uwtable
define dso_local void @_ZN11xercesc_2_59XMLString9binToTextEmPcjjPNS_13MemoryManagerE(i64 noundef %0, ptr nocapture noundef writeonly %1, i32 noundef %2, i32 noundef %3, ptr noundef %4) local_unnamed_addr #1 align 2 personality ptr @__gxx_personality_v0 {
  %6 = alloca [128 x i8], align 16
  %7 = icmp eq i32 %2, 0
  br i1 %7, label %8, label %13

8:                                                ; preds = %5
  %9 = tail call ptr @__cxa_allocate_exception(i64 48) #25
  invoke void @_ZN11xercesc_2_524IllegalArgumentExceptionC2EPKcjNS_10XMLExcepts5CodesEPNS_13MemoryManagerE(ptr noundef nonnull align 8 dereferenceable(48) %9, ptr noundef nonnull @.str, i32 noundef 118, i32 noundef 79, ptr noundef %4)
          to label %10 unwind label %11

10:                                               ; preds = %8
  tail call void @__cxa_throw(ptr nonnull %9, ptr nonnull @_ZTIN11xercesc_2_524IllegalArgumentExceptionE, ptr nonnull @_ZN11xercesc_2_512XMLExceptionD2Ev) #26
  unreachable

11:                                               ; preds = %8
  %12 = landingpad { ptr, i32 }
          cleanup
  tail call void @__cxa_free_exception(ptr %9) #25
  br label %100

13:                                               ; preds = %5
  %14 = icmp eq i64 %0, 0
  br i1 %14, label %15, label %17

15:                                               ; preds = %13
  store i8 48, ptr %1, align 1, !tbaa !34
  %16 = getelementptr inbounds i8, ptr %1, i64 1
  store i8 0, ptr %16, align 1, !tbaa !34
  br label %96

17:                                               ; preds = %13
  %18 = trunc i64 %0 to i32
  call void @llvm.lifetime.start.p0(i64 128, ptr nonnull %6) #25
  switch i32 %3, label %44 [
    i32 2, label %21
    i32 16, label %19
  ]

19:                                               ; preds = %17
  %20 = icmp eq i32 %18, 0
  br i1 %20, label %92, label %33

21:                                               ; preds = %17
  %22 = icmp eq i32 %18, 0
  br i1 %22, label %92, label %23

23:                                               ; preds = %21, %23
  %24 = phi i64 [ %30, %23 ], [ 0, %21 ]
  %25 = phi i32 [ %31, %23 ], [ %18, %21 ]
  %26 = and i32 %25, 1
  %27 = icmp eq i32 %26, 0
  %28 = select i1 %27, i8 48, i8 49
  %29 = getelementptr inbounds [128 x i8], ptr %6, i64 0, i64 %24
  store i8 %28, ptr %29, align 1
  %30 = add nuw nsw i64 %24, 1
  %31 = lshr i32 %25, 1
  %32 = icmp ult i32 %25, 2
  br i1 %32, label %66, label %23

33:                                               ; preds = %19, %33
  %34 = phi i64 [ %40, %33 ], [ 0, %19 ]
  %35 = phi i32 [ %42, %33 ], [ %18, %19 ]
  %36 = and i32 %35, 15
  %37 = zext i32 %36 to i64
  %38 = getelementptr inbounds [16 x i8], ptr @_ZZN11xercesc_2_59XMLString9binToTextEmPcjjPNS_13MemoryManagerEE9digitList, i64 0, i64 %37
  %39 = load i8, ptr %38, align 1, !tbaa !34
  %40 = add nuw nsw i64 %34, 1
  %41 = getelementptr inbounds [128 x i8], ptr %6, i64 0, i64 %34
  store i8 %39, ptr %41, align 1, !tbaa !34
  %42 = lshr i32 %35, 4
  %43 = icmp ult i32 %35, 16
  br i1 %43, label %68, label %33

44:                                               ; preds = %17
  %45 = and i32 %3, -3
  %46 = icmp eq i32 %45, 8
  br i1 %46, label %47, label %61

47:                                               ; preds = %44
  %48 = icmp eq i32 %18, 0
  br i1 %48, label %92, label %49

49:                                               ; preds = %47, %49
  %50 = phi i32 [ %59, %49 ], [ %18, %47 ]
  %51 = phi i32 [ %56, %49 ], [ 0, %47 ]
  %52 = urem i32 %50, %3
  %53 = zext i32 %52 to i64
  %54 = getelementptr inbounds [16 x i8], ptr @_ZZN11xercesc_2_59XMLString9binToTextEmPcjjPNS_13MemoryManagerEE9digitList, i64 0, i64 %53
  %55 = load i8, ptr %54, align 1, !tbaa !34
  %56 = add i32 %51, 1
  %57 = zext i32 %51 to i64
  %58 = getelementptr inbounds [128 x i8], ptr %6, i64 0, i64 %57
  store i8 %55, ptr %58, align 1, !tbaa !34
  %59 = udiv i32 %50, %3
  %60 = icmp ult i32 %50, %3
  br i1 %60, label %70, label %49

61:                                               ; preds = %44
  %62 = tail call ptr @__cxa_allocate_exception(i64 48) #25
  invoke void @_ZN11xercesc_2_516RuntimeExceptionC2EPKcjNS_10XMLExcepts5CodesEPNS_13MemoryManagerE(ptr noundef nonnull align 8 dereferenceable(48) %62, ptr noundef nonnull @.str, i32 noundef 177, i32 noundef 80, ptr noundef %4)
          to label %63 unwind label %64

63:                                               ; preds = %61
  tail call void @__cxa_throw(ptr nonnull %62, ptr nonnull @_ZTIN11xercesc_2_516RuntimeExceptionE, ptr nonnull @_ZN11xercesc_2_512XMLExceptionD2Ev) #26
  unreachable

64:                                               ; preds = %61
  %65 = landingpad { ptr, i32 }
          cleanup
  br label %97

66:                                               ; preds = %23
  %67 = trunc i64 %30 to i32
  br label %70

68:                                               ; preds = %33
  %69 = trunc i64 %40 to i32
  br label %70

70:                                               ; preds = %49, %68, %66
  %71 = phi i32 [ %67, %66 ], [ %69, %68 ], [ %56, %49 ]
  %72 = icmp ugt i32 %71, %2
  br i1 %72, label %77, label %73

73:                                               ; preds = %70
  %74 = icmp eq i32 %71, 0
  br i1 %74, label %92, label %75

75:                                               ; preds = %73
  %76 = zext i32 %71 to i64
  br label %82

77:                                               ; preds = %70
  %78 = tail call ptr @__cxa_allocate_exception(i64 48) #25
  invoke void @_ZN11xercesc_2_524IllegalArgumentExceptionC2EPKcjNS_10XMLExcepts5CodesEPNS_13MemoryManagerE(ptr noundef nonnull align 8 dereferenceable(48) %78, ptr noundef nonnull @.str, i32 noundef 183, i32 noundef 81, ptr noundef %4)
          to label %79 unwind label %80

79:                                               ; preds = %77
  tail call void @__cxa_throw(ptr nonnull %78, ptr nonnull @_ZTIN11xercesc_2_524IllegalArgumentExceptionE, ptr nonnull @_ZN11xercesc_2_512XMLExceptionD2Ev) #26
  unreachable

80:                                               ; preds = %77
  %81 = landingpad { ptr, i32 }
          cleanup
  br label %97

82:                                               ; preds = %75, %82
  %83 = phi i64 [ %76, %75 ], [ %85, %82 ]
  %84 = phi i64 [ 0, %75 ], [ %89, %82 ]
  %85 = add nsw i64 %83, -1
  %86 = and i64 %85, 4294967295
  %87 = getelementptr inbounds [128 x i8], ptr %6, i64 0, i64 %86
  %88 = load i8, ptr %87, align 1, !tbaa !34
  %89 = add nuw nsw i64 %84, 1
  %90 = getelementptr inbounds i8, ptr %1, i64 %84
  store i8 %88, ptr %90, align 1, !tbaa !34
  %91 = icmp eq i64 %89, %76
  br i1 %91, label %92, label %82

92:                                               ; preds = %82, %47, %21, %19, %73
  %93 = phi i32 [ 0, %73 ], [ 0, %19 ], [ 0, %21 ], [ 0, %47 ], [ %71, %82 ]
  %94 = zext i32 %93 to i64
  %95 = getelementptr inbounds i8, ptr %1, i64 %94
  store i8 0, ptr %95, align 1, !tbaa !34
  call void @llvm.lifetime.end.p0(i64 128, ptr nonnull %6) #25
  br label %96

96:                                               ; preds = %92, %15
  ret void

97:                                               ; preds = %80, %64
  %98 = phi ptr [ %78, %80 ], [ %62, %64 ]
  %99 = phi { ptr, i32 } [ %81, %80 ], [ %65, %64 ]
  tail call void @__cxa_free_exception(ptr %98) #25
  call void @llvm.lifetime.end.p0(i64 128, ptr nonnull %6) #25
  br label %100

100:                                              ; preds = %97, %11
  %101 = phi { ptr, i32 } [ %99, %97 ], [ %12, %11 ]
  resume { ptr, i32 } %101
}

declare ptr @__cxa_allocate_exception(i64) local_unnamed_addr

; Function Attrs: uwtable
define linkonce_odr dso_local void @_ZN11xercesc_2_524IllegalArgumentExceptionC2EPKcjNS_10XMLExcepts5CodesEPNS_13MemoryManagerE(ptr noundef nonnull align 8 dereferenceable(48) %0, ptr noundef %1, i32 noundef %2, i32 noundef %3, ptr noundef %4) unnamed_addr #1 comdat align 2 personality ptr @__gxx_personality_v0 {
  tail call void @_ZN11xercesc_2_512XMLExceptionC2EPKcjPNS_13MemoryManagerE(ptr noundef nonnull align 8 dereferenceable(48) %0, ptr noundef %1, i32 noundef %2, ptr noundef %4)
  store ptr getelementptr inbounds ({ [6 x ptr] }, ptr @_ZTVN11xercesc_2_524IllegalArgumentExceptionE, i64 0, inrange i32 0, i64 2), ptr %0, align 8, !tbaa !37
  invoke void @_ZN11xercesc_2_512XMLException14loadExceptTextENS_10XMLExcepts5CodesE(ptr noundef nonnull align 8 dereferenceable(48) %0, i32 noundef %3)
          to label %6 unwind label %7

6:                                                ; preds = %5
  ret void

7:                                                ; preds = %5
  %8 = landingpad { ptr, i32 }
          cleanup
  invoke void @_ZN11xercesc_2_512XMLExceptionD2Ev(ptr noundef nonnull align 8 dereferenceable(48) %0)
          to label %9 unwind label %10

9:                                                ; preds = %7
  resume { ptr, i32 } %8

10:                                               ; preds = %7
  %11 = landingpad { ptr, i32 }
          catch ptr null
  %12 = extractvalue { ptr, i32 } %11, 0
  tail call void @__clang_call_terminate(ptr %12) #27
  unreachable
}

declare void @__cxa_free_exception(ptr) local_unnamed_addr

declare void @__cxa_throw(ptr, ptr, ptr) local_unnamed_addr

; Function Attrs: mustprogress nocallback nofree nosync nounwind willreturn memory(argmem: readwrite)
declare void @llvm.lifetime.start.p0(i64 immarg, ptr nocapture) #2

; Function Attrs: mustprogress nocallback nofree nosync nounwind willreturn memory(argmem: readwrite)
declare void @llvm.lifetime.end.p0(i64 immarg, ptr nocapture) #2

; Function Attrs: uwtable
define linkonce_odr dso_local void @_ZN11xercesc_2_516RuntimeExceptionC2EPKcjNS_10XMLExcepts5CodesEPNS_13MemoryManagerE(ptr noundef nonnull align 8 dereferenceable(48) %0, ptr noundef %1, i32 noundef %2, i32 noundef %3, ptr noundef %4) unnamed_addr #1 comdat align 2 personality ptr @__gxx_personality_v0 {
  tail call void @_ZN11xercesc_2_512XMLExceptionC2EPKcjPNS_13MemoryManagerE(ptr noundef nonnull align 8 dereferenceable(48) %0, ptr noundef %1, i32 noundef %2, ptr noundef %4)
  store ptr getelementptr inbounds ({ [6 x ptr] }, ptr @_ZTVN11xercesc_2_516RuntimeExceptionE, i64 0, inrange i32 0, i64 2), ptr %0, align 8, !tbaa !37
  invoke void @_ZN11xercesc_2_512XMLException14loadExceptTextENS_10XMLExcepts5CodesE(ptr noundef nonnull align 8 dereferenceable(48) %0, i32 noundef %3)
          to label %6 unwind label %7

6:                                                ; preds = %5
  ret void

7:                                                ; preds = %5
  %8 = landingpad { ptr, i32 }
          cleanup
  invoke void @_ZN11xercesc_2_512XMLExceptionD2Ev(ptr noundef nonnull align 8 dereferenceable(48) %0)
          to label %9 unwind label %10

9:                                                ; preds = %7
  resume { ptr, i32 } %8

10:                                               ; preds = %7
  %11 = landingpad { ptr, i32 }
          catch ptr null
  %12 = extractvalue { ptr, i32 } %11, 0
  tail call void @__clang_call_terminate(ptr %12) #27
  unreachable
}

; Function Attrs: uwtable
define dso_local void @_ZN11xercesc_2_59XMLString9binToTextEjPcjjPNS_13MemoryManagerE(i32 noundef %0, ptr nocapture noundef writeonly %1, i32 noundef %2, i32 noundef %3, ptr noundef %4) local_unnamed_addr #1 align 2 {
  %6 = zext i32 %0 to i64
  tail call void @_ZN11xercesc_2_59XMLString9binToTextEmPcjjPNS_13MemoryManagerE(i64 noundef %6, ptr noundef %1, i32 noundef %2, i32 noundef %3, ptr noundef %4)
  ret void
}

; Function Attrs: uwtable
define dso_local void @_ZN11xercesc_2_59XMLString9binToTextElPcjjPNS_13MemoryManagerE(i64 noundef %0, ptr nocapture noundef writeonly %1, i32 noundef %2, i32 noundef %3, ptr noundef %4) local_unnamed_addr #1 align 2 {
  %6 = icmp slt i64 %0, 0
  br i1 %6, label %7, label %9

7:                                                ; preds = %5
  store i8 45, ptr %1, align 1, !tbaa !34
  %8 = sub nsw i64 0, %0
  br label %9

9:                                                ; preds = %5, %7
  %10 = phi i64 [ 1, %7 ], [ 0, %5 ]
  %11 = phi i64 [ %8, %7 ], [ %0, %5 ]
  %12 = getelementptr inbounds i8, ptr %1, i64 %10
  tail call void @_ZN11xercesc_2_59XMLString9binToTextEmPcjjPNS_13MemoryManagerE(i64 noundef %11, ptr noundef %12, i32 noundef %2, i32 noundef %3, ptr noundef %4)
  ret void
}

; Function Attrs: uwtable
define dso_local void @_ZN11xercesc_2_59XMLString9binToTextEiPcjjPNS_13MemoryManagerE(i32 noundef %0, ptr nocapture noundef writeonly %1, i32 noundef %2, i32 noundef %3, ptr noundef %4) local_unnamed_addr #1 align 2 {
  %6 = icmp slt i32 %0, 0
  br i1 %6, label %7, label %9

7:                                                ; preds = %5
  store i8 45, ptr %1, align 1, !tbaa !34
  %8 = sub nsw i32 0, %0
  br label %9

9:                                                ; preds = %5, %7
  %10 = phi i64 [ 1, %7 ], [ 0, %5 ]
  %11 = phi i32 [ %8, %7 ], [ %0, %5 ]
  %12 = zext i32 %11 to i64
  %13 = getelementptr inbounds i8, ptr %1, i64 %10
  tail call void @_ZN11xercesc_2_59XMLString9binToTextEmPcjjPNS_13MemoryManagerE(i64 noundef %12, ptr noundef %13, i32 noundef %2, i32 noundef %3, ptr noundef %4)
  ret void
}

; Function Attrs: mustprogress nofree nounwind willreturn memory(argmem: readwrite) uwtable
define dso_local void @_ZN11xercesc_2_59XMLString9catStringEPcPKc(ptr noundef %0, ptr nocapture noundef readonly %1) local_unnamed_addr #3 align 2 {
  %3 = tail call ptr @strcat(ptr noundef nonnull dereferenceable(1) %0, ptr noundef nonnull dereferenceable(1) %1) #25
  ret void
}

; Function Attrs: mustprogress nofree nounwind willreturn memory(argmem: readwrite)
declare ptr @strcat(ptr noalias noundef returned, ptr noalias nocapture noundef readonly) local_unnamed_addr #4

; Function Attrs: uwtable
define dso_local noundef i32 @_ZN11xercesc_2_59XMLString14compareIStringEPKcS2_(ptr noundef %0, ptr noundef %1) local_unnamed_addr #1 align 2 {
  %3 = tail call noundef i32 @_Z7stricmpPKcS0_(ptr noundef %0, ptr noundef %1)
  ret i32 %3
}

declare noundef i32 @_Z7stricmpPKcS0_(ptr noundef, ptr noundef) local_unnamed_addr #5

; Function Attrs: mustprogress nofree nounwind willreturn memory(argmem: read) uwtable
define dso_local noundef i32 @_ZN11xercesc_2_59XMLString14compareNStringEPKcS2_j(ptr nocapture noundef readonly %0, ptr nocapture noundef readonly %1, i32 noundef %2) local_unnamed_addr #6 align 2 {
  %4 = icmp eq i32 %2, 0
  br i1 %4, label %8, label %5

5:                                                ; preds = %3
  %6 = zext i32 %2 to i64
  %7 = tail call i32 @strncmp(ptr noundef %0, ptr noundef %1, i64 noundef %6) #28
  br label %8

8:                                                ; preds = %3, %5
  %9 = phi i32 [ %7, %5 ], [ 0, %3 ]
  ret i32 %9
}

; Function Attrs: mustprogress nofree nounwind willreturn memory(argmem: read)
declare i32 @strncmp(ptr nocapture noundef, ptr nocapture noundef, i64 noundef) local_unnamed_addr #7

; Function Attrs: uwtable
define dso_local noundef i32 @_ZN11xercesc_2_59XMLString15compareNIStringEPKcS2_j(ptr noundef %0, ptr noundef %1, i32 noundef %2) local_unnamed_addr #1 align 2 {
  %4 = icmp eq i32 %2, 0
  br i1 %4, label %7, label %5

5:                                                ; preds = %3
  %6 = tail call noundef i32 @_Z8strnicmpPKcS0_j(ptr noundef %0, ptr noundef %1, i32 noundef %2)
  br label %7

7:                                                ; preds = %3, %5
  %8 = phi i32 [ %6, %5 ], [ 0, %3 ]
  ret i32 %8
}

declare noundef i32 @_Z8strnicmpPKcS0_j(ptr noundef, ptr noundef, i32 noundef) local_unnamed_addr #5

; Function Attrs: mustprogress nofree nounwind willreturn memory(argmem: read) uwtable
define dso_local noundef i32 @_ZN11xercesc_2_59XMLString13compareStringEPKcS2_(ptr nocapture noundef readonly %0, ptr nocapture noundef readonly %1) local_unnamed_addr #6 align 2 {
  %3 = tail call i32 @strcmp(ptr noundef nonnull dereferenceable(1) %0, ptr noundef nonnull dereferenceable(1) %1) #28
  ret i32 %3
}

; Function Attrs: mustprogress nofree nounwind willreturn memory(argmem: read)
declare i32 @strcmp(ptr nocapture noundef, ptr nocapture noundef) local_unnamed_addr #7

; Function Attrs: mustprogress nofree nounwind willreturn memory(argmem: readwrite) uwtable
define dso_local void @_ZN11xercesc_2_59XMLString10copyStringEPcPKc(ptr noundef %0, ptr nocapture noundef readonly %1) local_unnamed_addr #3 align 2 {
  %3 = tail call ptr @strcpy(ptr noundef nonnull dereferenceable(1) %0, ptr noundef nonnull dereferenceable(1) %1) #25
  ret void
}

; Function Attrs: mustprogress nofree nounwind willreturn memory(argmem: readwrite)
declare ptr @strcpy(ptr noalias noundef returned writeonly, ptr noalias nocapture noundef readonly) local_unnamed_addr #4

; Function Attrs: nofree norecurse nosync nounwind memory(readwrite, inaccessiblemem: none) uwtable
define dso_local void @_ZN11xercesc_2_59XMLString3cutEPtj(ptr nocapture noundef %0, i32 noundef %1) local_unnamed_addr #8 align 2 {
  %3 = icmp eq i32 %1, 0
  br i1 %3, label %19, label %4

4:                                                ; preds = %2
  %5 = zext i32 %1 to i64
  %6 = getelementptr inbounds i16, ptr %0, i64 %5
  %7 = load i16, ptr %6, align 2, !tbaa !39
  %8 = icmp eq i16 %7, 0
  br i1 %8, label %17, label %9

9:                                                ; preds = %4, %9
  %10 = phi i16 [ %15, %9 ], [ %7, %4 ]
  %11 = phi ptr [ %13, %9 ], [ %6, %4 ]
  %12 = phi ptr [ %14, %9 ], [ %0, %4 ]
  %13 = getelementptr inbounds i16, ptr %11, i64 1
  %14 = getelementptr inbounds i16, ptr %12, i64 1
  store i16 %10, ptr %12, align 2, !tbaa !39
  %15 = load i16, ptr %13, align 2, !tbaa !39
  %16 = icmp eq i16 %15, 0
  br i1 %16, label %17, label %9

17:                                               ; preds = %9, %4
  %18 = phi ptr [ %0, %4 ], [ %14, %9 ]
  store i16 0, ptr %18, align 2, !tbaa !39
  br label %19

19:                                               ; preds = %2, %17
  ret void
}

; Function Attrs: uwtable
define dso_local noundef i32 @_ZN11xercesc_2_59XMLString4hashEPKcjPNS_13MemoryManagerE(ptr noundef readonly %0, i32 noundef %1, ptr noundef %2) local_unnamed_addr #1 align 2 personality ptr @__gxx_personality_v0 {
  %4 = icmp eq i32 %1, 0
  br i1 %4, label %5, label %10

5:                                                ; preds = %3
  %6 = tail call ptr @__cxa_allocate_exception(i64 48) #25
  invoke void @_ZN11xercesc_2_524IllegalArgumentExceptionC2EPKcjNS_10XMLExcepts5CodesEPNS_13MemoryManagerE(ptr noundef nonnull align 8 dereferenceable(48) %6, ptr noundef nonnull @.str, i32 noundef 338, i32 noundef 67, ptr noundef %2)
          to label %7 unwind label %8

7:                                                ; preds = %5
  tail call void @__cxa_throw(ptr nonnull %6, ptr nonnull @_ZTIN11xercesc_2_524IllegalArgumentExceptionE, ptr nonnull @_ZN11xercesc_2_512XMLExceptionD2Ev) #26
  unreachable

8:                                                ; preds = %5
  %9 = landingpad { ptr, i32 }
          cleanup
  tail call void @__cxa_free_exception(ptr %6) #25
  resume { ptr, i32 } %9

10:                                               ; preds = %3
  %11 = icmp eq ptr %0, null
  br i1 %11, label %28, label %12

12:                                               ; preds = %10
  %13 = load i8, ptr %0, align 1, !tbaa !34
  %14 = icmp eq i8 %13, 0
  br i1 %14, label %28, label %15

15:                                               ; preds = %12, %15
  %16 = phi i8 [ %26, %15 ], [ %13, %12 ]
  %17 = phi i32 [ %24, %15 ], [ 0, %12 ]
  %18 = phi ptr [ %25, %15 ], [ %0, %12 ]
  %19 = lshr i32 %17, 24
  %20 = mul i32 %17, 37
  %21 = sext i8 %16 to i32
  %22 = add i32 %19, %17
  %23 = add i32 %22, %20
  %24 = add i32 %23, %21
  %25 = getelementptr inbounds i8, ptr %18, i64 1
  %26 = load i8, ptr %25, align 1, !tbaa !34
  %27 = icmp eq i8 %26, 0
  br i1 %27, label %28, label %15

28:                                               ; preds = %15, %12, %10
  %29 = phi i32 [ 0, %10 ], [ 0, %12 ], [ %24, %15 ]
  %30 = urem i32 %29, %1
  ret i32 %30
}

; Function Attrs: nofree nounwind memory(argmem: read) uwtable
define dso_local noundef i32 @_ZN11xercesc_2_59XMLString7indexOfEPKcc(ptr nocapture noundef readonly %0, i8 noundef signext %1) local_unnamed_addr #9 align 2 {
  %3 = tail call i64 @strlen(ptr noundef nonnull dereferenceable(1) %0) #28
  %4 = and i64 %3, 4294967295
  %5 = icmp eq i64 %4, 0
  br i1 %5, label %18, label %6

6:                                                ; preds = %2
  %7 = and i64 %3, 4294967295
  br label %8

8:                                                ; preds = %6, %13
  %9 = phi i64 [ 0, %6 ], [ %14, %13 ]
  %10 = getelementptr inbounds i8, ptr %0, i64 %9
  %11 = load i8, ptr %10, align 1, !tbaa !34
  %12 = icmp eq i8 %11, %1
  br i1 %12, label %16, label %13

13:                                               ; preds = %8
  %14 = add nuw nsw i64 %9, 1
  %15 = icmp eq i64 %14, %7
  br i1 %15, label %18, label %8

16:                                               ; preds = %8
  %17 = trunc i64 %9 to i32
  br label %18

18:                                               ; preds = %13, %16, %2
  %19 = phi i32 [ -1, %2 ], [ %17, %16 ], [ -1, %13 ]
  ret i32 %19
}

; Function Attrs: mustprogress nofree nounwind willreturn memory(argmem: read)
declare i64 @strlen(ptr nocapture noundef) local_unnamed_addr #7

; Function Attrs: uwtable
define dso_local noundef i32 @_ZN11xercesc_2_59XMLString7indexOfEPKccjPNS_13MemoryManagerE(ptr nocapture noundef readonly %0, i8 noundef signext %1, i32 noundef %2, ptr noundef %3) local_unnamed_addr #1 align 2 personality ptr @__gxx_personality_v0 {
  %5 = tail call i64 @strlen(ptr noundef nonnull dereferenceable(1) %0) #28
  %6 = trunc i64 %5 to i32
  %7 = add i32 %6, -1
  %8 = icmp ult i32 %7, %2
  br i1 %8, label %13, label %9

9:                                                ; preds = %4
  %10 = icmp ugt i32 %6, %2
  br i1 %10, label %11, label %29

11:                                               ; preds = %9
  %12 = zext i32 %2 to i64
  br label %18

13:                                               ; preds = %4
  %14 = tail call ptr @__cxa_allocate_exception(i64 48) #25
  invoke void @_ZN11xercesc_2_530ArrayIndexOutOfBoundsExceptionC2EPKcjNS_10XMLExcepts5CodesEPNS_13MemoryManagerE(ptr noundef nonnull align 8 dereferenceable(48) %14, ptr noundef nonnull @.str, i32 noundef 377, i32 noundef 82, ptr noundef %3)
          to label %15 unwind label %16

15:                                               ; preds = %13
  tail call void @__cxa_throw(ptr nonnull %14, ptr nonnull @_ZTIN11xercesc_2_530ArrayIndexOutOfBoundsExceptionE, ptr nonnull @_ZN11xercesc_2_512XMLExceptionD2Ev) #26
  unreachable

16:                                               ; preds = %13
  %17 = landingpad { ptr, i32 }
          cleanup
  tail call void @__cxa_free_exception(ptr %14) #25
  resume { ptr, i32 } %17

18:                                               ; preds = %11, %23
  %19 = phi i64 [ %12, %11 ], [ %24, %23 ]
  %20 = getelementptr inbounds i8, ptr %0, i64 %19
  %21 = load i8, ptr %20, align 1, !tbaa !34
  %22 = icmp eq i8 %21, %1
  br i1 %22, label %27, label %23

23:                                               ; preds = %18
  %24 = add nuw nsw i64 %19, 1
  %25 = trunc i64 %24 to i32
  %26 = icmp eq i32 %25, %6
  br i1 %26, label %29, label %18

27:                                               ; preds = %18
  %28 = trunc i64 %19 to i32
  br label %29

29:                                               ; preds = %23, %27, %9
  %30 = phi i32 [ -1, %9 ], [ %28, %27 ], [ -1, %23 ]
  ret i32 %30
}

; Function Attrs: uwtable
define linkonce_odr dso_local void @_ZN11xercesc_2_530ArrayIndexOutOfBoundsExceptionC2EPKcjNS_10XMLExcepts5CodesEPNS_13MemoryManagerE(ptr noundef nonnull align 8 dereferenceable(48) %0, ptr noundef %1, i32 noundef %2, i32 noundef %3, ptr noundef %4) unnamed_addr #1 comdat align 2 personality ptr @__gxx_personality_v0 {
  tail call void @_ZN11xercesc_2_512XMLExceptionC2EPKcjPNS_13MemoryManagerE(ptr noundef nonnull align 8 dereferenceable(48) %0, ptr noundef %1, i32 noundef %2, ptr noundef %4)
  store ptr getelementptr inbounds ({ [6 x ptr] }, ptr @_ZTVN11xercesc_2_530ArrayIndexOutOfBoundsExceptionE, i64 0, inrange i32 0, i64 2), ptr %0, align 8, !tbaa !37
  invoke void @_ZN11xercesc_2_512XMLException14loadExceptTextENS_10XMLExcepts5CodesE(ptr noundef nonnull align 8 dereferenceable(48) %0, i32 noundef %3)
          to label %6 unwind label %7

6:                                                ; preds = %5
  ret void

7:                                                ; preds = %5
  %8 = landingpad { ptr, i32 }
          cleanup
  invoke void @_ZN11xercesc_2_512XMLExceptionD2Ev(ptr noundef nonnull align 8 dereferenceable(48) %0)
          to label %9 unwind label %10

9:                                                ; preds = %7
  resume { ptr, i32 } %8

10:                                               ; preds = %7
  %11 = landingpad { ptr, i32 }
          catch ptr null
  %12 = extractvalue { ptr, i32 } %11, 0
  tail call void @__clang_call_terminate(ptr %12) #27
  unreachable
}

; Function Attrs: nofree nounwind memory(argmem: read) uwtable
define dso_local noundef i32 @_ZN11xercesc_2_59XMLString11lastIndexOfEPKcc(ptr nocapture noundef readonly %0, i8 noundef signext %1) local_unnamed_addr #9 align 2 {
  %3 = tail call i64 @strlen(ptr noundef nonnull dereferenceable(1) %0) #28
  %4 = and i64 %3, 4294967295
  br label %5

5:                                                ; preds = %9, %2
  %6 = phi i64 [ %10, %9 ], [ %4, %2 ]
  %7 = trunc i64 %6 to i32
  %8 = icmp slt i32 %7, 1
  br i1 %8, label %17, label %9

9:                                                ; preds = %5
  %10 = add nsw i64 %6, -1
  %11 = and i64 %10, 4294967295
  %12 = getelementptr inbounds i8, ptr %0, i64 %11
  %13 = load i8, ptr %12, align 1, !tbaa !34
  %14 = icmp eq i8 %13, %1
  br i1 %14, label %15, label %5

15:                                               ; preds = %9
  %16 = trunc i64 %10 to i32
  br label %17

17:                                               ; preds = %5, %15
  %18 = phi i32 [ %16, %15 ], [ -1, %5 ]
  ret i32 %18
}

; Function Attrs: uwtable
define dso_local noundef i32 @_ZN11xercesc_2_59XMLString11lastIndexOfEPKccjPNS_13MemoryManagerE(ptr nocapture noundef readonly %0, i8 noundef signext %1, i32 noundef %2, ptr noundef %3) local_unnamed_addr #1 align 2 personality ptr @__gxx_personality_v0 {
  %5 = tail call i64 @strlen(ptr noundef nonnull dereferenceable(1) %0) #28
  %6 = trunc i64 %5 to i32
  %7 = icmp sgt i32 %6, %2
  br i1 %7, label %8, label %10

8:                                                ; preds = %4
  %9 = icmp slt i32 %2, 0
  br i1 %9, label %24, label %15

10:                                               ; preds = %4
  %11 = tail call ptr @__cxa_allocate_exception(i64 48) #25
  invoke void @_ZN11xercesc_2_530ArrayIndexOutOfBoundsExceptionC2EPKcjNS_10XMLExcepts5CodesEPNS_13MemoryManagerE(ptr noundef nonnull align 8 dereferenceable(48) %11, ptr noundef nonnull @.str, i32 noundef 407, i32 noundef 82, ptr noundef %3)
          to label %12 unwind label %13

12:                                               ; preds = %10
  tail call void @__cxa_throw(ptr nonnull %11, ptr nonnull @_ZTIN11xercesc_2_530ArrayIndexOutOfBoundsExceptionE, ptr nonnull @_ZN11xercesc_2_512XMLExceptionD2Ev) #26
  unreachable

13:                                               ; preds = %10
  %14 = landingpad { ptr, i32 }
          cleanup
  tail call void @__cxa_free_exception(ptr %11) #25
  resume { ptr, i32 } %14

15:                                               ; preds = %8, %21
  %16 = phi i32 [ %22, %21 ], [ %2, %8 ]
  %17 = zext i32 %16 to i64
  %18 = getelementptr inbounds i8, ptr %0, i64 %17
  %19 = load i8, ptr %18, align 1, !tbaa !34
  %20 = icmp eq i8 %19, %1
  br i1 %20, label %24, label %21

21:                                               ; preds = %15
  %22 = add nsw i32 %16, -1
  %23 = icmp slt i32 %16, 1
  br i1 %23, label %24, label %15

24:                                               ; preds = %21, %15, %8
  %25 = phi i32 [ -1, %8 ], [ %16, %15 ], [ -1, %21 ]
  ret i32 %25
}

; Function Attrs: uwtable
define dso_local noundef i32 @_ZN11xercesc_2_59XMLString13replaceTokensEPtjPKtS3_S3_S3_PNS_13MemoryManagerE(ptr noundef %0, i32 noundef %1, ptr noundef readonly %2, ptr noundef readonly %3, ptr noundef readonly %4, ptr noundef readonly %5, ptr noundef %6) local_unnamed_addr #1 align 2 {
  %8 = icmp eq ptr %0, null
  br i1 %8, label %29, label %9

9:                                                ; preds = %7
  %10 = load i16, ptr %0, align 2, !tbaa !39
  %11 = icmp eq i16 %10, 0
  br i1 %11, label %23, label %12

12:                                               ; preds = %9, %12
  %13 = phi ptr [ %14, %12 ], [ %0, %9 ]
  %14 = getelementptr inbounds i16, ptr %13, i64 1
  %15 = load i16, ptr %14, align 2, !tbaa !39
  %16 = icmp eq i16 %15, 0
  br i1 %16, label %17, label %12

17:                                               ; preds = %12
  %18 = ptrtoint ptr %14 to i64
  %19 = ptrtoint ptr %0 to i64
  %20 = sub i64 %18, %19
  %21 = add i64 %20, 2
  %22 = and i64 %21, 8589934590
  br label %23

23:                                               ; preds = %17, %9
  %24 = phi i64 [ %22, %17 ], [ 2, %9 ]
  %25 = load ptr, ptr %6, align 8, !tbaa !37
  %26 = getelementptr inbounds ptr, ptr %25, i64 2
  %27 = load ptr, ptr %26, align 8
  %28 = tail call noundef ptr %27(ptr noundef nonnull align 8 dereferenceable(8) %6, i64 noundef %24)
  tail call void @llvm.memcpy.p0.p0.i64(ptr align 2 %28, ptr nonnull align 2 %0, i64 %24, i1 false)
  br label %29

29:                                               ; preds = %7, %23
  %30 = phi ptr [ %28, %23 ], [ null, %7 ]
  %31 = load i16, ptr %30, align 2, !tbaa !39
  %32 = icmp ne i16 %31, 0
  %33 = icmp ne i32 %1, 0
  %34 = and i1 %32, %33
  br i1 %34, label %35, label %104

35:                                               ; preds = %29
  %36 = zext i32 %1 to i64
  br label %37

37:                                               ; preds = %48, %35
  %38 = phi ptr [ %30, %35 ], [ %49, %48 ]
  %39 = phi i32 [ 0, %35 ], [ %50, %48 ]
  %40 = phi i16 [ %31, %35 ], [ %51, %48 ]
  switch i16 %40, label %41 [
    i16 123, label %54
    i16 0, label %104
  ]

41:                                               ; preds = %37
  %42 = getelementptr inbounds i16, ptr %38, i64 1
  %43 = add nuw i32 %39, 1
  %44 = zext i32 %39 to i64
  %45 = getelementptr inbounds i16, ptr %0, i64 %44
  store i16 %40, ptr %45, align 2, !tbaa !39
  %46 = load i16, ptr %42, align 2, !tbaa !39
  %47 = icmp ult i32 %43, %1
  br i1 %47, label %48, label %52

48:                                               ; preds = %41, %97
  %49 = phi ptr [ %42, %41 ], [ %99, %97 ]
  %50 = phi i32 [ %43, %41 ], [ %98, %97 ]
  %51 = phi i16 [ %46, %41 ], [ %100, %97 ]
  br label %37

52:                                               ; preds = %41
  %53 = icmp eq i16 %46, 123
  br i1 %53, label %54, label %104

54:                                               ; preds = %37, %52
  %55 = phi i32 [ %43, %52 ], [ %39, %37 ]
  %56 = phi ptr [ %42, %52 ], [ %38, %37 ]
  %57 = getelementptr inbounds i16, ptr %56, i64 1
  %58 = load i16, ptr %57, align 2, !tbaa !39
  %59 = and i16 %58, -4
  %60 = icmp eq i16 %59, 48
  br i1 %60, label %61, label %91

61:                                               ; preds = %54
  %62 = getelementptr inbounds i16, ptr %56, i64 2
  %63 = load i16, ptr %62, align 2, !tbaa !39
  %64 = icmp eq i16 %63, 125
  br i1 %64, label %65, label %91

65:                                               ; preds = %61
  %66 = getelementptr inbounds i16, ptr %56, i64 3
  switch i16 %58, label %69 [
    i16 48, label %70
    i16 49, label %67
    i16 50, label %68
  ]

67:                                               ; preds = %65
  br label %70

68:                                               ; preds = %65
  br label %70

69:                                               ; preds = %65
  br label %70

70:                                               ; preds = %65, %67, %69, %68
  %71 = phi ptr [ %3, %67 ], [ %4, %68 ], [ %5, %69 ], [ %2, %65 ]
  %72 = icmp eq ptr %71, null
  %73 = select i1 %72, ptr @_ZN11xercesc_2_5L8gNullStrE, ptr %71
  %74 = load i16, ptr %73, align 2, !tbaa !39
  %75 = icmp ne i16 %74, 0
  %76 = icmp ult i32 %55, %1
  %77 = select i1 %75, i1 %76, i1 false
  br i1 %77, label %78, label %97

78:                                               ; preds = %70
  %79 = zext i32 %55 to i64
  br label %80

80:                                               ; preds = %78, %80
  %81 = phi i64 [ %79, %78 ], [ %85, %80 ]
  %82 = phi i16 [ %74, %78 ], [ %87, %80 ]
  %83 = phi ptr [ %73, %78 ], [ %84, %80 ]
  %84 = getelementptr inbounds i16, ptr %83, i64 1
  %85 = add nuw nsw i64 %81, 1
  %86 = getelementptr inbounds i16, ptr %0, i64 %81
  store i16 %82, ptr %86, align 2, !tbaa !39
  %87 = load i16, ptr %84, align 2, !tbaa !39
  %88 = icmp ne i16 %87, 0
  %89 = icmp ult i64 %85, %36
  %90 = and i1 %88, %89
  br i1 %90, label %80, label %95

91:                                               ; preds = %61, %54
  %92 = add i32 %55, 1
  %93 = zext i32 %55 to i64
  %94 = getelementptr inbounds i16, ptr %0, i64 %93
  store i16 123, ptr %94, align 2, !tbaa !39
  br label %97

95:                                               ; preds = %80
  %96 = trunc i64 %85 to i32
  br label %97

97:                                               ; preds = %95, %70, %91
  %98 = phi i32 [ %92, %91 ], [ %55, %70 ], [ %96, %95 ]
  %99 = phi ptr [ %57, %91 ], [ %66, %70 ], [ %66, %95 ]
  %100 = load i16, ptr %99, align 2, !tbaa !39
  %101 = icmp ne i16 %100, 0
  %102 = icmp ult i32 %98, %1
  %103 = select i1 %101, i1 %102, i1 false
  br i1 %103, label %48, label %104

104:                                              ; preds = %52, %97, %37, %29
  %105 = phi i32 [ 0, %29 ], [ %98, %97 ], [ %43, %52 ], [ %39, %37 ]
  %106 = zext i32 %105 to i64
  %107 = getelementptr inbounds i16, ptr %0, i64 %106
  store i16 0, ptr %107, align 2, !tbaa !39
  %108 = icmp eq ptr %6, null
  br i1 %108, label %113, label %109

109:                                              ; preds = %104
  %110 = load ptr, ptr %6, align 8, !tbaa !37
  %111 = getelementptr inbounds ptr, ptr %110, i64 3
  %112 = load ptr, ptr %111, align 8
  tail call void %112(ptr noundef nonnull align 8 dereferenceable(8) %6, ptr noundef nonnull %30)
  br label %114

113:                                              ; preds = %104
  tail call void @_ZdaPv(ptr noundef nonnull %30) #29
  br label %114

114:                                              ; preds = %109, %113
  ret i32 %105
}

; Function Attrs: uwtable
define linkonce_odr dso_local void @_ZN11xercesc_2_512ArrayJanitorItED2Ev(ptr noundef nonnull align 8 dereferenceable(16) %0) unnamed_addr #1 comdat align 2 {
  %2 = load ptr, ptr %0, align 8, !tbaa !41
  %3 = icmp eq ptr %2, null
  br i1 %3, label %13, label %4

4:                                                ; preds = %1
  %5 = getelementptr inbounds %"class.xercesc_2_5::ArrayJanitor", ptr %0, i64 0, i32 1
  %6 = load ptr, ptr %5, align 8, !tbaa !44
  %7 = icmp eq ptr %6, null
  br i1 %7, label %12, label %8

8:                                                ; preds = %4
  %9 = load ptr, ptr %6, align 8, !tbaa !37
  %10 = getelementptr inbounds ptr, ptr %9, i64 3
  %11 = load ptr, ptr %10, align 8
  tail call void %11(ptr noundef nonnull align 8 dereferenceable(8) %6, ptr noundef nonnull %2)
  br label %13

12:                                               ; preds = %4
  tail call void @_ZdaPv(ptr noundef nonnull %2) #29
  br label %13

13:                                               ; preds = %1, %8, %12
  tail call void @llvm.memset.p0.i64(ptr noundef nonnull align 8 dereferenceable(16) %0, i8 0, i64 16, i1 false)
  ret void
}

; Function Attrs: uwtable
define dso_local noalias noundef ptr @_ZN11xercesc_2_59XMLString9replicateEPKt(ptr noundef %0) local_unnamed_addr #1 align 2 {
  %2 = icmp eq ptr %0, null
  br i1 %2, label %20, label %3

3:                                                ; preds = %1
  %4 = load i16, ptr %0, align 2, !tbaa !39
  %5 = icmp eq i16 %4, 0
  br i1 %5, label %17, label %6

6:                                                ; preds = %3, %6
  %7 = phi ptr [ %8, %6 ], [ %0, %3 ]
  %8 = getelementptr inbounds i16, ptr %7, i64 1
  %9 = load i16, ptr %8, align 2, !tbaa !39
  %10 = icmp eq i16 %9, 0
  br i1 %10, label %11, label %6

11:                                               ; preds = %6
  %12 = ptrtoint ptr %8 to i64
  %13 = ptrtoint ptr %0 to i64
  %14 = sub i64 %12, %13
  %15 = add i64 %14, 2
  %16 = and i64 %15, 8589934590
  br label %17

17:                                               ; preds = %3, %11
  %18 = phi i64 [ %16, %11 ], [ 2, %3 ]
  %19 = tail call noalias noundef nonnull ptr @_Znam(i64 noundef %18) #30
  tail call void @llvm.memcpy.p0.p0.i64(ptr nonnull align 2 %19, ptr nonnull align 2 %0, i64 %18, i1 false)
  br label %20

20:                                               ; preds = %17, %1
  %21 = phi ptr [ %19, %17 ], [ null, %1 ]
  ret ptr %21
}

; Function Attrs: nobuiltin allocsize(0)
declare noundef nonnull ptr @_Znam(i64 noundef) local_unnamed_addr #10

; Function Attrs: mustprogress nocallback nofree nounwind willreturn memory(argmem: readwrite)
declare void @llvm.memcpy.p0.p0.i64(ptr noalias nocapture writeonly, ptr noalias nocapture readonly, i64, i1 immarg) #11

; Function Attrs: uwtable
define dso_local noalias noundef ptr @_ZN11xercesc_2_59XMLString9replicateEPKc(ptr noundef readonly %0) local_unnamed_addr #1 align 2 {
  %2 = icmp eq ptr %0, null
  br i1 %2, label %8, label %3

3:                                                ; preds = %1
  %4 = tail call i64 @strlen(ptr noundef nonnull dereferenceable(1) %0) #28
  %5 = add i64 %4, 1
  %6 = and i64 %5, 4294967295
  %7 = tail call noalias noundef nonnull ptr @_Znam(i64 noundef %6) #30
  tail call void @llvm.memcpy.p0.p0.i64(ptr nonnull align 1 %7, ptr nonnull align 1 %0, i64 %6, i1 false)
  br label %8

8:                                                ; preds = %1, %3
  %9 = phi ptr [ %7, %3 ], [ null, %1 ]
  ret ptr %9
}

; Function Attrs: uwtable
define dso_local noundef ptr @_ZN11xercesc_2_59XMLString9replicateEPKcPNS_13MemoryManagerE(ptr noundef readonly %0, ptr noundef %1) local_unnamed_addr #1 align 2 {
  %3 = icmp eq ptr %0, null
  br i1 %3, label %12, label %4

4:                                                ; preds = %2
  %5 = tail call i64 @strlen(ptr noundef nonnull dereferenceable(1) %0) #28
  %6 = add i64 %5, 1
  %7 = and i64 %6, 4294967295
  %8 = load ptr, ptr %1, align 8, !tbaa !37
  %9 = getelementptr inbounds ptr, ptr %8, i64 2
  %10 = load ptr, ptr %9, align 8
  %11 = tail call noundef ptr %10(ptr noundef nonnull align 8 dereferenceable(8) %1, i64 noundef %7)
  tail call void @llvm.memcpy.p0.p0.i64(ptr align 1 %11, ptr nonnull align 1 %0, i64 %7, i1 false)
  br label %12

12:                                               ; preds = %2, %4
  %13 = phi ptr [ %11, %4 ], [ null, %2 ]
  ret ptr %13
}

; Function Attrs: mustprogress nofree nounwind willreturn memory(argmem: read) uwtable
define dso_local noundef zeroext i1 @_ZN11xercesc_2_59XMLString10startsWithEPKcS2_(ptr nocapture noundef readonly %0, ptr nocapture noundef readonly %1) local_unnamed_addr #6 align 2 {
  %3 = tail call i64 @strlen(ptr noundef nonnull dereferenceable(1) %1) #28
  %4 = tail call i32 @strncmp(ptr noundef %0, ptr noundef %1, i64 noundef %3) #28
  %5 = icmp eq i32 %4, 0
  ret i1 %5
}

; Function Attrs: uwtable
define dso_local noundef zeroext i1 @_ZN11xercesc_2_59XMLString11startsWithIEPKcS2_(ptr noundef %0, ptr noundef %1) local_unnamed_addr #1 align 2 {
  %3 = tail call i64 @strlen(ptr noundef nonnull dereferenceable(1) %1) #28
  %4 = trunc i64 %3 to i32
  %5 = tail call noundef i32 @_Z8strnicmpPKcS0_j(ptr noundef %0, ptr noundef %1, i32 noundef %4)
  %6 = icmp eq i32 %5, 0
  ret i1 %6
}

; Function Attrs: mustprogress nofree nounwind willreturn memory(argmem: read) uwtable
define dso_local noundef i32 @_ZN11xercesc_2_59XMLString9stringLenEPKc(ptr nocapture noundef readonly %0) local_unnamed_addr #6 align 2 {
  %2 = tail call i64 @strlen(ptr noundef nonnull dereferenceable(1) %0) #28
  %3 = trunc i64 %2 to i32
  ret i32 %3
}

; Function Attrs: uwtable
define dso_local noundef ptr @_ZN11xercesc_2_59XMLString9transcodeEPKt(ptr noundef %0) local_unnamed_addr #1 align 2 {
  %2 = load ptr, ptr @_ZN11xercesc_2_5L11gTranscoderE, align 8, !tbaa !45
  %3 = load ptr, ptr %2, align 8, !tbaa !37
  %4 = getelementptr inbounds ptr, ptr %3, i64 4
  %5 = load ptr, ptr %4, align 8
  %6 = tail call noundef ptr %5(ptr noundef nonnull align 8 dereferenceable(8) %2, ptr noundef %0)
  ret ptr %6
}

; Function Attrs: uwtable
define dso_local noundef ptr @_ZN11xercesc_2_59XMLString9transcodeEPKtPNS_13MemoryManagerE(ptr noundef %0, ptr noundef %1) local_unnamed_addr #1 align 2 {
  %3 = load ptr, ptr @_ZN11xercesc_2_5L11gTranscoderE, align 8, !tbaa !45
  %4 = load ptr, ptr %3, align 8, !tbaa !37
  %5 = getelementptr inbounds ptr, ptr %4, i64 5
  %6 = load ptr, ptr %5, align 8
  %7 = tail call noundef ptr %6(ptr noundef nonnull align 8 dereferenceable(8) %3, ptr noundef %0, ptr noundef %1)
  ret ptr %7
}

; Function Attrs: uwtable
define dso_local noundef zeroext i1 @_ZN11xercesc_2_59XMLString9transcodeEPKtPcjPNS_13MemoryManagerE(ptr noundef %0, ptr noundef %1, i32 noundef %2, ptr noundef %3) local_unnamed_addr #1 align 2 {
  %5 = load ptr, ptr @_ZN11xercesc_2_5L11gTranscoderE, align 8, !tbaa !45
  %6 = load ptr, ptr %5, align 8, !tbaa !37
  %7 = getelementptr inbounds ptr, ptr %6, i64 9
  %8 = load ptr, ptr %7, align 8
  %9 = tail call noundef zeroext i1 %8(ptr noundef nonnull align 8 dereferenceable(8) %5, ptr noundef %0, ptr noundef %1, i32 noundef %2, ptr noundef %3)
  ret i1 %9
}

; Function Attrs: uwtable
define dso_local noundef ptr @_ZN11xercesc_2_59XMLString9transcodeEPKc(ptr noundef %0) local_unnamed_addr #1 align 2 {
  %2 = load ptr, ptr @_ZN11xercesc_2_5L11gTranscoderE, align 8, !tbaa !45
  %3 = load ptr, ptr %2, align 8, !tbaa !37
  %4 = getelementptr inbounds ptr, ptr %3, i64 6
  %5 = load ptr, ptr %4, align 8
  %6 = tail call noundef ptr %5(ptr noundef nonnull align 8 dereferenceable(8) %2, ptr noundef %0)
  ret ptr %6
}

; Function Attrs: uwtable
define dso_local noundef ptr @_ZN11xercesc_2_59XMLString9transcodeEPKcPNS_13MemoryManagerE(ptr noundef %0, ptr noundef %1) local_unnamed_addr #1 align 2 {
  %3 = load ptr, ptr @_ZN11xercesc_2_5L11gTranscoderE, align 8, !tbaa !45
  %4 = load ptr, ptr %3, align 8, !tbaa !37
  %5 = getelementptr inbounds ptr, ptr %4, i64 7
  %6 = load ptr, ptr %5, align 8
  %7 = tail call noundef ptr %6(ptr noundef nonnull align 8 dereferenceable(8) %3, ptr noundef %0, ptr noundef %1)
  ret ptr %7
}

; Function Attrs: uwtable
define dso_local noundef zeroext i1 @_ZN11xercesc_2_59XMLString9transcodeEPKcPtjPNS_13MemoryManagerE(ptr noundef %0, ptr noundef %1, i32 noundef %2, ptr noundef %3) local_unnamed_addr #1 align 2 {
  %5 = load ptr, ptr @_ZN11xercesc_2_5L11gTranscoderE, align 8, !tbaa !45
  %6 = load ptr, ptr %5, align 8, !tbaa !37
  %7 = getelementptr inbounds ptr, ptr %6, i64 8
  %8 = load ptr, ptr %7, align 8
  %9 = tail call noundef zeroext i1 %8(ptr noundef nonnull align 8 dereferenceable(8) %5, ptr noundef %0, ptr noundef %1, i32 noundef %2, ptr noundef %3)
  ret i1 %9
}

; Function Attrs: nofree nounwind memory(read, argmem: readwrite) uwtable
define dso_local void @_ZN11xercesc_2_59XMLString4trimEPc(ptr nocapture noundef %0) local_unnamed_addr #12 align 2 {
  %2 = tail call i64 @strlen(ptr noundef nonnull dereferenceable(1) %0) #28
  %3 = trunc i64 %2 to i32
  %4 = icmp eq i32 %3, 0
  %5 = and i64 %2, 4294967295
  br i1 %4, label %18, label %6

6:                                                ; preds = %1, %13
  %7 = phi i64 [ %14, %13 ], [ 0, %1 ]
  %8 = getelementptr inbounds i8, ptr %0, i64 %7
  %9 = load i8, ptr %8, align 1, !tbaa !34
  %10 = sext i8 %9 to i32
  %11 = tail call i32 @isspace(i32 noundef %10) #28
  %12 = icmp eq i32 %11, 0
  br i1 %12, label %16, label %13

13:                                               ; preds = %6
  %14 = add nuw nsw i64 %7, 1
  %15 = icmp eq i64 %14, %5
  br i1 %15, label %18, label %6

16:                                               ; preds = %6
  %17 = trunc i64 %7 to i32
  br label %18

18:                                               ; preds = %13, %16, %1
  %19 = phi i32 [ 0, %1 ], [ %17, %16 ], [ %3, %13 ]
  %20 = zext i32 %19 to i64
  %21 = tail call i32 @llvm.umin.i32(i32 %19, i32 %3)
  br label %22

22:                                               ; preds = %25, %18
  %23 = phi i64 [ %26, %25 ], [ %5, %18 ]
  %24 = icmp ugt i64 %23, %20
  br i1 %24, label %25, label %34

25:                                               ; preds = %22
  %26 = add nsw i64 %23, -1
  %27 = getelementptr inbounds i8, ptr %0, i64 %26
  %28 = load i8, ptr %27, align 1, !tbaa !34
  %29 = sext i8 %28 to i32
  %30 = tail call i32 @isspace(i32 noundef %29) #28
  %31 = icmp eq i32 %30, 0
  br i1 %31, label %32, label %22

32:                                               ; preds = %25
  %33 = trunc i64 %23 to i32
  br label %34

34:                                               ; preds = %22, %32
  %35 = phi i32 [ %33, %32 ], [ %21, %22 ]
  %36 = icmp eq i32 %35, %3
  br i1 %36, label %40, label %37

37:                                               ; preds = %34
  %38 = zext i32 %35 to i64
  %39 = getelementptr inbounds i8, ptr %0, i64 %38
  store i8 0, ptr %39, align 1, !tbaa !34
  br label %40

40:                                               ; preds = %37, %34
  %41 = icmp eq i32 %19, 0
  br i1 %41, label %63, label %42

42:                                               ; preds = %40
  %43 = getelementptr inbounds i8, ptr %0, i64 %20
  %44 = load i8, ptr %43, align 1, !tbaa !34
  %45 = icmp eq i8 %44, 0
  br i1 %45, label %60, label %46

46:                                               ; preds = %42, %46
  %47 = phi i8 [ %56, %46 ], [ %44, %42 ]
  %48 = phi i32 [ %51, %46 ], [ 0, %42 ]
  %49 = phi i32 [ %50, %46 ], [ %19, %42 ]
  %50 = add i32 %49, 1
  %51 = add i32 %48, 1
  %52 = zext i32 %48 to i64
  %53 = getelementptr inbounds i8, ptr %0, i64 %52
  store i8 %47, ptr %53, align 1, !tbaa !34
  %54 = zext i32 %50 to i64
  %55 = getelementptr inbounds i8, ptr %0, i64 %54
  %56 = load i8, ptr %55, align 1, !tbaa !34
  %57 = icmp eq i8 %56, 0
  br i1 %57, label %58, label %46

58:                                               ; preds = %46
  %59 = zext i32 %51 to i64
  br label %60

60:                                               ; preds = %58, %42
  %61 = phi i64 [ 0, %42 ], [ %59, %58 ]
  %62 = getelementptr inbounds i8, ptr %0, i64 %61
  store i8 0, ptr %62, align 1, !tbaa !34
  br label %63

63:                                               ; preds = %60, %40
  ret void
}

; Function Attrs: mustprogress nofree nounwind willreturn memory(read)
declare i32 @isspace(i32 noundef) local_unnamed_addr #13

; Function Attrs: uwtable
define dso_local void @_ZN11xercesc_2_59XMLString9subStringEPcPKciiPNS_13MemoryManagerE(ptr noundef writeonly %0, ptr nocapture noundef readonly %1, i32 noundef %2, i32 noundef %3, ptr noundef %4) local_unnamed_addr #1 align 2 personality ptr @__gxx_personality_v0 {
  %6 = icmp eq ptr %0, null
  br i1 %6, label %7, label %12

7:                                                ; preds = %5
  %8 = tail call ptr @__cxa_allocate_exception(i64 48) #25
  invoke void @_ZN11xercesc_2_524IllegalArgumentExceptionC2EPKcjNS_10XMLExcepts5CodesEPNS_13MemoryManagerE(ptr noundef nonnull align 8 dereferenceable(48) %8, ptr noundef nonnull @.str, i32 noundef 655, i32 noundef 79, ptr noundef %4)
          to label %9 unwind label %10

9:                                                ; preds = %7
  tail call void @__cxa_throw(ptr nonnull %8, ptr nonnull @_ZTIN11xercesc_2_524IllegalArgumentExceptionE, ptr nonnull @_ZN11xercesc_2_512XMLExceptionD2Ev) #26
  unreachable

10:                                               ; preds = %7
  %11 = landingpad { ptr, i32 }
          cleanup
  br label %43

12:                                               ; preds = %5
  %13 = tail call i64 @strlen(ptr noundef nonnull dereferenceable(1) %1) #28
  %14 = trunc i64 %13 to i32
  %15 = icmp slt i32 %2, 0
  %16 = icmp sgt i32 %2, %3
  %17 = or i1 %15, %16
  %18 = icmp slt i32 %14, %3
  %19 = select i1 %17, i1 true, i1 %18
  br i1 %19, label %25, label %20

20:                                               ; preds = %12
  %21 = icmp slt i32 %2, %3
  br i1 %21, label %22, label %30

22:                                               ; preds = %20
  %23 = zext i32 %2 to i64
  %24 = sext i32 %3 to i64
  br label %34

25:                                               ; preds = %12
  %26 = tail call ptr @__cxa_allocate_exception(i64 48) #25
  invoke void @_ZN11xercesc_2_530ArrayIndexOutOfBoundsExceptionC2EPKcjNS_10XMLExcepts5CodesEPNS_13MemoryManagerE(ptr noundef nonnull align 8 dereferenceable(48) %26, ptr noundef nonnull @.str, i32 noundef 662, i32 noundef 82, ptr noundef %4)
          to label %27 unwind label %28

27:                                               ; preds = %25
  tail call void @__cxa_throw(ptr nonnull %26, ptr nonnull @_ZTIN11xercesc_2_530ArrayIndexOutOfBoundsExceptionE, ptr nonnull @_ZN11xercesc_2_512XMLExceptionD2Ev) #26
  unreachable

28:                                               ; preds = %25
  %29 = landingpad { ptr, i32 }
          cleanup
  br label %43

30:                                               ; preds = %34, %20
  %31 = sub nsw i32 %3, %2
  %32 = sext i32 %31 to i64
  %33 = getelementptr inbounds i8, ptr %0, i64 %32
  store i8 0, ptr %33, align 1, !tbaa !34
  ret void

34:                                               ; preds = %22, %34
  %35 = phi i64 [ %23, %22 ], [ %41, %34 ]
  %36 = and i64 %35, 4294967295
  %37 = getelementptr inbounds i8, ptr %1, i64 %36
  %38 = load i8, ptr %37, align 1, !tbaa !34
  %39 = sub nuw nsw i64 %35, %23
  %40 = getelementptr inbounds i8, ptr %0, i64 %39
  store i8 %38, ptr %40, align 1, !tbaa !34
  %41 = add nuw nsw i64 %35, 1
  %42 = icmp eq i64 %41, %24
  br i1 %42, label %30, label %34

43:                                               ; preds = %28, %10
  %44 = phi ptr [ %26, %28 ], [ %8, %10 ]
  %45 = phi { ptr, i32 } [ %29, %28 ], [ %11, %10 ]
  tail call void @__cxa_free_exception(ptr %44) #25
  resume { ptr, i32 } %45
}

; Function Attrs: uwtable
define dso_local noundef zeroext i1 @_ZN11xercesc_2_59XMLString13isValidNCNameEPKt(ptr noundef %0) local_unnamed_addr #1 align 2 {
  %2 = icmp eq ptr %0, null
  br i1 %2, label %17, label %3

3:                                                ; preds = %1
  %4 = load i16, ptr %0, align 2, !tbaa !39
  %5 = icmp eq i16 %4, 0
  br i1 %5, label %17, label %6

6:                                                ; preds = %3, %6
  %7 = phi ptr [ %8, %6 ], [ %0, %3 ]
  %8 = getelementptr inbounds i16, ptr %7, i64 1
  %9 = load i16, ptr %8, align 2, !tbaa !39
  %10 = icmp eq i16 %9, 0
  br i1 %10, label %11, label %6

11:                                               ; preds = %6
  %12 = ptrtoint ptr %8 to i64
  %13 = ptrtoint ptr %0 to i64
  %14 = sub i64 %12, %13
  %15 = lshr exact i64 %14, 1
  %16 = trunc i64 %15 to i32
  br label %17

17:                                               ; preds = %1, %3, %11
  %18 = phi i32 [ %16, %11 ], [ 0, %3 ], [ 0, %1 ]
  %19 = tail call noundef zeroext i1 @_ZN11xercesc_2_510XMLChar1_013isValidNCNameEPKtj(ptr noundef %0, i32 noundef %18)
  ret i1 %19
}

declare noundef zeroext i1 @_ZN11xercesc_2_510XMLChar1_013isValidNCNameEPKtj(ptr noundef, i32 noundef) local_unnamed_addr #5

; Function Attrs: uwtable
define dso_local noundef zeroext i1 @_ZN11xercesc_2_59XMLString11isValidNameEPKt(ptr noundef %0) local_unnamed_addr #1 align 2 {
  %2 = icmp eq ptr %0, null
  br i1 %2, label %17, label %3

3:                                                ; preds = %1
  %4 = load i16, ptr %0, align 2, !tbaa !39
  %5 = icmp eq i16 %4, 0
  br i1 %5, label %17, label %6

6:                                                ; preds = %3, %6
  %7 = phi ptr [ %8, %6 ], [ %0, %3 ]
  %8 = getelementptr inbounds i16, ptr %7, i64 1
  %9 = load i16, ptr %8, align 2, !tbaa !39
  %10 = icmp eq i16 %9, 0
  br i1 %10, label %11, label %6

11:                                               ; preds = %6
  %12 = ptrtoint ptr %8 to i64
  %13 = ptrtoint ptr %0 to i64
  %14 = sub i64 %12, %13
  %15 = lshr exact i64 %14, 1
  %16 = trunc i64 %15 to i32
  br label %17

17:                                               ; preds = %1, %3, %11
  %18 = phi i32 [ %16, %11 ], [ 0, %3 ], [ 0, %1 ]
  %19 = tail call noundef zeroext i1 @_ZN11xercesc_2_510XMLChar1_011isValidNameEPKtj(ptr noundef %0, i32 noundef %18)
  ret i1 %19
}

declare noundef zeroext i1 @_ZN11xercesc_2_510XMLChar1_011isValidNameEPKtj(ptr noundef, i32 noundef) local_unnamed_addr #5

; Function Attrs: nofree norecurse nosync nounwind memory(read, inaccessiblemem: none) uwtable
define dso_local noundef zeroext i1 @_ZN11xercesc_2_59XMLString14isValidEncNameEPKt(ptr noundef %0) local_unnamed_addr #14 align 2 {
  %2 = icmp eq ptr %0, null
  br i1 %2, label %39, label %3

3:                                                ; preds = %1
  %4 = load i16, ptr %0, align 2, !tbaa !39
  %5 = icmp eq i16 %4, 0
  br i1 %5, label %39, label %6

6:                                                ; preds = %3, %6
  %7 = phi ptr [ %8, %6 ], [ %0, %3 ]
  %8 = getelementptr inbounds i16, ptr %7, i64 1
  %9 = load i16, ptr %8, align 2, !tbaa !39
  %10 = icmp eq i16 %9, 0
  br i1 %10, label %11, label %6

11:                                               ; preds = %6
  %12 = ptrtoint ptr %8 to i64
  %13 = ptrtoint ptr %0 to i64
  %14 = sub i64 %12, %13
  %15 = and i64 %14, 8589934590
  %16 = icmp eq i64 %15, 0
  br i1 %16, label %39, label %17

17:                                               ; preds = %11
  %18 = and i16 %4, -33
  %19 = add i16 %18, -65
  %20 = icmp ult i16 %19, 26
  br i1 %20, label %21, label %39

21:                                               ; preds = %17
  %22 = getelementptr inbounds i16, ptr %0, i64 1
  %23 = load i16, ptr %22, align 2, !tbaa !39
  %24 = icmp eq i16 %23, 0
  br i1 %24, label %39, label %25

25:                                               ; preds = %21, %35
  %26 = phi i16 [ %37, %35 ], [ %23, %21 ]
  %27 = phi ptr [ %36, %35 ], [ %22, %21 ]
  %28 = and i16 %26, -33
  %29 = add i16 %28, -65
  %30 = icmp ult i16 %29, 26
  %31 = add i16 %26, -48
  %32 = icmp ult i16 %31, 10
  %33 = or i1 %32, %30
  br i1 %33, label %35, label %34

34:                                               ; preds = %25
  switch i16 %26, label %39 [
    i16 46, label %35
    i16 95, label %35
    i16 45, label %35
  ]

35:                                               ; preds = %34, %34, %34, %25
  %36 = getelementptr inbounds i16, ptr %27, i64 1
  %37 = load i16, ptr %36, align 2, !tbaa !39
  %38 = icmp eq i16 %37, 0
  br i1 %38, label %39, label %25

39:                                               ; preds = %35, %34, %21, %1, %3, %17, %11
  %40 = phi i1 [ false, %11 ], [ false, %17 ], [ false, %3 ], [ false, %1 ], [ true, %21 ], [ true, %35 ], [ false, %34 ]
  ret i1 %40
}

; Function Attrs: mustprogress nofree norecurse nosync nounwind willreturn memory(none) uwtable
define dso_local noundef zeroext i1 @_ZN11xercesc_2_59XMLString7isAlphaEt(i16 noundef zeroext %0) local_unnamed_addr #15 align 2 {
  %2 = and i16 %0, -33
  %3 = add i16 %2, -65
  %4 = icmp ult i16 %3, 26
  ret i1 %4
}

; Function Attrs: mustprogress nofree norecurse nosync nounwind willreturn memory(none) uwtable
define dso_local noundef zeroext i1 @_ZN11xercesc_2_59XMLString7isDigitEt(i16 noundef zeroext %0) local_unnamed_addr #15 align 2 {
  %2 = add i16 %0, -48
  %3 = icmp ult i16 %2, 10
  ret i1 %3
}

; Function Attrs: uwtable
define dso_local noundef zeroext i1 @_ZN11xercesc_2_59XMLString12isValidQNameEPKt(ptr noundef %0) local_unnamed_addr #1 align 2 {
  %2 = icmp eq ptr %0, null
  br i1 %2, label %17, label %3

3:                                                ; preds = %1
  %4 = load i16, ptr %0, align 2, !tbaa !39
  %5 = icmp eq i16 %4, 0
  br i1 %5, label %17, label %6

6:                                                ; preds = %3, %6
  %7 = phi ptr [ %8, %6 ], [ %0, %3 ]
  %8 = getelementptr inbounds i16, ptr %7, i64 1
  %9 = load i16, ptr %8, align 2, !tbaa !39
  %10 = icmp eq i16 %9, 0
  br i1 %10, label %11, label %6

11:                                               ; preds = %6
  %12 = ptrtoint ptr %8 to i64
  %13 = ptrtoint ptr %0 to i64
  %14 = sub i64 %12, %13
  %15 = lshr exact i64 %14, 1
  %16 = trunc i64 %15 to i32
  br label %17

17:                                               ; preds = %1, %3, %11
  %18 = phi i32 [ %16, %11 ], [ 0, %3 ], [ 0, %1 ]
  %19 = tail call noundef zeroext i1 @_ZN11xercesc_2_510XMLChar1_012isValidQNameEPKtj(ptr noundef %0, i32 noundef %18)
  ret i1 %19
}

declare noundef zeroext i1 @_ZN11xercesc_2_510XMLChar1_012isValidQNameEPKtj(ptr noundef, i32 noundef) local_unnamed_addr #5

; Function Attrs: mustprogress nofree norecurse nosync nounwind willreturn memory(none) uwtable
define dso_local noundef zeroext i1 @_ZN11xercesc_2_59XMLString10isAlphaNumEt(i16 noundef zeroext %0) local_unnamed_addr #15 align 2 {
  %2 = and i16 %0, -33
  %3 = add i16 %2, -65
  %4 = icmp ult i16 %3, 26
  %5 = add i16 %0, -48
  %6 = icmp ult i16 %5, 10
  %7 = or i1 %6, %4
  ret i1 %7
}

; Function Attrs: mustprogress nofree norecurse nosync nounwind willreturn memory(none) uwtable
define dso_local noundef zeroext i1 @_ZN11xercesc_2_59XMLString5isHexEt(i16 noundef zeroext %0) local_unnamed_addr #15 align 2 {
  %2 = add i16 %0, -48
  %3 = icmp ult i16 %2, 10
  %4 = add i16 %0, -97
  %5 = icmp ult i16 %4, 6
  %6 = or i1 %3, %5
  br i1 %6, label %10, label %7

7:                                                ; preds = %1
  %8 = add i16 %0, -65
  %9 = icmp ult i16 %8, 6
  br label %10

10:                                               ; preds = %7, %1
  %11 = phi i1 [ true, %1 ], [ %9, %7 ]
  ret i1 %11
}

; Function Attrs: uwtable
define dso_local noundef zeroext i1 @_ZN11xercesc_2_59XMLString15isAllWhiteSpaceEPKt(ptr noundef %0) local_unnamed_addr #1 align 2 {
  %2 = icmp eq ptr %0, null
  br i1 %2, label %17, label %3

3:                                                ; preds = %1
  %4 = load i16, ptr %0, align 2, !tbaa !39
  %5 = icmp eq i16 %4, 0
  br i1 %5, label %17, label %6

6:                                                ; preds = %3, %6
  %7 = phi ptr [ %8, %6 ], [ %0, %3 ]
  %8 = getelementptr inbounds i16, ptr %7, i64 1
  %9 = load i16, ptr %8, align 2, !tbaa !39
  %10 = icmp eq i16 %9, 0
  br i1 %10, label %11, label %6

11:                                               ; preds = %6
  %12 = ptrtoint ptr %8 to i64
  %13 = ptrtoint ptr %0 to i64
  %14 = sub i64 %12, %13
  %15 = lshr exact i64 %14, 1
  %16 = trunc i64 %15 to i32
  br label %17

17:                                               ; preds = %1, %3, %11
  %18 = phi i32 [ %16, %11 ], [ 0, %3 ], [ 0, %1 ]
  %19 = tail call noundef zeroext i1 @_ZN11xercesc_2_510XMLChar1_011isAllSpacesEPKtj(ptr noundef %0, i32 noundef %18)
  ret i1 %19
}

declare noundef zeroext i1 @_ZN11xercesc_2_510XMLChar1_011isAllSpacesEPKtj(ptr noundef, i32 noundef) local_unnamed_addr #5

; Function Attrs: uwtable
define dso_local void @_ZN11xercesc_2_59XMLString9binToTextEmPtjjPNS_13MemoryManagerE(i64 noundef %0, ptr nocapture noundef writeonly %1, i32 noundef %2, i32 noundef %3, ptr noundef %4) local_unnamed_addr #1 align 2 personality ptr @__gxx_personality_v0 {
  %6 = alloca [128 x i16], align 16
  %7 = icmp eq i32 %2, 0
  br i1 %7, label %8, label %13

8:                                                ; preds = %5
  %9 = tail call ptr @__cxa_allocate_exception(i64 48) #25
  invoke void @_ZN11xercesc_2_524IllegalArgumentExceptionC2EPKcjNS_10XMLExcepts5CodesEPNS_13MemoryManagerE(ptr noundef nonnull align 8 dereferenceable(48) %9, ptr noundef nonnull @.str, i32 noundef 783, i32 noundef 79, ptr noundef %4)
          to label %10 unwind label %11

10:                                               ; preds = %8
  tail call void @__cxa_throw(ptr nonnull %9, ptr nonnull @_ZTIN11xercesc_2_524IllegalArgumentExceptionE, ptr nonnull @_ZN11xercesc_2_512XMLExceptionD2Ev) #26
  unreachable

11:                                               ; preds = %8
  %12 = landingpad { ptr, i32 }
          cleanup
  tail call void @__cxa_free_exception(ptr %9) #25
  br label %100

13:                                               ; preds = %5
  %14 = icmp eq i64 %0, 0
  br i1 %14, label %15, label %17

15:                                               ; preds = %13
  store i16 48, ptr %1, align 2, !tbaa !39
  %16 = getelementptr inbounds i16, ptr %1, i64 1
  store i16 0, ptr %16, align 2, !tbaa !39
  br label %96

17:                                               ; preds = %13
  %18 = trunc i64 %0 to i32
  call void @llvm.lifetime.start.p0(i64 256, ptr nonnull %6) #25
  switch i32 %3, label %44 [
    i32 2, label %21
    i32 16, label %19
  ]

19:                                               ; preds = %17
  %20 = icmp eq i32 %18, 0
  br i1 %20, label %92, label %33

21:                                               ; preds = %17
  %22 = icmp eq i32 %18, 0
  br i1 %22, label %92, label %23

23:                                               ; preds = %21, %23
  %24 = phi i64 [ %30, %23 ], [ 0, %21 ]
  %25 = phi i32 [ %31, %23 ], [ %18, %21 ]
  %26 = and i32 %25, 1
  %27 = icmp eq i32 %26, 0
  %28 = select i1 %27, i16 48, i16 49
  %29 = getelementptr inbounds [128 x i16], ptr %6, i64 0, i64 %24
  store i16 %28, ptr %29, align 2
  %30 = add nuw nsw i64 %24, 1
  %31 = lshr i32 %25, 1
  %32 = icmp ult i32 %25, 2
  br i1 %32, label %66, label %23

33:                                               ; preds = %19, %33
  %34 = phi i64 [ %40, %33 ], [ 0, %19 ]
  %35 = phi i32 [ %42, %33 ], [ %18, %19 ]
  %36 = and i32 %35, 15
  %37 = zext i32 %36 to i64
  %38 = getelementptr inbounds [16 x i16], ptr @_ZZN11xercesc_2_59XMLString9binToTextEmPtjjPNS_13MemoryManagerEE9digitList, i64 0, i64 %37
  %39 = load i16, ptr %38, align 2, !tbaa !39
  %40 = add nuw nsw i64 %34, 1
  %41 = getelementptr inbounds [128 x i16], ptr %6, i64 0, i64 %34
  store i16 %39, ptr %41, align 2, !tbaa !39
  %42 = lshr i32 %35, 4
  %43 = icmp ult i32 %35, 16
  br i1 %43, label %68, label %33

44:                                               ; preds = %17
  %45 = and i32 %3, -3
  %46 = icmp eq i32 %45, 8
  br i1 %46, label %47, label %61

47:                                               ; preds = %44
  %48 = icmp eq i32 %18, 0
  br i1 %48, label %92, label %49

49:                                               ; preds = %47, %49
  %50 = phi i32 [ %59, %49 ], [ %18, %47 ]
  %51 = phi i32 [ %56, %49 ], [ 0, %47 ]
  %52 = urem i32 %50, %3
  %53 = zext i32 %52 to i64
  %54 = getelementptr inbounds [16 x i16], ptr @_ZZN11xercesc_2_59XMLString9binToTextEmPtjjPNS_13MemoryManagerEE9digitList, i64 0, i64 %53
  %55 = load i16, ptr %54, align 2, !tbaa !39
  %56 = add i32 %51, 1
  %57 = zext i32 %51 to i64
  %58 = getelementptr inbounds [128 x i16], ptr %6, i64 0, i64 %57
  store i16 %55, ptr %58, align 2, !tbaa !39
  %59 = udiv i32 %50, %3
  %60 = icmp ult i32 %50, %3
  br i1 %60, label %70, label %49

61:                                               ; preds = %44
  %62 = tail call ptr @__cxa_allocate_exception(i64 48) #25
  invoke void @_ZN11xercesc_2_516RuntimeExceptionC2EPKcjNS_10XMLExcepts5CodesEPNS_13MemoryManagerE(ptr noundef nonnull align 8 dereferenceable(48) %62, ptr noundef nonnull @.str, i32 noundef 842, i32 noundef 80, ptr noundef %4)
          to label %63 unwind label %64

63:                                               ; preds = %61
  tail call void @__cxa_throw(ptr nonnull %62, ptr nonnull @_ZTIN11xercesc_2_516RuntimeExceptionE, ptr nonnull @_ZN11xercesc_2_512XMLExceptionD2Ev) #26
  unreachable

64:                                               ; preds = %61
  %65 = landingpad { ptr, i32 }
          cleanup
  br label %97

66:                                               ; preds = %23
  %67 = trunc i64 %30 to i32
  br label %70

68:                                               ; preds = %33
  %69 = trunc i64 %40 to i32
  br label %70

70:                                               ; preds = %49, %68, %66
  %71 = phi i32 [ %67, %66 ], [ %69, %68 ], [ %56, %49 ]
  %72 = icmp ugt i32 %71, %2
  br i1 %72, label %77, label %73

73:                                               ; preds = %70
  %74 = icmp eq i32 %71, 0
  br i1 %74, label %92, label %75

75:                                               ; preds = %73
  %76 = zext i32 %71 to i64
  br label %82

77:                                               ; preds = %70
  %78 = tail call ptr @__cxa_allocate_exception(i64 48) #25
  invoke void @_ZN11xercesc_2_524IllegalArgumentExceptionC2EPKcjNS_10XMLExcepts5CodesEPNS_13MemoryManagerE(ptr noundef nonnull align 8 dereferenceable(48) %78, ptr noundef nonnull @.str, i32 noundef 848, i32 noundef 81, ptr noundef %4)
          to label %79 unwind label %80

79:                                               ; preds = %77
  tail call void @__cxa_throw(ptr nonnull %78, ptr nonnull @_ZTIN11xercesc_2_524IllegalArgumentExceptionE, ptr nonnull @_ZN11xercesc_2_512XMLExceptionD2Ev) #26
  unreachable

80:                                               ; preds = %77
  %81 = landingpad { ptr, i32 }
          cleanup
  br label %97

82:                                               ; preds = %75, %82
  %83 = phi i64 [ %76, %75 ], [ %85, %82 ]
  %84 = phi i64 [ 0, %75 ], [ %89, %82 ]
  %85 = add nsw i64 %83, -1
  %86 = and i64 %85, 4294967295
  %87 = getelementptr inbounds [128 x i16], ptr %6, i64 0, i64 %86
  %88 = load i16, ptr %87, align 2, !tbaa !39
  %89 = add nuw nsw i64 %84, 1
  %90 = getelementptr inbounds i16, ptr %1, i64 %84
  store i16 %88, ptr %90, align 2, !tbaa !39
  %91 = icmp eq i64 %89, %76
  br i1 %91, label %92, label %82

92:                                               ; preds = %82, %47, %21, %19, %73
  %93 = phi i32 [ 0, %73 ], [ 0, %19 ], [ 0, %21 ], [ 0, %47 ], [ %71, %82 ]
  %94 = zext i32 %93 to i64
  %95 = getelementptr inbounds i16, ptr %1, i64 %94
  store i16 0, ptr %95, align 2, !tbaa !39
  call void @llvm.lifetime.end.p0(i64 256, ptr nonnull %6) #25
  br label %96

96:                                               ; preds = %92, %15
  ret void

97:                                               ; preds = %80, %64
  %98 = phi ptr [ %78, %80 ], [ %62, %64 ]
  %99 = phi { ptr, i32 } [ %81, %80 ], [ %65, %64 ]
  tail call void @__cxa_free_exception(ptr %98) #25
  call void @llvm.lifetime.end.p0(i64 256, ptr nonnull %6) #25
  br label %100

100:                                              ; preds = %97, %11
  %101 = phi { ptr, i32 } [ %99, %97 ], [ %12, %11 ]
  resume { ptr, i32 } %101
}

; Function Attrs: uwtable
define dso_local void @_ZN11xercesc_2_59XMLString9binToTextEjPtjjPNS_13MemoryManagerE(i32 noundef %0, ptr nocapture noundef writeonly %1, i32 noundef %2, i32 noundef %3, ptr noundef %4) local_unnamed_addr #1 align 2 {
  %6 = zext i32 %0 to i64
  tail call void @_ZN11xercesc_2_59XMLString9binToTextEmPtjjPNS_13MemoryManagerE(i64 noundef %6, ptr noundef %1, i32 noundef %2, i32 noundef %3, ptr noundef %4)
  ret void
}

; Function Attrs: uwtable
define dso_local void @_ZN11xercesc_2_59XMLString9binToTextElPtjjPNS_13MemoryManagerE(i64 noundef %0, ptr nocapture noundef writeonly %1, i32 noundef %2, i32 noundef %3, ptr noundef %4) local_unnamed_addr #1 align 2 {
  %6 = icmp slt i64 %0, 0
  br i1 %6, label %7, label %9

7:                                                ; preds = %5
  store i16 45, ptr %1, align 2, !tbaa !39
  %8 = sub nsw i64 0, %0
  br label %9

9:                                                ; preds = %5, %7
  %10 = phi i64 [ 1, %7 ], [ 0, %5 ]
  %11 = phi i64 [ %8, %7 ], [ %0, %5 ]
  %12 = getelementptr inbounds i16, ptr %1, i64 %10
  tail call void @_ZN11xercesc_2_59XMLString9binToTextEmPtjjPNS_13MemoryManagerE(i64 noundef %11, ptr noundef %12, i32 noundef %2, i32 noundef %3, ptr noundef %4)
  ret void
}

; Function Attrs: uwtable
define dso_local void @_ZN11xercesc_2_59XMLString9binToTextEiPtjjPNS_13MemoryManagerE(i32 noundef %0, ptr nocapture noundef writeonly %1, i32 noundef %2, i32 noundef %3, ptr noundef %4) local_unnamed_addr #1 align 2 {
  %6 = icmp slt i32 %0, 0
  br i1 %6, label %7, label %9

7:                                                ; preds = %5
  store i16 45, ptr %1, align 2, !tbaa !39
  %8 = sub nsw i32 0, %0
  br label %9

9:                                                ; preds = %5, %7
  %10 = phi i64 [ 1, %7 ], [ 0, %5 ]
  %11 = phi i32 [ %8, %7 ], [ %0, %5 ]
  %12 = zext i32 %11 to i64
  %13 = getelementptr inbounds i16, ptr %1, i64 %10
  tail call void @_ZN11xercesc_2_59XMLString9binToTextEmPtjjPNS_13MemoryManagerE(i64 noundef %12, ptr noundef %13, i32 noundef %2, i32 noundef %3, ptr noundef %4)
  ret void
}

; Function Attrs: nofree norecurse nosync nounwind memory(read, argmem: readwrite, inaccessiblemem: none) uwtable
define dso_local void @_ZN11xercesc_2_59XMLString9catStringEPtPKt(ptr noundef %0, ptr nocapture noundef readonly %1) local_unnamed_addr #16 align 2 {
  %3 = icmp eq ptr %0, null
  br i1 %3, label %18, label %4

4:                                                ; preds = %2
  %5 = load i16, ptr %0, align 2, !tbaa !39
  %6 = icmp eq i16 %5, 0
  br i1 %6, label %18, label %7

7:                                                ; preds = %4, %7
  %8 = phi ptr [ %9, %7 ], [ %0, %4 ]
  %9 = getelementptr inbounds i16, ptr %8, i64 1
  %10 = load i16, ptr %9, align 2, !tbaa !39
  %11 = icmp eq i16 %10, 0
  br i1 %11, label %12, label %7

12:                                               ; preds = %7
  %13 = ptrtoint ptr %9 to i64
  %14 = ptrtoint ptr %0 to i64
  %15 = sub i64 %13, %14
  %16 = lshr exact i64 %15, 1
  %17 = trunc i64 %16 to i32
  br label %18

18:                                               ; preds = %2, %4, %12
  %19 = phi i32 [ %17, %12 ], [ 0, %4 ], [ 0, %2 ]
  %20 = load i16, ptr %1, align 2, !tbaa !39
  %21 = icmp eq i16 %20, 0
  br i1 %21, label %32, label %22

22:                                               ; preds = %18, %22
  %23 = phi i16 [ %30, %22 ], [ %20, %18 ]
  %24 = phi ptr [ %26, %22 ], [ %1, %18 ]
  %25 = phi i32 [ %27, %22 ], [ %19, %18 ]
  %26 = getelementptr inbounds i16, ptr %24, i64 1
  %27 = add i32 %25, 1
  %28 = zext i32 %25 to i64
  %29 = getelementptr inbounds i16, ptr %0, i64 %28
  store i16 %23, ptr %29, align 2, !tbaa !39
  %30 = load i16, ptr %26, align 2, !tbaa !39
  %31 = icmp eq i16 %30, 0
  br i1 %31, label %32, label %22

32:                                               ; preds = %22, %18
  %33 = phi i32 [ %19, %18 ], [ %27, %22 ]
  %34 = zext i32 %33 to i64
  %35 = getelementptr inbounds i16, ptr %0, i64 %34
  store i16 0, ptr %35, align 2, !tbaa !39
  ret void
}

; Function Attrs: uwtable
define dso_local noundef i32 @_ZN11xercesc_2_59XMLString14compareIStringEPKtS2_(ptr noundef %0, ptr noundef %1) local_unnamed_addr #1 align 2 {
  %3 = load ptr, ptr @_ZN11xercesc_2_516XMLPlatformUtils14fgTransServiceE, align 8, !tbaa !45
  %4 = load ptr, ptr %3, align 8, !tbaa !37
  %5 = getelementptr inbounds ptr, ptr %4, i64 2
  %6 = load ptr, ptr %5, align 8
  %7 = tail call noundef i32 %6(ptr noundef nonnull align 8 dereferenceable(8) %3, ptr noundef %0, ptr noundef %1)
  ret i32 %7
}

; Function Attrs: nofree norecurse nosync nounwind memory(read, inaccessiblemem: none) uwtable
define dso_local noundef i32 @_ZN11xercesc_2_59XMLString14compareNStringEPKtS2_j(ptr nocapture noundef readonly %0, ptr nocapture noundef readonly %1, i32 noundef %2) local_unnamed_addr #14 align 2 {
  br label %4

4:                                                ; preds = %15, %3
  %5 = phi ptr [ %0, %3 ], [ %17, %15 ]
  %6 = phi ptr [ %1, %3 ], [ %18, %15 ]
  %7 = phi i32 [ 0, %3 ], [ %19, %15 ]
  %8 = load i16, ptr %5, align 2, !tbaa !39
  %9 = load i16, ptr %6, align 2, !tbaa !39
  %10 = icmp eq i16 %8, %9
  br i1 %10, label %15, label %11

11:                                               ; preds = %4
  %12 = zext i16 %9 to i32
  %13 = zext i16 %8 to i32
  %14 = sub nsw i32 %13, %12
  br label %22

15:                                               ; preds = %4
  %16 = icmp eq i16 %8, 0
  %17 = getelementptr inbounds i16, ptr %5, i64 1
  %18 = getelementptr inbounds i16, ptr %6, i64 1
  %19 = add i32 %7, 1
  %20 = icmp eq i32 %19, %2
  %21 = select i1 %16, i1 true, i1 %20
  br i1 %21, label %22, label %4

22:                                               ; preds = %15, %11
  %23 = phi i32 [ %14, %11 ], [ 0, %15 ]
  ret i32 %23
}

; Function Attrs: uwtable
define dso_local noundef i32 @_ZN11xercesc_2_59XMLString15compareNIStringEPKtS2_j(ptr noundef %0, ptr noundef %1, i32 noundef %2) local_unnamed_addr #1 align 2 {
  %4 = load ptr, ptr @_ZN11xercesc_2_516XMLPlatformUtils14fgTransServiceE, align 8, !tbaa !45
  %5 = load ptr, ptr %4, align 8, !tbaa !37
  %6 = getelementptr inbounds ptr, ptr %5, i64 3
  %7 = load ptr, ptr %6, align 8
  %8 = tail call noundef i32 %7(ptr noundef nonnull align 8 dereferenceable(8) %4, ptr noundef %0, ptr noundef %1, i32 noundef %2)
  ret i32 %8
}

; Function Attrs: nofree norecurse nosync nounwind memory(read, inaccessiblemem: none) uwtable
define dso_local noundef i32 @_ZN11xercesc_2_59XMLString13compareStringEPKtS2_(ptr nocapture noundef readonly %0, ptr nocapture noundef readonly %1) local_unnamed_addr #14 align 2 {
  %3 = load i16, ptr %0, align 2, !tbaa !39
  %4 = load i16, ptr %1, align 2, !tbaa !39
  %5 = icmp eq i16 %3, %4
  br i1 %5, label %12, label %6

6:                                                ; preds = %17, %2
  %7 = phi i16 [ %3, %2 ], [ %20, %17 ]
  %8 = phi i16 [ %4, %2 ], [ %21, %17 ]
  %9 = zext i16 %8 to i32
  %10 = zext i16 %7 to i32
  %11 = sub nsw i32 %10, %9
  br label %23

12:                                               ; preds = %2, %17
  %13 = phi i16 [ %20, %17 ], [ %3, %2 ]
  %14 = phi ptr [ %19, %17 ], [ %1, %2 ]
  %15 = phi ptr [ %18, %17 ], [ %0, %2 ]
  %16 = icmp eq i16 %13, 0
  br i1 %16, label %23, label %17

17:                                               ; preds = %12
  %18 = getelementptr inbounds i16, ptr %15, i64 1
  %19 = getelementptr inbounds i16, ptr %14, i64 1
  %20 = load i16, ptr %18, align 2, !tbaa !39
  %21 = load i16, ptr %19, align 2, !tbaa !39
  %22 = icmp eq i16 %20, %21
  br i1 %22, label %12, label %6

23:                                               ; preds = %12, %6
  %24 = phi i32 [ %11, %6 ], [ 0, %12 ]
  ret i32 %24
}

; Function Attrs: nofree norecurse nosync nounwind memory(read, inaccessiblemem: none) uwtable
define dso_local noundef zeroext i1 @_ZN11xercesc_2_59XMLString13regionMatchesEPKtiS2_ij(ptr noundef %0, i32 noundef %1, ptr noundef %2, i32 noundef %3, i32 noundef %4) local_unnamed_addr #14 align 2 {
  %6 = or i32 %3, %1
  %7 = icmp sgt i32 %6, -1
  br i1 %7, label %8, label %67

8:                                                ; preds = %5
  %9 = add i32 %4, %1
  %10 = icmp eq ptr %0, null
  br i1 %10, label %25, label %11

11:                                               ; preds = %8
  %12 = load i16, ptr %0, align 2, !tbaa !39
  %13 = icmp eq i16 %12, 0
  br i1 %13, label %25, label %14

14:                                               ; preds = %11, %14
  %15 = phi ptr [ %16, %14 ], [ %0, %11 ]
  %16 = getelementptr inbounds i16, ptr %15, i64 1
  %17 = load i16, ptr %16, align 2, !tbaa !39
  %18 = icmp eq i16 %17, 0
  br i1 %18, label %19, label %14

19:                                               ; preds = %14
  %20 = ptrtoint ptr %16 to i64
  %21 = ptrtoint ptr %0 to i64
  %22 = sub i64 %20, %21
  %23 = lshr exact i64 %22, 1
  %24 = trunc i64 %23 to i32
  br label %25

25:                                               ; preds = %19, %11, %8
  %26 = phi i32 [ %24, %19 ], [ 0, %11 ], [ 0, %8 ]
  %27 = icmp ugt i32 %9, %26
  br i1 %27, label %67, label %28

28:                                               ; preds = %25
  %29 = add i32 %4, %3
  %30 = icmp eq ptr %2, null
  br i1 %30, label %45, label %31

31:                                               ; preds = %28
  %32 = load i16, ptr %2, align 2, !tbaa !39
  %33 = icmp eq i16 %32, 0
  br i1 %33, label %45, label %34

34:                                               ; preds = %31, %34
  %35 = phi ptr [ %36, %34 ], [ %2, %31 ]
  %36 = getelementptr inbounds i16, ptr %35, i64 1
  %37 = load i16, ptr %36, align 2, !tbaa !39
  %38 = icmp eq i16 %37, 0
  br i1 %38, label %39, label %34

39:                                               ; preds = %34
  %40 = ptrtoint ptr %36 to i64
  %41 = ptrtoint ptr %2 to i64
  %42 = sub i64 %40, %41
  %43 = lshr exact i64 %42, 1
  %44 = trunc i64 %43 to i32
  br label %45

45:                                               ; preds = %28, %31, %39
  %46 = phi i32 [ %44, %39 ], [ 0, %31 ], [ 0, %28 ]
  %47 = icmp ugt i32 %29, %46
  br i1 %47, label %67, label %48

48:                                               ; preds = %45
  %49 = sext i32 %1 to i64
  %50 = getelementptr inbounds i16, ptr %0, i64 %49
  %51 = sext i32 %3 to i64
  %52 = getelementptr inbounds i16, ptr %2, i64 %51
  br label %53

53:                                               ; preds = %60, %48
  %54 = phi ptr [ %50, %48 ], [ %62, %60 ]
  %55 = phi ptr [ %52, %48 ], [ %63, %60 ]
  %56 = phi i32 [ 0, %48 ], [ %64, %60 ]
  %57 = load i16, ptr %54, align 2, !tbaa !39
  %58 = load i16, ptr %55, align 2, !tbaa !39
  %59 = icmp eq i16 %57, %58
  br i1 %59, label %60, label %67

60:                                               ; preds = %53
  %61 = icmp eq i16 %57, 0
  %62 = getelementptr inbounds i16, ptr %54, i64 1
  %63 = getelementptr inbounds i16, ptr %55, i64 1
  %64 = add i32 %56, 1
  %65 = icmp eq i32 %64, %4
  %66 = select i1 %61, i1 true, i1 %65
  br i1 %66, label %67, label %53

67:                                               ; preds = %60, %53, %5, %25, %45
  %68 = phi i1 [ false, %45 ], [ false, %25 ], [ false, %5 ], [ %59, %53 ], [ %59, %60 ]
  ret i1 %68
}

; Function Attrs: uwtable
define dso_local noundef zeroext i1 @_ZN11xercesc_2_59XMLString14regionIMatchesEPKtiS2_ij(ptr noundef %0, i32 noundef %1, ptr noundef %2, i32 noundef %3, i32 noundef %4) local_unnamed_addr #1 align 2 {
  %6 = or i32 %3, %1
  %7 = icmp sgt i32 %6, -1
  br i1 %7, label %8, label %59

8:                                                ; preds = %5
  %9 = add i32 %4, %1
  %10 = icmp eq ptr %0, null
  br i1 %10, label %25, label %11

11:                                               ; preds = %8
  %12 = load i16, ptr %0, align 2, !tbaa !39
  %13 = icmp eq i16 %12, 0
  br i1 %13, label %25, label %14

14:                                               ; preds = %11, %14
  %15 = phi ptr [ %16, %14 ], [ %0, %11 ]
  %16 = getelementptr inbounds i16, ptr %15, i64 1
  %17 = load i16, ptr %16, align 2, !tbaa !39
  %18 = icmp eq i16 %17, 0
  br i1 %18, label %19, label %14

19:                                               ; preds = %14
  %20 = ptrtoint ptr %16 to i64
  %21 = ptrtoint ptr %0 to i64
  %22 = sub i64 %20, %21
  %23 = lshr exact i64 %22, 1
  %24 = trunc i64 %23 to i32
  br label %25

25:                                               ; preds = %19, %11, %8
  %26 = phi i32 [ %24, %19 ], [ 0, %11 ], [ 0, %8 ]
  %27 = icmp ugt i32 %9, %26
  br i1 %27, label %59, label %28

28:                                               ; preds = %25
  %29 = add i32 %4, %3
  %30 = icmp eq ptr %2, null
  br i1 %30, label %45, label %31

31:                                               ; preds = %28
  %32 = load i16, ptr %2, align 2, !tbaa !39
  %33 = icmp eq i16 %32, 0
  br i1 %33, label %45, label %34

34:                                               ; preds = %31, %34
  %35 = phi ptr [ %36, %34 ], [ %2, %31 ]
  %36 = getelementptr inbounds i16, ptr %35, i64 1
  %37 = load i16, ptr %36, align 2, !tbaa !39
  %38 = icmp eq i16 %37, 0
  br i1 %38, label %39, label %34

39:                                               ; preds = %34
  %40 = ptrtoint ptr %36 to i64
  %41 = ptrtoint ptr %2 to i64
  %42 = sub i64 %40, %41
  %43 = lshr exact i64 %42, 1
  %44 = trunc i64 %43 to i32
  br label %45

45:                                               ; preds = %28, %31, %39
  %46 = phi i32 [ %44, %39 ], [ 0, %31 ], [ 0, %28 ]
  %47 = icmp ugt i32 %29, %46
  br i1 %47, label %59, label %48

48:                                               ; preds = %45
  %49 = sext i32 %1 to i64
  %50 = getelementptr inbounds i16, ptr %0, i64 %49
  %51 = sext i32 %3 to i64
  %52 = getelementptr inbounds i16, ptr %2, i64 %51
  %53 = load ptr, ptr @_ZN11xercesc_2_516XMLPlatformUtils14fgTransServiceE, align 8, !tbaa !45
  %54 = load ptr, ptr %53, align 8, !tbaa !37
  %55 = getelementptr inbounds ptr, ptr %54, i64 3
  %56 = load ptr, ptr %55, align 8
  %57 = tail call noundef i32 %56(ptr noundef nonnull align 8 dereferenceable(8) %53, ptr noundef %50, ptr noundef %52, i32 noundef %4)
  %58 = icmp eq i32 %57, 0
  br label %59

59:                                               ; preds = %5, %25, %48, %45
  %60 = phi i1 [ false, %45 ], [ %58, %48 ], [ false, %25 ], [ false, %5 ]
  ret i1 %60
}

; Function Attrs: nofree norecurse nosync nounwind memory(readwrite, inaccessiblemem: none) uwtable
define dso_local void @_ZN11xercesc_2_59XMLString10copyStringEPtPKt(ptr nocapture noundef writeonly %0, ptr noundef readonly %1) local_unnamed_addr #8 align 2 {
  %3 = icmp eq ptr %1, null
  br i1 %3, label %15, label %4

4:                                                ; preds = %2
  %5 = load i16, ptr %1, align 2, !tbaa !39
  %6 = icmp eq i16 %5, 0
  br i1 %6, label %15, label %7

7:                                                ; preds = %4, %7
  %8 = phi i16 [ %13, %7 ], [ %5, %4 ]
  %9 = phi ptr [ %11, %7 ], [ %1, %4 ]
  %10 = phi ptr [ %12, %7 ], [ %0, %4 ]
  %11 = getelementptr inbounds i16, ptr %9, i64 1
  %12 = getelementptr inbounds i16, ptr %10, i64 1
  store i16 %8, ptr %10, align 2, !tbaa !39
  %13 = load i16, ptr %11, align 2, !tbaa !39
  %14 = icmp eq i16 %13, 0
  br i1 %14, label %15, label %7

15:                                               ; preds = %7, %4, %2
  %16 = phi ptr [ %0, %2 ], [ %0, %4 ], [ %12, %7 ]
  store i16 0, ptr %16, align 2, !tbaa !39
  ret void
}

; Function Attrs: nofree norecurse nosync nounwind memory(readwrite, inaccessiblemem: none) uwtable
define dso_local noundef zeroext i1 @_ZN11xercesc_2_59XMLString11copyNStringEPtPKtj(ptr noundef writeonly %0, ptr nocapture noundef readonly %1, i32 noundef %2) local_unnamed_addr #8 align 2 {
  %4 = zext i32 %2 to i64
  %5 = getelementptr inbounds i16, ptr %0, i64 %4
  %6 = getelementptr inbounds i16, ptr %5, i64 -1
  %7 = load i16, ptr %1, align 2, !tbaa !39
  %8 = icmp ne i16 %7, 0
  %9 = icmp uge ptr %6, %0
  %10 = select i1 %8, i1 %9, i1 false
  br i1 %10, label %11, label %21

11:                                               ; preds = %3, %11
  %12 = phi i16 [ %17, %11 ], [ %7, %3 ]
  %13 = phi ptr [ %16, %11 ], [ %0, %3 ]
  %14 = phi ptr [ %15, %11 ], [ %1, %3 ]
  %15 = getelementptr inbounds i16, ptr %14, i64 1
  %16 = getelementptr inbounds i16, ptr %13, i64 1
  store i16 %12, ptr %13, align 2, !tbaa !39
  %17 = load i16, ptr %15, align 2, !tbaa !39
  %18 = icmp ne i16 %17, 0
  %19 = icmp ule ptr %16, %6
  %20 = select i1 %18, i1 %19, i1 false
  br i1 %20, label %11, label %21

21:                                               ; preds = %11, %3
  %22 = phi ptr [ %1, %3 ], [ %15, %11 ]
  %23 = phi ptr [ %0, %3 ], [ %16, %11 ]
  store i16 0, ptr %23, align 2, !tbaa !39
  %24 = load i16, ptr %22, align 2, !tbaa !39
  %25 = icmp eq i16 %24, 0
  ret i1 %25
}

; Function Attrs: uwtable
define dso_local noundef i32 @_ZN11xercesc_2_59XMLString4hashEPKtjPNS_13MemoryManagerE(ptr noundef readonly %0, i32 noundef %1, ptr noundef %2) local_unnamed_addr #1 align 2 personality ptr @__gxx_personality_v0 {
  %4 = icmp eq i32 %1, 0
  br i1 %4, label %5, label %10

5:                                                ; preds = %3
  %6 = tail call ptr @__cxa_allocate_exception(i64 48) #25
  invoke void @_ZN11xercesc_2_524IllegalArgumentExceptionC2EPKcjNS_10XMLExcepts5CodesEPNS_13MemoryManagerE(ptr noundef nonnull align 8 dereferenceable(48) %6, ptr noundef nonnull @.str, i32 noundef 1097, i32 noundef 67, ptr noundef %2)
          to label %7 unwind label %8

7:                                                ; preds = %5
  tail call void @__cxa_throw(ptr nonnull %6, ptr nonnull @_ZTIN11xercesc_2_524IllegalArgumentExceptionE, ptr nonnull @_ZN11xercesc_2_512XMLExceptionD2Ev) #26
  unreachable

8:                                                ; preds = %5
  %9 = landingpad { ptr, i32 }
          cleanup
  tail call void @__cxa_free_exception(ptr %6) #25
  resume { ptr, i32 } %9

10:                                               ; preds = %3
  %11 = icmp eq ptr %0, null
  br i1 %11, label %28, label %12

12:                                               ; preds = %10
  %13 = load i16, ptr %0, align 2, !tbaa !39
  %14 = icmp eq i16 %13, 0
  br i1 %14, label %28, label %15

15:                                               ; preds = %12, %15
  %16 = phi i16 [ %26, %15 ], [ %13, %12 ]
  %17 = phi i32 [ %24, %15 ], [ 0, %12 ]
  %18 = phi ptr [ %25, %15 ], [ %0, %12 ]
  %19 = lshr i32 %17, 24
  %20 = mul i32 %17, 37
  %21 = zext i16 %16 to i32
  %22 = add i32 %19, %17
  %23 = add i32 %22, %20
  %24 = add i32 %23, %21
  %25 = getelementptr inbounds i16, ptr %18, i64 1
  %26 = load i16, ptr %25, align 2, !tbaa !39
  %27 = icmp eq i16 %26, 0
  br i1 %27, label %28, label %15

28:                                               ; preds = %15, %12, %10
  %29 = phi i32 [ 0, %10 ], [ 0, %12 ], [ %24, %15 ]
  %30 = urem i32 %29, %1
  ret i32 %30
}

; Function Attrs: nofree norecurse nosync nounwind memory(read, inaccessiblemem: none) uwtable
define dso_local noundef ptr @_ZN11xercesc_2_59XMLString7findAnyEPKtS2_(ptr noundef readonly %0, ptr nocapture noundef readonly %1) local_unnamed_addr #14 align 2 {
  %3 = load i16, ptr %0, align 2, !tbaa !39
  %4 = icmp eq i16 %3, 0
  br i1 %4, label %19, label %5

5:                                                ; preds = %2, %15
  %6 = phi i16 [ %17, %15 ], [ %3, %2 ]
  %7 = phi ptr [ %16, %15 ], [ %0, %2 ]
  br label %8

8:                                                ; preds = %5, %12
  %9 = phi ptr [ %13, %12 ], [ %1, %5 ]
  %10 = load i16, ptr %9, align 2, !tbaa !39
  %11 = icmp eq i16 %10, 0
  br i1 %11, label %15, label %12

12:                                               ; preds = %8
  %13 = getelementptr inbounds i16, ptr %9, i64 1
  %14 = icmp eq i16 %6, %10
  br i1 %14, label %19, label %8

15:                                               ; preds = %8
  %16 = getelementptr inbounds i16, ptr %7, i64 1
  %17 = load i16, ptr %16, align 2, !tbaa !39
  %18 = icmp eq i16 %17, 0
  br i1 %18, label %19, label %5

19:                                               ; preds = %15, %12, %2
  %20 = phi ptr [ null, %2 ], [ %7, %12 ], [ null, %15 ]
  ret ptr %20
}

; Function Attrs: nofree norecurse nosync nounwind memory(read, inaccessiblemem: none) uwtable
define dso_local noundef ptr @_ZN11xercesc_2_59XMLString7findAnyEPtPKt(ptr noundef readonly %0, ptr nocapture noundef readonly %1) local_unnamed_addr #14 align 2 {
  %3 = load i16, ptr %0, align 2, !tbaa !39
  %4 = icmp eq i16 %3, 0
  br i1 %4, label %19, label %5

5:                                                ; preds = %2, %15
  %6 = phi i16 [ %17, %15 ], [ %3, %2 ]
  %7 = phi ptr [ %16, %15 ], [ %0, %2 ]
  br label %8

8:                                                ; preds = %5, %12
  %9 = phi ptr [ %13, %12 ], [ %1, %5 ]
  %10 = load i16, ptr %9, align 2, !tbaa !39
  %11 = icmp eq i16 %10, 0
  br i1 %11, label %15, label %12

12:                                               ; preds = %8
  %13 = getelementptr inbounds i16, ptr %9, i64 1
  %14 = icmp eq i16 %6, %10
  br i1 %14, label %19, label %8

15:                                               ; preds = %8
  %16 = getelementptr inbounds i16, ptr %7, i64 1
  %17 = load i16, ptr %16, align 2, !tbaa !39
  %18 = icmp eq i16 %17, 0
  br i1 %18, label %19, label %5

19:                                               ; preds = %15, %12, %2
  %20 = phi ptr [ null, %2 ], [ %7, %12 ], [ null, %15 ]
  ret ptr %20
}

; Function Attrs: nofree norecurse nosync nounwind memory(read, inaccessiblemem: none) uwtable
define dso_local noundef i32 @_ZN11xercesc_2_59XMLString12patternMatchEPKtS2_(ptr noundef %0, ptr noundef %1) local_unnamed_addr #14 align 2 {
  %3 = icmp eq ptr %0, null
  br i1 %3, label %55, label %4

4:                                                ; preds = %2
  %5 = load i16, ptr %0, align 2, !tbaa !39
  %6 = icmp eq i16 %5, 0
  %7 = icmp eq ptr %1, null
  %8 = or i1 %7, %6
  br i1 %8, label %55, label %9

9:                                                ; preds = %4
  %10 = load i16, ptr %1, align 2, !tbaa !39
  %11 = icmp eq i16 %10, 0
  br i1 %11, label %55, label %12

12:                                               ; preds = %9, %12
  %13 = phi ptr [ %14, %12 ], [ %1, %9 ]
  %14 = getelementptr inbounds i16, ptr %13, i64 1
  %15 = load i16, ptr %14, align 2, !tbaa !39
  %16 = icmp eq i16 %15, 0
  br i1 %16, label %17, label %12

17:                                               ; preds = %12
  %18 = ptrtoint ptr %14 to i64
  %19 = ptrtoint ptr %1 to i64
  %20 = sub i64 %18, %19
  %21 = lshr exact i64 %20, 1
  %22 = trunc i64 %21 to i32
  %23 = icmp eq i32 %22, 0
  br i1 %23, label %55, label %24

24:                                               ; preds = %17, %49
  %25 = phi i16 [ %53, %49 ], [ %5, %17 ]
  %26 = phi i32 [ %52, %49 ], [ 0, %17 ]
  %27 = phi ptr [ %51, %49 ], [ %0, %17 ]
  %28 = phi ptr [ %50, %49 ], [ %0, %17 ]
  %29 = sext i32 %26 to i64
  %30 = getelementptr inbounds i16, ptr %1, i64 %29
  %31 = load i16, ptr %30, align 2, !tbaa !39
  %32 = icmp eq i16 %25, %31
  br i1 %32, label %35, label %33

33:                                               ; preds = %24
  %34 = getelementptr inbounds i16, ptr %27, i64 1
  br label %49

35:                                               ; preds = %24
  %36 = getelementptr inbounds i16, ptr %28, i64 1
  %37 = add nsw i32 %26, 1
  %38 = icmp eq i32 %37, %22
  br i1 %38, label %39, label %49

39:                                               ; preds = %35
  %40 = shl i64 %20, 31
  %41 = ashr i64 %40, 32
  %42 = sub nsw i64 0, %41
  %43 = getelementptr inbounds i16, ptr %36, i64 %42
  %44 = ptrtoint ptr %43 to i64
  %45 = ptrtoint ptr %0 to i64
  %46 = sub i64 %44, %45
  %47 = lshr exact i64 %46, 1
  %48 = trunc i64 %47 to i32
  br label %55

49:                                               ; preds = %35, %33
  %50 = phi ptr [ %36, %35 ], [ %34, %33 ]
  %51 = phi ptr [ %27, %35 ], [ %34, %33 ]
  %52 = phi i32 [ %37, %35 ], [ 0, %33 ]
  %53 = load i16, ptr %50, align 2, !tbaa !39
  %54 = icmp eq i16 %53, 0
  br i1 %54, label %55, label %24

55:                                               ; preds = %49, %9, %17, %39, %2, %4
  %56 = phi i32 [ -1, %4 ], [ -1, %2 ], [ -1, %17 ], [ %48, %39 ], [ -1, %9 ], [ -1, %49 ]
  ret i32 %56
}

; Function Attrs: uwtable
define dso_local noundef i32 @_ZN11xercesc_2_59XMLString5hashNEPKtjjPNS_13MemoryManagerE(ptr noundef readonly %0, i32 noundef %1, i32 noundef %2, ptr noundef %3) local_unnamed_addr #1 align 2 personality ptr @__gxx_personality_v0 {
  %5 = icmp eq i32 %2, 0
  br i1 %5, label %6, label %11

6:                                                ; preds = %4
  %7 = tail call ptr @__cxa_allocate_exception(i64 48) #25
  invoke void @_ZN11xercesc_2_524IllegalArgumentExceptionC2EPKcjNS_10XMLExcepts5CodesEPNS_13MemoryManagerE(ptr noundef nonnull align 8 dereferenceable(48) %7, ptr noundef nonnull @.str, i32 noundef 1192, i32 noundef 67, ptr noundef %3)
          to label %8 unwind label %9

8:                                                ; preds = %6
  tail call void @__cxa_throw(ptr nonnull %7, ptr nonnull @_ZTIN11xercesc_2_524IllegalArgumentExceptionE, ptr nonnull @_ZN11xercesc_2_512XMLExceptionD2Ev) #26
  unreachable

9:                                                ; preds = %6
  %10 = landingpad { ptr, i32 }
          cleanup
  tail call void @__cxa_free_exception(ptr %7) #25
  resume { ptr, i32 } %10

11:                                               ; preds = %4
  %12 = icmp eq ptr %0, null
  %13 = icmp eq i32 %1, 0
  %14 = or i1 %12, %13
  br i1 %14, label %29, label %15

15:                                               ; preds = %11, %15
  %16 = phi i32 [ %26, %15 ], [ 0, %11 ]
  %17 = phi i32 [ %19, %15 ], [ %1, %11 ]
  %18 = phi ptr [ %27, %15 ], [ %0, %11 ]
  %19 = add nsw i32 %17, -1
  %20 = lshr i32 %16, 24
  %21 = mul i32 %16, 37
  %22 = load i16, ptr %18, align 2, !tbaa !39
  %23 = zext i16 %22 to i32
  %24 = add i32 %20, %16
  %25 = add i32 %24, %21
  %26 = add i32 %25, %23
  %27 = getelementptr inbounds i16, ptr %18, i64 1
  %28 = icmp eq i32 %19, 0
  br i1 %28, label %29, label %15

29:                                               ; preds = %15, %11
  %30 = phi i32 [ 0, %11 ], [ %26, %15 ]
  %31 = urem i32 %30, %2
  ret i32 %31
}

; Function Attrs: nofree norecurse nosync nounwind memory(read, inaccessiblemem: none) uwtable
define dso_local noundef i32 @_ZN11xercesc_2_59XMLString7indexOfEPKtt(ptr noundef %0, i16 noundef zeroext %1) local_unnamed_addr #14 align 2 {
  %3 = icmp eq ptr %0, null
  br i1 %3, label %21, label %4

4:                                                ; preds = %2
  %5 = load i16, ptr %0, align 2, !tbaa !39
  %6 = icmp eq i16 %5, 0
  br i1 %6, label %21, label %7

7:                                                ; preds = %4, %11
  %8 = phi i16 [ %13, %11 ], [ %5, %4 ]
  %9 = phi ptr [ %12, %11 ], [ %0, %4 ]
  %10 = icmp eq i16 %8, %1
  br i1 %10, label %15, label %11

11:                                               ; preds = %7
  %12 = getelementptr inbounds i16, ptr %9, i64 1
  %13 = load i16, ptr %12, align 2, !tbaa !39
  %14 = icmp eq i16 %13, 0
  br i1 %14, label %21, label %7

15:                                               ; preds = %7
  %16 = ptrtoint ptr %9 to i64
  %17 = ptrtoint ptr %0 to i64
  %18 = sub i64 %16, %17
  %19 = lshr exact i64 %18, 1
  %20 = trunc i64 %19 to i32
  br label %21

21:                                               ; preds = %11, %4, %2, %15
  %22 = phi i32 [ %20, %15 ], [ -1, %2 ], [ -1, %4 ], [ -1, %11 ]
  ret i32 %22
}

; Function Attrs: uwtable
define dso_local noundef i32 @_ZN11xercesc_2_59XMLString7indexOfEPKttjPNS_13MemoryManagerE(ptr noundef %0, i16 noundef zeroext %1, i32 noundef %2, ptr noundef %3) local_unnamed_addr #1 align 2 personality ptr @__gxx_personality_v0 {
  %5 = icmp eq ptr %0, null
  br i1 %5, label %20, label %6

6:                                                ; preds = %4
  %7 = load i16, ptr %0, align 2, !tbaa !39
  %8 = icmp eq i16 %7, 0
  br i1 %8, label %20, label %9

9:                                                ; preds = %6, %9
  %10 = phi ptr [ %11, %9 ], [ %0, %6 ]
  %11 = getelementptr inbounds i16, ptr %10, i64 1
  %12 = load i16, ptr %11, align 2, !tbaa !39
  %13 = icmp eq i16 %12, 0
  br i1 %13, label %14, label %9

14:                                               ; preds = %9
  %15 = ptrtoint ptr %11 to i64
  %16 = ptrtoint ptr %0 to i64
  %17 = sub i64 %15, %16
  %18 = lshr exact i64 %17, 1
  %19 = trunc i64 %18 to i32
  br label %20

20:                                               ; preds = %4, %6, %14
  %21 = phi i32 [ %19, %14 ], [ 0, %6 ], [ 0, %4 ]
  %22 = icmp sgt i32 %21, %2
  br i1 %22, label %23, label %25

23:                                               ; preds = %20
  %24 = sext i32 %2 to i64
  br label %30

25:                                               ; preds = %20
  %26 = tail call ptr @__cxa_allocate_exception(i64 48) #25
  invoke void @_ZN11xercesc_2_530ArrayIndexOutOfBoundsExceptionC2EPKcjNS_10XMLExcepts5CodesEPNS_13MemoryManagerE(ptr noundef nonnull align 8 dereferenceable(48) %26, ptr noundef nonnull @.str, i32 noundef 1237, i32 noundef 82, ptr noundef %3)
          to label %27 unwind label %28

27:                                               ; preds = %25
  tail call void @__cxa_throw(ptr nonnull %26, ptr nonnull @_ZTIN11xercesc_2_530ArrayIndexOutOfBoundsExceptionE, ptr nonnull @_ZN11xercesc_2_512XMLExceptionD2Ev) #26
  unreachable

28:                                               ; preds = %25
  %29 = landingpad { ptr, i32 }
          cleanup
  tail call void @__cxa_free_exception(ptr %26) #25
  resume { ptr, i32 } %29

30:                                               ; preds = %23, %35
  %31 = phi i64 [ %24, %23 ], [ %36, %35 ]
  %32 = getelementptr inbounds i16, ptr %0, i64 %31
  %33 = load i16, ptr %32, align 2, !tbaa !39
  %34 = icmp eq i16 %33, %1
  br i1 %34, label %39, label %35

35:                                               ; preds = %30
  %36 = add nsw i64 %31, 1
  %37 = trunc i64 %36 to i32
  %38 = icmp eq i32 %21, %37
  br i1 %38, label %41, label %30

39:                                               ; preds = %30
  %40 = trunc i64 %31 to i32
  br label %41

41:                                               ; preds = %35, %39
  %42 = phi i32 [ %40, %39 ], [ -1, %35 ]
  ret i32 %42
}

; Function Attrs: nofree norecurse nosync nounwind memory(argmem: read) uwtable
define dso_local noundef i32 @_ZN11xercesc_2_59XMLString11lastIndexOfEtPKtj(i16 noundef zeroext %0, ptr nocapture noundef readonly %1, i32 noundef %2) local_unnamed_addr #17 align 2 {
  %4 = zext i32 %2 to i64
  br label %5

5:                                                ; preds = %9, %3
  %6 = phi i64 [ %10, %9 ], [ %4, %3 ]
  %7 = trunc i64 %6 to i32
  %8 = icmp slt i32 %7, 1
  br i1 %8, label %17, label %9

9:                                                ; preds = %5
  %10 = add nsw i64 %6, -1
  %11 = and i64 %10, 4294967295
  %12 = getelementptr inbounds i16, ptr %1, i64 %11
  %13 = load i16, ptr %12, align 2, !tbaa !39
  %14 = icmp eq i16 %13, %0
  br i1 %14, label %15, label %5

15:                                               ; preds = %9
  %16 = trunc i64 %10 to i32
  br label %17

17:                                               ; preds = %5, %15
  %18 = phi i32 [ %16, %15 ], [ -1, %5 ]
  ret i32 %18
}

; Function Attrs: uwtable
define dso_local noundef i32 @_ZN11xercesc_2_59XMLString11lastIndexOfEPKttjPNS_13MemoryManagerE(ptr noundef %0, i16 noundef zeroext %1, i32 noundef %2, ptr noundef %3) local_unnamed_addr #1 align 2 personality ptr @__gxx_personality_v0 {
  %5 = icmp eq ptr %0, null
  br i1 %5, label %20, label %6

6:                                                ; preds = %4
  %7 = load i16, ptr %0, align 2, !tbaa !39
  %8 = icmp eq i16 %7, 0
  br i1 %8, label %20, label %9

9:                                                ; preds = %6, %9
  %10 = phi ptr [ %11, %9 ], [ %0, %6 ]
  %11 = getelementptr inbounds i16, ptr %10, i64 1
  %12 = load i16, ptr %11, align 2, !tbaa !39
  %13 = icmp eq i16 %12, 0
  br i1 %13, label %14, label %9

14:                                               ; preds = %9
  %15 = ptrtoint ptr %11 to i64
  %16 = ptrtoint ptr %0 to i64
  %17 = sub i64 %15, %16
  %18 = lshr exact i64 %17, 1
  %19 = trunc i64 %18 to i32
  br label %20

20:                                               ; preds = %4, %6, %14
  %21 = phi i32 [ %19, %14 ], [ 0, %6 ], [ 0, %4 ]
  %22 = icmp sgt i32 %21, %2
  br i1 %22, label %23, label %25

23:                                               ; preds = %20
  %24 = icmp slt i32 %2, 0
  br i1 %24, label %39, label %30

25:                                               ; preds = %20
  %26 = tail call ptr @__cxa_allocate_exception(i64 48) #25
  invoke void @_ZN11xercesc_2_530ArrayIndexOutOfBoundsExceptionC2EPKcjNS_10XMLExcepts5CodesEPNS_13MemoryManagerE(ptr noundef nonnull align 8 dereferenceable(48) %26, ptr noundef nonnull @.str, i32 noundef 1266, i32 noundef 82, ptr noundef %3)
          to label %27 unwind label %28

27:                                               ; preds = %25
  tail call void @__cxa_throw(ptr nonnull %26, ptr nonnull @_ZTIN11xercesc_2_530ArrayIndexOutOfBoundsExceptionE, ptr nonnull @_ZN11xercesc_2_512XMLExceptionD2Ev) #26
  unreachable

28:                                               ; preds = %25
  %29 = landingpad { ptr, i32 }
          cleanup
  tail call void @__cxa_free_exception(ptr %26) #25
  resume { ptr, i32 } %29

30:                                               ; preds = %23, %36
  %31 = phi i32 [ %37, %36 ], [ %2, %23 ]
  %32 = zext i32 %31 to i64
  %33 = getelementptr inbounds i16, ptr %0, i64 %32
  %34 = load i16, ptr %33, align 2, !tbaa !39
  %35 = icmp eq i16 %34, %1
  br i1 %35, label %39, label %36

36:                                               ; preds = %30
  %37 = add nsw i32 %31, -1
  %38 = icmp slt i32 %31, 1
  br i1 %38, label %39, label %30

39:                                               ; preds = %36, %30, %23
  %40 = phi i32 [ -1, %23 ], [ %31, %30 ], [ -1, %36 ]
  ret i32 %40
}

; Function Attrs: uwtable
define dso_local noundef ptr @_ZN11xercesc_2_59XMLString9makeUNameEPKtS2_(ptr noundef %0, ptr noundef %1) local_unnamed_addr #1 align 2 {
  %3 = alloca [2 x i16], align 2
  %4 = icmp eq ptr %0, null
  br i1 %4, label %137, label %5

5:                                                ; preds = %2
  %6 = load i16, ptr %0, align 2, !tbaa !39
  %7 = icmp eq i16 %6, 0
  br i1 %7, label %137, label %8

8:                                                ; preds = %5, %8
  %9 = phi ptr [ %10, %8 ], [ %0, %5 ]
  %10 = getelementptr inbounds i16, ptr %9, i64 1
  %11 = load i16, ptr %10, align 2, !tbaa !39
  %12 = icmp eq i16 %11, 0
  br i1 %12, label %13, label %8

13:                                               ; preds = %8
  %14 = ptrtoint ptr %10 to i64
  %15 = ptrtoint ptr %0 to i64
  %16 = sub i64 %14, %15
  %17 = and i64 %16, 8589934590
  %18 = icmp eq i64 %17, 0
  br i1 %18, label %137, label %19

19:                                               ; preds = %13
  %20 = icmp eq ptr %1, null
  br i1 %20, label %34, label %21

21:                                               ; preds = %19
  %22 = load i16, ptr %1, align 2, !tbaa !39
  %23 = icmp eq i16 %22, 0
  br i1 %23, label %34, label %24

24:                                               ; preds = %21, %24
  %25 = phi ptr [ %26, %24 ], [ %1, %21 ]
  %26 = getelementptr inbounds i16, ptr %25, i64 1
  %27 = load i16, ptr %26, align 2, !tbaa !39
  %28 = icmp eq i16 %27, 0
  br i1 %28, label %29, label %24

29:                                               ; preds = %24
  %30 = ptrtoint ptr %26 to i64
  %31 = ptrtoint ptr %1 to i64
  %32 = sub i64 %30, %31
  %33 = and i64 %32, -2
  br label %34

34:                                               ; preds = %19, %21, %29
  %35 = phi i64 [ %33, %29 ], [ 0, %21 ], [ 0, %19 ]
  %36 = add i64 %16, 6
  %37 = add i64 %36, %35
  %38 = and i64 %37, 8589934590
  %39 = tail call noalias noundef nonnull ptr @_Znam(i64 noundef %38) #30
  call void @llvm.lifetime.start.p0(i64 4, ptr nonnull %3) #25
  %40 = getelementptr inbounds [2 x i16], ptr %3, i64 0, i64 1
  store i16 0, ptr %40, align 2, !tbaa !39
  br label %41

41:                                               ; preds = %34, %41
  %42 = phi i16 [ %47, %41 ], [ 123, %34 ]
  %43 = phi ptr [ %45, %41 ], [ %3, %34 ]
  %44 = phi ptr [ %46, %41 ], [ %39, %34 ]
  %45 = getelementptr inbounds i16, ptr %43, i64 1
  %46 = getelementptr inbounds i16, ptr %44, i64 1
  store i16 %42, ptr %44, align 2, !tbaa !39
  %47 = load i16, ptr %45, align 2, !tbaa !39
  %48 = icmp eq i16 %47, 0
  br i1 %48, label %49, label %41

49:                                               ; preds = %41
  store i16 0, ptr %46, align 2, !tbaa !39
  %50 = load i16, ptr %39, align 2, !tbaa !39
  %51 = icmp eq i16 %50, 0
  br i1 %51, label %63, label %52

52:                                               ; preds = %49, %52
  %53 = phi ptr [ %54, %52 ], [ %39, %49 ]
  %54 = getelementptr inbounds i16, ptr %53, i64 1
  %55 = load i16, ptr %54, align 2, !tbaa !39
  %56 = icmp eq i16 %55, 0
  br i1 %56, label %57, label %52

57:                                               ; preds = %52
  %58 = ptrtoint ptr %54 to i64
  %59 = ptrtoint ptr %39 to i64
  %60 = sub i64 %58, %59
  %61 = lshr exact i64 %60, 1
  %62 = trunc i64 %61 to i32
  br label %63

63:                                               ; preds = %49, %57
  %64 = phi i32 [ %62, %57 ], [ 0, %49 ]
  br label %65

65:                                               ; preds = %63, %65
  %66 = phi i16 [ %73, %65 ], [ %6, %63 ]
  %67 = phi ptr [ %69, %65 ], [ %0, %63 ]
  %68 = phi i32 [ %70, %65 ], [ %64, %63 ]
  %69 = getelementptr inbounds i16, ptr %67, i64 1
  %70 = add i32 %68, 1
  %71 = zext i32 %68 to i64
  %72 = getelementptr inbounds i16, ptr %39, i64 %71
  store i16 %66, ptr %72, align 2, !tbaa !39
  %73 = load i16, ptr %69, align 2, !tbaa !39
  %74 = icmp eq i16 %73, 0
  br i1 %74, label %75, label %65

75:                                               ; preds = %65
  %76 = zext i32 %70 to i64
  %77 = getelementptr inbounds i16, ptr %39, i64 %76
  store i16 0, ptr %77, align 2, !tbaa !39
  %78 = load i16, ptr %39, align 2, !tbaa !39
  %79 = icmp eq i16 %78, 0
  br i1 %79, label %91, label %80

80:                                               ; preds = %75, %80
  %81 = phi ptr [ %82, %80 ], [ %39, %75 ]
  %82 = getelementptr inbounds i16, ptr %81, i64 1
  %83 = load i16, ptr %82, align 2, !tbaa !39
  %84 = icmp eq i16 %83, 0
  br i1 %84, label %85, label %80

85:                                               ; preds = %80
  %86 = ptrtoint ptr %82 to i64
  %87 = ptrtoint ptr %39 to i64
  %88 = sub i64 %86, %87
  %89 = lshr exact i64 %88, 1
  %90 = trunc i64 %89 to i32
  br label %91

91:                                               ; preds = %85, %75
  %92 = phi i32 [ 0, %75 ], [ %90, %85 ]
  br label %93

93:                                               ; preds = %91, %93
  %94 = phi i16 [ %101, %93 ], [ 125, %91 ]
  %95 = phi ptr [ %97, %93 ], [ %3, %91 ]
  %96 = phi i32 [ %98, %93 ], [ %92, %91 ]
  %97 = getelementptr inbounds i16, ptr %95, i64 1
  %98 = add i32 %96, 1
  %99 = zext i32 %96 to i64
  %100 = getelementptr inbounds i16, ptr %39, i64 %99
  store i16 %94, ptr %100, align 2, !tbaa !39
  %101 = load i16, ptr %97, align 2, !tbaa !39
  %102 = icmp eq i16 %101, 0
  br i1 %102, label %103, label %93

103:                                              ; preds = %93
  %104 = zext i32 %98 to i64
  %105 = getelementptr inbounds i16, ptr %39, i64 %104
  store i16 0, ptr %105, align 2, !tbaa !39
  %106 = load i16, ptr %39, align 2, !tbaa !39
  %107 = icmp eq i16 %106, 0
  br i1 %107, label %119, label %108

108:                                              ; preds = %103, %108
  %109 = phi ptr [ %110, %108 ], [ %39, %103 ]
  %110 = getelementptr inbounds i16, ptr %109, i64 1
  %111 = load i16, ptr %110, align 2, !tbaa !39
  %112 = icmp eq i16 %111, 0
  br i1 %112, label %113, label %108

113:                                              ; preds = %108
  %114 = ptrtoint ptr %110 to i64
  %115 = ptrtoint ptr %39 to i64
  %116 = sub i64 %114, %115
  %117 = lshr exact i64 %116, 1
  %118 = trunc i64 %117 to i32
  br label %119

119:                                              ; preds = %113, %103
  %120 = phi i32 [ %118, %113 ], [ 0, %103 ]
  %121 = load i16, ptr %1, align 2, !tbaa !39
  %122 = icmp eq i16 %121, 0
  br i1 %122, label %133, label %123

123:                                              ; preds = %119, %123
  %124 = phi i16 [ %131, %123 ], [ %121, %119 ]
  %125 = phi ptr [ %127, %123 ], [ %1, %119 ]
  %126 = phi i32 [ %128, %123 ], [ %120, %119 ]
  %127 = getelementptr inbounds i16, ptr %125, i64 1
  %128 = add i32 %126, 1
  %129 = zext i32 %126 to i64
  %130 = getelementptr inbounds i16, ptr %39, i64 %129
  store i16 %124, ptr %130, align 2, !tbaa !39
  %131 = load i16, ptr %127, align 2, !tbaa !39
  %132 = icmp eq i16 %131, 0
  br i1 %132, label %133, label %123

133:                                              ; preds = %123, %119
  %134 = phi i32 [ %120, %119 ], [ %128, %123 ]
  %135 = zext i32 %134 to i64
  %136 = getelementptr inbounds i16, ptr %39, i64 %135
  store i16 0, ptr %136, align 2, !tbaa !39
  call void @llvm.lifetime.end.p0(i64 4, ptr nonnull %3) #25
  br label %156

137:                                              ; preds = %2, %5, %13
  %138 = icmp eq ptr %1, null
  br i1 %138, label %156, label %139

139:                                              ; preds = %137
  %140 = load i16, ptr %1, align 2, !tbaa !39
  %141 = icmp eq i16 %140, 0
  br i1 %141, label %153, label %142

142:                                              ; preds = %139, %142
  %143 = phi ptr [ %144, %142 ], [ %1, %139 ]
  %144 = getelementptr inbounds i16, ptr %143, i64 1
  %145 = load i16, ptr %144, align 2, !tbaa !39
  %146 = icmp eq i16 %145, 0
  br i1 %146, label %147, label %142

147:                                              ; preds = %142
  %148 = ptrtoint ptr %144 to i64
  %149 = ptrtoint ptr %1 to i64
  %150 = sub i64 %148, %149
  %151 = add i64 %150, 2
  %152 = and i64 %151, 8589934590
  br label %153

153:                                              ; preds = %147, %139
  %154 = phi i64 [ %152, %147 ], [ 2, %139 ]
  %155 = tail call noalias noundef nonnull ptr @_Znam(i64 noundef %154) #30
  tail call void @llvm.memcpy.p0.p0.i64(ptr nonnull align 2 %155, ptr nonnull align 2 %1, i64 %154, i1 false)
  br label %156

156:                                              ; preds = %153, %137, %133
  %157 = phi ptr [ %39, %133 ], [ %155, %153 ], [ null, %137 ]
  ret ptr %157
}

; Function Attrs: uwtable
define dso_local noundef zeroext i1 @_ZN11xercesc_2_59XMLString9textToBinEPKtRjPNS_13MemoryManagerE(ptr noundef %0, ptr nocapture noundef nonnull writeonly align 4 dereferenceable(4) %1, ptr noundef %2) local_unnamed_addr #1 align 2 personality ptr @__gxx_personality_v0 {
  %4 = alloca %"class.xercesc_2_5::ArrayJanitor", align 8
  %5 = alloca ptr, align 8
  store i32 0, ptr %1, align 4, !tbaa !46
  %6 = icmp eq ptr %0, null
  br i1 %6, label %203, label %7

7:                                                ; preds = %3
  %8 = load i16, ptr %0, align 2, !tbaa !39
  %9 = icmp eq i16 %8, 0
  br i1 %9, label %203, label %10

10:                                               ; preds = %7, %10
  %11 = phi ptr [ %12, %10 ], [ %0, %7 ]
  %12 = getelementptr inbounds i16, ptr %11, i64 1
  %13 = load i16, ptr %12, align 2, !tbaa !39
  %14 = icmp eq i16 %13, 0
  br i1 %14, label %15, label %10

15:                                               ; preds = %10
  %16 = ptrtoint ptr %12 to i64
  %17 = ptrtoint ptr %0 to i64
  %18 = sub i64 %16, %17
  %19 = add i64 %18, 2
  %20 = and i64 %19, 8589934590
  %21 = load ptr, ptr %2, align 8, !tbaa !37
  %22 = getelementptr inbounds ptr, ptr %21, i64 2
  %23 = load ptr, ptr %22, align 8
  %24 = tail call noundef ptr %23(ptr noundef nonnull align 8 dereferenceable(8) %2, i64 noundef %20)
  tail call void @llvm.memcpy.p0.p0.i64(ptr align 2 %24, ptr nonnull align 2 %0, i64 %20, i1 false)
  call void @llvm.lifetime.start.p0(i64 16, ptr nonnull %4) #25
  store ptr %24, ptr %4, align 8, !tbaa !41
  %25 = getelementptr inbounds %"class.xercesc_2_5::ArrayJanitor", ptr %4, i64 0, i32 1
  store ptr %2, ptr %25, align 8, !tbaa !44
  %26 = icmp eq ptr %24, null
  br i1 %26, label %59, label %27

27:                                               ; preds = %15
  %28 = load i16, ptr %24, align 2, !tbaa !39
  %29 = icmp eq i16 %28, 0
  br i1 %29, label %59, label %30

30:                                               ; preds = %27, %30
  %31 = phi ptr [ %32, %30 ], [ %24, %27 ]
  %32 = getelementptr inbounds i16, ptr %31, i64 1
  %33 = load i16, ptr %32, align 2, !tbaa !39
  %34 = icmp eq i16 %33, 0
  br i1 %34, label %35, label %30

35:                                               ; preds = %30
  %36 = ptrtoint ptr %32 to i64
  %37 = ptrtoint ptr %24 to i64
  %38 = sub i64 %36, %37
  %39 = lshr exact i64 %38, 1
  %40 = trunc i64 %39 to i32
  %41 = icmp eq i32 %40, 0
  br i1 %41, label %59, label %42

42:                                               ; preds = %35
  %43 = and i64 %39, 4294967295
  br label %44

44:                                               ; preds = %54, %42
  %45 = phi i64 [ 0, %42 ], [ %55, %54 ]
  %46 = load ptr, ptr @_ZN11xercesc_2_516XMLPlatformUtils14fgTransServiceE, align 8, !tbaa !45
  %47 = getelementptr inbounds i16, ptr %24, i64 %45
  %48 = load i16, ptr %47, align 2, !tbaa !39
  %49 = load ptr, ptr %46, align 8, !tbaa !37
  %50 = getelementptr inbounds ptr, ptr %49, i64 5
  %51 = load ptr, ptr %50, align 8
  %52 = invoke noundef zeroext i1 %51(ptr noundef nonnull align 8 dereferenceable(8) %46, i16 noundef zeroext %48)
          to label %53 unwind label %126

53:                                               ; preds = %44
  br i1 %52, label %54, label %57

54:                                               ; preds = %53
  %55 = add nuw nsw i64 %45, 1
  %56 = icmp eq i64 %55, %43
  br i1 %56, label %59, label %44

57:                                               ; preds = %53
  %58 = trunc i64 %45 to i32
  br label %59

59:                                               ; preds = %54, %57, %35, %27, %15
  %60 = phi i32 [ 0, %15 ], [ 0, %27 ], [ 0, %35 ], [ %40, %57 ], [ %40, %54 ]
  %61 = phi i64 [ 0, %15 ], [ 0, %27 ], [ 0, %35 ], [ %43, %57 ], [ %43, %54 ]
  %62 = phi i32 [ 0, %15 ], [ 0, %27 ], [ 0, %35 ], [ %58, %57 ], [ %40, %54 ]
  %63 = zext i32 %62 to i64
  %64 = tail call i32 @llvm.umin.i32(i32 %60, i32 %62)
  br label %65

65:                                               ; preds = %77, %59
  %66 = phi i64 [ %70, %77 ], [ %61, %59 ]
  %67 = icmp ugt i64 %66, %63
  br i1 %67, label %68, label %80

68:                                               ; preds = %65
  %69 = load ptr, ptr @_ZN11xercesc_2_516XMLPlatformUtils14fgTransServiceE, align 8, !tbaa !45
  %70 = add nsw i64 %66, -1
  %71 = getelementptr inbounds i16, ptr %24, i64 %70
  %72 = load i16, ptr %71, align 2, !tbaa !39
  %73 = load ptr, ptr %69, align 8, !tbaa !37
  %74 = getelementptr inbounds ptr, ptr %73, i64 5
  %75 = load ptr, ptr %74, align 8
  %76 = invoke noundef zeroext i1 %75(ptr noundef nonnull align 8 dereferenceable(8) %69, i16 noundef zeroext %72)
          to label %77 unwind label %124

77:                                               ; preds = %68
  br i1 %76, label %65, label %78

78:                                               ; preds = %77
  %79 = trunc i64 %66 to i32
  br label %80

80:                                               ; preds = %65, %78
  %81 = phi i32 [ %79, %78 ], [ %64, %65 ]
  %82 = icmp eq i32 %81, %60
  br i1 %82, label %86, label %83

83:                                               ; preds = %80
  %84 = zext i32 %81 to i64
  %85 = getelementptr inbounds i16, ptr %24, i64 %84
  store i16 0, ptr %85, align 2, !tbaa !39
  br label %86

86:                                               ; preds = %83, %80
  %87 = icmp eq i32 %62, 0
  br i1 %87, label %109, label %88

88:                                               ; preds = %86
  %89 = getelementptr inbounds i16, ptr %24, i64 %63
  %90 = load i16, ptr %89, align 2, !tbaa !39
  %91 = icmp eq i16 %90, 0
  br i1 %91, label %106, label %92

92:                                               ; preds = %88, %92
  %93 = phi i16 [ %102, %92 ], [ %90, %88 ]
  %94 = phi i32 [ %97, %92 ], [ 0, %88 ]
  %95 = phi i32 [ %96, %92 ], [ %62, %88 ]
  %96 = add i32 %95, 1
  %97 = add i32 %94, 1
  %98 = zext i32 %94 to i64
  %99 = getelementptr inbounds i16, ptr %24, i64 %98
  store i16 %93, ptr %99, align 2, !tbaa !39
  %100 = zext i32 %96 to i64
  %101 = getelementptr inbounds i16, ptr %24, i64 %100
  %102 = load i16, ptr %101, align 2, !tbaa !39
  %103 = icmp eq i16 %102, 0
  br i1 %103, label %104, label %92

104:                                              ; preds = %92
  %105 = zext i32 %97 to i64
  br label %106

106:                                              ; preds = %88, %104
  %107 = phi i64 [ 0, %88 ], [ %105, %104 ]
  %108 = getelementptr inbounds i16, ptr %24, i64 %107
  store i16 0, ptr %108, align 2, !tbaa !39
  br label %110

109:                                              ; preds = %86
  br i1 %26, label %198, label %110

110:                                              ; preds = %106, %109
  %111 = load i16, ptr %24, align 2, !tbaa !39
  %112 = icmp eq i16 %111, 0
  br i1 %112, label %193, label %113

113:                                              ; preds = %110, %113
  %114 = phi ptr [ %115, %113 ], [ %24, %110 ]
  %115 = getelementptr inbounds i16, ptr %114, i64 1
  %116 = load i16, ptr %115, align 2, !tbaa !39
  %117 = icmp eq i16 %116, 0
  br i1 %117, label %118, label %113

118:                                              ; preds = %113
  %119 = ptrtoint ptr %115 to i64
  %120 = ptrtoint ptr %24 to i64
  %121 = sub i64 %119, %120
  %122 = and i64 %121, 8589934590
  %123 = icmp eq i64 %122, 0
  br i1 %123, label %192, label %130

124:                                              ; preds = %68
  %125 = landingpad { ptr, i32 }
          cleanup
  br label %200

126:                                              ; preds = %44
  %127 = landingpad { ptr, i32 }
          cleanup
  br label %200

128:                                              ; preds = %146
  %129 = landingpad { ptr, i32 }
          cleanup
  br label %200

130:                                              ; preds = %118
  br i1 %26, label %144, label %131

131:                                              ; preds = %130, %131
  %132 = phi ptr [ %133, %131 ], [ %24, %130 ]
  %133 = getelementptr inbounds i16, ptr %132, i64 1
  %134 = load i16, ptr %133, align 2, !tbaa !39
  %135 = icmp eq i16 %134, 0
  br i1 %135, label %136, label %131

136:                                              ; preds = %131
  %137 = ptrtoint ptr %133 to i64
  %138 = sub i64 %137, %120
  %139 = lshr exact i64 %138, 1
  %140 = trunc i64 %139 to i32
  %141 = icmp sgt i32 %140, 0
  br i1 %141, label %142, label %144

142:                                              ; preds = %136
  %143 = and i64 %139, 4294967295
  br label %150

144:                                              ; preds = %130, %136
  %145 = tail call ptr @__cxa_allocate_exception(i64 48) #25
  invoke void @_ZN11xercesc_2_530ArrayIndexOutOfBoundsExceptionC2EPKcjNS_10XMLExcepts5CodesEPNS_13MemoryManagerE(ptr noundef nonnull align 8 dereferenceable(48) %145, ptr noundef nonnull @.str, i32 noundef 1237, i32 noundef 82, ptr noundef nonnull %2)
          to label %146 unwind label %148

146:                                              ; preds = %144
  invoke void @__cxa_throw(ptr nonnull %145, ptr nonnull @_ZTIN11xercesc_2_530ArrayIndexOutOfBoundsExceptionE, ptr nonnull @_ZN11xercesc_2_512XMLExceptionD2Ev) #26
          to label %147 unwind label %128

147:                                              ; preds = %146
  unreachable

148:                                              ; preds = %144
  %149 = landingpad { ptr, i32 }
          cleanup
  tail call void @__cxa_free_exception(ptr %145) #25
  br label %200

150:                                              ; preds = %142, %155
  %151 = phi i64 [ %156, %155 ], [ 0, %142 ]
  %152 = getelementptr inbounds i16, ptr %24, i64 %151
  %153 = load i16, ptr %152, align 2, !tbaa !39
  %154 = icmp eq i16 %153, 45
  br i1 %154, label %158, label %155

155:                                              ; preds = %150
  %156 = add nuw nsw i64 %151, 1
  %157 = icmp eq i64 %156, %143
  br i1 %157, label %161, label %150

158:                                              ; preds = %150
  %159 = and i64 %151, 4294967295
  %160 = icmp eq i64 %159, 4294967295
  br i1 %160, label %161, label %193

161:                                              ; preds = %155, %158
  %162 = tail call ptr @__errno_location() #31
  store i32 0, ptr %162, align 4, !tbaa !46
  %163 = load ptr, ptr @_ZN11xercesc_2_5L11gTranscoderE, align 8, !tbaa !45
  %164 = load ptr, ptr %163, align 8, !tbaa !37
  %165 = getelementptr inbounds ptr, ptr %164, i64 5
  %166 = load ptr, ptr %165, align 8
  %167 = invoke noundef ptr %166(ptr noundef nonnull align 8 dereferenceable(8) %163, ptr noundef nonnull %24, ptr noundef nonnull %2)
          to label %168 unwind label %181

168:                                              ; preds = %161
  call void @llvm.lifetime.start.p0(i64 8, ptr nonnull %5) #25
  %169 = call i64 @strtoul(ptr noundef %167, ptr noundef nonnull %5, i32 noundef 10) #25
  %170 = trunc i64 %169 to i32
  store i32 %170, ptr %1, align 4, !tbaa !46
  %171 = load ptr, ptr %5, align 8, !tbaa !45
  %172 = ptrtoint ptr %171 to i64
  %173 = ptrtoint ptr %167 to i64
  %174 = sub i64 %172, %173
  %175 = shl i64 %121, 31
  %176 = ashr i64 %175, 32
  %177 = icmp eq i64 %174, %176
  br i1 %177, label %178, label %185

178:                                              ; preds = %168
  %179 = load i32, ptr %162, align 4, !tbaa !46
  %180 = icmp ne i32 %179, 34
  br label %185

181:                                              ; preds = %161
  %182 = landingpad { ptr, i32 }
          cleanup
  br label %200

183:                                              ; preds = %188
  %184 = landingpad { ptr, i32 }
          cleanup
  br label %200

185:                                              ; preds = %178, %168
  %186 = phi i1 [ false, %168 ], [ %180, %178 ]
  call void @llvm.lifetime.end.p0(i64 8, ptr nonnull %5) #25
  %187 = icmp eq ptr %167, null
  br i1 %187, label %193, label %188

188:                                              ; preds = %185
  %189 = load ptr, ptr %2, align 8, !tbaa !37
  %190 = getelementptr inbounds ptr, ptr %189, i64 3
  %191 = load ptr, ptr %190, align 8
  invoke void %191(ptr noundef nonnull align 8 dereferenceable(8) %2, ptr noundef nonnull %167)
          to label %193 unwind label %183

192:                                              ; preds = %118
  br i1 %26, label %198, label %193

193:                                              ; preds = %158, %185, %188, %110, %192
  %194 = phi i1 [ false, %192 ], [ false, %110 ], [ %186, %188 ], [ %186, %185 ], [ false, %158 ]
  %195 = load ptr, ptr %2, align 8, !tbaa !37
  %196 = getelementptr inbounds ptr, ptr %195, i64 3
  %197 = load ptr, ptr %196, align 8
  tail call void %197(ptr noundef nonnull align 8 dereferenceable(8) %2, ptr noundef nonnull %24)
  br label %198

198:                                              ; preds = %109, %192, %193
  %199 = phi i1 [ false, %192 ], [ %194, %193 ], [ false, %109 ]
  call void @llvm.lifetime.end.p0(i64 16, ptr nonnull %4) #25
  br label %203

200:                                              ; preds = %124, %126, %128, %148, %183, %181
  %201 = phi { ptr, i32 } [ %184, %183 ], [ %182, %181 ], [ %129, %128 ], [ %149, %148 ], [ %125, %124 ], [ %127, %126 ]
  invoke void @_ZN11xercesc_2_512ArrayJanitorItED2Ev(ptr noundef nonnull align 8 dereferenceable(16) %4)
          to label %202 unwind label %205

202:                                              ; preds = %200
  call void @llvm.lifetime.end.p0(i64 16, ptr nonnull %4) #25
  resume { ptr, i32 } %201

203:                                              ; preds = %3, %7, %198
  %204 = phi i1 [ %199, %198 ], [ false, %7 ], [ false, %3 ]
  ret i1 %204

205:                                              ; preds = %200
  %206 = landingpad { ptr, i32 }
          catch ptr null
  %207 = extractvalue { ptr, i32 } %206, 0
  call void @__clang_call_terminate(ptr %207) #27
  unreachable
}

; Function Attrs: uwtable
define dso_local void @_ZN11xercesc_2_59XMLString4trimEPt(ptr noundef %0) local_unnamed_addr #1 align 2 {
  %2 = icmp eq ptr %0, null
  br i1 %2, label %34, label %3

3:                                                ; preds = %1
  %4 = load i16, ptr %0, align 2, !tbaa !39
  %5 = icmp eq i16 %4, 0
  br i1 %5, label %34, label %6

6:                                                ; preds = %3, %6
  %7 = phi ptr [ %8, %6 ], [ %0, %3 ]
  %8 = getelementptr inbounds i16, ptr %7, i64 1
  %9 = load i16, ptr %8, align 2, !tbaa !39
  %10 = icmp eq i16 %9, 0
  br i1 %10, label %11, label %6

11:                                               ; preds = %6
  %12 = ptrtoint ptr %8 to i64
  %13 = ptrtoint ptr %0 to i64
  %14 = sub i64 %12, %13
  %15 = lshr exact i64 %14, 1
  %16 = trunc i64 %15 to i32
  %17 = icmp eq i32 %16, 0
  br i1 %17, label %34, label %18

18:                                               ; preds = %11
  %19 = and i64 %15, 4294967295
  br label %20

20:                                               ; preds = %18, %29
  %21 = phi i64 [ 0, %18 ], [ %30, %29 ]
  %22 = load ptr, ptr @_ZN11xercesc_2_516XMLPlatformUtils14fgTransServiceE, align 8, !tbaa !45
  %23 = getelementptr inbounds i16, ptr %0, i64 %21
  %24 = load i16, ptr %23, align 2, !tbaa !39
  %25 = load ptr, ptr %22, align 8, !tbaa !37
  %26 = getelementptr inbounds ptr, ptr %25, i64 5
  %27 = load ptr, ptr %26, align 8
  %28 = tail call noundef zeroext i1 %27(ptr noundef nonnull align 8 dereferenceable(8) %22, i16 noundef zeroext %24)
  br i1 %28, label %29, label %32

29:                                               ; preds = %20
  %30 = add nuw nsw i64 %21, 1
  %31 = icmp eq i64 %30, %19
  br i1 %31, label %34, label %20

32:                                               ; preds = %20
  %33 = trunc i64 %21 to i32
  br label %34

34:                                               ; preds = %29, %32, %11, %3, %1
  %35 = phi i32 [ 0, %1 ], [ 0, %3 ], [ 0, %11 ], [ %16, %32 ], [ %16, %29 ]
  %36 = phi i64 [ 0, %1 ], [ 0, %3 ], [ 0, %11 ], [ %19, %32 ], [ %19, %29 ]
  %37 = phi i32 [ 0, %1 ], [ 0, %3 ], [ 0, %11 ], [ %33, %32 ], [ %16, %29 ]
  %38 = zext i32 %37 to i64
  %39 = tail call i32 @llvm.umin.i32(i32 %35, i32 %37)
  br label %40

40:                                               ; preds = %43, %34
  %41 = phi i64 [ %45, %43 ], [ %36, %34 ]
  %42 = icmp ugt i64 %41, %38
  br i1 %42, label %43, label %54

43:                                               ; preds = %40
  %44 = load ptr, ptr @_ZN11xercesc_2_516XMLPlatformUtils14fgTransServiceE, align 8, !tbaa !45
  %45 = add nsw i64 %41, -1
  %46 = getelementptr inbounds i16, ptr %0, i64 %45
  %47 = load i16, ptr %46, align 2, !tbaa !39
  %48 = load ptr, ptr %44, align 8, !tbaa !37
  %49 = getelementptr inbounds ptr, ptr %48, i64 5
  %50 = load ptr, ptr %49, align 8
  %51 = tail call noundef zeroext i1 %50(ptr noundef nonnull align 8 dereferenceable(8) %44, i16 noundef zeroext %47)
  br i1 %51, label %40, label %52

52:                                               ; preds = %43
  %53 = trunc i64 %41 to i32
  br label %54

54:                                               ; preds = %40, %52
  %55 = phi i32 [ %53, %52 ], [ %39, %40 ]
  %56 = icmp eq i32 %55, %35
  br i1 %56, label %60, label %57

57:                                               ; preds = %54
  %58 = zext i32 %55 to i64
  %59 = getelementptr inbounds i16, ptr %0, i64 %58
  store i16 0, ptr %59, align 2, !tbaa !39
  br label %60

60:                                               ; preds = %57, %54
  %61 = icmp eq i32 %37, 0
  br i1 %61, label %83, label %62

62:                                               ; preds = %60
  %63 = getelementptr inbounds i16, ptr %0, i64 %38
  %64 = load i16, ptr %63, align 2, !tbaa !39
  %65 = icmp eq i16 %64, 0
  br i1 %65, label %80, label %66

66:                                               ; preds = %62, %66
  %67 = phi i16 [ %76, %66 ], [ %64, %62 ]
  %68 = phi i32 [ %71, %66 ], [ 0, %62 ]
  %69 = phi i32 [ %70, %66 ], [ %37, %62 ]
  %70 = add i32 %69, 1
  %71 = add i32 %68, 1
  %72 = zext i32 %68 to i64
  %73 = getelementptr inbounds i16, ptr %0, i64 %72
  store i16 %67, ptr %73, align 2, !tbaa !39
  %74 = zext i32 %70 to i64
  %75 = getelementptr inbounds i16, ptr %0, i64 %74
  %76 = load i16, ptr %75, align 2, !tbaa !39
  %77 = icmp eq i16 %76, 0
  br i1 %77, label %78, label %66

78:                                               ; preds = %66
  %79 = zext i32 %71 to i64
  br label %80

80:                                               ; preds = %78, %62
  %81 = phi i64 [ 0, %62 ], [ %79, %78 ]
  %82 = getelementptr inbounds i16, ptr %0, i64 %81
  store i16 0, ptr %82, align 2, !tbaa !39
  br label %83

83:                                               ; preds = %80, %60
  ret void
}

; Function Attrs: mustprogress nofree nosync nounwind willreturn memory(none)
declare ptr @__errno_location() local_unnamed_addr #18

; Function Attrs: mustprogress nofree nounwind willreturn
declare i64 @strtoul(ptr noundef readonly, ptr nocapture noundef, i32 noundef) local_unnamed_addr #19

; Function Attrs: uwtable
define linkonce_odr dso_local void @_ZN11xercesc_2_512ArrayJanitorIcED2Ev(ptr noundef nonnull align 8 dereferenceable(16) %0) unnamed_addr #1 comdat align 2 {
  %2 = load ptr, ptr %0, align 8, !tbaa !48
  %3 = icmp eq ptr %2, null
  br i1 %3, label %13, label %4

4:                                                ; preds = %1
  %5 = getelementptr inbounds %"class.xercesc_2_5::ArrayJanitor.0", ptr %0, i64 0, i32 1
  %6 = load ptr, ptr %5, align 8, !tbaa !50
  %7 = icmp eq ptr %6, null
  br i1 %7, label %12, label %8

8:                                                ; preds = %4
  %9 = load ptr, ptr %6, align 8, !tbaa !37
  %10 = getelementptr inbounds ptr, ptr %9, i64 3
  %11 = load ptr, ptr %10, align 8
  tail call void %11(ptr noundef nonnull align 8 dereferenceable(8) %6, ptr noundef nonnull %2)
  br label %13

12:                                               ; preds = %4
  tail call void @_ZdaPv(ptr noundef nonnull %2) #29
  br label %13

13:                                               ; preds = %1, %8, %12
  tail call void @llvm.memset.p0.i64(ptr noundef nonnull align 8 dereferenceable(16) %0, i8 0, i64 16, i1 false)
  ret void
}

; Function Attrs: noinline noreturn nounwind uwtable
define linkonce_odr hidden void @__clang_call_terminate(ptr noundef %0) local_unnamed_addr #20 comdat {
  %2 = tail call ptr @__cxa_begin_catch(ptr %0) #25
  tail call void @_ZSt9terminatev() #27
  unreachable
}

declare ptr @__cxa_begin_catch(ptr) local_unnamed_addr

declare void @_ZSt9terminatev() local_unnamed_addr

; Function Attrs: uwtable
define dso_local noundef i32 @_ZN11xercesc_2_59XMLString8parseIntEPKtPNS_13MemoryManagerE(ptr noundef %0, ptr noundef %1) local_unnamed_addr #1 align 2 personality ptr @__gxx_personality_v0 {
  %3 = alloca %"class.xercesc_2_5::ArrayJanitor", align 8
  %4 = alloca %"class.xercesc_2_5::ArrayJanitor.0", align 8
  %5 = alloca ptr, align 8
  %6 = icmp eq ptr %0, null
  br i1 %6, label %10, label %7

7:                                                ; preds = %2
  %8 = load i16, ptr %0, align 2, !tbaa !39
  %9 = icmp eq i16 %8, 0
  br i1 %9, label %10, label %15

10:                                               ; preds = %7, %2
  %11 = tail call ptr @__cxa_allocate_exception(i64 48) #25
  invoke void @_ZN11xercesc_2_521NumberFormatExceptionC2EPKcjNS_10XMLExcepts5CodesEPNS_13MemoryManagerE(ptr noundef nonnull align 8 dereferenceable(48) %11, ptr noundef nonnull @.str, i32 noundef 1355, i32 noundef 258, ptr noundef %1)
          to label %12 unwind label %13

12:                                               ; preds = %10
  tail call void @__cxa_throw(ptr nonnull %11, ptr nonnull @_ZTIN11xercesc_2_521NumberFormatExceptionE, ptr nonnull @_ZN11xercesc_2_512XMLExceptionD2Ev) #26
  unreachable

13:                                               ; preds = %10
  %14 = landingpad { ptr, i32 }
          cleanup
  tail call void @__cxa_free_exception(ptr %11) #25
  br label %195

15:                                               ; preds = %7, %15
  %16 = phi ptr [ %17, %15 ], [ %0, %7 ]
  %17 = getelementptr inbounds i16, ptr %16, i64 1
  %18 = load i16, ptr %17, align 2, !tbaa !39
  %19 = icmp eq i16 %18, 0
  br i1 %19, label %20, label %15

20:                                               ; preds = %15
  %21 = ptrtoint ptr %17 to i64
  %22 = ptrtoint ptr %0 to i64
  %23 = sub i64 %21, %22
  %24 = add i64 %23, 2
  %25 = and i64 %24, 8589934590
  %26 = load ptr, ptr %1, align 8, !tbaa !37
  %27 = getelementptr inbounds ptr, ptr %26, i64 2
  %28 = load ptr, ptr %27, align 8
  %29 = tail call noundef ptr %28(ptr noundef nonnull align 8 dereferenceable(8) %1, i64 noundef %25)
  tail call void @llvm.memcpy.p0.p0.i64(ptr align 2 %29, ptr nonnull align 2 %0, i64 %25, i1 false)
  call void @llvm.lifetime.start.p0(i64 16, ptr nonnull %3) #25
  store ptr %29, ptr %3, align 8, !tbaa !41
  %30 = getelementptr inbounds %"class.xercesc_2_5::ArrayJanitor", ptr %3, i64 0, i32 1
  store ptr %1, ptr %30, align 8, !tbaa !44
  %31 = icmp eq ptr %29, null
  br i1 %31, label %64, label %32

32:                                               ; preds = %20
  %33 = load i16, ptr %29, align 2, !tbaa !39
  %34 = icmp eq i16 %33, 0
  br i1 %34, label %64, label %35

35:                                               ; preds = %32, %35
  %36 = phi ptr [ %37, %35 ], [ %29, %32 ]
  %37 = getelementptr inbounds i16, ptr %36, i64 1
  %38 = load i16, ptr %37, align 2, !tbaa !39
  %39 = icmp eq i16 %38, 0
  br i1 %39, label %40, label %35

40:                                               ; preds = %35
  %41 = ptrtoint ptr %37 to i64
  %42 = ptrtoint ptr %29 to i64
  %43 = sub i64 %41, %42
  %44 = lshr exact i64 %43, 1
  %45 = trunc i64 %44 to i32
  %46 = icmp eq i32 %45, 0
  br i1 %46, label %64, label %47

47:                                               ; preds = %40
  %48 = and i64 %44, 4294967295
  br label %49

49:                                               ; preds = %59, %47
  %50 = phi i64 [ 0, %47 ], [ %60, %59 ]
  %51 = load ptr, ptr @_ZN11xercesc_2_516XMLPlatformUtils14fgTransServiceE, align 8, !tbaa !45
  %52 = getelementptr inbounds i16, ptr %29, i64 %50
  %53 = load i16, ptr %52, align 2, !tbaa !39
  %54 = load ptr, ptr %51, align 8, !tbaa !37
  %55 = getelementptr inbounds ptr, ptr %54, i64 5
  %56 = load ptr, ptr %55, align 8
  %57 = invoke noundef zeroext i1 %56(ptr noundef nonnull align 8 dereferenceable(8) %51, i16 noundef zeroext %53)
          to label %58 unwind label %134

58:                                               ; preds = %49
  br i1 %57, label %59, label %62

59:                                               ; preds = %58
  %60 = add nuw nsw i64 %50, 1
  %61 = icmp eq i64 %60, %48
  br i1 %61, label %64, label %49

62:                                               ; preds = %58
  %63 = trunc i64 %50 to i32
  br label %64

64:                                               ; preds = %59, %62, %40, %32, %20
  %65 = phi i32 [ 0, %20 ], [ 0, %32 ], [ 0, %40 ], [ %45, %62 ], [ %45, %59 ]
  %66 = phi i64 [ 0, %20 ], [ 0, %32 ], [ 0, %40 ], [ %48, %62 ], [ %48, %59 ]
  %67 = phi i32 [ 0, %20 ], [ 0, %32 ], [ 0, %40 ], [ %63, %62 ], [ %45, %59 ]
  %68 = zext i32 %67 to i64
  %69 = tail call i32 @llvm.umin.i32(i32 %65, i32 %67)
  br label %70

70:                                               ; preds = %82, %64
  %71 = phi i64 [ %75, %82 ], [ %66, %64 ]
  %72 = icmp ugt i64 %71, %68
  br i1 %72, label %73, label %85

73:                                               ; preds = %70
  %74 = load ptr, ptr @_ZN11xercesc_2_516XMLPlatformUtils14fgTransServiceE, align 8, !tbaa !45
  %75 = add nsw i64 %71, -1
  %76 = getelementptr inbounds i16, ptr %29, i64 %75
  %77 = load i16, ptr %76, align 2, !tbaa !39
  %78 = load ptr, ptr %74, align 8, !tbaa !37
  %79 = getelementptr inbounds ptr, ptr %78, i64 5
  %80 = load ptr, ptr %79, align 8
  %81 = invoke noundef zeroext i1 %80(ptr noundef nonnull align 8 dereferenceable(8) %74, i16 noundef zeroext %77)
          to label %82 unwind label %132

82:                                               ; preds = %73
  br i1 %81, label %70, label %83

83:                                               ; preds = %82
  %84 = trunc i64 %71 to i32
  br label %85

85:                                               ; preds = %70, %83
  %86 = phi i32 [ %84, %83 ], [ %69, %70 ]
  %87 = icmp eq i32 %86, %65
  br i1 %87, label %91, label %88

88:                                               ; preds = %85
  %89 = zext i32 %86 to i64
  %90 = getelementptr inbounds i16, ptr %29, i64 %89
  store i16 0, ptr %90, align 2, !tbaa !39
  br label %91

91:                                               ; preds = %88, %85
  %92 = icmp eq i32 %67, 0
  br i1 %92, label %114, label %93

93:                                               ; preds = %91
  %94 = getelementptr inbounds i16, ptr %29, i64 %68
  %95 = load i16, ptr %94, align 2, !tbaa !39
  %96 = icmp eq i16 %95, 0
  br i1 %96, label %111, label %97

97:                                               ; preds = %93, %97
  %98 = phi i16 [ %107, %97 ], [ %95, %93 ]
  %99 = phi i32 [ %102, %97 ], [ 0, %93 ]
  %100 = phi i32 [ %101, %97 ], [ %67, %93 ]
  %101 = add i32 %100, 1
  %102 = add i32 %99, 1
  %103 = zext i32 %99 to i64
  %104 = getelementptr inbounds i16, ptr %29, i64 %103
  store i16 %98, ptr %104, align 2, !tbaa !39
  %105 = zext i32 %101 to i64
  %106 = getelementptr inbounds i16, ptr %29, i64 %105
  %107 = load i16, ptr %106, align 2, !tbaa !39
  %108 = icmp eq i16 %107, 0
  br i1 %108, label %109, label %97

109:                                              ; preds = %97
  %110 = zext i32 %102 to i64
  br label %111

111:                                              ; preds = %93, %109
  %112 = phi i64 [ 0, %93 ], [ %110, %109 ]
  %113 = getelementptr inbounds i16, ptr %29, i64 %112
  store i16 0, ptr %113, align 2, !tbaa !39
  br label %115

114:                                              ; preds = %91
  br i1 %31, label %129, label %115

115:                                              ; preds = %111, %114
  %116 = load i16, ptr %29, align 2, !tbaa !39
  %117 = icmp eq i16 %116, 0
  br i1 %117, label %129, label %118

118:                                              ; preds = %115, %118
  %119 = phi ptr [ %120, %118 ], [ %29, %115 ]
  %120 = getelementptr inbounds i16, ptr %119, i64 1
  %121 = load i16, ptr %120, align 2, !tbaa !39
  %122 = icmp eq i16 %121, 0
  br i1 %122, label %123, label %118

123:                                              ; preds = %118
  %124 = ptrtoint ptr %120 to i64
  %125 = ptrtoint ptr %29 to i64
  %126 = sub i64 %124, %125
  %127 = and i64 %126, 8589934590
  %128 = icmp eq i64 %127, 0
  br i1 %128, label %129, label %140

129:                                              ; preds = %114, %115, %123
  %130 = tail call ptr @__cxa_allocate_exception(i64 48) #25
  invoke void @_ZN11xercesc_2_521NumberFormatExceptionC2EPKcjNS_10XMLExcepts5CodesEPNS_13MemoryManagerE(ptr noundef nonnull align 8 dereferenceable(48) %130, ptr noundef nonnull @.str, i32 noundef 1363, i32 noundef 258, ptr noundef nonnull %1)
          to label %131 unwind label %138

131:                                              ; preds = %129
  invoke void @__cxa_throw(ptr nonnull %130, ptr nonnull @_ZTIN11xercesc_2_521NumberFormatExceptionE, ptr nonnull @_ZN11xercesc_2_512XMLExceptionD2Ev) #26
          to label %200 unwind label %136

132:                                              ; preds = %73
  %133 = landingpad { ptr, i32 }
          cleanup
  br label %192

134:                                              ; preds = %49
  %135 = landingpad { ptr, i32 }
          cleanup
  br label %192

136:                                              ; preds = %131
  %137 = landingpad { ptr, i32 }
          cleanup
  br label %192

138:                                              ; preds = %129
  %139 = landingpad { ptr, i32 }
          cleanup
  tail call void @__cxa_free_exception(ptr %130) #25
  br label %192

140:                                              ; preds = %123
  %141 = tail call ptr @__errno_location() #31
  store i32 0, ptr %141, align 4, !tbaa !46
  %142 = load ptr, ptr @_ZN11xercesc_2_5L11gTranscoderE, align 8, !tbaa !45
  %143 = load ptr, ptr %142, align 8, !tbaa !37
  %144 = getelementptr inbounds ptr, ptr %143, i64 5
  %145 = load ptr, ptr %144, align 8
  %146 = invoke noundef ptr %145(ptr noundef nonnull align 8 dereferenceable(8) %142, ptr noundef nonnull %29, ptr noundef nonnull %1)
          to label %147 unwind label %159

147:                                              ; preds = %140
  call void @llvm.lifetime.start.p0(i64 16, ptr nonnull %4) #25
  store ptr %146, ptr %4, align 8, !tbaa !48
  %148 = getelementptr inbounds %"class.xercesc_2_5::ArrayJanitor.0", ptr %4, i64 0, i32 1
  store ptr %1, ptr %148, align 8, !tbaa !50
  call void @llvm.lifetime.start.p0(i64 8, ptr nonnull %5) #25
  %149 = call i64 @strtol(ptr noundef %146, ptr noundef nonnull %5, i32 noundef 10) #25
  %150 = load ptr, ptr %5, align 8, !tbaa !45
  %151 = ptrtoint ptr %150 to i64
  %152 = ptrtoint ptr %146 to i64
  %153 = sub i64 %151, %152
  %154 = shl i64 %126, 31
  %155 = ashr i64 %154, 32
  %156 = icmp eq i64 %153, %155
  br i1 %156, label %167, label %157

157:                                              ; preds = %147
  %158 = tail call ptr @__cxa_allocate_exception(i64 48) #25
  invoke void @_ZN11xercesc_2_521NumberFormatExceptionC2EPKcjNS_10XMLExcepts5CodesEPNS_13MemoryManagerE(ptr noundef nonnull align 8 dereferenceable(48) %158, ptr noundef nonnull @.str, i32 noundef 1376, i32 noundef 257, ptr noundef nonnull %1)
          to label %172 unwind label %163

159:                                              ; preds = %140
  %160 = landingpad { ptr, i32 }
          cleanup
  br label %192

161:                                              ; preds = %179
  %162 = landingpad { ptr, i32 }
          cleanup
  br label %190

163:                                              ; preds = %157
  %164 = landingpad { ptr, i32 }
          cleanup
  tail call void @__cxa_free_exception(ptr %158) #25
  br label %183

165:                                              ; preds = %172
  %166 = landingpad { ptr, i32 }
          cleanup
  br label %183

167:                                              ; preds = %147
  %168 = load i32, ptr %141, align 4, !tbaa !46
  %169 = icmp eq i32 %168, 34
  br i1 %169, label %170, label %177

170:                                              ; preds = %167
  %171 = tail call ptr @__cxa_allocate_exception(i64 48) #25
  invoke void @_ZN11xercesc_2_521NumberFormatExceptionC2EPKcjNS_10XMLExcepts5CodesEPNS_13MemoryManagerE(ptr noundef nonnull align 8 dereferenceable(48) %171, ptr noundef nonnull @.str, i32 noundef 1380, i32 noundef 83, ptr noundef nonnull %1)
          to label %172 unwind label %175

172:                                              ; preds = %157, %170
  %173 = phi ptr [ %171, %170 ], [ %158, %157 ]
  invoke void @__cxa_throw(ptr nonnull %173, ptr nonnull @_ZTIN11xercesc_2_521NumberFormatExceptionE, ptr nonnull @_ZN11xercesc_2_512XMLExceptionD2Ev) #26
          to label %174 unwind label %165

174:                                              ; preds = %172
  unreachable

175:                                              ; preds = %170
  %176 = landingpad { ptr, i32 }
          cleanup
  tail call void @__cxa_free_exception(ptr %171) #25
  br label %183

177:                                              ; preds = %167
  call void @llvm.lifetime.end.p0(i64 8, ptr nonnull %5) #25
  %178 = icmp eq ptr %146, null
  br i1 %178, label %185, label %179

179:                                              ; preds = %177
  %180 = load ptr, ptr %1, align 8, !tbaa !37
  %181 = getelementptr inbounds ptr, ptr %180, i64 3
  %182 = load ptr, ptr %181, align 8
  invoke void %182(ptr noundef nonnull align 8 dereferenceable(8) %1, ptr noundef nonnull %146)
          to label %185 unwind label %161

183:                                              ; preds = %175, %165, %163
  %184 = phi { ptr, i32 } [ %166, %165 ], [ %164, %163 ], [ %176, %175 ]
  call void @llvm.lifetime.end.p0(i64 8, ptr nonnull %5) #25
  invoke void @_ZN11xercesc_2_512ArrayJanitorIcED2Ev(ptr noundef nonnull align 8 dereferenceable(16) %4)
          to label %190 unwind label %197

185:                                              ; preds = %179, %177
  call void @llvm.lifetime.end.p0(i64 16, ptr nonnull %4) #25
  %186 = load ptr, ptr %1, align 8, !tbaa !37
  %187 = getelementptr inbounds ptr, ptr %186, i64 3
  %188 = load ptr, ptr %187, align 8
  tail call void %188(ptr noundef nonnull align 8 dereferenceable(8) %1, ptr noundef nonnull %29)
  %189 = trunc i64 %149 to i32
  call void @llvm.lifetime.end.p0(i64 16, ptr nonnull %3) #25
  ret i32 %189

190:                                              ; preds = %183, %161
  %191 = phi { ptr, i32 } [ %184, %183 ], [ %162, %161 ]
  call void @llvm.lifetime.end.p0(i64 16, ptr nonnull %4) #25
  br label %192

192:                                              ; preds = %132, %134, %136, %138, %190, %159
  %193 = phi { ptr, i32 } [ %137, %136 ], [ %139, %138 ], [ %191, %190 ], [ %160, %159 ], [ %133, %132 ], [ %135, %134 ]
  invoke void @_ZN11xercesc_2_512ArrayJanitorItED2Ev(ptr noundef nonnull align 8 dereferenceable(16) %3)
          to label %194 unwind label %197

194:                                              ; preds = %192
  call void @llvm.lifetime.end.p0(i64 16, ptr nonnull %3) #25
  br label %195

195:                                              ; preds = %194, %13
  %196 = phi { ptr, i32 } [ %193, %194 ], [ %14, %13 ]
  resume { ptr, i32 } %196

197:                                              ; preds = %192, %183
  %198 = landingpad { ptr, i32 }
          catch ptr null
  %199 = extractvalue { ptr, i32 } %198, 0
  call void @__clang_call_terminate(ptr %199) #27
  unreachable

200:                                              ; preds = %131
  unreachable
}

; Function Attrs: uwtable
define linkonce_odr dso_local void @_ZN11xercesc_2_521NumberFormatExceptionC2EPKcjNS_10XMLExcepts5CodesEPNS_13MemoryManagerE(ptr noundef nonnull align 8 dereferenceable(48) %0, ptr noundef %1, i32 noundef %2, i32 noundef %3, ptr noundef %4) unnamed_addr #1 comdat align 2 personality ptr @__gxx_personality_v0 {
  tail call void @_ZN11xercesc_2_512XMLExceptionC2EPKcjPNS_13MemoryManagerE(ptr noundef nonnull align 8 dereferenceable(48) %0, ptr noundef %1, i32 noundef %2, ptr noundef %4)
  store ptr getelementptr inbounds ({ [6 x ptr] }, ptr @_ZTVN11xercesc_2_521NumberFormatExceptionE, i64 0, inrange i32 0, i64 2), ptr %0, align 8, !tbaa !37
  invoke void @_ZN11xercesc_2_512XMLException14loadExceptTextENS_10XMLExcepts5CodesE(ptr noundef nonnull align 8 dereferenceable(48) %0, i32 noundef %3)
          to label %6 unwind label %7

6:                                                ; preds = %5
  ret void

7:                                                ; preds = %5
  %8 = landingpad { ptr, i32 }
          cleanup
  invoke void @_ZN11xercesc_2_512XMLExceptionD2Ev(ptr noundef nonnull align 8 dereferenceable(48) %0)
          to label %9 unwind label %10

9:                                                ; preds = %7
  resume { ptr, i32 } %8

10:                                               ; preds = %7
  %11 = landingpad { ptr, i32 }
          catch ptr null
  %12 = extractvalue { ptr, i32 } %11, 0
  tail call void @__clang_call_terminate(ptr %12) #27
  unreachable
}

declare void @_ZN11xercesc_2_512XMLExceptionD2Ev(ptr noundef nonnull align 8 dereferenceable(48)) unnamed_addr #5

; Function Attrs: mustprogress nofree nounwind willreturn
declare i64 @strtol(ptr noundef readonly, ptr nocapture noundef, i32 noundef) local_unnamed_addr #19

; Function Attrs: uwtable
define dso_local void @_ZN11xercesc_2_59XMLString9upperCaseEPt(ptr noundef %0) local_unnamed_addr #1 align 2 {
  %2 = load ptr, ptr @_ZN11xercesc_2_516XMLPlatformUtils14fgTransServiceE, align 8, !tbaa !45
  %3 = load ptr, ptr %2, align 8, !tbaa !37
  %4 = getelementptr inbounds ptr, ptr %3, i64 8
  %5 = load ptr, ptr %4, align 8
  tail call void %5(ptr noundef nonnull align 8 dereferenceable(8) %2, ptr noundef %0)
  ret void
}

; Function Attrs: uwtable
define dso_local void @_ZN11xercesc_2_59XMLString9lowerCaseEPt(ptr noundef %0) local_unnamed_addr #1 align 2 {
  %2 = load ptr, ptr @_ZN11xercesc_2_516XMLPlatformUtils14fgTransServiceE, align 8, !tbaa !45
  %3 = load ptr, ptr %2, align 8, !tbaa !37
  %4 = getelementptr inbounds ptr, ptr %3, i64 9
  %5 = load ptr, ptr %4, align 8
  tail call void %5(ptr noundef nonnull align 8 dereferenceable(8) %2, ptr noundef %0)
  ret void
}

; Function Attrs: uwtable
define dso_local void @_ZN11xercesc_2_59XMLString9subStringEPtPKtiiPNS_13MemoryManagerE(ptr noundef writeonly %0, ptr noundef %1, i32 noundef %2, i32 noundef %3, ptr noundef %4) local_unnamed_addr #1 align 2 personality ptr @__gxx_personality_v0 {
  %6 = icmp eq ptr %0, null
  br i1 %6, label %7, label %12

7:                                                ; preds = %5
  %8 = tail call ptr @__cxa_allocate_exception(i64 48) #25
  invoke void @_ZN11xercesc_2_524IllegalArgumentExceptionC2EPKcjNS_10XMLExcepts5CodesEPNS_13MemoryManagerE(ptr noundef nonnull align 8 dereferenceable(48) %8, ptr noundef nonnull @.str, i32 noundef 1444, i32 noundef 79, ptr noundef %4)
          to label %9 unwind label %10

9:                                                ; preds = %7
  tail call void @__cxa_throw(ptr nonnull %8, ptr nonnull @_ZTIN11xercesc_2_524IllegalArgumentExceptionE, ptr nonnull @_ZN11xercesc_2_512XMLExceptionD2Ev) #26
  unreachable

10:                                               ; preds = %7
  %11 = landingpad { ptr, i32 }
          cleanup
  br label %58

12:                                               ; preds = %5
  %13 = icmp eq ptr %1, null
  br i1 %13, label %28, label %14

14:                                               ; preds = %12
  %15 = load i16, ptr %1, align 2, !tbaa !39
  %16 = icmp eq i16 %15, 0
  br i1 %16, label %28, label %17

17:                                               ; preds = %14, %17
  %18 = phi ptr [ %19, %17 ], [ %1, %14 ]
  %19 = getelementptr inbounds i16, ptr %18, i64 1
  %20 = load i16, ptr %19, align 2, !tbaa !39
  %21 = icmp eq i16 %20, 0
  br i1 %21, label %22, label %17

22:                                               ; preds = %17
  %23 = ptrtoint ptr %19 to i64
  %24 = ptrtoint ptr %1 to i64
  %25 = sub i64 %23, %24
  %26 = lshr exact i64 %25, 1
  %27 = trunc i64 %26 to i32
  br label %28

28:                                               ; preds = %12, %14, %22
  %29 = phi i32 [ %27, %22 ], [ 0, %14 ], [ 0, %12 ]
  %30 = icmp slt i32 %2, 0
  %31 = icmp sgt i32 %2, %3
  %32 = or i1 %30, %31
  %33 = icmp slt i32 %29, %3
  %34 = or i1 %32, %33
  br i1 %34, label %40, label %35

35:                                               ; preds = %28
  %36 = icmp slt i32 %2, %3
  br i1 %36, label %37, label %45

37:                                               ; preds = %35
  %38 = zext i32 %2 to i64
  %39 = sext i32 %3 to i64
  br label %49

40:                                               ; preds = %28
  %41 = tail call ptr @__cxa_allocate_exception(i64 48) #25
  invoke void @_ZN11xercesc_2_530ArrayIndexOutOfBoundsExceptionC2EPKcjNS_10XMLExcepts5CodesEPNS_13MemoryManagerE(ptr noundef nonnull align 8 dereferenceable(48) %41, ptr noundef nonnull @.str, i32 noundef 1451, i32 noundef 82, ptr noundef %4)
          to label %42 unwind label %43

42:                                               ; preds = %40
  tail call void @__cxa_throw(ptr nonnull %41, ptr nonnull @_ZTIN11xercesc_2_530ArrayIndexOutOfBoundsExceptionE, ptr nonnull @_ZN11xercesc_2_512XMLExceptionD2Ev) #26
  unreachable

43:                                               ; preds = %40
  %44 = landingpad { ptr, i32 }
          cleanup
  br label %58

45:                                               ; preds = %49, %35
  %46 = sub nsw i32 %3, %2
  %47 = sext i32 %46 to i64
  %48 = getelementptr inbounds i16, ptr %0, i64 %47
  store i16 0, ptr %48, align 2, !tbaa !39
  ret void

49:                                               ; preds = %37, %49
  %50 = phi i64 [ %38, %37 ], [ %56, %49 ]
  %51 = and i64 %50, 4294967295
  %52 = getelementptr inbounds i16, ptr %1, i64 %51
  %53 = load i16, ptr %52, align 2, !tbaa !39
  %54 = sub nuw nsw i64 %50, %38
  %55 = getelementptr inbounds i16, ptr %0, i64 %54
  store i16 %53, ptr %55, align 2, !tbaa !39
  %56 = add nuw nsw i64 %50, 1
  %57 = icmp eq i64 %56, %39
  br i1 %57, label %45, label %49

58:                                               ; preds = %43, %10
  %59 = phi ptr [ %41, %43 ], [ %8, %10 ]
  %60 = phi { ptr, i32 } [ %44, %43 ], [ %11, %10 ]
  tail call void @__cxa_free_exception(ptr %59) #25
  resume { ptr, i32 } %60
}

; Function Attrs: uwtable
define dso_local noundef ptr @_ZN11xercesc_2_59XMLString14tokenizeStringEPKtPNS_13MemoryManagerE(ptr noundef %0, ptr noundef %1) local_unnamed_addr #1 align 2 personality ptr @__gxx_personality_v0 {
  %3 = alloca %"class.xercesc_2_5::ArrayJanitor", align 8
  %4 = icmp eq ptr %0, null
  br i1 %4, label %25, label %5

5:                                                ; preds = %2
  %6 = load i16, ptr %0, align 2, !tbaa !39
  %7 = icmp eq i16 %6, 0
  br i1 %7, label %19, label %8

8:                                                ; preds = %5, %8
  %9 = phi ptr [ %10, %8 ], [ %0, %5 ]
  %10 = getelementptr inbounds i16, ptr %9, i64 1
  %11 = load i16, ptr %10, align 2, !tbaa !39
  %12 = icmp eq i16 %11, 0
  br i1 %12, label %13, label %8

13:                                               ; preds = %8
  %14 = ptrtoint ptr %10 to i64
  %15 = ptrtoint ptr %0 to i64
  %16 = sub i64 %14, %15
  %17 = add i64 %16, 2
  %18 = and i64 %17, 8589934590
  br label %19

19:                                               ; preds = %13, %5
  %20 = phi i64 [ %18, %13 ], [ 2, %5 ]
  %21 = load ptr, ptr %1, align 8, !tbaa !37
  %22 = getelementptr inbounds ptr, ptr %21, i64 2
  %23 = load ptr, ptr %22, align 8
  %24 = tail call noundef ptr %23(ptr noundef nonnull align 8 dereferenceable(8) %1, i64 noundef %20)
  tail call void @llvm.memcpy.p0.p0.i64(ptr align 2 %24, ptr nonnull align 2 %0, i64 %20, i1 false)
  br label %25

25:                                               ; preds = %2, %19
  %26 = phi ptr [ %24, %19 ], [ null, %2 ]
  call void @llvm.lifetime.start.p0(i64 16, ptr nonnull %3) #25
  store ptr %26, ptr %3, align 8, !tbaa !41
  %27 = getelementptr inbounds %"class.xercesc_2_5::ArrayJanitor", ptr %3, i64 0, i32 1
  store ptr %1, ptr %27, align 8, !tbaa !44
  %28 = invoke noundef ptr @_ZN11xercesc_2_57XMemorynwEmPNS_13MemoryManagerE(i64 noundef 40, ptr noundef %1)
          to label %29 unwind label %103

29:                                               ; preds = %25
  store ptr getelementptr inbounds ({ [9 x ptr] }, ptr @_ZTVN11xercesc_2_515BaseRefVectorOfItEE, i64 0, inrange i32 0, i64 2), ptr %28, align 8, !tbaa !37
  %30 = getelementptr inbounds %"class.xercesc_2_5::BaseRefVectorOf", ptr %28, i64 0, i32 1
  store i8 1, ptr %30, align 8, !tbaa !51
  %31 = getelementptr inbounds %"class.xercesc_2_5::BaseRefVectorOf", ptr %28, i64 0, i32 2
  store i32 0, ptr %31, align 4, !tbaa !54
  %32 = getelementptr inbounds %"class.xercesc_2_5::BaseRefVectorOf", ptr %28, i64 0, i32 3
  store i32 16, ptr %32, align 8, !tbaa !55
  %33 = getelementptr inbounds %"class.xercesc_2_5::BaseRefVectorOf", ptr %28, i64 0, i32 4
  store ptr null, ptr %33, align 8, !tbaa !56
  %34 = getelementptr inbounds %"class.xercesc_2_5::BaseRefVectorOf", ptr %28, i64 0, i32 5
  store ptr %1, ptr %34, align 8, !tbaa !57
  %35 = load ptr, ptr %1, align 8, !tbaa !37
  %36 = getelementptr inbounds ptr, ptr %35, i64 2
  %37 = load ptr, ptr %36, align 8
  %38 = invoke noundef ptr %37(ptr noundef nonnull align 8 dereferenceable(8) %1, i64 noundef 128)
          to label %39 unwind label %105

39:                                               ; preds = %29
  store ptr %38, ptr %33, align 8, !tbaa !56
  store ptr null, ptr %38, align 8, !tbaa !45
  %40 = load ptr, ptr %33, align 8, !tbaa !56
  %41 = getelementptr inbounds ptr, ptr %40, i64 1
  store ptr null, ptr %41, align 8, !tbaa !45
  %42 = load ptr, ptr %33, align 8, !tbaa !56
  %43 = getelementptr inbounds ptr, ptr %42, i64 2
  store ptr null, ptr %43, align 8, !tbaa !45
  %44 = load ptr, ptr %33, align 8, !tbaa !56
  %45 = getelementptr inbounds ptr, ptr %44, i64 3
  store ptr null, ptr %45, align 8, !tbaa !45
  %46 = load ptr, ptr %33, align 8, !tbaa !56
  %47 = getelementptr inbounds ptr, ptr %46, i64 4
  store ptr null, ptr %47, align 8, !tbaa !45
  %48 = load ptr, ptr %33, align 8, !tbaa !56
  %49 = getelementptr inbounds ptr, ptr %48, i64 5
  store ptr null, ptr %49, align 8, !tbaa !45
  %50 = load ptr, ptr %33, align 8, !tbaa !56
  %51 = getelementptr inbounds ptr, ptr %50, i64 6
  store ptr null, ptr %51, align 8, !tbaa !45
  %52 = load ptr, ptr %33, align 8, !tbaa !56
  %53 = getelementptr inbounds ptr, ptr %52, i64 7
  store ptr null, ptr %53, align 8, !tbaa !45
  %54 = load ptr, ptr %33, align 8, !tbaa !56
  %55 = getelementptr inbounds ptr, ptr %54, i64 8
  store ptr null, ptr %55, align 8, !tbaa !45
  %56 = load ptr, ptr %33, align 8, !tbaa !56
  %57 = getelementptr inbounds ptr, ptr %56, i64 9
  store ptr null, ptr %57, align 8, !tbaa !45
  %58 = load ptr, ptr %33, align 8, !tbaa !56
  %59 = getelementptr inbounds ptr, ptr %58, i64 10
  store ptr null, ptr %59, align 8, !tbaa !45
  %60 = load ptr, ptr %33, align 8, !tbaa !56
  %61 = getelementptr inbounds ptr, ptr %60, i64 11
  store ptr null, ptr %61, align 8, !tbaa !45
  %62 = load ptr, ptr %33, align 8, !tbaa !56
  %63 = getelementptr inbounds ptr, ptr %62, i64 12
  store ptr null, ptr %63, align 8, !tbaa !45
  %64 = load ptr, ptr %33, align 8, !tbaa !56
  %65 = getelementptr inbounds ptr, ptr %64, i64 13
  store ptr null, ptr %65, align 8, !tbaa !45
  %66 = load ptr, ptr %33, align 8, !tbaa !56
  %67 = getelementptr inbounds ptr, ptr %66, i64 14
  store ptr null, ptr %67, align 8, !tbaa !45
  %68 = load ptr, ptr %33, align 8, !tbaa !56
  %69 = getelementptr inbounds ptr, ptr %68, i64 15
  store ptr null, ptr %69, align 8, !tbaa !45
  store ptr getelementptr inbounds ({ [9 x ptr] }, ptr @_ZTVN11xercesc_2_516RefArrayVectorOfItEE, i64 0, inrange i32 0, i64 2), ptr %28, align 8, !tbaa !37
  %70 = icmp eq ptr %26, null
  br i1 %70, label %208, label %71

71:                                               ; preds = %39
  %72 = load i16, ptr %26, align 2, !tbaa !39
  %73 = icmp eq i16 %72, 0
  br i1 %73, label %208, label %74

74:                                               ; preds = %71, %74
  %75 = phi ptr [ %76, %74 ], [ %26, %71 ]
  %76 = getelementptr inbounds i16, ptr %75, i64 1
  %77 = load i16, ptr %76, align 2, !tbaa !39
  %78 = icmp eq i16 %77, 0
  br i1 %78, label %79, label %74

79:                                               ; preds = %74
  %80 = ptrtoint ptr %76 to i64
  %81 = ptrtoint ptr %26 to i64
  %82 = sub i64 %80, %81
  %83 = lshr exact i64 %82, 1
  %84 = trunc i64 %83 to i32
  %85 = icmp eq i32 %84, 0
  br i1 %85, label %208, label %86

86:                                               ; preds = %79
  %87 = and i64 %83, 4294967295
  br label %88

88:                                               ; preds = %86, %199
  %89 = phi i32 [ %137, %199 ], [ 0, %86 ]
  %90 = icmp ult i32 %89, %84
  br i1 %90, label %91, label %116

91:                                               ; preds = %88
  %92 = zext i32 %89 to i64
  br label %93

93:                                               ; preds = %91, %111
  %94 = phi i64 [ %92, %91 ], [ %112, %111 ]
  %95 = load ptr, ptr @_ZN11xercesc_2_516XMLPlatformUtils14fgTransServiceE, align 8, !tbaa !45
  %96 = getelementptr inbounds i16, ptr %26, i64 %94
  %97 = load i16, ptr %96, align 2, !tbaa !39
  %98 = load ptr, ptr %95, align 8, !tbaa !37
  %99 = getelementptr inbounds ptr, ptr %98, i64 5
  %100 = load ptr, ptr %99, align 8
  %101 = invoke noundef zeroext i1 %100(ptr noundef nonnull align 8 dereferenceable(8) %95, i16 noundef zeroext %97)
          to label %102 unwind label %109

102:                                              ; preds = %93
  br i1 %101, label %111, label %114

103:                                              ; preds = %25
  %104 = landingpad { ptr, i32 }
          cleanup
  br label %220

105:                                              ; preds = %29
  %106 = landingpad { ptr, i32 }
          cleanup
  invoke void @_ZN11xercesc_2_57XMemorydlEPvPNS_13MemoryManagerE(ptr noundef nonnull %28, ptr noundef nonnull %1)
          to label %220 unwind label %223

107:                                              ; preds = %121
  %108 = landingpad { ptr, i32 }
          cleanup
  br label %220

109:                                              ; preds = %93
  %110 = landingpad { ptr, i32 }
          cleanup
  br label %220

111:                                              ; preds = %102
  %112 = add nuw nsw i64 %94, 1
  %113 = icmp eq i64 %112, %87
  br i1 %113, label %208, label %93

114:                                              ; preds = %102
  %115 = trunc i64 %94 to i32
  br label %116

116:                                              ; preds = %114, %88
  %117 = phi i32 [ %89, %88 ], [ %115, %114 ]
  %118 = icmp ult i32 %117, %84
  br i1 %118, label %119, label %208

119:                                              ; preds = %116
  %120 = zext i32 %117 to i64
  br label %121

121:                                              ; preds = %119, %131
  %122 = phi i64 [ %120, %119 ], [ %132, %131 ]
  %123 = load ptr, ptr @_ZN11xercesc_2_516XMLPlatformUtils14fgTransServiceE, align 8, !tbaa !45
  %124 = getelementptr inbounds i16, ptr %26, i64 %122
  %125 = load i16, ptr %124, align 2, !tbaa !39
  %126 = load ptr, ptr %123, align 8, !tbaa !37
  %127 = getelementptr inbounds ptr, ptr %126, i64 5
  %128 = load ptr, ptr %127, align 8
  %129 = invoke noundef zeroext i1 %128(ptr noundef nonnull align 8 dereferenceable(8) %123, i16 noundef zeroext %125)
          to label %130 unwind label %107

130:                                              ; preds = %121
  br i1 %129, label %134, label %131

131:                                              ; preds = %130
  %132 = add nuw nsw i64 %122, 1
  %133 = icmp eq i64 %132, %87
  br i1 %133, label %136, label %121

134:                                              ; preds = %130
  %135 = trunc i64 %122 to i32
  br label %136

136:                                              ; preds = %131, %134
  %137 = phi i32 [ %135, %134 ], [ %84, %131 ]
  %138 = icmp eq i32 %137, %117
  br i1 %138, label %208, label %139

139:                                              ; preds = %136
  %140 = sub i32 %137, %117
  %141 = add i32 %140, 1
  %142 = zext i32 %141 to i64
  %143 = shl nuw nsw i64 %142, 1
  %144 = load ptr, ptr %1, align 8, !tbaa !37
  %145 = getelementptr inbounds ptr, ptr %144, i64 2
  %146 = load ptr, ptr %145, align 8
  %147 = invoke noundef ptr %146(ptr noundef nonnull align 8 dereferenceable(8) %1, i64 noundef %143)
          to label %148 unwind label %206

148:                                              ; preds = %139
  invoke void @_ZN11xercesc_2_59XMLString9subStringEPtPKtiiPNS_13MemoryManagerE(ptr noundef %147, ptr noundef nonnull %26, i32 noundef %117, i32 noundef %137, ptr noundef nonnull %1)
          to label %149 unwind label %206

149:                                              ; preds = %148
  %150 = load i32, ptr %31, align 4, !tbaa !54
  %151 = add i32 %150, 1
  %152 = load i32, ptr %32, align 8, !tbaa !55
  %153 = icmp ult i32 %151, %152
  br i1 %153, label %154, label %156

154:                                              ; preds = %149
  %155 = load ptr, ptr %33, align 8, !tbaa !56
  br label %199

156:                                              ; preds = %149
  %157 = add i32 %152, 32
  %158 = tail call i32 @llvm.umax.i32(i32 %151, i32 %157)
  %159 = load ptr, ptr %34, align 8, !tbaa !57
  %160 = zext i32 %158 to i64
  %161 = shl nuw nsw i64 %160, 3
  %162 = load ptr, ptr %159, align 8, !tbaa !37
  %163 = getelementptr inbounds ptr, ptr %162, i64 2
  %164 = load ptr, ptr %163, align 8
  %165 = invoke noundef ptr %164(ptr noundef nonnull align 8 dereferenceable(8) %159, i64 noundef %161)
          to label %166 unwind label %206

166:                                              ; preds = %156
  %167 = load i32, ptr %31, align 4, !tbaa !54
  %168 = icmp eq i32 %167, 0
  br i1 %168, label %171, label %169

169:                                              ; preds = %166
  %170 = zext i32 %167 to i64
  br label %182

171:                                              ; preds = %182, %166
  %172 = icmp ult i32 %167, %158
  br i1 %172, label %173, label %190

173:                                              ; preds = %171
  %174 = zext i32 %167 to i64
  %175 = shl nuw nsw i64 %174, 3
  %176 = getelementptr i8, ptr %165, i64 %175
  %177 = xor i32 %167, -1
  %178 = add i32 %158, %177
  %179 = zext i32 %178 to i64
  %180 = shl nuw nsw i64 %179, 3
  %181 = add nuw nsw i64 %180, 8
  tail call void @llvm.memset.p0.i64(ptr noundef nonnull align 8 dereferenceable(1) %176, i8 0, i64 %181, i1 false), !tbaa !45
  br label %190

182:                                              ; preds = %182, %169
  %183 = phi i64 [ 0, %169 ], [ %188, %182 ]
  %184 = load ptr, ptr %33, align 8, !tbaa !56
  %185 = getelementptr inbounds ptr, ptr %184, i64 %183
  %186 = load ptr, ptr %185, align 8, !tbaa !45
  %187 = getelementptr inbounds ptr, ptr %165, i64 %183
  store ptr %186, ptr %187, align 8, !tbaa !45
  %188 = add nuw nsw i64 %183, 1
  %189 = icmp eq i64 %188, %170
  br i1 %189, label %171, label %182

190:                                              ; preds = %173, %171
  %191 = load ptr, ptr %34, align 8, !tbaa !57
  %192 = load ptr, ptr %33, align 8, !tbaa !56
  %193 = load ptr, ptr %191, align 8, !tbaa !37
  %194 = getelementptr inbounds ptr, ptr %193, i64 3
  %195 = load ptr, ptr %194, align 8
  invoke void %195(ptr noundef nonnull align 8 dereferenceable(8) %191, ptr noundef %192)
          to label %196 unwind label %206

196:                                              ; preds = %190
  store ptr %165, ptr %33, align 8, !tbaa !56
  store i32 %158, ptr %32, align 8, !tbaa !55
  %197 = load i32, ptr %31, align 4, !tbaa !54
  %198 = add i32 %197, 1
  br label %199

199:                                              ; preds = %154, %196
  %200 = phi i32 [ %151, %154 ], [ %198, %196 ]
  %201 = phi i32 [ %150, %154 ], [ %197, %196 ]
  %202 = phi ptr [ %155, %154 ], [ %165, %196 ]
  %203 = zext i32 %201 to i64
  %204 = getelementptr inbounds ptr, ptr %202, i64 %203
  store ptr %147, ptr %204, align 8, !tbaa !45
  store i32 %200, ptr %31, align 4, !tbaa !54
  %205 = icmp eq i32 %137, %84
  br i1 %205, label %208, label %88

206:                                              ; preds = %190, %156, %148, %139
  %207 = landingpad { ptr, i32 }
          cleanup
  br label %220

208:                                              ; preds = %116, %199, %136, %111, %39, %71, %79
  %209 = load ptr, ptr %3, align 8, !tbaa !41
  %210 = icmp eq ptr %209, null
  br i1 %210, label %219, label %211

211:                                              ; preds = %208
  %212 = load ptr, ptr %27, align 8, !tbaa !44
  %213 = icmp eq ptr %212, null
  br i1 %213, label %218, label %214

214:                                              ; preds = %211
  %215 = load ptr, ptr %212, align 8, !tbaa !37
  %216 = getelementptr inbounds ptr, ptr %215, i64 3
  %217 = load ptr, ptr %216, align 8
  tail call void %217(ptr noundef nonnull align 8 dereferenceable(8) %212, ptr noundef nonnull %209)
  br label %219

218:                                              ; preds = %211
  tail call void @_ZdaPv(ptr noundef nonnull %209) #29
  br label %219

219:                                              ; preds = %208, %214, %218
  call void @llvm.lifetime.end.p0(i64 16, ptr nonnull %3) #25
  ret ptr %28

220:                                              ; preds = %107, %109, %206, %105, %103
  %221 = phi { ptr, i32 } [ %106, %105 ], [ %104, %103 ], [ %207, %206 ], [ %108, %107 ], [ %110, %109 ]
  invoke void @_ZN11xercesc_2_512ArrayJanitorItED2Ev(ptr noundef nonnull align 8 dereferenceable(16) %3)
          to label %222 unwind label %223

222:                                              ; preds = %220
  call void @llvm.lifetime.end.p0(i64 16, ptr nonnull %3) #25
  resume { ptr, i32 } %221

223:                                              ; preds = %220, %105
  %224 = landingpad { ptr, i32 }
          catch ptr null
  %225 = extractvalue { ptr, i32 } %224, 0
  call void @__clang_call_terminate(ptr %225) #27
  unreachable
}

declare noundef ptr @_ZN11xercesc_2_57XMemorynwEmPNS_13MemoryManagerE(i64 noundef, ptr noundef) local_unnamed_addr #5

declare void @_ZN11xercesc_2_57XMemorydlEPvPNS_13MemoryManagerE(ptr noundef, ptr noundef) local_unnamed_addr #5

; Function Attrs: nofree norecurse nosync nounwind memory(read, inaccessiblemem: none) uwtable
define dso_local noundef zeroext i1 @_ZN11xercesc_2_59XMLString8isInListEPKtS2_(ptr noundef %0, ptr nocapture noundef readonly %1) local_unnamed_addr #14 align 2 {
  %3 = icmp eq ptr %0, null
  br i1 %3, label %18, label %4

4:                                                ; preds = %2
  %5 = load i16, ptr %0, align 2, !tbaa !39
  %6 = icmp eq i16 %5, 0
  br i1 %6, label %18, label %7

7:                                                ; preds = %4, %7
  %8 = phi ptr [ %9, %7 ], [ %0, %4 ]
  %9 = getelementptr inbounds i16, ptr %8, i64 1
  %10 = load i16, ptr %9, align 2, !tbaa !39
  %11 = icmp eq i16 %10, 0
  br i1 %11, label %12, label %7

12:                                               ; preds = %7
  %13 = ptrtoint ptr %9 to i64
  %14 = ptrtoint ptr %0 to i64
  %15 = sub i64 %13, %14
  %16 = lshr exact i64 %15, 1
  %17 = trunc i64 %16 to i32
  br label %18

18:                                               ; preds = %2, %4, %12
  %19 = phi i32 [ %17, %12 ], [ 0, %4 ], [ 0, %2 ]
  %20 = load i16, ptr %1, align 2, !tbaa !39
  %21 = icmp eq i16 %20, 0
  br i1 %21, label %70, label %22

22:                                               ; preds = %18
  %23 = icmp eq i32 %19, 0
  br i1 %23, label %56, label %24

24:                                               ; preds = %22
  %25 = zext i32 %19 to i64
  br label %26

26:                                               ; preds = %24, %46
  %27 = phi i16 [ %48, %46 ], [ %20, %24 ]
  %28 = phi ptr [ %47, %46 ], [ %1, %24 ]
  br label %29

29:                                               ; preds = %26, %53
  %30 = phi i64 [ 0, %26 ], [ %54, %53 ]
  %31 = getelementptr inbounds i16, ptr %28, i64 %30
  %32 = load i16, ptr %31, align 2, !tbaa !39
  %33 = getelementptr inbounds i16, ptr %0, i64 %30
  %34 = load i16, ptr %33, align 2, !tbaa !39
  %35 = icmp eq i16 %32, %34
  br i1 %35, label %53, label %36

36:                                               ; preds = %29
  %37 = trunc i64 %30 to i32
  %38 = icmp eq i32 %19, %37
  br i1 %38, label %39, label %42

39:                                               ; preds = %53, %36
  %40 = getelementptr inbounds i16, ptr %28, i64 %25
  %41 = load i16, ptr %40, align 2, !tbaa !39
  switch i16 %41, label %42 [
    i16 32, label %70
    i16 0, label %70
  ]

42:                                               ; preds = %39, %36
  br label %43

43:                                               ; preds = %42, %50
  %44 = phi i16 [ %52, %50 ], [ %27, %42 ]
  %45 = phi ptr [ %51, %50 ], [ %28, %42 ]
  switch i16 %44, label %50 [
    i16 0, label %70
    i16 32, label %46
  ]

46:                                               ; preds = %43
  %47 = getelementptr inbounds i16, ptr %45, i64 1
  %48 = load i16, ptr %47, align 2, !tbaa !39
  %49 = icmp eq i16 %48, 0
  br i1 %49, label %70, label %26

50:                                               ; preds = %43
  %51 = getelementptr inbounds i16, ptr %45, i64 1
  %52 = load i16, ptr %51, align 2, !tbaa !39
  br label %43

53:                                               ; preds = %29
  %54 = add nuw nsw i64 %30, 1
  %55 = icmp eq i64 %54, %25
  br i1 %55, label %39, label %29

56:                                               ; preds = %22, %63
  %57 = phi i16 [ %65, %63 ], [ %20, %22 ]
  %58 = phi ptr [ %64, %63 ], [ %1, %22 ]
  %59 = icmp eq i16 %57, 32
  br i1 %59, label %70, label %60

60:                                               ; preds = %56, %67
  %61 = phi i16 [ %69, %67 ], [ %57, %56 ]
  %62 = phi ptr [ %68, %67 ], [ %58, %56 ]
  switch i16 %61, label %67 [
    i16 0, label %70
    i16 32, label %63
  ]

63:                                               ; preds = %60
  %64 = getelementptr inbounds i16, ptr %62, i64 1
  %65 = load i16, ptr %64, align 2, !tbaa !39
  %66 = icmp eq i16 %65, 0
  br i1 %66, label %70, label %56

67:                                               ; preds = %60
  %68 = getelementptr inbounds i16, ptr %62, i64 1
  %69 = load i16, ptr %68, align 2, !tbaa !39
  br label %60

70:                                               ; preds = %46, %39, %39, %43, %56, %63, %60, %18
  %71 = phi i1 [ false, %18 ], [ false, %60 ], [ %59, %63 ], [ %59, %56 ], [ false, %43 ], [ false, %46 ], [ true, %39 ], [ true, %39 ]
  ret i1 %71
}

; Function Attrs: nofree norecurse nosync nounwind memory(read, inaccessiblemem: none) uwtable
define dso_local noundef zeroext i1 @_ZN11xercesc_2_59XMLString12isWSReplacedEPKt(ptr noundef readonly %0) local_unnamed_addr #14 align 2 {
  %2 = icmp eq ptr %0, null
  br i1 %2, label %22, label %3

3:                                                ; preds = %1
  %4 = load i16, ptr %0, align 2, !tbaa !39
  %5 = icmp eq i16 %4, 0
  br i1 %5, label %22, label %6

6:                                                ; preds = %3, %10
  %7 = phi i16 [ %12, %10 ], [ %4, %3 ]
  %8 = phi ptr [ %11, %10 ], [ %0, %3 ]
  %9 = icmp ult i16 %7, 14
  br i1 %9, label %13, label %10

10:                                               ; preds = %13, %6
  %11 = getelementptr inbounds i16, ptr %8, i64 1
  %12 = load i16, ptr %11, align 2, !tbaa !39
  br label %6

13:                                               ; preds = %6
  %14 = lshr i16 9729, %7
  %15 = and i16 %14, 1
  %16 = icmp eq i16 %15, 0
  br i1 %16, label %10, label %17

17:                                               ; preds = %13
  %18 = trunc i16 %7 to i14
  %19 = lshr i14 6655, %18
  %20 = and i14 %19, 1
  %21 = icmp ne i14 %20, 0
  br label %22

22:                                               ; preds = %17, %1, %3
  %23 = phi i1 [ true, %3 ], [ true, %1 ], [ %21, %17 ]
  ret i1 %23
}

; Function Attrs: uwtable
define dso_local void @_ZN11xercesc_2_59XMLString9replaceWSEPtPNS_13MemoryManagerE(ptr noundef %0, ptr noundef %1) local_unnamed_addr #1 align 2 {
  %3 = icmp eq ptr %0, null
  br i1 %3, label %42, label %4

4:                                                ; preds = %2
  %5 = load i16, ptr %0, align 2, !tbaa !39
  %6 = icmp eq i16 %5, 0
  br i1 %6, label %42, label %7

7:                                                ; preds = %4, %7
  %8 = phi ptr [ %9, %7 ], [ %0, %4 ]
  %9 = getelementptr inbounds i16, ptr %8, i64 1
  %10 = load i16, ptr %9, align 2, !tbaa !39
  %11 = icmp eq i16 %10, 0
  br i1 %11, label %12, label %7

12:                                               ; preds = %7
  %13 = ptrtoint ptr %9 to i64
  %14 = ptrtoint ptr %0 to i64
  %15 = sub i64 %13, %14
  %16 = and i64 %15, 8589934590
  %17 = icmp eq i64 %16, 0
  br i1 %17, label %42, label %18

18:                                               ; preds = %12
  %19 = shl i64 %15, 31
  %20 = add i64 %19, 4294967296
  %21 = ashr exact i64 %20, 31
  %22 = and i64 %21, -2
  %23 = load ptr, ptr %1, align 8, !tbaa !37
  %24 = getelementptr inbounds ptr, ptr %23, i64 2
  %25 = load ptr, ptr %24, align 8
  %26 = tail call noundef ptr %25(ptr noundef nonnull align 8 dereferenceable(8) %1, i64 noundef %22)
  br label %27

27:                                               ; preds = %32, %18
  %28 = phi ptr [ %26, %18 ], [ %34, %32 ]
  %29 = phi ptr [ %0, %18 ], [ %35, %32 ]
  %30 = load i16, ptr %29, align 2, !tbaa !39
  switch i16 %30, label %31 [
    i16 0, label %36
    i16 13, label %32
    i16 10, label %32
    i16 9, label %32
  ]

31:                                               ; preds = %27
  br label %32

32:                                               ; preds = %27, %27, %27, %31
  %33 = phi i16 [ %30, %31 ], [ 32, %27 ], [ 32, %27 ], [ 32, %27 ]
  store i16 %33, ptr %28, align 2, !tbaa !39
  %34 = getelementptr inbounds i16, ptr %28, i64 1
  %35 = getelementptr inbounds i16, ptr %29, i64 1
  br label %27

36:                                               ; preds = %27
  %37 = ashr i64 %19, 32
  %38 = getelementptr inbounds i16, ptr %26, i64 %37
  store i16 0, ptr %38, align 2, !tbaa !39
  tail call void @llvm.memcpy.p0.p0.i64(ptr nonnull align 2 %0, ptr align 2 %26, i64 %16, i1 false)
  %39 = load ptr, ptr %1, align 8, !tbaa !37
  %40 = getelementptr inbounds ptr, ptr %39, i64 3
  %41 = load ptr, ptr %40, align 8
  tail call void %41(ptr noundef nonnull align 8 dereferenceable(8) %1, ptr noundef %26)
  br label %42

42:                                               ; preds = %2, %4, %12, %36
  ret void
}

; Function Attrs: nofree norecurse nosync nounwind memory(read, inaccessiblemem: none) uwtable
define dso_local noundef zeroext i1 @_ZN11xercesc_2_59XMLString13isWSCollapsedEPKt(ptr noundef %0) local_unnamed_addr #14 align 2 {
  %2 = icmp eq ptr %0, null
  br i1 %2, label %41, label %3

3:                                                ; preds = %1
  %4 = load i16, ptr %0, align 2, !tbaa !39
  %5 = icmp eq i16 %4, 0
  br i1 %5, label %41, label %6

6:                                                ; preds = %3, %9
  %7 = phi i16 [ %11, %9 ], [ %4, %3 ]
  %8 = phi ptr [ %10, %9 ], [ %0, %3 ]
  switch i16 %7, label %9 [
    i16 0, label %12
    i16 13, label %41
    i16 10, label %41
    i16 9, label %41
  ]

9:                                                ; preds = %6
  %10 = getelementptr inbounds i16, ptr %8, i64 1
  %11 = load i16, ptr %10, align 2, !tbaa !39
  br label %6

12:                                               ; preds = %6
  %13 = icmp eq i16 %4, 32
  br i1 %13, label %41, label %14

14:                                               ; preds = %12, %14
  %15 = phi ptr [ %16, %14 ], [ %0, %12 ]
  %16 = getelementptr inbounds i16, ptr %15, i64 1
  %17 = load i16, ptr %16, align 2, !tbaa !39
  %18 = icmp eq i16 %17, 0
  br i1 %18, label %19, label %14

19:                                               ; preds = %14
  %20 = ptrtoint ptr %16 to i64
  %21 = ptrtoint ptr %0 to i64
  %22 = sub i64 %20, %21
  %23 = lshr exact i64 %22, 1
  %24 = add nuw i64 %23, 4294967295
  %25 = and i64 %24, 4294967295
  %26 = getelementptr inbounds i16, ptr %0, i64 %25
  %27 = load i16, ptr %26, align 2, !tbaa !39
  %28 = icmp eq i16 %27, 32
  br i1 %28, label %41, label %33

29:                                               ; preds = %33
  %30 = getelementptr inbounds i16, ptr %36, i64 1
  %31 = load i16, ptr %30, align 2, !tbaa !39
  %32 = icmp eq i16 %31, 0
  br i1 %32, label %39, label %33

33:                                               ; preds = %19, %29
  %34 = phi i16 [ %31, %29 ], [ %4, %19 ]
  %35 = phi i1 [ %37, %29 ], [ false, %19 ]
  %36 = phi ptr [ %30, %29 ], [ %0, %19 ]
  %37 = icmp eq i16 %34, 32
  %38 = and i1 %35, %37
  br i1 %38, label %39, label %29

39:                                               ; preds = %33, %29
  %40 = xor i1 %38, true
  br label %41

41:                                               ; preds = %6, %6, %6, %39, %12, %19, %1, %3
  %42 = phi i1 [ true, %3 ], [ true, %1 ], [ false, %19 ], [ false, %12 ], [ %40, %39 ], [ false, %6 ], [ false, %6 ], [ false, %6 ]
  ret i1 %42
}

; Function Attrs: uwtable
define dso_local void @_ZN11xercesc_2_59XMLString10collapseWSEPtPNS_13MemoryManagerE(ptr noundef %0, ptr noundef %1) local_unnamed_addr #1 align 2 {
  %3 = icmp eq ptr %0, null
  br i1 %3, label %119, label %4

4:                                                ; preds = %2
  %5 = load i16, ptr %0, align 2, !tbaa !39
  %6 = icmp eq i16 %5, 0
  br i1 %6, label %119, label %7

7:                                                ; preds = %4, %7
  %8 = phi ptr [ %9, %7 ], [ %0, %4 ]
  %9 = getelementptr inbounds i16, ptr %8, i64 1
  %10 = load i16, ptr %9, align 2, !tbaa !39
  %11 = icmp eq i16 %10, 0
  br i1 %11, label %12, label %7

12:                                               ; preds = %7
  %13 = ptrtoint ptr %9 to i64
  %14 = ptrtoint ptr %0 to i64
  %15 = sub i64 %13, %14
  %16 = and i64 %15, 8589934590
  %17 = icmp eq i64 %16, 0
  br i1 %17, label %42, label %18

18:                                               ; preds = %12
  %19 = shl i64 %15, 31
  %20 = add i64 %19, 4294967296
  %21 = ashr exact i64 %20, 31
  %22 = and i64 %21, -2
  %23 = load ptr, ptr %1, align 8, !tbaa !37
  %24 = getelementptr inbounds ptr, ptr %23, i64 2
  %25 = load ptr, ptr %24, align 8
  %26 = tail call noundef ptr %25(ptr noundef nonnull align 8 dereferenceable(8) %1, i64 noundef %22)
  br label %27

27:                                               ; preds = %32, %18
  %28 = phi ptr [ %26, %18 ], [ %34, %32 ]
  %29 = phi ptr [ %0, %18 ], [ %35, %32 ]
  %30 = load i16, ptr %29, align 2, !tbaa !39
  switch i16 %30, label %31 [
    i16 0, label %36
    i16 13, label %32
    i16 10, label %32
    i16 9, label %32
  ]

31:                                               ; preds = %27
  br label %32

32:                                               ; preds = %31, %27, %27, %27
  %33 = phi i16 [ %30, %31 ], [ 32, %27 ], [ 32, %27 ], [ 32, %27 ]
  store i16 %33, ptr %28, align 2, !tbaa !39
  %34 = getelementptr inbounds i16, ptr %28, i64 1
  %35 = getelementptr inbounds i16, ptr %29, i64 1
  br label %27

36:                                               ; preds = %27
  %37 = ashr i64 %19, 32
  %38 = getelementptr inbounds i16, ptr %26, i64 %37
  store i16 0, ptr %38, align 2, !tbaa !39
  tail call void @llvm.memcpy.p0.p0.i64(ptr nonnull align 2 %0, ptr align 2 %26, i64 %16, i1 false)
  %39 = load ptr, ptr %1, align 8, !tbaa !37
  %40 = getelementptr inbounds ptr, ptr %39, i64 3
  %41 = load ptr, ptr %40, align 8
  tail call void %41(ptr noundef nonnull align 8 dereferenceable(8) %1, ptr noundef %26)
  br label %42

42:                                               ; preds = %12, %36
  br label %43

43:                                               ; preds = %42, %46
  %44 = phi ptr [ %47, %46 ], [ %0, %42 ]
  %45 = load i16, ptr %44, align 2, !tbaa !39
  switch i16 %45, label %48 [
    i16 32, label %46
    i16 0, label %119
  ]

46:                                               ; preds = %43
  %47 = getelementptr inbounds i16, ptr %44, i64 1
  br label %43

48:                                               ; preds = %43
  %49 = load i16, ptr %0, align 2, !tbaa !39
  %50 = icmp eq i16 %49, 0
  br i1 %50, label %61, label %51

51:                                               ; preds = %48, %51
  %52 = phi ptr [ %53, %51 ], [ %0, %48 ]
  %53 = getelementptr inbounds i16, ptr %52, i64 1
  %54 = load i16, ptr %53, align 2, !tbaa !39
  %55 = icmp eq i16 %54, 0
  br i1 %55, label %56, label %51

56:                                               ; preds = %51
  %57 = ptrtoint ptr %53 to i64
  %58 = sub i64 %57, %14
  %59 = lshr exact i64 %58, 1
  %60 = and i64 %59, 4294967295
  br label %61

61:                                               ; preds = %48, %56
  %62 = phi i64 [ %60, %56 ], [ 0, %48 ]
  %63 = getelementptr inbounds i16, ptr %0, i64 %62
  br label %64

64:                                               ; preds = %64, %61
  %65 = phi ptr [ %63, %61 ], [ %66, %64 ]
  %66 = getelementptr inbounds i16, ptr %65, i64 -1
  %67 = load i16, ptr %66, align 2, !tbaa !39
  %68 = icmp eq i16 %67, 32
  br i1 %68, label %64, label %69

69:                                               ; preds = %64
  %70 = ptrtoint ptr %65 to i64
  %71 = ptrtoint ptr %44 to i64
  %72 = sub i64 %70, %71
  %73 = add i64 %72, 2
  %74 = load ptr, ptr %1, align 8, !tbaa !37
  %75 = getelementptr inbounds ptr, ptr %74, i64 2
  %76 = load ptr, ptr %75, align 8
  %77 = tail call noundef ptr %76(ptr noundef nonnull align 8 dereferenceable(8) %1, i64 noundef %73)
  %78 = icmp ult ptr %44, %65
  br i1 %78, label %79, label %97

79:                                               ; preds = %69, %92
  %80 = phi i8 [ %94, %92 ], [ 0, %69 ]
  %81 = phi ptr [ %93, %92 ], [ %77, %69 ]
  %82 = phi ptr [ %95, %92 ], [ %44, %69 ]
  %83 = load i16, ptr %82, align 2, !tbaa !39
  %84 = icmp eq i16 %83, 32
  br i1 %84, label %85, label %88

85:                                               ; preds = %79
  %86 = and i8 %80, 1
  %87 = icmp eq i8 %86, 0
  br i1 %87, label %88, label %92

88:                                               ; preds = %79, %85
  %89 = phi i16 [ 32, %85 ], [ %83, %79 ]
  %90 = phi i8 [ 1, %85 ], [ 0, %79 ]
  store i16 %89, ptr %81, align 2, !tbaa !39
  %91 = getelementptr inbounds i16, ptr %81, i64 1
  br label %92

92:                                               ; preds = %88, %85
  %93 = phi ptr [ %81, %85 ], [ %91, %88 ]
  %94 = phi i8 [ %80, %85 ], [ %90, %88 ]
  %95 = getelementptr inbounds i16, ptr %82, i64 1
  %96 = icmp ult ptr %95, %65
  br i1 %96, label %79, label %97

97:                                               ; preds = %92, %69
  %98 = phi ptr [ %77, %69 ], [ %93, %92 ]
  store i16 0, ptr %98, align 2, !tbaa !39
  %99 = icmp eq ptr %77, null
  br i1 %99, label %114, label %100

100:                                              ; preds = %97
  %101 = load i16, ptr %77, align 2, !tbaa !39
  %102 = icmp eq i16 %101, 0
  br i1 %102, label %114, label %103

103:                                              ; preds = %100, %103
  %104 = phi ptr [ %105, %103 ], [ %77, %100 ]
  %105 = getelementptr inbounds i16, ptr %104, i64 1
  %106 = load i16, ptr %105, align 2, !tbaa !39
  %107 = icmp eq i16 %106, 0
  br i1 %107, label %108, label %103

108:                                              ; preds = %103
  %109 = ptrtoint ptr %105 to i64
  %110 = ptrtoint ptr %77 to i64
  %111 = sub i64 %109, %110
  %112 = add i64 %111, 2
  %113 = and i64 %112, 8589934590
  br label %114

114:                                              ; preds = %97, %100, %108
  %115 = phi i64 [ %113, %108 ], [ 2, %100 ], [ 2, %97 ]
  tail call void @llvm.memcpy.p0.p0.i64(ptr nonnull align 2 %0, ptr align 2 %77, i64 %115, i1 false)
  %116 = load ptr, ptr %1, align 8, !tbaa !37
  %117 = getelementptr inbounds ptr, ptr %116, i64 3
  %118 = load ptr, ptr %117, align 8
  tail call void %118(ptr noundef nonnull align 8 dereferenceable(8) %1, ptr noundef %77)
  br label %119

119:                                              ; preds = %43, %114, %2, %4
  ret void
}

; Function Attrs: uwtable
define dso_local void @_ZN11xercesc_2_59XMLString8removeWSEPtPNS_13MemoryManagerE(ptr noundef %0, ptr noundef %1) local_unnamed_addr #1 align 2 {
  %3 = icmp eq ptr %0, null
  br i1 %3, label %52, label %4

4:                                                ; preds = %2
  %5 = load i16, ptr %0, align 2, !tbaa !39
  %6 = icmp eq i16 %5, 0
  br i1 %6, label %52, label %7

7:                                                ; preds = %4, %7
  %8 = phi ptr [ %9, %7 ], [ %0, %4 ]
  %9 = getelementptr inbounds i16, ptr %8, i64 1
  %10 = load i16, ptr %9, align 2, !tbaa !39
  %11 = icmp eq i16 %10, 0
  br i1 %11, label %12, label %7

12:                                               ; preds = %7
  %13 = ptrtoint ptr %9 to i64
  %14 = ptrtoint ptr %0 to i64
  %15 = sub i64 %13, %14
  %16 = add i64 %15, 2
  %17 = and i64 %16, 8589934590
  %18 = load ptr, ptr %1, align 8, !tbaa !37
  %19 = getelementptr inbounds ptr, ptr %18, i64 2
  %20 = load ptr, ptr %19, align 8
  %21 = tail call noundef ptr %20(ptr noundef nonnull align 8 dereferenceable(8) %1, i64 noundef %17)
  br label %22

22:                                               ; preds = %28, %12
  %23 = phi ptr [ %21, %12 ], [ %29, %28 ]
  %24 = phi ptr [ %0, %12 ], [ %30, %28 ]
  %25 = load i16, ptr %24, align 2, !tbaa !39
  switch i16 %25, label %26 [
    i16 0, label %31
    i16 13, label %28
    i16 10, label %28
    i16 9, label %28
    i16 32, label %28
  ]

26:                                               ; preds = %22
  %27 = getelementptr inbounds i16, ptr %23, i64 1
  store i16 %25, ptr %23, align 2, !tbaa !39
  br label %28

28:                                               ; preds = %22, %22, %22, %22, %26
  %29 = phi ptr [ %27, %26 ], [ %23, %22 ], [ %23, %22 ], [ %23, %22 ], [ %23, %22 ]
  %30 = getelementptr inbounds i16, ptr %24, i64 1
  br label %22

31:                                               ; preds = %22
  store i16 0, ptr %23, align 2, !tbaa !39
  %32 = icmp eq ptr %21, null
  br i1 %32, label %47, label %33

33:                                               ; preds = %31
  %34 = load i16, ptr %21, align 2, !tbaa !39
  %35 = icmp eq i16 %34, 0
  br i1 %35, label %47, label %36

36:                                               ; preds = %33, %36
  %37 = phi ptr [ %38, %36 ], [ %21, %33 ]
  %38 = getelementptr inbounds i16, ptr %37, i64 1
  %39 = load i16, ptr %38, align 2, !tbaa !39
  %40 = icmp eq i16 %39, 0
  br i1 %40, label %41, label %36

41:                                               ; preds = %36
  %42 = ptrtoint ptr %38 to i64
  %43 = ptrtoint ptr %21 to i64
  %44 = sub i64 %42, %43
  %45 = add i64 %44, 2
  %46 = and i64 %45, 8589934590
  br label %47

47:                                               ; preds = %31, %33, %41
  %48 = phi i64 [ %46, %41 ], [ 2, %33 ], [ 2, %31 ]
  tail call void @llvm.memcpy.p0.p0.i64(ptr nonnull align 2 %0, ptr align 2 %21, i64 %48, i1 false)
  %49 = load ptr, ptr %1, align 8, !tbaa !37
  %50 = getelementptr inbounds ptr, ptr %49, i64 3
  %51 = load ptr, ptr %50, align 8
  tail call void %51(ptr noundef nonnull align 8 dereferenceable(8) %1, ptr noundef %21)
  br label %52

52:                                               ; preds = %2, %4, %47
  ret void
}

; Function Attrs: nofree norecurse nosync nounwind memory(readwrite, inaccessiblemem: none) uwtable
define dso_local void @_ZN11xercesc_2_59XMLString6fixURIEPKtPt(ptr noundef %0, ptr nocapture noundef writeonly %1) local_unnamed_addr #8 align 2 {
  %3 = icmp eq ptr %0, null
  br i1 %3, label %97, label %4

4:                                                ; preds = %2
  %5 = load i16, ptr %0, align 2, !tbaa !39
  %6 = icmp eq i16 %5, 0
  br i1 %6, label %97, label %7

7:                                                ; preds = %4, %11
  %8 = phi i16 [ %13, %11 ], [ %5, %4 ]
  %9 = phi ptr [ %12, %11 ], [ %0, %4 ]
  %10 = icmp eq i16 %8, 58
  br i1 %10, label %15, label %11

11:                                               ; preds = %7
  %12 = getelementptr inbounds i16, ptr %9, i64 1
  %13 = load i16, ptr %12, align 2, !tbaa !39
  %14 = icmp eq i16 %13, 0
  br i1 %14, label %21, label %7

15:                                               ; preds = %7
  %16 = ptrtoint ptr %9 to i64
  %17 = ptrtoint ptr %0 to i64
  %18 = sub i64 %16, %17
  %19 = lshr exact i64 %18, 1
  %20 = trunc i64 %19 to i32
  switch i32 %20, label %22 [
    i32 -1, label %21
    i32 1, label %61
  ]

21:                                               ; preds = %11, %15
  br label %23

22:                                               ; preds = %27, %31, %61, %15
  br label %87

23:                                               ; preds = %21, %27
  %24 = phi i16 [ %29, %27 ], [ %5, %21 ]
  %25 = phi ptr [ %28, %27 ], [ %0, %21 ]
  %26 = icmp eq i16 %24, 47
  br i1 %26, label %31, label %27

27:                                               ; preds = %23
  %28 = getelementptr inbounds i16, ptr %25, i64 1
  %29 = load i16, ptr %28, align 2, !tbaa !39
  %30 = icmp eq i16 %29, 0
  br i1 %30, label %22, label %23

31:                                               ; preds = %23
  %32 = ptrtoint ptr %25 to i64
  %33 = ptrtoint ptr %0 to i64
  %34 = sub i64 %32, %33
  %35 = and i64 %34, 8589934590
  %36 = icmp eq i64 %35, 0
  br i1 %36, label %37, label %22

37:                                               ; preds = %31
  store i16 102, ptr %1, align 2, !tbaa !39
  %38 = getelementptr inbounds i16, ptr %1, i64 1
  store i16 105, ptr %38, align 2, !tbaa !39
  %39 = getelementptr inbounds i16, ptr %1, i64 2
  store i16 108, ptr %39, align 2, !tbaa !39
  %40 = getelementptr inbounds i16, ptr %1, i64 3
  store i16 101, ptr %40, align 2, !tbaa !39
  %41 = getelementptr inbounds i16, ptr %1, i64 4
  store i16 58, ptr %41, align 2, !tbaa !39
  %42 = getelementptr inbounds i16, ptr %1, i64 5
  store i16 47, ptr %42, align 2, !tbaa !39
  %43 = getelementptr inbounds i16, ptr %1, i64 6
  store i16 47, ptr %43, align 2, !tbaa !39
  %44 = load i16, ptr %0, align 2, !tbaa !39
  %45 = icmp eq i16 %44, 0
  br i1 %45, label %58, label %46

46:                                               ; preds = %37, %46
  %47 = phi i16 [ %54, %46 ], [ %44, %37 ]
  %48 = phi ptr [ %50, %46 ], [ %0, %37 ]
  %49 = phi i32 [ %51, %46 ], [ 7, %37 ]
  %50 = getelementptr inbounds i16, ptr %48, i64 1
  %51 = add i32 %49, 1
  %52 = zext i32 %49 to i64
  %53 = getelementptr inbounds i16, ptr %1, i64 %52
  store i16 %47, ptr %53, align 2, !tbaa !39
  %54 = load i16, ptr %50, align 2, !tbaa !39
  %55 = icmp eq i16 %54, 0
  br i1 %55, label %56, label %46

56:                                               ; preds = %46
  %57 = zext i32 %51 to i64
  br label %58

58:                                               ; preds = %56, %37
  %59 = phi i64 [ 7, %37 ], [ %57, %56 ]
  %60 = getelementptr inbounds i16, ptr %1, i64 %59
  br label %95

61:                                               ; preds = %15
  %62 = and i16 %5, -33
  %63 = add i16 %62, -65
  %64 = icmp ult i16 %63, 26
  br i1 %64, label %65, label %22

65:                                               ; preds = %61
  store i16 102, ptr %1, align 2, !tbaa !39
  %66 = getelementptr inbounds i16, ptr %1, i64 1
  store i16 105, ptr %66, align 2, !tbaa !39
  %67 = getelementptr inbounds i16, ptr %1, i64 2
  store i16 108, ptr %67, align 2, !tbaa !39
  %68 = getelementptr inbounds i16, ptr %1, i64 3
  store i16 101, ptr %68, align 2, !tbaa !39
  %69 = getelementptr inbounds i16, ptr %1, i64 4
  store i16 58, ptr %69, align 2, !tbaa !39
  %70 = getelementptr inbounds i16, ptr %1, i64 5
  store i16 47, ptr %70, align 2, !tbaa !39
  %71 = getelementptr inbounds i16, ptr %1, i64 6
  store i16 47, ptr %71, align 2, !tbaa !39
  %72 = getelementptr inbounds i16, ptr %1, i64 7
  store i16 47, ptr %72, align 2, !tbaa !39
  br label %73

73:                                               ; preds = %78, %65
  %74 = phi i32 [ 8, %65 ], [ %82, %78 ]
  %75 = phi ptr [ %0, %65 ], [ %83, %78 ]
  %76 = load i16, ptr %75, align 2, !tbaa !39
  switch i16 %76, label %77 [
    i16 0, label %84
    i16 165, label %78
    i16 8361, label %78
    i16 92, label %78
  ]

77:                                               ; preds = %73
  br label %78

78:                                               ; preds = %73, %73, %73, %77
  %79 = phi i16 [ %76, %77 ], [ 47, %73 ], [ 47, %73 ], [ 47, %73 ]
  %80 = zext i32 %74 to i64
  %81 = getelementptr inbounds i16, ptr %1, i64 %80
  store i16 %79, ptr %81, align 2, !tbaa !39
  %82 = add i32 %74, 1
  %83 = getelementptr inbounds i16, ptr %75, i64 1
  br label %73

84:                                               ; preds = %73
  %85 = zext i32 %74 to i64
  %86 = getelementptr inbounds i16, ptr %1, i64 %85
  br label %95

87:                                               ; preds = %22, %87
  %88 = phi i16 [ %93, %87 ], [ %5, %22 ]
  %89 = phi ptr [ %91, %87 ], [ %0, %22 ]
  %90 = phi ptr [ %92, %87 ], [ %1, %22 ]
  %91 = getelementptr inbounds i16, ptr %89, i64 1
  %92 = getelementptr inbounds i16, ptr %90, i64 1
  store i16 %88, ptr %90, align 2, !tbaa !39
  %93 = load i16, ptr %91, align 2, !tbaa !39
  %94 = icmp eq i16 %93, 0
  br i1 %94, label %95, label %87

95:                                               ; preds = %87, %84, %58
  %96 = phi ptr [ %60, %58 ], [ %86, %84 ], [ %92, %87 ]
  store i16 0, ptr %96, align 2, !tbaa !39
  br label %97

97:                                               ; preds = %95, %2, %4
  ret void
}

; Function Attrs: nounwind uwtable
define dso_local void @_ZN11xercesc_2_59XMLString7releaseEPPc(ptr nocapture noundef %0) local_unnamed_addr #21 align 2 {
  %2 = load ptr, ptr %0, align 8, !tbaa !45
  %3 = icmp eq ptr %2, null
  br i1 %3, label %5, label %4

4:                                                ; preds = %1
  tail call void @_ZdaPv(ptr noundef nonnull %2) #29
  br label %5

5:                                                ; preds = %4, %1
  store ptr null, ptr %0, align 8, !tbaa !45
  ret void
}

; Function Attrs: nobuiltin nounwind
declare void @_ZdaPv(ptr noundef) local_unnamed_addr #0

; Function Attrs: nounwind uwtable
define dso_local void @_ZN11xercesc_2_59XMLString7releaseEPPt(ptr nocapture noundef %0) local_unnamed_addr #21 align 2 {
  %2 = load ptr, ptr %0, align 8, !tbaa !45
  %3 = icmp eq ptr %2, null
  br i1 %3, label %5, label %4

4:                                                ; preds = %1
  tail call void @_ZdaPv(ptr noundef nonnull %2) #29
  br label %5

5:                                                ; preds = %4, %1
  store ptr null, ptr %0, align 8, !tbaa !45
  ret void
}

; Function Attrs: nounwind uwtable
define dso_local void @_ZN11xercesc_2_59XMLString7releaseEPPh(ptr nocapture noundef %0) local_unnamed_addr #21 align 2 {
  %2 = load ptr, ptr %0, align 8, !tbaa !45
  %3 = icmp eq ptr %2, null
  br i1 %3, label %5, label %4

4:                                                ; preds = %1
  tail call void @_ZdaPv(ptr noundef nonnull %2) #29
  br label %5

5:                                                ; preds = %4, %1
  store ptr null, ptr %0, align 8, !tbaa !45
  ret void
}

; Function Attrs: mustprogress nofree norecurse nosync nounwind willreturn memory(write, argmem: none, inaccessiblemem: none) uwtable
define dso_local void @_ZN11xercesc_2_59XMLString10initStringEPNS_16XMLLCPTranscoderEPNS_13MemoryManagerE(ptr noundef %0, ptr noundef %1) local_unnamed_addr #22 align 2 {
  store ptr %0, ptr @_ZN11xercesc_2_5L11gTranscoderE, align 8, !tbaa !45
  store ptr %1, ptr @_ZN11xercesc_2_59XMLString15fgMemoryManagerE, align 8, !tbaa !45
  ret void
}

; Function Attrs: uwtable
define dso_local void @_ZN11xercesc_2_59XMLString10termStringEv() local_unnamed_addr #1 align 2 {
  %1 = load ptr, ptr @_ZN11xercesc_2_5L11gTranscoderE, align 8, !tbaa !45
  %2 = icmp eq ptr %1, null
  br i1 %2, label %7, label %3

3:                                                ; preds = %0
  %4 = load ptr, ptr %1, align 8, !tbaa !37
  %5 = getelementptr inbounds ptr, ptr %4, i64 1
  %6 = load ptr, ptr %5, align 8
  tail call void %6(ptr noundef nonnull align 8 dereferenceable(8) %1)
  br label %7

7:                                                ; preds = %3, %0
  store ptr null, ptr @_ZN11xercesc_2_5L11gTranscoderE, align 8, !tbaa !45
  store ptr null, ptr @_ZN11xercesc_2_59XMLString15fgMemoryManagerE, align 8, !tbaa !45
  ret void
}

declare void @_ZN11xercesc_2_512XMLExceptionC2EPKcjPNS_13MemoryManagerE(ptr noundef nonnull align 8 dereferenceable(48), ptr noundef, i32 noundef, ptr noundef) unnamed_addr #5

declare void @_ZN11xercesc_2_512XMLException14loadExceptTextENS_10XMLExcepts5CodesE(ptr noundef nonnull align 8 dereferenceable(48), i32 noundef) local_unnamed_addr #5

; Function Attrs: uwtable
define linkonce_odr dso_local void @_ZN11xercesc_2_524IllegalArgumentExceptionD0Ev(ptr noundef nonnull align 8 dereferenceable(48) %0) unnamed_addr #1 comdat align 2 personality ptr @__gxx_personality_v0 {
  invoke void @_ZN11xercesc_2_512XMLExceptionD2Ev(ptr noundef nonnull align 8 dereferenceable(48) %0)
          to label %2 unwind label %3

2:                                                ; preds = %1
  tail call void @_ZN11xercesc_2_57XMemorydlEPv(ptr noundef nonnull %0)
  ret void

3:                                                ; preds = %1
  %4 = landingpad { ptr, i32 }
          cleanup
  invoke void @_ZN11xercesc_2_57XMemorydlEPv(ptr noundef nonnull %0)
          to label %5 unwind label %6

5:                                                ; preds = %3
  resume { ptr, i32 } %4

6:                                                ; preds = %3
  %7 = landingpad { ptr, i32 }
          catch ptr null
  %8 = extractvalue { ptr, i32 } %7, 0
  tail call void @__clang_call_terminate(ptr %8) #27
  unreachable
}

; Function Attrs: nounwind uwtable
define linkonce_odr dso_local noundef ptr @_ZNK11xercesc_2_524IllegalArgumentException7getTypeEv(ptr noundef nonnull align 8 dereferenceable(48) %0) unnamed_addr #21 comdat align 2 {
  ret ptr @_ZN11xercesc_2_56XMLUni31fgIllegalArgumentException_NameE
}

; Function Attrs: uwtable
define linkonce_odr dso_local noundef ptr @_ZNK11xercesc_2_524IllegalArgumentException9duplicateEv(ptr noundef nonnull align 8 dereferenceable(48) %0) unnamed_addr #1 comdat align 2 personality ptr @__gxx_personality_v0 {
  %2 = getelementptr inbounds %"class.xercesc_2_5::XMLException", ptr %0, i64 0, i32 5
  %3 = load ptr, ptr %2, align 8, !tbaa !58
  %4 = tail call noundef ptr @_ZN11xercesc_2_57XMemorynwEmPNS_13MemoryManagerE(i64 noundef 48, ptr noundef %3)
  invoke void @_ZN11xercesc_2_512XMLExceptionC2ERKS0_(ptr noundef nonnull align 8 dereferenceable(48) %4, ptr noundef nonnull align 8 dereferenceable(48) %0)
          to label %5 unwind label %6

5:                                                ; preds = %1
  store ptr getelementptr inbounds ({ [6 x ptr] }, ptr @_ZTVN11xercesc_2_524IllegalArgumentExceptionE, i64 0, inrange i32 0, i64 2), ptr %4, align 8, !tbaa !37
  ret ptr %4

6:                                                ; preds = %1
  %7 = landingpad { ptr, i32 }
          cleanup
  invoke void @_ZN11xercesc_2_57XMemorydlEPvPNS_13MemoryManagerE(ptr noundef %4, ptr noundef %3)
          to label %8 unwind label %9

8:                                                ; preds = %6
  resume { ptr, i32 } %7

9:                                                ; preds = %6
  %10 = landingpad { ptr, i32 }
          catch ptr null
  %11 = extractvalue { ptr, i32 } %10, 0
  tail call void @__clang_call_terminate(ptr %11) #27
  unreachable
}

declare void @_ZN11xercesc_2_57XMemorydlEPv(ptr noundef) local_unnamed_addr #5

declare void @_ZN11xercesc_2_512XMLExceptionC2ERKS0_(ptr noundef nonnull align 8 dereferenceable(48), ptr noundef nonnull align 8 dereferenceable(48)) unnamed_addr #5

; Function Attrs: uwtable
define linkonce_odr dso_local void @_ZN11xercesc_2_516RuntimeExceptionD0Ev(ptr noundef nonnull align 8 dereferenceable(48) %0) unnamed_addr #1 comdat align 2 personality ptr @__gxx_personality_v0 {
  invoke void @_ZN11xercesc_2_512XMLExceptionD2Ev(ptr noundef nonnull align 8 dereferenceable(48) %0)
          to label %2 unwind label %3

2:                                                ; preds = %1
  tail call void @_ZN11xercesc_2_57XMemorydlEPv(ptr noundef nonnull %0)
  ret void

3:                                                ; preds = %1
  %4 = landingpad { ptr, i32 }
          cleanup
  invoke void @_ZN11xercesc_2_57XMemorydlEPv(ptr noundef nonnull %0)
          to label %5 unwind label %6

5:                                                ; preds = %3
  resume { ptr, i32 } %4

6:                                                ; preds = %3
  %7 = landingpad { ptr, i32 }
          catch ptr null
  %8 = extractvalue { ptr, i32 } %7, 0
  tail call void @__clang_call_terminate(ptr %8) #27
  unreachable
}

; Function Attrs: nounwind uwtable
define linkonce_odr dso_local noundef ptr @_ZNK11xercesc_2_516RuntimeException7getTypeEv(ptr noundef nonnull align 8 dereferenceable(48) %0) unnamed_addr #21 comdat align 2 {
  ret ptr @_ZN11xercesc_2_56XMLUni23fgRuntimeException_NameE
}

; Function Attrs: uwtable
define linkonce_odr dso_local noundef ptr @_ZNK11xercesc_2_516RuntimeException9duplicateEv(ptr noundef nonnull align 8 dereferenceable(48) %0) unnamed_addr #1 comdat align 2 personality ptr @__gxx_personality_v0 {
  %2 = getelementptr inbounds %"class.xercesc_2_5::XMLException", ptr %0, i64 0, i32 5
  %3 = load ptr, ptr %2, align 8, !tbaa !58
  %4 = tail call noundef ptr @_ZN11xercesc_2_57XMemorynwEmPNS_13MemoryManagerE(i64 noundef 48, ptr noundef %3)
  invoke void @_ZN11xercesc_2_512XMLExceptionC2ERKS0_(ptr noundef nonnull align 8 dereferenceable(48) %4, ptr noundef nonnull align 8 dereferenceable(48) %0)
          to label %5 unwind label %6

5:                                                ; preds = %1
  store ptr getelementptr inbounds ({ [6 x ptr] }, ptr @_ZTVN11xercesc_2_516RuntimeExceptionE, i64 0, inrange i32 0, i64 2), ptr %4, align 8, !tbaa !37
  ret ptr %4

6:                                                ; preds = %1
  %7 = landingpad { ptr, i32 }
          cleanup
  invoke void @_ZN11xercesc_2_57XMemorydlEPvPNS_13MemoryManagerE(ptr noundef %4, ptr noundef %3)
          to label %8 unwind label %9

8:                                                ; preds = %6
  resume { ptr, i32 } %7

9:                                                ; preds = %6
  %10 = landingpad { ptr, i32 }
          catch ptr null
  %11 = extractvalue { ptr, i32 } %10, 0
  tail call void @__clang_call_terminate(ptr %11) #27
  unreachable
}

; Function Attrs: uwtable
define linkonce_odr dso_local void @_ZN11xercesc_2_530ArrayIndexOutOfBoundsExceptionD0Ev(ptr noundef nonnull align 8 dereferenceable(48) %0) unnamed_addr #1 comdat align 2 personality ptr @__gxx_personality_v0 {
  invoke void @_ZN11xercesc_2_512XMLExceptionD2Ev(ptr noundef nonnull align 8 dereferenceable(48) %0)
          to label %2 unwind label %3

2:                                                ; preds = %1
  tail call void @_ZN11xercesc_2_57XMemorydlEPv(ptr noundef nonnull %0)
  ret void

3:                                                ; preds = %1
  %4 = landingpad { ptr, i32 }
          cleanup
  invoke void @_ZN11xercesc_2_57XMemorydlEPv(ptr noundef nonnull %0)
          to label %5 unwind label %6

5:                                                ; preds = %3
  resume { ptr, i32 } %4

6:                                                ; preds = %3
  %7 = landingpad { ptr, i32 }
          catch ptr null
  %8 = extractvalue { ptr, i32 } %7, 0
  tail call void @__clang_call_terminate(ptr %8) #27
  unreachable
}

; Function Attrs: nounwind uwtable
define linkonce_odr dso_local noundef ptr @_ZNK11xercesc_2_530ArrayIndexOutOfBoundsException7getTypeEv(ptr noundef nonnull align 8 dereferenceable(48) %0) unnamed_addr #21 comdat align 2 {
  ret ptr @_ZN11xercesc_2_56XMLUni37fgArrayIndexOutOfBoundsException_NameE
}

; Function Attrs: uwtable
define linkonce_odr dso_local noundef ptr @_ZNK11xercesc_2_530ArrayIndexOutOfBoundsException9duplicateEv(ptr noundef nonnull align 8 dereferenceable(48) %0) unnamed_addr #1 comdat align 2 personality ptr @__gxx_personality_v0 {
  %2 = getelementptr inbounds %"class.xercesc_2_5::XMLException", ptr %0, i64 0, i32 5
  %3 = load ptr, ptr %2, align 8, !tbaa !58
  %4 = tail call noundef ptr @_ZN11xercesc_2_57XMemorynwEmPNS_13MemoryManagerE(i64 noundef 48, ptr noundef %3)
  invoke void @_ZN11xercesc_2_512XMLExceptionC2ERKS0_(ptr noundef nonnull align 8 dereferenceable(48) %4, ptr noundef nonnull align 8 dereferenceable(48) %0)
          to label %5 unwind label %6

5:                                                ; preds = %1
  store ptr getelementptr inbounds ({ [6 x ptr] }, ptr @_ZTVN11xercesc_2_530ArrayIndexOutOfBoundsExceptionE, i64 0, inrange i32 0, i64 2), ptr %4, align 8, !tbaa !37
  ret ptr %4

6:                                                ; preds = %1
  %7 = landingpad { ptr, i32 }
          cleanup
  invoke void @_ZN11xercesc_2_57XMemorydlEPvPNS_13MemoryManagerE(ptr noundef %4, ptr noundef %3)
          to label %8 unwind label %9

8:                                                ; preds = %6
  resume { ptr, i32 } %7

9:                                                ; preds = %6
  %10 = landingpad { ptr, i32 }
          catch ptr null
  %11 = extractvalue { ptr, i32 } %10, 0
  tail call void @__clang_call_terminate(ptr %11) #27
  unreachable
}

; Function Attrs: uwtable
define linkonce_odr dso_local void @_ZN11xercesc_2_521NumberFormatExceptionD0Ev(ptr noundef nonnull align 8 dereferenceable(48) %0) unnamed_addr #1 comdat align 2 personality ptr @__gxx_personality_v0 {
  invoke void @_ZN11xercesc_2_512XMLExceptionD2Ev(ptr noundef nonnull align 8 dereferenceable(48) %0)
          to label %2 unwind label %3

2:                                                ; preds = %1
  tail call void @_ZN11xercesc_2_57XMemorydlEPv(ptr noundef nonnull %0)
  ret void

3:                                                ; preds = %1
  %4 = landingpad { ptr, i32 }
          cleanup
  invoke void @_ZN11xercesc_2_57XMemorydlEPv(ptr noundef nonnull %0)
          to label %5 unwind label %6

5:                                                ; preds = %3
  resume { ptr, i32 } %4

6:                                                ; preds = %3
  %7 = landingpad { ptr, i32 }
          catch ptr null
  %8 = extractvalue { ptr, i32 } %7, 0
  tail call void @__clang_call_terminate(ptr %8) #27
  unreachable
}

; Function Attrs: nounwind uwtable
define linkonce_odr dso_local noundef ptr @_ZNK11xercesc_2_521NumberFormatException7getTypeEv(ptr noundef nonnull align 8 dereferenceable(48) %0) unnamed_addr #21 comdat align 2 {
  ret ptr @_ZN11xercesc_2_56XMLUni28fgNumberFormatException_NameE
}

; Function Attrs: uwtable
define linkonce_odr dso_local noundef ptr @_ZNK11xercesc_2_521NumberFormatException9duplicateEv(ptr noundef nonnull align 8 dereferenceable(48) %0) unnamed_addr #1 comdat align 2 personality ptr @__gxx_personality_v0 {
  %2 = getelementptr inbounds %"class.xercesc_2_5::XMLException", ptr %0, i64 0, i32 5
  %3 = load ptr, ptr %2, align 8, !tbaa !58
  %4 = tail call noundef ptr @_ZN11xercesc_2_57XMemorynwEmPNS_13MemoryManagerE(i64 noundef 48, ptr noundef %3)
  invoke void @_ZN11xercesc_2_512XMLExceptionC2ERKS0_(ptr noundef nonnull align 8 dereferenceable(48) %4, ptr noundef nonnull align 8 dereferenceable(48) %0)
          to label %5 unwind label %6

5:                                                ; preds = %1
  store ptr getelementptr inbounds ({ [6 x ptr] }, ptr @_ZTVN11xercesc_2_521NumberFormatExceptionE, i64 0, inrange i32 0, i64 2), ptr %4, align 8, !tbaa !37
  ret ptr %4

6:                                                ; preds = %1
  %7 = landingpad { ptr, i32 }
          cleanup
  invoke void @_ZN11xercesc_2_57XMemorydlEPvPNS_13MemoryManagerE(ptr noundef %4, ptr noundef %3)
          to label %8 unwind label %9

8:                                                ; preds = %6
  resume { ptr, i32 } %7

9:                                                ; preds = %6
  %10 = landingpad { ptr, i32 }
          catch ptr null
  %11 = extractvalue { ptr, i32 } %10, 0
  tail call void @__clang_call_terminate(ptr %11) #27
  unreachable
}

; Function Attrs: uwtable
define linkonce_odr dso_local void @_ZN11xercesc_2_516RefArrayVectorOfItED2Ev(ptr noundef nonnull align 8 dereferenceable(40) %0) unnamed_addr #1 comdat align 2 personality ptr @__gxx_personality_v0 {
  store ptr getelementptr inbounds ({ [9 x ptr] }, ptr @_ZTVN11xercesc_2_516RefArrayVectorOfItEE, i64 0, inrange i32 0, i64 2), ptr %0, align 8, !tbaa !37
  %2 = getelementptr inbounds %"class.xercesc_2_5::BaseRefVectorOf", ptr %0, i64 0, i32 1
  %3 = load i8, ptr %2, align 8, !tbaa !51, !range !61, !noundef !62
  %4 = icmp eq i8 %3, 0
  br i1 %4, label %25, label %5

5:                                                ; preds = %1
  %6 = getelementptr inbounds %"class.xercesc_2_5::BaseRefVectorOf", ptr %0, i64 0, i32 2
  %7 = load i32, ptr %6, align 4, !tbaa !54
  %8 = icmp eq i32 %7, 0
  br i1 %8, label %25, label %9

9:                                                ; preds = %5
  %10 = getelementptr inbounds %"class.xercesc_2_5::BaseRefVectorOf", ptr %0, i64 0, i32 5
  %11 = getelementptr inbounds %"class.xercesc_2_5::BaseRefVectorOf", ptr %0, i64 0, i32 4
  br label %12

12:                                               ; preds = %9, %12
  %13 = phi i64 [ 0, %9 ], [ %21, %12 ]
  %14 = load ptr, ptr %10, align 8, !tbaa !57
  %15 = load ptr, ptr %11, align 8, !tbaa !56
  %16 = getelementptr inbounds ptr, ptr %15, i64 %13
  %17 = load ptr, ptr %16, align 8, !tbaa !45
  %18 = load ptr, ptr %14, align 8, !tbaa !37
  %19 = getelementptr inbounds ptr, ptr %18, i64 3
  %20 = load ptr, ptr %19, align 8
  tail call void %20(ptr noundef nonnull align 8 dereferenceable(8) %14, ptr noundef %17)
  %21 = add nuw nsw i64 %13, 1
  %22 = load i32, ptr %6, align 4, !tbaa !54
  %23 = zext i32 %22 to i64
  %24 = icmp ult i64 %21, %23
  br i1 %24, label %12, label %25

25:                                               ; preds = %12, %5, %1
  %26 = getelementptr inbounds %"class.xercesc_2_5::BaseRefVectorOf", ptr %0, i64 0, i32 5
  %27 = load ptr, ptr %26, align 8, !tbaa !57
  %28 = getelementptr inbounds %"class.xercesc_2_5::BaseRefVectorOf", ptr %0, i64 0, i32 4
  %29 = load ptr, ptr %28, align 8, !tbaa !56
  %30 = load ptr, ptr %27, align 8, !tbaa !37
  %31 = getelementptr inbounds ptr, ptr %30, i64 3
  %32 = load ptr, ptr %31, align 8
  tail call void %32(ptr noundef nonnull align 8 dereferenceable(8) %27, ptr noundef %29)
  ret void
}

; Function Attrs: uwtable
define linkonce_odr dso_local void @_ZN11xercesc_2_516RefArrayVectorOfItED0Ev(ptr noundef nonnull align 8 dereferenceable(40) %0) unnamed_addr #1 comdat align 2 personality ptr @__gxx_personality_v0 {
  store ptr getelementptr inbounds ({ [9 x ptr] }, ptr @_ZTVN11xercesc_2_516RefArrayVectorOfItEE, i64 0, inrange i32 0, i64 2), ptr %0, align 8, !tbaa !37
  %2 = getelementptr inbounds %"class.xercesc_2_5::BaseRefVectorOf", ptr %0, i64 0, i32 1
  %3 = load i8, ptr %2, align 8, !tbaa !51, !range !61, !noundef !62
  %4 = icmp eq i8 %3, 0
  br i1 %4, label %26, label %5

5:                                                ; preds = %1
  %6 = getelementptr inbounds %"class.xercesc_2_5::BaseRefVectorOf", ptr %0, i64 0, i32 2
  %7 = load i32, ptr %6, align 4, !tbaa !54
  %8 = icmp eq i32 %7, 0
  br i1 %8, label %26, label %9

9:                                                ; preds = %5
  %10 = getelementptr inbounds %"class.xercesc_2_5::BaseRefVectorOf", ptr %0, i64 0, i32 5
  %11 = getelementptr inbounds %"class.xercesc_2_5::BaseRefVectorOf", ptr %0, i64 0, i32 4
  br label %12

12:                                               ; preds = %21, %9
  %13 = phi i64 [ 0, %9 ], [ %22, %21 ]
  %14 = load ptr, ptr %10, align 8, !tbaa !57
  %15 = load ptr, ptr %11, align 8, !tbaa !56
  %16 = getelementptr inbounds ptr, ptr %15, i64 %13
  %17 = load ptr, ptr %16, align 8, !tbaa !45
  %18 = load ptr, ptr %14, align 8, !tbaa !37
  %19 = getelementptr inbounds ptr, ptr %18, i64 3
  %20 = load ptr, ptr %19, align 8
  invoke void %20(ptr noundef nonnull align 8 dereferenceable(8) %14, ptr noundef %17)
          to label %21 unwind label %35

21:                                               ; preds = %12
  %22 = add nuw nsw i64 %13, 1
  %23 = load i32, ptr %6, align 4, !tbaa !54
  %24 = zext i32 %23 to i64
  %25 = icmp ult i64 %22, %24
  br i1 %25, label %12, label %26

26:                                               ; preds = %21, %5, %1
  %27 = getelementptr inbounds %"class.xercesc_2_5::BaseRefVectorOf", ptr %0, i64 0, i32 5
  %28 = load ptr, ptr %27, align 8, !tbaa !57
  %29 = getelementptr inbounds %"class.xercesc_2_5::BaseRefVectorOf", ptr %0, i64 0, i32 4
  %30 = load ptr, ptr %29, align 8, !tbaa !56
  %31 = load ptr, ptr %28, align 8, !tbaa !37
  %32 = getelementptr inbounds ptr, ptr %31, i64 3
  %33 = load ptr, ptr %32, align 8
  invoke void %33(ptr noundef nonnull align 8 dereferenceable(8) %28, ptr noundef %30)
          to label %34 unwind label %37

34:                                               ; preds = %26
  tail call void @_ZN11xercesc_2_57XMemorydlEPv(ptr noundef nonnull %0)
  ret void

35:                                               ; preds = %12
  %36 = landingpad { ptr, i32 }
          cleanup
  br label %39

37:                                               ; preds = %26
  %38 = landingpad { ptr, i32 }
          cleanup
  br label %39

39:                                               ; preds = %37, %35
  %40 = phi { ptr, i32 } [ %36, %35 ], [ %38, %37 ]
  invoke void @_ZN11xercesc_2_57XMemorydlEPv(ptr noundef nonnull %0)
          to label %41 unwind label %42

41:                                               ; preds = %39
  resume { ptr, i32 } %40

42:                                               ; preds = %39
  %43 = landingpad { ptr, i32 }
          catch ptr null
  %44 = extractvalue { ptr, i32 } %43, 0
  tail call void @__clang_call_terminate(ptr %44) #27
  unreachable
}

; Function Attrs: uwtable
define linkonce_odr dso_local void @_ZN11xercesc_2_516RefArrayVectorOfItE12setElementAtEPtj(ptr noundef nonnull align 8 dereferenceable(40) %0, ptr noundef %1, i32 noundef %2) unnamed_addr #1 comdat align 2 personality ptr @__gxx_personality_v0 {
  %4 = getelementptr inbounds %"class.xercesc_2_5::BaseRefVectorOf", ptr %0, i64 0, i32 2
  %5 = load i32, ptr %4, align 4, !tbaa !54
  %6 = icmp ugt i32 %5, %2
  br i1 %6, label %14, label %7

7:                                                ; preds = %3
  %8 = tail call ptr @__cxa_allocate_exception(i64 48) #25
  %9 = getelementptr inbounds %"class.xercesc_2_5::BaseRefVectorOf", ptr %0, i64 0, i32 5
  %10 = load ptr, ptr %9, align 8, !tbaa !57
  invoke void @_ZN11xercesc_2_530ArrayIndexOutOfBoundsExceptionC2EPKcjNS_10XMLExcepts5CodesEPNS_13MemoryManagerE(ptr noundef nonnull align 8 dereferenceable(48) %8, ptr noundef nonnull @.str.2, i32 noundef 92, i32 noundef 109, ptr noundef %10)
          to label %11 unwind label %12

11:                                               ; preds = %7
  tail call void @__cxa_throw(ptr nonnull %8, ptr nonnull @_ZTIN11xercesc_2_530ArrayIndexOutOfBoundsExceptionE, ptr nonnull @_ZN11xercesc_2_512XMLExceptionD2Ev) #26
  unreachable

12:                                               ; preds = %7
  %13 = landingpad { ptr, i32 }
          cleanup
  tail call void @__cxa_free_exception(ptr %8) #25
  resume { ptr, i32 } %13

14:                                               ; preds = %3
  %15 = getelementptr inbounds %"class.xercesc_2_5::BaseRefVectorOf", ptr %0, i64 0, i32 1
  %16 = load i8, ptr %15, align 8, !tbaa !51, !range !61, !noundef !62
  %17 = icmp eq i8 %16, 0
  br i1 %17, label %18, label %20

18:                                               ; preds = %14
  %19 = zext i32 %2 to i64
  br label %31

20:                                               ; preds = %14
  %21 = getelementptr inbounds %"class.xercesc_2_5::BaseRefVectorOf", ptr %0, i64 0, i32 5
  %22 = load ptr, ptr %21, align 8, !tbaa !57
  %23 = getelementptr inbounds %"class.xercesc_2_5::BaseRefVectorOf", ptr %0, i64 0, i32 4
  %24 = load ptr, ptr %23, align 8, !tbaa !56
  %25 = zext i32 %2 to i64
  %26 = getelementptr inbounds ptr, ptr %24, i64 %25
  %27 = load ptr, ptr %26, align 8, !tbaa !45
  %28 = load ptr, ptr %22, align 8, !tbaa !37
  %29 = getelementptr inbounds ptr, ptr %28, i64 3
  %30 = load ptr, ptr %29, align 8
  tail call void %30(ptr noundef nonnull align 8 dereferenceable(8) %22, ptr noundef %27)
  br label %31

31:                                               ; preds = %18, %20
  %32 = phi i64 [ %19, %18 ], [ %25, %20 ]
  %33 = getelementptr inbounds %"class.xercesc_2_5::BaseRefVectorOf", ptr %0, i64 0, i32 4
  %34 = load ptr, ptr %33, align 8, !tbaa !56
  %35 = getelementptr inbounds ptr, ptr %34, i64 %32
  store ptr %1, ptr %35, align 8, !tbaa !45
  ret void
}

; Function Attrs: uwtable
define linkonce_odr dso_local void @_ZN11xercesc_2_516RefArrayVectorOfItE17removeAllElementsEv(ptr noundef nonnull align 8 dereferenceable(40) %0) unnamed_addr #1 comdat align 2 {
  %2 = getelementptr inbounds %"class.xercesc_2_5::BaseRefVectorOf", ptr %0, i64 0, i32 2
  %3 = load i32, ptr %2, align 4, !tbaa !54
  %4 = icmp eq i32 %3, 0
  br i1 %4, label %19, label %5

5:                                                ; preds = %1
  %6 = getelementptr inbounds %"class.xercesc_2_5::BaseRefVectorOf", ptr %0, i64 0, i32 1
  %7 = getelementptr inbounds %"class.xercesc_2_5::BaseRefVectorOf", ptr %0, i64 0, i32 5
  %8 = getelementptr inbounds %"class.xercesc_2_5::BaseRefVectorOf", ptr %0, i64 0, i32 4
  %9 = load i8, ptr %6, align 8, !tbaa !51, !range !61, !noundef !62
  %10 = icmp eq i8 %9, 0
  br i1 %10, label %11, label %22

11:                                               ; preds = %5
  %12 = zext i32 %3 to i64
  br label %13

13:                                               ; preds = %13, %11
  %14 = phi i64 [ %17, %13 ], [ 0, %11 ]
  %15 = load ptr, ptr %8, align 8, !tbaa !56
  %16 = getelementptr inbounds ptr, ptr %15, i64 %14
  store ptr null, ptr %16, align 8, !tbaa !45
  %17 = add nuw nsw i64 %14, 1
  %18 = icmp eq i64 %17, %12
  br i1 %18, label %19, label %13

19:                                               ; preds = %36, %13, %1
  store i32 0, ptr %2, align 4, !tbaa !54
  ret void

20:                                               ; preds = %36
  %21 = load i8, ptr %6, align 8, !tbaa !51
  br label %22

22:                                               ; preds = %5, %20
  %23 = phi i8 [ %21, %20 ], [ 1, %5 ]
  %24 = phi i32 [ %37, %20 ], [ %3, %5 ]
  %25 = phi i64 [ %40, %20 ], [ 0, %5 ]
  %26 = icmp eq i8 %23, 0
  br i1 %26, label %36, label %27

27:                                               ; preds = %22
  %28 = load ptr, ptr %7, align 8, !tbaa !57
  %29 = load ptr, ptr %8, align 8, !tbaa !56
  %30 = getelementptr inbounds ptr, ptr %29, i64 %25
  %31 = load ptr, ptr %30, align 8, !tbaa !45
  %32 = load ptr, ptr %28, align 8, !tbaa !37
  %33 = getelementptr inbounds ptr, ptr %32, i64 3
  %34 = load ptr, ptr %33, align 8
  tail call void %34(ptr noundef nonnull align 8 dereferenceable(8) %28, ptr noundef %31)
  %35 = load i32, ptr %2, align 4, !tbaa !54
  br label %36

36:                                               ; preds = %27, %22
  %37 = phi i32 [ %35, %27 ], [ %24, %22 ]
  %38 = load ptr, ptr %8, align 8, !tbaa !56
  %39 = getelementptr inbounds ptr, ptr %38, i64 %25
  store ptr null, ptr %39, align 8, !tbaa !45
  %40 = add nuw nsw i64 %25, 1
  %41 = zext i32 %37 to i64
  %42 = icmp ult i64 %40, %41
  br i1 %42, label %20, label %19, !llvm.loop !63
}

; Function Attrs: uwtable
define linkonce_odr dso_local void @_ZN11xercesc_2_516RefArrayVectorOfItE15removeElementAtEj(ptr noundef nonnull align 8 dereferenceable(40) %0, i32 noundef %1) unnamed_addr #1 comdat align 2 personality ptr @__gxx_personality_v0 {
  %3 = getelementptr inbounds %"class.xercesc_2_5::BaseRefVectorOf", ptr %0, i64 0, i32 2
  %4 = load i32, ptr %3, align 4, !tbaa !54
  %5 = icmp ugt i32 %4, %1
  br i1 %5, label %13, label %6

6:                                                ; preds = %2
  %7 = tail call ptr @__cxa_allocate_exception(i64 48) #25
  %8 = getelementptr inbounds %"class.xercesc_2_5::BaseRefVectorOf", ptr %0, i64 0, i32 5
  %9 = load ptr, ptr %8, align 8, !tbaa !57
  invoke void @_ZN11xercesc_2_530ArrayIndexOutOfBoundsExceptionC2EPKcjNS_10XMLExcepts5CodesEPNS_13MemoryManagerE(ptr noundef nonnull align 8 dereferenceable(48) %7, ptr noundef nonnull @.str.2, i32 noundef 117, i32 noundef 109, ptr noundef %9)
          to label %10 unwind label %11

10:                                               ; preds = %6
  tail call void @__cxa_throw(ptr nonnull %7, ptr nonnull @_ZTIN11xercesc_2_530ArrayIndexOutOfBoundsExceptionE, ptr nonnull @_ZN11xercesc_2_512XMLExceptionD2Ev) #26
  unreachable

11:                                               ; preds = %6
  %12 = landingpad { ptr, i32 }
          cleanup
  tail call void @__cxa_free_exception(ptr %7) #25
  resume { ptr, i32 } %12

13:                                               ; preds = %2
  %14 = getelementptr inbounds %"class.xercesc_2_5::BaseRefVectorOf", ptr %0, i64 0, i32 1
  %15 = load i8, ptr %14, align 8, !tbaa !51, !range !61, !noundef !62
  %16 = icmp eq i8 %15, 0
  br i1 %16, label %29, label %17

17:                                               ; preds = %13
  %18 = getelementptr inbounds %"class.xercesc_2_5::BaseRefVectorOf", ptr %0, i64 0, i32 5
  %19 = load ptr, ptr %18, align 8, !tbaa !57
  %20 = getelementptr inbounds %"class.xercesc_2_5::BaseRefVectorOf", ptr %0, i64 0, i32 4
  %21 = load ptr, ptr %20, align 8, !tbaa !56
  %22 = zext i32 %1 to i64
  %23 = getelementptr inbounds ptr, ptr %21, i64 %22
  %24 = load ptr, ptr %23, align 8, !tbaa !45
  %25 = load ptr, ptr %19, align 8, !tbaa !37
  %26 = getelementptr inbounds ptr, ptr %25, i64 3
  %27 = load ptr, ptr %26, align 8
  tail call void %27(ptr noundef nonnull align 8 dereferenceable(8) %19, ptr noundef %24)
  %28 = load i32, ptr %3, align 4, !tbaa !54
  br label %29

29:                                               ; preds = %17, %13
  %30 = phi i32 [ %28, %17 ], [ %4, %13 ]
  %31 = add i32 %30, -1
  %32 = icmp eq i32 %31, %1
  br i1 %32, label %41, label %33

33:                                               ; preds = %29
  %34 = icmp ugt i32 %31, %1
  br i1 %34, label %37, label %35

35:                                               ; preds = %33
  %36 = zext i32 %31 to i64
  br label %46

37:                                               ; preds = %33
  %38 = getelementptr inbounds %"class.xercesc_2_5::BaseRefVectorOf", ptr %0, i64 0, i32 4
  %39 = zext i32 %1 to i64
  %40 = zext i32 %31 to i64
  br label %51

41:                                               ; preds = %29
  %42 = getelementptr inbounds %"class.xercesc_2_5::BaseRefVectorOf", ptr %0, i64 0, i32 4
  %43 = load ptr, ptr %42, align 8, !tbaa !56
  %44 = zext i32 %1 to i64
  %45 = getelementptr inbounds ptr, ptr %43, i64 %44
  br label %59

46:                                               ; preds = %51, %35
  %47 = phi i64 [ %36, %35 ], [ %40, %51 ]
  %48 = getelementptr inbounds %"class.xercesc_2_5::BaseRefVectorOf", ptr %0, i64 0, i32 4
  %49 = load ptr, ptr %48, align 8, !tbaa !56
  %50 = getelementptr inbounds ptr, ptr %49, i64 %47
  br label %59

51:                                               ; preds = %37, %51
  %52 = phi i64 [ %39, %37 ], [ %54, %51 ]
  %53 = load ptr, ptr %38, align 8, !tbaa !56
  %54 = add nuw nsw i64 %52, 1
  %55 = getelementptr inbounds ptr, ptr %53, i64 %54
  %56 = load ptr, ptr %55, align 8, !tbaa !45
  %57 = getelementptr inbounds ptr, ptr %53, i64 %52
  store ptr %56, ptr %57, align 8, !tbaa !45
  %58 = icmp eq i64 %54, %40
  br i1 %58, label %46, label %51

59:                                               ; preds = %46, %41
  %60 = phi ptr [ %50, %46 ], [ %45, %41 ]
  store ptr null, ptr %60, align 8, !tbaa !45
  store i32 %31, ptr %3, align 4, !tbaa !54
  ret void
}

; Function Attrs: uwtable
define linkonce_odr dso_local void @_ZN11xercesc_2_516RefArrayVectorOfItE17removeLastElementEv(ptr noundef nonnull align 8 dereferenceable(40) %0) unnamed_addr #1 comdat align 2 {
  %2 = getelementptr inbounds %"class.xercesc_2_5::BaseRefVectorOf", ptr %0, i64 0, i32 2
  %3 = load i32, ptr %2, align 4, !tbaa !54
  %4 = icmp eq i32 %3, 0
  br i1 %4, label %21, label %5

5:                                                ; preds = %1
  %6 = add i32 %3, -1
  store i32 %6, ptr %2, align 4, !tbaa !54
  %7 = getelementptr inbounds %"class.xercesc_2_5::BaseRefVectorOf", ptr %0, i64 0, i32 1
  %8 = load i8, ptr %7, align 8, !tbaa !51, !range !61, !noundef !62
  %9 = icmp eq i8 %8, 0
  br i1 %9, label %21, label %10

10:                                               ; preds = %5
  %11 = getelementptr inbounds %"class.xercesc_2_5::BaseRefVectorOf", ptr %0, i64 0, i32 5
  %12 = load ptr, ptr %11, align 8, !tbaa !57
  %13 = getelementptr inbounds %"class.xercesc_2_5::BaseRefVectorOf", ptr %0, i64 0, i32 4
  %14 = load ptr, ptr %13, align 8, !tbaa !56
  %15 = zext i32 %6 to i64
  %16 = getelementptr inbounds ptr, ptr %14, i64 %15
  %17 = load ptr, ptr %16, align 8, !tbaa !45
  %18 = load ptr, ptr %12, align 8, !tbaa !37
  %19 = getelementptr inbounds ptr, ptr %18, i64 3
  %20 = load ptr, ptr %19, align 8
  tail call void %20(ptr noundef nonnull align 8 dereferenceable(8) %12, ptr noundef %17)
  br label %21

21:                                               ; preds = %1, %10, %5
  ret void
}

; Function Attrs: uwtable
define linkonce_odr dso_local void @_ZN11xercesc_2_516RefArrayVectorOfItE7cleanupEv(ptr noundef nonnull align 8 dereferenceable(40) %0) unnamed_addr #1 comdat align 2 {
  %2 = getelementptr inbounds %"class.xercesc_2_5::BaseRefVectorOf", ptr %0, i64 0, i32 1
  %3 = load i8, ptr %2, align 8, !tbaa !51, !range !61, !noundef !62
  %4 = icmp eq i8 %3, 0
  br i1 %4, label %25, label %5

5:                                                ; preds = %1
  %6 = getelementptr inbounds %"class.xercesc_2_5::BaseRefVectorOf", ptr %0, i64 0, i32 2
  %7 = load i32, ptr %6, align 4, !tbaa !54
  %8 = icmp eq i32 %7, 0
  br i1 %8, label %25, label %9

9:                                                ; preds = %5
  %10 = getelementptr inbounds %"class.xercesc_2_5::BaseRefVectorOf", ptr %0, i64 0, i32 5
  %11 = getelementptr inbounds %"class.xercesc_2_5::BaseRefVectorOf", ptr %0, i64 0, i32 4
  br label %12

12:                                               ; preds = %9, %12
  %13 = phi i64 [ 0, %9 ], [ %21, %12 ]
  %14 = load ptr, ptr %10, align 8, !tbaa !57
  %15 = load ptr, ptr %11, align 8, !tbaa !56
  %16 = getelementptr inbounds ptr, ptr %15, i64 %13
  %17 = load ptr, ptr %16, align 8, !tbaa !45
  %18 = load ptr, ptr %14, align 8, !tbaa !37
  %19 = getelementptr inbounds ptr, ptr %18, i64 3
  %20 = load ptr, ptr %19, align 8
  tail call void %20(ptr noundef nonnull align 8 dereferenceable(8) %14, ptr noundef %17)
  %21 = add nuw nsw i64 %13, 1
  %22 = load i32, ptr %6, align 4, !tbaa !54
  %23 = zext i32 %22 to i64
  %24 = icmp ult i64 %21, %23
  br i1 %24, label %12, label %25

25:                                               ; preds = %12, %5, %1
  %26 = getelementptr inbounds %"class.xercesc_2_5::BaseRefVectorOf", ptr %0, i64 0, i32 5
  %27 = load ptr, ptr %26, align 8, !tbaa !57
  %28 = getelementptr inbounds %"class.xercesc_2_5::BaseRefVectorOf", ptr %0, i64 0, i32 4
  %29 = load ptr, ptr %28, align 8, !tbaa !56
  %30 = load ptr, ptr %27, align 8, !tbaa !37
  %31 = getelementptr inbounds ptr, ptr %30, i64 3
  %32 = load ptr, ptr %31, align 8
  tail call void %32(ptr noundef nonnull align 8 dereferenceable(8) %27, ptr noundef %29)
  ret void
}

; Function Attrs: nounwind uwtable
define linkonce_odr dso_local void @_ZN11xercesc_2_515BaseRefVectorOfItED2Ev(ptr noundef nonnull align 8 dereferenceable(40) %0) unnamed_addr #21 comdat align 2 {
  ret void
}

; Function Attrs: uwtable
define linkonce_odr dso_local void @_ZN11xercesc_2_515BaseRefVectorOfItED0Ev(ptr noundef nonnull align 8 dereferenceable(40) %0) unnamed_addr #1 comdat align 2 personality ptr @__gxx_personality_v0 {
  tail call void @_ZN11xercesc_2_57XMemorydlEPv(ptr noundef nonnull %0)
  ret void
}

; Function Attrs: uwtable
define linkonce_odr dso_local void @_ZN11xercesc_2_515BaseRefVectorOfItE12setElementAtEPtj(ptr noundef nonnull align 8 dereferenceable(40) %0, ptr noundef %1, i32 noundef %2) unnamed_addr #1 comdat align 2 personality ptr @__gxx_personality_v0 {
  %4 = getelementptr inbounds %"class.xercesc_2_5::BaseRefVectorOf", ptr %0, i64 0, i32 2
  %5 = load i32, ptr %4, align 4, !tbaa !54
  %6 = icmp ugt i32 %5, %2
  br i1 %6, label %14, label %7

7:                                                ; preds = %3
  %8 = tail call ptr @__cxa_allocate_exception(i64 48) #25
  %9 = getelementptr inbounds %"class.xercesc_2_5::BaseRefVectorOf", ptr %0, i64 0, i32 5
  %10 = load ptr, ptr %9, align 8, !tbaa !57
  invoke void @_ZN11xercesc_2_530ArrayIndexOutOfBoundsExceptionC2EPKcjNS_10XMLExcepts5CodesEPNS_13MemoryManagerE(ptr noundef nonnull align 8 dereferenceable(48) %8, ptr noundef nonnull @.str.1, i32 noundef 107, i32 noundef 109, ptr noundef %10)
          to label %11 unwind label %12

11:                                               ; preds = %7
  tail call void @__cxa_throw(ptr nonnull %8, ptr nonnull @_ZTIN11xercesc_2_530ArrayIndexOutOfBoundsExceptionE, ptr nonnull @_ZN11xercesc_2_512XMLExceptionD2Ev) #26
  unreachable

12:                                               ; preds = %7
  %13 = landingpad { ptr, i32 }
          cleanup
  tail call void @__cxa_free_exception(ptr %8) #25
  resume { ptr, i32 } %13

14:                                               ; preds = %3
  %15 = getelementptr inbounds %"class.xercesc_2_5::BaseRefVectorOf", ptr %0, i64 0, i32 1
  %16 = load i8, ptr %15, align 8, !tbaa !51, !range !61, !noundef !62
  %17 = icmp eq i8 %16, 0
  br i1 %17, label %18, label %20

18:                                               ; preds = %14
  %19 = zext i32 %2 to i64
  br label %28

20:                                               ; preds = %14
  %21 = getelementptr inbounds %"class.xercesc_2_5::BaseRefVectorOf", ptr %0, i64 0, i32 4
  %22 = load ptr, ptr %21, align 8, !tbaa !56
  %23 = zext i32 %2 to i64
  %24 = getelementptr inbounds ptr, ptr %22, i64 %23
  %25 = load ptr, ptr %24, align 8, !tbaa !45
  %26 = icmp eq ptr %25, null
  br i1 %26, label %28, label %27

27:                                               ; preds = %20
  tail call void @_ZdlPv(ptr noundef nonnull %25) #29
  br label %28

28:                                               ; preds = %18, %20, %27
  %29 = phi i64 [ %19, %18 ], [ %23, %20 ], [ %23, %27 ]
  %30 = getelementptr inbounds %"class.xercesc_2_5::BaseRefVectorOf", ptr %0, i64 0, i32 4
  %31 = load ptr, ptr %30, align 8, !tbaa !56
  %32 = getelementptr inbounds ptr, ptr %31, i64 %29
  store ptr %1, ptr %32, align 8, !tbaa !45
  ret void
}

; Function Attrs: nounwind uwtable
define linkonce_odr dso_local void @_ZN11xercesc_2_515BaseRefVectorOfItE17removeAllElementsEv(ptr noundef nonnull align 8 dereferenceable(40) %0) unnamed_addr #21 comdat align 2 {
  %2 = getelementptr inbounds %"class.xercesc_2_5::BaseRefVectorOf", ptr %0, i64 0, i32 2
  %3 = load i32, ptr %2, align 4, !tbaa !54
  %4 = icmp eq i32 %3, 0
  br i1 %4, label %18, label %5

5:                                                ; preds = %1
  %6 = getelementptr inbounds %"class.xercesc_2_5::BaseRefVectorOf", ptr %0, i64 0, i32 1
  %7 = getelementptr inbounds %"class.xercesc_2_5::BaseRefVectorOf", ptr %0, i64 0, i32 4
  %8 = load i8, ptr %6, align 8, !tbaa !51, !range !61, !noundef !62
  %9 = icmp eq i8 %8, 0
  br i1 %9, label %10, label %21

10:                                               ; preds = %5
  %11 = zext i32 %3 to i64
  br label %12

12:                                               ; preds = %12, %10
  %13 = phi i64 [ %16, %12 ], [ 0, %10 ]
  %14 = load ptr, ptr %7, align 8, !tbaa !56
  %15 = getelementptr inbounds ptr, ptr %14, i64 %13
  store ptr null, ptr %15, align 8, !tbaa !45
  %16 = add nuw nsw i64 %13, 1
  %17 = icmp eq i64 %16, %11
  br i1 %17, label %18, label %12

18:                                               ; preds = %34, %12, %1
  store i32 0, ptr %2, align 4, !tbaa !54
  ret void

19:                                               ; preds = %34
  %20 = load i8, ptr %6, align 8, !tbaa !51
  br label %21

21:                                               ; preds = %5, %19
  %22 = phi i8 [ %20, %19 ], [ 1, %5 ]
  %23 = phi i32 [ %35, %19 ], [ %3, %5 ]
  %24 = phi i64 [ %38, %19 ], [ 0, %5 ]
  %25 = icmp eq i8 %22, 0
  %26 = load ptr, ptr %7, align 8, !tbaa !56
  br i1 %25, label %34, label %27

27:                                               ; preds = %21
  %28 = getelementptr inbounds ptr, ptr %26, i64 %24
  %29 = load ptr, ptr %28, align 8, !tbaa !45
  %30 = icmp eq ptr %29, null
  br i1 %30, label %34, label %31

31:                                               ; preds = %27
  tail call void @_ZdlPv(ptr noundef nonnull %29) #29
  %32 = load ptr, ptr %7, align 8, !tbaa !56
  %33 = load i32, ptr %2, align 4, !tbaa !54
  br label %34

34:                                               ; preds = %27, %31, %21
  %35 = phi i32 [ %23, %27 ], [ %33, %31 ], [ %23, %21 ]
  %36 = phi ptr [ %26, %27 ], [ %32, %31 ], [ %26, %21 ]
  %37 = getelementptr inbounds ptr, ptr %36, i64 %24
  store ptr null, ptr %37, align 8, !tbaa !45
  %38 = add nuw nsw i64 %24, 1
  %39 = zext i32 %35 to i64
  %40 = icmp ult i64 %38, %39
  br i1 %40, label %19, label %18, !llvm.loop !65
}

; Function Attrs: uwtable
define linkonce_odr dso_local void @_ZN11xercesc_2_515BaseRefVectorOfItE15removeElementAtEj(ptr noundef nonnull align 8 dereferenceable(40) %0, i32 noundef %1) unnamed_addr #1 comdat align 2 personality ptr @__gxx_personality_v0 {
  %3 = getelementptr inbounds %"class.xercesc_2_5::BaseRefVectorOf", ptr %0, i64 0, i32 2
  %4 = load i32, ptr %3, align 4, !tbaa !54
  %5 = icmp ugt i32 %4, %1
  br i1 %5, label %13, label %6

6:                                                ; preds = %2
  %7 = tail call ptr @__cxa_allocate_exception(i64 48) #25
  %8 = getelementptr inbounds %"class.xercesc_2_5::BaseRefVectorOf", ptr %0, i64 0, i32 5
  %9 = load ptr, ptr %8, align 8, !tbaa !57
