; ModuleID = 'XTemplateSerializer.cpp'
source_filename = "XTemplateSerializer.cpp"
target datalayout = "e-m:e-p270:32:32-p271:32:32-p272:64:64-i64:64-f80:128-n8:16:32:64-S128"
target triple = "x86_64-unknown-linux-gnu"

%"class.xercesc_2_5::XProtoType" = type { ptr, ptr }
%"class.xercesc_2_5::ValueVectorOf.0" = type { i8, i32, i32, ptr, ptr }
%"class.xercesc_2_5::XSerializeEngine" = type <{ i16, [6 x i8], ptr, ptr, ptr, i64, ptr, ptr, ptr, ptr, ptr, ptr, i32, [4 x i8] }>
%"class.xercesc_2_5::ValueVectorOf.1" = type { i8, i32, i32, ptr, ptr }
%"class.xercesc_2_5::BaseRefVectorOf" = type { ptr, i8, i32, i32, ptr, ptr }
%"class.xercesc_2_5::BaseRefVectorOf.2" = type { ptr, i8, i32, i32, ptr, ptr }
%"class.xercesc_2_5::BaseRefVectorOf.4" = type { ptr, i8, i32, i32, ptr, ptr }
%"class.xercesc_2_5::BaseRefVectorOf.6" = type { ptr, i8, i32, i32, ptr, ptr }
%"class.xercesc_2_5::BaseRefVectorOf.8" = type { ptr, i8, i32, i32, ptr, ptr }
%"class.xercesc_2_5::BaseRefVectorOf.10" = type { ptr, i8, i32, i32, ptr, ptr }
%"class.xercesc_2_5::BaseRefVectorOf.12" = type { ptr, i8, i32, i32, ptr, ptr }
%"class.xercesc_2_5::BaseRefVectorOf.14" = type { ptr, i8, i32, i32, ptr, ptr }
%"class.xercesc_2_5::BaseRefVectorOf.16" = type { ptr, i8, i32, i32, ptr, ptr }
%"class.xercesc_2_5::BaseRefVectorOf.18" = type { ptr, i8, i32, i32, ptr, ptr }
%"class.xercesc_2_5::RefHashTableOfEnumerator" = type { %"class.xercesc_2_5::XMLEnumerator", i8, ptr, i32, ptr, ptr }
%"class.xercesc_2_5::XMLEnumerator" = type { ptr }
%"class.xercesc_2_5::RefHashTableOf" = type { ptr, i8, ptr, i32, i32, i32, ptr }
%"struct.xercesc_2_5::RefHashTableBucketElem.62" = type { ptr, ptr, ptr }
%"class.xercesc_2_5::RefHashTableOfEnumerator.19" = type { %"class.xercesc_2_5::XMLEnumerator.20", i8, ptr, i32, ptr, ptr }
%"class.xercesc_2_5::XMLEnumerator.20" = type { ptr }
%"class.xercesc_2_5::RefHashTableOf.21" = type { ptr, i8, ptr, i32, i32, i32, ptr }
%"struct.xercesc_2_5::RefHashTableBucketElem.63" = type { ptr, ptr, ptr }
%"class.xercesc_2_5::RefHashTableOfEnumerator.22" = type { %"class.xercesc_2_5::XMLEnumerator.23", i8, ptr, i32, ptr, ptr }
%"class.xercesc_2_5::XMLEnumerator.23" = type { ptr }
%"class.xercesc_2_5::RefHashTableOf.24" = type { ptr, i8, ptr, i32, i32, i32, ptr }
%"struct.xercesc_2_5::RefHashTableBucketElem.64" = type { ptr, ptr, ptr }
%"class.xercesc_2_5::RefHashTableOfEnumerator.25" = type { %"class.xercesc_2_5::XMLEnumerator.26", i8, ptr, i32, ptr, ptr }
%"class.xercesc_2_5::XMLEnumerator.26" = type { ptr }
%"class.xercesc_2_5::RefHashTableOf.27" = type { ptr, i8, ptr, i32, i32, i32, ptr }
%"struct.xercesc_2_5::RefHashTableBucketElem.65" = type { ptr, ptr, ptr }
%"class.xercesc_2_5::RefHashTableOfEnumerator.28" = type { %"class.xercesc_2_5::XMLEnumerator.29", i8, ptr, i32, ptr, ptr }
%"class.xercesc_2_5::XMLEnumerator.29" = type { ptr }
%"class.xercesc_2_5::RefHashTableOf.30" = type { ptr, i8, ptr, i32, i32, i32, ptr }
%"struct.xercesc_2_5::RefHashTableBucketElem.66" = type { ptr, ptr, ptr }
%"class.xercesc_2_5::RefHashTableOfEnumerator.31" = type { %"class.xercesc_2_5::XMLEnumerator.32", i8, ptr, i32, ptr, ptr }
%"class.xercesc_2_5::XMLEnumerator.32" = type { ptr }
%"class.xercesc_2_5::RefHashTableOf.33" = type { ptr, i8, ptr, i32, i32, i32, ptr }
%"struct.xercesc_2_5::RefHashTableBucketElem.67" = type { ptr, ptr, ptr }
%"class.xercesc_2_5::RefHashTableOfEnumerator.34" = type { %"class.xercesc_2_5::XMLEnumerator.35", i8, ptr, i32, ptr, ptr }
%"class.xercesc_2_5::XMLEnumerator.35" = type { ptr }
%"class.xercesc_2_5::RefHashTableOf.36" = type { ptr, i8, ptr, i32, i32, i32, ptr }
%"struct.xercesc_2_5::RefHashTableBucketElem.68" = type { ptr, ptr, ptr }
%"class.xercesc_2_5::RefHashTableOfEnumerator.37" = type { %"class.xercesc_2_5::XMLEnumerator.38", i8, ptr, i32, ptr, ptr }
%"class.xercesc_2_5::XMLEnumerator.38" = type { ptr }
%"class.xercesc_2_5::RefHashTableOf.39" = type { ptr, i8, ptr, i32, i32, i32, ptr }
%"struct.xercesc_2_5::RefHashTableBucketElem" = type { ptr, ptr, ptr }
%"class.xercesc_2_5::RefHashTableOfEnumerator.40" = type { %"class.xercesc_2_5::XMLEnumerator.41", i8, ptr, i32, ptr, ptr }
%"class.xercesc_2_5::XMLEnumerator.41" = type { ptr }
%"class.xercesc_2_5::RefHashTableOf.42" = type { ptr, i8, ptr, i32, i32, i32, ptr }
%"struct.xercesc_2_5::RefHashTableBucketElem.69" = type { ptr, ptr, ptr }
%"class.xercesc_2_5::RefHashTableOfEnumerator.43" = type { %"class.xercesc_2_5::XMLEnumerator.44", i8, ptr, i32, ptr, ptr }
%"class.xercesc_2_5::XMLEnumerator.44" = type { ptr }
%"class.xercesc_2_5::RefHashTableOf.45" = type { ptr, i8, ptr, i32, i32, i32, ptr }
%"struct.xercesc_2_5::RefHashTableBucketElem.61" = type { ptr, ptr, ptr }
%"class.xercesc_2_5::RefHash2KeysTableOfEnumerator" = type { %"class.xercesc_2_5::XMLEnumerator.47", i8, ptr, i32, ptr, ptr }
%"class.xercesc_2_5::XMLEnumerator.47" = type { ptr }
%"class.xercesc_2_5::RefHash2KeysTableOf" = type { ptr, i8, ptr, i32, ptr }
%"struct.xercesc_2_5::RefHash2KeysTableBucketElem" = type <{ ptr, ptr, ptr, i32, [4 x i8] }>
%"class.xercesc_2_5::RefHash2KeysTableOfEnumerator.48" = type { %"class.xercesc_2_5::XMLEnumerator.49", i8, ptr, i32, ptr, ptr }
%"class.xercesc_2_5::XMLEnumerator.49" = type { ptr }
%"class.xercesc_2_5::RefHash2KeysTableOf.50" = type { ptr, i8, ptr, i32, ptr }
%"struct.xercesc_2_5::RefHash2KeysTableBucketElem.70" = type <{ ptr, ptr, ptr, i32, [4 x i8] }>
%"class.xercesc_2_5::RefHash3KeysIdPoolEnumerator" = type { %"class.xercesc_2_5::XMLEnumerator.51", i8, i32, ptr, ptr, i32, ptr }
%"class.xercesc_2_5::XMLEnumerator.51" = type { ptr }
%"class.xercesc_2_5::RefHash3KeysIdPool" = type { ptr, i8, ptr, i32, ptr, ptr, i32, i32 }
%"struct.xercesc_2_5::RefHash3KeysTableBucketElem" = type { ptr, ptr, ptr, i32, i32 }
%"class.xercesc_2_5::XMLElementDecl" = type <{ %"class.xercesc_2_5::XSerializable", ptr, ptr, i32, i32, i8, [7 x i8] }>
%"class.xercesc_2_5::XSerializable" = type { ptr }
%"class.xercesc_2_5::NameIdPool" = type <{ ptr, ptr, ptr, i32, i32, i32, [4 x i8] }>
%"struct.xercesc_2_5::NameIdPoolBucketElem.72" = type { ptr, ptr }
%"class.xercesc_2_5::NameIdPool.55" = type <{ ptr, ptr, ptr, i32, i32, i32, [4 x i8] }>
%"class.xercesc_2_5::DTDEntityDecl" = type <{ %"class.xercesc_2_5::XMLEntityDecl", i8, i8, i8, [5 x i8] }>
%"class.xercesc_2_5::XMLEntityDecl" = type { %"class.xercesc_2_5::XSerializable", i32, i32, ptr, ptr, ptr, ptr, ptr, ptr, ptr }
%"struct.xercesc_2_5::NameIdPoolBucketElem.73" = type { ptr, ptr }
%"class.xercesc_2_5::NameIdPool.59" = type <{ ptr, ptr, ptr, i32, i32, i32, [4 x i8] }>
%"class.xercesc_2_5::XMLNotationDecl" = type { %"class.xercesc_2_5::XSerializable", i32, ptr, ptr, ptr, ptr, i32, ptr }
%"struct.xercesc_2_5::NameIdPoolBucketElem" = type { ptr, ptr }
%"class.xercesc_2_5::XMLException" = type { ptr, i32, ptr, i32, ptr, ptr }

$__clang_call_terminate = comdat any

$_ZN11xercesc_2_513DTDEntityDeclD0Ev = comdat any

$_ZNK11xercesc_2_524RefHashTableOfEnumeratorINS_12KVStringPairEE15hasMoreElementsEv = comdat any

$_ZN11xercesc_2_524RefHashTableOfEnumeratorINS_12KVStringPairEE11nextElementEv = comdat any

$_ZN11xercesc_2_524RefHashTableOfEnumeratorINS_12KVStringPairEE5ResetEv = comdat any

$_ZN11xercesc_2_524RefHashTableOfEnumeratorINS_12KVStringPairEE14nextElementKeyEv = comdat any

$_ZN11xercesc_2_524RefHashTableOfEnumeratorINS_12KVStringPairEED2Ev = comdat any

$_ZN11xercesc_2_514RefHashTableOfINS_12KVStringPairEEC2EjbPNS_13MemoryManagerE = comdat any

$_ZNK11xercesc_2_524RefHashTableOfEnumeratorINS_9XMLAttDefEE15hasMoreElementsEv = comdat any

$_ZN11xercesc_2_524RefHashTableOfEnumeratorINS_9XMLAttDefEE11nextElementEv = comdat any

$_ZN11xercesc_2_524RefHashTableOfEnumeratorINS_9XMLAttDefEE5ResetEv = comdat any

$_ZN11xercesc_2_524RefHashTableOfEnumeratorINS_9XMLAttDefEE14nextElementKeyEv = comdat any

$_ZN11xercesc_2_524RefHashTableOfEnumeratorINS_9XMLAttDefEED2Ev = comdat any

$_ZN11xercesc_2_514RefHashTableOfINS_9XMLAttDefEEC2EjbPNS_13MemoryManagerE = comdat any

$_ZNK11xercesc_2_524RefHashTableOfEnumeratorINS_9DTDAttDefEE15hasMoreElementsEv = comdat any

$_ZN11xercesc_2_524RefHashTableOfEnumeratorINS_9DTDAttDefEE11nextElementEv = comdat any

$_ZN11xercesc_2_524RefHashTableOfEnumeratorINS_9DTDAttDefEE5ResetEv = comdat any

$_ZN11xercesc_2_524RefHashTableOfEnumeratorINS_9DTDAttDefEE14nextElementKeyEv = comdat any

$_ZN11xercesc_2_524RefHashTableOfEnumeratorINS_9DTDAttDefEED2Ev = comdat any

$_ZN11xercesc_2_514RefHashTableOfINS_9DTDAttDefEEC2EjbPNS_13MemoryManagerE = comdat any

$_ZNK11xercesc_2_524RefHashTableOfEnumeratorINS_15ComplexTypeInfoEE15hasMoreElementsEv = comdat any

$_ZN11xercesc_2_524RefHashTableOfEnumeratorINS_15ComplexTypeInfoEE11nextElementEv = comdat any

$_ZN11xercesc_2_524RefHashTableOfEnumeratorINS_15ComplexTypeInfoEE5ResetEv = comdat any

$_ZN11xercesc_2_524RefHashTableOfEnumeratorINS_15ComplexTypeInfoEE14nextElementKeyEv = comdat any

$_ZN11xercesc_2_524RefHashTableOfEnumeratorINS_15ComplexTypeInfoEED2Ev = comdat any

$_ZN11xercesc_2_514RefHashTableOfINS_15ComplexTypeInfoEEC2EjbPNS_13MemoryManagerE = comdat any

$_ZNK11xercesc_2_524RefHashTableOfEnumeratorINS_15XercesGroupInfoEE15hasMoreElementsEv = comdat any

$_ZN11xercesc_2_524RefHashTableOfEnumeratorINS_15XercesGroupInfoEE11nextElementEv = comdat any

$_ZN11xercesc_2_524RefHashTableOfEnumeratorINS_15XercesGroupInfoEE5ResetEv = comdat any

$_ZN11xercesc_2_524RefHashTableOfEnumeratorINS_15XercesGroupInfoEE14nextElementKeyEv = comdat any

$_ZN11xercesc_2_524RefHashTableOfEnumeratorINS_15XercesGroupInfoEED2Ev = comdat any

$_ZN11xercesc_2_514RefHashTableOfINS_15XercesGroupInfoEEC2EjbPNS_13MemoryManagerE = comdat any

$_ZNK11xercesc_2_524RefHashTableOfEnumeratorINS_18XercesAttGroupInfoEE15hasMoreElementsEv = comdat any

$_ZN11xercesc_2_524RefHashTableOfEnumeratorINS_18XercesAttGroupInfoEE11nextElementEv = comdat any

$_ZN11xercesc_2_524RefHashTableOfEnumeratorINS_18XercesAttGroupInfoEE5ResetEv = comdat any

$_ZN11xercesc_2_524RefHashTableOfEnumeratorINS_18XercesAttGroupInfoEE14nextElementKeyEv = comdat any

$_ZN11xercesc_2_524RefHashTableOfEnumeratorINS_18XercesAttGroupInfoEED2Ev = comdat any

$_ZN11xercesc_2_514RefHashTableOfINS_18XercesAttGroupInfoEEC2EjbPNS_13MemoryManagerE = comdat any

$_ZNK11xercesc_2_524RefHashTableOfEnumeratorINS_10XMLRefInfoEE15hasMoreElementsEv = comdat any

$_ZN11xercesc_2_524RefHashTableOfEnumeratorINS_10XMLRefInfoEE11nextElementEv = comdat any

$_ZN11xercesc_2_524RefHashTableOfEnumeratorINS_10XMLRefInfoEE5ResetEv = comdat any

$_ZN11xercesc_2_524RefHashTableOfEnumeratorINS_10XMLRefInfoEE14nextElementKeyEv = comdat any

$_ZN11xercesc_2_524RefHashTableOfEnumeratorINS_10XMLRefInfoEED2Ev = comdat any

$_ZN11xercesc_2_514RefHashTableOfINS_10XMLRefInfoEEC2EjbPNS_13MemoryManagerE = comdat any

$_ZNK11xercesc_2_524RefHashTableOfEnumeratorINS_17DatatypeValidatorEE15hasMoreElementsEv = comdat any

$_ZN11xercesc_2_524RefHashTableOfEnumeratorINS_17DatatypeValidatorEE11nextElementEv = comdat any

$_ZN11xercesc_2_524RefHashTableOfEnumeratorINS_17DatatypeValidatorEE5ResetEv = comdat any

$_ZN11xercesc_2_524RefHashTableOfEnumeratorINS_17DatatypeValidatorEE14nextElementKeyEv = comdat any

$_ZN11xercesc_2_524RefHashTableOfEnumeratorINS_17DatatypeValidatorEED2Ev = comdat any

$_ZN11xercesc_2_514RefHashTableOfINS_17DatatypeValidatorEEC2EjbPNS_13MemoryManagerE = comdat any

$_ZNK11xercesc_2_524RefHashTableOfEnumeratorINS_7GrammarEE15hasMoreElementsEv = comdat any

$_ZN11xercesc_2_524RefHashTableOfEnumeratorINS_7GrammarEE11nextElementEv = comdat any

$_ZN11xercesc_2_524RefHashTableOfEnumeratorINS_7GrammarEE5ResetEv = comdat any

$_ZN11xercesc_2_524RefHashTableOfEnumeratorINS_7GrammarEE14nextElementKeyEv = comdat any

$_ZN11xercesc_2_524RefHashTableOfEnumeratorINS_7GrammarEED2Ev = comdat any

$_ZN11xercesc_2_514RefHashTableOfINS_7GrammarEEC2EjbPNS_13MemoryManagerE = comdat any

$_ZNK11xercesc_2_524RefHashTableOfEnumeratorINS_12XSAnnotationEE15hasMoreElementsEv = comdat any

$_ZN11xercesc_2_524RefHashTableOfEnumeratorINS_12XSAnnotationEE14nextElementKeyEv = comdat any

$_ZN11xercesc_2_524RefHashTableOfEnumeratorINS_12XSAnnotationEED2Ev = comdat any

$_ZN11xercesc_2_514RefHashTableOfINS_12XSAnnotationEEC2EjbPNS_8HashBaseEPNS_13MemoryManagerE = comdat any

$_ZNK11xercesc_2_529RefHash2KeysTableOfEnumeratorINS_12SchemaAttDefEE15hasMoreElementsEv = comdat any

$_ZN11xercesc_2_529RefHash2KeysTableOfEnumeratorINS_12SchemaAttDefEE11nextElementEv = comdat any

$_ZN11xercesc_2_529RefHash2KeysTableOfEnumeratorINS_12SchemaAttDefEE5ResetEv = comdat any

$_ZN11xercesc_2_529RefHash2KeysTableOfEnumeratorINS_12SchemaAttDefEE14nextElementKeyERPvRi = comdat any

$_ZN11xercesc_2_529RefHash2KeysTableOfEnumeratorINS_12SchemaAttDefEED2Ev = comdat any

$_ZN11xercesc_2_519RefHash2KeysTableOfINS_12SchemaAttDefEEC2EjbPNS_13MemoryManagerE = comdat any

$_ZNK11xercesc_2_529RefHash2KeysTableOfEnumeratorINS_13ValueVectorOfIPNS_17SchemaElementDeclEEEE15hasMoreElementsEv = comdat any

$_ZN11xercesc_2_529RefHash2KeysTableOfEnumeratorINS_13ValueVectorOfIPNS_17SchemaElementDeclEEEE11nextElementEv = comdat any

$_ZN11xercesc_2_529RefHash2KeysTableOfEnumeratorINS_13ValueVectorOfIPNS_17SchemaElementDeclEEEE5ResetEv = comdat any

$_ZN11xercesc_2_529RefHash2KeysTableOfEnumeratorINS_13ValueVectorOfIPNS_17SchemaElementDeclEEEE14nextElementKeyERPvRi = comdat any

$_ZN11xercesc_2_529RefHash2KeysTableOfEnumeratorINS_13ValueVectorOfIPNS_17SchemaElementDeclEEEED2Ev = comdat any

$_ZN11xercesc_2_519RefHash2KeysTableOfINS_13ValueVectorOfIPNS_17SchemaElementDeclEEEEC2EjbPNS_13MemoryManagerE = comdat any

$_ZN11xercesc_2_519RefHash2KeysTableOfINS_13ValueVectorOfIPNS_17SchemaElementDeclEEEE3putEPviPS4_ = comdat any

$_ZN11xercesc_2_528RefHash3KeysIdPoolEnumeratorINS_17SchemaElementDeclEED2Ev = comdat any

$_ZN11xercesc_2_518RefHash3KeysIdPoolINS_17SchemaElementDeclEEC2EjbjPNS_13MemoryManagerE = comdat any

$_ZN11xercesc_2_518RefHash3KeysIdPoolINS_17SchemaElementDeclEE3putEPviiPS1_ = comdat any

$_ZN11xercesc_2_510NameIdPoolINS_14DTDElementDeclEEC2EjjPNS_13MemoryManagerE = comdat any

$_ZN11xercesc_2_510NameIdPoolINS_14DTDElementDeclEE3putEPS1_ = comdat any

$_ZN11xercesc_2_510NameIdPoolINS_13DTDEntityDeclEEC2EjjPNS_13MemoryManagerE = comdat any

$_ZN11xercesc_2_510NameIdPoolINS_13DTDEntityDeclEE3putEPS1_ = comdat any

$_ZN11xercesc_2_510NameIdPoolINS_15XMLNotationDeclEEC2EjjPNS_13MemoryManagerE = comdat any

$_ZN11xercesc_2_510NameIdPoolINS_15XMLNotationDeclEE3putEPS1_ = comdat any

$_ZNK11xercesc_2_513DTDEntityDecl22getDeclaredInIntSubsetEv = comdat any

$_ZNK11xercesc_2_513DTDEntityDecl14getIsParameterEv = comdat any

$_ZNK11xercesc_2_513DTDEntityDecl16getIsSpecialCharEv = comdat any

$_ZN11xercesc_2_530ArrayIndexOutOfBoundsExceptionC2EPKcjNS_10XMLExcepts5CodesEPNS_13MemoryManagerE = comdat any

$_ZN11xercesc_2_530ArrayIndexOutOfBoundsExceptionD0Ev = comdat any

$_ZNK11xercesc_2_530ArrayIndexOutOfBoundsException7getTypeEv = comdat any

$_ZNK11xercesc_2_530ArrayIndexOutOfBoundsException9duplicateEv = comdat any

$_ZN11xercesc_2_519RefHash2KeysTableOfINS_12SchemaAttDefEE14findBucketElemEPKviRj = comdat any

$_ZN11xercesc_2_516RuntimeExceptionC2EPKcjNS_10XMLExcepts5CodesEPNS_13MemoryManagerE = comdat any

$_ZN11xercesc_2_516RuntimeExceptionD0Ev = comdat any

$_ZNK11xercesc_2_516RuntimeException7getTypeEv = comdat any

$_ZNK11xercesc_2_516RuntimeException9duplicateEv = comdat any

$_ZN11xercesc_2_511RefVectorOfINS_17SchemaElementDeclEED2Ev = comdat any

$_ZN11xercesc_2_511RefVectorOfINS_17SchemaElementDeclEED0Ev = comdat any

$_ZN11xercesc_2_515BaseRefVectorOfINS_17SchemaElementDeclEE12setElementAtEPS1_j = comdat any

$_ZN11xercesc_2_515BaseRefVectorOfINS_17SchemaElementDeclEE17removeAllElementsEv = comdat any

$_ZN11xercesc_2_515BaseRefVectorOfINS_17SchemaElementDeclEE15removeElementAtEj = comdat any

$_ZN11xercesc_2_515BaseRefVectorOfINS_17SchemaElementDeclEE17removeLastElementEv = comdat any

$_ZN11xercesc_2_515BaseRefVectorOfINS_17SchemaElementDeclEE7cleanupEv = comdat any

$_ZN11xercesc_2_515BaseRefVectorOfINS_17SchemaElementDeclEED2Ev = comdat any

$_ZN11xercesc_2_515BaseRefVectorOfINS_17SchemaElementDeclEED0Ev = comdat any

$_ZN11xercesc_2_529RefHash2KeysTableOfEnumeratorINS_12SchemaAttDefEED0Ev = comdat any

$_ZN11xercesc_2_522NoSuchElementExceptionC2EPKcjNS_10XMLExcepts5CodesEPNS_13MemoryManagerE = comdat any

$_ZN11xercesc_2_522NoSuchElementExceptionD0Ev = comdat any

$_ZNK11xercesc_2_522NoSuchElementException7getTypeEv = comdat any

$_ZNK11xercesc_2_522NoSuchElementException9duplicateEv = comdat any

$_ZN11xercesc_2_511RefVectorOfINS_8IC_FieldEED2Ev = comdat any

$_ZN11xercesc_2_511RefVectorOfINS_8IC_FieldEED0Ev = comdat any

$_ZN11xercesc_2_515BaseRefVectorOfINS_8IC_FieldEE12setElementAtEPS1_j = comdat any

$_ZN11xercesc_2_515BaseRefVectorOfINS_8IC_FieldEE17removeAllElementsEv = comdat any

$_ZN11xercesc_2_515BaseRefVectorOfINS_8IC_FieldEE15removeElementAtEj = comdat any

$_ZN11xercesc_2_515BaseRefVectorOfINS_8IC_FieldEE17removeLastElementEv = comdat any

$_ZN11xercesc_2_515BaseRefVectorOfINS_8IC_FieldEE7cleanupEv = comdat any

$_ZN11xercesc_2_515BaseRefVectorOfINS_8IC_FieldEED2Ev = comdat any

$_ZN11xercesc_2_515BaseRefVectorOfINS_8IC_FieldEED0Ev = comdat any

$_ZN11xercesc_2_511RefVectorOfINS_18IdentityConstraintEED2Ev = comdat any

$_ZN11xercesc_2_511RefVectorOfINS_18IdentityConstraintEED0Ev = comdat any

$_ZN11xercesc_2_515BaseRefVectorOfINS_18IdentityConstraintEE12setElementAtEPS1_j = comdat any

$_ZN11xercesc_2_515BaseRefVectorOfINS_18IdentityConstraintEE17removeAllElementsEv = comdat any

$_ZN11xercesc_2_515BaseRefVectorOfINS_18IdentityConstraintEE15removeElementAtEj = comdat any

$_ZN11xercesc_2_515BaseRefVectorOfINS_18IdentityConstraintEE17removeLastElementEv = comdat any

$_ZN11xercesc_2_515BaseRefVectorOfINS_18IdentityConstraintEE7cleanupEv = comdat any

$_ZN11xercesc_2_515BaseRefVectorOfINS_18IdentityConstraintEED2Ev = comdat any

$_ZN11xercesc_2_515BaseRefVectorOfINS_18IdentityConstraintEED0Ev = comdat any

$_ZN11xercesc_2_511RefVectorOfINS_12SchemaAttDefEED2Ev = comdat any

$_ZN11xercesc_2_511RefVectorOfINS_12SchemaAttDefEED0Ev = comdat any

$_ZN11xercesc_2_515BaseRefVectorOfINS_12SchemaAttDefEE12setElementAtEPS1_j = comdat any

$_ZN11xercesc_2_515BaseRefVectorOfINS_12SchemaAttDefEE17removeAllElementsEv = comdat any

$_ZN11xercesc_2_515BaseRefVectorOfINS_12SchemaAttDefEE15removeElementAtEj = comdat any

$_ZN11xercesc_2_515BaseRefVectorOfINS_12SchemaAttDefEE17removeLastElementEv = comdat any

$_ZN11xercesc_2_515BaseRefVectorOfINS_12SchemaAttDefEE7cleanupEv = comdat any

$_ZN11xercesc_2_515BaseRefVectorOfINS_12SchemaAttDefEED2Ev = comdat any

$_ZN11xercesc_2_515BaseRefVectorOfINS_12SchemaAttDefEED0Ev = comdat any

$_ZN11xercesc_2_514RefHashTableOfINS_17DatatypeValidatorEE14findBucketElemEPKvRj = comdat any

$_ZN11xercesc_2_528RefHash3KeysIdPoolEnumeratorINS_17SchemaElementDeclEED0Ev = comdat any

$_ZNK11xercesc_2_528RefHash3KeysIdPoolEnumeratorINS_17SchemaElementDeclEE15hasMoreElementsEv = comdat any

$_ZN11xercesc_2_528RefHash3KeysIdPoolEnumeratorINS_17SchemaElementDeclEE11nextElementEv = comdat any

$_ZN11xercesc_2_528RefHash3KeysIdPoolEnumeratorINS_17SchemaElementDeclEE5ResetEv = comdat any

$_ZN11xercesc_2_514RefHashTableOfINS_12XSAnnotationEE14findBucketElemEPKvRj = comdat any

$_ZN11xercesc_2_518RefHash3KeysIdPoolINS_17SchemaElementDeclEE14findBucketElemEPKviiRj = comdat any

$_ZN11xercesc_2_524IllegalArgumentExceptionC2EPKcjNS_10XMLExcepts5CodesEPNS_13MemoryManagerE = comdat any

$_ZN11xercesc_2_524IllegalArgumentExceptionD0Ev = comdat any

$_ZNK11xercesc_2_524IllegalArgumentException7getTypeEv = comdat any

$_ZNK11xercesc_2_524IllegalArgumentException9duplicateEv = comdat any

$_ZN11xercesc_2_510NameIdPoolINS_15XMLNotationDeclEE14findBucketElemEPKtRj = comdat any

$_ZN11xercesc_2_524IllegalArgumentExceptionC2EPKcjNS_10XMLExcepts5CodesEPKtS6_S6_S6_PNS_13MemoryManagerE = comdat any

$_ZN11xercesc_2_516RefArrayVectorOfItED2Ev = comdat any

$_ZN11xercesc_2_516RefArrayVectorOfItED0Ev = comdat any

$_ZN11xercesc_2_516RefArrayVectorOfItE12setElementAtEPtj = comdat any

$_ZN11xercesc_2_516RefArrayVectorOfItE17removeAllElementsEv = comdat any

$_ZN11xercesc_2_516RefArrayVectorOfItE15removeElementAtEj = comdat any

$_ZN11xercesc_2_516RefArrayVectorOfItE17removeLastElementEv = comdat any

$_ZN11xercesc_2_516RefArrayVectorOfItE7cleanupEv = comdat any

$_ZN11xercesc_2_515BaseRefVectorOfItED2Ev = comdat any

$_ZN11xercesc_2_515BaseRefVectorOfItED0Ev = comdat any

$_ZN11xercesc_2_515BaseRefVectorOfItE12setElementAtEPtj = comdat any

$_ZN11xercesc_2_515BaseRefVectorOfItE17removeAllElementsEv = comdat any

$_ZN11xercesc_2_515BaseRefVectorOfItE15removeElementAtEj = comdat any

$_ZN11xercesc_2_515BaseRefVectorOfItE17removeLastElementEv = comdat any

$_ZN11xercesc_2_515BaseRefVectorOfItE7cleanupEv = comdat any

$_ZN11xercesc_2_511RefVectorOfINS_15ContentSpecNodeEED2Ev = comdat any

$_ZN11xercesc_2_511RefVectorOfINS_15ContentSpecNodeEED0Ev = comdat any

$_ZN11xercesc_2_515BaseRefVectorOfINS_15ContentSpecNodeEE12setElementAtEPS1_j = comdat any

$_ZN11xercesc_2_515BaseRefVectorOfINS_15ContentSpecNodeEE17removeAllElementsEv = comdat any

$_ZN11xercesc_2_515BaseRefVectorOfINS_15ContentSpecNodeEE15removeElementAtEj = comdat any

$_ZN11xercesc_2_515BaseRefVectorOfINS_15ContentSpecNodeEE17removeLastElementEv = comdat any

$_ZN11xercesc_2_515BaseRefVectorOfINS_15ContentSpecNodeEE7cleanupEv = comdat any

$_ZN11xercesc_2_515BaseRefVectorOfINS_15ContentSpecNodeEED2Ev = comdat any

$_ZN11xercesc_2_515BaseRefVectorOfINS_15ContentSpecNodeEED0Ev = comdat any

$_ZN11xercesc_2_511RefVectorOfINS_17DatatypeValidatorEED2Ev = comdat any

$_ZN11xercesc_2_511RefVectorOfINS_17DatatypeValidatorEED0Ev = comdat any

$_ZN11xercesc_2_515BaseRefVectorOfINS_17DatatypeValidatorEE12setElementAtEPS1_j = comdat any

$_ZN11xercesc_2_515BaseRefVectorOfINS_17DatatypeValidatorEE17removeAllElementsEv = comdat any

$_ZN11xercesc_2_515BaseRefVectorOfINS_17DatatypeValidatorEE15removeElementAtEj = comdat any

$_ZN11xercesc_2_515BaseRefVectorOfINS_17DatatypeValidatorEE17removeLastElementEv = comdat any

$_ZN11xercesc_2_515BaseRefVectorOfINS_17DatatypeValidatorEE7cleanupEv = comdat any

$_ZN11xercesc_2_515BaseRefVectorOfINS_17DatatypeValidatorEED2Ev = comdat any

$_ZN11xercesc_2_515BaseRefVectorOfINS_17DatatypeValidatorEED0Ev = comdat any

$_ZN11xercesc_2_511RefVectorOfINS_9XMLNumberEED2Ev = comdat any

$_ZN11xercesc_2_511RefVectorOfINS_9XMLNumberEED0Ev = comdat any

$_ZN11xercesc_2_515BaseRefVectorOfINS_9XMLNumberEE12setElementAtEPS1_j = comdat any

$_ZN11xercesc_2_515BaseRefVectorOfINS_9XMLNumberEE17removeAllElementsEv = comdat any

$_ZN11xercesc_2_515BaseRefVectorOfINS_9XMLNumberEE15removeElementAtEj = comdat any

$_ZN11xercesc_2_515BaseRefVectorOfINS_9XMLNumberEE17removeLastElementEv = comdat any

$_ZN11xercesc_2_515BaseRefVectorOfINS_9XMLNumberEE7cleanupEv = comdat any

$_ZN11xercesc_2_515BaseRefVectorOfINS_9XMLNumberEED2Ev = comdat any

$_ZN11xercesc_2_515BaseRefVectorOfINS_9XMLNumberEED0Ev = comdat any

$_ZN11xercesc_2_511RefVectorOfINS_18XercesLocationPathEED2Ev = comdat any

$_ZN11xercesc_2_511RefVectorOfINS_18XercesLocationPathEED0Ev = comdat any

$_ZN11xercesc_2_515BaseRefVectorOfINS_18XercesLocationPathEE12setElementAtEPS1_j = comdat any

$_ZN11xercesc_2_515BaseRefVectorOfINS_18XercesLocationPathEE17removeAllElementsEv = comdat any

$_ZN11xercesc_2_515BaseRefVectorOfINS_18XercesLocationPathEE15removeElementAtEj = comdat any

$_ZN11xercesc_2_515BaseRefVectorOfINS_18XercesLocationPathEE17removeLastElementEv = comdat any

$_ZN11xercesc_2_515BaseRefVectorOfINS_18XercesLocationPathEE7cleanupEv = comdat any

$_ZN11xercesc_2_515BaseRefVectorOfINS_18XercesLocationPathEED2Ev = comdat any

$_ZN11xercesc_2_515BaseRefVectorOfINS_18XercesLocationPathEED0Ev = comdat any

$_ZN11xercesc_2_511RefVectorOfINS_10XercesStepEED2Ev = comdat any

$_ZN11xercesc_2_511RefVectorOfINS_10XercesStepEED0Ev = comdat any

$_ZN11xercesc_2_515BaseRefVectorOfINS_10XercesStepEE12setElementAtEPS1_j = comdat any

$_ZN11xercesc_2_515BaseRefVectorOfINS_10XercesStepEE17removeAllElementsEv = comdat any

$_ZN11xercesc_2_515BaseRefVectorOfINS_10XercesStepEE15removeElementAtEj = comdat any

$_ZN11xercesc_2_515BaseRefVectorOfINS_10XercesStepEE17removeLastElementEv = comdat any

$_ZN11xercesc_2_515BaseRefVectorOfINS_10XercesStepEE7cleanupEv = comdat any

$_ZN11xercesc_2_515BaseRefVectorOfINS_10XercesStepEED2Ev = comdat any

$_ZN11xercesc_2_515BaseRefVectorOfINS_10XercesStepEED0Ev = comdat any

$_ZN11xercesc_2_524RefHashTableOfEnumeratorINS_12KVStringPairEED0Ev = comdat any

$_ZN11xercesc_2_514RefHashTableOfINS_12KVStringPairEE14findBucketElemEPKvRj = comdat any

$_ZN11xercesc_2_514RefHashTableOfINS_12KVStringPairEE6rehashEv = comdat any

$_ZN11xercesc_2_524RefHashTableOfEnumeratorINS_9XMLAttDefEED0Ev = comdat any

$_ZN11xercesc_2_514RefHashTableOfINS_9XMLAttDefEE14findBucketElemEPKvRj = comdat any

$_ZN11xercesc_2_514RefHashTableOfINS_9XMLAttDefEE6rehashEv = comdat any

$_ZN11xercesc_2_524RefHashTableOfEnumeratorINS_9DTDAttDefEED0Ev = comdat any

$_ZN11xercesc_2_514RefHashTableOfINS_9DTDAttDefEE14findBucketElemEPKvRj = comdat any

$_ZN11xercesc_2_514RefHashTableOfINS_9DTDAttDefEE6rehashEv = comdat any

$_ZN11xercesc_2_524RefHashTableOfEnumeratorINS_15ComplexTypeInfoEED0Ev = comdat any

$_ZN11xercesc_2_514RefHashTableOfINS_15ComplexTypeInfoEE14findBucketElemEPKvRj = comdat any

$_ZN11xercesc_2_514RefHashTableOfINS_15ComplexTypeInfoEE6rehashEv = comdat any

$_ZN11xercesc_2_524RefHashTableOfEnumeratorINS_15XercesGroupInfoEED0Ev = comdat any

$_ZN11xercesc_2_514RefHashTableOfINS_15XercesGroupInfoEE14findBucketElemEPKvRj = comdat any

$_ZN11xercesc_2_514RefHashTableOfINS_15XercesGroupInfoEE6rehashEv = comdat any

$_ZN11xercesc_2_524RefHashTableOfEnumeratorINS_18XercesAttGroupInfoEED0Ev = comdat any

$_ZN11xercesc_2_514RefHashTableOfINS_18XercesAttGroupInfoEE14findBucketElemEPKvRj = comdat any

$_ZN11xercesc_2_514RefHashTableOfINS_18XercesAttGroupInfoEE6rehashEv = comdat any

$_ZN11xercesc_2_524RefHashTableOfEnumeratorINS_10XMLRefInfoEED0Ev = comdat any

$_ZN11xercesc_2_514RefHashTableOfINS_10XMLRefInfoEE14findBucketElemEPKvRj = comdat any

$_ZN11xercesc_2_514RefHashTableOfINS_10XMLRefInfoEE6rehashEv = comdat any

$_ZN11xercesc_2_524RefHashTableOfEnumeratorINS_17DatatypeValidatorEED0Ev = comdat any

$_ZN11xercesc_2_514RefHashTableOfINS_17DatatypeValidatorEE6rehashEv = comdat any

$_ZN11xercesc_2_524RefHashTableOfEnumeratorINS_7GrammarEED0Ev = comdat any

$_ZN11xercesc_2_514RefHashTableOfINS_7GrammarEE14findBucketElemEPKvRj = comdat any

$_ZN11xercesc_2_514RefHashTableOfINS_7GrammarEE6rehashEv = comdat any

$_ZN11xercesc_2_524RefHashTableOfEnumeratorINS_12XSAnnotationEED0Ev = comdat any

$_ZN11xercesc_2_524RefHashTableOfEnumeratorINS_12XSAnnotationEE11nextElementEv = comdat any

$_ZN11xercesc_2_524RefHashTableOfEnumeratorINS_12XSAnnotationEE5ResetEv = comdat any

$_ZN11xercesc_2_514RefHashTableOfINS_12XSAnnotationEE6rehashEv = comdat any

$_ZN11xercesc_2_529RefHash2KeysTableOfEnumeratorINS_13ValueVectorOfIPNS_17SchemaElementDeclEEEED0Ev = comdat any

$_ZN11xercesc_2_519RefHash2KeysTableOfINS_13ValueVectorOfIPNS_17SchemaElementDeclEEEE9removeAllEv = comdat any

$_ZN11xercesc_2_519RefHash2KeysTableOfINS_13ValueVectorOfIPNS_17SchemaElementDeclEEEE14findBucketElemEPKviRj = comdat any

$_ZN11xercesc_2_510NameIdPoolINS_14DTDElementDeclEE14findBucketElemEPKtRj = comdat any

$_ZN11xercesc_2_510NameIdPoolINS_13DTDEntityDeclEE14findBucketElemEPKtRj = comdat any

$_ZTSN11xercesc_2_57XMemoryE = comdat any

$_ZTIN11xercesc_2_57XMemoryE = comdat any

$_ZTVN11xercesc_2_513DTDEntityDeclE = comdat any

$_ZTSN11xercesc_2_513DTDEntityDeclE = comdat any

$_ZTIN11xercesc_2_513DTDEntityDeclE = comdat any

$_ZTSN11xercesc_2_530ArrayIndexOutOfBoundsExceptionE = comdat any

$_ZTIN11xercesc_2_530ArrayIndexOutOfBoundsExceptionE = comdat any

$_ZTVN11xercesc_2_530ArrayIndexOutOfBoundsExceptionE = comdat any

$_ZTSN11xercesc_2_516RuntimeExceptionE = comdat any

$_ZTIN11xercesc_2_516RuntimeExceptionE = comdat any

$_ZTVN11xercesc_2_516RuntimeExceptionE = comdat any

$_ZTVN11xercesc_2_511RefVectorOfINS_17SchemaElementDeclEEE = comdat any

$_ZTSN11xercesc_2_511RefVectorOfINS_17SchemaElementDeclEEE = comdat any

$_ZTSN11xercesc_2_515BaseRefVectorOfINS_17SchemaElementDeclEEE = comdat any

$_ZTIN11xercesc_2_515BaseRefVectorOfINS_17SchemaElementDeclEEE = comdat any

$_ZTIN11xercesc_2_511RefVectorOfINS_17SchemaElementDeclEEE = comdat any

$_ZTVN11xercesc_2_515BaseRefVectorOfINS_17SchemaElementDeclEEE = comdat any

$_ZTVN11xercesc_2_529RefHash2KeysTableOfEnumeratorINS_12SchemaAttDefEEE = comdat any

$_ZTSN11xercesc_2_529RefHash2KeysTableOfEnumeratorINS_12SchemaAttDefEEE = comdat any

$_ZTSN11xercesc_2_513XMLEnumeratorINS_12SchemaAttDefEEE = comdat any

$_ZTIN11xercesc_2_513XMLEnumeratorINS_12SchemaAttDefEEE = comdat any

$_ZTIN11xercesc_2_529RefHash2KeysTableOfEnumeratorINS_12SchemaAttDefEEE = comdat any

$_ZTSN11xercesc_2_522NoSuchElementExceptionE = comdat any

$_ZTIN11xercesc_2_522NoSuchElementExceptionE = comdat any

$_ZTVN11xercesc_2_522NoSuchElementExceptionE = comdat any

$_ZTVN11xercesc_2_511RefVectorOfINS_8IC_FieldEEE = comdat any

$_ZTSN11xercesc_2_511RefVectorOfINS_8IC_FieldEEE = comdat any

$_ZTSN11xercesc_2_515BaseRefVectorOfINS_8IC_FieldEEE = comdat any

$_ZTIN11xercesc_2_515BaseRefVectorOfINS_8IC_FieldEEE = comdat any

$_ZTIN11xercesc_2_511RefVectorOfINS_8IC_FieldEEE = comdat any

$_ZTVN11xercesc_2_515BaseRefVectorOfINS_8IC_FieldEEE = comdat any

$_ZTVN11xercesc_2_511RefVectorOfINS_18IdentityConstraintEEE = comdat any

$_ZTSN11xercesc_2_511RefVectorOfINS_18IdentityConstraintEEE = comdat any

$_ZTSN11xercesc_2_515BaseRefVectorOfINS_18IdentityConstraintEEE = comdat any

$_ZTIN11xercesc_2_515BaseRefVectorOfINS_18IdentityConstraintEEE = comdat any

$_ZTIN11xercesc_2_511RefVectorOfINS_18IdentityConstraintEEE = comdat any

$_ZTVN11xercesc_2_515BaseRefVectorOfINS_18IdentityConstraintEEE = comdat any

$_ZTVN11xercesc_2_511RefVectorOfINS_12SchemaAttDefEEE = comdat any

$_ZTSN11xercesc_2_511RefVectorOfINS_12SchemaAttDefEEE = comdat any

$_ZTSN11xercesc_2_515BaseRefVectorOfINS_12SchemaAttDefEEE = comdat any

$_ZTIN11xercesc_2_515BaseRefVectorOfINS_12SchemaAttDefEEE = comdat any

$_ZTIN11xercesc_2_511RefVectorOfINS_12SchemaAttDefEEE = comdat any

$_ZTVN11xercesc_2_515BaseRefVectorOfINS_12SchemaAttDefEEE = comdat any

$_ZTVN11xercesc_2_528RefHash3KeysIdPoolEnumeratorINS_17SchemaElementDeclEEE = comdat any

$_ZTSN11xercesc_2_528RefHash3KeysIdPoolEnumeratorINS_17SchemaElementDeclEEE = comdat any

$_ZTSN11xercesc_2_513XMLEnumeratorINS_17SchemaElementDeclEEE = comdat any

$_ZTIN11xercesc_2_513XMLEnumeratorINS_17SchemaElementDeclEEE = comdat any

$_ZTIN11xercesc_2_528RefHash3KeysIdPoolEnumeratorINS_17SchemaElementDeclEEE = comdat any

$_ZTSN11xercesc_2_524IllegalArgumentExceptionE = comdat any

$_ZTIN11xercesc_2_524IllegalArgumentExceptionE = comdat any

$_ZTVN11xercesc_2_524IllegalArgumentExceptionE = comdat any

$_ZTVN11xercesc_2_516RefArrayVectorOfItEE = comdat any

$_ZTSN11xercesc_2_516RefArrayVectorOfItEE = comdat any

$_ZTSN11xercesc_2_515BaseRefVectorOfItEE = comdat any

$_ZTIN11xercesc_2_515BaseRefVectorOfItEE = comdat any

$_ZTIN11xercesc_2_516RefArrayVectorOfItEE = comdat any

$_ZTVN11xercesc_2_515BaseRefVectorOfItEE = comdat any

$_ZTVN11xercesc_2_511RefVectorOfINS_15ContentSpecNodeEEE = comdat any

$_ZTSN11xercesc_2_511RefVectorOfINS_15ContentSpecNodeEEE = comdat any

$_ZTSN11xercesc_2_515BaseRefVectorOfINS_15ContentSpecNodeEEE = comdat any

$_ZTIN11xercesc_2_515BaseRefVectorOfINS_15ContentSpecNodeEEE = comdat any

$_ZTIN11xercesc_2_511RefVectorOfINS_15ContentSpecNodeEEE = comdat any

$_ZTVN11xercesc_2_515BaseRefVectorOfINS_15ContentSpecNodeEEE = comdat any

$_ZTVN11xercesc_2_511RefVectorOfINS_17DatatypeValidatorEEE = comdat any

$_ZTSN11xercesc_2_511RefVectorOfINS_17DatatypeValidatorEEE = comdat any

$_ZTSN11xercesc_2_515BaseRefVectorOfINS_17DatatypeValidatorEEE = comdat any

$_ZTIN11xercesc_2_515BaseRefVectorOfINS_17DatatypeValidatorEEE = comdat any

$_ZTIN11xercesc_2_511RefVectorOfINS_17DatatypeValidatorEEE = comdat any

$_ZTVN11xercesc_2_515BaseRefVectorOfINS_17DatatypeValidatorEEE = comdat any

$_ZTVN11xercesc_2_511RefVectorOfINS_9XMLNumberEEE = comdat any

$_ZTSN11xercesc_2_511RefVectorOfINS_9XMLNumberEEE = comdat any

$_ZTSN11xercesc_2_515BaseRefVectorOfINS_9XMLNumberEEE = comdat any

$_ZTIN11xercesc_2_515BaseRefVectorOfINS_9XMLNumberEEE = comdat any

$_ZTIN11xercesc_2_511RefVectorOfINS_9XMLNumberEEE = comdat any

$_ZTVN11xercesc_2_515BaseRefVectorOfINS_9XMLNumberEEE = comdat any

$_ZTVN11xercesc_2_511RefVectorOfINS_18XercesLocationPathEEE = comdat any

$_ZTSN11xercesc_2_511RefVectorOfINS_18XercesLocationPathEEE = comdat any

$_ZTSN11xercesc_2_515BaseRefVectorOfINS_18XercesLocationPathEEE = comdat any

$_ZTIN11xercesc_2_515BaseRefVectorOfINS_18XercesLocationPathEEE = comdat any

$_ZTIN11xercesc_2_511RefVectorOfINS_18XercesLocationPathEEE = comdat any

$_ZTVN11xercesc_2_515BaseRefVectorOfINS_18XercesLocationPathEEE = comdat any

$_ZTVN11xercesc_2_511RefVectorOfINS_10XercesStepEEE = comdat any

$_ZTSN11xercesc_2_511RefVectorOfINS_10XercesStepEEE = comdat any

$_ZTSN11xercesc_2_515BaseRefVectorOfINS_10XercesStepEEE = comdat any

$_ZTIN11xercesc_2_515BaseRefVectorOfINS_10XercesStepEEE = comdat any

$_ZTIN11xercesc_2_511RefVectorOfINS_10XercesStepEEE = comdat any

$_ZTVN11xercesc_2_515BaseRefVectorOfINS_10XercesStepEEE = comdat any

$_ZTVN11xercesc_2_524RefHashTableOfEnumeratorINS_12KVStringPairEEE = comdat any

$_ZTSN11xercesc_2_524RefHashTableOfEnumeratorINS_12KVStringPairEEE = comdat any

$_ZTSN11xercesc_2_513XMLEnumeratorINS_12KVStringPairEEE = comdat any

$_ZTIN11xercesc_2_513XMLEnumeratorINS_12KVStringPairEEE = comdat any

$_ZTIN11xercesc_2_524RefHashTableOfEnumeratorINS_12KVStringPairEEE = comdat any

$_ZTVN11xercesc_2_524RefHashTableOfEnumeratorINS_9XMLAttDefEEE = comdat any

$_ZTSN11xercesc_2_524RefHashTableOfEnumeratorINS_9XMLAttDefEEE = comdat any

$_ZTSN11xercesc_2_513XMLEnumeratorINS_9XMLAttDefEEE = comdat any

$_ZTIN11xercesc_2_513XMLEnumeratorINS_9XMLAttDefEEE = comdat any

$_ZTIN11xercesc_2_524RefHashTableOfEnumeratorINS_9XMLAttDefEEE = comdat any

$_ZTVN11xercesc_2_524RefHashTableOfEnumeratorINS_9DTDAttDefEEE = comdat any

$_ZTSN11xercesc_2_524RefHashTableOfEnumeratorINS_9DTDAttDefEEE = comdat any

$_ZTSN11xercesc_2_513XMLEnumeratorINS_9DTDAttDefEEE = comdat any

$_ZTIN11xercesc_2_513XMLEnumeratorINS_9DTDAttDefEEE = comdat any

$_ZTIN11xercesc_2_524RefHashTableOfEnumeratorINS_9DTDAttDefEEE = comdat any

$_ZTVN11xercesc_2_524RefHashTableOfEnumeratorINS_15ComplexTypeInfoEEE = comdat any

$_ZTSN11xercesc_2_524RefHashTableOfEnumeratorINS_15ComplexTypeInfoEEE = comdat any

$_ZTSN11xercesc_2_513XMLEnumeratorINS_15ComplexTypeInfoEEE = comdat any

$_ZTIN11xercesc_2_513XMLEnumeratorINS_15ComplexTypeInfoEEE = comdat any

$_ZTIN11xercesc_2_524RefHashTableOfEnumeratorINS_15ComplexTypeInfoEEE = comdat any

$_ZTVN11xercesc_2_524RefHashTableOfEnumeratorINS_15XercesGroupInfoEEE = comdat any

$_ZTSN11xercesc_2_524RefHashTableOfEnumeratorINS_15XercesGroupInfoEEE = comdat any

$_ZTSN11xercesc_2_513XMLEnumeratorINS_15XercesGroupInfoEEE = comdat any

$_ZTIN11xercesc_2_513XMLEnumeratorINS_15XercesGroupInfoEEE = comdat any

$_ZTIN11xercesc_2_524RefHashTableOfEnumeratorINS_15XercesGroupInfoEEE = comdat any

$_ZTVN11xercesc_2_524RefHashTableOfEnumeratorINS_18XercesAttGroupInfoEEE = comdat any

$_ZTSN11xercesc_2_524RefHashTableOfEnumeratorINS_18XercesAttGroupInfoEEE = comdat any

$_ZTSN11xercesc_2_513XMLEnumeratorINS_18XercesAttGroupInfoEEE = comdat any

$_ZTIN11xercesc_2_513XMLEnumeratorINS_18XercesAttGroupInfoEEE = comdat any

$_ZTIN11xercesc_2_524RefHashTableOfEnumeratorINS_18XercesAttGroupInfoEEE = comdat any

$_ZTVN11xercesc_2_524RefHashTableOfEnumeratorINS_10XMLRefInfoEEE = comdat any

$_ZTSN11xercesc_2_524RefHashTableOfEnumeratorINS_10XMLRefInfoEEE = comdat any

$_ZTSN11xercesc_2_513XMLEnumeratorINS_10XMLRefInfoEEE = comdat any

$_ZTIN11xercesc_2_513XMLEnumeratorINS_10XMLRefInfoEEE = comdat any

$_ZTIN11xercesc_2_524RefHashTableOfEnumeratorINS_10XMLRefInfoEEE = comdat any

$_ZTVN11xercesc_2_524RefHashTableOfEnumeratorINS_17DatatypeValidatorEEE = comdat any

$_ZTSN11xercesc_2_524RefHashTableOfEnumeratorINS_17DatatypeValidatorEEE = comdat any

$_ZTSN11xercesc_2_513XMLEnumeratorINS_17DatatypeValidatorEEE = comdat any

$_ZTIN11xercesc_2_513XMLEnumeratorINS_17DatatypeValidatorEEE = comdat any

$_ZTIN11xercesc_2_524RefHashTableOfEnumeratorINS_17DatatypeValidatorEEE = comdat any

$_ZTVN11xercesc_2_524RefHashTableOfEnumeratorINS_7GrammarEEE = comdat any

$_ZTSN11xercesc_2_524RefHashTableOfEnumeratorINS_7GrammarEEE = comdat any

$_ZTSN11xercesc_2_513XMLEnumeratorINS_7GrammarEEE = comdat any

$_ZTIN11xercesc_2_513XMLEnumeratorINS_7GrammarEEE = comdat any

$_ZTIN11xercesc_2_524RefHashTableOfEnumeratorINS_7GrammarEEE = comdat any

$_ZTVN11xercesc_2_524RefHashTableOfEnumeratorINS_12XSAnnotationEEE = comdat any

$_ZTSN11xercesc_2_524RefHashTableOfEnumeratorINS_12XSAnnotationEEE = comdat any

$_ZTSN11xercesc_2_513XMLEnumeratorINS_12XSAnnotationEEE = comdat any

$_ZTIN11xercesc_2_513XMLEnumeratorINS_12XSAnnotationEEE = comdat any

$_ZTIN11xercesc_2_524RefHashTableOfEnumeratorINS_12XSAnnotationEEE = comdat any

$_ZTVN11xercesc_2_529RefHash2KeysTableOfEnumeratorINS_13ValueVectorOfIPNS_17SchemaElementDeclEEEEE = comdat any

$_ZTSN11xercesc_2_529RefHash2KeysTableOfEnumeratorINS_13ValueVectorOfIPNS_17SchemaElementDeclEEEEE = comdat any

$_ZTSN11xercesc_2_513XMLEnumeratorINS_13ValueVectorOfIPNS_17SchemaElementDeclEEEEE = comdat any

$_ZTIN11xercesc_2_513XMLEnumeratorINS_13ValueVectorOfIPNS_17SchemaElementDeclEEEEE = comdat any

$_ZTIN11xercesc_2_529RefHash2KeysTableOfEnumeratorINS_13ValueVectorOfIPNS_17SchemaElementDeclEEEEE = comdat any

@_ZN11xercesc_2_516XSerializeEngine16defaultBufferLenE = external global i32, align 4
@_ZN11xercesc_2_516XSerializeEngine14defaultDataLenE = external global i32, align 4
@_ZTVN10__cxxabiv117__class_type_infoE = external global ptr
@_ZTVN10__cxxabiv121__vmi_class_type_infoE = external global ptr
@_ZTSN11xercesc_2_57XMemoryE = linkonce_odr dso_local constant [24 x i8] c"N11xercesc_2_57XMemoryE\00", comdat, align 1
@_ZTIN11xercesc_2_57XMemoryE = linkonce_odr dso_local constant { ptr, ptr } { ptr getelementptr inbounds (ptr, ptr @_ZTVN10__cxxabiv117__class_type_infoE, i64 2), ptr @_ZTSN11xercesc_2_57XMemoryE }, comdat, align 8
@_ZTVN11xercesc_2_513DTDEntityDeclE = linkonce_odr dso_local unnamed_addr constant { [10 x ptr] } { [10 x ptr] [ptr null, ptr @_ZTIN11xercesc_2_513DTDEntityDeclE, ptr @_ZN11xercesc_2_513XMLEntityDeclD2Ev, ptr @_ZN11xercesc_2_513DTDEntityDeclD0Ev, ptr @_ZNK11xercesc_2_513DTDEntityDecl14isSerializableEv, ptr @_ZN11xercesc_2_513DTDEntityDecl9serializeERNS_16XSerializeEngineE, ptr @_ZNK11xercesc_2_513DTDEntityDecl12getProtoTypeEv, ptr @_ZNK11xercesc_2_513DTDEntityDecl22getDeclaredInIntSubsetEv, ptr @_ZNK11xercesc_2_513DTDEntityDecl14getIsParameterEv, ptr @_ZNK11xercesc_2_513DTDEntityDecl16getIsSpecialCharEv] }, comdat, align 8, !type !0, !type !1, !type !2, !type !3, !type !4, !type !5, !type !6, !type !7, !type !8, !type !9, !type !10, !type !11, !type !12, !type !13, !type !14, !type !15, !type !16, !type !17, !type !18, !type !19, !type !20
@_ZTVN10__cxxabiv120__si_class_type_infoE = external global ptr
@_ZTSN11xercesc_2_513DTDEntityDeclE = linkonce_odr dso_local constant [31 x i8] c"N11xercesc_2_513DTDEntityDeclE\00", comdat, align 1
@_ZTIN11xercesc_2_513XMLEntityDeclE = external constant ptr
@_ZTIN11xercesc_2_513DTDEntityDeclE = linkonce_odr dso_local constant { ptr, ptr, ptr } { ptr getelementptr inbounds (ptr, ptr @_ZTVN10__cxxabiv120__si_class_type_infoE, i64 2), ptr @_ZTSN11xercesc_2_513DTDEntityDeclE, ptr @_ZTIN11xercesc_2_513XMLEntityDeclE }, comdat, align 8
@_ZN11xercesc_2_517SchemaElementDecl22classSchemaElementDeclE = external global %"class.xercesc_2_5::XProtoType", align 8
@_ZN11xercesc_2_512SchemaAttDef17classSchemaAttDefE = external global %"class.xercesc_2_5::XProtoType", align 8
@_ZN11xercesc_2_515ContentSpecNode20classContentSpecNodeE = external global %"class.xercesc_2_5::XProtoType", align 8
@_ZN11xercesc_2_58IC_Field13classIC_FieldE = external global %"class.xercesc_2_5::XProtoType", align 8
@_ZN11xercesc_2_518XercesLocationPath23classXercesLocationPathE = external global %"class.xercesc_2_5::XProtoType", align 8
@_ZN11xercesc_2_510XercesStep15classXercesStepE = external global %"class.xercesc_2_5::XProtoType", align 8
@_ZN11xercesc_2_512KVStringPair17classKVStringPairE = external global %"class.xercesc_2_5::XProtoType", align 8
@_ZN11xercesc_2_59DTDAttDef14classDTDAttDefE = external global %"class.xercesc_2_5::XProtoType", align 8
@_ZN11xercesc_2_515ComplexTypeInfo20classComplexTypeInfoE = external global %"class.xercesc_2_5::XProtoType", align 8
@_ZN11xercesc_2_515XercesGroupInfo20classXercesGroupInfoE = external global %"class.xercesc_2_5::XProtoType", align 8
@_ZN11xercesc_2_518XercesAttGroupInfo23classXercesAttGroupInfoE = external global %"class.xercesc_2_5::XProtoType", align 8
@_ZN11xercesc_2_510XMLRefInfo15classXMLRefInfoE = external global %"class.xercesc_2_5::XProtoType", align 8
@_ZN11xercesc_2_512XSAnnotation17classXSAnnotationE = external global %"class.xercesc_2_5::XProtoType", align 8
@.str = private unnamed_addr constant [33 x i8] c"./xercesc/util/BaseRefVectorOf.c\00", align 1
@_ZTSN11xercesc_2_530ArrayIndexOutOfBoundsExceptionE = linkonce_odr dso_local constant [48 x i8] c"N11xercesc_2_530ArrayIndexOutOfBoundsExceptionE\00", comdat, align 1
@_ZTIN11xercesc_2_512XMLExceptionE = external constant ptr
@_ZTIN11xercesc_2_530ArrayIndexOutOfBoundsExceptionE = linkonce_odr dso_local constant { ptr, ptr, ptr } { ptr getelementptr inbounds (ptr, ptr @_ZTVN10__cxxabiv120__si_class_type_infoE, i64 2), ptr @_ZTSN11xercesc_2_530ArrayIndexOutOfBoundsExceptionE, ptr @_ZTIN11xercesc_2_512XMLExceptionE }, comdat, align 8
@_ZTVN11xercesc_2_530ArrayIndexOutOfBoundsExceptionE = linkonce_odr dso_local unnamed_addr constant { [6 x ptr] } { [6 x ptr] [ptr null, ptr @_ZTIN11xercesc_2_530ArrayIndexOutOfBoundsExceptionE, ptr @_ZN11xercesc_2_512XMLExceptionD2Ev, ptr @_ZN11xercesc_2_530ArrayIndexOutOfBoundsExceptionD0Ev, ptr @_ZNK11xercesc_2_530ArrayIndexOutOfBoundsException7getTypeEv, ptr @_ZNK11xercesc_2_530ArrayIndexOutOfBoundsException9duplicateEv] }, comdat, align 8, !type !21, !type !22, !type !23, !type !24, !type !25, !type !26
@_ZN11xercesc_2_56XMLUni37fgArrayIndexOutOfBoundsException_NameE = external constant [0 x i16], align 2
@.str.1 = private unnamed_addr constant [37 x i8] c"./xercesc/util/RefHash2KeysTableOf.c\00", align 1
@_ZTSN11xercesc_2_516RuntimeExceptionE = linkonce_odr dso_local constant [34 x i8] c"N11xercesc_2_516RuntimeExceptionE\00", comdat, align 1
@_ZTIN11xercesc_2_516RuntimeExceptionE = linkonce_odr dso_local constant { ptr, ptr, ptr } { ptr getelementptr inbounds (ptr, ptr @_ZTVN10__cxxabiv120__si_class_type_infoE, i64 2), ptr @_ZTSN11xercesc_2_516RuntimeExceptionE, ptr @_ZTIN11xercesc_2_512XMLExceptionE }, comdat, align 8
@_ZTVN11xercesc_2_516RuntimeExceptionE = linkonce_odr dso_local unnamed_addr constant { [6 x ptr] } { [6 x ptr] [ptr null, ptr @_ZTIN11xercesc_2_516RuntimeExceptionE, ptr @_ZN11xercesc_2_512XMLExceptionD2Ev, ptr @_ZN11xercesc_2_516RuntimeExceptionD0Ev, ptr @_ZNK11xercesc_2_516RuntimeException7getTypeEv, ptr @_ZNK11xercesc_2_516RuntimeException9duplicateEv] }, comdat, align 8, !type !21, !type !22, !type !23, !type !27, !type !28, !type !29
@_ZN11xercesc_2_56XMLUni23fgRuntimeException_NameE = external constant [0 x i16], align 2
@_ZTVN11xercesc_2_511RefVectorOfINS_17SchemaElementDeclEEE = linkonce_odr dso_local unnamed_addr constant { [9 x ptr] } { [9 x ptr] [ptr null, ptr @_ZTIN11xercesc_2_511RefVectorOfINS_17SchemaElementDeclEEE, ptr @_ZN11xercesc_2_511RefVectorOfINS_17SchemaElementDeclEED2Ev, ptr @_ZN11xercesc_2_511RefVectorOfINS_17SchemaElementDeclEED0Ev, ptr @_ZN11xercesc_2_515BaseRefVectorOfINS_17SchemaElementDeclEE12setElementAtEPS1_j, ptr @_ZN11xercesc_2_515BaseRefVectorOfINS_17SchemaElementDeclEE17removeAllElementsEv, ptr @_ZN11xercesc_2_515BaseRefVectorOfINS_17SchemaElementDeclEE15removeElementAtEj, ptr @_ZN11xercesc_2_515BaseRefVectorOfINS_17SchemaElementDeclEE17removeLastElementEv, ptr @_ZN11xercesc_2_515BaseRefVectorOfINS_17SchemaElementDeclEE7cleanupEv] }, comdat, align 8, !type !30, !type !31, !type !32, !type !33, !type !34, !type !35, !type !36, !type !37, !type !38, !type !39, !type !40, !type !41
@_ZTSN11xercesc_2_511RefVectorOfINS_17SchemaElementDeclEEE = linkonce_odr dso_local constant [54 x i8] c"N11xercesc_2_511RefVectorOfINS_17SchemaElementDeclEEE\00", comdat, align 1
@_ZTSN11xercesc_2_515BaseRefVectorOfINS_17SchemaElementDeclEEE = linkonce_odr dso_local constant [58 x i8] c"N11xercesc_2_515BaseRefVectorOfINS_17SchemaElementDeclEEE\00", comdat, align 1
@_ZTIN11xercesc_2_515BaseRefVectorOfINS_17SchemaElementDeclEEE = linkonce_odr dso_local constant { ptr, ptr, ptr } { ptr getelementptr inbounds (ptr, ptr @_ZTVN10__cxxabiv120__si_class_type_infoE, i64 2), ptr @_ZTSN11xercesc_2_515BaseRefVectorOfINS_17SchemaElementDeclEEE, ptr @_ZTIN11xercesc_2_57XMemoryE }, comdat, align 8
@_ZTIN11xercesc_2_511RefVectorOfINS_17SchemaElementDeclEEE = linkonce_odr dso_local constant { ptr, ptr, ptr } { ptr getelementptr inbounds (ptr, ptr @_ZTVN10__cxxabiv120__si_class_type_infoE, i64 2), ptr @_ZTSN11xercesc_2_511RefVectorOfINS_17SchemaElementDeclEEE, ptr @_ZTIN11xercesc_2_515BaseRefVectorOfINS_17SchemaElementDeclEEE }, comdat, align 8
@_ZTVN11xercesc_2_515BaseRefVectorOfINS_17SchemaElementDeclEEE = linkonce_odr dso_local unnamed_addr constant { [9 x ptr] } { [9 x ptr] [ptr null, ptr @_ZTIN11xercesc_2_515BaseRefVectorOfINS_17SchemaElementDeclEEE, ptr @_ZN11xercesc_2_515BaseRefVectorOfINS_17SchemaElementDeclEED2Ev, ptr @_ZN11xercesc_2_515BaseRefVectorOfINS_17SchemaElementDeclEED0Ev, ptr @_ZN11xercesc_2_515BaseRefVectorOfINS_17SchemaElementDeclEE12setElementAtEPS1_j, ptr @_ZN11xercesc_2_515BaseRefVectorOfINS_17SchemaElementDeclEE17removeAllElementsEv, ptr @_ZN11xercesc_2_515BaseRefVectorOfINS_17SchemaElementDeclEE15removeElementAtEj, ptr @_ZN11xercesc_2_515BaseRefVectorOfINS_17SchemaElementDeclEE17removeLastElementEv, ptr @_ZN11xercesc_2_515BaseRefVectorOfINS_17SchemaElementDeclEE7cleanupEv] }, comdat, align 8, !type !36, !type !37, !type !38, !type !39, !type !40, !type !41
@_ZTVN11xercesc_2_529RefHash2KeysTableOfEnumeratorINS_12SchemaAttDefEEE = linkonce_odr dso_local unnamed_addr constant { [7 x ptr] } { [7 x ptr] [ptr null, ptr @_ZTIN11xercesc_2_529RefHash2KeysTableOfEnumeratorINS_12SchemaAttDefEEE, ptr @_ZN11xercesc_2_529RefHash2KeysTableOfEnumeratorINS_12SchemaAttDefEED2Ev, ptr @_ZN11xercesc_2_529RefHash2KeysTableOfEnumeratorINS_12SchemaAttDefEED0Ev, ptr @_ZNK11xercesc_2_529RefHash2KeysTableOfEnumeratorINS_12SchemaAttDefEE15hasMoreElementsEv, ptr @_ZN11xercesc_2_529RefHash2KeysTableOfEnumeratorINS_12SchemaAttDefEE11nextElementEv, ptr @_ZN11xercesc_2_529RefHash2KeysTableOfEnumeratorINS_12SchemaAttDefEE5ResetEv] }, comdat, align 8, !type !42, !type !43, !type !44, !type !45, !type !46, !type !47, !type !48, !type !49
@_ZTSN11xercesc_2_529RefHash2KeysTableOfEnumeratorINS_12SchemaAttDefEEE = linkonce_odr dso_local constant [67 x i8] c"N11xercesc_2_529RefHash2KeysTableOfEnumeratorINS_12SchemaAttDefEEE\00", comdat, align 1
@_ZTSN11xercesc_2_513XMLEnumeratorINS_12SchemaAttDefEEE = linkonce_odr dso_local constant [51 x i8] c"N11xercesc_2_513XMLEnumeratorINS_12SchemaAttDefEEE\00", comdat, align 1
@_ZTIN11xercesc_2_513XMLEnumeratorINS_12SchemaAttDefEEE = linkonce_odr dso_local constant { ptr, ptr } { ptr getelementptr inbounds (ptr, ptr @_ZTVN10__cxxabiv117__class_type_infoE, i64 2), ptr @_ZTSN11xercesc_2_513XMLEnumeratorINS_12SchemaAttDefEEE }, comdat, align 8
@_ZTIN11xercesc_2_529RefHash2KeysTableOfEnumeratorINS_12SchemaAttDefEEE = linkonce_odr dso_local constant { ptr, ptr, i32, i32, ptr, i64, ptr, i64 } { ptr getelementptr inbounds (ptr, ptr @_ZTVN10__cxxabiv121__vmi_class_type_infoE, i64 2), ptr @_ZTSN11xercesc_2_529RefHash2KeysTableOfEnumeratorINS_12SchemaAttDefEEE, i32 0, i32 2, ptr @_ZTIN11xercesc_2_513XMLEnumeratorINS_12SchemaAttDefEEE, i64 2, ptr @_ZTIN11xercesc_2_57XMemoryE, i64 2 }, comdat, align 8
@_ZTSN11xercesc_2_522NoSuchElementExceptionE = linkonce_odr dso_local constant [40 x i8] c"N11xercesc_2_522NoSuchElementExceptionE\00", comdat, align 1
@_ZTIN11xercesc_2_522NoSuchElementExceptionE = linkonce_odr dso_local constant { ptr, ptr, ptr } { ptr getelementptr inbounds (ptr, ptr @_ZTVN10__cxxabiv120__si_class_type_infoE, i64 2), ptr @_ZTSN11xercesc_2_522NoSuchElementExceptionE, ptr @_ZTIN11xercesc_2_512XMLExceptionE }, comdat, align 8
@_ZTVN11xercesc_2_522NoSuchElementExceptionE = linkonce_odr dso_local unnamed_addr constant { [6 x ptr] } { [6 x ptr] [ptr null, ptr @_ZTIN11xercesc_2_522NoSuchElementExceptionE, ptr @_ZN11xercesc_2_512XMLExceptionD2Ev, ptr @_ZN11xercesc_2_522NoSuchElementExceptionD0Ev, ptr @_ZNK11xercesc_2_522NoSuchElementException7getTypeEv, ptr @_ZNK11xercesc_2_522NoSuchElementException9duplicateEv] }, comdat, align 8, !type !21, !type !22, !type !23, !type !50, !type !51, !type !52
@_ZN11xercesc_2_56XMLUni29fgNoSuchElementException_NameE = external constant [0 x i16], align 2
@_ZTVN11xercesc_2_511RefVectorOfINS_8IC_FieldEEE = linkonce_odr dso_local unnamed_addr constant { [9 x ptr] } { [9 x ptr] [ptr null, ptr @_ZTIN11xercesc_2_511RefVectorOfINS_8IC_FieldEEE, ptr @_ZN11xercesc_2_511RefVectorOfINS_8IC_FieldEED2Ev, ptr @_ZN11xercesc_2_511RefVectorOfINS_8IC_FieldEED0Ev, ptr @_ZN11xercesc_2_515BaseRefVectorOfINS_8IC_FieldEE12setElementAtEPS1_j, ptr @_ZN11xercesc_2_515BaseRefVectorOfINS_8IC_FieldEE17removeAllElementsEv, ptr @_ZN11xercesc_2_515BaseRefVectorOfINS_8IC_FieldEE15removeElementAtEj, ptr @_ZN11xercesc_2_515BaseRefVectorOfINS_8IC_FieldEE17removeLastElementEv, ptr @_ZN11xercesc_2_515BaseRefVectorOfINS_8IC_FieldEE7cleanupEv] }, comdat, align 8, !type !53, !type !54, !type !55, !type !56, !type !57, !type !58, !type !59, !type !60, !type !61, !type !62, !type !63, !type !64
@_ZTSN11xercesc_2_511RefVectorOfINS_8IC_FieldEEE = linkonce_odr dso_local constant [44 x i8] c"N11xercesc_2_511RefVectorOfINS_8IC_FieldEEE\00", comdat, align 1
@_ZTSN11xercesc_2_515BaseRefVectorOfINS_8IC_FieldEEE = linkonce_odr dso_local constant [48 x i8] c"N11xercesc_2_515BaseRefVectorOfINS_8IC_FieldEEE\00", comdat, align 1
@_ZTIN11xercesc_2_515BaseRefVectorOfINS_8IC_FieldEEE = linkonce_odr dso_local constant { ptr, ptr, ptr } { ptr getelementptr inbounds (ptr, ptr @_ZTVN10__cxxabiv120__si_class_type_infoE, i64 2), ptr @_ZTSN11xercesc_2_515BaseRefVectorOfINS_8IC_FieldEEE, ptr @_ZTIN11xercesc_2_57XMemoryE }, comdat, align 8
@_ZTIN11xercesc_2_511RefVectorOfINS_8IC_FieldEEE = linkonce_odr dso_local constant { ptr, ptr, ptr } { ptr getelementptr inbounds (ptr, ptr @_ZTVN10__cxxabiv120__si_class_type_infoE, i64 2), ptr @_ZTSN11xercesc_2_511RefVectorOfINS_8IC_FieldEEE, ptr @_ZTIN11xercesc_2_515BaseRefVectorOfINS_8IC_FieldEEE }, comdat, align 8
@_ZTVN11xercesc_2_515BaseRefVectorOfINS_8IC_FieldEEE = linkonce_odr dso_local unnamed_addr constant { [9 x ptr] } { [9 x ptr] [ptr null, ptr @_ZTIN11xercesc_2_515BaseRefVectorOfINS_8IC_FieldEEE, ptr @_ZN11xercesc_2_515BaseRefVectorOfINS_8IC_FieldEED2Ev, ptr @_ZN11xercesc_2_515BaseRefVectorOfINS_8IC_FieldEED0Ev, ptr @_ZN11xercesc_2_515BaseRefVectorOfINS_8IC_FieldEE12setElementAtEPS1_j, ptr @_ZN11xercesc_2_515BaseRefVectorOfINS_8IC_FieldEE17removeAllElementsEv, ptr @_ZN11xercesc_2_515BaseRefVectorOfINS_8IC_FieldEE15removeElementAtEj, ptr @_ZN11xercesc_2_515BaseRefVectorOfINS_8IC_FieldEE17removeLastElementEv, ptr @_ZN11xercesc_2_515BaseRefVectorOfINS_8IC_FieldEE7cleanupEv] }, comdat, align 8, !type !59, !type !60, !type !61, !type !62, !type !63, !type !64
@_ZTVN11xercesc_2_511RefVectorOfINS_18IdentityConstraintEEE = linkonce_odr dso_local unnamed_addr constant { [9 x ptr] } { [9 x ptr] [ptr null, ptr @_ZTIN11xercesc_2_511RefVectorOfINS_18IdentityConstraintEEE, ptr @_ZN11xercesc_2_511RefVectorOfINS_18IdentityConstraintEED2Ev, ptr @_ZN11xercesc_2_511RefVectorOfINS_18IdentityConstraintEED0Ev, ptr @_ZN11xercesc_2_515BaseRefVectorOfINS_18IdentityConstraintEE12setElementAtEPS1_j, ptr @_ZN11xercesc_2_515BaseRefVectorOfINS_18IdentityConstraintEE17removeAllElementsEv, ptr @_ZN11xercesc_2_515BaseRefVectorOfINS_18IdentityConstraintEE15removeElementAtEj, ptr @_ZN11xercesc_2_515BaseRefVectorOfINS_18IdentityConstraintEE17removeLastElementEv, ptr @_ZN11xercesc_2_515BaseRefVectorOfINS_18IdentityConstraintEE7cleanupEv] }, comdat, align 8, !type !65, !type !66, !type !67, !type !68, !type !69, !type !70, !type !71, !type !72, !type !73, !type !74, !type !75, !type !76
@_ZTSN11xercesc_2_511RefVectorOfINS_18IdentityConstraintEEE = linkonce_odr dso_local constant [55 x i8] c"N11xercesc_2_511RefVectorOfINS_18IdentityConstraintEEE\00", comdat, align 1
@_ZTSN11xercesc_2_515BaseRefVectorOfINS_18IdentityConstraintEEE = linkonce_odr dso_local constant [59 x i8] c"N11xercesc_2_515BaseRefVectorOfINS_18IdentityConstraintEEE\00", comdat, align 1
@_ZTIN11xercesc_2_515BaseRefVectorOfINS_18IdentityConstraintEEE = linkonce_odr dso_local constant { ptr, ptr, ptr } { ptr getelementptr inbounds (ptr, ptr @_ZTVN10__cxxabiv120__si_class_type_infoE, i64 2), ptr @_ZTSN11xercesc_2_515BaseRefVectorOfINS_18IdentityConstraintEEE, ptr @_ZTIN11xercesc_2_57XMemoryE }, comdat, align 8
@_ZTIN11xercesc_2_511RefVectorOfINS_18IdentityConstraintEEE = linkonce_odr dso_local constant { ptr, ptr, ptr } { ptr getelementptr inbounds (ptr, ptr @_ZTVN10__cxxabiv120__si_class_type_infoE, i64 2), ptr @_ZTSN11xercesc_2_511RefVectorOfINS_18IdentityConstraintEEE, ptr @_ZTIN11xercesc_2_515BaseRefVectorOfINS_18IdentityConstraintEEE }, comdat, align 8
@_ZTVN11xercesc_2_515BaseRefVectorOfINS_18IdentityConstraintEEE = linkonce_odr dso_local unnamed_addr constant { [9 x ptr] } { [9 x ptr] [ptr null, ptr @_ZTIN11xercesc_2_515BaseRefVectorOfINS_18IdentityConstraintEEE, ptr @_ZN11xercesc_2_515BaseRefVectorOfINS_18IdentityConstraintEED2Ev, ptr @_ZN11xercesc_2_515BaseRefVectorOfINS_18IdentityConstraintEED0Ev, ptr @_ZN11xercesc_2_515BaseRefVectorOfINS_18IdentityConstraintEE12setElementAtEPS1_j, ptr @_ZN11xercesc_2_515BaseRefVectorOfINS_18IdentityConstraintEE17removeAllElementsEv, ptr @_ZN11xercesc_2_515BaseRefVectorOfINS_18IdentityConstraintEE15removeElementAtEj, ptr @_ZN11xercesc_2_515BaseRefVectorOfINS_18IdentityConstraintEE17removeLastElementEv, ptr @_ZN11xercesc_2_515BaseRefVectorOfINS_18IdentityConstraintEE7cleanupEv] }, comdat, align 8, !type !71, !type !72, !type !73, !type !74, !type !75, !type !76
@_ZTVN11xercesc_2_511RefVectorOfINS_12SchemaAttDefEEE = linkonce_odr dso_local unnamed_addr constant { [9 x ptr] } { [9 x ptr] [ptr null, ptr @_ZTIN11xercesc_2_511RefVectorOfINS_12SchemaAttDefEEE, ptr @_ZN11xercesc_2_511RefVectorOfINS_12SchemaAttDefEED2Ev, ptr @_ZN11xercesc_2_511RefVectorOfINS_12SchemaAttDefEED0Ev, ptr @_ZN11xercesc_2_515BaseRefVectorOfINS_12SchemaAttDefEE12setElementAtEPS1_j, ptr @_ZN11xercesc_2_515BaseRefVectorOfINS_12SchemaAttDefEE17removeAllElementsEv, ptr @_ZN11xercesc_2_515BaseRefVectorOfINS_12SchemaAttDefEE15removeElementAtEj, ptr @_ZN11xercesc_2_515BaseRefVectorOfINS_12SchemaAttDefEE17removeLastElementEv, ptr @_ZN11xercesc_2_515BaseRefVectorOfINS_12SchemaAttDefEE7cleanupEv] }, comdat, align 8, !type !77, !type !78, !type !79, !type !80, !type !81, !type !82, !type !83, !type !84, !type !85, !type !86, !type !87, !type !88
@_ZTSN11xercesc_2_511RefVectorOfINS_12SchemaAttDefEEE = linkonce_odr dso_local constant [49 x i8] c"N11xercesc_2_511RefVectorOfINS_12SchemaAttDefEEE\00", comdat, align 1
@_ZTSN11xercesc_2_515BaseRefVectorOfINS_12SchemaAttDefEEE = linkonce_odr dso_local constant [53 x i8] c"N11xercesc_2_515BaseRefVectorOfINS_12SchemaAttDefEEE\00", comdat, align 1
@_ZTIN11xercesc_2_515BaseRefVectorOfINS_12SchemaAttDefEEE = linkonce_odr dso_local constant { ptr, ptr, ptr } { ptr getelementptr inbounds (ptr, ptr @_ZTVN10__cxxabiv120__si_class_type_infoE, i64 2), ptr @_ZTSN11xercesc_2_515BaseRefVectorOfINS_12SchemaAttDefEEE, ptr @_ZTIN11xercesc_2_57XMemoryE }, comdat, align 8
@_ZTIN11xercesc_2_511RefVectorOfINS_12SchemaAttDefEEE = linkonce_odr dso_local constant { ptr, ptr, ptr } { ptr getelementptr inbounds (ptr, ptr @_ZTVN10__cxxabiv120__si_class_type_infoE, i64 2), ptr @_ZTSN11xercesc_2_511RefVectorOfINS_12SchemaAttDefEEE, ptr @_ZTIN11xercesc_2_515BaseRefVectorOfINS_12SchemaAttDefEEE }, comdat, align 8
@_ZTVN11xercesc_2_515BaseRefVectorOfINS_12SchemaAttDefEEE = linkonce_odr dso_local unnamed_addr constant { [9 x ptr] } { [9 x ptr] [ptr null, ptr @_ZTIN11xercesc_2_515BaseRefVectorOfINS_12SchemaAttDefEEE, ptr @_ZN11xercesc_2_515BaseRefVectorOfINS_12SchemaAttDefEED2Ev, ptr @_ZN11xercesc_2_515BaseRefVectorOfINS_12SchemaAttDefEED0Ev, ptr @_ZN11xercesc_2_515BaseRefVectorOfINS_12SchemaAttDefEE12setElementAtEPS1_j, ptr @_ZN11xercesc_2_515BaseRefVectorOfINS_12SchemaAttDefEE17removeAllElementsEv, ptr @_ZN11xercesc_2_515BaseRefVectorOfINS_12SchemaAttDefEE15removeElementAtEj, ptr @_ZN11xercesc_2_515BaseRefVectorOfINS_12SchemaAttDefEE17removeLastElementEv, ptr @_ZN11xercesc_2_515BaseRefVectorOfINS_12SchemaAttDefEE7cleanupEv] }, comdat, align 8, !type !83, !type !84, !type !85, !type !86, !type !87, !type !88
@.str.2 = private unnamed_addr constant [32 x i8] c"./xercesc/util/RefHashTableOf.c\00", align 1
@_ZTVN11xercesc_2_528RefHash3KeysIdPoolEnumeratorINS_17SchemaElementDeclEEE = linkonce_odr dso_local unnamed_addr constant { [7 x ptr] } { [7 x ptr] [ptr null, ptr @_ZTIN11xercesc_2_528RefHash3KeysIdPoolEnumeratorINS_17SchemaElementDeclEEE, ptr @_ZN11xercesc_2_528RefHash3KeysIdPoolEnumeratorINS_17SchemaElementDeclEED2Ev, ptr @_ZN11xercesc_2_528RefHash3KeysIdPoolEnumeratorINS_17SchemaElementDeclEED0Ev, ptr @_ZNK11xercesc_2_528RefHash3KeysIdPoolEnumeratorINS_17SchemaElementDeclEE15hasMoreElementsEv, ptr @_ZN11xercesc_2_528RefHash3KeysIdPoolEnumeratorINS_17SchemaElementDeclEE11nextElementEv, ptr @_ZN11xercesc_2_528RefHash3KeysIdPoolEnumeratorINS_17SchemaElementDeclEE5ResetEv] }, comdat, align 8, !type !89, !type !90, !type !91, !type !92, !type !93, !type !94, !type !95, !type !96
@.str.3 = private unnamed_addr constant [36 x i8] c"./xercesc/util/RefHash3KeysIdPool.c\00", align 1
@_ZTSN11xercesc_2_528RefHash3KeysIdPoolEnumeratorINS_17SchemaElementDeclEEE = linkonce_odr dso_local constant [71 x i8] c"N11xercesc_2_528RefHash3KeysIdPoolEnumeratorINS_17SchemaElementDeclEEE\00", comdat, align 1
@_ZTSN11xercesc_2_513XMLEnumeratorINS_17SchemaElementDeclEEE = linkonce_odr dso_local constant [56 x i8] c"N11xercesc_2_513XMLEnumeratorINS_17SchemaElementDeclEEE\00", comdat, align 1
@_ZTIN11xercesc_2_513XMLEnumeratorINS_17SchemaElementDeclEEE = linkonce_odr dso_local constant { ptr, ptr } { ptr getelementptr inbounds (ptr, ptr @_ZTVN10__cxxabiv117__class_type_infoE, i64 2), ptr @_ZTSN11xercesc_2_513XMLEnumeratorINS_17SchemaElementDeclEEE }, comdat, align 8
@_ZTIN11xercesc_2_528RefHash3KeysIdPoolEnumeratorINS_17SchemaElementDeclEEE = linkonce_odr dso_local constant { ptr, ptr, i32, i32, ptr, i64, ptr, i64 } { ptr getelementptr inbounds (ptr, ptr @_ZTVN10__cxxabiv121__vmi_class_type_infoE, i64 2), ptr @_ZTSN11xercesc_2_528RefHash3KeysIdPoolEnumeratorINS_17SchemaElementDeclEEE, i32 0, i32 2, ptr @_ZTIN11xercesc_2_513XMLEnumeratorINS_17SchemaElementDeclEEE, i64 2, ptr @_ZTIN11xercesc_2_57XMemoryE, i64 2 }, comdat, align 8
@_ZTSN11xercesc_2_524IllegalArgumentExceptionE = linkonce_odr dso_local constant [42 x i8] c"N11xercesc_2_524IllegalArgumentExceptionE\00", comdat, align 1
@_ZTIN11xercesc_2_524IllegalArgumentExceptionE = linkonce_odr dso_local constant { ptr, ptr, ptr } { ptr getelementptr inbounds (ptr, ptr @_ZTVN10__cxxabiv120__si_class_type_infoE, i64 2), ptr @_ZTSN11xercesc_2_524IllegalArgumentExceptionE, ptr @_ZTIN11xercesc_2_512XMLExceptionE }, comdat, align 8
@_ZTVN11xercesc_2_524IllegalArgumentExceptionE = linkonce_odr dso_local unnamed_addr constant { [6 x ptr] } { [6 x ptr] [ptr null, ptr @_ZTIN11xercesc_2_524IllegalArgumentExceptionE, ptr @_ZN11xercesc_2_512XMLExceptionD2Ev, ptr @_ZN11xercesc_2_524IllegalArgumentExceptionD0Ev, ptr @_ZNK11xercesc_2_524IllegalArgumentException7getTypeEv, ptr @_ZNK11xercesc_2_524IllegalArgumentException9duplicateEv] }, comdat, align 8, !type !21, !type !22, !type !23, !type !97, !type !98, !type !99
@_ZN11xercesc_2_56XMLUni31fgIllegalArgumentException_NameE = external constant [0 x i16], align 2
@.str.4 = private unnamed_addr constant [28 x i8] c"./xercesc/util/NameIdPool.c\00", align 1
@.str.5 = private unnamed_addr constant [31 x i8] c"./xercesc/util/ValueVectorOf.c\00", align 1
@_ZTVN11xercesc_2_516RefArrayVectorOfItEE = linkonce_odr dso_local unnamed_addr constant { [9 x ptr] } { [9 x ptr] [ptr null, ptr @_ZTIN11xercesc_2_516RefArrayVectorOfItEE, ptr @_ZN11xercesc_2_516RefArrayVectorOfItED2Ev, ptr @_ZN11xercesc_2_516RefArrayVectorOfItED0Ev, ptr @_ZN11xercesc_2_516RefArrayVectorOfItE12setElementAtEPtj, ptr @_ZN11xercesc_2_516RefArrayVectorOfItE17removeAllElementsEv, ptr @_ZN11xercesc_2_516RefArrayVectorOfItE15removeElementAtEj, ptr @_ZN11xercesc_2_516RefArrayVectorOfItE17removeLastElementEv, ptr @_ZN11xercesc_2_516RefArrayVectorOfItE7cleanupEv] }, comdat, align 8, !type !100, !type !101, !type !102, !type !103, !type !104, !type !105, !type !106, !type !107, !type !108, !type !109, !type !110, !type !111
@_ZTSN11xercesc_2_516RefArrayVectorOfItEE = linkonce_odr dso_local constant [37 x i8] c"N11xercesc_2_516RefArrayVectorOfItEE\00", comdat, align 1
@_ZTSN11xercesc_2_515BaseRefVectorOfItEE = linkonce_odr dso_local constant [36 x i8] c"N11xercesc_2_515BaseRefVectorOfItEE\00", comdat, align 1
@_ZTIN11xercesc_2_515BaseRefVectorOfItEE = linkonce_odr dso_local constant { ptr, ptr, ptr } { ptr getelementptr inbounds (ptr, ptr @_ZTVN10__cxxabiv120__si_class_type_infoE, i64 2), ptr @_ZTSN11xercesc_2_515BaseRefVectorOfItEE, ptr @_ZTIN11xercesc_2_57XMemoryE }, comdat, align 8
@_ZTIN11xercesc_2_516RefArrayVectorOfItEE = linkonce_odr dso_local constant { ptr, ptr, ptr } { ptr getelementptr inbounds (ptr, ptr @_ZTVN10__cxxabiv120__si_class_type_infoE, i64 2), ptr @_ZTSN11xercesc_2_516RefArrayVectorOfItEE, ptr @_ZTIN11xercesc_2_515BaseRefVectorOfItEE }, comdat, align 8
@_ZTVN11xercesc_2_515BaseRefVectorOfItEE = linkonce_odr dso_local unnamed_addr constant { [9 x ptr] } { [9 x ptr] [ptr null, ptr @_ZTIN11xercesc_2_515BaseRefVectorOfItEE, ptr @_ZN11xercesc_2_515BaseRefVectorOfItED2Ev, ptr @_ZN11xercesc_2_515BaseRefVectorOfItED0Ev, ptr @_ZN11xercesc_2_515BaseRefVectorOfItE12setElementAtEPtj, ptr @_ZN11xercesc_2_515BaseRefVectorOfItE17removeAllElementsEv, ptr @_ZN11xercesc_2_515BaseRefVectorOfItE15removeElementAtEj, ptr @_ZN11xercesc_2_515BaseRefVectorOfItE17removeLastElementEv, ptr @_ZN11xercesc_2_515BaseRefVectorOfItE7cleanupEv] }, comdat, align 8, !type !100, !type !101, !type !102, !type !103, !type !104, !type !105
@.str.6 = private unnamed_addr constant [34 x i8] c"./xercesc/util/RefArrayVectorOf.c\00", align 1
@_ZTVN11xercesc_2_511RefVectorOfINS_15ContentSpecNodeEEE = linkonce_odr dso_local unnamed_addr constant { [9 x ptr] } { [9 x ptr] [ptr null, ptr @_ZTIN11xercesc_2_511RefVectorOfINS_15ContentSpecNodeEEE, ptr @_ZN11xercesc_2_511RefVectorOfINS_15ContentSpecNodeEED2Ev, ptr @_ZN11xercesc_2_511RefVectorOfINS_15ContentSpecNodeEED0Ev, ptr @_ZN11xercesc_2_515BaseRefVectorOfINS_15ContentSpecNodeEE12setElementAtEPS1_j, ptr @_ZN11xercesc_2_515BaseRefVectorOfINS_15ContentSpecNodeEE17removeAllElementsEv, ptr @_ZN11xercesc_2_515BaseRefVectorOfINS_15ContentSpecNodeEE15removeElementAtEj, ptr @_ZN11xercesc_2_515BaseRefVectorOfINS_15ContentSpecNodeEE17removeLastElementEv, ptr @_ZN11xercesc_2_515BaseRefVectorOfINS_15ContentSpecNodeEE7cleanupEv] }, comdat, align 8, !type !112, !type !113, !type !114, !type !115, !type !116, !type !117, !type !118, !type !119, !type !120, !type !121, !type !122, !type !123
@_ZTSN11xercesc_2_511RefVectorOfINS_15ContentSpecNodeEEE = linkonce_odr dso_local constant [52 x i8] c"N11xercesc_2_511RefVectorOfINS_15ContentSpecNodeEEE\00", comdat, align 1
@_ZTSN11xercesc_2_515BaseRefVectorOfINS_15ContentSpecNodeEEE = linkonce_odr dso_local constant [56 x i8] c"N11xercesc_2_515BaseRefVectorOfINS_15ContentSpecNodeEEE\00", comdat, align 1
@_ZTIN11xercesc_2_515BaseRefVectorOfINS_15ContentSpecNodeEEE = linkonce_odr dso_local constant { ptr, ptr, ptr } { ptr getelementptr inbounds (ptr, ptr @_ZTVN10__cxxabiv120__si_class_type_infoE, i64 2), ptr @_ZTSN11xercesc_2_515BaseRefVectorOfINS_15ContentSpecNodeEEE, ptr @_ZTIN11xercesc_2_57XMemoryE }, comdat, align 8
@_ZTIN11xercesc_2_511RefVectorOfINS_15ContentSpecNodeEEE = linkonce_odr dso_local constant { ptr, ptr, ptr } { ptr getelementptr inbounds (ptr, ptr @_ZTVN10__cxxabiv120__si_class_type_infoE, i64 2), ptr @_ZTSN11xercesc_2_511RefVectorOfINS_15ContentSpecNodeEEE, ptr @_ZTIN11xercesc_2_515BaseRefVectorOfINS_15ContentSpecNodeEEE }, comdat, align 8
@_ZTVN11xercesc_2_515BaseRefVectorOfINS_15ContentSpecNodeEEE = linkonce_odr dso_local unnamed_addr constant { [9 x ptr] } { [9 x ptr] [ptr null, ptr @_ZTIN11xercesc_2_515BaseRefVectorOfINS_15ContentSpecNodeEEE, ptr @_ZN11xercesc_2_515BaseRefVectorOfINS_15ContentSpecNodeEED2Ev, ptr @_ZN11xercesc_2_515BaseRefVectorOfINS_15ContentSpecNodeEED0Ev, ptr @_ZN11xercesc_2_515BaseRefVectorOfINS_15ContentSpecNodeEE12setElementAtEPS1_j, ptr @_ZN11xercesc_2_515BaseRefVectorOfINS_15ContentSpecNodeEE17removeAllElementsEv, ptr @_ZN11xercesc_2_515BaseRefVectorOfINS_15ContentSpecNodeEE15removeElementAtEj, ptr @_ZN11xercesc_2_515BaseRefVectorOfINS_15ContentSpecNodeEE17removeLastElementEv, ptr @_ZN11xercesc_2_515BaseRefVectorOfINS_15ContentSpecNodeEE7cleanupEv] }, comdat, align 8, !type !118, !type !119, !type !120, !type !121, !type !122, !type !123
@_ZTVN11xercesc_2_511RefVectorOfINS_17DatatypeValidatorEEE = linkonce_odr dso_local unnamed_addr constant { [9 x ptr] } { [9 x ptr] [ptr null, ptr @_ZTIN11xercesc_2_511RefVectorOfINS_17DatatypeValidatorEEE, ptr @_ZN11xercesc_2_511RefVectorOfINS_17DatatypeValidatorEED2Ev, ptr @_ZN11xercesc_2_511RefVectorOfINS_17DatatypeValidatorEED0Ev, ptr @_ZN11xercesc_2_515BaseRefVectorOfINS_17DatatypeValidatorEE12setElementAtEPS1_j, ptr @_ZN11xercesc_2_515BaseRefVectorOfINS_17DatatypeValidatorEE17removeAllElementsEv, ptr @_ZN11xercesc_2_515BaseRefVectorOfINS_17DatatypeValidatorEE15removeElementAtEj, ptr @_ZN11xercesc_2_515BaseRefVectorOfINS_17DatatypeValidatorEE17removeLastElementEv, ptr @_ZN11xercesc_2_515BaseRefVectorOfINS_17DatatypeValidatorEE7cleanupEv] }, comdat, align 8, !type !124, !type !125, !type !126, !type !127, !type !128, !type !129, !type !130, !type !131, !type !132, !type !133, !type !134, !type !135
@_ZTSN11xercesc_2_511RefVectorOfINS_17DatatypeValidatorEEE = linkonce_odr dso_local constant [54 x i8] c"N11xercesc_2_511RefVectorOfINS_17DatatypeValidatorEEE\00", comdat, align 1
@_ZTSN11xercesc_2_515BaseRefVectorOfINS_17DatatypeValidatorEEE = linkonce_odr dso_local constant [58 x i8] c"N11xercesc_2_515BaseRefVectorOfINS_17DatatypeValidatorEEE\00", comdat, align 1
@_ZTIN11xercesc_2_515BaseRefVectorOfINS_17DatatypeValidatorEEE = linkonce_odr dso_local constant { ptr, ptr, ptr } { ptr getelementptr inbounds (ptr, ptr @_ZTVN10__cxxabiv120__si_class_type_infoE, i64 2), ptr @_ZTSN11xercesc_2_515BaseRefVectorOfINS_17DatatypeValidatorEEE, ptr @_ZTIN11xercesc_2_57XMemoryE }, comdat, align 8
@_ZTIN11xercesc_2_511RefVectorOfINS_17DatatypeValidatorEEE = linkonce_odr dso_local constant { ptr, ptr, ptr } { ptr getelementptr inbounds (ptr, ptr @_ZTVN10__cxxabiv120__si_class_type_infoE, i64 2), ptr @_ZTSN11xercesc_2_511RefVectorOfINS_17DatatypeValidatorEEE, ptr @_ZTIN11xercesc_2_515BaseRefVectorOfINS_17DatatypeValidatorEEE }, comdat, align 8
@_ZTVN11xercesc_2_515BaseRefVectorOfINS_17DatatypeValidatorEEE = linkonce_odr dso_local unnamed_addr constant { [9 x ptr] } { [9 x ptr] [ptr null, ptr @_ZTIN11xercesc_2_515BaseRefVectorOfINS_17DatatypeValidatorEEE, ptr @_ZN11xercesc_2_515BaseRefVectorOfINS_17DatatypeValidatorEED2Ev, ptr @_ZN11xercesc_2_515BaseRefVectorOfINS_17DatatypeValidatorEED0Ev, ptr @_ZN11xercesc_2_515BaseRefVectorOfINS_17DatatypeValidatorEE12setElementAtEPS1_j, ptr @_ZN11xercesc_2_515BaseRefVectorOfINS_17DatatypeValidatorEE17removeAllElementsEv, ptr @_ZN11xercesc_2_515BaseRefVectorOfINS_17DatatypeValidatorEE15removeElementAtEj, ptr @_ZN11xercesc_2_515BaseRefVectorOfINS_17DatatypeValidatorEE17removeLastElementEv, ptr @_ZN11xercesc_2_515BaseRefVectorOfINS_17DatatypeValidatorEE7cleanupEv] }, comdat, align 8, !type !130, !type !131, !type !132, !type !133, !type !134, !type !135
@_ZTVN11xercesc_2_511RefVectorOfINS_9XMLNumberEEE = linkonce_odr dso_local unnamed_addr constant { [9 x ptr] } { [9 x ptr] [ptr null, ptr @_ZTIN11xercesc_2_511RefVectorOfINS_9XMLNumberEEE, ptr @_ZN11xercesc_2_511RefVectorOfINS_9XMLNumberEED2Ev, ptr @_ZN11xercesc_2_511RefVectorOfINS_9XMLNumberEED0Ev, ptr @_ZN11xercesc_2_515BaseRefVectorOfINS_9XMLNumberEE12setElementAtEPS1_j, ptr @_ZN11xercesc_2_515BaseRefVectorOfINS_9XMLNumberEE17removeAllElementsEv, ptr @_ZN11xercesc_2_515BaseRefVectorOfINS_9XMLNumberEE15removeElementAtEj, ptr @_ZN11xercesc_2_515BaseRefVectorOfINS_9XMLNumberEE17removeLastElementEv, ptr @_ZN11xercesc_2_515BaseRefVectorOfINS_9XMLNumberEE7cleanupEv] }, comdat, align 8, !type !136, !type !137, !type !138, !type !139, !type !140, !type !141, !type !142, !type !143, !type !144, !type !145, !type !146, !type !147
@_ZTSN11xercesc_2_511RefVectorOfINS_9XMLNumberEEE = linkonce_odr dso_local constant [45 x i8] c"N11xercesc_2_511RefVectorOfINS_9XMLNumberEEE\00", comdat, align 1
@_ZTSN11xercesc_2_515BaseRefVectorOfINS_9XMLNumberEEE = linkonce_odr dso_local constant [49 x i8] c"N11xercesc_2_515BaseRefVectorOfINS_9XMLNumberEEE\00", comdat, align 1
@_ZTIN11xercesc_2_515BaseRefVectorOfINS_9XMLNumberEEE = linkonce_odr dso_local constant { ptr, ptr, ptr } { ptr getelementptr inbounds (ptr, ptr @_ZTVN10__cxxabiv120__si_class_type_infoE, i64 2), ptr @_ZTSN11xercesc_2_515BaseRefVectorOfINS_9XMLNumberEEE, ptr @_ZTIN11xercesc_2_57XMemoryE }, comdat, align 8
@_ZTIN11xercesc_2_511RefVectorOfINS_9XMLNumberEEE = linkonce_odr dso_local constant { ptr, ptr, ptr } { ptr getelementptr inbounds (ptr, ptr @_ZTVN10__cxxabiv120__si_class_type_infoE, i64 2), ptr @_ZTSN11xercesc_2_511RefVectorOfINS_9XMLNumberEEE, ptr @_ZTIN11xercesc_2_515BaseRefVectorOfINS_9XMLNumberEEE }, comdat, align 8
@_ZTVN11xercesc_2_515BaseRefVectorOfINS_9XMLNumberEEE = linkonce_odr dso_local unnamed_addr constant { [9 x ptr] } { [9 x ptr] [ptr null, ptr @_ZTIN11xercesc_2_515BaseRefVectorOfINS_9XMLNumberEEE, ptr @_ZN11xercesc_2_515BaseRefVectorOfINS_9XMLNumberEED2Ev, ptr @_ZN11xercesc_2_515BaseRefVectorOfINS_9XMLNumberEED0Ev, ptr @_ZN11xercesc_2_515BaseRefVectorOfINS_9XMLNumberEE12setElementAtEPS1_j, ptr @_ZN11xercesc_2_515BaseRefVectorOfINS_9XMLNumberEE17removeAllElementsEv, ptr @_ZN11xercesc_2_515BaseRefVectorOfINS_9XMLNumberEE15removeElementAtEj, ptr @_ZN11xercesc_2_515BaseRefVectorOfINS_9XMLNumberEE17removeLastElementEv, ptr @_ZN11xercesc_2_515BaseRefVectorOfINS_9XMLNumberEE7cleanupEv] }, comdat, align 8, !type !142, !type !143, !type !144, !type !145, !type !146, !type !147
@_ZTVN11xercesc_2_511RefVectorOfINS_18XercesLocationPathEEE = linkonce_odr dso_local unnamed_addr constant { [9 x ptr] } { [9 x ptr] [ptr null, ptr @_ZTIN11xercesc_2_511RefVectorOfINS_18XercesLocationPathEEE, ptr @_ZN11xercesc_2_511RefVectorOfINS_18XercesLocationPathEED2Ev, ptr @_ZN11xercesc_2_511RefVectorOfINS_18XercesLocationPathEED0Ev, ptr @_ZN11xercesc_2_515BaseRefVectorOfINS_18XercesLocationPathEE12setElementAtEPS1_j, ptr @_ZN11xercesc_2_515BaseRefVectorOfINS_18XercesLocationPathEE17removeAllElementsEv, ptr @_ZN11xercesc_2_515BaseRefVectorOfINS_18XercesLocationPathEE15removeElementAtEj, ptr @_ZN11xercesc_2_515BaseRefVectorOfINS_18XercesLocationPathEE17removeLastElementEv, ptr @_ZN11xercesc_2_515BaseRefVectorOfINS_18XercesLocationPathEE7cleanupEv] }, comdat, align 8, !type !148, !type !149, !type !150, !type !151, !type !152, !type !153, !type !154, !type !155, !type !156, !type !157, !type !158, !type !159
@_ZTSN11xercesc_2_511RefVectorOfINS_18XercesLocationPathEEE = linkonce_odr dso_local constant [55 x i8] c"N11xercesc_2_511RefVectorOfINS_18XercesLocationPathEEE\00", comdat, align 1
@_ZTSN11xercesc_2_515BaseRefVectorOfINS_18XercesLocationPathEEE = linkonce_odr dso_local constant [59 x i8] c"N11xercesc_2_515BaseRefVectorOfINS_18XercesLocationPathEEE\00", comdat, align 1
@_ZTIN11xercesc_2_515BaseRefVectorOfINS_18XercesLocationPathEEE = linkonce_odr dso_local constant { ptr, ptr, ptr } { ptr getelementptr inbounds (ptr, ptr @_ZTVN10__cxxabiv120__si_class_type_infoE, i64 2), ptr @_ZTSN11xercesc_2_515BaseRefVectorOfINS_18XercesLocationPathEEE, ptr @_ZTIN11xercesc_2_57XMemoryE }, comdat, align 8
@_ZTIN11xercesc_2_511RefVectorOfINS_18XercesLocationPathEEE = linkonce_odr dso_local constant { ptr, ptr, ptr } { ptr getelementptr inbounds (ptr, ptr @_ZTVN10__cxxabiv120__si_class_type_infoE, i64 2), ptr @_ZTSN11xercesc_2_511RefVectorOfINS_18XercesLocationPathEEE, ptr @_ZTIN11xercesc_2_515BaseRefVectorOfINS_18XercesLocationPathEEE }, comdat, align 8
@_ZTVN11xercesc_2_515BaseRefVectorOfINS_18XercesLocationPathEEE = linkonce_odr dso_local unnamed_addr constant { [9 x ptr] } { [9 x ptr] [ptr null, ptr @_ZTIN11xercesc_2_515BaseRefVectorOfINS_18XercesLocationPathEEE, ptr @_ZN11xercesc_2_515BaseRefVectorOfINS_18XercesLocationPathEED2Ev, ptr @_ZN11xercesc_2_515BaseRefVectorOfINS_18XercesLocationPathEED0Ev, ptr @_ZN11xercesc_2_515BaseRefVectorOfINS_18XercesLocationPathEE12setElementAtEPS1_j, ptr @_ZN11xercesc_2_515BaseRefVectorOfINS_18XercesLocationPathEE17removeAllElementsEv, ptr @_ZN11xercesc_2_515BaseRefVectorOfINS_18XercesLocationPathEE15removeElementAtEj, ptr @_ZN11xercesc_2_515BaseRefVectorOfINS_18XercesLocationPathEE17removeLastElementEv, ptr @_ZN11xercesc_2_515BaseRefVectorOfINS_18XercesLocationPathEE7cleanupEv] }, comdat, align 8, !type !154, !type !155, !type !156, !type !157, !type !158, !type !159
@_ZTVN11xercesc_2_511RefVectorOfINS_10XercesStepEEE = linkonce_odr dso_local unnamed_addr constant { [9 x ptr] } { [9 x ptr] [ptr null, ptr @_ZTIN11xercesc_2_511RefVectorOfINS_10XercesStepEEE, ptr @_ZN11xercesc_2_511RefVectorOfINS_10XercesStepEED2Ev, ptr @_ZN11xercesc_2_511RefVectorOfINS_10XercesStepEED0Ev, ptr @_ZN11xercesc_2_515BaseRefVectorOfINS_10XercesStepEE12setElementAtEPS1_j, ptr @_ZN11xercesc_2_515BaseRefVectorOfINS_10XercesStepEE17removeAllElementsEv, ptr @_ZN11xercesc_2_515BaseRefVectorOfINS_10XercesStepEE15removeElementAtEj, ptr @_ZN11xercesc_2_515BaseRefVectorOfINS_10XercesStepEE17removeLastElementEv, ptr @_ZN11xercesc_2_515BaseRefVectorOfINS_10XercesStepEE7cleanupEv] }, comdat, align 8, !type !160, !type !161, !type !162, !type !163, !type !164, !type !165, !type !166, !type !167, !type !168, !type !169, !type !170, !type !171
@_ZTSN11xercesc_2_511RefVectorOfINS_10XercesStepEEE = linkonce_odr dso_local constant [47 x i8] c"N11xercesc_2_511RefVectorOfINS_10XercesStepEEE\00", comdat, align 1
@_ZTSN11xercesc_2_515BaseRefVectorOfINS_10XercesStepEEE = linkonce_odr dso_local constant [51 x i8] c"N11xercesc_2_515BaseRefVectorOfINS_10XercesStepEEE\00", comdat, align 1
@_ZTIN11xercesc_2_515BaseRefVectorOfINS_10XercesStepEEE = linkonce_odr dso_local constant { ptr, ptr, ptr } { ptr getelementptr inbounds (ptr, ptr @_ZTVN10__cxxabiv120__si_class_type_infoE, i64 2), ptr @_ZTSN11xercesc_2_515BaseRefVectorOfINS_10XercesStepEEE, ptr @_ZTIN11xercesc_2_57XMemoryE }, comdat, align 8
@_ZTIN11xercesc_2_511RefVectorOfINS_10XercesStepEEE = linkonce_odr dso_local constant { ptr, ptr, ptr } { ptr getelementptr inbounds (ptr, ptr @_ZTVN10__cxxabiv120__si_class_type_infoE, i64 2), ptr @_ZTSN11xercesc_2_511RefVectorOfINS_10XercesStepEEE, ptr @_ZTIN11xercesc_2_515BaseRefVectorOfINS_10XercesStepEEE }, comdat, align 8
@_ZTVN11xercesc_2_515BaseRefVectorOfINS_10XercesStepEEE = linkonce_odr dso_local unnamed_addr constant { [9 x ptr] } { [9 x ptr] [ptr null, ptr @_ZTIN11xercesc_2_515BaseRefVectorOfINS_10XercesStepEEE, ptr @_ZN11xercesc_2_515BaseRefVectorOfINS_10XercesStepEED2Ev, ptr @_ZN11xercesc_2_515BaseRefVectorOfINS_10XercesStepEED0Ev, ptr @_ZN11xercesc_2_515BaseRefVectorOfINS_10XercesStepEE12setElementAtEPS1_j, ptr @_ZN11xercesc_2_515BaseRefVectorOfINS_10XercesStepEE17removeAllElementsEv, ptr @_ZN11xercesc_2_515BaseRefVectorOfINS_10XercesStepEE15removeElementAtEj, ptr @_ZN11xercesc_2_515BaseRefVectorOfINS_10XercesStepEE17removeLastElementEv, ptr @_ZN11xercesc_2_515BaseRefVectorOfINS_10XercesStepEE7cleanupEv] }, comdat, align 8, !type !166, !type !167, !type !168, !type !169, !type !170, !type !171
@_ZTVN11xercesc_2_524RefHashTableOfEnumeratorINS_12KVStringPairEEE = linkonce_odr dso_local unnamed_addr constant { [7 x ptr] } { [7 x ptr] [ptr null, ptr @_ZTIN11xercesc_2_524RefHashTableOfEnumeratorINS_12KVStringPairEEE, ptr @_ZN11xercesc_2_524RefHashTableOfEnumeratorINS_12KVStringPairEED2Ev, ptr @_ZN11xercesc_2_524RefHashTableOfEnumeratorINS_12KVStringPairEED0Ev, ptr @_ZNK11xercesc_2_524RefHashTableOfEnumeratorINS_12KVStringPairEE15hasMoreElementsEv, ptr @_ZN11xercesc_2_524RefHashTableOfEnumeratorINS_12KVStringPairEE11nextElementEv, ptr @_ZN11xercesc_2_524RefHashTableOfEnumeratorINS_12KVStringPairEE5ResetEv] }, comdat, align 8, !type !172, !type !173, !type !174, !type !175, !type !176, !type !177, !type !178, !type !179
@_ZTSN11xercesc_2_524RefHashTableOfEnumeratorINS_12KVStringPairEEE = linkonce_odr dso_local constant [62 x i8] c"N11xercesc_2_524RefHashTableOfEnumeratorINS_12KVStringPairEEE\00", comdat, align 1
@_ZTSN11xercesc_2_513XMLEnumeratorINS_12KVStringPairEEE = linkonce_odr dso_local constant [51 x i8] c"N11xercesc_2_513XMLEnumeratorINS_12KVStringPairEEE\00", comdat, align 1
@_ZTIN11xercesc_2_513XMLEnumeratorINS_12KVStringPairEEE = linkonce_odr dso_local constant { ptr, ptr } { ptr getelementptr inbounds (ptr, ptr @_ZTVN10__cxxabiv117__class_type_infoE, i64 2), ptr @_ZTSN11xercesc_2_513XMLEnumeratorINS_12KVStringPairEEE }, comdat, align 8
@_ZTIN11xercesc_2_524RefHashTableOfEnumeratorINS_12KVStringPairEEE = linkonce_odr dso_local constant { ptr, ptr, i32, i32, ptr, i64, ptr, i64 } { ptr getelementptr inbounds (ptr, ptr @_ZTVN10__cxxabiv121__vmi_class_type_infoE, i64 2), ptr @_ZTSN11xercesc_2_524RefHashTableOfEnumeratorINS_12KVStringPairEEE, i32 0, i32 2, ptr @_ZTIN11xercesc_2_513XMLEnumeratorINS_12KVStringPairEEE, i64 2, ptr @_ZTIN11xercesc_2_57XMemoryE, i64 2 }, comdat, align 8
@_ZTVN11xercesc_2_524RefHashTableOfEnumeratorINS_9XMLAttDefEEE = linkonce_odr dso_local unnamed_addr constant { [7 x ptr] } { [7 x ptr] [ptr null, ptr @_ZTIN11xercesc_2_524RefHashTableOfEnumeratorINS_9XMLAttDefEEE, ptr @_ZN11xercesc_2_524RefHashTableOfEnumeratorINS_9XMLAttDefEED2Ev, ptr @_ZN11xercesc_2_524RefHashTableOfEnumeratorINS_9XMLAttDefEED0Ev, ptr @_ZNK11xercesc_2_524RefHashTableOfEnumeratorINS_9XMLAttDefEE15hasMoreElementsEv, ptr @_ZN11xercesc_2_524RefHashTableOfEnumeratorINS_9XMLAttDefEE11nextElementEv, ptr @_ZN11xercesc_2_524RefHashTableOfEnumeratorINS_9XMLAttDefEE5ResetEv] }, comdat, align 8, !type !180, !type !181, !type !182, !type !183, !type !184, !type !185, !type !186, !type !187
@_ZTSN11xercesc_2_524RefHashTableOfEnumeratorINS_9XMLAttDefEEE = linkonce_odr dso_local constant [58 x i8] c"N11xercesc_2_524RefHashTableOfEnumeratorINS_9XMLAttDefEEE\00", comdat, align 1
@_ZTSN11xercesc_2_513XMLEnumeratorINS_9XMLAttDefEEE = linkonce_odr dso_local constant [47 x i8] c"N11xercesc_2_513XMLEnumeratorINS_9XMLAttDefEEE\00", comdat, align 1
@_ZTIN11xercesc_2_513XMLEnumeratorINS_9XMLAttDefEEE = linkonce_odr dso_local constant { ptr, ptr } { ptr getelementptr inbounds (ptr, ptr @_ZTVN10__cxxabiv117__class_type_infoE, i64 2), ptr @_ZTSN11xercesc_2_513XMLEnumeratorINS_9XMLAttDefEEE }, comdat, align 8
@_ZTIN11xercesc_2_524RefHashTableOfEnumeratorINS_9XMLAttDefEEE = linkonce_odr dso_local constant { ptr, ptr, i32, i32, ptr, i64, ptr, i64 } { ptr getelementptr inbounds (ptr, ptr @_ZTVN10__cxxabiv121__vmi_class_type_infoE, i64 2), ptr @_ZTSN11xercesc_2_524RefHashTableOfEnumeratorINS_9XMLAttDefEEE, i32 0, i32 2, ptr @_ZTIN11xercesc_2_513XMLEnumeratorINS_9XMLAttDefEEE, i64 2, ptr @_ZTIN11xercesc_2_57XMemoryE, i64 2 }, comdat, align 8
@_ZTVN11xercesc_2_524RefHashTableOfEnumeratorINS_9DTDAttDefEEE = linkonce_odr dso_local unnamed_addr constant { [7 x ptr] } { [7 x ptr] [ptr null, ptr @_ZTIN11xercesc_2_524RefHashTableOfEnumeratorINS_9DTDAttDefEEE, ptr @_ZN11xercesc_2_524RefHashTableOfEnumeratorINS_9DTDAttDefEED2Ev, ptr @_ZN11xercesc_2_524RefHashTableOfEnumeratorINS_9DTDAttDefEED0Ev, ptr @_ZNK11xercesc_2_524RefHashTableOfEnumeratorINS_9DTDAttDefEE15hasMoreElementsEv, ptr @_ZN11xercesc_2_524RefHashTableOfEnumeratorINS_9DTDAttDefEE11nextElementEv, ptr @_ZN11xercesc_2_524RefHashTableOfEnumeratorINS_9DTDAttDefEE5ResetEv] }, comdat, align 8, !type !188, !type !189, !type !190, !type !191, !type !192, !type !193, !type !194, !type !195
@_ZTSN11xercesc_2_524RefHashTableOfEnumeratorINS_9DTDAttDefEEE = linkonce_odr dso_local constant [58 x i8] c"N11xercesc_2_524RefHashTableOfEnumeratorINS_9DTDAttDefEEE\00", comdat, align 1
@_ZTSN11xercesc_2_513XMLEnumeratorINS_9DTDAttDefEEE = linkonce_odr dso_local constant [47 x i8] c"N11xercesc_2_513XMLEnumeratorINS_9DTDAttDefEEE\00", comdat, align 1
@_ZTIN11xercesc_2_513XMLEnumeratorINS_9DTDAttDefEEE = linkonce_odr dso_local constant { ptr, ptr } { ptr getelementptr inbounds (ptr, ptr @_ZTVN10__cxxabiv117__class_type_infoE, i64 2), ptr @_ZTSN11xercesc_2_513XMLEnumeratorINS_9DTDAttDefEEE }, comdat, align 8
@_ZTIN11xercesc_2_524RefHashTableOfEnumeratorINS_9DTDAttDefEEE = linkonce_odr dso_local constant { ptr, ptr, i32, i32, ptr, i64, ptr, i64 } { ptr getelementptr inbounds (ptr, ptr @_ZTVN10__cxxabiv121__vmi_class_type_infoE, i64 2), ptr @_ZTSN11xercesc_2_524RefHashTableOfEnumeratorINS_9DTDAttDefEEE, i32 0, i32 2, ptr @_ZTIN11xercesc_2_513XMLEnumeratorINS_9DTDAttDefEEE, i64 2, ptr @_ZTIN11xercesc_2_57XMemoryE, i64 2 }, comdat, align 8
@_ZTVN11xercesc_2_524RefHashTableOfEnumeratorINS_15ComplexTypeInfoEEE = linkonce_odr dso_local unnamed_addr constant { [7 x ptr] } { [7 x ptr] [ptr null, ptr @_ZTIN11xercesc_2_524RefHashTableOfEnumeratorINS_15ComplexTypeInfoEEE, ptr @_ZN11xercesc_2_524RefHashTableOfEnumeratorINS_15ComplexTypeInfoEED2Ev, ptr @_ZN11xercesc_2_524RefHashTableOfEnumeratorINS_15ComplexTypeInfoEED0Ev, ptr @_ZNK11xercesc_2_524RefHashTableOfEnumeratorINS_15ComplexTypeInfoEE15hasMoreElementsEv, ptr @_ZN11xercesc_2_524RefHashTableOfEnumeratorINS_15ComplexTypeInfoEE11nextElementEv, ptr @_ZN11xercesc_2_524RefHashTableOfEnumeratorINS_15ComplexTypeInfoEE5ResetEv] }, comdat, align 8, !type !196, !type !197, !type !198, !type !199, !type !200, !type !201, !type !202, !type !203
@_ZTSN11xercesc_2_524RefHashTableOfEnumeratorINS_15ComplexTypeInfoEEE = linkonce_odr dso_local constant [65 x i8] c"N11xercesc_2_524RefHashTableOfEnumeratorINS_15ComplexTypeInfoEEE\00", comdat, align 1
@_ZTSN11xercesc_2_513XMLEnumeratorINS_15ComplexTypeInfoEEE = linkonce_odr dso_local constant [54 x i8] c"N11xercesc_2_513XMLEnumeratorINS_15ComplexTypeInfoEEE\00", comdat, align 1
@_ZTIN11xercesc_2_513XMLEnumeratorINS_15ComplexTypeInfoEEE = linkonce_odr dso_local constant { ptr, ptr } { ptr getelementptr inbounds (ptr, ptr @_ZTVN10__cxxabiv117__class_type_infoE, i64 2), ptr @_ZTSN11xercesc_2_513XMLEnumeratorINS_15ComplexTypeInfoEEE }, comdat, align 8
@_ZTIN11xercesc_2_524RefHashTableOfEnumeratorINS_15ComplexTypeInfoEEE = linkonce_odr dso_local constant { ptr, ptr, i32, i32, ptr, i64, ptr, i64 } { ptr getelementptr inbounds (ptr, ptr @_ZTVN10__cxxabiv121__vmi_class_type_infoE, i64 2), ptr @_ZTSN11xercesc_2_524RefHashTableOfEnumeratorINS_15ComplexTypeInfoEEE, i32 0, i32 2, ptr @_ZTIN11xercesc_2_513XMLEnumeratorINS_15ComplexTypeInfoEEE, i64 2, ptr @_ZTIN11xercesc_2_57XMemoryE, i64 2 }, comdat, align 8
@_ZTVN11xercesc_2_524RefHashTableOfEnumeratorINS_15XercesGroupInfoEEE = linkonce_odr dso_local unnamed_addr constant { [7 x ptr] } { [7 x ptr] [ptr null, ptr @_ZTIN11xercesc_2_524RefHashTableOfEnumeratorINS_15XercesGroupInfoEEE, ptr @_ZN11xercesc_2_524RefHashTableOfEnumeratorINS_15XercesGroupInfoEED2Ev, ptr @_ZN11xercesc_2_524RefHashTableOfEnumeratorINS_15XercesGroupInfoEED0Ev, ptr @_ZNK11xercesc_2_524RefHashTableOfEnumeratorINS_15XercesGroupInfoEE15hasMoreElementsEv, ptr @_ZN11xercesc_2_524RefHashTableOfEnumeratorINS_15XercesGroupInfoEE11nextElementEv, ptr @_ZN11xercesc_2_524RefHashTableOfEnumeratorINS_15XercesGroupInfoEE5ResetEv] }, comdat, align 8, !type !204, !type !205, !type !206, !type !207, !type !208, !type !209, !type !210, !type !211
@_ZTSN11xercesc_2_524RefHashTableOfEnumeratorINS_15XercesGroupInfoEEE = linkonce_odr dso_local constant [65 x i8] c"N11xercesc_2_524RefHashTableOfEnumeratorINS_15XercesGroupInfoEEE\00", comdat, align 1
@_ZTSN11xercesc_2_513XMLEnumeratorINS_15XercesGroupInfoEEE = linkonce_odr dso_local constant [54 x i8] c"N11xercesc_2_513XMLEnumeratorINS_15XercesGroupInfoEEE\00", comdat, align 1
@_ZTIN11xercesc_2_513XMLEnumeratorINS_15XercesGroupInfoEEE = linkonce_odr dso_local constant { ptr, ptr } { ptr getelementptr inbounds (ptr, ptr @_ZTVN10__cxxabiv117__class_type_infoE, i64 2), ptr @_ZTSN11xercesc_2_513XMLEnumeratorINS_15XercesGroupInfoEEE }, comdat, align 8
@_ZTIN11xercesc_2_524RefHashTableOfEnumeratorINS_15XercesGroupInfoEEE = linkonce_odr dso_local constant { ptr, ptr, i32, i32, ptr, i64, ptr, i64 } { ptr getelementptr inbounds (ptr, ptr @_ZTVN10__cxxabiv121__vmi_class_type_infoE, i64 2), ptr @_ZTSN11xercesc_2_524RefHashTableOfEnumeratorINS_15XercesGroupInfoEEE, i32 0, i32 2, ptr @_ZTIN11xercesc_2_513XMLEnumeratorINS_15XercesGroupInfoEEE, i64 2, ptr @_ZTIN11xercesc_2_57XMemoryE, i64 2 }, comdat, align 8
@_ZTVN11xercesc_2_524RefHashTableOfEnumeratorINS_18XercesAttGroupInfoEEE = linkonce_odr dso_local unnamed_addr constant { [7 x ptr] } { [7 x ptr] [ptr null, ptr @_ZTIN11xercesc_2_524RefHashTableOfEnumeratorINS_18XercesAttGroupInfoEEE, ptr @_ZN11xercesc_2_524RefHashTableOfEnumeratorINS_18XercesAttGroupInfoEED2Ev, ptr @_ZN11xercesc_2_524RefHashTableOfEnumeratorINS_18XercesAttGroupInfoEED0Ev, ptr @_ZNK11xercesc_2_524RefHashTableOfEnumeratorINS_18XercesAttGroupInfoEE15hasMoreElementsEv, ptr @_ZN11xercesc_2_524RefHashTableOfEnumeratorINS_18XercesAttGroupInfoEE11nextElementEv, ptr @_ZN11xercesc_2_524RefHashTableOfEnumeratorINS_18XercesAttGroupInfoEE5ResetEv] }, comdat, align 8, !type !212, !type !213, !type !214, !type !215, !type !216, !type !217, !type !218, !type !219
@_ZTSN11xercesc_2_524RefHashTableOfEnumeratorINS_18XercesAttGroupInfoEEE = linkonce_odr dso_local constant [68 x i8] c"N11xercesc_2_524RefHashTableOfEnumeratorINS_18XercesAttGroupInfoEEE\00", comdat, align 1
@_ZTSN11xercesc_2_513XMLEnumeratorINS_18XercesAttGroupInfoEEE = linkonce_odr dso_local constant [57 x i8] c"N11xercesc_2_513XMLEnumeratorINS_18XercesAttGroupInfoEEE\00", comdat, align 1
@_ZTIN11xercesc_2_513XMLEnumeratorINS_18XercesAttGroupInfoEEE = linkonce_odr dso_local constant { ptr, ptr } { ptr getelementptr inbounds (ptr, ptr @_ZTVN10__cxxabiv117__class_type_infoE, i64 2), ptr @_ZTSN11xercesc_2_513XMLEnumeratorINS_18XercesAttGroupInfoEEE }, comdat, align 8
@_ZTIN11xercesc_2_524RefHashTableOfEnumeratorINS_18XercesAttGroupInfoEEE = linkonce_odr dso_local constant { ptr, ptr, i32, i32, ptr, i64, ptr, i64 } { ptr getelementptr inbounds (ptr, ptr @_ZTVN10__cxxabiv121__vmi_class_type_infoE, i64 2), ptr @_ZTSN11xercesc_2_524RefHashTableOfEnumeratorINS_18XercesAttGroupInfoEEE, i32 0, i32 2, ptr @_ZTIN11xercesc_2_513XMLEnumeratorINS_18XercesAttGroupInfoEEE, i64 2, ptr @_ZTIN11xercesc_2_57XMemoryE, i64 2 }, comdat, align 8
@_ZTVN11xercesc_2_524RefHashTableOfEnumeratorINS_10XMLRefInfoEEE = linkonce_odr dso_local unnamed_addr constant { [7 x ptr] } { [7 x ptr] [ptr null, ptr @_ZTIN11xercesc_2_524RefHashTableOfEnumeratorINS_10XMLRefInfoEEE, ptr @_ZN11xercesc_2_524RefHashTableOfEnumeratorINS_10XMLRefInfoEED2Ev, ptr @_ZN11xercesc_2_524RefHashTableOfEnumeratorINS_10XMLRefInfoEED0Ev, ptr @_ZNK11xercesc_2_524RefHashTableOfEnumeratorINS_10XMLRefInfoEE15hasMoreElementsEv, ptr @_ZN11xercesc_2_524RefHashTableOfEnumeratorINS_10XMLRefInfoEE11nextElementEv, ptr @_ZN11xercesc_2_524RefHashTableOfEnumeratorINS_10XMLRefInfoEE5ResetEv] }, comdat, align 8, !type !220, !type !221, !type !222, !type !223, !type !224, !type !225, !type !226, !type !227
@_ZTSN11xercesc_2_524RefHashTableOfEnumeratorINS_10XMLRefInfoEEE = linkonce_odr dso_local constant [60 x i8] c"N11xercesc_2_524RefHashTableOfEnumeratorINS_10XMLRefInfoEEE\00", comdat, align 1
@_ZTSN11xercesc_2_513XMLEnumeratorINS_10XMLRefInfoEEE = linkonce_odr dso_local constant [49 x i8] c"N11xercesc_2_513XMLEnumeratorINS_10XMLRefInfoEEE\00", comdat, align 1
@_ZTIN11xercesc_2_513XMLEnumeratorINS_10XMLRefInfoEEE = linkonce_odr dso_local constant { ptr, ptr } { ptr getelementptr inbounds (ptr, ptr @_ZTVN10__cxxabiv117__class_type_infoE, i64 2), ptr @_ZTSN11xercesc_2_513XMLEnumeratorINS_10XMLRefInfoEEE }, comdat, align 8
@_ZTIN11xercesc_2_524RefHashTableOfEnumeratorINS_10XMLRefInfoEEE = linkonce_odr dso_local constant { ptr, ptr, i32, i32, ptr, i64, ptr, i64 } { ptr getelementptr inbounds (ptr, ptr @_ZTVN10__cxxabiv121__vmi_class_type_infoE, i64 2), ptr @_ZTSN11xercesc_2_524RefHashTableOfEnumeratorINS_10XMLRefInfoEEE, i32 0, i32 2, ptr @_ZTIN11xercesc_2_513XMLEnumeratorINS_10XMLRefInfoEEE, i64 2, ptr @_ZTIN11xercesc_2_57XMemoryE, i64 2 }, comdat, align 8
@_ZTVN11xercesc_2_524RefHashTableOfEnumeratorINS_17DatatypeValidatorEEE = linkonce_odr dso_local unnamed_addr constant { [7 x ptr] } { [7 x ptr] [ptr null, ptr @_ZTIN11xercesc_2_524RefHashTableOfEnumeratorINS_17DatatypeValidatorEEE, ptr @_ZN11xercesc_2_524RefHashTableOfEnumeratorINS_17DatatypeValidatorEED2Ev, ptr @_ZN11xercesc_2_524RefHashTableOfEnumeratorINS_17DatatypeValidatorEED0Ev, ptr @_ZNK11xercesc_2_524RefHashTableOfEnumeratorINS_17DatatypeValidatorEE15hasMoreElementsEv, ptr @_ZN11xercesc_2_524RefHashTableOfEnumeratorINS_17DatatypeValidatorEE11nextElementEv, ptr @_ZN11xercesc_2_524RefHashTableOfEnumeratorINS_17DatatypeValidatorEE5ResetEv] }, comdat, align 8, !type !228, !type !229, !type !230, !type !231, !type !232, !type !233, !type !234, !type !235
@_ZTSN11xercesc_2_524RefHashTableOfEnumeratorINS_17DatatypeValidatorEEE = linkonce_odr dso_local constant [67 x i8] c"N11xercesc_2_524RefHashTableOfEnumeratorINS_17DatatypeValidatorEEE\00", comdat, align 1
@_ZTSN11xercesc_2_513XMLEnumeratorINS_17DatatypeValidatorEEE = linkonce_odr dso_local constant [56 x i8] c"N11xercesc_2_513XMLEnumeratorINS_17DatatypeValidatorEEE\00", comdat, align 1
@_ZTIN11xercesc_2_513XMLEnumeratorINS_17DatatypeValidatorEEE = linkonce_odr dso_local constant { ptr, ptr } { ptr getelementptr inbounds (ptr, ptr @_ZTVN10__cxxabiv117__class_type_infoE, i64 2), ptr @_ZTSN11xercesc_2_513XMLEnumeratorINS_17DatatypeValidatorEEE }, comdat, align 8
@_ZTIN11xercesc_2_524RefHashTableOfEnumeratorINS_17DatatypeValidatorEEE = linkonce_odr dso_local constant { ptr, ptr, i32, i32, ptr, i64, ptr, i64 } { ptr getelementptr inbounds (ptr, ptr @_ZTVN10__cxxabiv121__vmi_class_type_infoE, i64 2), ptr @_ZTSN11xercesc_2_524RefHashTableOfEnumeratorINS_17DatatypeValidatorEEE, i32 0, i32 2, ptr @_ZTIN11xercesc_2_513XMLEnumeratorINS_17DatatypeValidatorEEE, i64 2, ptr @_ZTIN11xercesc_2_57XMemoryE, i64 2 }, comdat, align 8
@_ZTVN11xercesc_2_524RefHashTableOfEnumeratorINS_7GrammarEEE = linkonce_odr dso_local unnamed_addr constant { [7 x ptr] } { [7 x ptr] [ptr null, ptr @_ZTIN11xercesc_2_524RefHashTableOfEnumeratorINS_7GrammarEEE, ptr @_ZN11xercesc_2_524RefHashTableOfEnumeratorINS_7GrammarEED2Ev, ptr @_ZN11xercesc_2_524RefHashTableOfEnumeratorINS_7GrammarEED0Ev, ptr @_ZNK11xercesc_2_524RefHashTableOfEnumeratorINS_7GrammarEE15hasMoreElementsEv, ptr @_ZN11xercesc_2_524RefHashTableOfEnumeratorINS_7GrammarEE11nextElementEv, ptr @_ZN11xercesc_2_524RefHashTableOfEnumeratorINS_7GrammarEE5ResetEv] }, comdat, align 8, !type !236, !type !237, !type !238, !type !239, !type !240, !type !241, !type !242, !type !243
@_ZTSN11xercesc_2_524RefHashTableOfEnumeratorINS_7GrammarEEE = linkonce_odr dso_local constant [56 x i8] c"N11xercesc_2_524RefHashTableOfEnumeratorINS_7GrammarEEE\00", comdat, align 1
@_ZTSN11xercesc_2_513XMLEnumeratorINS_7GrammarEEE = linkonce_odr dso_local constant [45 x i8] c"N11xercesc_2_513XMLEnumeratorINS_7GrammarEEE\00", comdat, align 1
@_ZTIN11xercesc_2_513XMLEnumeratorINS_7GrammarEEE = linkonce_odr dso_local constant { ptr, ptr } { ptr getelementptr inbounds (ptr, ptr @_ZTVN10__cxxabiv117__class_type_infoE, i64 2), ptr @_ZTSN11xercesc_2_513XMLEnumeratorINS_7GrammarEEE }, comdat, align 8
@_ZTIN11xercesc_2_524RefHashTableOfEnumeratorINS_7GrammarEEE = linkonce_odr dso_local constant { ptr, ptr, i32, i32, ptr, i64, ptr, i64 } { ptr getelementptr inbounds (ptr, ptr @_ZTVN10__cxxabiv121__vmi_class_type_infoE, i64 2), ptr @_ZTSN11xercesc_2_524RefHashTableOfEnumeratorINS_7GrammarEEE, i32 0, i32 2, ptr @_ZTIN11xercesc_2_513XMLEnumeratorINS_7GrammarEEE, i64 2, ptr @_ZTIN11xercesc_2_57XMemoryE, i64 2 }, comdat, align 8
@_ZTVN11xercesc_2_524RefHashTableOfEnumeratorINS_12XSAnnotationEEE = linkonce_odr dso_local unnamed_addr constant { [7 x ptr] } { [7 x ptr] [ptr null, ptr @_ZTIN11xercesc_2_524RefHashTableOfEnumeratorINS_12XSAnnotationEEE, ptr @_ZN11xercesc_2_524RefHashTableOfEnumeratorINS_12XSAnnotationEED2Ev, ptr @_ZN11xercesc_2_524RefHashTableOfEnumeratorINS_12XSAnnotationEED0Ev, ptr @_ZNK11xercesc_2_524RefHashTableOfEnumeratorINS_12XSAnnotationEE15hasMoreElementsEv, ptr @_ZN11xercesc_2_524RefHashTableOfEnumeratorINS_12XSAnnotationEE11nextElementEv, ptr @_ZN11xercesc_2_524RefHashTableOfEnumeratorINS_12XSAnnotationEE5ResetEv] }, comdat, align 8, !type !244, !type !245, !type !246, !type !247, !type !248, !type !249, !type !250, !type !251
@_ZTSN11xercesc_2_524RefHashTableOfEnumeratorINS_12XSAnnotationEEE = linkonce_odr dso_local constant [62 x i8] c"N11xercesc_2_524RefHashTableOfEnumeratorINS_12XSAnnotationEEE\00", comdat, align 1
@_ZTSN11xercesc_2_513XMLEnumeratorINS_12XSAnnotationEEE = linkonce_odr dso_local constant [51 x i8] c"N11xercesc_2_513XMLEnumeratorINS_12XSAnnotationEEE\00", comdat, align 1
@_ZTIN11xercesc_2_513XMLEnumeratorINS_12XSAnnotationEEE = linkonce_odr dso_local constant { ptr, ptr } { ptr getelementptr inbounds (ptr, ptr @_ZTVN10__cxxabiv117__class_type_infoE, i64 2), ptr @_ZTSN11xercesc_2_513XMLEnumeratorINS_12XSAnnotationEEE }, comdat, align 8
@_ZTIN11xercesc_2_524RefHashTableOfEnumeratorINS_12XSAnnotationEEE = linkonce_odr dso_local constant { ptr, ptr, i32, i32, ptr, i64, ptr, i64 } { ptr getelementptr inbounds (ptr, ptr @_ZTVN10__cxxabiv121__vmi_class_type_infoE, i64 2), ptr @_ZTSN11xercesc_2_524RefHashTableOfEnumeratorINS_12XSAnnotationEEE, i32 0, i32 2, ptr @_ZTIN11xercesc_2_513XMLEnumeratorINS_12XSAnnotationEEE, i64 2, ptr @_ZTIN11xercesc_2_57XMemoryE, i64 2 }, comdat, align 8
@_ZTVN11xercesc_2_529RefHash2KeysTableOfEnumeratorINS_13ValueVectorOfIPNS_17SchemaElementDeclEEEEE = linkonce_odr dso_local unnamed_addr constant { [7 x ptr] } { [7 x ptr] [ptr null, ptr @_ZTIN11xercesc_2_529RefHash2KeysTableOfEnumeratorINS_13ValueVectorOfIPNS_17SchemaElementDeclEEEEE, ptr @_ZN11xercesc_2_529RefHash2KeysTableOfEnumeratorINS_13ValueVectorOfIPNS_17SchemaElementDeclEEEED2Ev, ptr @_ZN11xercesc_2_529RefHash2KeysTableOfEnumeratorINS_13ValueVectorOfIPNS_17SchemaElementDeclEEEED0Ev, ptr @_ZNK11xercesc_2_529RefHash2KeysTableOfEnumeratorINS_13ValueVectorOfIPNS_17SchemaElementDeclEEEE15hasMoreElementsEv, ptr @_ZN11xercesc_2_529RefHash2KeysTableOfEnumeratorINS_13ValueVectorOfIPNS_17SchemaElementDeclEEEE11nextElementEv, ptr @_ZN11xercesc_2_529RefHash2KeysTableOfEnumeratorINS_13ValueVectorOfIPNS_17SchemaElementDeclEEEE5ResetEv] }, comdat, align 8, !type !252, !type !253, !type !254, !type !255, !type !256, !type !257, !type !258, !type !259
@_ZTSN11xercesc_2_529RefHash2KeysTableOfEnumeratorINS_13ValueVectorOfIPNS_17SchemaElementDeclEEEEE = linkonce_odr dso_local constant [94 x i8] c"N11xercesc_2_529RefHash2KeysTableOfEnumeratorINS_13ValueVectorOfIPNS_17SchemaElementDeclEEEEE\00", comdat, align 1
@_ZTSN11xercesc_2_513XMLEnumeratorINS_13ValueVectorOfIPNS_17SchemaElementDeclEEEEE = linkonce_odr dso_local constant [78 x i8] c"N11xercesc_2_513XMLEnumeratorINS_13ValueVectorOfIPNS_17SchemaElementDeclEEEEE\00", comdat, align 1
@_ZTIN11xercesc_2_513XMLEnumeratorINS_13ValueVectorOfIPNS_17SchemaElementDeclEEEEE = linkonce_odr dso_local constant { ptr, ptr } { ptr getelementptr inbounds (ptr, ptr @_ZTVN10__cxxabiv117__class_type_infoE, i64 2), ptr @_ZTSN11xercesc_2_513XMLEnumeratorINS_13ValueVectorOfIPNS_17SchemaElementDeclEEEEE }, comdat, align 8
@_ZTIN11xercesc_2_529RefHash2KeysTableOfEnumeratorINS_13ValueVectorOfIPNS_17SchemaElementDeclEEEEE = linkonce_odr dso_local constant { ptr, ptr, i32, i32, ptr, i64, ptr, i64 } { ptr getelementptr inbounds (ptr, ptr @_ZTVN10__cxxabiv121__vmi_class_type_infoE, i64 2), ptr @_ZTSN11xercesc_2_529RefHash2KeysTableOfEnumeratorINS_13ValueVectorOfIPNS_17SchemaElementDeclEEEEE, i32 0, i32 2, ptr @_ZTIN11xercesc_2_513XMLEnumeratorINS_13ValueVectorOfIPNS_17SchemaElementDeclEEEEE, i64 2, ptr @_ZTIN11xercesc_2_57XMemoryE, i64 2 }, comdat, align 8

declare i32 @__gxx_personality_v0(...)

; Function Attrs: nobuiltin nounwind
declare void @_ZdlPv(ptr noundef) local_unnamed_addr #0

; Function Attrs: noinline noreturn nounwind uwtable
define linkonce_odr hidden void @__clang_call_terminate(ptr noundef %0) local_unnamed_addr #1 comdat {
  %2 = tail call ptr @__cxa_begin_catch(ptr %0) #11
  tail call void @_ZSt9terminatev() #12
  unreachable
}

declare ptr @__cxa_begin_catch(ptr) local_unnamed_addr

declare void @_ZSt9terminatev() local_unnamed_addr

declare void @_ZN11xercesc_2_57XMemorydlEPv(ptr noundef) local_unnamed_addr #2

; Function Attrs: inlinehint uwtable
define linkonce_odr dso_local void @_ZN11xercesc_2_513DTDEntityDeclD0Ev(ptr noundef nonnull align 8 dereferenceable(75) %0) unnamed_addr #3 comdat align 2 personality ptr @__gxx_personality_v0 {
  invoke void @_ZN11xercesc_2_513XMLEntityDeclD2Ev(ptr noundef nonnull align 8 dereferenceable(75) %0)
          to label %2 unwind label %3

2:                                                ; preds = %1
  tail call void @_ZN11xercesc_2_57XMemorydlEPv(ptr noundef nonnull %0)
  ret void

3:                                                ; preds = %1
  %4 = landingpad { ptr, i32 }
          cleanup
  invoke void @_ZN11xercesc_2_57XMemorydlEPv(ptr noundef nonnull %0)
          to label %5 unwind label %6

5:                                                ; preds = %3
  resume { ptr, i32 } %4

6:                                                ; preds = %3
  %7 = landingpad { ptr, i32 }
          catch ptr null
  %8 = extractvalue { ptr, i32 } %7, 0
  tail call void @__clang_call_terminate(ptr %8) #12
  unreachable
}

declare void @_ZN11xercesc_2_513XMLEntityDeclD2Ev(ptr noundef nonnull align 8 dereferenceable(72)) unnamed_addr #2

; Function Attrs: uwtable
define dso_local void @_ZN11xercesc_2_519XTemplateSerializer11storeObjectEPNS_13ValueVectorOfIPNS_17SchemaElementDeclEEERNS_16XSerializeEngineE(ptr noundef %0, ptr noundef nonnull align 8 dereferenceable(92) %1) local_unnamed_addr #4 align 2 personality ptr @__gxx_personality_v0 {
  %3 = tail call noundef zeroext i1 @_ZN11xercesc_2_516XSerializeEngine17needToStoreObjectEPv(ptr noundef nonnull align 8 dereferenceable(92) %1, ptr noundef %0)
  br i1 %3, label %4, label %30

4:                                                ; preds = %2
  %5 = getelementptr inbounds %"class.xercesc_2_5::ValueVectorOf.0", ptr %0, i64 0, i32 1
  %6 = load i32, ptr %5, align 4, !tbaa !267
  %7 = tail call noundef nonnull align 8 dereferenceable(92) ptr @_ZN11xercesc_2_516XSerializeEnginelsEi(ptr noundef nonnull align 8 dereferenceable(92) %1, i32 noundef %6)
  %8 = icmp sgt i32 %6, 0
  br i1 %8, label %9, label %30

9:                                                ; preds = %4
  %10 = getelementptr inbounds %"class.xercesc_2_5::ValueVectorOf.0", ptr %0, i64 0, i32 3
  %11 = zext i32 %6 to i64
  br label %12

12:                                               ; preds = %9, %24
  %13 = phi i64 [ 0, %9 ], [ %28, %24 ]
  %14 = load i32, ptr %5, align 4, !tbaa !267
  %15 = zext i32 %14 to i64
  %16 = icmp ult i64 %13, %15
  br i1 %16, label %24, label %17

17:                                               ; preds = %12
  %18 = tail call ptr @__cxa_allocate_exception(i64 48) #11
  %19 = getelementptr inbounds %"class.xercesc_2_5::ValueVectorOf.0", ptr %0, i64 0, i32 4
  %20 = load ptr, ptr %19, align 8, !tbaa !274
  invoke void @_ZN11xercesc_2_530ArrayIndexOutOfBoundsExceptionC2EPKcjNS_10XMLExcepts5CodesEPNS_13MemoryManagerE(ptr noundef nonnull align 8 dereferenceable(48) %18, ptr noundef nonnull @.str.5, i32 noundef 293, i32 noundef 109, ptr noundef %20)
          to label %21 unwind label %22

21:                                               ; preds = %17
  tail call void @__cxa_throw(ptr nonnull %18, ptr nonnull @_ZTIN11xercesc_2_530ArrayIndexOutOfBoundsExceptionE, ptr nonnull @_ZN11xercesc_2_512XMLExceptionD2Ev) #13
  unreachable

22:                                               ; preds = %17
  %23 = landingpad { ptr, i32 }
          cleanup
  tail call void @__cxa_free_exception(ptr %18) #11
  resume { ptr, i32 } %23

24:                                               ; preds = %12
  %25 = load ptr, ptr %10, align 8, !tbaa !275
  %26 = getelementptr inbounds ptr, ptr %25, i64 %13
  %27 = load ptr, ptr %26, align 8, !tbaa !276
  tail call void @_ZN11xercesc_2_516XSerializeEngine5writeEPNS_13XSerializableE(ptr noundef nonnull align 8 dereferenceable(92) %1, ptr noundef %27)
  %28 = add nuw nsw i64 %13, 1
  %29 = icmp eq i64 %28, %11
  br i1 %29, label %30, label %12

30:                                               ; preds = %24, %4, %2
  ret void
}

declare noundef zeroext i1 @_ZN11xercesc_2_516XSerializeEngine17needToStoreObjectEPv(ptr noundef nonnull align 8 dereferenceable(92), ptr noundef) local_unnamed_addr #2

; Function Attrs: mustprogress nocallback nofree nosync nounwind willreturn memory(argmem: readwrite)
declare void @llvm.lifetime.start.p0(i64 immarg, ptr nocapture) #5

declare noundef nonnull align 8 dereferenceable(92) ptr @_ZN11xercesc_2_516XSerializeEnginelsEi(ptr noundef nonnull align 8 dereferenceable(92), i32 noundef) local_unnamed_addr #2

; Function Attrs: mustprogress nocallback nofree nosync nounwind willreturn memory(argmem: readwrite)
declare void @llvm.lifetime.end.p0(i64 immarg, ptr nocapture) #5

; Function Attrs: uwtable
define dso_local void @_ZN11xercesc_2_519XTemplateSerializer10loadObjectEPPNS_13ValueVectorOfIPNS_17SchemaElementDeclEEEibRNS_16XSerializeEngineE(ptr noundef %0, i32 noundef %1, i1 noundef zeroext %2, ptr noundef nonnull align 8 dereferenceable(92) %3) local_unnamed_addr #4 align 2 personality ptr @__gxx_personality_v0 {
  %5 = alloca i32, align 4
  %6 = tail call noundef zeroext i1 @_ZN11xercesc_2_516XSerializeEngine16needToLoadObjectEPPv(ptr noundef nonnull align 8 dereferenceable(92) %3, ptr noundef %0)
  br i1 %6, label %7, label %97

7:                                                ; preds = %4
  %8 = load ptr, ptr %0, align 8, !tbaa !276
  %9 = icmp eq ptr %8, null
  br i1 %9, label %10, label %34

10:                                               ; preds = %7
  %11 = icmp slt i32 %1, 0
  %12 = select i1 %11, i32 16, i32 %1
  %13 = getelementptr inbounds %"class.xercesc_2_5::XSerializeEngine", ptr %3, i64 0, i32 2
  %14 = load ptr, ptr %13, align 8, !tbaa !277
  %15 = tail call noundef ptr @_ZN11xercesc_2_57XMemorynwEmPNS_13MemoryManagerE(i64 noundef 32, ptr noundef %14)
  %16 = load ptr, ptr %13, align 8, !tbaa !277
  %17 = zext i1 %2 to i8
  store i8 %17, ptr %15, align 8, !tbaa !281
  %18 = getelementptr inbounds %"class.xercesc_2_5::ValueVectorOf.0", ptr %15, i64 0, i32 1
  store i32 0, ptr %18, align 4, !tbaa !267
  %19 = getelementptr inbounds %"class.xercesc_2_5::ValueVectorOf.0", ptr %15, i64 0, i32 2
  store i32 %12, ptr %19, align 8, !tbaa !282
  %20 = getelementptr inbounds %"class.xercesc_2_5::ValueVectorOf.0", ptr %15, i64 0, i32 3
  store ptr null, ptr %20, align 8, !tbaa !275
  %21 = getelementptr inbounds %"class.xercesc_2_5::ValueVectorOf.0", ptr %15, i64 0, i32 4
  store ptr %16, ptr %21, align 8, !tbaa !274
  %22 = zext i32 %12 to i64
  %23 = shl nuw nsw i64 %22, 3
  %24 = load ptr, ptr %16, align 8, !tbaa !283
  %25 = getelementptr inbounds ptr, ptr %24, i64 2
  %26 = load ptr, ptr %25, align 8
  %27 = invoke noundef ptr %26(ptr noundef nonnull align 8 dereferenceable(8) %16, i64 noundef %23)
          to label %28 unwind label %32

28:                                               ; preds = %10
  store ptr %27, ptr %20, align 8, !tbaa !275
  %29 = load i32, ptr %19, align 8, !tbaa !282
  %30 = zext i32 %29 to i64
  %31 = shl nuw nsw i64 %30, 3
  tail call void @llvm.memset.p0.i64(ptr align 8 %27, i8 0, i64 %31, i1 false)
  store ptr %15, ptr %0, align 8, !tbaa !276
  br label %34

32:                                               ; preds = %10
  %33 = landingpad { ptr, i32 }
          cleanup
  invoke void @_ZN11xercesc_2_57XMemorydlEPvPNS_13MemoryManagerE(ptr noundef nonnull %15, ptr noundef %14)
          to label %98 unwind label %99

34:                                               ; preds = %28, %7
  %35 = phi ptr [ %15, %28 ], [ %8, %7 ]
  tail call void @_ZN11xercesc_2_516XSerializeEngine14registerObjectEPv(ptr noundef nonnull align 8 dereferenceable(92) %3, ptr noundef nonnull %35)
  call void @llvm.lifetime.start.p0(i64 4, ptr nonnull %5) #11
  store i32 0, ptr %5, align 4, !tbaa !285
  %36 = call noundef nonnull align 8 dereferenceable(92) ptr @_ZN11xercesc_2_516XSerializeEnginersERi(ptr noundef nonnull align 8 dereferenceable(92) %3, ptr noundef nonnull align 4 dereferenceable(4) %5)
  %37 = load i32, ptr %5, align 4, !tbaa !285
  %38 = icmp sgt i32 %37, 0
  br i1 %38, label %40, label %39

39:                                               ; preds = %88, %34
  call void @llvm.lifetime.end.p0(i64 4, ptr nonnull %5) #11
  br label %97

40:                                               ; preds = %34, %88
  %41 = phi i32 [ %94, %88 ], [ 0, %34 ]
  %42 = call noundef ptr @_ZN11xercesc_2_516XSerializeEngine4readEPNS_10XProtoTypeE(ptr noundef nonnull align 8 dereferenceable(92) %3, ptr noundef nonnull @_ZN11xercesc_2_517SchemaElementDecl22classSchemaElementDeclE)
  %43 = load ptr, ptr %0, align 8, !tbaa !276
  %44 = getelementptr inbounds %"class.xercesc_2_5::ValueVectorOf.0", ptr %43, i64 0, i32 1
  %45 = load i32, ptr %44, align 4, !tbaa !267
  %46 = add i32 %45, 1
  %47 = getelementptr inbounds %"class.xercesc_2_5::ValueVectorOf.0", ptr %43, i64 0, i32 2
  %48 = load i32, ptr %47, align 8, !tbaa !282
  %49 = icmp ult i32 %46, %48
  br i1 %49, label %50, label %53

50:                                               ; preds = %40
  %51 = getelementptr inbounds %"class.xercesc_2_5::ValueVectorOf.0", ptr %43, i64 0, i32 3
  %52 = load ptr, ptr %51, align 8, !tbaa !275
  br label %88

53:                                               ; preds = %40
  %54 = uitofp i32 %45 to double
  %55 = fmul reassoc nnan ninf nsz arcp afn double %54, 1.250000e+00
  %56 = fptoui double %55 to i32
  %57 = call i32 @llvm.umax.i32(i32 %46, i32 %56)
  %58 = getelementptr inbounds %"class.xercesc_2_5::ValueVectorOf.0", ptr %43, i64 0, i32 4
  %59 = load ptr, ptr %58, align 8, !tbaa !274
  %60 = zext i32 %57 to i64
  %61 = shl nuw nsw i64 %60, 3
  %62 = load ptr, ptr %59, align 8, !tbaa !283
  %63 = getelementptr inbounds ptr, ptr %62, i64 2
  %64 = load ptr, ptr %63, align 8
  %65 = call noundef ptr %64(ptr noundef nonnull align 8 dereferenceable(8) %59, i64 noundef %61)
  %66 = load i32, ptr %44, align 4, !tbaa !267
  %67 = icmp eq i32 %66, 0
  br i1 %67, label %71, label %68

68:                                               ; preds = %53
  %69 = getelementptr inbounds %"class.xercesc_2_5::ValueVectorOf.0", ptr %43, i64 0, i32 3
  %70 = zext i32 %66 to i64
  br label %80

71:                                               ; preds = %80, %53
  %72 = load ptr, ptr %58, align 8, !tbaa !274
  %73 = getelementptr inbounds %"class.xercesc_2_5::ValueVectorOf.0", ptr %43, i64 0, i32 3
  %74 = load ptr, ptr %73, align 8, !tbaa !275
  %75 = load ptr, ptr %72, align 8, !tbaa !283
  %76 = getelementptr inbounds ptr, ptr %75, i64 3
  %77 = load ptr, ptr %76, align 8
  call void %77(ptr noundef nonnull align 8 dereferenceable(8) %72, ptr noundef %74)
  store ptr %65, ptr %73, align 8, !tbaa !275
  store i32 %57, ptr %47, align 8, !tbaa !282
  %78 = load i32, ptr %44, align 4, !tbaa !267
  %79 = add i32 %78, 1
  br label %88

80:                                               ; preds = %80, %68
  %81 = phi i64 [ 0, %68 ], [ %86, %80 ]
  %82 = load ptr, ptr %69, align 8, !tbaa !275
  %83 = getelementptr inbounds ptr, ptr %82, i64 %81
  %84 = load ptr, ptr %83, align 8, !tbaa !276
  %85 = getelementptr inbounds ptr, ptr %65, i64 %81
  store ptr %84, ptr %85, align 8, !tbaa !276
  %86 = add nuw nsw i64 %81, 1
  %87 = icmp eq i64 %86, %70
  br i1 %87, label %71, label %80

88:                                               ; preds = %50, %71
  %89 = phi i32 [ %46, %50 ], [ %79, %71 ]
  %90 = phi i32 [ %45, %50 ], [ %78, %71 ]
  %91 = phi ptr [ %52, %50 ], [ %65, %71 ]
  %92 = zext i32 %90 to i64
  %93 = getelementptr inbounds ptr, ptr %91, i64 %92
  store ptr %42, ptr %93, align 8, !tbaa !276
  store i32 %89, ptr %44, align 4, !tbaa !267
  %94 = add nuw nsw i32 %41, 1
  %95 = load i32, ptr %5, align 4, !tbaa !285
  %96 = icmp slt i32 %94, %95
  br i1 %96, label %40, label %39

97:                                               ; preds = %39, %4
  ret void

98:                                               ; preds = %32
  resume { ptr, i32 } %33

99:                                               ; preds = %32
  %100 = landingpad { ptr, i32 }
          catch ptr null
  %101 = extractvalue { ptr, i32 } %100, 0
  tail call void @__clang_call_terminate(ptr %101) #12
  unreachable
}

declare noundef zeroext i1 @_ZN11xercesc_2_516XSerializeEngine16needToLoadObjectEPPv(ptr noundef nonnull align 8 dereferenceable(92), ptr noundef) local_unnamed_addr #2

declare noundef ptr @_ZN11xercesc_2_57XMemorynwEmPNS_13MemoryManagerE(i64 noundef, ptr noundef) local_unnamed_addr #2

declare void @_ZN11xercesc_2_57XMemorydlEPvPNS_13MemoryManagerE(ptr noundef, ptr noundef) local_unnamed_addr #2

declare void @_ZN11xercesc_2_516XSerializeEngine14registerObjectEPv(ptr noundef nonnull align 8 dereferenceable(92), ptr noundef) local_unnamed_addr #2

declare noundef nonnull align 8 dereferenceable(92) ptr @_ZN11xercesc_2_516XSerializeEnginersERi(ptr noundef nonnull align 8 dereferenceable(92), ptr noundef nonnull align 4 dereferenceable(4)) local_unnamed_addr #2

; Function Attrs: uwtable
define dso_local void @_ZN11xercesc_2_519XTemplateSerializer11storeObjectEPNS_13ValueVectorOfIjEERNS_16XSerializeEngineE(ptr noundef %0, ptr noundef nonnull align 8 dereferenceable(92) %1) local_unnamed_addr #4 align 2 personality ptr @__gxx_personality_v0 {
  %3 = tail call noundef zeroext i1 @_ZN11xercesc_2_516XSerializeEngine17needToStoreObjectEPv(ptr noundef nonnull align 8 dereferenceable(92) %1, ptr noundef %0)
  br i1 %3, label %4, label %31

4:                                                ; preds = %2
  %5 = getelementptr inbounds %"class.xercesc_2_5::ValueVectorOf.1", ptr %0, i64 0, i32 1
  %6 = load i32, ptr %5, align 4, !tbaa !286
  %7 = tail call noundef nonnull align 8 dereferenceable(92) ptr @_ZN11xercesc_2_516XSerializeEnginelsEi(ptr noundef nonnull align 8 dereferenceable(92) %1, i32 noundef %6)
  %8 = icmp sgt i32 %6, 0
  br i1 %8, label %9, label %31

9:                                                ; preds = %4
  %10 = getelementptr inbounds %"class.xercesc_2_5::ValueVectorOf.1", ptr %0, i64 0, i32 3
  %11 = zext i32 %6 to i64
  br label %12

12:                                               ; preds = %9, %24
  %13 = phi i64 [ 0, %9 ], [ %29, %24 ]
  %14 = load i32, ptr %5, align 4, !tbaa !286
  %15 = zext i32 %14 to i64
  %16 = icmp ult i64 %13, %15
  br i1 %16, label %24, label %17

17:                                               ; preds = %12
  %18 = tail call ptr @__cxa_allocate_exception(i64 48) #11
  %19 = getelementptr inbounds %"class.xercesc_2_5::ValueVectorOf.1", ptr %0, i64 0, i32 4
  %20 = load ptr, ptr %19, align 8, !tbaa !288
  invoke void @_ZN11xercesc_2_530ArrayIndexOutOfBoundsExceptionC2EPKcjNS_10XMLExcepts5CodesEPNS_13MemoryManagerE(ptr noundef nonnull align 8 dereferenceable(48) %18, ptr noundef nonnull @.str.5, i32 noundef 293, i32 noundef 109, ptr noundef %20)
          to label %21 unwind label %22

21:                                               ; preds = %17
  tail call void @__cxa_throw(ptr nonnull %18, ptr nonnull @_ZTIN11xercesc_2_530ArrayIndexOutOfBoundsExceptionE, ptr nonnull @_ZN11xercesc_2_512XMLExceptionD2Ev) #13
  unreachable

22:                                               ; preds = %17
  %23 = landingpad { ptr, i32 }
          cleanup
  tail call void @__cxa_free_exception(ptr %18) #11
  resume { ptr, i32 } %23

24:                                               ; preds = %12
  %25 = load ptr, ptr %10, align 8, !tbaa !289
  %26 = getelementptr inbounds i32, ptr %25, i64 %13
  %27 = load i32, ptr %26, align 4, !tbaa !285
  %28 = tail call noundef nonnull align 8 dereferenceable(92) ptr @_ZN11xercesc_2_516XSerializeEnginelsEj(ptr noundef nonnull align 8 dereferenceable(92) %1, i32 noundef %27)
  %29 = add nuw nsw i64 %13, 1
  %30 = icmp eq i64 %29, %11
  br i1 %30, label %31, label %12

31:                                               ; preds = %24, %4, %2
  ret void
}

declare noundef nonnull align 8 dereferenceable(92) ptr @_ZN11xercesc_2_516XSerializeEnginelsEj(ptr noundef nonnull align 8 dereferenceable(92), i32 noundef) local_unnamed_addr #2

; Function Attrs: uwtable
define dso_local void @_ZN11xercesc_2_519XTemplateSerializer10loadObjectEPPNS_13ValueVectorOfIjEEibRNS_16XSerializeEngineE(ptr noundef %0, i32 noundef %1, i1 noundef zeroext %2, ptr noundef nonnull align 8 dereferenceable(92) %3) local_unnamed_addr #4 align 2 personality ptr @__gxx_personality_v0 {
  %5 = alloca i32, align 4
  %6 = alloca i32, align 4
  %7 = tail call noundef zeroext i1 @_ZN11xercesc_2_516XSerializeEngine16needToLoadObjectEPPv(ptr noundef nonnull align 8 dereferenceable(92) %3, ptr noundef %0)
  br i1 %7, label %8, label %97

8:                                                ; preds = %4
  %9 = load ptr, ptr %0, align 8, !tbaa !276
  %10 = icmp eq ptr %9, null
  br i1 %10, label %11, label %35

11:                                               ; preds = %8
  %12 = icmp slt i32 %1, 0
  %13 = select i1 %12, i32 16, i32 %1
  %14 = getelementptr inbounds %"class.xercesc_2_5::XSerializeEngine", ptr %3, i64 0, i32 2
  %15 = load ptr, ptr %14, align 8, !tbaa !277
  %16 = tail call noundef ptr @_ZN11xercesc_2_57XMemorynwEmPNS_13MemoryManagerE(i64 noundef 32, ptr noundef %15)
  %17 = load ptr, ptr %14, align 8, !tbaa !277
  %18 = zext i1 %2 to i8
  store i8 %18, ptr %16, align 8, !tbaa !290
  %19 = getelementptr inbounds %"class.xercesc_2_5::ValueVectorOf.1", ptr %16, i64 0, i32 1
  store i32 0, ptr %19, align 4, !tbaa !286
  %20 = getelementptr inbounds %"class.xercesc_2_5::ValueVectorOf.1", ptr %16, i64 0, i32 2
  store i32 %13, ptr %20, align 8, !tbaa !291
  %21 = getelementptr inbounds %"class.xercesc_2_5::ValueVectorOf.1", ptr %16, i64 0, i32 3
  store ptr null, ptr %21, align 8, !tbaa !289
  %22 = getelementptr inbounds %"class.xercesc_2_5::ValueVectorOf.1", ptr %16, i64 0, i32 4
  store ptr %17, ptr %22, align 8, !tbaa !288
  %23 = zext i32 %13 to i64
  %24 = shl nuw nsw i64 %23, 2
  %25 = load ptr, ptr %17, align 8, !tbaa !283
  %26 = getelementptr inbounds ptr, ptr %25, i64 2
  %27 = load ptr, ptr %26, align 8
  %28 = invoke noundef ptr %27(ptr noundef nonnull align 8 dereferenceable(8) %17, i64 noundef %24)
          to label %29 unwind label %33

29:                                               ; preds = %11
  store ptr %28, ptr %21, align 8, !tbaa !289
  %30 = load i32, ptr %20, align 8, !tbaa !291
  %31 = zext i32 %30 to i64
  %32 = shl nuw nsw i64 %31, 2
  tail call void @llvm.memset.p0.i64(ptr align 4 %28, i8 0, i64 %32, i1 false)
  store ptr %16, ptr %0, align 8, !tbaa !276
  br label %35

33:                                               ; preds = %11
  %34 = landingpad { ptr, i32 }
          cleanup
  invoke void @_ZN11xercesc_2_57XMemorydlEPvPNS_13MemoryManagerE(ptr noundef nonnull %16, ptr noundef %15)
          to label %98 unwind label %99

35:                                               ; preds = %29, %8
  %36 = phi ptr [ %16, %29 ], [ %9, %8 ]
  tail call void @_ZN11xercesc_2_516XSerializeEngine14registerObjectEPv(ptr noundef nonnull align 8 dereferenceable(92) %3, ptr noundef nonnull %36)
  call void @llvm.lifetime.start.p0(i64 4, ptr nonnull %5) #11
  store i32 0, ptr %5, align 4, !tbaa !285
  %37 = call noundef nonnull align 8 dereferenceable(92) ptr @_ZN11xercesc_2_516XSerializeEnginersERi(ptr noundef nonnull align 8 dereferenceable(92) %3, ptr noundef nonnull align 4 dereferenceable(4) %5)
  %38 = load i32, ptr %5, align 4, !tbaa !285
  %39 = icmp sgt i32 %38, 0
  br i1 %39, label %41, label %40

40:                                               ; preds = %86, %35
  call void @llvm.lifetime.end.p0(i64 4, ptr nonnull %5) #11
  br label %97

41:                                               ; preds = %35, %86
  %42 = phi i32 [ %94, %86 ], [ 0, %35 ]
  call void @llvm.lifetime.start.p0(i64 4, ptr nonnull %6) #11
  %43 = call noundef nonnull align 8 dereferenceable(92) ptr @_ZN11xercesc_2_516XSerializeEnginersERj(ptr noundef nonnull align 8 dereferenceable(92) %3, ptr noundef nonnull align 4 dereferenceable(4) %6)
  %44 = load ptr, ptr %0, align 8, !tbaa !276
  %45 = getelementptr inbounds %"class.xercesc_2_5::ValueVectorOf.1", ptr %44, i64 0, i32 1
  %46 = load i32, ptr %45, align 4, !tbaa !286
  %47 = add i32 %46, 1
  %48 = getelementptr inbounds %"class.xercesc_2_5::ValueVectorOf.1", ptr %44, i64 0, i32 2
  %49 = load i32, ptr %48, align 8, !tbaa !291
  %50 = icmp ult i32 %47, %49
  br i1 %50, label %51, label %54

51:                                               ; preds = %41
  %52 = getelementptr inbounds %"class.xercesc_2_5::ValueVectorOf.1", ptr %44, i64 0, i32 3
  %53 = load ptr, ptr %52, align 8, !tbaa !289
  br label %86

54:                                               ; preds = %41
  %55 = uitofp i32 %46 to double
  %56 = fmul reassoc nnan ninf nsz arcp afn double %55, 1.250000e+00
  %57 = fptoui double %56 to i32
  %58 = call i32 @llvm.umax.i32(i32 %47, i32 %57)
  %59 = getelementptr inbounds %"class.xercesc_2_5::ValueVectorOf.1", ptr %44, i64 0, i32 4
  %60 = load ptr, ptr %59, align 8, !tbaa !288
  %61 = zext i32 %58 to i64
  %62 = shl nuw nsw i64 %61, 2
  %63 = load ptr, ptr %60, align 8, !tbaa !283
  %64 = getelementptr inbounds ptr, ptr %63, i64 2
  %65 = load ptr, ptr %64, align 8
  %66 = call noundef ptr %65(ptr noundef nonnull align 8 dereferenceable(8) %60, i64 noundef %62)
  %67 = load i32, ptr %45, align 4, !tbaa !286
  %68 = icmp eq i32 %67, 0
  %69 = getelementptr inbounds %"class.xercesc_2_5::ValueVectorOf.1", ptr %44, i64 0, i32 3
  %70 = load ptr, ptr %69, align 8, !tbaa !289
  br i1 %68, label %71, label %77

71:                                               ; preds = %77, %54
  %72 = load ptr, ptr %59, align 8, !tbaa !288
  %73 = load ptr, ptr %72, align 8, !tbaa !283
  %74 = getelementptr inbounds ptr, ptr %73, i64 3
  %75 = load ptr, ptr %74, align 8
  call void %75(ptr noundef nonnull align 8 dereferenceable(8) %72, ptr noundef %70)
  store ptr %66, ptr %69, align 8, !tbaa !289
  store i32 %58, ptr %48, align 8, !tbaa !291
  %76 = load i32, ptr %45, align 4, !tbaa !286
  br label %86

77:                                               ; preds = %54, %77
  %78 = phi i64 [ %82, %77 ], [ 0, %54 ]
  %79 = getelementptr inbounds i32, ptr %70, i64 %78
  %80 = load i32, ptr %79, align 4, !tbaa !285
  %81 = getelementptr inbounds i32, ptr %66, i64 %78
  store i32 %80, ptr %81, align 4, !tbaa !285
  %82 = add nuw nsw i64 %78, 1
  %83 = load i32, ptr %45, align 4, !tbaa !286
  %84 = zext i32 %83 to i64
  %85 = icmp ult i64 %82, %84
  br i1 %85, label %77, label %71

86:                                               ; preds = %51, %71
  %87 = phi i32 [ %46, %51 ], [ %76, %71 ]
  %88 = phi ptr [ %53, %51 ], [ %66, %71 ]
  %89 = load i32, ptr %6, align 4, !tbaa !285
  %90 = zext i32 %87 to i64
  %91 = getelementptr inbounds i32, ptr %88, i64 %90
  store i32 %89, ptr %91, align 4, !tbaa !285
  %92 = load i32, ptr %45, align 4, !tbaa !286
  %93 = add i32 %92, 1
  store i32 %93, ptr %45, align 4, !tbaa !286
  call void @llvm.lifetime.end.p0(i64 4, ptr nonnull %6) #11
  %94 = add nuw nsw i32 %42, 1
  %95 = load i32, ptr %5, align 4, !tbaa !285
  %96 = icmp slt i32 %94, %95
  br i1 %96, label %41, label %40

97:                                               ; preds = %40, %4
  ret void

98:                                               ; preds = %33
  resume { ptr, i32 } %34

99:                                               ; preds = %33
  %100 = landingpad { ptr, i32 }
          catch ptr null
  %101 = extractvalue { ptr, i32 } %100, 0
  tail call void @__clang_call_terminate(ptr %101) #12
  unreachable
}

declare noundef nonnull align 8 dereferenceable(92) ptr @_ZN11xercesc_2_516XSerializeEnginersERj(ptr noundef nonnull align 8 dereferenceable(92), ptr noundef nonnull align 4 dereferenceable(4)) local_unnamed_addr #2

; Function Attrs: uwtable
define dso_local void @_ZN11xercesc_2_519XTemplateSerializer11storeObjectEPNS_16RefArrayVectorOfItEERNS_16XSerializeEngineE(ptr noundef %0, ptr noundef nonnull align 8 dereferenceable(92) %1) local_unnamed_addr #4 align 2 personality ptr @__gxx_personality_v0 {
  %3 = tail call noundef zeroext i1 @_ZN11xercesc_2_516XSerializeEngine17needToStoreObjectEPv(ptr noundef nonnull align 8 dereferenceable(92) %1, ptr noundef %0)
  br i1 %3, label %4, label %30

4:                                                ; preds = %2
  %5 = getelementptr inbounds %"class.xercesc_2_5::BaseRefVectorOf", ptr %0, i64 0, i32 2
  %6 = load i32, ptr %5, align 4, !tbaa !292
  %7 = tail call noundef nonnull align 8 dereferenceable(92) ptr @_ZN11xercesc_2_516XSerializeEnginelsEi(ptr noundef nonnull align 8 dereferenceable(92) %1, i32 noundef %6)
  %8 = icmp sgt i32 %6, 0
  br i1 %8, label %9, label %30

9:                                                ; preds = %4
  %10 = getelementptr inbounds %"class.xercesc_2_5::BaseRefVectorOf", ptr %0, i64 0, i32 4
  %11 = zext i32 %6 to i64
  br label %12

12:                                               ; preds = %9, %24
  %13 = phi i64 [ 0, %9 ], [ %28, %24 ]
  %14 = load i32, ptr %5, align 4, !tbaa !292
  %15 = zext i32 %14 to i64
  %16 = icmp ult i64 %13, %15
  br i1 %16, label %24, label %17

17:                                               ; preds = %12
  %18 = tail call ptr @__cxa_allocate_exception(i64 48) #11
  %19 = getelementptr inbounds %"class.xercesc_2_5::BaseRefVectorOf", ptr %0, i64 0, i32 5
  %20 = load ptr, ptr %19, align 8, !tbaa !294
  invoke void @_ZN11xercesc_2_530ArrayIndexOutOfBoundsExceptionC2EPKcjNS_10XMLExcepts5CodesEPNS_13MemoryManagerE(ptr noundef nonnull align 8 dereferenceable(48) %18, ptr noundef nonnull @.str, i32 noundef 289, i32 noundef 109, ptr noundef %20)
          to label %21 unwind label %22

21:                                               ; preds = %17
  tail call void @__cxa_throw(ptr nonnull %18, ptr nonnull @_ZTIN11xercesc_2_530ArrayIndexOutOfBoundsExceptionE, ptr nonnull @_ZN11xercesc_2_512XMLExceptionD2Ev) #13
  unreachable

22:                                               ; preds = %17
  %23 = landingpad { ptr, i32 }
          cleanup
  tail call void @__cxa_free_exception(ptr %18) #11
  resume { ptr, i32 } %23

24:                                               ; preds = %12
  %25 = load ptr, ptr %10, align 8, !tbaa !295
  %26 = getelementptr inbounds ptr, ptr %25, i64 %13
  %27 = load ptr, ptr %26, align 8, !tbaa !276
  tail call void @_ZN11xercesc_2_516XSerializeEngine11writeStringEPKtib(ptr noundef nonnull align 8 dereferenceable(92) %1, ptr noundef %27, i32 noundef 0, i1 noundef zeroext false)
  %28 = add nuw nsw i64 %13, 1
  %29 = icmp eq i64 %28, %11
  br i1 %29, label %30, label %12

30:                                               ; preds = %24, %4, %2
  ret void
}

declare void @_ZN11xercesc_2_516XSerializeEngine11writeStringEPKtib(ptr noundef nonnull align 8 dereferenceable(92), ptr noundef, i32 noundef, i1 noundef zeroext) local_unnamed_addr #2

; Function Attrs: uwtable
define dso_local void @_ZN11xercesc_2_519XTemplateSerializer10loadObjectEPPNS_16RefArrayVectorOfItEEibRNS_16XSerializeEngineE(ptr noundef %0, i32 noundef %1, i1 noundef zeroext %2, ptr noundef nonnull align 8 dereferenceable(92) %3) local_unnamed_addr #4 align 2 personality ptr @__gxx_personality_v0 {
  %5 = alloca i32, align 4
  %6 = alloca ptr, align 8
  %7 = tail call noundef zeroext i1 @_ZN11xercesc_2_516XSerializeEngine16needToLoadObjectEPPv(ptr noundef nonnull align 8 dereferenceable(92) %3, ptr noundef %0)
  br i1 %7, label %8, label %113

8:                                                ; preds = %4
  %9 = load ptr, ptr %0, align 8, !tbaa !276
  %10 = icmp eq ptr %9, null
  br i1 %10, label %11, label %41

11:                                               ; preds = %8
  %12 = icmp slt i32 %1, 0
  %13 = select i1 %12, i32 16, i32 %1
  %14 = getelementptr inbounds %"class.xercesc_2_5::XSerializeEngine", ptr %3, i64 0, i32 2
  %15 = load ptr, ptr %14, align 8, !tbaa !277
  %16 = tail call noundef ptr @_ZN11xercesc_2_57XMemorynwEmPNS_13MemoryManagerE(i64 noundef 40, ptr noundef %15)
  %17 = load ptr, ptr %14, align 8, !tbaa !277
  %18 = zext i1 %2 to i8
  store ptr getelementptr inbounds ({ [9 x ptr] }, ptr @_ZTVN11xercesc_2_515BaseRefVectorOfItEE, i64 0, inrange i32 0, i64 2), ptr %16, align 8, !tbaa !283
  %19 = getelementptr inbounds %"class.xercesc_2_5::BaseRefVectorOf", ptr %16, i64 0, i32 1
  store i8 %18, ptr %19, align 8, !tbaa !296
  %20 = getelementptr inbounds %"class.xercesc_2_5::BaseRefVectorOf", ptr %16, i64 0, i32 2
  store i32 0, ptr %20, align 4, !tbaa !292
  %21 = getelementptr inbounds %"class.xercesc_2_5::BaseRefVectorOf", ptr %16, i64 0, i32 3
  store i32 %13, ptr %21, align 8, !tbaa !297
  %22 = getelementptr inbounds %"class.xercesc_2_5::BaseRefVectorOf", ptr %16, i64 0, i32 4
  store ptr null, ptr %22, align 8, !tbaa !295
  %23 = getelementptr inbounds %"class.xercesc_2_5::BaseRefVectorOf", ptr %16, i64 0, i32 5
  store ptr %17, ptr %23, align 8, !tbaa !294
  %24 = zext i32 %13 to i64
  %25 = shl nuw nsw i64 %24, 3
  %26 = load ptr, ptr %17, align 8, !tbaa !283
  %27 = getelementptr inbounds ptr, ptr %26, i64 2
  %28 = load ptr, ptr %27, align 8
  %29 = invoke noundef ptr %28(ptr noundef nonnull align 8 dereferenceable(8) %17, i64 noundef %25)
          to label %30 unwind label %39

30:                                               ; preds = %11
  store ptr %29, ptr %22, align 8, !tbaa !295
  %31 = icmp eq i32 %13, 0
  br i1 %31, label %38, label %32

32:                                               ; preds = %30, %32
  %33 = phi i64 [ %36, %32 ], [ 0, %30 ]
  %34 = load ptr, ptr %22, align 8, !tbaa !295
  %35 = getelementptr inbounds ptr, ptr %34, i64 %33
  store ptr null, ptr %35, align 8, !tbaa !276
  %36 = add nuw nsw i64 %33, 1
  %37 = icmp eq i64 %36, %24
  br i1 %37, label %38, label %32

38:                                               ; preds = %32, %30
  store ptr getelementptr inbounds ({ [9 x ptr] }, ptr @_ZTVN11xercesc_2_516RefArrayVectorOfItEE, i64 0, inrange i32 0, i64 2), ptr %16, align 8, !tbaa !283
  store ptr %16, ptr %0, align 8, !tbaa !276
  br label %41

39:                                               ; preds = %11
  %40 = landingpad { ptr, i32 }
          cleanup
  invoke void @_ZN11xercesc_2_57XMemorydlEPvPNS_13MemoryManagerE(ptr noundef nonnull %16, ptr noundef %15)
          to label %114 unwind label %115

41:                                               ; preds = %38, %8
  %42 = phi ptr [ %16, %38 ], [ %9, %8 ]
  tail call void @_ZN11xercesc_2_516XSerializeEngine14registerObjectEPv(ptr noundef nonnull align 8 dereferenceable(92) %3, ptr noundef nonnull %42)
  call void @llvm.lifetime.start.p0(i64 4, ptr nonnull %5) #11
  store i32 0, ptr %5, align 4, !tbaa !285
  %43 = call noundef nonnull align 8 dereferenceable(92) ptr @_ZN11xercesc_2_516XSerializeEnginersERi(ptr noundef nonnull align 8 dereferenceable(92) %3, ptr noundef nonnull align 4 dereferenceable(4) %5)
  %44 = load i32, ptr %5, align 4, !tbaa !285
  %45 = icmp sgt i32 %44, 0
  br i1 %45, label %47, label %46

46:                                               ; preds = %104, %41
  call void @llvm.lifetime.end.p0(i64 4, ptr nonnull %5) #11
  br label %113

47:                                               ; preds = %41, %104
  %48 = phi i32 [ %110, %104 ], [ 0, %41 ]
  call void @llvm.lifetime.start.p0(i64 8, ptr nonnull %6) #11
  call void @_ZN11xercesc_2_516XSerializeEngine10readStringERPtRiS3_b(ptr noundef nonnull align 8 dereferenceable(92) %3, ptr noundef nonnull align 8 dereferenceable(8) %6, ptr noundef nonnull align 4 dereferenceable(4) @_ZN11xercesc_2_516XSerializeEngine16defaultBufferLenE, ptr noundef nonnull align 4 dereferenceable(4) @_ZN11xercesc_2_516XSerializeEngine14defaultDataLenE, i1 noundef zeroext false)
  %49 = load ptr, ptr %0, align 8, !tbaa !276
  %50 = load ptr, ptr %6, align 8, !tbaa !276
  %51 = getelementptr inbounds %"class.xercesc_2_5::BaseRefVectorOf", ptr %49, i64 0, i32 2
  %52 = load i32, ptr %51, align 4, !tbaa !292
  %53 = add i32 %52, 1
  %54 = getelementptr inbounds %"class.xercesc_2_5::BaseRefVectorOf", ptr %49, i64 0, i32 3
  %55 = load i32, ptr %54, align 8, !tbaa !297
  %56 = icmp ult i32 %53, %55
  br i1 %56, label %57, label %60

57:                                               ; preds = %47
  %58 = getelementptr inbounds %"class.xercesc_2_5::BaseRefVectorOf", ptr %49, i64 0, i32 4
  %59 = load ptr, ptr %58, align 8, !tbaa !295
  br label %104

60:                                               ; preds = %47
  %61 = add i32 %55, 32
  %62 = call i32 @llvm.umax.i32(i32 %53, i32 %61)
  %63 = getelementptr inbounds %"class.xercesc_2_5::BaseRefVectorOf", ptr %49, i64 0, i32 5
  %64 = load ptr, ptr %63, align 8, !tbaa !294
  %65 = zext i32 %62 to i64
  %66 = shl nuw nsw i64 %65, 3
  %67 = load ptr, ptr %64, align 8, !tbaa !283
  %68 = getelementptr inbounds ptr, ptr %67, i64 2
  %69 = load ptr, ptr %68, align 8
  %70 = call noundef ptr %69(ptr noundef nonnull align 8 dereferenceable(8) %64, i64 noundef %66)
  %71 = load i32, ptr %51, align 4, !tbaa !292
  %72 = icmp eq i32 %71, 0
  br i1 %72, label %76, label %73

73:                                               ; preds = %60
  %74 = getelementptr inbounds %"class.xercesc_2_5::BaseRefVectorOf", ptr %49, i64 0, i32 4
  %75 = zext i32 %71 to i64
  br label %87

76:                                               ; preds = %87, %60
  %77 = icmp ult i32 %71, %62
  br i1 %77, label %78, label %95

78:                                               ; preds = %76
  %79 = zext i32 %71 to i64
  %80 = shl nuw nsw i64 %79, 3
  %81 = getelementptr i8, ptr %70, i64 %80
  %82 = xor i32 %71, -1
  %83 = add i32 %62, %82
  %84 = zext i32 %83 to i64
  %85 = shl nuw nsw i64 %84, 3
  %86 = add nuw nsw i64 %85, 8
  call void @llvm.memset.p0.i64(ptr noundef nonnull align 8 dereferenceable(1) %81, i8 0, i64 %86, i1 false), !tbaa !276
  br label %95

87:                                               ; preds = %87, %73
  %88 = phi i64 [ 0, %73 ], [ %93, %87 ]
  %89 = load ptr, ptr %74, align 8, !tbaa !295
  %90 = getelementptr inbounds ptr, ptr %89, i64 %88
  %91 = load ptr, ptr %90, align 8, !tbaa !276
  %92 = getelementptr inbounds ptr, ptr %70, i64 %88
  store ptr %91, ptr %92, align 8, !tbaa !276
  %93 = add nuw nsw i64 %88, 1
  %94 = icmp eq i64 %93, %75
  br i1 %94, label %76, label %87

95:                                               ; preds = %78, %76
  %96 = load ptr, ptr %63, align 8, !tbaa !294
  %97 = getelementptr inbounds %"class.xercesc_2_5::BaseRefVectorOf", ptr %49, i64 0, i32 4
  %98 = load ptr, ptr %97, align 8, !tbaa !295
  %99 = load ptr, ptr %96, align 8, !tbaa !283
  %100 = getelementptr inbounds ptr, ptr %99, i64 3
  %101 = load ptr, ptr %100, align 8
  call void %101(ptr noundef nonnull align 8 dereferenceable(8) %96, ptr noundef %98)
  store ptr %70, ptr %97, align 8, !tbaa !295
  store i32 %62, ptr %54, align 8, !tbaa !297
  %102 = load i32, ptr %51, align 4, !tbaa !292
  %103 = add i32 %102, 1
  br label %104

104:                                              ; preds = %57, %95
  %105 = phi i32 [ %53, %57 ], [ %103, %95 ]
  %106 = phi i32 [ %52, %57 ], [ %102, %95 ]
  %107 = phi ptr [ %59, %57 ], [ %70, %95 ]
  %108 = zext i32 %106 to i64
  %109 = getelementptr inbounds ptr, ptr %107, i64 %108
  store ptr %50, ptr %109, align 8, !tbaa !276
  store i32 %105, ptr %51, align 4, !tbaa !292
  call void @llvm.lifetime.end.p0(i64 8, ptr nonnull %6) #11
  %110 = add nuw nsw i32 %48, 1
  %111 = load i32, ptr %5, align 4, !tbaa !285
  %112 = icmp slt i32 %110, %111
  br i1 %112, label %47, label %46

113:                                              ; preds = %46, %4
  ret void

114:                                              ; preds = %39
  resume { ptr, i32 } %40

115:                                              ; preds = %39
  %116 = landingpad { ptr, i32 }
          catch ptr null
  %117 = extractvalue { ptr, i32 } %116, 0
  tail call void @__clang_call_terminate(ptr %117) #12
  unreachable
}

declare void @_ZN11xercesc_2_516XSerializeEngine10readStringERPtRiS3_b(ptr noundef nonnull align 8 dereferenceable(92), ptr noundef nonnull align 8 dereferenceable(8), ptr noundef nonnull align 4 dereferenceable(4), ptr noundef nonnull align 4 dereferenceable(4), i1 noundef zeroext) local_unnamed_addr #2

; Function Attrs: uwtable
define dso_local void @_ZN11xercesc_2_519XTemplateSerializer11storeObjectEPNS_11RefVectorOfINS_12SchemaAttDefEEERNS_16XSerializeEngineE(ptr noundef %0, ptr noundef nonnull align 8 dereferenceable(92) %1) local_unnamed_addr #4 align 2 personality ptr @__gxx_personality_v0 {
  %3 = tail call noundef zeroext i1 @_ZN11xercesc_2_516XSerializeEngine17needToStoreObjectEPv(ptr noundef nonnull align 8 dereferenceable(92) %1, ptr noundef %0)
  br i1 %3, label %4, label %30

4:                                                ; preds = %2
  %5 = getelementptr inbounds %"class.xercesc_2_5::BaseRefVectorOf.2", ptr %0, i64 0, i32 2
  %6 = load i32, ptr %5, align 4, !tbaa !298
  %7 = tail call noundef nonnull align 8 dereferenceable(92) ptr @_ZN11xercesc_2_516XSerializeEnginelsEi(ptr noundef nonnull align 8 dereferenceable(92) %1, i32 noundef %6)
  %8 = icmp sgt i32 %6, 0
  br i1 %8, label %9, label %30

9:                                                ; preds = %4
  %10 = getelementptr inbounds %"class.xercesc_2_5::BaseRefVectorOf.2", ptr %0, i64 0, i32 4
  %11 = zext i32 %6 to i64
  br label %12

12:                                               ; preds = %9, %24
  %13 = phi i64 [ 0, %9 ], [ %28, %24 ]
  %14 = load i32, ptr %5, align 4, !tbaa !298
  %15 = zext i32 %14 to i64
  %16 = icmp ult i64 %13, %15
  br i1 %16, label %24, label %17

17:                                               ; preds = %12
  %18 = tail call ptr @__cxa_allocate_exception(i64 48) #11
  %19 = getelementptr inbounds %"class.xercesc_2_5::BaseRefVectorOf.2", ptr %0, i64 0, i32 5
  %20 = load ptr, ptr %19, align 8, !tbaa !300
  invoke void @_ZN11xercesc_2_530ArrayIndexOutOfBoundsExceptionC2EPKcjNS_10XMLExcepts5CodesEPNS_13MemoryManagerE(ptr noundef nonnull align 8 dereferenceable(48) %18, ptr noundef nonnull @.str, i32 noundef 289, i32 noundef 109, ptr noundef %20)
          to label %21 unwind label %22

21:                                               ; preds = %17
  tail call void @__cxa_throw(ptr nonnull %18, ptr nonnull @_ZTIN11xercesc_2_530ArrayIndexOutOfBoundsExceptionE, ptr nonnull @_ZN11xercesc_2_512XMLExceptionD2Ev) #13
  unreachable

22:                                               ; preds = %17
  %23 = landingpad { ptr, i32 }
          cleanup
  tail call void @__cxa_free_exception(ptr %18) #11
  resume { ptr, i32 } %23

24:                                               ; preds = %12
  %25 = load ptr, ptr %10, align 8, !tbaa !301
  %26 = getelementptr inbounds ptr, ptr %25, i64 %13
  %27 = load ptr, ptr %26, align 8, !tbaa !276
  tail call void @_ZN11xercesc_2_516XSerializeEngine5writeEPNS_13XSerializableE(ptr noundef nonnull align 8 dereferenceable(92) %1, ptr noundef %27)
  %28 = add nuw nsw i64 %13, 1
  %29 = icmp eq i64 %28, %11
  br i1 %29, label %30, label %12

30:                                               ; preds = %24, %4, %2
  ret void
}

; Function Attrs: uwtable
define dso_local void @_ZN11xercesc_2_519XTemplateSerializer10loadObjectEPPNS_11RefVectorOfINS_12SchemaAttDefEEEibRNS_16XSerializeEngineE(ptr noundef %0, i32 noundef %1, i1 noundef zeroext %2, ptr noundef nonnull align 8 dereferenceable(92) %3) local_unnamed_addr #4 align 2 personality ptr @__gxx_personality_v0 {
  %5 = alloca i32, align 4
  %6 = tail call noundef zeroext i1 @_ZN11xercesc_2_516XSerializeEngine16needToLoadObjectEPPv(ptr noundef nonnull align 8 dereferenceable(92) %3, ptr noundef %0)
  br i1 %6, label %7, label %112

7:                                                ; preds = %4
  %8 = load ptr, ptr %0, align 8, !tbaa !276
  %9 = icmp eq ptr %8, null
  br i1 %9, label %10, label %40

10:                                               ; preds = %7
  %11 = icmp slt i32 %1, 0
  %12 = select i1 %11, i32 16, i32 %1
  %13 = getelementptr inbounds %"class.xercesc_2_5::XSerializeEngine", ptr %3, i64 0, i32 2
  %14 = load ptr, ptr %13, align 8, !tbaa !277
  %15 = tail call noundef ptr @_ZN11xercesc_2_57XMemorynwEmPNS_13MemoryManagerE(i64 noundef 40, ptr noundef %14)
  %16 = load ptr, ptr %13, align 8, !tbaa !277
  %17 = zext i1 %2 to i8
  store ptr getelementptr inbounds ({ [9 x ptr] }, ptr @_ZTVN11xercesc_2_515BaseRefVectorOfINS_12SchemaAttDefEEE, i64 0, inrange i32 0, i64 2), ptr %15, align 8, !tbaa !283
  %18 = getelementptr inbounds %"class.xercesc_2_5::BaseRefVectorOf.2", ptr %15, i64 0, i32 1
  store i8 %17, ptr %18, align 8, !tbaa !302
  %19 = getelementptr inbounds %"class.xercesc_2_5::BaseRefVectorOf.2", ptr %15, i64 0, i32 2
  store i32 0, ptr %19, align 4, !tbaa !298
  %20 = getelementptr inbounds %"class.xercesc_2_5::BaseRefVectorOf.2", ptr %15, i64 0, i32 3
  store i32 %12, ptr %20, align 8, !tbaa !303
  %21 = getelementptr inbounds %"class.xercesc_2_5::BaseRefVectorOf.2", ptr %15, i64 0, i32 4
  store ptr null, ptr %21, align 8, !tbaa !301
  %22 = getelementptr inbounds %"class.xercesc_2_5::BaseRefVectorOf.2", ptr %15, i64 0, i32 5
  store ptr %16, ptr %22, align 8, !tbaa !300
  %23 = zext i32 %12 to i64
  %24 = shl nuw nsw i64 %23, 3
  %25 = load ptr, ptr %16, align 8, !tbaa !283
  %26 = getelementptr inbounds ptr, ptr %25, i64 2
  %27 = load ptr, ptr %26, align 8
  %28 = invoke noundef ptr %27(ptr noundef nonnull align 8 dereferenceable(8) %16, i64 noundef %24)
          to label %29 unwind label %38

29:                                               ; preds = %10
  store ptr %28, ptr %21, align 8, !tbaa !301
  %30 = icmp eq i32 %12, 0
  br i1 %30, label %37, label %31

31:                                               ; preds = %29, %31
  %32 = phi i64 [ %35, %31 ], [ 0, %29 ]
  %33 = load ptr, ptr %21, align 8, !tbaa !301
  %34 = getelementptr inbounds ptr, ptr %33, i64 %32
  store ptr null, ptr %34, align 8, !tbaa !276
  %35 = add nuw nsw i64 %32, 1
  %36 = icmp eq i64 %35, %23
  br i1 %36, label %37, label %31

37:                                               ; preds = %31, %29
  store ptr getelementptr inbounds ({ [9 x ptr] }, ptr @_ZTVN11xercesc_2_511RefVectorOfINS_12SchemaAttDefEEE, i64 0, inrange i32 0, i64 2), ptr %15, align 8, !tbaa !283
  store ptr %15, ptr %0, align 8, !tbaa !276
  br label %40

38:                                               ; preds = %10
  %39 = landingpad { ptr, i32 }
          cleanup
  invoke void @_ZN11xercesc_2_57XMemorydlEPvPNS_13MemoryManagerE(ptr noundef nonnull %15, ptr noundef %14)
          to label %113 unwind label %114

40:                                               ; preds = %37, %7
  %41 = phi ptr [ %15, %37 ], [ %8, %7 ]
  tail call void @_ZN11xercesc_2_516XSerializeEngine14registerObjectEPv(ptr noundef nonnull align 8 dereferenceable(92) %3, ptr noundef nonnull %41)
  call void @llvm.lifetime.start.p0(i64 4, ptr nonnull %5) #11
  store i32 0, ptr %5, align 4, !tbaa !285
  %42 = call noundef nonnull align 8 dereferenceable(92) ptr @_ZN11xercesc_2_516XSerializeEnginersERi(ptr noundef nonnull align 8 dereferenceable(92) %3, ptr noundef nonnull align 4 dereferenceable(4) %5)
  %43 = load i32, ptr %5, align 4, !tbaa !285
  %44 = icmp sgt i32 %43, 0
  br i1 %44, label %46, label %45

45:                                               ; preds = %103, %40
  call void @llvm.lifetime.end.p0(i64 4, ptr nonnull %5) #11
  br label %112

46:                                               ; preds = %40, %103
  %47 = phi i32 [ %109, %103 ], [ 0, %40 ]
  %48 = call noundef ptr @_ZN11xercesc_2_516XSerializeEngine4readEPNS_10XProtoTypeE(ptr noundef nonnull align 8 dereferenceable(92) %3, ptr noundef nonnull @_ZN11xercesc_2_512SchemaAttDef17classSchemaAttDefE)
  %49 = load ptr, ptr %0, align 8, !tbaa !276
  %50 = getelementptr inbounds %"class.xercesc_2_5::BaseRefVectorOf.2", ptr %49, i64 0, i32 2
  %51 = load i32, ptr %50, align 4, !tbaa !298
  %52 = add i32 %51, 1
  %53 = getelementptr inbounds %"class.xercesc_2_5::BaseRefVectorOf.2", ptr %49, i64 0, i32 3
  %54 = load i32, ptr %53, align 8, !tbaa !303
  %55 = icmp ult i32 %52, %54
  br i1 %55, label %56, label %59

56:                                               ; preds = %46
  %57 = getelementptr inbounds %"class.xercesc_2_5::BaseRefVectorOf.2", ptr %49, i64 0, i32 4
  %58 = load ptr, ptr %57, align 8, !tbaa !301
  br label %103

59:                                               ; preds = %46
  %60 = add i32 %54, 32
  %61 = call i32 @llvm.umax.i32(i32 %52, i32 %60)
  %62 = getelementptr inbounds %"class.xercesc_2_5::BaseRefVectorOf.2", ptr %49, i64 0, i32 5
  %63 = load ptr, ptr %62, align 8, !tbaa !300
  %64 = zext i32 %61 to i64
  %65 = shl nuw nsw i64 %64, 3
  %66 = load ptr, ptr %63, align 8, !tbaa !283
  %67 = getelementptr inbounds ptr, ptr %66, i64 2
  %68 = load ptr, ptr %67, align 8
  %69 = call noundef ptr %68(ptr noundef nonnull align 8 dereferenceable(8) %63, i64 noundef %65)
  %70 = load i32, ptr %50, align 4, !tbaa !298
  %71 = icmp eq i32 %70, 0
  br i1 %71, label %75, label %72

72:                                               ; preds = %59
  %73 = getelementptr inbounds %"class.xercesc_2_5::BaseRefVectorOf.2", ptr %49, i64 0, i32 4
  %74 = zext i32 %70 to i64
  br label %86

75:                                               ; preds = %86, %59
  %76 = icmp ult i32 %70, %61
  br i1 %76, label %77, label %94

77:                                               ; preds = %75
  %78 = zext i32 %70 to i64
  %79 = shl nuw nsw i64 %78, 3
  %80 = getelementptr i8, ptr %69, i64 %79
  %81 = xor i32 %70, -1
  %82 = add i32 %61, %81
  %83 = zext i32 %82 to i64
  %84 = shl nuw nsw i64 %83, 3
  %85 = add nuw nsw i64 %84, 8
  call void @llvm.memset.p0.i64(ptr noundef nonnull align 8 dereferenceable(1) %80, i8 0, i64 %85, i1 false), !tbaa !276
  br label %94

86:                                               ; preds = %86, %72
  %87 = phi i64 [ 0, %72 ], [ %92, %86 ]
  %88 = load ptr, ptr %73, align 8, !tbaa !301
  %89 = getelementptr inbounds ptr, ptr %88, i64 %87
  %90 = load ptr, ptr %89, align 8, !tbaa !276
  %91 = getelementptr inbounds ptr, ptr %69, i64 %87
  store ptr %90, ptr %91, align 8, !tbaa !276
  %92 = add nuw nsw i64 %87, 1
  %93 = icmp eq i64 %92, %74
  br i1 %93, label %75, label %86

94:                                               ; preds = %77, %75
  %95 = load ptr, ptr %62, align 8, !tbaa !300
  %96 = getelementptr inbounds %"class.xercesc_2_5::BaseRefVectorOf.2", ptr %49, i64 0, i32 4
  %97 = load ptr, ptr %96, align 8, !tbaa !301
  %98 = load ptr, ptr %95, align 8, !tbaa !283
  %99 = getelementptr inbounds ptr, ptr %98, i64 3
  %100 = load ptr, ptr %99, align 8
  call void %100(ptr noundef nonnull align 8 dereferenceable(8) %95, ptr noundef %97)
  store ptr %69, ptr %96, align 8, !tbaa !301
  store i32 %61, ptr %53, align 8, !tbaa !303
  %101 = load i32, ptr %50, align 4, !tbaa !298
  %102 = add i32 %101, 1
  br label %103

103:                                              ; preds = %56, %94
  %104 = phi i32 [ %52, %56 ], [ %102, %94 ]
  %105 = phi i32 [ %51, %56 ], [ %101, %94 ]
  %106 = phi ptr [ %58, %56 ], [ %69, %94 ]
  %107 = zext i32 %105 to i64
  %108 = getelementptr inbounds ptr, ptr %106, i64 %107
  store ptr %48, ptr %108, align 8, !tbaa !276
  store i32 %104, ptr %50, align 4, !tbaa !298
  %109 = add nuw nsw i32 %47, 1
  %110 = load i32, ptr %5, align 4, !tbaa !285
  %111 = icmp slt i32 %109, %110
  br i1 %111, label %46, label %45

112:                                              ; preds = %45, %4
  ret void

113:                                              ; preds = %38
  resume { ptr, i32 } %39

114:                                              ; preds = %38
  %115 = landingpad { ptr, i32 }
          catch ptr null
  %116 = extractvalue { ptr, i32 } %115, 0
  tail call void @__clang_call_terminate(ptr %116) #12
  unreachable
}

; Function Attrs: uwtable
define dso_local void @_ZN11xercesc_2_519XTemplateSerializer11storeObjectEPNS_11RefVectorOfINS_17SchemaElementDeclEEERNS_16XSerializeEngineE(ptr noundef %0, ptr noundef nonnull align 8 dereferenceable(92) %1) local_unnamed_addr #4 align 2 personality ptr @__gxx_personality_v0 {
  %3 = tail call noundef zeroext i1 @_ZN11xercesc_2_516XSerializeEngine17needToStoreObjectEPv(ptr noundef nonnull align 8 dereferenceable(92) %1, ptr noundef %0)
  br i1 %3, label %4, label %30

4:                                                ; preds = %2
  %5 = getelementptr inbounds %"class.xercesc_2_5::BaseRefVectorOf.4", ptr %0, i64 0, i32 2
  %6 = load i32, ptr %5, align 4, !tbaa !304
  %7 = tail call noundef nonnull align 8 dereferenceable(92) ptr @_ZN11xercesc_2_516XSerializeEnginelsEi(ptr noundef nonnull align 8 dereferenceable(92) %1, i32 noundef %6)
  %8 = icmp sgt i32 %6, 0
  br i1 %8, label %9, label %30

9:                                                ; preds = %4
  %10 = getelementptr inbounds %"class.xercesc_2_5::BaseRefVectorOf.4", ptr %0, i64 0, i32 4
  %11 = zext i32 %6 to i64
  br label %12

12:                                               ; preds = %9, %24
  %13 = phi i64 [ 0, %9 ], [ %28, %24 ]
  %14 = load i32, ptr %5, align 4, !tbaa !304
  %15 = zext i32 %14 to i64
  %16 = icmp ult i64 %13, %15
  br i1 %16, label %24, label %17

17:                                               ; preds = %12
  %18 = tail call ptr @__cxa_allocate_exception(i64 48) #11
  %19 = getelementptr inbounds %"class.xercesc_2_5::BaseRefVectorOf.4", ptr %0, i64 0, i32 5
  %20 = load ptr, ptr %19, align 8, !tbaa !306
  invoke void @_ZN11xercesc_2_530ArrayIndexOutOfBoundsExceptionC2EPKcjNS_10XMLExcepts5CodesEPNS_13MemoryManagerE(ptr noundef nonnull align 8 dereferenceable(48) %18, ptr noundef nonnull @.str, i32 noundef 289, i32 noundef 109, ptr noundef %20)
          to label %21 unwind label %22

21:                                               ; preds = %17
  tail call void @__cxa_throw(ptr nonnull %18, ptr nonnull @_ZTIN11xercesc_2_530ArrayIndexOutOfBoundsExceptionE, ptr nonnull @_ZN11xercesc_2_512XMLExceptionD2Ev) #13
  unreachable

22:                                               ; preds = %17
  %23 = landingpad { ptr, i32 }
          cleanup
  tail call void @__cxa_free_exception(ptr %18) #11
  resume { ptr, i32 } %23

24:                                               ; preds = %12
  %25 = load ptr, ptr %10, align 8, !tbaa !307
  %26 = getelementptr inbounds ptr, ptr %25, i64 %13
  %27 = load ptr, ptr %26, align 8, !tbaa !276
  tail call void @_ZN11xercesc_2_516XSerializeEngine5writeEPNS_13XSerializableE(ptr noundef nonnull align 8 dereferenceable(92) %1, ptr noundef %27)
  %28 = add nuw nsw i64 %13, 1
  %29 = icmp eq i64 %28, %11
  br i1 %29, label %30, label %12

30:                                               ; preds = %24, %4, %2
  ret void
}

; Function Attrs: uwtable
define dso_local void @_ZN11xercesc_2_519XTemplateSerializer10loadObjectEPPNS_11RefVectorOfINS_17SchemaElementDeclEEEibRNS_16XSerializeEngineE(ptr noundef %0, i32 noundef %1, i1 noundef zeroext %2, ptr noundef nonnull align 8 dereferenceable(92) %3) local_unnamed_addr #4 align 2 personality ptr @__gxx_personality_v0 {
  %5 = alloca i32, align 4
  %6 = tail call noundef zeroext i1 @_ZN11xercesc_2_516XSerializeEngine16needToLoadObjectEPPv(ptr noundef nonnull align 8 dereferenceable(92) %3, ptr noundef %0)
  br i1 %6, label %7, label %112

7:                                                ; preds = %4
  %8 = load ptr, ptr %0, align 8, !tbaa !276
  %9 = icmp eq ptr %8, null
  br i1 %9, label %10, label %40

10:                                               ; preds = %7
  %11 = icmp slt i32 %1, 0
  %12 = select i1 %11, i32 16, i32 %1
  %13 = getelementptr inbounds %"class.xercesc_2_5::XSerializeEngine", ptr %3, i64 0, i32 2
  %14 = load ptr, ptr %13, align 8, !tbaa !277
  %15 = tail call noundef ptr @_ZN11xercesc_2_57XMemorynwEmPNS_13MemoryManagerE(i64 noundef 40, ptr noundef %14)
  %16 = load ptr, ptr %13, align 8, !tbaa !277
  %17 = zext i1 %2 to i8
  store ptr getelementptr inbounds ({ [9 x ptr] }, ptr @_ZTVN11xercesc_2_515BaseRefVectorOfINS_17SchemaElementDeclEEE, i64 0, inrange i32 0, i64 2), ptr %15, align 8, !tbaa !283
  %18 = getelementptr inbounds %"class.xercesc_2_5::BaseRefVectorOf.4", ptr %15, i64 0, i32 1
  store i8 %17, ptr %18, align 8, !tbaa !308
  %19 = getelementptr inbounds %"class.xercesc_2_5::BaseRefVectorOf.4", ptr %15, i64 0, i32 2
  store i32 0, ptr %19, align 4, !tbaa !304
  %20 = getelementptr inbounds %"class.xercesc_2_5::BaseRefVectorOf.4", ptr %15, i64 0, i32 3
  store i32 %12, ptr %20, align 8, !tbaa !309
  %21 = getelementptr inbounds %"class.xercesc_2_5::BaseRefVectorOf.4", ptr %15, i64 0, i32 4
  store ptr null, ptr %21, align 8, !tbaa !307
  %22 = getelementptr inbounds %"class.xercesc_2_5::BaseRefVectorOf.4", ptr %15, i64 0, i32 5
  store ptr %16, ptr %22, align 8, !tbaa !306
  %23 = zext i32 %12 to i64
  %24 = shl nuw nsw i64 %23, 3
  %25 = load ptr, ptr %16, align 8, !tbaa !283
  %26 = getelementptr inbounds ptr, ptr %25, i64 2
  %27 = load ptr, ptr %26, align 8
  %28 = invoke noundef ptr %27(ptr noundef nonnull align 8 dereferenceable(8) %16, i64 noundef %24)
          to label %29 unwind label %38

29:                                               ; preds = %10
  store ptr %28, ptr %21, align 8, !tbaa !307
  %30 = icmp eq i32 %12, 0
  br i1 %30, label %37, label %31

31:                                               ; preds = %29, %31
  %32 = phi i64 [ %35, %31 ], [ 0, %29 ]
  %33 = load ptr, ptr %21, align 8, !tbaa !307
  %34 = getelementptr inbounds ptr, ptr %33, i64 %32
  store ptr null, ptr %34, align 8, !tbaa !276
  %35 = add nuw nsw i64 %32, 1
  %36 = icmp eq i64 %35, %23
  br i1 %36, label %37, label %31

37:                                               ; preds = %31, %29
  store ptr getelementptr inbounds ({ [9 x ptr] }, ptr @_ZTVN11xercesc_2_511RefVectorOfINS_17SchemaElementDeclEEE, i64 0, inrange i32 0, i64 2), ptr %15, align 8, !tbaa !283
  store ptr %15, ptr %0, align 8, !tbaa !276
  br label %40

38:                                               ; preds = %10
  %39 = landingpad { ptr, i32 }
          cleanup
  invoke void @_ZN11xercesc_2_57XMemorydlEPvPNS_13MemoryManagerE(ptr noundef nonnull %15, ptr noundef %14)
          to label %113 unwind label %114

40:                                               ; preds = %37, %7
  %41 = phi ptr [ %15, %37 ], [ %8, %7 ]
  tail call void @_ZN11xercesc_2_516XSerializeEngine14registerObjectEPv(ptr noundef nonnull align 8 dereferenceable(92) %3, ptr noundef nonnull %41)
  call void @llvm.lifetime.start.p0(i64 4, ptr nonnull %5) #11
  store i32 0, ptr %5, align 4, !tbaa !285
  %42 = call noundef nonnull align 8 dereferenceable(92) ptr @_ZN11xercesc_2_516XSerializeEnginersERi(ptr noundef nonnull align 8 dereferenceable(92) %3, ptr noundef nonnull align 4 dereferenceable(4) %5)
  %43 = load i32, ptr %5, align 4, !tbaa !285
  %44 = icmp sgt i32 %43, 0
  br i1 %44, label %46, label %45

45:                                               ; preds = %103, %40
  call void @llvm.lifetime.end.p0(i64 4, ptr nonnull %5) #11
  br label %112

46:                                               ; preds = %40, %103
  %47 = phi i32 [ %109, %103 ], [ 0, %40 ]
  %48 = call noundef ptr @_ZN11xercesc_2_516XSerializeEngine4readEPNS_10XProtoTypeE(ptr noundef nonnull align 8 dereferenceable(92) %3, ptr noundef nonnull @_ZN11xercesc_2_517SchemaElementDecl22classSchemaElementDeclE)
  %49 = load ptr, ptr %0, align 8, !tbaa !276
  %50 = getelementptr inbounds %"class.xercesc_2_5::BaseRefVectorOf.4", ptr %49, i64 0, i32 2
  %51 = load i32, ptr %50, align 4, !tbaa !304
  %52 = add i32 %51, 1
  %53 = getelementptr inbounds %"class.xercesc_2_5::BaseRefVectorOf.4", ptr %49, i64 0, i32 3
  %54 = load i32, ptr %53, align 8, !tbaa !309
  %55 = icmp ult i32 %52, %54
  br i1 %55, label %56, label %59

56:                                               ; preds = %46
  %57 = getelementptr inbounds %"class.xercesc_2_5::BaseRefVectorOf.4", ptr %49, i64 0, i32 4
  %58 = load ptr, ptr %57, align 8, !tbaa !307
  br label %103

59:                                               ; preds = %46
  %60 = add i32 %54, 32
  %61 = call i32 @llvm.umax.i32(i32 %52, i32 %60)
  %62 = getelementptr inbounds %"class.xercesc_2_5::BaseRefVectorOf.4", ptr %49, i64 0, i32 5
  %63 = load ptr, ptr %62, align 8, !tbaa !306
  %64 = zext i32 %61 to i64
  %65 = shl nuw nsw i64 %64, 3
  %66 = load ptr, ptr %63, align 8, !tbaa !283
  %67 = getelementptr inbounds ptr, ptr %66, i64 2
  %68 = load ptr, ptr %67, align 8
  %69 = call noundef ptr %68(ptr noundef nonnull align 8 dereferenceable(8) %63, i64 noundef %65)
  %70 = load i32, ptr %50, align 4, !tbaa !304
  %71 = icmp eq i32 %70, 0
  br i1 %71, label %75, label %72

72:                                               ; preds = %59
  %73 = getelementptr inbounds %"class.xercesc_2_5::BaseRefVectorOf.4", ptr %49, i64 0, i32 4
  %74 = zext i32 %70 to i64
  br label %86

75:                                               ; preds = %86, %59
  %76 = icmp ult i32 %70, %61
  br i1 %76, label %77, label %94

77:                                               ; preds = %75
  %78 = zext i32 %70 to i64
  %79 = shl nuw nsw i64 %78, 3
  %80 = getelementptr i8, ptr %69, i64 %79
  %81 = xor i32 %70, -1
  %82 = add i32 %61, %81
  %83 = zext i32 %82 to i64
  %84 = shl nuw nsw i64 %83, 3
  %85 = add nuw nsw i64 %84, 8
  call void @llvm.memset.p0.i64(ptr noundef nonnull align 8 dereferenceable(1) %80, i8 0, i64 %85, i1 false), !tbaa !276
  br label %94

86:                                               ; preds = %86, %72
  %87 = phi i64 [ 0, %72 ], [ %92, %86 ]
  %88 = load ptr, ptr %73, align 8, !tbaa !307
  %89 = getelementptr inbounds ptr, ptr %88, i64 %87
  %90 = load ptr, ptr %89, align 8, !tbaa !276
  %91 = getelementptr inbounds ptr, ptr %69, i64 %87
  store ptr %90, ptr %91, align 8, !tbaa !276
  %92 = add nuw nsw i64 %87, 1
  %93 = icmp eq i64 %92, %74
  br i1 %93, label %75, label %86

94:                                               ; preds = %77, %75
  %95 = load ptr, ptr %62, align 8, !tbaa !306
  %96 = getelementptr inbounds %"class.xercesc_2_5::BaseRefVectorOf.4", ptr %49, i64 0, i32 4
  %97 = load ptr, ptr %96, align 8, !tbaa !307
  %98 = load ptr, ptr %95, align 8, !tbaa !283
  %99 = getelementptr inbounds ptr, ptr %98, i64 3
  %100 = load ptr, ptr %99, align 8
  call void %100(ptr noundef nonnull align 8 dereferenceable(8) %95, ptr noundef %97)
  store ptr %69, ptr %96, align 8, !tbaa !307
  store i32 %61, ptr %53, align 8, !tbaa !309
  %101 = load i32, ptr %50, align 4, !tbaa !304
  %102 = add i32 %101, 1
  br label %103

103:                                              ; preds = %56, %94
  %104 = phi i32 [ %52, %56 ], [ %102, %94 ]
  %105 = phi i32 [ %51, %56 ], [ %101, %94 ]
  %106 = phi ptr [ %58, %56 ], [ %69, %94 ]
  %107 = zext i32 %105 to i64
  %108 = getelementptr inbounds ptr, ptr %106, i64 %107
  store ptr %48, ptr %108, align 8, !tbaa !276
  store i32 %104, ptr %50, align 4, !tbaa !304
  %109 = add nuw nsw i32 %47, 1
  %110 = load i32, ptr %5, align 4, !tbaa !285
  %111 = icmp slt i32 %109, %110
  br i1 %111, label %46, label %45

112:                                              ; preds = %45, %4
  ret void

113:                                              ; preds = %38
  resume { ptr, i32 } %39

114:                                              ; preds = %38
  %115 = landingpad { ptr, i32 }
          catch ptr null
  %116 = extractvalue { ptr, i32 } %115, 0
  tail call void @__clang_call_terminate(ptr %116) #12
  unreachable
}

; Function Attrs: uwtable
define dso_local void @_ZN11xercesc_2_519XTemplateSerializer11storeObjectEPNS_11RefVectorOfINS_15ContentSpecNodeEEERNS_16XSerializeEngineE(ptr noundef %0, ptr noundef nonnull align 8 dereferenceable(92) %1) local_unnamed_addr #4 align 2 personality ptr @__gxx_personality_v0 {
  %3 = tail call noundef zeroext i1 @_ZN11xercesc_2_516XSerializeEngine17needToStoreObjectEPv(ptr noundef nonnull align 8 dereferenceable(92) %1, ptr noundef %0)
  br i1 %3, label %4, label %30

4:                                                ; preds = %2
  %5 = getelementptr inbounds %"class.xercesc_2_5::BaseRefVectorOf.6", ptr %0, i64 0, i32 2
  %6 = load i32, ptr %5, align 4, !tbaa !310
  %7 = tail call noundef nonnull align 8 dereferenceable(92) ptr @_ZN11xercesc_2_516XSerializeEnginelsEi(ptr noundef nonnull align 8 dereferenceable(92) %1, i32 noundef %6)
  %8 = icmp sgt i32 %6, 0
  br i1 %8, label %9, label %30

9:                                                ; preds = %4
  %10 = getelementptr inbounds %"class.xercesc_2_5::BaseRefVectorOf.6", ptr %0, i64 0, i32 4
  %11 = zext i32 %6 to i64
  br label %12

12:                                               ; preds = %9, %24
  %13 = phi i64 [ 0, %9 ], [ %28, %24 ]
  %14 = load i32, ptr %5, align 4, !tbaa !310
  %15 = zext i32 %14 to i64
  %16 = icmp ult i64 %13, %15
  br i1 %16, label %24, label %17

17:                                               ; preds = %12
  %18 = tail call ptr @__cxa_allocate_exception(i64 48) #11
  %19 = getelementptr inbounds %"class.xercesc_2_5::BaseRefVectorOf.6", ptr %0, i64 0, i32 5
  %20 = load ptr, ptr %19, align 8, !tbaa !312
  invoke void @_ZN11xercesc_2_530ArrayIndexOutOfBoundsExceptionC2EPKcjNS_10XMLExcepts5CodesEPNS_13MemoryManagerE(ptr noundef nonnull align 8 dereferenceable(48) %18, ptr noundef nonnull @.str, i32 noundef 289, i32 noundef 109, ptr noundef %20)
          to label %21 unwind label %22

21:                                               ; preds = %17
  tail call void @__cxa_throw(ptr nonnull %18, ptr nonnull @_ZTIN11xercesc_2_530ArrayIndexOutOfBoundsExceptionE, ptr nonnull @_ZN11xercesc_2_512XMLExceptionD2Ev) #13
  unreachable

22:                                               ; preds = %17
  %23 = landingpad { ptr, i32 }
          cleanup
  tail call void @__cxa_free_exception(ptr %18) #11
  resume { ptr, i32 } %23

24:                                               ; preds = %12
  %25 = load ptr, ptr %10, align 8, !tbaa !313
  %26 = getelementptr inbounds ptr, ptr %25, i64 %13
  %27 = load ptr, ptr %26, align 8, !tbaa !276
  tail call void @_ZN11xercesc_2_516XSerializeEngine5writeEPNS_13XSerializableE(ptr noundef nonnull align 8 dereferenceable(92) %1, ptr noundef %27)
  %28 = add nuw nsw i64 %13, 1
  %29 = icmp eq i64 %28, %11
  br i1 %29, label %30, label %12

30:                                               ; preds = %24, %4, %2
  ret void
}

; Function Attrs: uwtable
define dso_local void @_ZN11xercesc_2_519XTemplateSerializer10loadObjectEPPNS_11RefVectorOfINS_15ContentSpecNodeEEEibRNS_16XSerializeEngineE(ptr noundef %0, i32 noundef %1, i1 noundef zeroext %2, ptr noundef nonnull align 8 dereferenceable(92) %3) local_unnamed_addr #4 align 2 personality ptr @__gxx_personality_v0 {
  %5 = alloca i32, align 4
  %6 = tail call noundef zeroext i1 @_ZN11xercesc_2_516XSerializeEngine16needToLoadObjectEPPv(ptr noundef nonnull align 8 dereferenceable(92) %3, ptr noundef %0)
  br i1 %6, label %7, label %112

7:                                                ; preds = %4
  %8 = load ptr, ptr %0, align 8, !tbaa !276
  %9 = icmp eq ptr %8, null
  br i1 %9, label %10, label %40

10:                                               ; preds = %7
  %11 = icmp slt i32 %1, 0
  %12 = select i1 %11, i32 16, i32 %1
  %13 = getelementptr inbounds %"class.xercesc_2_5::XSerializeEngine", ptr %3, i64 0, i32 2
  %14 = load ptr, ptr %13, align 8, !tbaa !277
  %15 = tail call noundef ptr @_ZN11xercesc_2_57XMemorynwEmPNS_13MemoryManagerE(i64 noundef 40, ptr noundef %14)
  %16 = load ptr, ptr %13, align 8, !tbaa !277
  %17 = zext i1 %2 to i8
  store ptr getelementptr inbounds ({ [9 x ptr] }, ptr @_ZTVN11xercesc_2_515BaseRefVectorOfINS_15ContentSpecNodeEEE, i64 0, inrange i32 0, i64 2), ptr %15, align 8, !tbaa !283
  %18 = getelementptr inbounds %"class.xercesc_2_5::BaseRefVectorOf.6", ptr %15, i64 0, i32 1
  store i8 %17, ptr %18, align 8, !tbaa !314
  %19 = getelementptr inbounds %"class.xercesc_2_5::BaseRefVectorOf.6", ptr %15, i64 0, i32 2
  store i32 0, ptr %19, align 4, !tbaa !310
  %20 = getelementptr inbounds %"class.xercesc_2_5::BaseRefVectorOf.6", ptr %15, i64 0, i32 3
  store i32 %12, ptr %20, align 8, !tbaa !315
  %21 = getelementptr inbounds %"class.xercesc_2_5::BaseRefVectorOf.6", ptr %15, i64 0, i32 4
  store ptr null, ptr %21, align 8, !tbaa !313
  %22 = getelementptr inbounds %"class.xercesc_2_5::BaseRefVectorOf.6", ptr %15, i64 0, i32 5
  store ptr %16, ptr %22, align 8, !tbaa !312
  %23 = zext i32 %12 to i64
  %24 = shl nuw nsw i64 %23, 3
  %25 = load ptr, ptr %16, align 8, !tbaa !283
  %26 = getelementptr inbounds ptr, ptr %25, i64 2
  %27 = load ptr, ptr %26, align 8
  %28 = invoke noundef ptr %27(ptr noundef nonnull align 8 dereferenceable(8) %16, i64 noundef %24)
          to label %29 unwind label %38

29:                                               ; preds = %10
  store ptr %28, ptr %21, align 8, !tbaa !313
  %30 = icmp eq i32 %12, 0
  br i1 %30, label %37, label %31

31:                                               ; preds = %29, %31
  %32 = phi i64 [ %35, %31 ], [ 0, %29 ]
  %33 = load ptr, ptr %21, align 8, !tbaa !313
  %34 = getelementptr inbounds ptr, ptr %33, i64 %32
  store ptr null, ptr %34, align 8, !tbaa !276
  %35 = add nuw nsw i64 %32, 1
  %36 = icmp eq i64 %35, %23
  br i1 %36, label %37, label %31

37:                                               ; preds = %31, %29
  store ptr getelementptr inbounds ({ [9 x ptr] }, ptr @_ZTVN11xercesc_2_511RefVectorOfINS_15ContentSpecNodeEEE, i64 0, inrange i32 0, i64 2), ptr %15, align 8, !tbaa !283
  store ptr %15, ptr %0, align 8, !tbaa !276
  br label %40

38:                                               ; preds = %10
  %39 = landingpad { ptr, i32 }
          cleanup
  invoke void @_ZN11xercesc_2_57XMemorydlEPvPNS_13MemoryManagerE(ptr noundef nonnull %15, ptr noundef %14)
          to label %113 unwind label %114

40:                                               ; preds = %37, %7
  %41 = phi ptr [ %15, %37 ], [ %8, %7 ]
  tail call void @_ZN11xercesc_2_516XSerializeEngine14registerObjectEPv(ptr noundef nonnull align 8 dereferenceable(92) %3, ptr noundef nonnull %41)
  call void @llvm.lifetime.start.p0(i64 4, ptr nonnull %5) #11
  store i32 0, ptr %5, align 4, !tbaa !285
  %42 = call noundef nonnull align 8 dereferenceable(92) ptr @_ZN11xercesc_2_516XSerializeEnginersERi(ptr noundef nonnull align 8 dereferenceable(92) %3, ptr noundef nonnull align 4 dereferenceable(4) %5)
  %43 = load i32, ptr %5, align 4, !tbaa !285
  %44 = icmp sgt i32 %43, 0
  br i1 %44, label %46, label %45

45:                                               ; preds = %103, %40
  call void @llvm.lifetime.end.p0(i64 4, ptr nonnull %5) #11
  br label %112

46:                                               ; preds = %40, %103
  %47 = phi i32 [ %109, %103 ], [ 0, %40 ]
  %48 = call noundef ptr @_ZN11xercesc_2_516XSerializeEngine4readEPNS_10XProtoTypeE(ptr noundef nonnull align 8 dereferenceable(92) %3, ptr noundef nonnull @_ZN11xercesc_2_515ContentSpecNode20classContentSpecNodeE)
  %49 = load ptr, ptr %0, align 8, !tbaa !276
  %50 = getelementptr inbounds %"class.xercesc_2_5::BaseRefVectorOf.6", ptr %49, i64 0, i32 2
  %51 = load i32, ptr %50, align 4, !tbaa !310
  %52 = add i32 %51, 1
  %53 = getelementptr inbounds %"class.xercesc_2_5::BaseRefVectorOf.6", ptr %49, i64 0, i32 3
  %54 = load i32, ptr %53, align 8, !tbaa !315
  %55 = icmp ult i32 %52, %54
  br i1 %55, label %56, label %59

56:                                               ; preds = %46
  %57 = getelementptr inbounds %"class.xercesc_2_5::BaseRefVectorOf.6", ptr %49, i64 0, i32 4
  %58 = load ptr, ptr %57, align 8, !tbaa !313
  br label %103

59:                                               ; preds = %46
  %60 = add i32 %54, 32
  %61 = call i32 @llvm.umax.i32(i32 %52, i32 %60)
  %62 = getelementptr inbounds %"class.xercesc_2_5::BaseRefVectorOf.6", ptr %49, i64 0, i32 5
  %63 = load ptr, ptr %62, align 8, !tbaa !312
  %64 = zext i32 %61 to i64
  %65 = shl nuw nsw i64 %64, 3
  %66 = load ptr, ptr %63, align 8, !tbaa !283
  %67 = getelementptr inbounds ptr, ptr %66, i64 2
  %68 = load ptr, ptr %67, align 8
  %69 = call noundef ptr %68(ptr noundef nonnull align 8 dereferenceable(8) %63, i64 noundef %65)
  %70 = load i32, ptr %50, align 4, !tbaa !310
  %71 = icmp eq i32 %70, 0
  br i1 %71, label %75, label %72

72:                                               ; preds = %59
  %73 = getelementptr inbounds %"class.xercesc_2_5::BaseRefVectorOf.6", ptr %49, i64 0, i32 4
  %74 = zext i32 %70 to i64
  br label %86

75:                                               ; preds = %86, %59
  %76 = icmp ult i32 %70, %61
  br i1 %76, label %77, label %94

77:                                               ; preds = %75
  %78 = zext i32 %70 to i64
  %79 = shl nuw nsw i64 %78, 3
  %80 = getelementptr i8, ptr %69, i64 %79
  %81 = xor i32 %70, -1
  %82 = add i32 %61, %81
  %83 = zext i32 %82 to i64
  %84 = shl nuw nsw i64 %83, 3
  %85 = add nuw nsw i64 %84, 8
  call void @llvm.memset.p0.i64(ptr noundef nonnull align 8 dereferenceable(1) %80, i8 0, i64 %85, i1 false), !tbaa !276
  br label %94

86:                                               ; preds = %86, %72
  %87 = phi i64 [ 0, %72 ], [ %92, %86 ]
  %88 = load ptr, ptr %73, align 8, !tbaa !313
  %89 = getelementptr inbounds ptr, ptr %88, i64 %87
  %90 = load ptr, ptr %89, align 8, !tbaa !276
  %91 = getelementptr inbounds ptr, ptr %69, i64 %87
  store ptr %90, ptr %91, align 8, !tbaa !276
  %92 = add nuw nsw i64 %87, 1
  %93 = icmp eq i64 %92, %74
  br i1 %93, label %75, label %86

94:                                               ; preds = %77, %75
  %95 = load ptr, ptr %62, align 8, !tbaa !312
  %96 = getelementptr inbounds %"class.xercesc_2_5::BaseRefVectorOf.6", ptr %49, i64 0, i32 4
  %97 = load ptr, ptr %96, align 8, !tbaa !313
  %98 = load ptr, ptr %95, align 8, !tbaa !283
  %99 = getelementptr inbounds ptr, ptr %98, i64 3
  %100 = load ptr, ptr %99, align 8
  call void %100(ptr noundef nonnull align 8 dereferenceable(8) %95, ptr noundef %97)
  store ptr %69, ptr %96, align 8, !tbaa !313
  store i32 %61, ptr %53, align 8, !tbaa !315
  %101 = load i32, ptr %50, align 4, !tbaa !310
  %102 = add i32 %101, 1
  br label %103

103:                                              ; preds = %56, %94
  %104 = phi i32 [ %52, %56 ], [ %102, %94 ]
  %105 = phi i32 [ %51, %56 ], [ %101, %94 ]
  %106 = phi ptr [ %58, %56 ], [ %69, %94 ]
  %107 = zext i32 %105 to i64
  %108 = getelementptr inbounds ptr, ptr %106, i64 %107
  store ptr %48, ptr %108, align 8, !tbaa !276
  store i32 %104, ptr %50, align 4, !tbaa !310
  %109 = add nuw nsw i32 %47, 1
  %110 = load i32, ptr %5, align 4, !tbaa !285
  %111 = icmp slt i32 %109, %110
  br i1 %111, label %46, label %45

112:                                              ; preds = %45, %4
  ret void

113:                                              ; preds = %38
  resume { ptr, i32 } %39

114:                                              ; preds = %38
  %115 = landingpad { ptr, i32 }
          catch ptr null
  %116 = extractvalue { ptr, i32 } %115, 0
  tail call void @__clang_call_terminate(ptr %116) #12
  unreachable
}

; Function Attrs: uwtable
define dso_local void @_ZN11xercesc_2_519XTemplateSerializer11storeObjectEPNS_11RefVectorOfINS_8IC_FieldEEERNS_16XSerializeEngineE(ptr noundef %0, ptr noundef nonnull align 8 dereferenceable(92) %1) local_unnamed_addr #4 align 2 personality ptr @__gxx_personality_v0 {
  %3 = tail call noundef zeroext i1 @_ZN11xercesc_2_516XSerializeEngine17needToStoreObjectEPv(ptr noundef nonnull align 8 dereferenceable(92) %1, ptr noundef %0)
  br i1 %3, label %4, label %30

4:                                                ; preds = %2
  %5 = getelementptr inbounds %"class.xercesc_2_5::BaseRefVectorOf.8", ptr %0, i64 0, i32 2
  %6 = load i32, ptr %5, align 4, !tbaa !316
  %7 = tail call noundef nonnull align 8 dereferenceable(92) ptr @_ZN11xercesc_2_516XSerializeEnginelsEi(ptr noundef nonnull align 8 dereferenceable(92) %1, i32 noundef %6)
  %8 = icmp sgt i32 %6, 0
  br i1 %8, label %9, label %30

9:                                                ; preds = %4
  %10 = getelementptr inbounds %"class.xercesc_2_5::BaseRefVectorOf.8", ptr %0, i64 0, i32 4
  %11 = zext i32 %6 to i64
  br label %12

12:                                               ; preds = %9, %24
  %13 = phi i64 [ 0, %9 ], [ %28, %24 ]
  %14 = load i32, ptr %5, align 4, !tbaa !316
  %15 = zext i32 %14 to i64
  %16 = icmp ult i64 %13, %15
  br i1 %16, label %24, label %17

17:                                               ; preds = %12
  %18 = tail call ptr @__cxa_allocate_exception(i64 48) #11
  %19 = getelementptr inbounds %"class.xercesc_2_5::BaseRefVectorOf.8", ptr %0, i64 0, i32 5
  %20 = load ptr, ptr %19, align 8, !tbaa !318
  invoke void @_ZN11xercesc_2_530ArrayIndexOutOfBoundsExceptionC2EPKcjNS_10XMLExcepts5CodesEPNS_13MemoryManagerE(ptr noundef nonnull align 8 dereferenceable(48) %18, ptr noundef nonnull @.str, i32 noundef 289, i32 noundef 109, ptr noundef %20)
          to label %21 unwind label %22

21:                                               ; preds = %17
  tail call void @__cxa_throw(ptr nonnull %18, ptr nonnull @_ZTIN11xercesc_2_530ArrayIndexOutOfBoundsExceptionE, ptr nonnull @_ZN11xercesc_2_512XMLExceptionD2Ev) #13
  unreachable

22:                                               ; preds = %17
  %23 = landingpad { ptr, i32 }
          cleanup
  tail call void @__cxa_free_exception(ptr %18) #11
  resume { ptr, i32 } %23

24:                                               ; preds = %12
  %25 = load ptr, ptr %10, align 8, !tbaa !319
  %26 = getelementptr inbounds ptr, ptr %25, i64 %13
  %27 = load ptr, ptr %26, align 8, !tbaa !276
  tail call void @_ZN11xercesc_2_516XSerializeEngine5writeEPNS_13XSerializableE(ptr noundef nonnull align 8 dereferenceable(92) %1, ptr noundef %27)
  %28 = add nuw nsw i64 %13, 1
  %29 = icmp eq i64 %28, %11
  br i1 %29, label %30, label %12

30:                                               ; preds = %24, %4, %2
  ret void
}

; Function Attrs: uwtable
define dso_local void @_ZN11xercesc_2_519XTemplateSerializer10loadObjectEPPNS_11RefVectorOfINS_8IC_FieldEEEibRNS_16XSerializeEngineE(ptr noundef %0, i32 noundef %1, i1 noundef zeroext %2, ptr noundef nonnull align 8 dereferenceable(92) %3) local_unnamed_addr #4 align 2 personality ptr @__gxx_personality_v0 {
  %5 = alloca i32, align 4
  %6 = tail call noundef zeroext i1 @_ZN11xercesc_2_516XSerializeEngine16needToLoadObjectEPPv(ptr noundef nonnull align 8 dereferenceable(92) %3, ptr noundef %0)
  br i1 %6, label %7, label %112

7:                                                ; preds = %4
  %8 = load ptr, ptr %0, align 8, !tbaa !276
  %9 = icmp eq ptr %8, null
  br i1 %9, label %10, label %40

10:                                               ; preds = %7
  %11 = icmp slt i32 %1, 0
  %12 = select i1 %11, i32 16, i32 %1
  %13 = getelementptr inbounds %"class.xercesc_2_5::XSerializeEngine", ptr %3, i64 0, i32 2
  %14 = load ptr, ptr %13, align 8, !tbaa !277
  %15 = tail call noundef ptr @_ZN11xercesc_2_57XMemorynwEmPNS_13MemoryManagerE(i64 noundef 40, ptr noundef %14)
  %16 = load ptr, ptr %13, align 8, !tbaa !277
  %17 = zext i1 %2 to i8
  store ptr getelementptr inbounds ({ [9 x ptr] }, ptr @_ZTVN11xercesc_2_515BaseRefVectorOfINS_8IC_FieldEEE, i64 0, inrange i32 0, i64 2), ptr %15, align 8, !tbaa !283
  %18 = getelementptr inbounds %"class.xercesc_2_5::BaseRefVectorOf.8", ptr %15, i64 0, i32 1
  store i8 %17, ptr %18, align 8, !tbaa !320
  %19 = getelementptr inbounds %"class.xercesc_2_5::BaseRefVectorOf.8", ptr %15, i64 0, i32 2
  store i32 0, ptr %19, align 4, !tbaa !316
  %20 = getelementptr inbounds %"class.xercesc_2_5::BaseRefVectorOf.8", ptr %15, i64 0, i32 3
  store i32 %12, ptr %20, align 8, !tbaa !321
  %21 = getelementptr inbounds %"class.xercesc_2_5::BaseRefVectorOf.8", ptr %15, i64 0, i32 4
  store ptr null, ptr %21, align 8, !tbaa !319
  %22 = getelementptr inbounds %"class.xercesc_2_5::BaseRefVectorOf.8", ptr %15, i64 0, i32 5
  store ptr %16, ptr %22, align 8, !tbaa !318
  %23 = zext i32 %12 to i64
  %24 = shl nuw nsw i64 %23, 3
  %25 = load ptr, ptr %16, align 8, !tbaa !283
  %26 = getelementptr inbounds ptr, ptr %25, i64 2
  %27 = load ptr, ptr %26, align 8
  %28 = invoke noundef ptr %27(ptr noundef nonnull align 8 dereferenceable(8) %16, i64 noundef %24)
          to label %29 unwind label %38

29:                                               ; preds = %10
  store ptr %28, ptr %21, align 8, !tbaa !319
  %30 = icmp eq i32 %12, 0
  br i1 %30, label %37, label %31

31:                                               ; preds = %29, %31
  %32 = phi i64 [ %35, %31 ], [ 0, %29 ]
  %33 = load ptr, ptr %21, align 8, !tbaa !319
  %34 = getelementptr inbounds ptr, ptr %33, i64 %32
  store ptr null, ptr %34, align 8, !tbaa !276
  %35 = add nuw nsw i64 %32, 1
  %36 = icmp eq i64 %35, %23
  br i1 %36, label %37, label %31

37:                                               ; preds = %31, %29
  store ptr getelementptr inbounds ({ [9 x ptr] }, ptr @_ZTVN11xercesc_2_511RefVectorOfINS_8IC_FieldEEE, i64 0, inrange i32 0, i64 2), ptr %15, align 8, !tbaa !283
  store ptr %15, ptr %0, align 8, !tbaa !276
  br label %40

38:                                               ; preds = %10
  %39 = landingpad { ptr, i32 }
          cleanup
  invoke void @_ZN11xercesc_2_57XMemorydlEPvPNS_13MemoryManagerE(ptr noundef nonnull %15, ptr noundef %14)
          to label %113 unwind label %114

40:                                               ; preds = %37, %7
  %41 = phi ptr [ %15, %37 ], [ %8, %7 ]
  tail call void @_ZN11xercesc_2_516XSerializeEngine14registerObjectEPv(ptr noundef nonnull align 8 dereferenceable(92) %3, ptr noundef nonnull %41)
  call void @llvm.lifetime.start.p0(i64 4, ptr nonnull %5) #11
  store i32 0, ptr %5, align 4, !tbaa !285
  %42 = call noundef nonnull align 8 dereferenceable(92) ptr @_ZN11xercesc_2_516XSerializeEnginersERi(ptr noundef nonnull align 8 dereferenceable(92) %3, ptr noundef nonnull align 4 dereferenceable(4) %5)
  %43 = load i32, ptr %5, align 4, !tbaa !285
  %44 = icmp sgt i32 %43, 0
  br i1 %44, label %46, label %45

45:                                               ; preds = %103, %40
  call void @llvm.lifetime.end.p0(i64 4, ptr nonnull %5) #11
  br label %112

46:                                               ; preds = %40, %103
  %47 = phi i32 [ %109, %103 ], [ 0, %40 ]
  %48 = call noundef ptr @_ZN11xercesc_2_516XSerializeEngine4readEPNS_10XProtoTypeE(ptr noundef nonnull align 8 dereferenceable(92) %3, ptr noundef nonnull @_ZN11xercesc_2_58IC_Field13classIC_FieldE)
  %49 = load ptr, ptr %0, align 8, !tbaa !276
  %50 = getelementptr inbounds %"class.xercesc_2_5::BaseRefVectorOf.8", ptr %49, i64 0, i32 2
  %51 = load i32, ptr %50, align 4, !tbaa !316
  %52 = add i32 %51, 1
  %53 = getelementptr inbounds %"class.xercesc_2_5::BaseRefVectorOf.8", ptr %49, i64 0, i32 3
  %54 = load i32, ptr %53, align 8, !tbaa !321
  %55 = icmp ult i32 %52, %54
  br i1 %55, label %56, label %59

56:                                               ; preds = %46
  %57 = getelementptr inbounds %"class.xercesc_2_5::BaseRefVectorOf.8", ptr %49, i64 0, i32 4
  %58 = load ptr, ptr %57, align 8, !tbaa !319
  br label %103

59:                                               ; preds = %46
  %60 = add i32 %54, 32
  %61 = call i32 @llvm.umax.i32(i32 %52, i32 %60)
  %62 = getelementptr inbounds %"class.xercesc_2_5::BaseRefVectorOf.8", ptr %49, i64 0, i32 5
  %63 = load ptr, ptr %62, align 8, !tbaa !318
  %64 = zext i32 %61 to i64
  %65 = shl nuw nsw i64 %64, 3
  %66 = load ptr, ptr %63, align 8, !tbaa !283
  %67 = getelementptr inbounds ptr, ptr %66, i64 2
  %68 = load ptr, ptr %67, align 8
  %69 = call noundef ptr %68(ptr noundef nonnull align 8 dereferenceable(8) %63, i64 noundef %65)
  %70 = load i32, ptr %50, align 4, !tbaa !316
  %71 = icmp eq i32 %70, 0
  br i1 %71, label %75, label %72

72:                                               ; preds = %59
  %73 = getelementptr inbounds %"class.xercesc_2_5::BaseRefVectorOf.8", ptr %49, i64 0, i32 4
  %74 = zext i32 %70 to i64
  br label %86

75:                                               ; preds = %86, %59
  %76 = icmp ult i32 %70, %61
  br i1 %76, label %77, label %94

77:                                               ; preds = %75
  %78 = zext i32 %70 to i64
  %79 = shl nuw nsw i64 %78, 3
  %80 = getelementptr i8, ptr %69, i64 %79
  %81 = xor i32 %70, -1
  %82 = add i32 %61, %81
  %83 = zext i32 %82 to i64
  %84 = shl nuw nsw i64 %83, 3
  %85 = add nuw nsw i64 %84, 8
  call void @llvm.memset.p0.i64(ptr noundef nonnull align 8 dereferenceable(1) %80, i8 0, i64 %85, i1 false), !tbaa !276
  br label %94

86:                                               ; preds = %86, %72
  %87 = phi i64 [ 0, %72 ], [ %92, %86 ]
  %88 = load ptr, ptr %73, align 8, !tbaa !319
  %89 = getelementptr inbounds ptr, ptr %88, i64 %87
  %90 = load ptr, ptr %89, align 8, !tbaa !276
  %91 = getelementptr inbounds ptr, ptr %69, i64 %87
  store ptr %90, ptr %91, align 8, !tbaa !276
  %92 = add nuw nsw i64 %87, 1
  %93 = icmp eq i64 %92, %74
  br i1 %93, label %75, label %86

94:                                               ; preds = %77, %75
  %95 = load ptr, ptr %62, align 8, !tbaa !318
  %96 = getelementptr inbounds %"class.xercesc_2_5::BaseRefVectorOf.8", ptr %49, i64 0, i32 4
  %97 = load ptr, ptr %96, align 8, !tbaa !319
  %98 = load ptr, ptr %95, align 8, !tbaa !283
  %99 = getelementptr inbounds ptr, ptr %98, i64 3
  %100 = load ptr, ptr %99, align 8
  call void %100(ptr noundef nonnull align 8 dereferenceable(8) %95, ptr noundef %97)
  store ptr %69, ptr %96, align 8, !tbaa !319
  store i32 %61, ptr %53, align 8, !tbaa !321
  %101 = load i32, ptr %50, align 4, !tbaa !316
  %102 = add i32 %101, 1
  br label %103

103:                                              ; preds = %56, %94
  %104 = phi i32 [ %52, %56 ], [ %102, %94 ]
  %105 = phi i32 [ %51, %56 ], [ %101, %94 ]
  %106 = phi ptr [ %58, %56 ], [ %69, %94 ]
  %107 = zext i32 %105 to i64
  %108 = getelementptr inbounds ptr, ptr %106, i64 %107
  store ptr %48, ptr %108, align 8, !tbaa !276
  store i32 %104, ptr %50, align 4, !tbaa !316
  %109 = add nuw nsw i32 %47, 1
  %110 = load i32, ptr %5, align 4, !tbaa !285
  %111 = icmp slt i32 %109, %110
  br i1 %111, label %46, label %45

112:                                              ; preds = %45, %4
  ret void

113:                                              ; preds = %38
  resume { ptr, i32 } %39

114:                                              ; preds = %38
  %115 = landingpad { ptr, i32 }
          catch ptr null
  %116 = extractvalue { ptr, i32 } %115, 0
  tail call void @__clang_call_terminate(ptr %116) #12
  unreachable
}

; Function Attrs: uwtable
define dso_local void @_ZN11xercesc_2_519XTemplateSerializer11storeObjectEPNS_11RefVectorOfINS_17DatatypeValidatorEEERNS_16XSerializeEngineE(ptr noundef %0, ptr noundef nonnull align 8 dereferenceable(92) %1) local_unnamed_addr #4 align 2 personality ptr @__gxx_personality_v0 {
  %3 = tail call noundef zeroext i1 @_ZN11xercesc_2_516XSerializeEngine17needToStoreObjectEPv(ptr noundef nonnull align 8 dereferenceable(92) %1, ptr noundef %0)
  br i1 %3, label %4, label %30

4:                                                ; preds = %2
  %5 = getelementptr inbounds %"class.xercesc_2_5::BaseRefVectorOf.10", ptr %0, i64 0, i32 2
  %6 = load i32, ptr %5, align 4, !tbaa !322
  %7 = tail call noundef nonnull align 8 dereferenceable(92) ptr @_ZN11xercesc_2_516XSerializeEnginelsEi(ptr noundef nonnull align 8 dereferenceable(92) %1, i32 noundef %6)
  %8 = icmp sgt i32 %6, 0
  br i1 %8, label %9, label %30

9:                                                ; preds = %4
  %10 = getelementptr inbounds %"class.xercesc_2_5::BaseRefVectorOf.10", ptr %0, i64 0, i32 4
  %11 = zext i32 %6 to i64
  br label %12

12:                                               ; preds = %9, %24
  %13 = phi i64 [ 0, %9 ], [ %28, %24 ]
  %14 = load i32, ptr %5, align 4, !tbaa !322
  %15 = zext i32 %14 to i64
  %16 = icmp ult i64 %13, %15
  br i1 %16, label %24, label %17

17:                                               ; preds = %12
  %18 = tail call ptr @__cxa_allocate_exception(i64 48) #11
  %19 = getelementptr inbounds %"class.xercesc_2_5::BaseRefVectorOf.10", ptr %0, i64 0, i32 5
  %20 = load ptr, ptr %19, align 8, !tbaa !324
  invoke void @_ZN11xercesc_2_530ArrayIndexOutOfBoundsExceptionC2EPKcjNS_10XMLExcepts5CodesEPNS_13MemoryManagerE(ptr noundef nonnull align 8 dereferenceable(48) %18, ptr noundef nonnull @.str, i32 noundef 289, i32 noundef 109, ptr noundef %20)
          to label %21 unwind label %22

21:                                               ; preds = %17
  tail call void @__cxa_throw(ptr nonnull %18, ptr nonnull @_ZTIN11xercesc_2_530ArrayIndexOutOfBoundsExceptionE, ptr nonnull @_ZN11xercesc_2_512XMLExceptionD2Ev) #13
  unreachable

22:                                               ; preds = %17
  %23 = landingpad { ptr, i32 }
          cleanup
  tail call void @__cxa_free_exception(ptr %18) #11
  resume { ptr, i32 } %23

24:                                               ; preds = %12
  %25 = load ptr, ptr %10, align 8, !tbaa !325
  %26 = getelementptr inbounds ptr, ptr %25, i64 %13
  %27 = load ptr, ptr %26, align 8, !tbaa !276
  tail call void @_ZN11xercesc_2_517DatatypeValidator7storeDVERNS_16XSerializeEngineEPS0_(ptr noundef nonnull align 8 dereferenceable(92) %1, ptr noundef %27)
  %28 = add nuw nsw i64 %13, 1
  %29 = icmp eq i64 %28, %11
  br i1 %29, label %30, label %12

30:                                               ; preds = %24, %4, %2
  ret void
}

declare void @_ZN11xercesc_2_517DatatypeValidator7storeDVERNS_16XSerializeEngineEPS0_(ptr noundef nonnull align 8 dereferenceable(92), ptr noundef) local_unnamed_addr #2

; Function Attrs: uwtable
define dso_local void @_ZN11xercesc_2_519XTemplateSerializer10loadObjectEPPNS_11RefVectorOfINS_17DatatypeValidatorEEEibRNS_16XSerializeEngineE(ptr noundef %0, i32 noundef %1, i1 noundef zeroext %2, ptr noundef nonnull align 8 dereferenceable(92) %3) local_unnamed_addr #4 align 2 personality ptr @__gxx_personality_v0 {
  %5 = alloca i32, align 4
  %6 = tail call noundef zeroext i1 @_ZN11xercesc_2_516XSerializeEngine16needToLoadObjectEPPv(ptr noundef nonnull align 8 dereferenceable(92) %3, ptr noundef %0)
  br i1 %6, label %7, label %112

7:                                                ; preds = %4
  %8 = load ptr, ptr %0, align 8, !tbaa !276
  %9 = icmp eq ptr %8, null
  br i1 %9, label %10, label %40

10:                                               ; preds = %7
  %11 = icmp slt i32 %1, 0
  %12 = select i1 %11, i32 16, i32 %1
  %13 = getelementptr inbounds %"class.xercesc_2_5::XSerializeEngine", ptr %3, i64 0, i32 2
  %14 = load ptr, ptr %13, align 8, !tbaa !277
  %15 = tail call noundef ptr @_ZN11xercesc_2_57XMemorynwEmPNS_13MemoryManagerE(i64 noundef 40, ptr noundef %14)
  %16 = load ptr, ptr %13, align 8, !tbaa !277
  %17 = zext i1 %2 to i8
  store ptr getelementptr inbounds ({ [9 x ptr] }, ptr @_ZTVN11xercesc_2_515BaseRefVectorOfINS_17DatatypeValidatorEEE, i64 0, inrange i32 0, i64 2), ptr %15, align 8, !tbaa !283
  %18 = getelementptr inbounds %"class.xercesc_2_5::BaseRefVectorOf.10", ptr %15, i64 0, i32 1
  store i8 %17, ptr %18, align 8, !tbaa !326
  %19 = getelementptr inbounds %"class.xercesc_2_5::BaseRefVectorOf.10", ptr %15, i64 0, i32 2
  store i32 0, ptr %19, align 4, !tbaa !322
  %20 = getelementptr inbounds %"class.xercesc_2_5::BaseRefVectorOf.10", ptr %15, i64 0, i32 3
  store i32 %12, ptr %20, align 8, !tbaa !327
  %21 = getelementptr inbounds %"class.xercesc_2_5::BaseRefVectorOf.10", ptr %15, i64 0, i32 4
  store ptr null, ptr %21, align 8, !tbaa !325
  %22 = getelementptr inbounds %"class.xercesc_2_5::BaseRefVectorOf.10", ptr %15, i64 0, i32 5
  store ptr %16, ptr %22, align 8, !tbaa !324
  %23 = zext i32 %12 to i64
  %24 = shl nuw nsw i64 %23, 3
  %25 = load ptr, ptr %16, align 8, !tbaa !283
  %26 = getelementptr inbounds ptr, ptr %25, i64 2
  %27 = load ptr, ptr %26, align 8
  %28 = invoke noundef ptr %27(ptr noundef nonnull align 8 dereferenceable(8) %16, i64 noundef %24)
          to label %29 unwind label %38

29:                                               ; preds = %10
  store ptr %28, ptr %21, align 8, !tbaa !325
  %30 = icmp eq i32 %12, 0
  br i1 %30, label %37, label %31

31:                                               ; preds = %29, %31
  %32 = phi i64 [ %35, %31 ], [ 0, %29 ]
  %33 = load ptr, ptr %21, align 8, !tbaa !325
  %34 = getelementptr inbounds ptr, ptr %33, i64 %32
  store ptr null, ptr %34, align 8, !tbaa !276
  %35 = add nuw nsw i64 %32, 1
  %36 = icmp eq i64 %35, %23
  br i1 %36, label %37, label %31

37:                                               ; preds = %31, %29
  store ptr getelementptr inbounds ({ [9 x ptr] }, ptr @_ZTVN11xercesc_2_511RefVectorOfINS_17DatatypeValidatorEEE, i64 0, inrange i32 0, i64 2), ptr %15, align 8, !tbaa !283
  store ptr %15, ptr %0, align 8, !tbaa !276
  br label %40

38:                                               ; preds = %10
  %39 = landingpad { ptr, i32 }
          cleanup
  invoke void @_ZN11xercesc_2_57XMemorydlEPvPNS_13MemoryManagerE(ptr noundef nonnull %15, ptr noundef %14)
          to label %113 unwind label %114

40:                                               ; preds = %37, %7
  %41 = phi ptr [ %15, %37 ], [ %8, %7 ]
  tail call void @_ZN11xercesc_2_516XSerializeEngine14registerObjectEPv(ptr noundef nonnull align 8 dereferenceable(92) %3, ptr noundef nonnull %41)
  call void @llvm.lifetime.start.p0(i64 4, ptr nonnull %5) #11
  store i32 0, ptr %5, align 4, !tbaa !285
  %42 = call noundef nonnull align 8 dereferenceable(92) ptr @_ZN11xercesc_2_516XSerializeEnginersERi(ptr noundef nonnull align 8 dereferenceable(92) %3, ptr noundef nonnull align 4 dereferenceable(4) %5)
  %43 = load i32, ptr %5, align 4, !tbaa !285
  %44 = icmp sgt i32 %43, 0
  br i1 %44, label %46, label %45

45:                                               ; preds = %103, %40
  call void @llvm.lifetime.end.p0(i64 4, ptr nonnull %5) #11
  br label %112

46:                                               ; preds = %40, %103
  %47 = phi i32 [ %109, %103 ], [ 0, %40 ]
  %48 = call noundef ptr @_ZN11xercesc_2_517DatatypeValidator6loadDVERNS_16XSerializeEngineE(ptr noundef nonnull align 8 dereferenceable(92) %3)
  %49 = load ptr, ptr %0, align 8, !tbaa !276
  %50 = getelementptr inbounds %"class.xercesc_2_5::BaseRefVectorOf.10", ptr %49, i64 0, i32 2
  %51 = load i32, ptr %50, align 4, !tbaa !322
  %52 = add i32 %51, 1
  %53 = getelementptr inbounds %"class.xercesc_2_5::BaseRefVectorOf.10", ptr %49, i64 0, i32 3
  %54 = load i32, ptr %53, align 8, !tbaa !327
  %55 = icmp ult i32 %52, %54
  br i1 %55, label %56, label %59

56:                                               ; preds = %46
  %57 = getelementptr inbounds %"class.xercesc_2_5::BaseRefVectorOf.10", ptr %49, i64 0, i32 4
  %58 = load ptr, ptr %57, align 8, !tbaa !325
  br label %103

59:                                               ; preds = %46
  %60 = add i32 %54, 32
  %61 = call i32 @llvm.umax.i32(i32 %52, i32 %60)
  %62 = getelementptr inbounds %"class.xercesc_2_5::BaseRefVectorOf.10", ptr %49, i64 0, i32 5
  %63 = load ptr, ptr %62, align 8, !tbaa !324
  %64 = zext i32 %61 to i64
  %65 = shl nuw nsw i64 %64, 3
  %66 = load ptr, ptr %63, align 8, !tbaa !283
  %67 = getelementptr inbounds ptr, ptr %66, i64 2
  %68 = load ptr, ptr %67, align 8
  %69 = call noundef ptr %68(ptr noundef nonnull align 8 dereferenceable(8) %63, i64 noundef %65)
  %70 = load i32, ptr %50, align 4, !tbaa !322
  %71 = icmp eq i32 %70, 0
  br i1 %71, label %75, label %72

72:                                               ; preds = %59
  %73 = getelementptr inbounds %"class.xercesc_2_5::BaseRefVectorOf.10", ptr %49, i64 0, i32 4
  %74 = zext i32 %70 to i64
  br label %86

75:                                               ; preds = %86, %59
  %76 = icmp ult i32 %70, %61
  br i1 %76, label %77, label %94

77:                                               ; preds = %75
  %78 = zext i32 %70 to i64
  %79 = shl nuw nsw i64 %78, 3
  %80 = getelementptr i8, ptr %69, i64 %79
  %81 = xor i32 %70, -1
  %82 = add i32 %61, %81
  %83 = zext i32 %82 to i64
  %84 = shl nuw nsw i64 %83, 3
  %85 = add nuw nsw i64 %84, 8
  call void @llvm.memset.p0.i64(ptr noundef nonnull align 8 dereferenceable(1) %80, i8 0, i64 %85, i1 false), !tbaa !276
  br label %94

86:                                               ; preds = %86, %72
  %87 = phi i64 [ 0, %72 ], [ %92, %86 ]
  %88 = load ptr, ptr %73, align 8, !tbaa !325
  %89 = getelementptr inbounds ptr, ptr %88, i64 %87
  %90 = load ptr, ptr %89, align 8, !tbaa !276
  %91 = getelementptr inbounds ptr, ptr %69, i64 %87
  store ptr %90, ptr %91, align 8, !tbaa !276
  %92 = add nuw nsw i64 %87, 1
  %93 = icmp eq i64 %92, %74
  br i1 %93, label %75, label %86

94:                                               ; preds = %77, %75
  %95 = load ptr, ptr %62, align 8, !tbaa !324
  %96 = getelementptr inbounds %"class.xercesc_2_5::BaseRefVectorOf.10", ptr %49, i64 0, i32 4
  %97 = load ptr, ptr %96, align 8, !tbaa !325
  %98 = load ptr, ptr %95, align 8, !tbaa !283
  %99 = getelementptr inbounds ptr, ptr %98, i64 3
  %100 = load ptr, ptr %99, align 8
  call void %100(ptr noundef nonnull align 8 dereferenceable(8) %95, ptr noundef %97)
  store ptr %69, ptr %96, align 8, !tbaa !325
  store i32 %61, ptr %53, align 8, !tbaa !327
  %101 = load i32, ptr %50, align 4, !tbaa !322
  %102 = add i32 %101, 1
  br label %103

103:                                              ; preds = %56, %94
  %104 = phi i32 [ %52, %56 ], [ %102, %94 ]
  %105 = phi i32 [ %51, %56 ], [ %101, %94 ]
  %106 = phi ptr [ %58, %56 ], [ %69, %94 ]
  %107 = zext i32 %105 to i64
  %108 = getelementptr inbounds ptr, ptr %106, i64 %107
  store ptr %48, ptr %108, align 8, !tbaa !276
  store i32 %104, ptr %50, align 4, !tbaa !322
  %109 = add nuw nsw i32 %47, 1
  %110 = load i32, ptr %5, align 4, !tbaa !285
  %111 = icmp slt i32 %109, %110
  br i1 %111, label %46, label %45

112:                                              ; preds = %45, %4
  ret void

113:                                              ; preds = %38
  resume { ptr, i32 } %39

114:                                              ; preds = %38
  %115 = landingpad { ptr, i32 }
          catch ptr null
  %116 = extractvalue { ptr, i32 } %115, 0
  tail call void @__clang_call_terminate(ptr %116) #12
  unreachable
}

declare noundef ptr @_ZN11xercesc_2_517DatatypeValidator6loadDVERNS_16XSerializeEngineE(ptr noundef nonnull align 8 dereferenceable(92)) local_unnamed_addr #2

; Function Attrs: uwtable
define dso_local void @_ZN11xercesc_2_519XTemplateSerializer11storeObjectEPNS_11RefVectorOfINS_18IdentityConstraintEEERNS_16XSerializeEngineE(ptr noundef %0, ptr noundef nonnull align 8 dereferenceable(92) %1) local_unnamed_addr #4 align 2 personality ptr @__gxx_personality_v0 {
  %3 = tail call noundef zeroext i1 @_ZN11xercesc_2_516XSerializeEngine17needToStoreObjectEPv(ptr noundef nonnull align 8 dereferenceable(92) %1, ptr noundef %0)
  br i1 %3, label %4, label %30

4:                                                ; preds = %2
  %5 = getelementptr inbounds %"class.xercesc_2_5::BaseRefVectorOf.12", ptr %0, i64 0, i32 2
  %6 = load i32, ptr %5, align 4, !tbaa !328
  %7 = tail call noundef nonnull align 8 dereferenceable(92) ptr @_ZN11xercesc_2_516XSerializeEnginelsEi(ptr noundef nonnull align 8 dereferenceable(92) %1, i32 noundef %6)
  %8 = icmp sgt i32 %6, 0
  br i1 %8, label %9, label %30

9:                                                ; preds = %4
  %10 = getelementptr inbounds %"class.xercesc_2_5::BaseRefVectorOf.12", ptr %0, i64 0, i32 4
  %11 = zext i32 %6 to i64
  br label %12

12:                                               ; preds = %9, %24
  %13 = phi i64 [ 0, %9 ], [ %28, %24 ]
  %14 = load i32, ptr %5, align 4, !tbaa !328
  %15 = zext i32 %14 to i64
  %16 = icmp ult i64 %13, %15
  br i1 %16, label %24, label %17

17:                                               ; preds = %12
  %18 = tail call ptr @__cxa_allocate_exception(i64 48) #11
  %19 = getelementptr inbounds %"class.xercesc_2_5::BaseRefVectorOf.12", ptr %0, i64 0, i32 5
  %20 = load ptr, ptr %19, align 8, !tbaa !330
  invoke void @_ZN11xercesc_2_530ArrayIndexOutOfBoundsExceptionC2EPKcjNS_10XMLExcepts5CodesEPNS_13MemoryManagerE(ptr noundef nonnull align 8 dereferenceable(48) %18, ptr noundef nonnull @.str, i32 noundef 289, i32 noundef 109, ptr noundef %20)
          to label %21 unwind label %22

21:                                               ; preds = %17
  tail call void @__cxa_throw(ptr nonnull %18, ptr nonnull @_ZTIN11xercesc_2_530ArrayIndexOutOfBoundsExceptionE, ptr nonnull @_ZN11xercesc_2_512XMLExceptionD2Ev) #13
  unreachable

22:                                               ; preds = %17
  %23 = landingpad { ptr, i32 }
          cleanup
  tail call void @__cxa_free_exception(ptr %18) #11
  resume { ptr, i32 } %23

24:                                               ; preds = %12
  %25 = load ptr, ptr %10, align 8, !tbaa !331
  %26 = getelementptr inbounds ptr, ptr %25, i64 %13
  %27 = load ptr, ptr %26, align 8, !tbaa !276
  tail call void @_ZN11xercesc_2_518IdentityConstraint7storeICERNS_16XSerializeEngineEPS0_(ptr noundef nonnull align 8 dereferenceable(92) %1, ptr noundef %27)
  %28 = add nuw nsw i64 %13, 1
  %29 = icmp eq i64 %28, %11
  br i1 %29, label %30, label %12

30:                                               ; preds = %24, %4, %2
  ret void
}

declare void @_ZN11xercesc_2_518IdentityConstraint7storeICERNS_16XSerializeEngineEPS0_(ptr noundef nonnull align 8 dereferenceable(92), ptr noundef) local_unnamed_addr #2

; Function Attrs: uwtable
define dso_local void @_ZN11xercesc_2_519XTemplateSerializer10loadObjectEPPNS_11RefVectorOfINS_18IdentityConstraintEEEibRNS_16XSerializeEngineE(ptr noundef %0, i32 noundef %1, i1 noundef zeroext %2, ptr noundef nonnull align 8 dereferenceable(92) %3) local_unnamed_addr #4 align 2 personality ptr @__gxx_personality_v0 {
  %5 = alloca i32, align 4
  %6 = tail call noundef zeroext i1 @_ZN11xercesc_2_516XSerializeEngine16needToLoadObjectEPPv(ptr noundef nonnull align 8 dereferenceable(92) %3, ptr noundef %0)
  br i1 %6, label %7, label %112

7:                                                ; preds = %4
  %8 = load ptr, ptr %0, align 8, !tbaa !276
  %9 = icmp eq ptr %8, null
  br i1 %9, label %10, label %40

10:                                               ; preds = %7
  %11 = icmp slt i32 %1, 0
  %12 = select i1 %11, i32 16, i32 %1
  %13 = getelementptr inbounds %"class.xercesc_2_5::XSerializeEngine", ptr %3, i64 0, i32 2
  %14 = load ptr, ptr %13, align 8, !tbaa !277
  %15 = tail call noundef ptr @_ZN11xercesc_2_57XMemorynwEmPNS_13MemoryManagerE(i64 noundef 40, ptr noundef %14)
  %16 = load ptr, ptr %13, align 8, !tbaa !277
  %17 = zext i1 %2 to i8
  store ptr getelementptr inbounds ({ [9 x ptr] }, ptr @_ZTVN11xercesc_2_515BaseRefVectorOfINS_18IdentityConstraintEEE, i64 0, inrange i32 0, i64 2), ptr %15, align 8, !tbaa !283
  %18 = getelementptr inbounds %"class.xercesc_2_5::BaseRefVectorOf.12", ptr %15, i64 0, i32 1
  store i8 %17, ptr %18, align 8, !tbaa !332
  %19 = getelementptr inbounds %"class.xercesc_2_5::BaseRefVectorOf.12", ptr %15, i64 0, i32 2
  store i32 0, ptr %19, align 4, !tbaa !328
  %20 = getelementptr inbounds %"class.xercesc_2_5::BaseRefVectorOf.12", ptr %15, i64 0, i32 3
  store i32 %12, ptr %20, align 8, !tbaa !333
  %21 = getelementptr inbounds %"class.xercesc_2_5::BaseRefVectorOf.12", ptr %15, i64 0, i32 4
  store ptr null, ptr %21, align 8, !tbaa !331
  %22 = getelementptr inbounds %"class.xercesc_2_5::BaseRefVectorOf.12", ptr %15, i64 0, i32 5
  store ptr %16, ptr %22, align 8, !tbaa !330
  %23 = zext i32 %12 to i64
  %24 = shl nuw nsw i64 %23, 3
  %25 = load ptr, ptr %16, align 8, !tbaa !283
  %26 = getelementptr inbounds ptr, ptr %25, i64 2
  %27 = load ptr, ptr %26, align 8
  %28 = invoke noundef ptr %27(ptr noundef nonnull align 8 dereferenceable(8) %16, i64 noundef %24)
          to label %29 unwind label %38

29:                                               ; preds = %10
  store ptr %28, ptr %21, align 8, !tbaa !331
  %30 = icmp eq i32 %12, 0
  br i1 %30, label %37, label %31

31:                                               ; preds = %29, %31
  %32 = phi i64 [ %35, %31 ], [ 0, %29 ]
  %33 = load ptr, ptr %21, align 8, !tbaa !331
  %34 = getelementptr inbounds ptr, ptr %33, i64 %32
  store ptr null, ptr %34, align 8, !tbaa !276
  %35 = add nuw nsw i64 %32, 1
  %36 = icmp eq i64 %35, %23
  br i1 %36, label %37, label %31

37:                                               ; preds = %31, %29
  store ptr getelementptr inbounds ({ [9 x ptr] }, ptr @_ZTVN11xercesc_2_511RefVectorOfINS_18IdentityConstraintEEE, i64 0, inrange i32 0, i64 2), ptr %15, align 8, !tbaa !283
  store ptr %15, ptr %0, align 8, !tbaa !276
  br label %40

38:                                               ; preds = %10
  %39 = landingpad { ptr, i32 }
          cleanup
  invoke void @_ZN11xercesc_2_57XMemorydlEPvPNS_13MemoryManagerE(ptr noundef nonnull %15, ptr noundef %14)
          to label %113 unwind label %114

40:                                               ; preds = %37, %7
  %41 = phi ptr [ %15, %37 ], [ %8, %7 ]
  tail call void @_ZN11xercesc_2_516XSerializeEngine14registerObjectEPv(ptr noundef nonnull align 8 dereferenceable(92) %3, ptr noundef nonnull %41)
  call void @llvm.lifetime.start.p0(i64 4, ptr nonnull %5) #11
  store i32 0, ptr %5, align 4, !tbaa !285
  %42 = call noundef nonnull align 8 dereferenceable(92) ptr @_ZN11xercesc_2_516XSerializeEnginersERi(ptr noundef nonnull align 8 dereferenceable(92) %3, ptr noundef nonnull align 4 dereferenceable(4) %5)
  %43 = load i32, ptr %5, align 4, !tbaa !285
  %44 = icmp sgt i32 %43, 0
  br i1 %44, label %46, label %45

45:                                               ; preds = %103, %40
  call void @llvm.lifetime.end.p0(i64 4, ptr nonnull %5) #11
  br label %112

46:                                               ; preds = %40, %103
  %47 = phi i32 [ %109, %103 ], [ 0, %40 ]
  %48 = call noundef ptr @_ZN11xercesc_2_518IdentityConstraint6loadICERNS_16XSerializeEngineE(ptr noundef nonnull align 8 dereferenceable(92) %3)
  %49 = load ptr, ptr %0, align 8, !tbaa !276
  %50 = getelementptr inbounds %"class.xercesc_2_5::BaseRefVectorOf.12", ptr %49, i64 0, i32 2
  %51 = load i32, ptr %50, align 4, !tbaa !328
  %52 = add i32 %51, 1
  %53 = getelementptr inbounds %"class.xercesc_2_5::BaseRefVectorOf.12", ptr %49, i64 0, i32 3
  %54 = load i32, ptr %53, align 8, !tbaa !333
  %55 = icmp ult i32 %52, %54
  br i1 %55, label %56, label %59

56:                                               ; preds = %46
  %57 = getelementptr inbounds %"class.xercesc_2_5::BaseRefVectorOf.12", ptr %49, i64 0, i32 4
  %58 = load ptr, ptr %57, align 8, !tbaa !331
  br label %103

59:                                               ; preds = %46
  %60 = add i32 %54, 32
  %61 = call i32 @llvm.umax.i32(i32 %52, i32 %60)
  %62 = getelementptr inbounds %"class.xercesc_2_5::BaseRefVectorOf.12", ptr %49, i64 0, i32 5
  %63 = load ptr, ptr %62, align 8, !tbaa !330
  %64 = zext i32 %61 to i64
  %65 = shl nuw nsw i64 %64, 3
  %66 = load ptr, ptr %63, align 8, !tbaa !283
  %67 = getelementptr inbounds ptr, ptr %66, i64 2
  %68 = load ptr, ptr %67, align 8
  %69 = call noundef ptr %68(ptr noundef nonnull align 8 dereferenceable(8) %63, i64 noundef %65)
  %70 = load i32, ptr %50, align 4, !tbaa !328
  %71 = icmp eq i32 %70, 0
  br i1 %71, label %75, label %72

72:                                               ; preds = %59
  %73 = getelementptr inbounds %"class.xercesc_2_5::BaseRefVectorOf.12", ptr %49, i64 0, i32 4
  %74 = zext i32 %70 to i64
  br label %86

75:                                               ; preds = %86, %59
  %76 = icmp ult i32 %70, %61
  br i1 %76, label %77, label %94

77:                                               ; preds = %75
  %78 = zext i32 %70 to i64
  %79 = shl nuw nsw i64 %78, 3
  %80 = getelementptr i8, ptr %69, i64 %79
  %81 = xor i32 %70, -1
  %82 = add i32 %61, %81
  %83 = zext i32 %82 to i64
  %84 = shl nuw nsw i64 %83, 3
  %85 = add nuw nsw i64 %84, 8
  call void @llvm.memset.p0.i64(ptr noundef nonnull align 8 dereferenceable(1) %80, i8 0, i64 %85, i1 false), !tbaa !276
  br label %94

86:                                               ; preds = %86, %72
  %87 = phi i64 [ 0, %72 ], [ %92, %86 ]
  %88 = load ptr, ptr %73, align 8, !tbaa !331
  %89 = getelementptr inbounds ptr, ptr %88, i64 %87
  %90 = load ptr, ptr %89, align 8, !tbaa !276
  %91 = getelementptr inbounds ptr, ptr %69, i64 %87
  store ptr %90, ptr %91, align 8, !tbaa !276
  %92 = add nuw nsw i64 %87, 1
  %93 = icmp eq i64 %92, %74
  br i1 %93, label %75, label %86

94:                                               ; preds = %77, %75
  %95 = load ptr, ptr %62, align 8, !tbaa !330
  %96 = getelementptr inbounds %"class.xercesc_2_5::BaseRefVectorOf.12", ptr %49, i64 0, i32 4
  %97 = load ptr, ptr %96, align 8, !tbaa !331
  %98 = load ptr, ptr %95, align 8, !tbaa !283
  %99 = getelementptr inbounds ptr, ptr %98, i64 3
  %100 = load ptr, ptr %99, align 8
  call void %100(ptr noundef nonnull align 8 dereferenceable(8) %95, ptr noundef %97)
  store ptr %69, ptr %96, align 8, !tbaa !331
  store i32 %61, ptr %53, align 8, !tbaa !333
  %101 = load i32, ptr %50, align 4, !tbaa !328
  %102 = add i32 %101, 1
  br label %103

103:                                              ; preds = %56, %94
  %104 = phi i32 [ %52, %56 ], [ %102, %94 ]
  %105 = phi i32 [ %51, %56 ], [ %101, %94 ]
  %106 = phi ptr [ %58, %56 ], [ %69, %94 ]
  %107 = zext i32 %105 to i64
  %108 = getelementptr inbounds ptr, ptr %106, i64 %107
  store ptr %48, ptr %108, align 8, !tbaa !276
  store i32 %104, ptr %50, align 4, !tbaa !328
  %109 = add nuw nsw i32 %47, 1
  %110 = load i32, ptr %5, align 4, !tbaa !285
  %111 = icmp slt i32 %109, %110
  br i1 %111, label %46, label %45

112:                                              ; preds = %45, %4
  ret void

113:                                              ; preds = %38
  resume { ptr, i32 } %39

114:                                              ; preds = %38
  %115 = landingpad { ptr, i32 }
          catch ptr null
  %116 = extractvalue { ptr, i32 } %115, 0
  tail call void @__clang_call_terminate(ptr %116) #12
  unreachable
}

declare noundef ptr @_ZN11xercesc_2_518IdentityConstraint6loadICERNS_16XSerializeEngineE(ptr noundef nonnull align 8 dereferenceable(92)) local_unnamed_addr #2

; Function Attrs: uwtable
define dso_local void @_ZN11xercesc_2_519XTemplateSerializer11storeObjectEPNS_11RefVectorOfINS_9XMLNumberEEERNS_16XSerializeEngineE(ptr noundef %0, ptr noundef nonnull align 8 dereferenceable(92) %1) local_unnamed_addr #4 align 2 personality ptr @__gxx_personality_v0 {
  %3 = tail call noundef zeroext i1 @_ZN11xercesc_2_516XSerializeEngine17needToStoreObjectEPv(ptr noundef nonnull align 8 dereferenceable(92) %1, ptr noundef %0)
  br i1 %3, label %4, label %30

4:                                                ; preds = %2
  %5 = getelementptr inbounds %"class.xercesc_2_5::BaseRefVectorOf.14", ptr %0, i64 0, i32 2
  %6 = load i32, ptr %5, align 4, !tbaa !334
  %7 = tail call noundef nonnull align 8 dereferenceable(92) ptr @_ZN11xercesc_2_516XSerializeEnginelsEi(ptr noundef nonnull align 8 dereferenceable(92) %1, i32 noundef %6)
  %8 = icmp sgt i32 %6, 0
  br i1 %8, label %9, label %30

9:                                                ; preds = %4
  %10 = getelementptr inbounds %"class.xercesc_2_5::BaseRefVectorOf.14", ptr %0, i64 0, i32 4
  %11 = zext i32 %6 to i64
  br label %12

12:                                               ; preds = %9, %24
  %13 = phi i64 [ 0, %9 ], [ %28, %24 ]
  %14 = load i32, ptr %5, align 4, !tbaa !334
  %15 = zext i32 %14 to i64
  %16 = icmp ult i64 %13, %15
  br i1 %16, label %24, label %17

17:                                               ; preds = %12
  %18 = tail call ptr @__cxa_allocate_exception(i64 48) #11
  %19 = getelementptr inbounds %"class.xercesc_2_5::BaseRefVectorOf.14", ptr %0, i64 0, i32 5
  %20 = load ptr, ptr %19, align 8, !tbaa !336
  invoke void @_ZN11xercesc_2_530ArrayIndexOutOfBoundsExceptionC2EPKcjNS_10XMLExcepts5CodesEPNS_13MemoryManagerE(ptr noundef nonnull align 8 dereferenceable(48) %18, ptr noundef nonnull @.str, i32 noundef 289, i32 noundef 109, ptr noundef %20)
          to label %21 unwind label %22

21:                                               ; preds = %17
  tail call void @__cxa_throw(ptr nonnull %18, ptr nonnull @_ZTIN11xercesc_2_530ArrayIndexOutOfBoundsExceptionE, ptr nonnull @_ZN11xercesc_2_512XMLExceptionD2Ev) #13
  unreachable

22:                                               ; preds = %17
  %23 = landingpad { ptr, i32 }
          cleanup
  tail call void @__cxa_free_exception(ptr %18) #11
  resume { ptr, i32 } %23

24:                                               ; preds = %12
  %25 = load ptr, ptr %10, align 8, !tbaa !337
  %26 = getelementptr inbounds ptr, ptr %25, i64 %13
  %27 = load ptr, ptr %26, align 8, !tbaa !276
  tail call void @_ZN11xercesc_2_516XSerializeEngine5writeEPNS_13XSerializableE(ptr noundef nonnull align 8 dereferenceable(92) %1, ptr noundef %27)
  %28 = add nuw nsw i64 %13, 1
  %29 = icmp eq i64 %28, %11
  br i1 %29, label %30, label %12

30:                                               ; preds = %24, %4, %2
  ret void
}

; Function Attrs: uwtable
define dso_local void @_ZN11xercesc_2_519XTemplateSerializer10loadObjectEPPNS_11RefVectorOfINS_9XMLNumberEEEibNS2_10NumberTypeERNS_16XSerializeEngineE(ptr noundef %0, i32 noundef %1, i1 noundef zeroext %2, i32 noundef %3, ptr noundef nonnull align 8 dereferenceable(92) %4) local_unnamed_addr #4 align 2 personality ptr @__gxx_personality_v0 {
  %6 = alloca i32, align 4
  %7 = tail call noundef zeroext i1 @_ZN11xercesc_2_516XSerializeEngine16needToLoadObjectEPPv(ptr noundef nonnull align 8 dereferenceable(92) %4, ptr noundef %0)
  br i1 %7, label %8, label %113

8:                                                ; preds = %5
  %9 = load ptr, ptr %0, align 8, !tbaa !276
  %10 = icmp eq ptr %9, null
  br i1 %10, label %11, label %41

11:                                               ; preds = %8
  %12 = icmp slt i32 %1, 0
  %13 = select i1 %12, i32 16, i32 %1
  %14 = getelementptr inbounds %"class.xercesc_2_5::XSerializeEngine", ptr %4, i64 0, i32 2
  %15 = load ptr, ptr %14, align 8, !tbaa !277
  %16 = tail call noundef ptr @_ZN11xercesc_2_57XMemorynwEmPNS_13MemoryManagerE(i64 noundef 40, ptr noundef %15)
  %17 = load ptr, ptr %14, align 8, !tbaa !277
  %18 = zext i1 %2 to i8
  store ptr getelementptr inbounds ({ [9 x ptr] }, ptr @_ZTVN11xercesc_2_515BaseRefVectorOfINS_9XMLNumberEEE, i64 0, inrange i32 0, i64 2), ptr %16, align 8, !tbaa !283
  %19 = getelementptr inbounds %"class.xercesc_2_5::BaseRefVectorOf.14", ptr %16, i64 0, i32 1
  store i8 %18, ptr %19, align 8, !tbaa !338
  %20 = getelementptr inbounds %"class.xercesc_2_5::BaseRefVectorOf.14", ptr %16, i64 0, i32 2
  store i32 0, ptr %20, align 4, !tbaa !334
  %21 = getelementptr inbounds %"class.xercesc_2_5::BaseRefVectorOf.14", ptr %16, i64 0, i32 3
  store i32 %13, ptr %21, align 8, !tbaa !339
  %22 = getelementptr inbounds %"class.xercesc_2_5::BaseRefVectorOf.14", ptr %16, i64 0, i32 4
  store ptr null, ptr %22, align 8, !tbaa !337
  %23 = getelementptr inbounds %"class.xercesc_2_5::BaseRefVectorOf.14", ptr %16, i64 0, i32 5
  store ptr %17, ptr %23, align 8, !tbaa !336
  %24 = zext i32 %13 to i64
  %25 = shl nuw nsw i64 %24, 3
  %26 = load ptr, ptr %17, align 8, !tbaa !283
  %27 = getelementptr inbounds ptr, ptr %26, i64 2
  %28 = load ptr, ptr %27, align 8
  %29 = invoke noundef ptr %28(ptr noundef nonnull align 8 dereferenceable(8) %17, i64 noundef %25)
          to label %30 unwind label %39

30:                                               ; preds = %11
  store ptr %29, ptr %22, align 8, !tbaa !337
  %31 = icmp eq i32 %13, 0
  br i1 %31, label %38, label %32

32:                                               ; preds = %30, %32
  %33 = phi i64 [ %36, %32 ], [ 0, %30 ]
  %34 = load ptr, ptr %22, align 8, !tbaa !337
  %35 = getelementptr inbounds ptr, ptr %34, i64 %33
  store ptr null, ptr %35, align 8, !tbaa !276
  %36 = add nuw nsw i64 %33, 1
  %37 = icmp eq i64 %36, %24
  br i1 %37, label %38, label %32

38:                                               ; preds = %32, %30
  store ptr getelementptr inbounds ({ [9 x ptr] }, ptr @_ZTVN11xercesc_2_511RefVectorOfINS_9XMLNumberEEE, i64 0, inrange i32 0, i64 2), ptr %16, align 8, !tbaa !283
  store ptr %16, ptr %0, align 8, !tbaa !276
  br label %41

39:                                               ; preds = %11
  %40 = landingpad { ptr, i32 }
          cleanup
  invoke void @_ZN11xercesc_2_57XMemorydlEPvPNS_13MemoryManagerE(ptr noundef nonnull %16, ptr noundef %15)
          to label %114 unwind label %115

41:                                               ; preds = %38, %8
  %42 = phi ptr [ %16, %38 ], [ %9, %8 ]
  tail call void @_ZN11xercesc_2_516XSerializeEngine14registerObjectEPv(ptr noundef nonnull align 8 dereferenceable(92) %4, ptr noundef nonnull %42)
  call void @llvm.lifetime.start.p0(i64 4, ptr nonnull %6) #11
  store i32 0, ptr %6, align 4, !tbaa !285
  %43 = call noundef nonnull align 8 dereferenceable(92) ptr @_ZN11xercesc_2_516XSerializeEnginersERi(ptr noundef nonnull align 8 dereferenceable(92) %4, ptr noundef nonnull align 4 dereferenceable(4) %6)
  %44 = load i32, ptr %6, align 4, !tbaa !285
  %45 = icmp sgt i32 %44, 0
  br i1 %45, label %47, label %46

46:                                               ; preds = %104, %41
  call void @llvm.lifetime.end.p0(i64 4, ptr nonnull %6) #11
  br label %113

47:                                               ; preds = %41, %104
  %48 = phi i32 [ %110, %104 ], [ 0, %41 ]
  %49 = call noundef ptr @_ZN11xercesc_2_59XMLNumber10loadNumberENS0_10NumberTypeERNS_16XSerializeEngineE(i32 noundef %3, ptr noundef nonnull align 8 dereferenceable(92) %4)
  %50 = load ptr, ptr %0, align 8, !tbaa !276
  %51 = getelementptr inbounds %"class.xercesc_2_5::BaseRefVectorOf.14", ptr %50, i64 0, i32 2
  %52 = load i32, ptr %51, align 4, !tbaa !334
  %53 = add i32 %52, 1
  %54 = getelementptr inbounds %"class.xercesc_2_5::BaseRefVectorOf.14", ptr %50, i64 0, i32 3
  %55 = load i32, ptr %54, align 8, !tbaa !339
  %56 = icmp ult i32 %53, %55
  br i1 %56, label %57, label %60

57:                                               ; preds = %47
  %58 = getelementptr inbounds %"class.xercesc_2_5::BaseRefVectorOf.14", ptr %50, i64 0, i32 4
  %59 = load ptr, ptr %58, align 8, !tbaa !337
  br label %104

60:                                               ; preds = %47
  %61 = add i32 %55, 32
  %62 = call i32 @llvm.umax.i32(i32 %53, i32 %61)
  %63 = getelementptr inbounds %"class.xercesc_2_5::BaseRefVectorOf.14", ptr %50, i64 0, i32 5
  %64 = load ptr, ptr %63, align 8, !tbaa !336
  %65 = zext i32 %62 to i64
  %66 = shl nuw nsw i64 %65, 3
  %67 = load ptr, ptr %64, align 8, !tbaa !283
  %68 = getelementptr inbounds ptr, ptr %67, i64 2
  %69 = load ptr, ptr %68, align 8
  %70 = call noundef ptr %69(ptr noundef nonnull align 8 dereferenceable(8) %64, i64 noundef %66)
  %71 = load i32, ptr %51, align 4, !tbaa !334
  %72 = icmp eq i32 %71, 0
  br i1 %72, label %76, label %73

73:                                               ; preds = %60
  %74 = getelementptr inbounds %"class.xercesc_2_5::BaseRefVectorOf.14", ptr %50, i64 0, i32 4
  %75 = zext i32 %71 to i64
  br label %87

76:                                               ; preds = %87, %60
  %77 = icmp ult i32 %71, %62
  br i1 %77, label %78, label %95

78:                                               ; preds = %76
  %79 = zext i32 %71 to i64
  %80 = shl nuw nsw i64 %79, 3
  %81 = getelementptr i8, ptr %70, i64 %80
  %82 = xor i32 %71, -1
  %83 = add i32 %62, %82
  %84 = zext i32 %83 to i64
  %85 = shl nuw nsw i64 %84, 3
  %86 = add nuw nsw i64 %85, 8
  call void @llvm.memset.p0.i64(ptr noundef nonnull align 8 dereferenceable(1) %81, i8 0, i64 %86, i1 false), !tbaa !276
  br label %95

87:                                               ; preds = %87, %73
  %88 = phi i64 [ 0, %73 ], [ %93, %87 ]
  %89 = load ptr, ptr %74, align 8, !tbaa !337
  %90 = getelementptr inbounds ptr, ptr %89, i64 %88
  %91 = load ptr, ptr %90, align 8, !tbaa !276
  %92 = getelementptr inbounds ptr, ptr %70, i64 %88
  store ptr %91, ptr %92, align 8, !tbaa !276
  %93 = add nuw nsw i64 %88, 1
  %94 = icmp eq i64 %93, %75
  br i1 %94, label %76, label %87

95:                                               ; preds = %78, %76
  %96 = load ptr, ptr %63, align 8, !tbaa !336
  %97 = getelementptr inbounds %"class.xercesc_2_5::BaseRefVectorOf.14", ptr %50, i64 0, i32 4
  %98 = load ptr, ptr %97, align 8, !tbaa !337
  %99 = load ptr, ptr %96, align 8, !tbaa !283
  %100 = getelementptr inbounds ptr, ptr %99, i64 3
  %101 = load ptr, ptr %100, align 8
  call void %101(ptr noundef nonnull align 8 dereferenceable(8) %96, ptr noundef %98)
  store ptr %70, ptr %97, align 8, !tbaa !337
  store i32 %62, ptr %54, align 8, !tbaa !339
  %102 = load i32, ptr %51, align 4, !tbaa !334
  %103 = add i32 %102, 1
  br label %104

104:                                              ; preds = %57, %95
  %105 = phi i32 [ %53, %57 ], [ %103, %95 ]
  %106 = phi i32 [ %52, %57 ], [ %102, %95 ]
  %107 = phi ptr [ %59, %57 ], [ %70, %95 ]
  %108 = zext i32 %106 to i64
  %109 = getelementptr inbounds ptr, ptr %107, i64 %108
  store ptr %49, ptr %109, align 8, !tbaa !276
  store i32 %105, ptr %51, align 4, !tbaa !334
  %110 = add nuw nsw i32 %48, 1
  %111 = load i32, ptr %6, align 4, !tbaa !285
  %112 = icmp slt i32 %110, %111
  br i1 %112, label %47, label %46

113:                                              ; preds = %46, %5
  ret void

114:                                              ; preds = %39
  resume { ptr, i32 } %40

115:                                              ; preds = %39
  %116 = landingpad { ptr, i32 }
          catch ptr null
  %117 = extractvalue { ptr, i32 } %116, 0
  tail call void @__clang_call_terminate(ptr %117) #12
  unreachable
}

declare noundef ptr @_ZN11xercesc_2_59XMLNumber10loadNumberENS0_10NumberTypeERNS_16XSerializeEngineE(i32 noundef, ptr noundef nonnull align 8 dereferenceable(92)) local_unnamed_addr #2

; Function Attrs: uwtable
define dso_local void @_ZN11xercesc_2_519XTemplateSerializer11storeObjectEPNS_11RefVectorOfINS_18XercesLocationPathEEERNS_16XSerializeEngineE(ptr noundef %0, ptr noundef nonnull align 8 dereferenceable(92) %1) local_unnamed_addr #4 align 2 personality ptr @__gxx_personality_v0 {
  %3 = tail call noundef zeroext i1 @_ZN11xercesc_2_516XSerializeEngine17needToStoreObjectEPv(ptr noundef nonnull align 8 dereferenceable(92) %1, ptr noundef %0)
  br i1 %3, label %4, label %30

4:                                                ; preds = %2
  %5 = getelementptr inbounds %"class.xercesc_2_5::BaseRefVectorOf.16", ptr %0, i64 0, i32 2
  %6 = load i32, ptr %5, align 4, !tbaa !340
  %7 = tail call noundef nonnull align 8 dereferenceable(92) ptr @_ZN11xercesc_2_516XSerializeEnginelsEi(ptr noundef nonnull align 8 dereferenceable(92) %1, i32 noundef %6)
  %8 = icmp sgt i32 %6, 0
  br i1 %8, label %9, label %30

9:                                                ; preds = %4
  %10 = getelementptr inbounds %"class.xercesc_2_5::BaseRefVectorOf.16", ptr %0, i64 0, i32 4
  %11 = zext i32 %6 to i64
  br label %12

12:                                               ; preds = %9, %24
  %13 = phi i64 [ 0, %9 ], [ %28, %24 ]
  %14 = load i32, ptr %5, align 4, !tbaa !340
  %15 = zext i32 %14 to i64
  %16 = icmp ult i64 %13, %15
  br i1 %16, label %24, label %17

17:                                               ; preds = %12
  %18 = tail call ptr @__cxa_allocate_exception(i64 48) #11
  %19 = getelementptr inbounds %"class.xercesc_2_5::BaseRefVectorOf.16", ptr %0, i64 0, i32 5
  %20 = load ptr, ptr %19, align 8, !tbaa !342
  invoke void @_ZN11xercesc_2_530ArrayIndexOutOfBoundsExceptionC2EPKcjNS_10XMLExcepts5CodesEPNS_13MemoryManagerE(ptr noundef nonnull align 8 dereferenceable(48) %18, ptr noundef nonnull @.str, i32 noundef 289, i32 noundef 109, ptr noundef %20)
          to label %21 unwind label %22

21:                                               ; preds = %17
  tail call void @__cxa_throw(ptr nonnull %18, ptr nonnull @_ZTIN11xercesc_2_530ArrayIndexOutOfBoundsExceptionE, ptr nonnull @_ZN11xercesc_2_512XMLExceptionD2Ev) #13
  unreachable

22:                                               ; preds = %17
  %23 = landingpad { ptr, i32 }
          cleanup
  tail call void @__cxa_free_exception(ptr %18) #11
  resume { ptr, i32 } %23

24:                                               ; preds = %12
  %25 = load ptr, ptr %10, align 8, !tbaa !343
  %26 = getelementptr inbounds ptr, ptr %25, i64 %13
  %27 = load ptr, ptr %26, align 8, !tbaa !276
  tail call void @_ZN11xercesc_2_516XSerializeEngine5writeEPNS_13XSerializableE(ptr noundef nonnull align 8 dereferenceable(92) %1, ptr noundef %27)
  %28 = add nuw nsw i64 %13, 1
  %29 = icmp eq i64 %28, %11
  br i1 %29, label %30, label %12

30:                                               ; preds = %24, %4, %2
  ret void
}

; Function Attrs: uwtable
define dso_local void @_ZN11xercesc_2_519XTemplateSerializer10loadObjectEPPNS_11RefVectorOfINS_18XercesLocationPathEEEibRNS_16XSerializeEngineE(ptr noundef %0, i32 noundef %1, i1 noundef zeroext %2, ptr noundef nonnull align 8 dereferenceable(92) %3) local_unnamed_addr #4 align 2 personality ptr @__gxx_personality_v0 {
  %5 = alloca i32, align 4
  %6 = tail call noundef zeroext i1 @_ZN11xercesc_2_516XSerializeEngine16needToLoadObjectEPPv(ptr noundef nonnull align 8 dereferenceable(92) %3, ptr noundef %0)
  br i1 %6, label %7, label %112

7:                                                ; preds = %4
  %8 = load ptr, ptr %0, align 8, !tbaa !276
  %9 = icmp eq ptr %8, null
  br i1 %9, label %10, label %40

10:                                               ; preds = %7
  %11 = icmp slt i32 %1, 0
  %12 = select i1 %11, i32 16, i32 %1
  %13 = getelementptr inbounds %"class.xercesc_2_5::XSerializeEngine", ptr %3, i64 0, i32 2
  %14 = load ptr, ptr %13, align 8, !tbaa !277
  %15 = tail call noundef ptr @_ZN11xercesc_2_57XMemorynwEmPNS_13MemoryManagerE(i64 noundef 40, ptr noundef %14)
  %16 = load ptr, ptr %13, align 8, !tbaa !277
  %17 = zext i1 %2 to i8
  store ptr getelementptr inbounds ({ [9 x ptr] }, ptr @_ZTVN11xercesc_2_515BaseRefVectorOfINS_18XercesLocationPathEEE, i64 0, inrange i32 0, i64 2), ptr %15, align 8, !tbaa !283
  %18 = getelementptr inbounds %"class.xercesc_2_5::BaseRefVectorOf.16", ptr %15, i64 0, i32 1
  store i8 %17, ptr %18, align 8, !tbaa !344
  %19 = getelementptr inbounds %"class.xercesc_2_5::BaseRefVectorOf.16", ptr %15, i64 0, i32 2
  store i32 0, ptr %19, align 4, !tbaa !340
  %20 = getelementptr inbounds %"class.xercesc_2_5::BaseRefVectorOf.16", ptr %15, i64 0, i32 3
  store i32 %12, ptr %20, align 8, !tbaa !345
  %21 = getelementptr inbounds %"class.xercesc_2_5::BaseRefVectorOf.16", ptr %15, i64 0, i32 4
  store ptr null, ptr %21, align 8, !tbaa !343
  %22 = getelementptr inbounds %"class.xercesc_2_5::BaseRefVectorOf.16", ptr %15, i64 0, i32 5
  store ptr %16, ptr %22, align 8, !tbaa !342
  %23 = zext i32 %12 to i64
  %24 = shl nuw nsw i64 %23, 3
  %25 = load ptr, ptr %16, align 8, !tbaa !283
  %26 = getelementptr inbounds ptr, ptr %25, i64 2
  %27 = load ptr, ptr %26, align 8
  %28 = invoke noundef ptr %27(ptr noundef nonnull align 8 dereferenceable(8) %16, i64 noundef %24)
          to label %29 unwind label %38

29:                                               ; preds = %10
  store ptr %28, ptr %21, align 8, !tbaa !343
  %30 = icmp eq i32 %12, 0
  br i1 %30, label %37, label %31

31:                                               ; preds = %29, %31
  %32 = phi i64 [ %35, %31 ], [ 0, %29 ]
  %33 = load ptr, ptr %21, align 8, !tbaa !343
  %34 = getelementptr inbounds ptr, ptr %33, i64 %32
  store ptr null, ptr %34, align 8, !tbaa !276
  %35 = add nuw nsw i64 %32, 1
  %36 = icmp eq i64 %35, %23
  br i1 %36, label %37, label %31

37:                                               ; preds = %31, %29
  store ptr getelementptr inbounds ({ [9 x ptr] }, ptr @_ZTVN11xercesc_2_511RefVectorOfINS_18XercesLocationPathEEE, i64 0, inrange i32 0, i64 2), ptr %15, align 8, !tbaa !283
  store ptr %15, ptr %0, align 8, !tbaa !276
  br label %40

38:                                               ; preds = %10
  %39 = landingpad { ptr, i32 }
          cleanup
  invoke void @_ZN11xercesc_2_57XMemorydlEPvPNS_13MemoryManagerE(ptr noundef nonnull %15, ptr noundef %14)
          to label %113 unwind label %114

40:                                               ; preds = %37, %7
  %41 = phi ptr [ %15, %37 ], [ %8, %7 ]
  tail call void @_ZN11xercesc_2_516XSerializeEngine14registerObjectEPv(ptr noundef nonnull align 8 dereferenceable(92) %3, ptr noundef nonnull %41)
  call void @llvm.lifetime.start.p0(i64 4, ptr nonnull %5) #11
  store i32 0, ptr %5, align 4, !tbaa !285
  %42 = call noundef nonnull align 8 dereferenceable(92) ptr @_ZN11xercesc_2_516XSerializeEnginersERi(ptr noundef nonnull align 8 dereferenceable(92) %3, ptr noundef nonnull align 4 dereferenceable(4) %5)
  %43 = load i32, ptr %5, align 4, !tbaa !285
  %44 = icmp sgt i32 %43, 0
  br i1 %44, label %46, label %45

45:                                               ; preds = %103, %40
  call void @llvm.lifetime.end.p0(i64 4, ptr nonnull %5) #11
  br label %112

46:                                               ; preds = %40, %103
  %47 = phi i32 [ %109, %103 ], [ 0, %40 ]
  %48 = call noundef ptr @_ZN11xercesc_2_516XSerializeEngine4readEPNS_10XProtoTypeE(ptr noundef nonnull align 8 dereferenceable(92) %3, ptr noundef nonnull @_ZN11xercesc_2_518XercesLocationPath23classXercesLocationPathE)
  %49 = load ptr, ptr %0, align 8, !tbaa !276
  %50 = getelementptr inbounds %"class.xercesc_2_5::BaseRefVectorOf.16", ptr %49, i64 0, i32 2
  %51 = load i32, ptr %50, align 4, !tbaa !340
  %52 = add i32 %51, 1
  %53 = getelementptr inbounds %"class.xercesc_2_5::BaseRefVectorOf.16", ptr %49, i64 0, i32 3
  %54 = load i32, ptr %53, align 8, !tbaa !345
  %55 = icmp ult i32 %52, %54
  br i1 %55, label %56, label %59

56:                                               ; preds = %46
  %57 = getelementptr inbounds %"class.xercesc_2_5::BaseRefVectorOf.16", ptr %49, i64 0, i32 4
  %58 = load ptr, ptr %57, align 8, !tbaa !343
  br label %103

59:                                               ; preds = %46
  %60 = add i32 %54, 32
  %61 = call i32 @llvm.umax.i32(i32 %52, i32 %60)
  %62 = getelementptr inbounds %"class.xercesc_2_5::BaseRefVectorOf.16", ptr %49, i64 0, i32 5
  %63 = load ptr, ptr %62, align 8, !tbaa !342
  %64 = zext i32 %61 to i64
  %65 = shl nuw nsw i64 %64, 3
  %66 = load ptr, ptr %63, align 8, !tbaa !283
  %67 = getelementptr inbounds ptr, ptr %66, i64 2
  %68 = load ptr, ptr %67, align 8
  %69 = call noundef ptr %68(ptr noundef nonnull align 8 dereferenceable(8) %63, i64 noundef %65)
  %70 = load i32, ptr %50, align 4, !tbaa !340
  %71 = icmp eq i32 %70, 0
  br i1 %71, label %75, label %72

72:                                               ; preds = %59
  %73 = getelementptr inbounds %"class.xercesc_2_5::BaseRefVectorOf.16", ptr %49, i64 0, i32 4
  %74 = zext i32 %70 to i64
  br label %86

75:                                               ; preds = %86, %59
  %76 = icmp ult i32 %70, %61
  br i1 %76, label %77, label %94

77:                                               ; preds = %75
  %78 = zext i32 %70 to i64
  %79 = shl nuw nsw i64 %78, 3
  %80 = getelementptr i8, ptr %69, i64 %79
  %81 = xor i32 %70, -1
  %82 = add i32 %61, %81
  %83 = zext i32 %82 to i64
  %84 = shl nuw nsw i64 %83, 3
  %85 = add nuw nsw i64 %84, 8
  call void @llvm.memset.p0.i64(ptr noundef nonnull align 8 dereferenceable(1) %80, i8 0, i64 %85, i1 false), !tbaa !276
  br label %94

86:                                               ; preds = %86, %72
  %87 = phi i64 [ 0, %72 ], [ %92, %86 ]
  %88 = load ptr, ptr %73, align 8, !tbaa !343
  %89 = getelementptr inbounds ptr, ptr %88, i64 %87
  %90 = load ptr, ptr %89, align 8, !tbaa !276
  %91 = getelementptr inbounds ptr, ptr %69, i64 %87
  store ptr %90, ptr %91, align 8, !tbaa !276
  %92 = add nuw nsw i64 %87, 1
  %93 = icmp eq i64 %92, %74
  br i1 %93, label %75, label %86

94:                                               ; preds = %77, %75
  %95 = load ptr, ptr %62, align 8, !tbaa !342
  %96 = getelementptr inbounds %"class.xercesc_2_5::BaseRefVectorOf.16", ptr %49, i64 0, i32 4
  %97 = load ptr, ptr %96, align 8, !tbaa !343
  %98 = load ptr, ptr %95, align 8, !tbaa !283
  %99 = getelementptr inbounds ptr, ptr %98, i64 3
  %100 = load ptr, ptr %99, align 8
  call void %100(ptr noundef nonnull align 8 dereferenceable(8) %95, ptr noundef %97)
  store ptr %69, ptr %96, align 8, !tbaa !343
  store i32 %61, ptr %53, align 8, !tbaa !345
  %101 = load i32, ptr %50, align 4, !tbaa !340
  %102 = add i32 %101, 1
  br label %103

103:                                              ; preds = %56, %94
  %104 = phi i32 [ %52, %56 ], [ %102, %94 ]
  %105 = phi i32 [ %51, %56 ], [ %101, %94 ]
  %106 = phi ptr [ %58, %56 ], [ %69, %94 ]
  %107 = zext i32 %105 to i64
  %108 = getelementptr inbounds ptr, ptr %106, i64 %107
  store ptr %48, ptr %108, align 8, !tbaa !276
  store i32 %104, ptr %50, align 4, !tbaa !340
  %109 = add nuw nsw i32 %47, 1
  %110 = load i32, ptr %5, align 4, !tbaa !285
  %111 = icmp slt i32 %109, %110
  br i1 %111, label %46, label %45

112:                                              ; preds = %45, %4
  ret void

113:                                              ; preds = %38
  resume { ptr, i32 } %39

114:                                              ; preds = %38
  %115 = landingpad { ptr, i32 }
          catch ptr null
  %116 = extractvalue { ptr, i32 } %115, 0
  tail call void @__clang_call_terminate(ptr %116) #12
  unreachable
}

; Function Attrs: uwtable
define dso_local void @_ZN11xercesc_2_519XTemplateSerializer11storeObjectEPNS_11RefVectorOfINS_10XercesStepEEERNS_16XSerializeEngineE(ptr noundef %0, ptr noundef nonnull align 8 dereferenceable(92) %1) local_unnamed_addr #4 align 2 personality ptr @__gxx_personality_v0 {
  %3 = tail call noundef zeroext i1 @_ZN11xercesc_2_516XSerializeEngine17needToStoreObjectEPv(ptr noundef nonnull align 8 dereferenceable(92) %1, ptr noundef %0)
  br i1 %3, label %4, label %30

4:                                                ; preds = %2
  %5 = getelementptr inbounds %"class.xercesc_2_5::BaseRefVectorOf.18", ptr %0, i64 0, i32 2
  %6 = load i32, ptr %5, align 4, !tbaa !346
  %7 = tail call noundef nonnull align 8 dereferenceable(92) ptr @_ZN11xercesc_2_516XSerializeEnginelsEi(ptr noundef nonnull align 8 dereferenceable(92) %1, i32 noundef %6)
  %8 = icmp sgt i32 %6, 0
  br i1 %8, label %9, label %30

9:                                                ; preds = %4
  %10 = getelementptr inbounds %"class.xercesc_2_5::BaseRefVectorOf.18", ptr %0, i64 0, i32 4
  %11 = zext i32 %6 to i64
  br label %12

12:                                               ; preds = %9, %24
  %13 = phi i64 [ 0, %9 ], [ %28, %24 ]
  %14 = load i32, ptr %5, align 4, !tbaa !346
  %15 = zext i32 %14 to i64
  %16 = icmp ult i64 %13, %15
  br i1 %16, label %24, label %17

17:                                               ; preds = %12
  %18 = tail call ptr @__cxa_allocate_exception(i64 48) #11
  %19 = getelementptr inbounds %"class.xercesc_2_5::BaseRefVectorOf.18", ptr %0, i64 0, i32 5
  %20 = load ptr, ptr %19, align 8, !tbaa !348
  invoke void @_ZN11xercesc_2_530ArrayIndexOutOfBoundsExceptionC2EPKcjNS_10XMLExcepts5CodesEPNS_13MemoryManagerE(ptr noundef nonnull align 8 dereferenceable(48) %18, ptr noundef nonnull @.str, i32 noundef 289, i32 noundef 109, ptr noundef %20)
          to label %21 unwind label %22

21:                                               ; preds = %17
  tail call void @__cxa_throw(ptr nonnull %18, ptr nonnull @_ZTIN11xercesc_2_530ArrayIndexOutOfBoundsExceptionE, ptr nonnull @_ZN11xercesc_2_512XMLExceptionD2Ev) #13
  unreachable

22:                                               ; preds = %17
  %23 = landingpad { ptr, i32 }
          cleanup
  tail call void @__cxa_free_exception(ptr %18) #11
  resume { ptr, i32 } %23

24:                                               ; preds = %12
  %25 = load ptr, ptr %10, align 8, !tbaa !349
  %26 = getelementptr inbounds ptr, ptr %25, i64 %13
  %27 = load ptr, ptr %26, align 8, !tbaa !276
  tail call void @_ZN11xercesc_2_516XSerializeEngine5writeEPNS_13XSerializableE(ptr noundef nonnull align 8 dereferenceable(92) %1, ptr noundef %27)
  %28 = add nuw nsw i64 %13, 1
  %29 = icmp eq i64 %28, %11
  br i1 %29, label %30, label %12

30:                                               ; preds = %24, %4, %2
  ret void
}

; Function Attrs: uwtable
define dso_local void @_ZN11xercesc_2_519XTemplateSerializer10loadObjectEPPNS_11RefVectorOfINS_10XercesStepEEEibRNS_16XSerializeEngineE(ptr noundef %0, i32 noundef %1, i1 noundef zeroext %2, ptr noundef nonnull align 8 dereferenceable(92) %3) local_unnamed_addr #4 align 2 personality ptr @__gxx_personality_v0 {
  %5 = alloca i32, align 4
  %6 = tail call noundef zeroext i1 @_ZN11xercesc_2_516XSerializeEngine16needToLoadObjectEPPv(ptr noundef nonnull align 8 dereferenceable(92) %3, ptr noundef %0)
  br i1 %6, label %7, label %112

7:                                                ; preds = %4
  %8 = load ptr, ptr %0, align 8, !tbaa !276
  %9 = icmp eq ptr %8, null
  br i1 %9, label %10, label %40

10:                                               ; preds = %7
  %11 = icmp slt i32 %1, 0
  %12 = select i1 %11, i32 16, i32 %1
  %13 = getelementptr inbounds %"class.xercesc_2_5::XSerializeEngine", ptr %3, i64 0, i32 2
  %14 = load ptr, ptr %13, align 8, !tbaa !277
  %15 = tail call noundef ptr @_ZN11xercesc_2_57XMemorynwEmPNS_13MemoryManagerE(i64 noundef 40, ptr noundef %14)
  %16 = load ptr, ptr %13, align 8, !tbaa !277
  %17 = zext i1 %2 to i8
  store ptr getelementptr inbounds ({ [9 x ptr] }, ptr @_ZTVN11xercesc_2_515BaseRefVectorOfINS_10XercesStepEEE, i64 0, inrange i32 0, i64 2), ptr %15, align 8, !tbaa !283
  %18 = getelementptr inbounds %"class.xercesc_2_5::BaseRefVectorOf.18", ptr %15, i64 0, i32 1
  store i8 %17, ptr %18, align 8, !tbaa !350
  %19 = getelementptr inbounds %"class.xercesc_2_5::BaseRefVectorOf.18", ptr %15, i64 0, i32 2
  store i32 0, ptr %19, align 4, !tbaa !346
  %20 = getelementptr inbounds %"class.xercesc_2_5::BaseRefVectorOf.18", ptr %15, i64 0, i32 3
  store i32 %12, ptr %20, align 8, !tbaa !351
  %21 = getelementptr inbounds %"class.xercesc_2_5::BaseRefVectorOf.18", ptr %15, i64 0, i32 4
  store ptr null, ptr %21, align 8, !tbaa !349
  %22 = getelementptr inbounds %"class.xercesc_2_5::BaseRefVectorOf.18", ptr %15, i64 0, i32 5
  store ptr %16, ptr %22, align 8, !tbaa !348
  %23 = zext i32 %12 to i64
  %24 = shl nuw nsw i64 %23, 3
  %25 = load ptr, ptr %16, align 8, !tbaa !283
  %26 = getelementptr inbounds ptr, ptr %25, i64 2
  %27 = load ptr, ptr %26, align 8
  %28 = invoke noundef ptr %27(ptr noundef nonnull align 8 dereferenceable(8) %16, i64 noundef %24)
          to label %29 unwind label %38

29:                                               ; preds = %10
  store ptr %28, ptr %21, align 8, !tbaa !349
  %30 = icmp eq i32 %12, 0
  br i1 %30, label %37, label %31

31:                                               ; preds = %29, %31
  %32 = phi i64 [ %35, %31 ], [ 0, %29 ]
  %33 = load ptr, ptr %21, align 8, !tbaa !349
  %34 = getelementptr inbounds ptr, ptr %33, i64 %32
  store ptr null, ptr %34, align 8, !tbaa !276
  %35 = add nuw nsw i64 %32, 1
  %36 = icmp eq i64 %35, %23
  br i1 %36, label %37, label %31

37:                                               ; preds = %31, %29
  store ptr getelementptr inbounds ({ [9 x ptr] }, ptr @_ZTVN11xercesc_2_511RefVectorOfINS_10XercesStepEEE, i64 0, inrange i32 0, i64 2), ptr %15, align 8, !tbaa !283
  store ptr %15, ptr %0, align 8, !tbaa !276
  br label %40

38:                                               ; preds = %10
  %39 = landingpad { ptr, i32 }
          cleanup
  invoke void @_ZN11xercesc_2_57XMemorydlEPvPNS_13MemoryManagerE(ptr noundef nonnull %15, ptr noundef %14)
          to label %113 unwind label %114

40:                                               ; preds = %37, %7
  %41 = phi ptr [ %15, %37 ], [ %8, %7 ]
  tail call void @_ZN11xercesc_2_516XSerializeEngine14registerObjectEPv(ptr noundef nonnull align 8 dereferenceable(92) %3, ptr noundef nonnull %41)
  call void @llvm.lifetime.start.p0(i64 4, ptr nonnull %5) #11
  store i32 0, ptr %5, align 4, !tbaa !285
  %42 = call noundef nonnull align 8 dereferenceable(92) ptr @_ZN11xercesc_2_516XSerializeEnginersERi(ptr noundef nonnull align 8 dereferenceable(92) %3, ptr noundef nonnull align 4 dereferenceable(4) %5)
  %43 = load i32, ptr %5, align 4, !tbaa !285
  %44 = icmp sgt i32 %43, 0
  br i1 %44, label %46, label %45

45:                                               ; preds = %103, %40
  call void @llvm.lifetime.end.p0(i64 4, ptr nonnull %5) #11
  br label %112

46:                                               ; preds = %40, %103
  %47 = phi i32 [ %109, %103 ], [ 0, %40 ]
  %48 = call noundef ptr @_ZN11xercesc_2_516XSerializeEngine4readEPNS_10XProtoTypeE(ptr noundef nonnull align 8 dereferenceable(92) %3, ptr noundef nonnull @_ZN11xercesc_2_510XercesStep15classXercesStepE)
  %49 = load ptr, ptr %0, align 8, !tbaa !276
  %50 = getelementptr inbounds %"class.xercesc_2_5::BaseRefVectorOf.18", ptr %49, i64 0, i32 2
  %51 = load i32, ptr %50, align 4, !tbaa !346
  %52 = add i32 %51, 1
  %53 = getelementptr inbounds %"class.xercesc_2_5::BaseRefVectorOf.18", ptr %49, i64 0, i32 3
  %54 = load i32, ptr %53, align 8, !tbaa !351
  %55 = icmp ult i32 %52, %54
  br i1 %55, label %56, label %59

56:                                               ; preds = %46
  %57 = getelementptr inbounds %"class.xercesc_2_5::BaseRefVectorOf.18", ptr %49, i64 0, i32 4
  %58 = load ptr, ptr %57, align 8, !tbaa !349
  br label %103

59:                                               ; preds = %46
  %60 = add i32 %54, 32
  %61 = call i32 @llvm.umax.i32(i32 %52, i32 %60)
  %62 = getelementptr inbounds %"class.xercesc_2_5::BaseRefVectorOf.18", ptr %49, i64 0, i32 5
  %63 = load ptr, ptr %62, align 8, !tbaa !348
  %64 = zext i32 %61 to i64
  %65 = shl nuw nsw i64 %64, 3
  %66 = load ptr, ptr %63, align 8, !tbaa !283
  %67 = getelementptr inbounds ptr, ptr %66, i64 2
  %68 = load ptr, ptr %67, align 8
  %69 = call noundef ptr %68(ptr noundef nonnull align 8 dereferenceable(8) %63, i64 noundef %65)
  %70 = load i32, ptr %50, align 4, !tbaa !346
  %71 = icmp eq i32 %70, 0
  br i1 %71, label %75, label %72

72:                                               ; preds = %59
  %73 = getelementptr inbounds %"class.xercesc_2_5::BaseRefVectorOf.18", ptr %49, i64 0, i32 4
  %74 = zext i32 %70 to i64
  br label %86

75:                                               ; preds = %86, %59
  %76 = icmp ult i32 %70, %61
  br i1 %76, label %77, label %94

77:                                               ; preds = %75
  %78 = zext i32 %70 to i64
  %79 = shl nuw nsw i64 %78, 3
  %80 = getelementptr i8, ptr %69, i64 %79
  %81 = xor i32 %70, -1
  %82 = add i32 %61, %81
  %83 = zext i32 %82 to i64
  %84 = shl nuw nsw i64 %83, 3
  %85 = add nuw nsw i64 %84, 8
  call void @llvm.memset.p0.i64(ptr noundef nonnull align 8 dereferenceable(1) %80, i8 0, i64 %85, i1 false), !tbaa !276
  br label %94

86:                                               ; preds = %86, %72
  %87 = phi i64 [ 0, %72 ], [ %92, %86 ]
  %88 = load ptr, ptr %73, align 8, !tbaa !349
  %89 = getelementptr inbounds ptr, ptr %88, i64 %87
  %90 = load ptr, ptr %89, align 8, !tbaa !276
  %91 = getelementptr inbounds ptr, ptr %69, i64 %87
  store ptr %90, ptr %91, align 8, !tbaa !276
  %92 = add nuw nsw i64 %87, 1
  %93 = icmp eq i64 %92, %74
  br i1 %93, label %75, label %86

94:                                               ; preds = %77, %75
  %95 = load ptr, ptr %62, align 8, !tbaa !348
  %96 = getelementptr inbounds %"class.xercesc_2_5::BaseRefVectorOf.18", ptr %49, i64 0, i32 4
  %97 = load ptr, ptr %96, align 8, !tbaa !349
  %98 = load ptr, ptr %95, align 8, !tbaa !283
  %99 = getelementptr inbounds ptr, ptr %98, i64 3
  %100 = load ptr, ptr %99, align 8
  call void %100(ptr noundef nonnull align 8 dereferenceable(8) %95, ptr noundef %97)
  store ptr %69, ptr %96, align 8, !tbaa !349
  store i32 %61, ptr %53, align 8, !tbaa !351
  %101 = load i32, ptr %50, align 4, !tbaa !346
  %102 = add i32 %101, 1
  br label %103

103:                                              ; preds = %56, %94
  %104 = phi i32 [ %52, %56 ], [ %102, %94 ]
  %105 = phi i32 [ %51, %56 ], [ %101, %94 ]
  %106 = phi ptr [ %58, %56 ], [ %69, %94 ]
  %107 = zext i32 %105 to i64
  %108 = getelementptr inbounds ptr, ptr %106, i64 %107
  store ptr %48, ptr %108, align 8, !tbaa !276
  store i32 %104, ptr %50, align 4, !tbaa !346
  %109 = add nuw nsw i32 %47, 1
  %110 = load i32, ptr %5, align 4, !tbaa !285
  %111 = icmp slt i32 %109, %110
  br i1 %111, label %46, label %45

112:                                              ; preds = %45, %4
  ret void

113:                                              ; preds = %38
  resume { ptr, i32 } %39

114:                                              ; preds = %38
  %115 = landingpad { ptr, i32 }
          catch ptr null
  %116 = extractvalue { ptr, i32 } %115, 0
  tail call void @__clang_call_terminate(ptr %116) #12
  unreachable
}

; Function Attrs: uwtable
define dso_local void @_ZN11xercesc_2_519XTemplateSerializer11storeObjectEPNS_14RefHashTableOfINS_12KVStringPairEEERNS_16XSerializeEngineE(ptr noundef %0, ptr noundef nonnull align 8 dereferenceable(92) %1) local_unnamed_addr #4 align 2 personality ptr @__gxx_personality_v0 {
  %3 = alloca i32, align 4
  %4 = alloca %"class.xercesc_2_5::RefHashTableOfEnumerator", align 8
  %5 = tail call noundef zeroext i1 @_ZN11xercesc_2_516XSerializeEngine17needToStoreObjectEPv(ptr noundef nonnull align 8 dereferenceable(92) %1, ptr noundef %0)
  br i1 %5, label %6, label %108

6:                                                ; preds = %2
  call void @llvm.lifetime.start.p0(i64 48, ptr nonnull %4) #11
  %7 = load ptr, ptr %0, align 8, !tbaa !352
  store ptr getelementptr inbounds ({ [7 x ptr] }, ptr @_ZTVN11xercesc_2_524RefHashTableOfEnumeratorINS_12KVStringPairEEE, i64 0, inrange i32 0, i64 2), ptr %4, align 8, !tbaa !283
  %8 = getelementptr inbounds %"class.xercesc_2_5::RefHashTableOfEnumerator", ptr %4, i64 0, i32 1
  store i8 0, ptr %8, align 8, !tbaa !354
  %9 = getelementptr inbounds %"class.xercesc_2_5::RefHashTableOfEnumerator", ptr %4, i64 0, i32 2
  store ptr null, ptr %9, align 8, !tbaa !357
  %10 = getelementptr inbounds %"class.xercesc_2_5::RefHashTableOfEnumerator", ptr %4, i64 0, i32 3
  %11 = getelementptr inbounds %"class.xercesc_2_5::RefHashTableOfEnumerator", ptr %4, i64 0, i32 4
  store ptr %0, ptr %11, align 8, !tbaa !358
  %12 = getelementptr inbounds %"class.xercesc_2_5::RefHashTableOfEnumerator", ptr %4, i64 0, i32 5
  store ptr %7, ptr %12, align 8, !tbaa !359
  store i32 0, ptr %10, align 8, !tbaa !360
  %13 = getelementptr inbounds %"class.xercesc_2_5::RefHashTableOf", ptr %0, i64 0, i32 3
  %14 = load i32, ptr %13, align 8, !tbaa !361
  %15 = icmp eq i32 %14, 0
  br i1 %15, label %37, label %16

16:                                               ; preds = %6
  %17 = getelementptr inbounds %"class.xercesc_2_5::RefHashTableOf", ptr %0, i64 0, i32 2
  %18 = load ptr, ptr %17, align 8, !tbaa !362
  %19 = load ptr, ptr %18, align 8, !tbaa !276
  %20 = icmp eq ptr %19, null
  br i1 %20, label %21, label %33

21:                                               ; preds = %16
  %22 = zext i32 %14 to i64
  br label %27

23:                                               ; preds = %27
  %24 = getelementptr inbounds ptr, ptr %18, i64 %29
  %25 = load ptr, ptr %24, align 8, !tbaa !276
  %26 = icmp eq ptr %25, null
  br i1 %26, label %27, label %31

27:                                               ; preds = %21, %23
  %28 = phi i64 [ 0, %21 ], [ %29, %23 ]
  %29 = add nuw nsw i64 %28, 1
  %30 = icmp eq i64 %29, %22
  br i1 %30, label %36, label %23

31:                                               ; preds = %23
  %32 = trunc i64 %29 to i32
  br label %33

33:                                               ; preds = %31, %16
  %34 = phi i32 [ 0, %16 ], [ %32, %31 ]
  %35 = phi ptr [ %19, %16 ], [ %25, %31 ]
  store i32 %34, ptr %10, align 8, !tbaa !360
  store ptr %35, ptr %9, align 8, !tbaa !357
  br label %37

36:                                               ; preds = %27
  store i32 %14, ptr %10, align 8, !tbaa !360
  br label %37

37:                                               ; preds = %36, %6, %33
  %38 = phi ptr [ %35, %33 ], [ null, %6 ], [ null, %36 ]
  br label %39

39:                                               ; preds = %37, %51
  %40 = phi ptr [ %53, %51 ], [ %38, %37 ]
  %41 = phi i32 [ %52, %51 ], [ 0, %37 ]
  %42 = icmp eq ptr %40, null
  br i1 %42, label %43, label %49

43:                                               ; preds = %39
  %44 = load i32, ptr %10, align 8, !tbaa !360
  %45 = load ptr, ptr %11, align 8, !tbaa !358
  %46 = getelementptr inbounds %"class.xercesc_2_5::RefHashTableOf", ptr %45, i64 0, i32 3
  %47 = load i32, ptr %46, align 8, !tbaa !361
  %48 = icmp eq i32 %44, %47
  br i1 %48, label %58, label %49

49:                                               ; preds = %39, %43
  %50 = invoke noundef nonnull align 8 dereferenceable(48) ptr @_ZN11xercesc_2_524RefHashTableOfEnumeratorINS_12KVStringPairEE11nextElementEv(ptr noundef nonnull align 8 dereferenceable(48) %4)
          to label %51 unwind label %54

51:                                               ; preds = %49
  %52 = add nuw nsw i32 %41, 1
  %53 = load ptr, ptr %9, align 8, !tbaa !357
  br label %39

54:                                               ; preds = %49
  %55 = landingpad { ptr, i32 }
          cleanup
  br label %105

56:                                               ; preds = %58
  %57 = landingpad { ptr, i32 }
          cleanup
  br label %105

58:                                               ; preds = %43
  %59 = invoke noundef nonnull align 8 dereferenceable(92) ptr @_ZN11xercesc_2_516XSerializeEnginelsEi(ptr noundef nonnull align 8 dereferenceable(92) %1, i32 noundef %41)
          to label %60 unwind label %56

60:                                               ; preds = %58
  store ptr null, ptr %9, align 8, !tbaa !357
  store i32 0, ptr %10, align 8, !tbaa !360
  %61 = load ptr, ptr %11, align 8, !tbaa !358
  %62 = getelementptr inbounds %"class.xercesc_2_5::RefHashTableOf", ptr %61, i64 0, i32 3
  %63 = load i32, ptr %62, align 8, !tbaa !361
  %64 = icmp eq i32 %63, 0
  br i1 %64, label %79, label %65

65:                                               ; preds = %60
  %66 = getelementptr inbounds %"class.xercesc_2_5::RefHashTableOf", ptr %61, i64 0, i32 2
  %67 = load ptr, ptr %66, align 8, !tbaa !362
  %68 = zext i32 %63 to i64
  br label %69

69:                                               ; preds = %74, %65
  %70 = phi i64 [ %75, %74 ], [ 0, %65 ]
  %71 = getelementptr inbounds ptr, ptr %67, i64 %70
  %72 = load ptr, ptr %71, align 8, !tbaa !276
  %73 = icmp eq ptr %72, null
  br i1 %73, label %74, label %78

74:                                               ; preds = %69
  %75 = add nuw nsw i64 %70, 1
  %76 = trunc i64 %75 to i32
  store i32 %76, ptr %10, align 8, !tbaa !360
  %77 = icmp eq i64 %75, %68
  br i1 %77, label %79, label %69

78:                                               ; preds = %69
  store ptr %72, ptr %9, align 8, !tbaa !357
  br label %79

79:                                               ; preds = %74, %60, %78
  br label %80

80:                                               ; preds = %79, %98
  %81 = load ptr, ptr %9, align 8, !tbaa !357
  %82 = icmp eq ptr %81, null
  br i1 %82, label %83, label %89

83:                                               ; preds = %80
  %84 = load i32, ptr %10, align 8, !tbaa !360
  %85 = load ptr, ptr %11, align 8, !tbaa !358
  %86 = getelementptr inbounds %"class.xercesc_2_5::RefHashTableOf", ptr %85, i64 0, i32 3
  %87 = load i32, ptr %86, align 8, !tbaa !361
  %88 = icmp eq i32 %84, %87
  br i1 %88, label %104, label %89

89:                                               ; preds = %80, %83
  %90 = invoke noundef ptr @_ZN11xercesc_2_524RefHashTableOfEnumeratorINS_12KVStringPairEE14nextElementKeyEv(ptr noundef nonnull align 8 dereferenceable(48) %4)
          to label %91 unwind label %100

91:                                               ; preds = %89
  invoke void @_ZN11xercesc_2_516XSerializeEngine11writeStringEPKtib(ptr noundef nonnull align 8 dereferenceable(92) %1, ptr noundef %90, i32 noundef 0, i1 noundef zeroext false)
          to label %92 unwind label %100

92:                                               ; preds = %91
  call void @llvm.lifetime.start.p0(i64 4, ptr nonnull %3) #11
  %93 = invoke noundef ptr @_ZN11xercesc_2_514RefHashTableOfINS_12KVStringPairEE14findBucketElemEPKvRj(ptr noundef nonnull align 8 dereferenceable(48) %0, ptr noundef %90, ptr noundef nonnull align 4 dereferenceable(4) %3)
          to label %94 unwind label %102

94:                                               ; preds = %92
  %95 = icmp eq ptr %93, null
  br i1 %95, label %98, label %96

96:                                               ; preds = %94
  %97 = load ptr, ptr %93, align 8, !tbaa !363
  br label %98

98:                                               ; preds = %96, %94
  %99 = phi ptr [ %97, %96 ], [ null, %94 ]
  call void @llvm.lifetime.end.p0(i64 4, ptr nonnull %3) #11
  invoke void @_ZN11xercesc_2_516XSerializeEngine5writeEPNS_13XSerializableE(ptr noundef nonnull align 8 dereferenceable(92) %1, ptr noundef %99)
          to label %80 unwind label %102

100:                                              ; preds = %91, %89
  %101 = landingpad { ptr, i32 }
          cleanup
  br label %105

102:                                              ; preds = %98, %92
  %103 = landingpad { ptr, i32 }
          cleanup
  br label %105

104:                                              ; preds = %83
  call void @_ZN11xercesc_2_524RefHashTableOfEnumeratorINS_12KVStringPairEED2Ev(ptr noundef nonnull align 8 dereferenceable(48) %4)
  call void @llvm.lifetime.end.p0(i64 48, ptr nonnull %4) #11
  br label %108

105:                                              ; preds = %54, %56, %100, %102
  %106 = phi { ptr, i32 } [ %103, %102 ], [ %101, %100 ], [ %55, %54 ], [ %57, %56 ]
  invoke void @_ZN11xercesc_2_524RefHashTableOfEnumeratorINS_12KVStringPairEED2Ev(ptr noundef nonnull align 8 dereferenceable(48) %4)
          to label %107 unwind label %109

107:                                              ; preds = %105
  call void @llvm.lifetime.end.p0(i64 48, ptr nonnull %4) #11
  resume { ptr, i32 } %106

108:                                              ; preds = %104, %2
  ret void

109:                                              ; preds = %105
  %110 = landingpad { ptr, i32 }
          catch ptr null
  %111 = extractvalue { ptr, i32 } %110, 0
  call void @__clang_call_terminate(ptr %111) #12
  unreachable
}

; Function Attrs: nounwind uwtable
