; ModuleID = 'XTemplateComparator.cpp'
source_filename = "XTemplateComparator.cpp"
target datalayout = "e-m:e-p270:32:32-p271:32:32-p272:64:64-i64:64-f80:128-n8:16:32:64-S128"
target triple = "x86_64-unknown-linux-gnu"

%"class.xercesc_2_5::ValueVectorOf.0" = type { i8, i32, i32, ptr, ptr }
%"class.xercesc_2_5::ValueVectorOf.1" = type { i8, i32, i32, ptr, ptr }
%"class.xercesc_2_5::BaseRefVectorOf" = type { ptr, i8, i32, i32, ptr, ptr }
%"class.xercesc_2_5::BaseRefVectorOf.2" = type { ptr, i8, i32, i32, ptr, ptr }
%"class.xercesc_2_5::BaseRefVectorOf.4" = type { ptr, i8, i32, i32, ptr, ptr }
%"class.xercesc_2_5::BaseRefVectorOf.6" = type { ptr, i8, i32, i32, ptr, ptr }
%"class.xercesc_2_5::BaseRefVectorOf.8" = type { ptr, i8, i32, i32, ptr, ptr }
%"class.xercesc_2_5::BaseRefVectorOf.10" = type { ptr, i8, i32, i32, ptr, ptr }
%"class.xercesc_2_5::BaseRefVectorOf.12" = type { ptr, i8, i32, i32, ptr, ptr }
%"class.xercesc_2_5::BaseRefVectorOf.14" = type { ptr, i8, i32, i32, ptr, ptr }
%"class.xercesc_2_5::BaseRefVectorOf.16" = type { ptr, i8, i32, i32, ptr, ptr }
%"class.xercesc_2_5::BaseRefVectorOf.18" = type { ptr, i8, i32, i32, ptr, ptr }
%"class.xercesc_2_5::RefHashTableOfEnumerator" = type { %"class.xercesc_2_5::XMLEnumerator", i8, ptr, i32, ptr, ptr }
%"class.xercesc_2_5::XMLEnumerator" = type { ptr }
%"class.xercesc_2_5::RefHashTableOf" = type { ptr, i8, ptr, i32, i32, i32, ptr }
%"struct.xercesc_2_5::RefHashTableBucketElem.57" = type { ptr, ptr, ptr }
%"class.xercesc_2_5::RefHashTableOfEnumerator.19" = type { %"class.xercesc_2_5::XMLEnumerator.20", i8, ptr, i32, ptr, ptr }
%"class.xercesc_2_5::XMLEnumerator.20" = type { ptr }
%"class.xercesc_2_5::RefHashTableOf.21" = type { ptr, i8, ptr, i32, i32, i32, ptr }
%"struct.xercesc_2_5::RefHashTableBucketElem.58" = type { ptr, ptr, ptr }
%"class.xercesc_2_5::RefHashTableOfEnumerator.22" = type { %"class.xercesc_2_5::XMLEnumerator.23", i8, ptr, i32, ptr, ptr }
%"class.xercesc_2_5::XMLEnumerator.23" = type { ptr }
%"class.xercesc_2_5::RefHashTableOf.24" = type { ptr, i8, ptr, i32, i32, i32, ptr }
%"struct.xercesc_2_5::RefHashTableBucketElem.59" = type { ptr, ptr, ptr }
%"class.xercesc_2_5::RefHashTableOfEnumerator.25" = type { %"class.xercesc_2_5::XMLEnumerator.26", i8, ptr, i32, ptr, ptr }
%"class.xercesc_2_5::XMLEnumerator.26" = type { ptr }
%"class.xercesc_2_5::RefHashTableOf.27" = type { ptr, i8, ptr, i32, i32, i32, ptr }
%"struct.xercesc_2_5::RefHashTableBucketElem.60" = type { ptr, ptr, ptr }
%"class.xercesc_2_5::RefHashTableOfEnumerator.28" = type { %"class.xercesc_2_5::XMLEnumerator.29", i8, ptr, i32, ptr, ptr }
%"class.xercesc_2_5::XMLEnumerator.29" = type { ptr }
%"class.xercesc_2_5::RefHashTableOf.30" = type { ptr, i8, ptr, i32, i32, i32, ptr }
%"struct.xercesc_2_5::RefHashTableBucketElem.61" = type { ptr, ptr, ptr }
%"class.xercesc_2_5::RefHashTableOfEnumerator.31" = type { %"class.xercesc_2_5::XMLEnumerator.32", i8, ptr, i32, ptr, ptr }
%"class.xercesc_2_5::XMLEnumerator.32" = type { ptr }
%"class.xercesc_2_5::RefHashTableOf.33" = type { ptr, i8, ptr, i32, i32, i32, ptr }
%"struct.xercesc_2_5::RefHashTableBucketElem.62" = type { ptr, ptr, ptr }
%"class.xercesc_2_5::RefHashTableOfEnumerator.34" = type { %"class.xercesc_2_5::XMLEnumerator.35", i8, ptr, i32, ptr, ptr }
%"class.xercesc_2_5::XMLEnumerator.35" = type { ptr }
%"class.xercesc_2_5::RefHashTableOf.36" = type { ptr, i8, ptr, i32, i32, i32, ptr }
%"struct.xercesc_2_5::RefHashTableBucketElem.63" = type { ptr, ptr, ptr }
%"class.xercesc_2_5::RefHashTableOfEnumerator.37" = type { %"class.xercesc_2_5::XMLEnumerator.38", i8, ptr, i32, ptr, ptr }
%"class.xercesc_2_5::XMLEnumerator.38" = type { ptr }
%"class.xercesc_2_5::RefHashTableOf.39" = type { ptr, i8, ptr, i32, i32, i32, ptr }
%"struct.xercesc_2_5::RefHashTableBucketElem" = type { ptr, ptr, ptr }
%"class.xercesc_2_5::RefHashTableOfEnumerator.40" = type { %"class.xercesc_2_5::XMLEnumerator.41", i8, ptr, i32, ptr, ptr }
%"class.xercesc_2_5::XMLEnumerator.41" = type { ptr }
%"class.xercesc_2_5::RefHashTableOf.42" = type { ptr, i8, ptr, i32, i32, i32, ptr }
%"struct.xercesc_2_5::RefHashTableBucketElem.64" = type { ptr, ptr, ptr }
%"class.xercesc_2_5::RefHash2KeysTableOfEnumerator" = type { %"class.xercesc_2_5::XMLEnumerator.43", i8, ptr, i32, ptr, ptr }
%"class.xercesc_2_5::XMLEnumerator.43" = type { ptr }
%"class.xercesc_2_5::RefHash2KeysTableOf" = type { ptr, i8, ptr, i32, ptr }
%"struct.xercesc_2_5::RefHash2KeysTableBucketElem" = type <{ ptr, ptr, ptr, i32, [4 x i8] }>
%"class.xercesc_2_5::RefHash2KeysTableOfEnumerator.44" = type { %"class.xercesc_2_5::XMLEnumerator.45", i8, ptr, i32, ptr, ptr }
%"class.xercesc_2_5::XMLEnumerator.45" = type { ptr }
%"class.xercesc_2_5::RefHash2KeysTableOf.46" = type { ptr, i8, ptr, i32, ptr }
%"struct.xercesc_2_5::RefHash2KeysTableBucketElem.65" = type <{ ptr, ptr, ptr, i32, [4 x i8] }>
%"class.xercesc_2_5::RefHash3KeysIdPoolEnumerator" = type { %"class.xercesc_2_5::XMLEnumerator.47", i8, i32, ptr, ptr, i32, ptr }
%"class.xercesc_2_5::XMLEnumerator.47" = type { ptr }
%"class.xercesc_2_5::RefHash3KeysIdPool" = type { ptr, i8, ptr, i32, ptr, ptr, i32, i32 }
%"struct.xercesc_2_5::RefHash3KeysTableBucketElem" = type { ptr, ptr, ptr, i32, i32 }
%"class.xercesc_2_5::NameIdPool" = type <{ ptr, ptr, ptr, i32, i32, i32, [4 x i8] }>
%"class.xercesc_2_5::NameIdPool.51" = type <{ ptr, ptr, ptr, i32, i32, i32, [4 x i8] }>
%"class.xercesc_2_5::NameIdPool.55" = type <{ ptr, ptr, ptr, i32, i32, i32, [4 x i8] }>
%"class.xercesc_2_5::XMLException" = type { ptr, i32, ptr, i32, ptr, ptr }

$__clang_call_terminate = comdat any

$_ZNK11xercesc_2_524RefHashTableOfEnumeratorINS_12KVStringPairEE15hasMoreElementsEv = comdat any

$_ZN11xercesc_2_524RefHashTableOfEnumeratorINS_12KVStringPairEE11nextElementEv = comdat any

$_ZN11xercesc_2_524RefHashTableOfEnumeratorINS_12KVStringPairEE5ResetEv = comdat any

$_ZN11xercesc_2_524RefHashTableOfEnumeratorINS_12KVStringPairEE14nextElementKeyEv = comdat any

$_ZN11xercesc_2_524RefHashTableOfEnumeratorINS_12KVStringPairEED2Ev = comdat any

$_ZNK11xercesc_2_524RefHashTableOfEnumeratorINS_9XMLAttDefEE15hasMoreElementsEv = comdat any

$_ZN11xercesc_2_524RefHashTableOfEnumeratorINS_9XMLAttDefEE11nextElementEv = comdat any

$_ZN11xercesc_2_524RefHashTableOfEnumeratorINS_9XMLAttDefEE5ResetEv = comdat any

$_ZN11xercesc_2_524RefHashTableOfEnumeratorINS_9XMLAttDefEE14nextElementKeyEv = comdat any

$_ZN11xercesc_2_524RefHashTableOfEnumeratorINS_9XMLAttDefEED2Ev = comdat any

$_ZNK11xercesc_2_524RefHashTableOfEnumeratorINS_9DTDAttDefEE15hasMoreElementsEv = comdat any

$_ZN11xercesc_2_524RefHashTableOfEnumeratorINS_9DTDAttDefEE11nextElementEv = comdat any

$_ZN11xercesc_2_524RefHashTableOfEnumeratorINS_9DTDAttDefEE5ResetEv = comdat any

$_ZN11xercesc_2_524RefHashTableOfEnumeratorINS_9DTDAttDefEE14nextElementKeyEv = comdat any

$_ZN11xercesc_2_524RefHashTableOfEnumeratorINS_9DTDAttDefEED2Ev = comdat any

$_ZNK11xercesc_2_524RefHashTableOfEnumeratorINS_15ComplexTypeInfoEE15hasMoreElementsEv = comdat any

$_ZN11xercesc_2_524RefHashTableOfEnumeratorINS_15ComplexTypeInfoEE11nextElementEv = comdat any

$_ZN11xercesc_2_524RefHashTableOfEnumeratorINS_15ComplexTypeInfoEE5ResetEv = comdat any

$_ZN11xercesc_2_524RefHashTableOfEnumeratorINS_15ComplexTypeInfoEE14nextElementKeyEv = comdat any

$_ZN11xercesc_2_524RefHashTableOfEnumeratorINS_15ComplexTypeInfoEED2Ev = comdat any

$_ZNK11xercesc_2_524RefHashTableOfEnumeratorINS_15XercesGroupInfoEE15hasMoreElementsEv = comdat any

$_ZN11xercesc_2_524RefHashTableOfEnumeratorINS_15XercesGroupInfoEE11nextElementEv = comdat any

$_ZN11xercesc_2_524RefHashTableOfEnumeratorINS_15XercesGroupInfoEE5ResetEv = comdat any

$_ZN11xercesc_2_524RefHashTableOfEnumeratorINS_15XercesGroupInfoEE14nextElementKeyEv = comdat any

$_ZN11xercesc_2_524RefHashTableOfEnumeratorINS_15XercesGroupInfoEED2Ev = comdat any

$_ZNK11xercesc_2_524RefHashTableOfEnumeratorINS_18XercesAttGroupInfoEE15hasMoreElementsEv = comdat any

$_ZN11xercesc_2_524RefHashTableOfEnumeratorINS_18XercesAttGroupInfoEE11nextElementEv = comdat any

$_ZN11xercesc_2_524RefHashTableOfEnumeratorINS_18XercesAttGroupInfoEE5ResetEv = comdat any

$_ZN11xercesc_2_524RefHashTableOfEnumeratorINS_18XercesAttGroupInfoEE14nextElementKeyEv = comdat any

$_ZN11xercesc_2_524RefHashTableOfEnumeratorINS_18XercesAttGroupInfoEED2Ev = comdat any

$_ZNK11xercesc_2_524RefHashTableOfEnumeratorINS_10XMLRefInfoEE15hasMoreElementsEv = comdat any

$_ZN11xercesc_2_524RefHashTableOfEnumeratorINS_10XMLRefInfoEE11nextElementEv = comdat any

$_ZN11xercesc_2_524RefHashTableOfEnumeratorINS_10XMLRefInfoEE5ResetEv = comdat any

$_ZN11xercesc_2_524RefHashTableOfEnumeratorINS_10XMLRefInfoEE14nextElementKeyEv = comdat any

$_ZN11xercesc_2_524RefHashTableOfEnumeratorINS_10XMLRefInfoEED2Ev = comdat any

$_ZNK11xercesc_2_524RefHashTableOfEnumeratorINS_17DatatypeValidatorEE15hasMoreElementsEv = comdat any

$_ZN11xercesc_2_524RefHashTableOfEnumeratorINS_17DatatypeValidatorEE11nextElementEv = comdat any

$_ZN11xercesc_2_524RefHashTableOfEnumeratorINS_17DatatypeValidatorEE5ResetEv = comdat any

$_ZN11xercesc_2_524RefHashTableOfEnumeratorINS_17DatatypeValidatorEE14nextElementKeyEv = comdat any

$_ZN11xercesc_2_524RefHashTableOfEnumeratorINS_17DatatypeValidatorEED2Ev = comdat any

$_ZNK11xercesc_2_524RefHashTableOfEnumeratorINS_7GrammarEE15hasMoreElementsEv = comdat any

$_ZN11xercesc_2_524RefHashTableOfEnumeratorINS_7GrammarEE11nextElementEv = comdat any

$_ZN11xercesc_2_524RefHashTableOfEnumeratorINS_7GrammarEE5ResetEv = comdat any

$_ZN11xercesc_2_524RefHashTableOfEnumeratorINS_7GrammarEE14nextElementKeyEv = comdat any

$_ZN11xercesc_2_524RefHashTableOfEnumeratorINS_7GrammarEED2Ev = comdat any

$_ZNK11xercesc_2_529RefHash2KeysTableOfEnumeratorINS_12SchemaAttDefEE15hasMoreElementsEv = comdat any

$_ZN11xercesc_2_529RefHash2KeysTableOfEnumeratorINS_12SchemaAttDefEE11nextElementEv = comdat any

$_ZN11xercesc_2_529RefHash2KeysTableOfEnumeratorINS_12SchemaAttDefEE5ResetEv = comdat any

$_ZN11xercesc_2_529RefHash2KeysTableOfEnumeratorINS_12SchemaAttDefEE14nextElementKeyERPvRi = comdat any

$_ZN11xercesc_2_529RefHash2KeysTableOfEnumeratorINS_12SchemaAttDefEED2Ev = comdat any

$_ZNK11xercesc_2_529RefHash2KeysTableOfEnumeratorINS_13ValueVectorOfIPNS_17SchemaElementDeclEEEE15hasMoreElementsEv = comdat any

$_ZN11xercesc_2_529RefHash2KeysTableOfEnumeratorINS_13ValueVectorOfIPNS_17SchemaElementDeclEEEE11nextElementEv = comdat any

$_ZN11xercesc_2_529RefHash2KeysTableOfEnumeratorINS_13ValueVectorOfIPNS_17SchemaElementDeclEEEE5ResetEv = comdat any

$_ZN11xercesc_2_529RefHash2KeysTableOfEnumeratorINS_13ValueVectorOfIPNS_17SchemaElementDeclEEEE14nextElementKeyERPvRi = comdat any

$_ZN11xercesc_2_529RefHash2KeysTableOfEnumeratorINS_13ValueVectorOfIPNS_17SchemaElementDeclEEEED2Ev = comdat any

$_ZN11xercesc_2_528RefHash3KeysIdPoolEnumeratorINS_17SchemaElementDeclEE11nextElementEv = comdat any

$_ZN11xercesc_2_528RefHash3KeysIdPoolEnumeratorINS_17SchemaElementDeclEED2Ev = comdat any

$_ZN11xercesc_2_530ArrayIndexOutOfBoundsExceptionC2EPKcjNS_10XMLExcepts5CodesEPNS_13MemoryManagerE = comdat any

$_ZN11xercesc_2_530ArrayIndexOutOfBoundsExceptionD0Ev = comdat any

$_ZNK11xercesc_2_530ArrayIndexOutOfBoundsException7getTypeEv = comdat any

$_ZNK11xercesc_2_530ArrayIndexOutOfBoundsException9duplicateEv = comdat any

$_ZN11xercesc_2_519RefHash2KeysTableOfINS_12SchemaAttDefEE14findBucketElemEPKviRj = comdat any

$_ZN11xercesc_2_516RuntimeExceptionC2EPKcjNS_10XMLExcepts5CodesEPNS_13MemoryManagerE = comdat any

$_ZN11xercesc_2_516RuntimeExceptionD0Ev = comdat any

$_ZNK11xercesc_2_516RuntimeException7getTypeEv = comdat any

$_ZNK11xercesc_2_516RuntimeException9duplicateEv = comdat any

$_ZN11xercesc_2_529RefHash2KeysTableOfEnumeratorINS_12SchemaAttDefEED0Ev = comdat any

$_ZN11xercesc_2_522NoSuchElementExceptionC2EPKcjNS_10XMLExcepts5CodesEPNS_13MemoryManagerE = comdat any

$_ZN11xercesc_2_522NoSuchElementExceptionD0Ev = comdat any

$_ZNK11xercesc_2_522NoSuchElementException7getTypeEv = comdat any

$_ZNK11xercesc_2_522NoSuchElementException9duplicateEv = comdat any

$_ZN11xercesc_2_514RefHashTableOfINS_17DatatypeValidatorEE14findBucketElemEPKvRj = comdat any

$_ZN11xercesc_2_528RefHash3KeysIdPoolEnumeratorINS_17SchemaElementDeclEED0Ev = comdat any

$_ZNK11xercesc_2_528RefHash3KeysIdPoolEnumeratorINS_17SchemaElementDeclEE15hasMoreElementsEv = comdat any

$_ZN11xercesc_2_528RefHash3KeysIdPoolEnumeratorINS_17SchemaElementDeclEE5ResetEv = comdat any

$_ZN11xercesc_2_524RefHashTableOfEnumeratorINS_12KVStringPairEED0Ev = comdat any

$_ZN11xercesc_2_514RefHashTableOfINS_12KVStringPairEE14findBucketElemEPKvRj = comdat any

$_ZN11xercesc_2_524RefHashTableOfEnumeratorINS_9XMLAttDefEED0Ev = comdat any

$_ZN11xercesc_2_514RefHashTableOfINS_9XMLAttDefEE14findBucketElemEPKvRj = comdat any

$_ZN11xercesc_2_524RefHashTableOfEnumeratorINS_9DTDAttDefEED0Ev = comdat any

$_ZN11xercesc_2_514RefHashTableOfINS_9DTDAttDefEE14findBucketElemEPKvRj = comdat any

$_ZN11xercesc_2_524RefHashTableOfEnumeratorINS_15ComplexTypeInfoEED0Ev = comdat any

$_ZN11xercesc_2_514RefHashTableOfINS_15ComplexTypeInfoEE14findBucketElemEPKvRj = comdat any

$_ZN11xercesc_2_524RefHashTableOfEnumeratorINS_15XercesGroupInfoEED0Ev = comdat any

$_ZN11xercesc_2_514RefHashTableOfINS_15XercesGroupInfoEE14findBucketElemEPKvRj = comdat any

$_ZN11xercesc_2_524RefHashTableOfEnumeratorINS_18XercesAttGroupInfoEED0Ev = comdat any

$_ZN11xercesc_2_514RefHashTableOfINS_18XercesAttGroupInfoEE14findBucketElemEPKvRj = comdat any

$_ZN11xercesc_2_524RefHashTableOfEnumeratorINS_10XMLRefInfoEED0Ev = comdat any

$_ZN11xercesc_2_514RefHashTableOfINS_10XMLRefInfoEE14findBucketElemEPKvRj = comdat any

$_ZN11xercesc_2_524RefHashTableOfEnumeratorINS_17DatatypeValidatorEED0Ev = comdat any

$_ZN11xercesc_2_524RefHashTableOfEnumeratorINS_7GrammarEED0Ev = comdat any

$_ZN11xercesc_2_514RefHashTableOfINS_7GrammarEE14findBucketElemEPKvRj = comdat any

$_ZN11xercesc_2_529RefHash2KeysTableOfEnumeratorINS_13ValueVectorOfIPNS_17SchemaElementDeclEEEED0Ev = comdat any

$_ZN11xercesc_2_519RefHash2KeysTableOfINS_13ValueVectorOfIPNS_17SchemaElementDeclEEEE9removeAllEv = comdat any

$_ZN11xercesc_2_519RefHash2KeysTableOfINS_13ValueVectorOfIPNS_17SchemaElementDeclEEEE14findBucketElemEPKviRj = comdat any

$_ZTSN11xercesc_2_57XMemoryE = comdat any

$_ZTIN11xercesc_2_57XMemoryE = comdat any

$_ZTSN11xercesc_2_530ArrayIndexOutOfBoundsExceptionE = comdat any

$_ZTIN11xercesc_2_530ArrayIndexOutOfBoundsExceptionE = comdat any

$_ZTVN11xercesc_2_530ArrayIndexOutOfBoundsExceptionE = comdat any

$_ZTSN11xercesc_2_516RuntimeExceptionE = comdat any

$_ZTIN11xercesc_2_516RuntimeExceptionE = comdat any

$_ZTVN11xercesc_2_516RuntimeExceptionE = comdat any

$_ZTVN11xercesc_2_529RefHash2KeysTableOfEnumeratorINS_12SchemaAttDefEEE = comdat any

$_ZTSN11xercesc_2_529RefHash2KeysTableOfEnumeratorINS_12SchemaAttDefEEE = comdat any

$_ZTSN11xercesc_2_513XMLEnumeratorINS_12SchemaAttDefEEE = comdat any

$_ZTIN11xercesc_2_513XMLEnumeratorINS_12SchemaAttDefEEE = comdat any

$_ZTIN11xercesc_2_529RefHash2KeysTableOfEnumeratorINS_12SchemaAttDefEEE = comdat any

$_ZTSN11xercesc_2_522NoSuchElementExceptionE = comdat any

$_ZTIN11xercesc_2_522NoSuchElementExceptionE = comdat any

$_ZTVN11xercesc_2_522NoSuchElementExceptionE = comdat any

$_ZTVN11xercesc_2_528RefHash3KeysIdPoolEnumeratorINS_17SchemaElementDeclEEE = comdat any

$_ZTSN11xercesc_2_528RefHash3KeysIdPoolEnumeratorINS_17SchemaElementDeclEEE = comdat any

$_ZTSN11xercesc_2_513XMLEnumeratorINS_17SchemaElementDeclEEE = comdat any

$_ZTIN11xercesc_2_513XMLEnumeratorINS_17SchemaElementDeclEEE = comdat any

$_ZTIN11xercesc_2_528RefHash3KeysIdPoolEnumeratorINS_17SchemaElementDeclEEE = comdat any

$_ZTVN11xercesc_2_524RefHashTableOfEnumeratorINS_12KVStringPairEEE = comdat any

$_ZTSN11xercesc_2_524RefHashTableOfEnumeratorINS_12KVStringPairEEE = comdat any

$_ZTSN11xercesc_2_513XMLEnumeratorINS_12KVStringPairEEE = comdat any

$_ZTIN11xercesc_2_513XMLEnumeratorINS_12KVStringPairEEE = comdat any

$_ZTIN11xercesc_2_524RefHashTableOfEnumeratorINS_12KVStringPairEEE = comdat any

$_ZTVN11xercesc_2_524RefHashTableOfEnumeratorINS_9XMLAttDefEEE = comdat any

$_ZTSN11xercesc_2_524RefHashTableOfEnumeratorINS_9XMLAttDefEEE = comdat any

$_ZTSN11xercesc_2_513XMLEnumeratorINS_9XMLAttDefEEE = comdat any

$_ZTIN11xercesc_2_513XMLEnumeratorINS_9XMLAttDefEEE = comdat any

$_ZTIN11xercesc_2_524RefHashTableOfEnumeratorINS_9XMLAttDefEEE = comdat any

$_ZTVN11xercesc_2_524RefHashTableOfEnumeratorINS_9DTDAttDefEEE = comdat any

$_ZTSN11xercesc_2_524RefHashTableOfEnumeratorINS_9DTDAttDefEEE = comdat any

$_ZTSN11xercesc_2_513XMLEnumeratorINS_9DTDAttDefEEE = comdat any

$_ZTIN11xercesc_2_513XMLEnumeratorINS_9DTDAttDefEEE = comdat any

$_ZTIN11xercesc_2_524RefHashTableOfEnumeratorINS_9DTDAttDefEEE = comdat any

$_ZTVN11xercesc_2_524RefHashTableOfEnumeratorINS_15ComplexTypeInfoEEE = comdat any

$_ZTSN11xercesc_2_524RefHashTableOfEnumeratorINS_15ComplexTypeInfoEEE = comdat any

$_ZTSN11xercesc_2_513XMLEnumeratorINS_15ComplexTypeInfoEEE = comdat any

$_ZTIN11xercesc_2_513XMLEnumeratorINS_15ComplexTypeInfoEEE = comdat any

$_ZTIN11xercesc_2_524RefHashTableOfEnumeratorINS_15ComplexTypeInfoEEE = comdat any

$_ZTVN11xercesc_2_524RefHashTableOfEnumeratorINS_15XercesGroupInfoEEE = comdat any

$_ZTSN11xercesc_2_524RefHashTableOfEnumeratorINS_15XercesGroupInfoEEE = comdat any

$_ZTSN11xercesc_2_513XMLEnumeratorINS_15XercesGroupInfoEEE = comdat any

$_ZTIN11xercesc_2_513XMLEnumeratorINS_15XercesGroupInfoEEE = comdat any

$_ZTIN11xercesc_2_524RefHashTableOfEnumeratorINS_15XercesGroupInfoEEE = comdat any

$_ZTVN11xercesc_2_524RefHashTableOfEnumeratorINS_18XercesAttGroupInfoEEE = comdat any

$_ZTSN11xercesc_2_524RefHashTableOfEnumeratorINS_18XercesAttGroupInfoEEE = comdat any

$_ZTSN11xercesc_2_513XMLEnumeratorINS_18XercesAttGroupInfoEEE = comdat any

$_ZTIN11xercesc_2_513XMLEnumeratorINS_18XercesAttGroupInfoEEE = comdat any

$_ZTIN11xercesc_2_524RefHashTableOfEnumeratorINS_18XercesAttGroupInfoEEE = comdat any

$_ZTVN11xercesc_2_524RefHashTableOfEnumeratorINS_10XMLRefInfoEEE = comdat any

$_ZTSN11xercesc_2_524RefHashTableOfEnumeratorINS_10XMLRefInfoEEE = comdat any

$_ZTSN11xercesc_2_513XMLEnumeratorINS_10XMLRefInfoEEE = comdat any

$_ZTIN11xercesc_2_513XMLEnumeratorINS_10XMLRefInfoEEE = comdat any

$_ZTIN11xercesc_2_524RefHashTableOfEnumeratorINS_10XMLRefInfoEEE = comdat any

$_ZTVN11xercesc_2_524RefHashTableOfEnumeratorINS_17DatatypeValidatorEEE = comdat any

$_ZTSN11xercesc_2_524RefHashTableOfEnumeratorINS_17DatatypeValidatorEEE = comdat any

$_ZTSN11xercesc_2_513XMLEnumeratorINS_17DatatypeValidatorEEE = comdat any

$_ZTIN11xercesc_2_513XMLEnumeratorINS_17DatatypeValidatorEEE = comdat any

$_ZTIN11xercesc_2_524RefHashTableOfEnumeratorINS_17DatatypeValidatorEEE = comdat any

$_ZTVN11xercesc_2_524RefHashTableOfEnumeratorINS_7GrammarEEE = comdat any

$_ZTSN11xercesc_2_524RefHashTableOfEnumeratorINS_7GrammarEEE = comdat any

$_ZTSN11xercesc_2_513XMLEnumeratorINS_7GrammarEEE = comdat any

$_ZTIN11xercesc_2_513XMLEnumeratorINS_7GrammarEEE = comdat any

$_ZTIN11xercesc_2_524RefHashTableOfEnumeratorINS_7GrammarEEE = comdat any

$_ZTVN11xercesc_2_529RefHash2KeysTableOfEnumeratorINS_13ValueVectorOfIPNS_17SchemaElementDeclEEEEE = comdat any

$_ZTSN11xercesc_2_529RefHash2KeysTableOfEnumeratorINS_13ValueVectorOfIPNS_17SchemaElementDeclEEEEE = comdat any

$_ZTSN11xercesc_2_513XMLEnumeratorINS_13ValueVectorOfIPNS_17SchemaElementDeclEEEEE = comdat any

$_ZTIN11xercesc_2_513XMLEnumeratorINS_13ValueVectorOfIPNS_17SchemaElementDeclEEEEE = comdat any

$_ZTIN11xercesc_2_529RefHash2KeysTableOfEnumeratorINS_13ValueVectorOfIPNS_17SchemaElementDeclEEEEE = comdat any

@_ZTVN10__cxxabiv117__class_type_infoE = external global ptr
@_ZTVN10__cxxabiv121__vmi_class_type_infoE = external global ptr
@_ZTSN11xercesc_2_57XMemoryE = linkonce_odr dso_local constant [24 x i8] c"N11xercesc_2_57XMemoryE\00", comdat, align 1
@_ZTIN11xercesc_2_57XMemoryE = linkonce_odr dso_local constant { ptr, ptr } { ptr getelementptr inbounds (ptr, ptr @_ZTVN10__cxxabiv117__class_type_infoE, i64 2), ptr @_ZTSN11xercesc_2_57XMemoryE }, comdat, align 8
@_ZTVN10__cxxabiv120__si_class_type_infoE = external global ptr
@.str = private unnamed_addr constant [33 x i8] c"./xercesc/util/BaseRefVectorOf.c\00", align 1
@_ZTSN11xercesc_2_530ArrayIndexOutOfBoundsExceptionE = linkonce_odr dso_local constant [48 x i8] c"N11xercesc_2_530ArrayIndexOutOfBoundsExceptionE\00", comdat, align 1
@_ZTIN11xercesc_2_512XMLExceptionE = external constant ptr
@_ZTIN11xercesc_2_530ArrayIndexOutOfBoundsExceptionE = linkonce_odr dso_local constant { ptr, ptr, ptr } { ptr getelementptr inbounds (ptr, ptr @_ZTVN10__cxxabiv120__si_class_type_infoE, i64 2), ptr @_ZTSN11xercesc_2_530ArrayIndexOutOfBoundsExceptionE, ptr @_ZTIN11xercesc_2_512XMLExceptionE }, comdat, align 8
@_ZTVN11xercesc_2_530ArrayIndexOutOfBoundsExceptionE = linkonce_odr dso_local unnamed_addr constant { [6 x ptr] } { [6 x ptr] [ptr null, ptr @_ZTIN11xercesc_2_530ArrayIndexOutOfBoundsExceptionE, ptr @_ZN11xercesc_2_512XMLExceptionD2Ev, ptr @_ZN11xercesc_2_530ArrayIndexOutOfBoundsExceptionD0Ev, ptr @_ZNK11xercesc_2_530ArrayIndexOutOfBoundsException7getTypeEv, ptr @_ZNK11xercesc_2_530ArrayIndexOutOfBoundsException9duplicateEv] }, comdat, align 8, !type !0, !type !1, !type !2, !type !3, !type !4, !type !5
@_ZN11xercesc_2_56XMLUni37fgArrayIndexOutOfBoundsException_NameE = external constant [0 x i16], align 2
@.str.1 = private unnamed_addr constant [37 x i8] c"./xercesc/util/RefHash2KeysTableOf.c\00", align 1
@_ZTSN11xercesc_2_516RuntimeExceptionE = linkonce_odr dso_local constant [34 x i8] c"N11xercesc_2_516RuntimeExceptionE\00", comdat, align 1
@_ZTIN11xercesc_2_516RuntimeExceptionE = linkonce_odr dso_local constant { ptr, ptr, ptr } { ptr getelementptr inbounds (ptr, ptr @_ZTVN10__cxxabiv120__si_class_type_infoE, i64 2), ptr @_ZTSN11xercesc_2_516RuntimeExceptionE, ptr @_ZTIN11xercesc_2_512XMLExceptionE }, comdat, align 8
@_ZTVN11xercesc_2_516RuntimeExceptionE = linkonce_odr dso_local unnamed_addr constant { [6 x ptr] } { [6 x ptr] [ptr null, ptr @_ZTIN11xercesc_2_516RuntimeExceptionE, ptr @_ZN11xercesc_2_512XMLExceptionD2Ev, ptr @_ZN11xercesc_2_516RuntimeExceptionD0Ev, ptr @_ZNK11xercesc_2_516RuntimeException7getTypeEv, ptr @_ZNK11xercesc_2_516RuntimeException9duplicateEv] }, comdat, align 8, !type !0, !type !1, !type !2, !type !6, !type !7, !type !8
@_ZN11xercesc_2_56XMLUni23fgRuntimeException_NameE = external constant [0 x i16], align 2
@_ZTVN11xercesc_2_529RefHash2KeysTableOfEnumeratorINS_12SchemaAttDefEEE = linkonce_odr dso_local unnamed_addr constant { [7 x ptr] } { [7 x ptr] [ptr null, ptr @_ZTIN11xercesc_2_529RefHash2KeysTableOfEnumeratorINS_12SchemaAttDefEEE, ptr @_ZN11xercesc_2_529RefHash2KeysTableOfEnumeratorINS_12SchemaAttDefEED2Ev, ptr @_ZN11xercesc_2_529RefHash2KeysTableOfEnumeratorINS_12SchemaAttDefEED0Ev, ptr @_ZNK11xercesc_2_529RefHash2KeysTableOfEnumeratorINS_12SchemaAttDefEE15hasMoreElementsEv, ptr @_ZN11xercesc_2_529RefHash2KeysTableOfEnumeratorINS_12SchemaAttDefEE11nextElementEv, ptr @_ZN11xercesc_2_529RefHash2KeysTableOfEnumeratorINS_12SchemaAttDefEE5ResetEv] }, comdat, align 8, !type !9, !type !10, !type !11, !type !12, !type !13, !type !14, !type !15, !type !16
@_ZTSN11xercesc_2_529RefHash2KeysTableOfEnumeratorINS_12SchemaAttDefEEE = linkonce_odr dso_local constant [67 x i8] c"N11xercesc_2_529RefHash2KeysTableOfEnumeratorINS_12SchemaAttDefEEE\00", comdat, align 1
@_ZTSN11xercesc_2_513XMLEnumeratorINS_12SchemaAttDefEEE = linkonce_odr dso_local constant [51 x i8] c"N11xercesc_2_513XMLEnumeratorINS_12SchemaAttDefEEE\00", comdat, align 1
@_ZTIN11xercesc_2_513XMLEnumeratorINS_12SchemaAttDefEEE = linkonce_odr dso_local constant { ptr, ptr } { ptr getelementptr inbounds (ptr, ptr @_ZTVN10__cxxabiv117__class_type_infoE, i64 2), ptr @_ZTSN11xercesc_2_513XMLEnumeratorINS_12SchemaAttDefEEE }, comdat, align 8
@_ZTIN11xercesc_2_529RefHash2KeysTableOfEnumeratorINS_12SchemaAttDefEEE = linkonce_odr dso_local constant { ptr, ptr, i32, i32, ptr, i64, ptr, i64 } { ptr getelementptr inbounds (ptr, ptr @_ZTVN10__cxxabiv121__vmi_class_type_infoE, i64 2), ptr @_ZTSN11xercesc_2_529RefHash2KeysTableOfEnumeratorINS_12SchemaAttDefEEE, i32 0, i32 2, ptr @_ZTIN11xercesc_2_513XMLEnumeratorINS_12SchemaAttDefEEE, i64 2, ptr @_ZTIN11xercesc_2_57XMemoryE, i64 2 }, comdat, align 8
@_ZTSN11xercesc_2_522NoSuchElementExceptionE = linkonce_odr dso_local constant [40 x i8] c"N11xercesc_2_522NoSuchElementExceptionE\00", comdat, align 1
@_ZTIN11xercesc_2_522NoSuchElementExceptionE = linkonce_odr dso_local constant { ptr, ptr, ptr } { ptr getelementptr inbounds (ptr, ptr @_ZTVN10__cxxabiv120__si_class_type_infoE, i64 2), ptr @_ZTSN11xercesc_2_522NoSuchElementExceptionE, ptr @_ZTIN11xercesc_2_512XMLExceptionE }, comdat, align 8
@_ZTVN11xercesc_2_522NoSuchElementExceptionE = linkonce_odr dso_local unnamed_addr constant { [6 x ptr] } { [6 x ptr] [ptr null, ptr @_ZTIN11xercesc_2_522NoSuchElementExceptionE, ptr @_ZN11xercesc_2_512XMLExceptionD2Ev, ptr @_ZN11xercesc_2_522NoSuchElementExceptionD0Ev, ptr @_ZNK11xercesc_2_522NoSuchElementException7getTypeEv, ptr @_ZNK11xercesc_2_522NoSuchElementException9duplicateEv] }, comdat, align 8, !type !0, !type !1, !type !2, !type !17, !type !18, !type !19
@_ZN11xercesc_2_56XMLUni29fgNoSuchElementException_NameE = external constant [0 x i16], align 2
@.str.2 = private unnamed_addr constant [32 x i8] c"./xercesc/util/RefHashTableOf.c\00", align 1
@_ZTVN11xercesc_2_528RefHash3KeysIdPoolEnumeratorINS_17SchemaElementDeclEEE = linkonce_odr dso_local unnamed_addr constant { [7 x ptr] } { [7 x ptr] [ptr null, ptr @_ZTIN11xercesc_2_528RefHash3KeysIdPoolEnumeratorINS_17SchemaElementDeclEEE, ptr @_ZN11xercesc_2_528RefHash3KeysIdPoolEnumeratorINS_17SchemaElementDeclEED2Ev, ptr @_ZN11xercesc_2_528RefHash3KeysIdPoolEnumeratorINS_17SchemaElementDeclEED0Ev, ptr @_ZNK11xercesc_2_528RefHash3KeysIdPoolEnumeratorINS_17SchemaElementDeclEE15hasMoreElementsEv, ptr @_ZN11xercesc_2_528RefHash3KeysIdPoolEnumeratorINS_17SchemaElementDeclEE11nextElementEv, ptr @_ZN11xercesc_2_528RefHash3KeysIdPoolEnumeratorINS_17SchemaElementDeclEE5ResetEv] }, comdat, align 8, !type !20, !type !21, !type !22, !type !23, !type !24, !type !25, !type !26, !type !27
@.str.3 = private unnamed_addr constant [36 x i8] c"./xercesc/util/RefHash3KeysIdPool.c\00", align 1
@_ZTSN11xercesc_2_528RefHash3KeysIdPoolEnumeratorINS_17SchemaElementDeclEEE = linkonce_odr dso_local constant [71 x i8] c"N11xercesc_2_528RefHash3KeysIdPoolEnumeratorINS_17SchemaElementDeclEEE\00", comdat, align 1
@_ZTSN11xercesc_2_513XMLEnumeratorINS_17SchemaElementDeclEEE = linkonce_odr dso_local constant [56 x i8] c"N11xercesc_2_513XMLEnumeratorINS_17SchemaElementDeclEEE\00", comdat, align 1
@_ZTIN11xercesc_2_513XMLEnumeratorINS_17SchemaElementDeclEEE = linkonce_odr dso_local constant { ptr, ptr } { ptr getelementptr inbounds (ptr, ptr @_ZTVN10__cxxabiv117__class_type_infoE, i64 2), ptr @_ZTSN11xercesc_2_513XMLEnumeratorINS_17SchemaElementDeclEEE }, comdat, align 8
@_ZTIN11xercesc_2_528RefHash3KeysIdPoolEnumeratorINS_17SchemaElementDeclEEE = linkonce_odr dso_local constant { ptr, ptr, i32, i32, ptr, i64, ptr, i64 } { ptr getelementptr inbounds (ptr, ptr @_ZTVN10__cxxabiv121__vmi_class_type_infoE, i64 2), ptr @_ZTSN11xercesc_2_528RefHash3KeysIdPoolEnumeratorINS_17SchemaElementDeclEEE, i32 0, i32 2, ptr @_ZTIN11xercesc_2_513XMLEnumeratorINS_17SchemaElementDeclEEE, i64 2, ptr @_ZTIN11xercesc_2_57XMemoryE, i64 2 }, comdat, align 8
@.str.4 = private unnamed_addr constant [31 x i8] c"./xercesc/util/ValueVectorOf.c\00", align 1
@_ZTVN11xercesc_2_524RefHashTableOfEnumeratorINS_12KVStringPairEEE = linkonce_odr dso_local unnamed_addr constant { [7 x ptr] } { [7 x ptr] [ptr null, ptr @_ZTIN11xercesc_2_524RefHashTableOfEnumeratorINS_12KVStringPairEEE, ptr @_ZN11xercesc_2_524RefHashTableOfEnumeratorINS_12KVStringPairEED2Ev, ptr @_ZN11xercesc_2_524RefHashTableOfEnumeratorINS_12KVStringPairEED0Ev, ptr @_ZNK11xercesc_2_524RefHashTableOfEnumeratorINS_12KVStringPairEE15hasMoreElementsEv, ptr @_ZN11xercesc_2_524RefHashTableOfEnumeratorINS_12KVStringPairEE11nextElementEv, ptr @_ZN11xercesc_2_524RefHashTableOfEnumeratorINS_12KVStringPairEE5ResetEv] }, comdat, align 8, !type !28, !type !29, !type !30, !type !31, !type !32, !type !33, !type !34, !type !35
@_ZTSN11xercesc_2_524RefHashTableOfEnumeratorINS_12KVStringPairEEE = linkonce_odr dso_local constant [62 x i8] c"N11xercesc_2_524RefHashTableOfEnumeratorINS_12KVStringPairEEE\00", comdat, align 1
@_ZTSN11xercesc_2_513XMLEnumeratorINS_12KVStringPairEEE = linkonce_odr dso_local constant [51 x i8] c"N11xercesc_2_513XMLEnumeratorINS_12KVStringPairEEE\00", comdat, align 1
@_ZTIN11xercesc_2_513XMLEnumeratorINS_12KVStringPairEEE = linkonce_odr dso_local constant { ptr, ptr } { ptr getelementptr inbounds (ptr, ptr @_ZTVN10__cxxabiv117__class_type_infoE, i64 2), ptr @_ZTSN11xercesc_2_513XMLEnumeratorINS_12KVStringPairEEE }, comdat, align 8
@_ZTIN11xercesc_2_524RefHashTableOfEnumeratorINS_12KVStringPairEEE = linkonce_odr dso_local constant { ptr, ptr, i32, i32, ptr, i64, ptr, i64 } { ptr getelementptr inbounds (ptr, ptr @_ZTVN10__cxxabiv121__vmi_class_type_infoE, i64 2), ptr @_ZTSN11xercesc_2_524RefHashTableOfEnumeratorINS_12KVStringPairEEE, i32 0, i32 2, ptr @_ZTIN11xercesc_2_513XMLEnumeratorINS_12KVStringPairEEE, i64 2, ptr @_ZTIN11xercesc_2_57XMemoryE, i64 2 }, comdat, align 8
@_ZTVN11xercesc_2_524RefHashTableOfEnumeratorINS_9XMLAttDefEEE = linkonce_odr dso_local unnamed_addr constant { [7 x ptr] } { [7 x ptr] [ptr null, ptr @_ZTIN11xercesc_2_524RefHashTableOfEnumeratorINS_9XMLAttDefEEE, ptr @_ZN11xercesc_2_524RefHashTableOfEnumeratorINS_9XMLAttDefEED2Ev, ptr @_ZN11xercesc_2_524RefHashTableOfEnumeratorINS_9XMLAttDefEED0Ev, ptr @_ZNK11xercesc_2_524RefHashTableOfEnumeratorINS_9XMLAttDefEE15hasMoreElementsEv, ptr @_ZN11xercesc_2_524RefHashTableOfEnumeratorINS_9XMLAttDefEE11nextElementEv, ptr @_ZN11xercesc_2_524RefHashTableOfEnumeratorINS_9XMLAttDefEE5ResetEv] }, comdat, align 8, !type !36, !type !37, !type !38, !type !39, !type !40, !type !41, !type !42, !type !43
@_ZTSN11xercesc_2_524RefHashTableOfEnumeratorINS_9XMLAttDefEEE = linkonce_odr dso_local constant [58 x i8] c"N11xercesc_2_524RefHashTableOfEnumeratorINS_9XMLAttDefEEE\00", comdat, align 1
@_ZTSN11xercesc_2_513XMLEnumeratorINS_9XMLAttDefEEE = linkonce_odr dso_local constant [47 x i8] c"N11xercesc_2_513XMLEnumeratorINS_9XMLAttDefEEE\00", comdat, align 1
@_ZTIN11xercesc_2_513XMLEnumeratorINS_9XMLAttDefEEE = linkonce_odr dso_local constant { ptr, ptr } { ptr getelementptr inbounds (ptr, ptr @_ZTVN10__cxxabiv117__class_type_infoE, i64 2), ptr @_ZTSN11xercesc_2_513XMLEnumeratorINS_9XMLAttDefEEE }, comdat, align 8
@_ZTIN11xercesc_2_524RefHashTableOfEnumeratorINS_9XMLAttDefEEE = linkonce_odr dso_local constant { ptr, ptr, i32, i32, ptr, i64, ptr, i64 } { ptr getelementptr inbounds (ptr, ptr @_ZTVN10__cxxabiv121__vmi_class_type_infoE, i64 2), ptr @_ZTSN11xercesc_2_524RefHashTableOfEnumeratorINS_9XMLAttDefEEE, i32 0, i32 2, ptr @_ZTIN11xercesc_2_513XMLEnumeratorINS_9XMLAttDefEEE, i64 2, ptr @_ZTIN11xercesc_2_57XMemoryE, i64 2 }, comdat, align 8
@_ZTVN11xercesc_2_524RefHashTableOfEnumeratorINS_9DTDAttDefEEE = linkonce_odr dso_local unnamed_addr constant { [7 x ptr] } { [7 x ptr] [ptr null, ptr @_ZTIN11xercesc_2_524RefHashTableOfEnumeratorINS_9DTDAttDefEEE, ptr @_ZN11xercesc_2_524RefHashTableOfEnumeratorINS_9DTDAttDefEED2Ev, ptr @_ZN11xercesc_2_524RefHashTableOfEnumeratorINS_9DTDAttDefEED0Ev, ptr @_ZNK11xercesc_2_524RefHashTableOfEnumeratorINS_9DTDAttDefEE15hasMoreElementsEv, ptr @_ZN11xercesc_2_524RefHashTableOfEnumeratorINS_9DTDAttDefEE11nextElementEv, ptr @_ZN11xercesc_2_524RefHashTableOfEnumeratorINS_9DTDAttDefEE5ResetEv] }, comdat, align 8, !type !44, !type !45, !type !46, !type !47, !type !48, !type !49, !type !50, !type !51
@_ZTSN11xercesc_2_524RefHashTableOfEnumeratorINS_9DTDAttDefEEE = linkonce_odr dso_local constant [58 x i8] c"N11xercesc_2_524RefHashTableOfEnumeratorINS_9DTDAttDefEEE\00", comdat, align 1
@_ZTSN11xercesc_2_513XMLEnumeratorINS_9DTDAttDefEEE = linkonce_odr dso_local constant [47 x i8] c"N11xercesc_2_513XMLEnumeratorINS_9DTDAttDefEEE\00", comdat, align 1
@_ZTIN11xercesc_2_513XMLEnumeratorINS_9DTDAttDefEEE = linkonce_odr dso_local constant { ptr, ptr } { ptr getelementptr inbounds (ptr, ptr @_ZTVN10__cxxabiv117__class_type_infoE, i64 2), ptr @_ZTSN11xercesc_2_513XMLEnumeratorINS_9DTDAttDefEEE }, comdat, align 8
@_ZTIN11xercesc_2_524RefHashTableOfEnumeratorINS_9DTDAttDefEEE = linkonce_odr dso_local constant { ptr, ptr, i32, i32, ptr, i64, ptr, i64 } { ptr getelementptr inbounds (ptr, ptr @_ZTVN10__cxxabiv121__vmi_class_type_infoE, i64 2), ptr @_ZTSN11xercesc_2_524RefHashTableOfEnumeratorINS_9DTDAttDefEEE, i32 0, i32 2, ptr @_ZTIN11xercesc_2_513XMLEnumeratorINS_9DTDAttDefEEE, i64 2, ptr @_ZTIN11xercesc_2_57XMemoryE, i64 2 }, comdat, align 8
@_ZTVN11xercesc_2_524RefHashTableOfEnumeratorINS_15ComplexTypeInfoEEE = linkonce_odr dso_local unnamed_addr constant { [7 x ptr] } { [7 x ptr] [ptr null, ptr @_ZTIN11xercesc_2_524RefHashTableOfEnumeratorINS_15ComplexTypeInfoEEE, ptr @_ZN11xercesc_2_524RefHashTableOfEnumeratorINS_15ComplexTypeInfoEED2Ev, ptr @_ZN11xercesc_2_524RefHashTableOfEnumeratorINS_15ComplexTypeInfoEED0Ev, ptr @_ZNK11xercesc_2_524RefHashTableOfEnumeratorINS_15ComplexTypeInfoEE15hasMoreElementsEv, ptr @_ZN11xercesc_2_524RefHashTableOfEnumeratorINS_15ComplexTypeInfoEE11nextElementEv, ptr @_ZN11xercesc_2_524RefHashTableOfEnumeratorINS_15ComplexTypeInfoEE5ResetEv] }, comdat, align 8, !type !52, !type !53, !type !54, !type !55, !type !56, !type !57, !type !58, !type !59
@_ZTSN11xercesc_2_524RefHashTableOfEnumeratorINS_15ComplexTypeInfoEEE = linkonce_odr dso_local constant [65 x i8] c"N11xercesc_2_524RefHashTableOfEnumeratorINS_15ComplexTypeInfoEEE\00", comdat, align 1
@_ZTSN11xercesc_2_513XMLEnumeratorINS_15ComplexTypeInfoEEE = linkonce_odr dso_local constant [54 x i8] c"N11xercesc_2_513XMLEnumeratorINS_15ComplexTypeInfoEEE\00", comdat, align 1
@_ZTIN11xercesc_2_513XMLEnumeratorINS_15ComplexTypeInfoEEE = linkonce_odr dso_local constant { ptr, ptr } { ptr getelementptr inbounds (ptr, ptr @_ZTVN10__cxxabiv117__class_type_infoE, i64 2), ptr @_ZTSN11xercesc_2_513XMLEnumeratorINS_15ComplexTypeInfoEEE }, comdat, align 8
@_ZTIN11xercesc_2_524RefHashTableOfEnumeratorINS_15ComplexTypeInfoEEE = linkonce_odr dso_local constant { ptr, ptr, i32, i32, ptr, i64, ptr, i64 } { ptr getelementptr inbounds (ptr, ptr @_ZTVN10__cxxabiv121__vmi_class_type_infoE, i64 2), ptr @_ZTSN11xercesc_2_524RefHashTableOfEnumeratorINS_15ComplexTypeInfoEEE, i32 0, i32 2, ptr @_ZTIN11xercesc_2_513XMLEnumeratorINS_15ComplexTypeInfoEEE, i64 2, ptr @_ZTIN11xercesc_2_57XMemoryE, i64 2 }, comdat, align 8
@_ZTVN11xercesc_2_524RefHashTableOfEnumeratorINS_15XercesGroupInfoEEE = linkonce_odr dso_local unnamed_addr constant { [7 x ptr] } { [7 x ptr] [ptr null, ptr @_ZTIN11xercesc_2_524RefHashTableOfEnumeratorINS_15XercesGroupInfoEEE, ptr @_ZN11xercesc_2_524RefHashTableOfEnumeratorINS_15XercesGroupInfoEED2Ev, ptr @_ZN11xercesc_2_524RefHashTableOfEnumeratorINS_15XercesGroupInfoEED0Ev, ptr @_ZNK11xercesc_2_524RefHashTableOfEnumeratorINS_15XercesGroupInfoEE15hasMoreElementsEv, ptr @_ZN11xercesc_2_524RefHashTableOfEnumeratorINS_15XercesGroupInfoEE11nextElementEv, ptr @_ZN11xercesc_2_524RefHashTableOfEnumeratorINS_15XercesGroupInfoEE5ResetEv] }, comdat, align 8, !type !60, !type !61, !type !62, !type !63, !type !64, !type !65, !type !66, !type !67
@_ZTSN11xercesc_2_524RefHashTableOfEnumeratorINS_15XercesGroupInfoEEE = linkonce_odr dso_local constant [65 x i8] c"N11xercesc_2_524RefHashTableOfEnumeratorINS_15XercesGroupInfoEEE\00", comdat, align 1
@_ZTSN11xercesc_2_513XMLEnumeratorINS_15XercesGroupInfoEEE = linkonce_odr dso_local constant [54 x i8] c"N11xercesc_2_513XMLEnumeratorINS_15XercesGroupInfoEEE\00", comdat, align 1
@_ZTIN11xercesc_2_513XMLEnumeratorINS_15XercesGroupInfoEEE = linkonce_odr dso_local constant { ptr, ptr } { ptr getelementptr inbounds (ptr, ptr @_ZTVN10__cxxabiv117__class_type_infoE, i64 2), ptr @_ZTSN11xercesc_2_513XMLEnumeratorINS_15XercesGroupInfoEEE }, comdat, align 8
@_ZTIN11xercesc_2_524RefHashTableOfEnumeratorINS_15XercesGroupInfoEEE = linkonce_odr dso_local constant { ptr, ptr, i32, i32, ptr, i64, ptr, i64 } { ptr getelementptr inbounds (ptr, ptr @_ZTVN10__cxxabiv121__vmi_class_type_infoE, i64 2), ptr @_ZTSN11xercesc_2_524RefHashTableOfEnumeratorINS_15XercesGroupInfoEEE, i32 0, i32 2, ptr @_ZTIN11xercesc_2_513XMLEnumeratorINS_15XercesGroupInfoEEE, i64 2, ptr @_ZTIN11xercesc_2_57XMemoryE, i64 2 }, comdat, align 8
@_ZTVN11xercesc_2_524RefHashTableOfEnumeratorINS_18XercesAttGroupInfoEEE = linkonce_odr dso_local unnamed_addr constant { [7 x ptr] } { [7 x ptr] [ptr null, ptr @_ZTIN11xercesc_2_524RefHashTableOfEnumeratorINS_18XercesAttGroupInfoEEE, ptr @_ZN11xercesc_2_524RefHashTableOfEnumeratorINS_18XercesAttGroupInfoEED2Ev, ptr @_ZN11xercesc_2_524RefHashTableOfEnumeratorINS_18XercesAttGroupInfoEED0Ev, ptr @_ZNK11xercesc_2_524RefHashTableOfEnumeratorINS_18XercesAttGroupInfoEE15hasMoreElementsEv, ptr @_ZN11xercesc_2_524RefHashTableOfEnumeratorINS_18XercesAttGroupInfoEE11nextElementEv, ptr @_ZN11xercesc_2_524RefHashTableOfEnumeratorINS_18XercesAttGroupInfoEE5ResetEv] }, comdat, align 8, !type !68, !type !69, !type !70, !type !71, !type !72, !type !73, !type !74, !type !75
@_ZTSN11xercesc_2_524RefHashTableOfEnumeratorINS_18XercesAttGroupInfoEEE = linkonce_odr dso_local constant [68 x i8] c"N11xercesc_2_524RefHashTableOfEnumeratorINS_18XercesAttGroupInfoEEE\00", comdat, align 1
@_ZTSN11xercesc_2_513XMLEnumeratorINS_18XercesAttGroupInfoEEE = linkonce_odr dso_local constant [57 x i8] c"N11xercesc_2_513XMLEnumeratorINS_18XercesAttGroupInfoEEE\00", comdat, align 1
@_ZTIN11xercesc_2_513XMLEnumeratorINS_18XercesAttGroupInfoEEE = linkonce_odr dso_local constant { ptr, ptr } { ptr getelementptr inbounds (ptr, ptr @_ZTVN10__cxxabiv117__class_type_infoE, i64 2), ptr @_ZTSN11xercesc_2_513XMLEnumeratorINS_18XercesAttGroupInfoEEE }, comdat, align 8
@_ZTIN11xercesc_2_524RefHashTableOfEnumeratorINS_18XercesAttGroupInfoEEE = linkonce_odr dso_local constant { ptr, ptr, i32, i32, ptr, i64, ptr, i64 } { ptr getelementptr inbounds (ptr, ptr @_ZTVN10__cxxabiv121__vmi_class_type_infoE, i64 2), ptr @_ZTSN11xercesc_2_524RefHashTableOfEnumeratorINS_18XercesAttGroupInfoEEE, i32 0, i32 2, ptr @_ZTIN11xercesc_2_513XMLEnumeratorINS_18XercesAttGroupInfoEEE, i64 2, ptr @_ZTIN11xercesc_2_57XMemoryE, i64 2 }, comdat, align 8
@_ZTVN11xercesc_2_524RefHashTableOfEnumeratorINS_10XMLRefInfoEEE = linkonce_odr dso_local unnamed_addr constant { [7 x ptr] } { [7 x ptr] [ptr null, ptr @_ZTIN11xercesc_2_524RefHashTableOfEnumeratorINS_10XMLRefInfoEEE, ptr @_ZN11xercesc_2_524RefHashTableOfEnumeratorINS_10XMLRefInfoEED2Ev, ptr @_ZN11xercesc_2_524RefHashTableOfEnumeratorINS_10XMLRefInfoEED0Ev, ptr @_ZNK11xercesc_2_524RefHashTableOfEnumeratorINS_10XMLRefInfoEE15hasMoreElementsEv, ptr @_ZN11xercesc_2_524RefHashTableOfEnumeratorINS_10XMLRefInfoEE11nextElementEv, ptr @_ZN11xercesc_2_524RefHashTableOfEnumeratorINS_10XMLRefInfoEE5ResetEv] }, comdat, align 8, !type !76, !type !77, !type !78, !type !79, !type !80, !type !81, !type !82, !type !83
@_ZTSN11xercesc_2_524RefHashTableOfEnumeratorINS_10XMLRefInfoEEE = linkonce_odr dso_local constant [60 x i8] c"N11xercesc_2_524RefHashTableOfEnumeratorINS_10XMLRefInfoEEE\00", comdat, align 1
@_ZTSN11xercesc_2_513XMLEnumeratorINS_10XMLRefInfoEEE = linkonce_odr dso_local constant [49 x i8] c"N11xercesc_2_513XMLEnumeratorINS_10XMLRefInfoEEE\00", comdat, align 1
@_ZTIN11xercesc_2_513XMLEnumeratorINS_10XMLRefInfoEEE = linkonce_odr dso_local constant { ptr, ptr } { ptr getelementptr inbounds (ptr, ptr @_ZTVN10__cxxabiv117__class_type_infoE, i64 2), ptr @_ZTSN11xercesc_2_513XMLEnumeratorINS_10XMLRefInfoEEE }, comdat, align 8
@_ZTIN11xercesc_2_524RefHashTableOfEnumeratorINS_10XMLRefInfoEEE = linkonce_odr dso_local constant { ptr, ptr, i32, i32, ptr, i64, ptr, i64 } { ptr getelementptr inbounds (ptr, ptr @_ZTVN10__cxxabiv121__vmi_class_type_infoE, i64 2), ptr @_ZTSN11xercesc_2_524RefHashTableOfEnumeratorINS_10XMLRefInfoEEE, i32 0, i32 2, ptr @_ZTIN11xercesc_2_513XMLEnumeratorINS_10XMLRefInfoEEE, i64 2, ptr @_ZTIN11xercesc_2_57XMemoryE, i64 2 }, comdat, align 8
@_ZTVN11xercesc_2_524RefHashTableOfEnumeratorINS_17DatatypeValidatorEEE = linkonce_odr dso_local unnamed_addr constant { [7 x ptr] } { [7 x ptr] [ptr null, ptr @_ZTIN11xercesc_2_524RefHashTableOfEnumeratorINS_17DatatypeValidatorEEE, ptr @_ZN11xercesc_2_524RefHashTableOfEnumeratorINS_17DatatypeValidatorEED2Ev, ptr @_ZN11xercesc_2_524RefHashTableOfEnumeratorINS_17DatatypeValidatorEED0Ev, ptr @_ZNK11xercesc_2_524RefHashTableOfEnumeratorINS_17DatatypeValidatorEE15hasMoreElementsEv, ptr @_ZN11xercesc_2_524RefHashTableOfEnumeratorINS_17DatatypeValidatorEE11nextElementEv, ptr @_ZN11xercesc_2_524RefHashTableOfEnumeratorINS_17DatatypeValidatorEE5ResetEv] }, comdat, align 8, !type !84, !type !85, !type !86, !type !87, !type !88, !type !89, !type !90, !type !91
@_ZTSN11xercesc_2_524RefHashTableOfEnumeratorINS_17DatatypeValidatorEEE = linkonce_odr dso_local constant [67 x i8] c"N11xercesc_2_524RefHashTableOfEnumeratorINS_17DatatypeValidatorEEE\00", comdat, align 1
@_ZTSN11xercesc_2_513XMLEnumeratorINS_17DatatypeValidatorEEE = linkonce_odr dso_local constant [56 x i8] c"N11xercesc_2_513XMLEnumeratorINS_17DatatypeValidatorEEE\00", comdat, align 1
@_ZTIN11xercesc_2_513XMLEnumeratorINS_17DatatypeValidatorEEE = linkonce_odr dso_local constant { ptr, ptr } { ptr getelementptr inbounds (ptr, ptr @_ZTVN10__cxxabiv117__class_type_infoE, i64 2), ptr @_ZTSN11xercesc_2_513XMLEnumeratorINS_17DatatypeValidatorEEE }, comdat, align 8
@_ZTIN11xercesc_2_524RefHashTableOfEnumeratorINS_17DatatypeValidatorEEE = linkonce_odr dso_local constant { ptr, ptr, i32, i32, ptr, i64, ptr, i64 } { ptr getelementptr inbounds (ptr, ptr @_ZTVN10__cxxabiv121__vmi_class_type_infoE, i64 2), ptr @_ZTSN11xercesc_2_524RefHashTableOfEnumeratorINS_17DatatypeValidatorEEE, i32 0, i32 2, ptr @_ZTIN11xercesc_2_513XMLEnumeratorINS_17DatatypeValidatorEEE, i64 2, ptr @_ZTIN11xercesc_2_57XMemoryE, i64 2 }, comdat, align 8
@_ZTVN11xercesc_2_524RefHashTableOfEnumeratorINS_7GrammarEEE = linkonce_odr dso_local unnamed_addr constant { [7 x ptr] } { [7 x ptr] [ptr null, ptr @_ZTIN11xercesc_2_524RefHashTableOfEnumeratorINS_7GrammarEEE, ptr @_ZN11xercesc_2_524RefHashTableOfEnumeratorINS_7GrammarEED2Ev, ptr @_ZN11xercesc_2_524RefHashTableOfEnumeratorINS_7GrammarEED0Ev, ptr @_ZNK11xercesc_2_524RefHashTableOfEnumeratorINS_7GrammarEE15hasMoreElementsEv, ptr @_ZN11xercesc_2_524RefHashTableOfEnumeratorINS_7GrammarEE11nextElementEv, ptr @_ZN11xercesc_2_524RefHashTableOfEnumeratorINS_7GrammarEE5ResetEv] }, comdat, align 8, !type !92, !type !93, !type !94, !type !95, !type !96, !type !97, !type !98, !type !99
@_ZTSN11xercesc_2_524RefHashTableOfEnumeratorINS_7GrammarEEE = linkonce_odr dso_local constant [56 x i8] c"N11xercesc_2_524RefHashTableOfEnumeratorINS_7GrammarEEE\00", comdat, align 1
@_ZTSN11xercesc_2_513XMLEnumeratorINS_7GrammarEEE = linkonce_odr dso_local constant [45 x i8] c"N11xercesc_2_513XMLEnumeratorINS_7GrammarEEE\00", comdat, align 1
@_ZTIN11xercesc_2_513XMLEnumeratorINS_7GrammarEEE = linkonce_odr dso_local constant { ptr, ptr } { ptr getelementptr inbounds (ptr, ptr @_ZTVN10__cxxabiv117__class_type_infoE, i64 2), ptr @_ZTSN11xercesc_2_513XMLEnumeratorINS_7GrammarEEE }, comdat, align 8
@_ZTIN11xercesc_2_524RefHashTableOfEnumeratorINS_7GrammarEEE = linkonce_odr dso_local constant { ptr, ptr, i32, i32, ptr, i64, ptr, i64 } { ptr getelementptr inbounds (ptr, ptr @_ZTVN10__cxxabiv121__vmi_class_type_infoE, i64 2), ptr @_ZTSN11xercesc_2_524RefHashTableOfEnumeratorINS_7GrammarEEE, i32 0, i32 2, ptr @_ZTIN11xercesc_2_513XMLEnumeratorINS_7GrammarEEE, i64 2, ptr @_ZTIN11xercesc_2_57XMemoryE, i64 2 }, comdat, align 8
@_ZTVN11xercesc_2_529RefHash2KeysTableOfEnumeratorINS_13ValueVectorOfIPNS_17SchemaElementDeclEEEEE = linkonce_odr dso_local unnamed_addr constant { [7 x ptr] } { [7 x ptr] [ptr null, ptr @_ZTIN11xercesc_2_529RefHash2KeysTableOfEnumeratorINS_13ValueVectorOfIPNS_17SchemaElementDeclEEEEE, ptr @_ZN11xercesc_2_529RefHash2KeysTableOfEnumeratorINS_13ValueVectorOfIPNS_17SchemaElementDeclEEEED2Ev, ptr @_ZN11xercesc_2_529RefHash2KeysTableOfEnumeratorINS_13ValueVectorOfIPNS_17SchemaElementDeclEEEED0Ev, ptr @_ZNK11xercesc_2_529RefHash2KeysTableOfEnumeratorINS_13ValueVectorOfIPNS_17SchemaElementDeclEEEE15hasMoreElementsEv, ptr @_ZN11xercesc_2_529RefHash2KeysTableOfEnumeratorINS_13ValueVectorOfIPNS_17SchemaElementDeclEEEE11nextElementEv, ptr @_ZN11xercesc_2_529RefHash2KeysTableOfEnumeratorINS_13ValueVectorOfIPNS_17SchemaElementDeclEEEE5ResetEv] }, comdat, align 8, !type !100, !type !101, !type !102, !type !103, !type !104, !type !105, !type !106, !type !107
@_ZTSN11xercesc_2_529RefHash2KeysTableOfEnumeratorINS_13ValueVectorOfIPNS_17SchemaElementDeclEEEEE = linkonce_odr dso_local constant [94 x i8] c"N11xercesc_2_529RefHash2KeysTableOfEnumeratorINS_13ValueVectorOfIPNS_17SchemaElementDeclEEEEE\00", comdat, align 1
@_ZTSN11xercesc_2_513XMLEnumeratorINS_13ValueVectorOfIPNS_17SchemaElementDeclEEEEE = linkonce_odr dso_local constant [78 x i8] c"N11xercesc_2_513XMLEnumeratorINS_13ValueVectorOfIPNS_17SchemaElementDeclEEEEE\00", comdat, align 1
@_ZTIN11xercesc_2_513XMLEnumeratorINS_13ValueVectorOfIPNS_17SchemaElementDeclEEEEE = linkonce_odr dso_local constant { ptr, ptr } { ptr getelementptr inbounds (ptr, ptr @_ZTVN10__cxxabiv117__class_type_infoE, i64 2), ptr @_ZTSN11xercesc_2_513XMLEnumeratorINS_13ValueVectorOfIPNS_17SchemaElementDeclEEEEE }, comdat, align 8
@_ZTIN11xercesc_2_529RefHash2KeysTableOfEnumeratorINS_13ValueVectorOfIPNS_17SchemaElementDeclEEEEE = linkonce_odr dso_local constant { ptr, ptr, i32, i32, ptr, i64, ptr, i64 } { ptr getelementptr inbounds (ptr, ptr @_ZTVN10__cxxabiv121__vmi_class_type_infoE, i64 2), ptr @_ZTSN11xercesc_2_529RefHash2KeysTableOfEnumeratorINS_13ValueVectorOfIPNS_17SchemaElementDeclEEEEE, i32 0, i32 2, ptr @_ZTIN11xercesc_2_513XMLEnumeratorINS_13ValueVectorOfIPNS_17SchemaElementDeclEEEEE, i64 2, ptr @_ZTIN11xercesc_2_57XMemoryE, i64 2 }, comdat, align 8
@.str.5 = private unnamed_addr constant [28 x i8] c"./xercesc/util/NameIdPool.c\00", align 1

declare i32 @__gxx_personality_v0(...)

; Function Attrs: noinline noreturn nounwind uwtable
define linkonce_odr hidden void @__clang_call_terminate(ptr noundef %0) local_unnamed_addr #0 comdat {
  %2 = tail call ptr @__cxa_begin_catch(ptr %0) #6
  tail call void @_ZSt9terminatev() #7
  unreachable
}

declare ptr @__cxa_begin_catch(ptr) local_unnamed_addr

declare void @_ZSt9terminatev() local_unnamed_addr

declare void @_ZN11xercesc_2_57XMemorydlEPv(ptr noundef) local_unnamed_addr #1

; Function Attrs: uwtable
define dso_local noundef zeroext i1 @_ZN11xercesc_2_519XTemplateComparator12isEquivalentEPNS_13ValueVectorOfIPNS_17SchemaElementDeclEEES5_(ptr noundef readonly %0, ptr noundef readonly %1) local_unnamed_addr #2 align 2 personality ptr @__gxx_personality_v0 {
  %3 = icmp eq ptr %0, %1
  br i1 %3, label %60, label %4

4:                                                ; preds = %2
  %5 = icmp ne ptr %0, null
  %6 = icmp ne ptr %1, null
  %7 = xor i1 %5, %6
  br i1 %7, label %60, label %8

8:                                                ; preds = %4
  %9 = getelementptr inbounds %"class.xercesc_2_5::ValueVectorOf.0", ptr %0, i64 0, i32 1
  %10 = load i32, ptr %9, align 4, !tbaa !115
  %11 = getelementptr inbounds %"class.xercesc_2_5::ValueVectorOf.0", ptr %1, i64 0, i32 1
  %12 = load i32, ptr %11, align 4, !tbaa !115
  %13 = icmp eq i32 %10, %12
  br i1 %13, label %14, label %60

14:                                               ; preds = %8
  %15 = icmp slt i32 %10, 1
  br i1 %15, label %60, label %16

16:                                               ; preds = %14
  %17 = getelementptr inbounds %"class.xercesc_2_5::ValueVectorOf.0", ptr %0, i64 0, i32 3
  %18 = getelementptr inbounds %"class.xercesc_2_5::ValueVectorOf.0", ptr %1, i64 0, i32 3
  %19 = zext i32 %10 to i64
  %20 = zext i32 %10 to i64
  br label %25

21:                                               ; preds = %52
  %22 = add nuw nsw i64 %26, 1
  %23 = icmp uge i64 %22, %19
  %24 = icmp eq i64 %22, %20
  br i1 %24, label %60, label %25

25:                                               ; preds = %16, %21
  %26 = phi i64 [ 0, %16 ], [ %22, %21 ]
  %27 = phi i1 [ false, %16 ], [ %23, %21 ]
  %28 = load i32, ptr %9, align 4, !tbaa !115
  %29 = zext i32 %28 to i64
  %30 = icmp ult i64 %26, %29
  br i1 %30, label %41, label %31

31:                                               ; preds = %25
  %32 = tail call ptr @__cxa_allocate_exception(i64 48) #6
  %33 = getelementptr inbounds %"class.xercesc_2_5::ValueVectorOf.0", ptr %0, i64 0, i32 4
  %34 = load ptr, ptr %33, align 8, !tbaa !122
  invoke void @_ZN11xercesc_2_530ArrayIndexOutOfBoundsExceptionC2EPKcjNS_10XMLExcepts5CodesEPNS_13MemoryManagerE(ptr noundef nonnull align 8 dereferenceable(48) %32, ptr noundef nonnull @.str.4, i32 noundef 293, i32 noundef 109, ptr noundef %34)
          to label %35 unwind label %39

35:                                               ; preds = %31
  tail call void @__cxa_throw(ptr nonnull %32, ptr nonnull @_ZTIN11xercesc_2_530ArrayIndexOutOfBoundsExceptionE, ptr nonnull @_ZN11xercesc_2_512XMLExceptionD2Ev) #8
  unreachable

36:                                               ; preds = %50, %39
  %37 = phi ptr [ %46, %50 ], [ %32, %39 ]
  %38 = phi { ptr, i32 } [ %51, %50 ], [ %40, %39 ]
  tail call void @__cxa_free_exception(ptr %37) #6
  resume { ptr, i32 } %38

39:                                               ; preds = %31
  %40 = landingpad { ptr, i32 }
          cleanup
  br label %36

41:                                               ; preds = %25
  %42 = load i32, ptr %11, align 4, !tbaa !115
  %43 = zext i32 %42 to i64
  %44 = icmp ult i64 %26, %43
  br i1 %44, label %52, label %45

45:                                               ; preds = %41
  %46 = tail call ptr @__cxa_allocate_exception(i64 48) #6
  %47 = getelementptr inbounds %"class.xercesc_2_5::ValueVectorOf.0", ptr %1, i64 0, i32 4
  %48 = load ptr, ptr %47, align 8, !tbaa !122
  invoke void @_ZN11xercesc_2_530ArrayIndexOutOfBoundsExceptionC2EPKcjNS_10XMLExcepts5CodesEPNS_13MemoryManagerE(ptr noundef nonnull align 8 dereferenceable(48) %46, ptr noundef nonnull @.str.4, i32 noundef 293, i32 noundef 109, ptr noundef %48)
          to label %49 unwind label %50

49:                                               ; preds = %45
  tail call void @__cxa_throw(ptr nonnull %46, ptr nonnull @_ZTIN11xercesc_2_530ArrayIndexOutOfBoundsExceptionE, ptr nonnull @_ZN11xercesc_2_512XMLExceptionD2Ev) #8
  unreachable

50:                                               ; preds = %45
  %51 = landingpad { ptr, i32 }
          cleanup
  br label %36

52:                                               ; preds = %41
  %53 = load ptr, ptr %17, align 8, !tbaa !123
  %54 = getelementptr inbounds ptr, ptr %53, i64 %26
  %55 = load ptr, ptr %18, align 8, !tbaa !123
  %56 = getelementptr inbounds ptr, ptr %55, i64 %26
  %57 = load ptr, ptr %54, align 8, !tbaa !124
  %58 = load ptr, ptr %56, align 8, !tbaa !124
  %59 = tail call noundef zeroext i1 @_ZN11xercesc_2_517XObjectComparator12isEquivalentEPNS_17SchemaElementDeclES2_(ptr noundef %57, ptr noundef %58)
  br i1 %59, label %21, label %60

60:                                               ; preds = %21, %52, %14, %8, %4, %2
  %61 = phi i1 [ true, %2 ], [ false, %4 ], [ false, %8 ], [ true, %14 ], [ %23, %21 ], [ %27, %52 ]
  ret i1 %61
}

; Function Attrs: mustprogress nocallback nofree nosync nounwind willreturn memory(argmem: readwrite)
declare void @llvm.lifetime.start.p0(i64 immarg, ptr nocapture) #3

declare noundef zeroext i1 @_ZN11xercesc_2_517XObjectComparator12isEquivalentEPNS_17SchemaElementDeclES2_(ptr noundef, ptr noundef) local_unnamed_addr #1

; Function Attrs: mustprogress nocallback nofree nosync nounwind willreturn memory(argmem: readwrite)
declare void @llvm.lifetime.end.p0(i64 immarg, ptr nocapture) #3

; Function Attrs: nofree norecurse nosync nounwind memory(read, inaccessiblemem: none) uwtable
define dso_local noundef zeroext i1 @_ZN11xercesc_2_519XTemplateComparator12isEquivalentEPNS_13ValueVectorOfIjEES3_(ptr noundef readonly %0, ptr noundef readonly %1) local_unnamed_addr #4 align 2 personality ptr @__gxx_personality_v0 {
  %3 = icmp eq ptr %0, %1
  br i1 %3, label %38, label %4

4:                                                ; preds = %2
  %5 = icmp ne ptr %0, null
  %6 = icmp ne ptr %1, null
  %7 = xor i1 %5, %6
  br i1 %7, label %38, label %8

8:                                                ; preds = %4
  %9 = getelementptr inbounds %"class.xercesc_2_5::ValueVectorOf.1", ptr %0, i64 0, i32 1
  %10 = load i32, ptr %9, align 4, !tbaa !125
  %11 = getelementptr inbounds %"class.xercesc_2_5::ValueVectorOf.1", ptr %1, i64 0, i32 1
  %12 = load i32, ptr %11, align 4, !tbaa !125
  %13 = icmp eq i32 %10, %12
  br i1 %13, label %14, label %38

14:                                               ; preds = %8
  %15 = icmp slt i32 %10, 1
  br i1 %15, label %38, label %16

16:                                               ; preds = %14
  %17 = getelementptr inbounds %"class.xercesc_2_5::ValueVectorOf.1", ptr %0, i64 0, i32 3
  %18 = getelementptr inbounds %"class.xercesc_2_5::ValueVectorOf.1", ptr %1, i64 0, i32 3
  %19 = zext i32 %10 to i64
  %20 = zext i32 %10 to i64
  %21 = load ptr, ptr %17, align 8, !tbaa !127
  %22 = load ptr, ptr %18, align 8, !tbaa !127
  %23 = load i32, ptr %21, align 4, !tbaa !128
  %24 = load i32, ptr %22, align 4, !tbaa !128
  %25 = icmp eq i32 %23, %24
  br i1 %25, label %26, label %38

26:                                               ; preds = %16, %30
  %27 = phi i64 [ %28, %30 ], [ 0, %16 ]
  %28 = add nuw nsw i64 %27, 1
  %29 = icmp eq i64 %28, %20
  br i1 %29, label %36, label %30

30:                                               ; preds = %26
  %31 = getelementptr inbounds i32, ptr %21, i64 %28
  %32 = getelementptr inbounds i32, ptr %22, i64 %28
  %33 = load i32, ptr %31, align 4, !tbaa !128
  %34 = load i32, ptr %32, align 4, !tbaa !128
  %35 = icmp eq i32 %33, %34
  br i1 %35, label %26, label %36

36:                                               ; preds = %26, %30
  %37 = icmp uge i64 %28, %19
  br label %38

38:                                               ; preds = %36, %16, %14, %8, %4, %2
  %39 = phi i1 [ true, %2 ], [ false, %4 ], [ false, %8 ], [ true, %14 ], [ false, %16 ], [ %37, %36 ]
  ret i1 %39
}

; Function Attrs: nofree norecurse nosync nounwind memory(read, inaccessiblemem: none) uwtable
define dso_local noundef zeroext i1 @_ZN11xercesc_2_519XTemplateComparator12isEquivalentEPNS_16RefArrayVectorOfItEES3_(ptr noundef readonly %0, ptr noundef readonly %1) local_unnamed_addr #4 align 2 personality ptr @__gxx_personality_v0 {
  %3 = icmp eq ptr %0, %1
  br i1 %3, label %60, label %4

4:                                                ; preds = %2
  %5 = icmp ne ptr %0, null
  %6 = icmp ne ptr %1, null
  %7 = xor i1 %5, %6
  br i1 %7, label %60, label %8

8:                                                ; preds = %4
  %9 = getelementptr inbounds %"class.xercesc_2_5::BaseRefVectorOf", ptr %0, i64 0, i32 2
  %10 = load i32, ptr %9, align 4, !tbaa !129
  %11 = getelementptr inbounds %"class.xercesc_2_5::BaseRefVectorOf", ptr %1, i64 0, i32 2
  %12 = load i32, ptr %11, align 4, !tbaa !129
  %13 = icmp eq i32 %10, %12
  br i1 %13, label %14, label %60

14:                                               ; preds = %8
  %15 = icmp slt i32 %10, 1
  br i1 %15, label %60, label %16

16:                                               ; preds = %14
  %17 = getelementptr inbounds %"class.xercesc_2_5::BaseRefVectorOf", ptr %0, i64 0, i32 4
  %18 = getelementptr inbounds %"class.xercesc_2_5::BaseRefVectorOf", ptr %1, i64 0, i32 4
  %19 = zext i32 %10 to i64
  %20 = zext i32 %10 to i64
  %21 = load ptr, ptr %17, align 8, !tbaa !131
  %22 = load ptr, ptr %18, align 8, !tbaa !131
  br label %23

23:                                               ; preds = %56, %16
  %24 = phi i64 [ 0, %16 ], [ %57, %56 ]
  %25 = phi i1 [ false, %16 ], [ %58, %56 ]
  %26 = getelementptr inbounds ptr, ptr %21, i64 %24
  %27 = load ptr, ptr %26, align 8, !tbaa !124
  %28 = getelementptr inbounds ptr, ptr %22, i64 %24
  %29 = load ptr, ptr %28, align 8, !tbaa !124
  %30 = icmp eq ptr %27, null
  %31 = icmp eq ptr %29, null
  %32 = or i1 %30, %31
  br i1 %32, label %37, label %33

33:                                               ; preds = %23
  %34 = load i16, ptr %27, align 2, !tbaa !132
  %35 = load i16, ptr %29, align 2, !tbaa !132
  %36 = icmp eq i16 %34, %35
  br i1 %36, label %45, label %60

37:                                               ; preds = %23
  br i1 %30, label %41, label %38

38:                                               ; preds = %37
  %39 = load i16, ptr %27, align 2, !tbaa !132
  %40 = icmp eq i16 %39, 0
  br i1 %40, label %41, label %60

41:                                               ; preds = %38, %37
  br i1 %31, label %56, label %42

42:                                               ; preds = %41
  %43 = load i16, ptr %29, align 2, !tbaa !132
  %44 = icmp eq i16 %43, 0
  br i1 %44, label %56, label %60

45:                                               ; preds = %33, %50
  %46 = phi i16 [ %53, %50 ], [ %34, %33 ]
  %47 = phi ptr [ %52, %50 ], [ %29, %33 ]
  %48 = phi ptr [ %51, %50 ], [ %27, %33 ]
  %49 = icmp eq i16 %46, 0
  br i1 %49, label %56, label %50

50:                                               ; preds = %45
  %51 = getelementptr inbounds i16, ptr %48, i64 1
  %52 = getelementptr inbounds i16, ptr %47, i64 1
  %53 = load i16, ptr %51, align 2, !tbaa !132
  %54 = load i16, ptr %52, align 2, !tbaa !132
  %55 = icmp eq i16 %53, %54
  br i1 %55, label %45, label %60

56:                                               ; preds = %45, %41, %42
  %57 = add nuw nsw i64 %24, 1
  %58 = icmp uge i64 %57, %19
  %59 = icmp eq i64 %57, %20
  br i1 %59, label %60, label %23

60:                                               ; preds = %33, %38, %42, %56, %50, %14, %8, %4, %2
  %61 = phi i1 [ true, %2 ], [ false, %4 ], [ false, %8 ], [ true, %14 ], [ %25, %50 ], [ %25, %33 ], [ %25, %38 ], [ %25, %42 ], [ %58, %56 ]
  ret i1 %61
}

; Function Attrs: uwtable
define dso_local noundef zeroext i1 @_ZN11xercesc_2_519XTemplateComparator12isEquivalentEPNS_11RefVectorOfINS_12SchemaAttDefEEES4_(ptr noundef readonly %0, ptr noundef readonly %1) local_unnamed_addr #2 align 2 personality ptr @__gxx_personality_v0 {
  %3 = icmp eq ptr %0, %1
  br i1 %3, label %60, label %4

4:                                                ; preds = %2
  %5 = icmp ne ptr %0, null
  %6 = icmp ne ptr %1, null
  %7 = xor i1 %5, %6
  br i1 %7, label %60, label %8

8:                                                ; preds = %4
  %9 = getelementptr inbounds %"class.xercesc_2_5::BaseRefVectorOf.2", ptr %0, i64 0, i32 2
  %10 = load i32, ptr %9, align 4, !tbaa !134
  %11 = getelementptr inbounds %"class.xercesc_2_5::BaseRefVectorOf.2", ptr %1, i64 0, i32 2
  %12 = load i32, ptr %11, align 4, !tbaa !134
  %13 = icmp eq i32 %10, %12
  br i1 %13, label %14, label %60

14:                                               ; preds = %8
  %15 = icmp slt i32 %10, 1
  br i1 %15, label %60, label %16

16:                                               ; preds = %14
  %17 = getelementptr inbounds %"class.xercesc_2_5::BaseRefVectorOf.2", ptr %0, i64 0, i32 4
  %18 = getelementptr inbounds %"class.xercesc_2_5::BaseRefVectorOf.2", ptr %1, i64 0, i32 4
  %19 = zext i32 %10 to i64
  %20 = zext i32 %10 to i64
  br label %25

21:                                               ; preds = %52
  %22 = add nuw nsw i64 %26, 1
  %23 = icmp uge i64 %22, %19
  %24 = icmp eq i64 %22, %20
  br i1 %24, label %60, label %25

25:                                               ; preds = %16, %21
  %26 = phi i64 [ 0, %16 ], [ %22, %21 ]
  %27 = phi i1 [ false, %16 ], [ %23, %21 ]
  %28 = load i32, ptr %9, align 4, !tbaa !134
  %29 = zext i32 %28 to i64
  %30 = icmp ult i64 %26, %29
  br i1 %30, label %41, label %31

31:                                               ; preds = %25
  %32 = tail call ptr @__cxa_allocate_exception(i64 48) #6
  %33 = getelementptr inbounds %"class.xercesc_2_5::BaseRefVectorOf.2", ptr %0, i64 0, i32 5
  %34 = load ptr, ptr %33, align 8, !tbaa !136
  invoke void @_ZN11xercesc_2_530ArrayIndexOutOfBoundsExceptionC2EPKcjNS_10XMLExcepts5CodesEPNS_13MemoryManagerE(ptr noundef nonnull align 8 dereferenceable(48) %32, ptr noundef nonnull @.str, i32 noundef 289, i32 noundef 109, ptr noundef %34)
          to label %35 unwind label %39

35:                                               ; preds = %31
  tail call void @__cxa_throw(ptr nonnull %32, ptr nonnull @_ZTIN11xercesc_2_530ArrayIndexOutOfBoundsExceptionE, ptr nonnull @_ZN11xercesc_2_512XMLExceptionD2Ev) #8
  unreachable

36:                                               ; preds = %50, %39
  %37 = phi ptr [ %46, %50 ], [ %32, %39 ]
  %38 = phi { ptr, i32 } [ %51, %50 ], [ %40, %39 ]
  tail call void @__cxa_free_exception(ptr %37) #6
  resume { ptr, i32 } %38

39:                                               ; preds = %31
  %40 = landingpad { ptr, i32 }
          cleanup
  br label %36

41:                                               ; preds = %25
  %42 = load i32, ptr %11, align 4, !tbaa !134
  %43 = zext i32 %42 to i64
  %44 = icmp ult i64 %26, %43
  br i1 %44, label %52, label %45

45:                                               ; preds = %41
  %46 = tail call ptr @__cxa_allocate_exception(i64 48) #6
  %47 = getelementptr inbounds %"class.xercesc_2_5::BaseRefVectorOf.2", ptr %1, i64 0, i32 5
  %48 = load ptr, ptr %47, align 8, !tbaa !136
  invoke void @_ZN11xercesc_2_530ArrayIndexOutOfBoundsExceptionC2EPKcjNS_10XMLExcepts5CodesEPNS_13MemoryManagerE(ptr noundef nonnull align 8 dereferenceable(48) %46, ptr noundef nonnull @.str, i32 noundef 289, i32 noundef 109, ptr noundef %48)
          to label %49 unwind label %50

49:                                               ; preds = %45
  tail call void @__cxa_throw(ptr nonnull %46, ptr nonnull @_ZTIN11xercesc_2_530ArrayIndexOutOfBoundsExceptionE, ptr nonnull @_ZN11xercesc_2_512XMLExceptionD2Ev) #8
  unreachable

50:                                               ; preds = %45
  %51 = landingpad { ptr, i32 }
          cleanup
  br label %36

52:                                               ; preds = %41
  %53 = load ptr, ptr %17, align 8, !tbaa !137
  %54 = getelementptr inbounds ptr, ptr %53, i64 %26
  %55 = load ptr, ptr %54, align 8, !tbaa !124
  %56 = load ptr, ptr %18, align 8, !tbaa !137
  %57 = getelementptr inbounds ptr, ptr %56, i64 %26
  %58 = load ptr, ptr %57, align 8, !tbaa !124
  %59 = tail call noundef zeroext i1 @_ZN11xercesc_2_517XObjectComparator12isEquivalentEPNS_12SchemaAttDefES2_(ptr noundef %55, ptr noundef %58)
  br i1 %59, label %21, label %60

60:                                               ; preds = %21, %52, %14, %8, %4, %2
  %61 = phi i1 [ true, %2 ], [ false, %4 ], [ false, %8 ], [ true, %14 ], [ %23, %21 ], [ %27, %52 ]
  ret i1 %61
}

declare noundef zeroext i1 @_ZN11xercesc_2_517XObjectComparator12isEquivalentEPNS_12SchemaAttDefES2_(ptr noundef, ptr noundef) local_unnamed_addr #1

; Function Attrs: uwtable
define dso_local noundef zeroext i1 @_ZN11xercesc_2_519XTemplateComparator12isEquivalentEPNS_11RefVectorOfINS_17SchemaElementDeclEEES4_(ptr noundef readonly %0, ptr noundef readonly %1) local_unnamed_addr #2 align 2 personality ptr @__gxx_personality_v0 {
  %3 = icmp eq ptr %0, %1
  br i1 %3, label %60, label %4

4:                                                ; preds = %2
  %5 = icmp ne ptr %0, null
  %6 = icmp ne ptr %1, null
  %7 = xor i1 %5, %6
  br i1 %7, label %60, label %8

8:                                                ; preds = %4
  %9 = getelementptr inbounds %"class.xercesc_2_5::BaseRefVectorOf.4", ptr %0, i64 0, i32 2
  %10 = load i32, ptr %9, align 4, !tbaa !138
  %11 = getelementptr inbounds %"class.xercesc_2_5::BaseRefVectorOf.4", ptr %1, i64 0, i32 2
  %12 = load i32, ptr %11, align 4, !tbaa !138
  %13 = icmp eq i32 %10, %12
  br i1 %13, label %14, label %60

14:                                               ; preds = %8
  %15 = icmp slt i32 %10, 1
  br i1 %15, label %60, label %16

16:                                               ; preds = %14
  %17 = getelementptr inbounds %"class.xercesc_2_5::BaseRefVectorOf.4", ptr %0, i64 0, i32 4
  %18 = getelementptr inbounds %"class.xercesc_2_5::BaseRefVectorOf.4", ptr %1, i64 0, i32 4
  %19 = zext i32 %10 to i64
  %20 = zext i32 %10 to i64
  br label %25

21:                                               ; preds = %52
  %22 = add nuw nsw i64 %26, 1
  %23 = icmp uge i64 %22, %19
  %24 = icmp eq i64 %22, %20
  br i1 %24, label %60, label %25

25:                                               ; preds = %16, %21
  %26 = phi i64 [ 0, %16 ], [ %22, %21 ]
  %27 = phi i1 [ false, %16 ], [ %23, %21 ]
  %28 = load i32, ptr %9, align 4, !tbaa !138
  %29 = zext i32 %28 to i64
  %30 = icmp ult i64 %26, %29
  br i1 %30, label %41, label %31

31:                                               ; preds = %25
  %32 = tail call ptr @__cxa_allocate_exception(i64 48) #6
  %33 = getelementptr inbounds %"class.xercesc_2_5::BaseRefVectorOf.4", ptr %0, i64 0, i32 5
  %34 = load ptr, ptr %33, align 8, !tbaa !140
  invoke void @_ZN11xercesc_2_530ArrayIndexOutOfBoundsExceptionC2EPKcjNS_10XMLExcepts5CodesEPNS_13MemoryManagerE(ptr noundef nonnull align 8 dereferenceable(48) %32, ptr noundef nonnull @.str, i32 noundef 289, i32 noundef 109, ptr noundef %34)
          to label %35 unwind label %39

35:                                               ; preds = %31
  tail call void @__cxa_throw(ptr nonnull %32, ptr nonnull @_ZTIN11xercesc_2_530ArrayIndexOutOfBoundsExceptionE, ptr nonnull @_ZN11xercesc_2_512XMLExceptionD2Ev) #8
  unreachable

36:                                               ; preds = %50, %39
  %37 = phi ptr [ %46, %50 ], [ %32, %39 ]
  %38 = phi { ptr, i32 } [ %51, %50 ], [ %40, %39 ]
  tail call void @__cxa_free_exception(ptr %37) #6
  resume { ptr, i32 } %38

39:                                               ; preds = %31
  %40 = landingpad { ptr, i32 }
          cleanup
  br label %36

41:                                               ; preds = %25
  %42 = load i32, ptr %11, align 4, !tbaa !138
  %43 = zext i32 %42 to i64
  %44 = icmp ult i64 %26, %43
  br i1 %44, label %52, label %45

45:                                               ; preds = %41
  %46 = tail call ptr @__cxa_allocate_exception(i64 48) #6
  %47 = getelementptr inbounds %"class.xercesc_2_5::BaseRefVectorOf.4", ptr %1, i64 0, i32 5
  %48 = load ptr, ptr %47, align 8, !tbaa !140
  invoke void @_ZN11xercesc_2_530ArrayIndexOutOfBoundsExceptionC2EPKcjNS_10XMLExcepts5CodesEPNS_13MemoryManagerE(ptr noundef nonnull align 8 dereferenceable(48) %46, ptr noundef nonnull @.str, i32 noundef 289, i32 noundef 109, ptr noundef %48)
          to label %49 unwind label %50

49:                                               ; preds = %45
  tail call void @__cxa_throw(ptr nonnull %46, ptr nonnull @_ZTIN11xercesc_2_530ArrayIndexOutOfBoundsExceptionE, ptr nonnull @_ZN11xercesc_2_512XMLExceptionD2Ev) #8
  unreachable

50:                                               ; preds = %45
  %51 = landingpad { ptr, i32 }
          cleanup
  br label %36

52:                                               ; preds = %41
  %53 = load ptr, ptr %17, align 8, !tbaa !141
  %54 = getelementptr inbounds ptr, ptr %53, i64 %26
  %55 = load ptr, ptr %54, align 8, !tbaa !124
  %56 = load ptr, ptr %18, align 8, !tbaa !141
  %57 = getelementptr inbounds ptr, ptr %56, i64 %26
  %58 = load ptr, ptr %57, align 8, !tbaa !124
  %59 = tail call noundef zeroext i1 @_ZN11xercesc_2_517XObjectComparator12isEquivalentEPNS_17SchemaElementDeclES2_(ptr noundef %55, ptr noundef %58)
  br i1 %59, label %21, label %60

60:                                               ; preds = %21, %52, %14, %8, %4, %2
  %61 = phi i1 [ true, %2 ], [ false, %4 ], [ false, %8 ], [ true, %14 ], [ %23, %21 ], [ %27, %52 ]
  ret i1 %61
}

; Function Attrs: uwtable
define dso_local noundef zeroext i1 @_ZN11xercesc_2_519XTemplateComparator12isEquivalentEPNS_11RefVectorOfINS_15ContentSpecNodeEEES4_(ptr noundef readonly %0, ptr noundef readonly %1) local_unnamed_addr #2 align 2 personality ptr @__gxx_personality_v0 {
  %3 = icmp eq ptr %0, %1
  br i1 %3, label %60, label %4

4:                                                ; preds = %2
  %5 = icmp ne ptr %0, null
  %6 = icmp ne ptr %1, null
  %7 = xor i1 %5, %6
  br i1 %7, label %60, label %8

8:                                                ; preds = %4
  %9 = getelementptr inbounds %"class.xercesc_2_5::BaseRefVectorOf.6", ptr %0, i64 0, i32 2
  %10 = load i32, ptr %9, align 4, !tbaa !142
  %11 = getelementptr inbounds %"class.xercesc_2_5::BaseRefVectorOf.6", ptr %1, i64 0, i32 2
  %12 = load i32, ptr %11, align 4, !tbaa !142
  %13 = icmp eq i32 %10, %12
  br i1 %13, label %14, label %60

14:                                               ; preds = %8
  %15 = icmp slt i32 %10, 1
  br i1 %15, label %60, label %16

16:                                               ; preds = %14
  %17 = getelementptr inbounds %"class.xercesc_2_5::BaseRefVectorOf.6", ptr %0, i64 0, i32 4
  %18 = getelementptr inbounds %"class.xercesc_2_5::BaseRefVectorOf.6", ptr %1, i64 0, i32 4
  %19 = zext i32 %10 to i64
  %20 = zext i32 %10 to i64
  br label %25

21:                                               ; preds = %52
  %22 = add nuw nsw i64 %26, 1
  %23 = icmp uge i64 %22, %19
  %24 = icmp eq i64 %22, %20
  br i1 %24, label %60, label %25

25:                                               ; preds = %16, %21
  %26 = phi i64 [ 0, %16 ], [ %22, %21 ]
  %27 = phi i1 [ false, %16 ], [ %23, %21 ]
  %28 = load i32, ptr %9, align 4, !tbaa !142
  %29 = zext i32 %28 to i64
  %30 = icmp ult i64 %26, %29
  br i1 %30, label %41, label %31

31:                                               ; preds = %25
  %32 = tail call ptr @__cxa_allocate_exception(i64 48) #6
  %33 = getelementptr inbounds %"class.xercesc_2_5::BaseRefVectorOf.6", ptr %0, i64 0, i32 5
  %34 = load ptr, ptr %33, align 8, !tbaa !144
  invoke void @_ZN11xercesc_2_530ArrayIndexOutOfBoundsExceptionC2EPKcjNS_10XMLExcepts5CodesEPNS_13MemoryManagerE(ptr noundef nonnull align 8 dereferenceable(48) %32, ptr noundef nonnull @.str, i32 noundef 289, i32 noundef 109, ptr noundef %34)
          to label %35 unwind label %39

35:                                               ; preds = %31
  tail call void @__cxa_throw(ptr nonnull %32, ptr nonnull @_ZTIN11xercesc_2_530ArrayIndexOutOfBoundsExceptionE, ptr nonnull @_ZN11xercesc_2_512XMLExceptionD2Ev) #8
  unreachable

36:                                               ; preds = %50, %39
  %37 = phi ptr [ %46, %50 ], [ %32, %39 ]
  %38 = phi { ptr, i32 } [ %51, %50 ], [ %40, %39 ]
  tail call void @__cxa_free_exception(ptr %37) #6
  resume { ptr, i32 } %38

39:                                               ; preds = %31
  %40 = landingpad { ptr, i32 }
          cleanup
  br label %36

41:                                               ; preds = %25
  %42 = load i32, ptr %11, align 4, !tbaa !142
  %43 = zext i32 %42 to i64
  %44 = icmp ult i64 %26, %43
  br i1 %44, label %52, label %45

45:                                               ; preds = %41
  %46 = tail call ptr @__cxa_allocate_exception(i64 48) #6
  %47 = getelementptr inbounds %"class.xercesc_2_5::BaseRefVectorOf.6", ptr %1, i64 0, i32 5
  %48 = load ptr, ptr %47, align 8, !tbaa !144
  invoke void @_ZN11xercesc_2_530ArrayIndexOutOfBoundsExceptionC2EPKcjNS_10XMLExcepts5CodesEPNS_13MemoryManagerE(ptr noundef nonnull align 8 dereferenceable(48) %46, ptr noundef nonnull @.str, i32 noundef 289, i32 noundef 109, ptr noundef %48)
          to label %49 unwind label %50

49:                                               ; preds = %45
  tail call void @__cxa_throw(ptr nonnull %46, ptr nonnull @_ZTIN11xercesc_2_530ArrayIndexOutOfBoundsExceptionE, ptr nonnull @_ZN11xercesc_2_512XMLExceptionD2Ev) #8
  unreachable

50:                                               ; preds = %45
  %51 = landingpad { ptr, i32 }
          cleanup
  br label %36

52:                                               ; preds = %41
  %53 = load ptr, ptr %17, align 8, !tbaa !145
  %54 = getelementptr inbounds ptr, ptr %53, i64 %26
  %55 = load ptr, ptr %54, align 8, !tbaa !124
  %56 = load ptr, ptr %18, align 8, !tbaa !145
  %57 = getelementptr inbounds ptr, ptr %56, i64 %26
  %58 = load ptr, ptr %57, align 8, !tbaa !124
  %59 = tail call noundef zeroext i1 @_ZN11xercesc_2_517XObjectComparator12isEquivalentEPNS_15ContentSpecNodeES2_(ptr noundef %55, ptr noundef %58)
  br i1 %59, label %21, label %60

60:                                               ; preds = %21, %52, %14, %8, %4, %2
  %61 = phi i1 [ true, %2 ], [ false, %4 ], [ false, %8 ], [ true, %14 ], [ %23, %21 ], [ %27, %52 ]
  ret i1 %61
}

declare noundef zeroext i1 @_ZN11xercesc_2_517XObjectComparator12isEquivalentEPNS_15ContentSpecNodeES2_(ptr noundef, ptr noundef) local_unnamed_addr #1

; Function Attrs: uwtable
define dso_local noundef zeroext i1 @_ZN11xercesc_2_519XTemplateComparator12isEquivalentEPNS_11RefVectorOfINS_8IC_FieldEEES4_(ptr noundef readonly %0, ptr noundef readonly %1) local_unnamed_addr #2 align 2 personality ptr @__gxx_personality_v0 {
  %3 = icmp eq ptr %0, %1
  br i1 %3, label %60, label %4

4:                                                ; preds = %2
  %5 = icmp ne ptr %0, null
  %6 = icmp ne ptr %1, null
  %7 = xor i1 %5, %6
  br i1 %7, label %60, label %8

8:                                                ; preds = %4
  %9 = getelementptr inbounds %"class.xercesc_2_5::BaseRefVectorOf.8", ptr %0, i64 0, i32 2
  %10 = load i32, ptr %9, align 4, !tbaa !146
  %11 = getelementptr inbounds %"class.xercesc_2_5::BaseRefVectorOf.8", ptr %1, i64 0, i32 2
  %12 = load i32, ptr %11, align 4, !tbaa !146
  %13 = icmp eq i32 %10, %12
  br i1 %13, label %14, label %60

14:                                               ; preds = %8
  %15 = icmp slt i32 %10, 1
  br i1 %15, label %60, label %16

16:                                               ; preds = %14
  %17 = getelementptr inbounds %"class.xercesc_2_5::BaseRefVectorOf.8", ptr %0, i64 0, i32 4
  %18 = getelementptr inbounds %"class.xercesc_2_5::BaseRefVectorOf.8", ptr %1, i64 0, i32 4
  %19 = zext i32 %10 to i64
  %20 = zext i32 %10 to i64
  br label %25

21:                                               ; preds = %52
  %22 = add nuw nsw i64 %26, 1
  %23 = icmp uge i64 %22, %19
  %24 = icmp eq i64 %22, %20
  br i1 %24, label %60, label %25

25:                                               ; preds = %16, %21
  %26 = phi i64 [ 0, %16 ], [ %22, %21 ]
  %27 = phi i1 [ false, %16 ], [ %23, %21 ]
  %28 = load i32, ptr %9, align 4, !tbaa !146
  %29 = zext i32 %28 to i64
  %30 = icmp ult i64 %26, %29
  br i1 %30, label %41, label %31

31:                                               ; preds = %25
  %32 = tail call ptr @__cxa_allocate_exception(i64 48) #6
  %33 = getelementptr inbounds %"class.xercesc_2_5::BaseRefVectorOf.8", ptr %0, i64 0, i32 5
  %34 = load ptr, ptr %33, align 8, !tbaa !148
  invoke void @_ZN11xercesc_2_530ArrayIndexOutOfBoundsExceptionC2EPKcjNS_10XMLExcepts5CodesEPNS_13MemoryManagerE(ptr noundef nonnull align 8 dereferenceable(48) %32, ptr noundef nonnull @.str, i32 noundef 289, i32 noundef 109, ptr noundef %34)
          to label %35 unwind label %39

35:                                               ; preds = %31
  tail call void @__cxa_throw(ptr nonnull %32, ptr nonnull @_ZTIN11xercesc_2_530ArrayIndexOutOfBoundsExceptionE, ptr nonnull @_ZN11xercesc_2_512XMLExceptionD2Ev) #8
  unreachable

36:                                               ; preds = %50, %39
  %37 = phi ptr [ %46, %50 ], [ %32, %39 ]
  %38 = phi { ptr, i32 } [ %51, %50 ], [ %40, %39 ]
  tail call void @__cxa_free_exception(ptr %37) #6
  resume { ptr, i32 } %38

39:                                               ; preds = %31
  %40 = landingpad { ptr, i32 }
          cleanup
  br label %36

41:                                               ; preds = %25
  %42 = load i32, ptr %11, align 4, !tbaa !146
  %43 = zext i32 %42 to i64
  %44 = icmp ult i64 %26, %43
  br i1 %44, label %52, label %45

45:                                               ; preds = %41
  %46 = tail call ptr @__cxa_allocate_exception(i64 48) #6
  %47 = getelementptr inbounds %"class.xercesc_2_5::BaseRefVectorOf.8", ptr %1, i64 0, i32 5
  %48 = load ptr, ptr %47, align 8, !tbaa !148
  invoke void @_ZN11xercesc_2_530ArrayIndexOutOfBoundsExceptionC2EPKcjNS_10XMLExcepts5CodesEPNS_13MemoryManagerE(ptr noundef nonnull align 8 dereferenceable(48) %46, ptr noundef nonnull @.str, i32 noundef 289, i32 noundef 109, ptr noundef %48)
          to label %49 unwind label %50

49:                                               ; preds = %45
  tail call void @__cxa_throw(ptr nonnull %46, ptr nonnull @_ZTIN11xercesc_2_530ArrayIndexOutOfBoundsExceptionE, ptr nonnull @_ZN11xercesc_2_512XMLExceptionD2Ev) #8
  unreachable

50:                                               ; preds = %45
  %51 = landingpad { ptr, i32 }
          cleanup
  br label %36

52:                                               ; preds = %41
  %53 = load ptr, ptr %17, align 8, !tbaa !149
  %54 = getelementptr inbounds ptr, ptr %53, i64 %26
  %55 = load ptr, ptr %54, align 8, !tbaa !124
  %56 = load ptr, ptr %18, align 8, !tbaa !149
  %57 = getelementptr inbounds ptr, ptr %56, i64 %26
  %58 = load ptr, ptr %57, align 8, !tbaa !124
  %59 = tail call noundef zeroext i1 @_ZN11xercesc_2_517XObjectComparator12isEquivalentEPNS_8IC_FieldES2_(ptr noundef %55, ptr noundef %58)
  br i1 %59, label %21, label %60

60:                                               ; preds = %21, %52, %14, %8, %4, %2
  %61 = phi i1 [ true, %2 ], [ false, %4 ], [ false, %8 ], [ true, %14 ], [ %23, %21 ], [ %27, %52 ]
  ret i1 %61
}

declare noundef zeroext i1 @_ZN11xercesc_2_517XObjectComparator12isEquivalentEPNS_8IC_FieldES2_(ptr noundef, ptr noundef) local_unnamed_addr #1

; Function Attrs: uwtable
define dso_local noundef zeroext i1 @_ZN11xercesc_2_519XTemplateComparator12isEquivalentEPNS_11RefVectorOfINS_17DatatypeValidatorEEES4_(ptr noundef readonly %0, ptr noundef readonly %1) local_unnamed_addr #2 align 2 personality ptr @__gxx_personality_v0 {
  %3 = icmp eq ptr %0, %1
  br i1 %3, label %60, label %4

4:                                                ; preds = %2
  %5 = icmp ne ptr %0, null
  %6 = icmp ne ptr %1, null
  %7 = xor i1 %5, %6
  br i1 %7, label %60, label %8

8:                                                ; preds = %4
  %9 = getelementptr inbounds %"class.xercesc_2_5::BaseRefVectorOf.10", ptr %0, i64 0, i32 2
  %10 = load i32, ptr %9, align 4, !tbaa !150
  %11 = getelementptr inbounds %"class.xercesc_2_5::BaseRefVectorOf.10", ptr %1, i64 0, i32 2
  %12 = load i32, ptr %11, align 4, !tbaa !150
  %13 = icmp eq i32 %10, %12
  br i1 %13, label %14, label %60

14:                                               ; preds = %8
  %15 = icmp slt i32 %10, 1
  br i1 %15, label %60, label %16

16:                                               ; preds = %14
  %17 = getelementptr inbounds %"class.xercesc_2_5::BaseRefVectorOf.10", ptr %0, i64 0, i32 4
  %18 = getelementptr inbounds %"class.xercesc_2_5::BaseRefVectorOf.10", ptr %1, i64 0, i32 4
  %19 = zext i32 %10 to i64
  %20 = zext i32 %10 to i64
  br label %25

21:                                               ; preds = %52
  %22 = add nuw nsw i64 %26, 1
  %23 = icmp uge i64 %22, %19
  %24 = icmp eq i64 %22, %20
  br i1 %24, label %60, label %25

25:                                               ; preds = %16, %21
  %26 = phi i64 [ 0, %16 ], [ %22, %21 ]
  %27 = phi i1 [ false, %16 ], [ %23, %21 ]
  %28 = load i32, ptr %9, align 4, !tbaa !150
  %29 = zext i32 %28 to i64
  %30 = icmp ult i64 %26, %29
  br i1 %30, label %41, label %31

31:                                               ; preds = %25
  %32 = tail call ptr @__cxa_allocate_exception(i64 48) #6
  %33 = getelementptr inbounds %"class.xercesc_2_5::BaseRefVectorOf.10", ptr %0, i64 0, i32 5
  %34 = load ptr, ptr %33, align 8, !tbaa !152
  invoke void @_ZN11xercesc_2_530ArrayIndexOutOfBoundsExceptionC2EPKcjNS_10XMLExcepts5CodesEPNS_13MemoryManagerE(ptr noundef nonnull align 8 dereferenceable(48) %32, ptr noundef nonnull @.str, i32 noundef 289, i32 noundef 109, ptr noundef %34)
          to label %35 unwind label %39

35:                                               ; preds = %31
  tail call void @__cxa_throw(ptr nonnull %32, ptr nonnull @_ZTIN11xercesc_2_530ArrayIndexOutOfBoundsExceptionE, ptr nonnull @_ZN11xercesc_2_512XMLExceptionD2Ev) #8
  unreachable

36:                                               ; preds = %50, %39
  %37 = phi ptr [ %46, %50 ], [ %32, %39 ]
  %38 = phi { ptr, i32 } [ %51, %50 ], [ %40, %39 ]
  tail call void @__cxa_free_exception(ptr %37) #6
  resume { ptr, i32 } %38

39:                                               ; preds = %31
  %40 = landingpad { ptr, i32 }
          cleanup
  br label %36

41:                                               ; preds = %25
  %42 = load i32, ptr %11, align 4, !tbaa !150
  %43 = zext i32 %42 to i64
  %44 = icmp ult i64 %26, %43
  br i1 %44, label %52, label %45

45:                                               ; preds = %41
  %46 = tail call ptr @__cxa_allocate_exception(i64 48) #6
  %47 = getelementptr inbounds %"class.xercesc_2_5::BaseRefVectorOf.10", ptr %1, i64 0, i32 5
  %48 = load ptr, ptr %47, align 8, !tbaa !152
  invoke void @_ZN11xercesc_2_530ArrayIndexOutOfBoundsExceptionC2EPKcjNS_10XMLExcepts5CodesEPNS_13MemoryManagerE(ptr noundef nonnull align 8 dereferenceable(48) %46, ptr noundef nonnull @.str, i32 noundef 289, i32 noundef 109, ptr noundef %48)
          to label %49 unwind label %50

49:                                               ; preds = %45
  tail call void @__cxa_throw(ptr nonnull %46, ptr nonnull @_ZTIN11xercesc_2_530ArrayIndexOutOfBoundsExceptionE, ptr nonnull @_ZN11xercesc_2_512XMLExceptionD2Ev) #8
  unreachable

50:                                               ; preds = %45
  %51 = landingpad { ptr, i32 }
          cleanup
  br label %36

52:                                               ; preds = %41
  %53 = load ptr, ptr %17, align 8, !tbaa !153
  %54 = getelementptr inbounds ptr, ptr %53, i64 %26
  %55 = load ptr, ptr %54, align 8, !tbaa !124
  %56 = load ptr, ptr %18, align 8, !tbaa !153
  %57 = getelementptr inbounds ptr, ptr %56, i64 %26
  %58 = load ptr, ptr %57, align 8, !tbaa !124
  %59 = tail call noundef zeroext i1 @_ZN11xercesc_2_517XObjectComparator12isEquivalentEPNS_17DatatypeValidatorES2_(ptr noundef %55, ptr noundef %58)
  br i1 %59, label %21, label %60

60:                                               ; preds = %21, %52, %14, %8, %4, %2
  %61 = phi i1 [ true, %2 ], [ false, %4 ], [ false, %8 ], [ true, %14 ], [ %23, %21 ], [ %27, %52 ]
  ret i1 %61
}

declare noundef zeroext i1 @_ZN11xercesc_2_517XObjectComparator12isEquivalentEPNS_17DatatypeValidatorES2_(ptr noundef, ptr noundef) local_unnamed_addr #1

; Function Attrs: uwtable
define dso_local noundef zeroext i1 @_ZN11xercesc_2_519XTemplateComparator12isEquivalentEPNS_11RefVectorOfINS_18IdentityConstraintEEES4_(ptr noundef readonly %0, ptr noundef readonly %1) local_unnamed_addr #2 align 2 personality ptr @__gxx_personality_v0 {
  %3 = icmp eq ptr %0, %1
  br i1 %3, label %60, label %4

4:                                                ; preds = %2
  %5 = icmp ne ptr %0, null
  %6 = icmp ne ptr %1, null
  %7 = xor i1 %5, %6
  br i1 %7, label %60, label %8

8:                                                ; preds = %4
  %9 = getelementptr inbounds %"class.xercesc_2_5::BaseRefVectorOf.12", ptr %0, i64 0, i32 2
  %10 = load i32, ptr %9, align 4, !tbaa !154
  %11 = getelementptr inbounds %"class.xercesc_2_5::BaseRefVectorOf.12", ptr %1, i64 0, i32 2
  %12 = load i32, ptr %11, align 4, !tbaa !154
  %13 = icmp eq i32 %10, %12
  br i1 %13, label %14, label %60

14:                                               ; preds = %8
  %15 = icmp slt i32 %10, 1
  br i1 %15, label %60, label %16

16:                                               ; preds = %14
  %17 = getelementptr inbounds %"class.xercesc_2_5::BaseRefVectorOf.12", ptr %0, i64 0, i32 4
  %18 = getelementptr inbounds %"class.xercesc_2_5::BaseRefVectorOf.12", ptr %1, i64 0, i32 4
  %19 = zext i32 %10 to i64
  %20 = zext i32 %10 to i64
  br label %25

21:                                               ; preds = %52
  %22 = add nuw nsw i64 %26, 1
  %23 = icmp uge i64 %22, %19
  %24 = icmp eq i64 %22, %20
  br i1 %24, label %60, label %25

25:                                               ; preds = %16, %21
  %26 = phi i64 [ 0, %16 ], [ %22, %21 ]
  %27 = phi i1 [ false, %16 ], [ %23, %21 ]
  %28 = load i32, ptr %9, align 4, !tbaa !154
  %29 = zext i32 %28 to i64
  %30 = icmp ult i64 %26, %29
  br i1 %30, label %41, label %31

31:                                               ; preds = %25
  %32 = tail call ptr @__cxa_allocate_exception(i64 48) #6
  %33 = getelementptr inbounds %"class.xercesc_2_5::BaseRefVectorOf.12", ptr %0, i64 0, i32 5
  %34 = load ptr, ptr %33, align 8, !tbaa !156
  invoke void @_ZN11xercesc_2_530ArrayIndexOutOfBoundsExceptionC2EPKcjNS_10XMLExcepts5CodesEPNS_13MemoryManagerE(ptr noundef nonnull align 8 dereferenceable(48) %32, ptr noundef nonnull @.str, i32 noundef 289, i32 noundef 109, ptr noundef %34)
          to label %35 unwind label %39

35:                                               ; preds = %31
  tail call void @__cxa_throw(ptr nonnull %32, ptr nonnull @_ZTIN11xercesc_2_530ArrayIndexOutOfBoundsExceptionE, ptr nonnull @_ZN11xercesc_2_512XMLExceptionD2Ev) #8
  unreachable

36:                                               ; preds = %50, %39
  %37 = phi ptr [ %46, %50 ], [ %32, %39 ]
  %38 = phi { ptr, i32 } [ %51, %50 ], [ %40, %39 ]
  tail call void @__cxa_free_exception(ptr %37) #6
  resume { ptr, i32 } %38

39:                                               ; preds = %31
  %40 = landingpad { ptr, i32 }
          cleanup
  br label %36

41:                                               ; preds = %25
  %42 = load i32, ptr %11, align 4, !tbaa !154
  %43 = zext i32 %42 to i64
  %44 = icmp ult i64 %26, %43
  br i1 %44, label %52, label %45

45:                                               ; preds = %41
  %46 = tail call ptr @__cxa_allocate_exception(i64 48) #6
  %47 = getelementptr inbounds %"class.xercesc_2_5::BaseRefVectorOf.12", ptr %1, i64 0, i32 5
  %48 = load ptr, ptr %47, align 8, !tbaa !156
  invoke void @_ZN11xercesc_2_530ArrayIndexOutOfBoundsExceptionC2EPKcjNS_10XMLExcepts5CodesEPNS_13MemoryManagerE(ptr noundef nonnull align 8 dereferenceable(48) %46, ptr noundef nonnull @.str, i32 noundef 289, i32 noundef 109, ptr noundef %48)
          to label %49 unwind label %50

49:                                               ; preds = %45
  tail call void @__cxa_throw(ptr nonnull %46, ptr nonnull @_ZTIN11xercesc_2_530ArrayIndexOutOfBoundsExceptionE, ptr nonnull @_ZN11xercesc_2_512XMLExceptionD2Ev) #8
  unreachable

50:                                               ; preds = %45
  %51 = landingpad { ptr, i32 }
          cleanup
  br label %36

52:                                               ; preds = %41
  %53 = load ptr, ptr %17, align 8, !tbaa !157
  %54 = getelementptr inbounds ptr, ptr %53, i64 %26
  %55 = load ptr, ptr %54, align 8, !tbaa !124
  %56 = load ptr, ptr %18, align 8, !tbaa !157
  %57 = getelementptr inbounds ptr, ptr %56, i64 %26
  %58 = load ptr, ptr %57, align 8, !tbaa !124
  %59 = tail call noundef zeroext i1 @_ZN11xercesc_2_517XObjectComparator12isEquivalentEPNS_18IdentityConstraintES2_(ptr noundef %55, ptr noundef %58)
  br i1 %59, label %21, label %60

60:                                               ; preds = %21, %52, %14, %8, %4, %2
  %61 = phi i1 [ true, %2 ], [ false, %4 ], [ false, %8 ], [ true, %14 ], [ %23, %21 ], [ %27, %52 ]
  ret i1 %61
}

declare noundef zeroext i1 @_ZN11xercesc_2_517XObjectComparator12isEquivalentEPNS_18IdentityConstraintES2_(ptr noundef, ptr noundef) local_unnamed_addr #1

; Function Attrs: uwtable
define dso_local noundef zeroext i1 @_ZN11xercesc_2_519XTemplateComparator12isEquivalentEPNS_11RefVectorOfINS_9XMLNumberEEES4_(ptr noundef readonly %0, ptr noundef readonly %1) local_unnamed_addr #2 align 2 personality ptr @__gxx_personality_v0 {
  %3 = icmp eq ptr %0, %1
  br i1 %3, label %60, label %4

4:                                                ; preds = %2
  %5 = icmp ne ptr %0, null
  %6 = icmp ne ptr %1, null
  %7 = xor i1 %5, %6
  br i1 %7, label %60, label %8

8:                                                ; preds = %4
  %9 = getelementptr inbounds %"class.xercesc_2_5::BaseRefVectorOf.14", ptr %0, i64 0, i32 2
  %10 = load i32, ptr %9, align 4, !tbaa !158
  %11 = getelementptr inbounds %"class.xercesc_2_5::BaseRefVectorOf.14", ptr %1, i64 0, i32 2
  %12 = load i32, ptr %11, align 4, !tbaa !158
  %13 = icmp eq i32 %10, %12
  br i1 %13, label %14, label %60

14:                                               ; preds = %8
  %15 = icmp slt i32 %10, 1
  br i1 %15, label %60, label %16

16:                                               ; preds = %14
  %17 = getelementptr inbounds %"class.xercesc_2_5::BaseRefVectorOf.14", ptr %0, i64 0, i32 4
  %18 = getelementptr inbounds %"class.xercesc_2_5::BaseRefVectorOf.14", ptr %1, i64 0, i32 4
  %19 = zext i32 %10 to i64
  %20 = zext i32 %10 to i64
  br label %25

21:                                               ; preds = %52
  %22 = add nuw nsw i64 %26, 1
  %23 = icmp uge i64 %22, %19
  %24 = icmp eq i64 %22, %20
  br i1 %24, label %60, label %25

25:                                               ; preds = %16, %21
  %26 = phi i64 [ 0, %16 ], [ %22, %21 ]
  %27 = phi i1 [ false, %16 ], [ %23, %21 ]
  %28 = load i32, ptr %9, align 4, !tbaa !158
  %29 = zext i32 %28 to i64
  %30 = icmp ult i64 %26, %29
  br i1 %30, label %41, label %31

31:                                               ; preds = %25
  %32 = tail call ptr @__cxa_allocate_exception(i64 48) #6
  %33 = getelementptr inbounds %"class.xercesc_2_5::BaseRefVectorOf.14", ptr %0, i64 0, i32 5
  %34 = load ptr, ptr %33, align 8, !tbaa !160
  invoke void @_ZN11xercesc_2_530ArrayIndexOutOfBoundsExceptionC2EPKcjNS_10XMLExcepts5CodesEPNS_13MemoryManagerE(ptr noundef nonnull align 8 dereferenceable(48) %32, ptr noundef nonnull @.str, i32 noundef 289, i32 noundef 109, ptr noundef %34)
          to label %35 unwind label %39

35:                                               ; preds = %31
  tail call void @__cxa_throw(ptr nonnull %32, ptr nonnull @_ZTIN11xercesc_2_530ArrayIndexOutOfBoundsExceptionE, ptr nonnull @_ZN11xercesc_2_512XMLExceptionD2Ev) #8
  unreachable

36:                                               ; preds = %50, %39
  %37 = phi ptr [ %46, %50 ], [ %32, %39 ]
  %38 = phi { ptr, i32 } [ %51, %50 ], [ %40, %39 ]
  tail call void @__cxa_free_exception(ptr %37) #6
  resume { ptr, i32 } %38

39:                                               ; preds = %31
  %40 = landingpad { ptr, i32 }
          cleanup
  br label %36

41:                                               ; preds = %25
  %42 = load i32, ptr %11, align 4, !tbaa !158
  %43 = zext i32 %42 to i64
  %44 = icmp ult i64 %26, %43
  br i1 %44, label %52, label %45

45:                                               ; preds = %41
  %46 = tail call ptr @__cxa_allocate_exception(i64 48) #6
  %47 = getelementptr inbounds %"class.xercesc_2_5::BaseRefVectorOf.14", ptr %1, i64 0, i32 5
  %48 = load ptr, ptr %47, align 8, !tbaa !160
  invoke void @_ZN11xercesc_2_530ArrayIndexOutOfBoundsExceptionC2EPKcjNS_10XMLExcepts5CodesEPNS_13MemoryManagerE(ptr noundef nonnull align 8 dereferenceable(48) %46, ptr noundef nonnull @.str, i32 noundef 289, i32 noundef 109, ptr noundef %48)
          to label %49 unwind label %50

49:                                               ; preds = %45
  tail call void @__cxa_throw(ptr nonnull %46, ptr nonnull @_ZTIN11xercesc_2_530ArrayIndexOutOfBoundsExceptionE, ptr nonnull @_ZN11xercesc_2_512XMLExceptionD2Ev) #8
  unreachable

50:                                               ; preds = %45
  %51 = landingpad { ptr, i32 }
          cleanup
  br label %36

52:                                               ; preds = %41
  %53 = load ptr, ptr %17, align 8, !tbaa !161
  %54 = getelementptr inbounds ptr, ptr %53, i64 %26
  %55 = load ptr, ptr %54, align 8, !tbaa !124
  %56 = load ptr, ptr %18, align 8, !tbaa !161
  %57 = getelementptr inbounds ptr, ptr %56, i64 %26
  %58 = load ptr, ptr %57, align 8, !tbaa !124
  %59 = tail call noundef zeroext i1 @_ZN11xercesc_2_517XObjectComparator12isEquivalentEPNS_9XMLNumberES2_(ptr noundef %55, ptr noundef %58)
  br i1 %59, label %21, label %60

60:                                               ; preds = %21, %52, %14, %8, %4, %2
  %61 = phi i1 [ true, %2 ], [ false, %4 ], [ false, %8 ], [ true, %14 ], [ %23, %21 ], [ %27, %52 ]
  ret i1 %61
}

declare noundef zeroext i1 @_ZN11xercesc_2_517XObjectComparator12isEquivalentEPNS_9XMLNumberES2_(ptr noundef, ptr noundef) local_unnamed_addr #1

; Function Attrs: uwtable
define dso_local noundef zeroext i1 @_ZN11xercesc_2_519XTemplateComparator12isEquivalentEPNS_11RefVectorOfINS_18XercesLocationPathEEES4_(ptr noundef readonly %0, ptr noundef readonly %1) local_unnamed_addr #2 align 2 personality ptr @__gxx_personality_v0 {
  %3 = icmp eq ptr %0, %1
  br i1 %3, label %60, label %4

4:                                                ; preds = %2
  %5 = icmp ne ptr %0, null
  %6 = icmp ne ptr %1, null
  %7 = xor i1 %5, %6
  br i1 %7, label %60, label %8

8:                                                ; preds = %4
  %9 = getelementptr inbounds %"class.xercesc_2_5::BaseRefVectorOf.16", ptr %0, i64 0, i32 2
  %10 = load i32, ptr %9, align 4, !tbaa !162
  %11 = getelementptr inbounds %"class.xercesc_2_5::BaseRefVectorOf.16", ptr %1, i64 0, i32 2
  %12 = load i32, ptr %11, align 4, !tbaa !162
  %13 = icmp eq i32 %10, %12
  br i1 %13, label %14, label %60

14:                                               ; preds = %8
  %15 = icmp slt i32 %10, 1
  br i1 %15, label %60, label %16

16:                                               ; preds = %14
  %17 = getelementptr inbounds %"class.xercesc_2_5::BaseRefVectorOf.16", ptr %0, i64 0, i32 4
  %18 = getelementptr inbounds %"class.xercesc_2_5::BaseRefVectorOf.16", ptr %1, i64 0, i32 4
  %19 = zext i32 %10 to i64
  %20 = zext i32 %10 to i64
  br label %25

21:                                               ; preds = %52
  %22 = add nuw nsw i64 %26, 1
  %23 = icmp uge i64 %22, %19
  %24 = icmp eq i64 %22, %20
  br i1 %24, label %60, label %25

25:                                               ; preds = %16, %21
  %26 = phi i64 [ 0, %16 ], [ %22, %21 ]
  %27 = phi i1 [ false, %16 ], [ %23, %21 ]
  %28 = load i32, ptr %9, align 4, !tbaa !162
  %29 = zext i32 %28 to i64
  %30 = icmp ult i64 %26, %29
  br i1 %30, label %41, label %31

31:                                               ; preds = %25
  %32 = tail call ptr @__cxa_allocate_exception(i64 48) #6
  %33 = getelementptr inbounds %"class.xercesc_2_5::BaseRefVectorOf.16", ptr %0, i64 0, i32 5
  %34 = load ptr, ptr %33, align 8, !tbaa !164
  invoke void @_ZN11xercesc_2_530ArrayIndexOutOfBoundsExceptionC2EPKcjNS_10XMLExcepts5CodesEPNS_13MemoryManagerE(ptr noundef nonnull align 8 dereferenceable(48) %32, ptr noundef nonnull @.str, i32 noundef 289, i32 noundef 109, ptr noundef %34)
          to label %35 unwind label %39

35:                                               ; preds = %31
  tail call void @__cxa_throw(ptr nonnull %32, ptr nonnull @_ZTIN11xercesc_2_530ArrayIndexOutOfBoundsExceptionE, ptr nonnull @_ZN11xercesc_2_512XMLExceptionD2Ev) #8
  unreachable

36:                                               ; preds = %50, %39
  %37 = phi ptr [ %46, %50 ], [ %32, %39 ]
  %38 = phi { ptr, i32 } [ %51, %50 ], [ %40, %39 ]
  tail call void @__cxa_free_exception(ptr %37) #6
  resume { ptr, i32 } %38

39:                                               ; preds = %31
  %40 = landingpad { ptr, i32 }
          cleanup
  br label %36

41:                                               ; preds = %25
  %42 = load i32, ptr %11, align 4, !tbaa !162
  %43 = zext i32 %42 to i64
  %44 = icmp ult i64 %26, %43
  br i1 %44, label %52, label %45

45:                                               ; preds = %41
  %46 = tail call ptr @__cxa_allocate_exception(i64 48) #6
  %47 = getelementptr inbounds %"class.xercesc_2_5::BaseRefVectorOf.16", ptr %1, i64 0, i32 5
  %48 = load ptr, ptr %47, align 8, !tbaa !164
  invoke void @_ZN11xercesc_2_530ArrayIndexOutOfBoundsExceptionC2EPKcjNS_10XMLExcepts5CodesEPNS_13MemoryManagerE(ptr noundef nonnull align 8 dereferenceable(48) %46, ptr noundef nonnull @.str, i32 noundef 289, i32 noundef 109, ptr noundef %48)
          to label %49 unwind label %50

49:                                               ; preds = %45
  tail call void @__cxa_throw(ptr nonnull %46, ptr nonnull @_ZTIN11xercesc_2_530ArrayIndexOutOfBoundsExceptionE, ptr nonnull @_ZN11xercesc_2_512XMLExceptionD2Ev) #8
  unreachable

50:                                               ; preds = %45
  %51 = landingpad { ptr, i32 }
          cleanup
  br label %36

52:                                               ; preds = %41
  %53 = load ptr, ptr %17, align 8, !tbaa !165
  %54 = getelementptr inbounds ptr, ptr %53, i64 %26
  %55 = load ptr, ptr %54, align 8, !tbaa !124
  %56 = load ptr, ptr %18, align 8, !tbaa !165
  %57 = getelementptr inbounds ptr, ptr %56, i64 %26
  %58 = load ptr, ptr %57, align 8, !tbaa !124
  %59 = tail call noundef zeroext i1 @_ZN11xercesc_2_517XObjectComparator12isEquivalentEPNS_18XercesLocationPathES2_(ptr noundef %55, ptr noundef %58)
  br i1 %59, label %21, label %60

60:                                               ; preds = %21, %52, %14, %8, %4, %2
  %61 = phi i1 [ true, %2 ], [ false, %4 ], [ false, %8 ], [ true, %14 ], [ %23, %21 ], [ %27, %52 ]
  ret i1 %61
}

declare noundef zeroext i1 @_ZN11xercesc_2_517XObjectComparator12isEquivalentEPNS_18XercesLocationPathES2_(ptr noundef, ptr noundef) local_unnamed_addr #1

; Function Attrs: uwtable
define dso_local noundef zeroext i1 @_ZN11xercesc_2_519XTemplateComparator12isEquivalentEPNS_11RefVectorOfINS_10XercesStepEEES4_(ptr noundef readonly %0, ptr noundef readonly %1) local_unnamed_addr #2 align 2 personality ptr @__gxx_personality_v0 {
  %3 = icmp eq ptr %0, %1
  br i1 %3, label %60, label %4

4:                                                ; preds = %2
  %5 = icmp ne ptr %0, null
  %6 = icmp ne ptr %1, null
  %7 = xor i1 %5, %6
  br i1 %7, label %60, label %8

8:                                                ; preds = %4
  %9 = getelementptr inbounds %"class.xercesc_2_5::BaseRefVectorOf.18", ptr %0, i64 0, i32 2
  %10 = load i32, ptr %9, align 4, !tbaa !166
  %11 = getelementptr inbounds %"class.xercesc_2_5::BaseRefVectorOf.18", ptr %1, i64 0, i32 2
  %12 = load i32, ptr %11, align 4, !tbaa !166
  %13 = icmp eq i32 %10, %12
  br i1 %13, label %14, label %60

14:                                               ; preds = %8
  %15 = icmp slt i32 %10, 1
  br i1 %15, label %60, label %16

16:                                               ; preds = %14
  %17 = getelementptr inbounds %"class.xercesc_2_5::BaseRefVectorOf.18", ptr %0, i64 0, i32 4
  %18 = getelementptr inbounds %"class.xercesc_2_5::BaseRefVectorOf.18", ptr %1, i64 0, i32 4
  %19 = zext i32 %10 to i64
  %20 = zext i32 %10 to i64
  br label %25

21:                                               ; preds = %52
  %22 = add nuw nsw i64 %26, 1
  %23 = icmp uge i64 %22, %19
  %24 = icmp eq i64 %22, %20
  br i1 %24, label %60, label %25

25:                                               ; preds = %16, %21
  %26 = phi i64 [ 0, %16 ], [ %22, %21 ]
  %27 = phi i1 [ false, %16 ], [ %23, %21 ]
  %28 = load i32, ptr %9, align 4, !tbaa !166
  %29 = zext i32 %28 to i64
  %30 = icmp ult i64 %26, %29
  br i1 %30, label %41, label %31

31:                                               ; preds = %25
  %32 = tail call ptr @__cxa_allocate_exception(i64 48) #6
  %33 = getelementptr inbounds %"class.xercesc_2_5::BaseRefVectorOf.18", ptr %0, i64 0, i32 5
  %34 = load ptr, ptr %33, align 8, !tbaa !168
  invoke void @_ZN11xercesc_2_530ArrayIndexOutOfBoundsExceptionC2EPKcjNS_10XMLExcepts5CodesEPNS_13MemoryManagerE(ptr noundef nonnull align 8 dereferenceable(48) %32, ptr noundef nonnull @.str, i32 noundef 289, i32 noundef 109, ptr noundef %34)
          to label %35 unwind label %39

35:                                               ; preds = %31
  tail call void @__cxa_throw(ptr nonnull %32, ptr nonnull @_ZTIN11xercesc_2_530ArrayIndexOutOfBoundsExceptionE, ptr nonnull @_ZN11xercesc_2_512XMLExceptionD2Ev) #8
  unreachable

36:                                               ; preds = %50, %39
  %37 = phi ptr [ %46, %50 ], [ %32, %39 ]
  %38 = phi { ptr, i32 } [ %51, %50 ], [ %40, %39 ]
  tail call void @__cxa_free_exception(ptr %37) #6
  resume { ptr, i32 } %38

39:                                               ; preds = %31
  %40 = landingpad { ptr, i32 }
          cleanup
  br label %36

41:                                               ; preds = %25
  %42 = load i32, ptr %11, align 4, !tbaa !166
  %43 = zext i32 %42 to i64
  %44 = icmp ult i64 %26, %43
  br i1 %44, label %52, label %45

45:                                               ; preds = %41
  %46 = tail call ptr @__cxa_allocate_exception(i64 48) #6
  %47 = getelementptr inbounds %"class.xercesc_2_5::BaseRefVectorOf.18", ptr %1, i64 0, i32 5
  %48 = load ptr, ptr %47, align 8, !tbaa !168
  invoke void @_ZN11xercesc_2_530ArrayIndexOutOfBoundsExceptionC2EPKcjNS_10XMLExcepts5CodesEPNS_13MemoryManagerE(ptr noundef nonnull align 8 dereferenceable(48) %46, ptr noundef nonnull @.str, i32 noundef 289, i32 noundef 109, ptr noundef %48)
          to label %49 unwind label %50

49:                                               ; preds = %45
  tail call void @__cxa_throw(ptr nonnull %46, ptr nonnull @_ZTIN11xercesc_2_530ArrayIndexOutOfBoundsExceptionE, ptr nonnull @_ZN11xercesc_2_512XMLExceptionD2Ev) #8
  unreachable

50:                                               ; preds = %45
  %51 = landingpad { ptr, i32 }
          cleanup
  br label %36

52:                                               ; preds = %41
  %53 = load ptr, ptr %17, align 8, !tbaa !169
  %54 = getelementptr inbounds ptr, ptr %53, i64 %26
  %55 = load ptr, ptr %54, align 8, !tbaa !124
  %56 = load ptr, ptr %18, align 8, !tbaa !169
  %57 = getelementptr inbounds ptr, ptr %56, i64 %26
  %58 = load ptr, ptr %57, align 8, !tbaa !124
  %59 = tail call noundef zeroext i1 @_ZN11xercesc_2_517XObjectComparator12isEquivalentEPNS_10XercesStepES2_(ptr noundef %55, ptr noundef %58)
  br i1 %59, label %21, label %60

60:                                               ; preds = %21, %52, %14, %8, %4, %2
  %61 = phi i1 [ true, %2 ], [ false, %4 ], [ false, %8 ], [ true, %14 ], [ %23, %21 ], [ %27, %52 ]
  ret i1 %61
}

declare noundef zeroext i1 @_ZN11xercesc_2_517XObjectComparator12isEquivalentEPNS_10XercesStepES2_(ptr noundef, ptr noundef) local_unnamed_addr #1

; Function Attrs: uwtable
define dso_local noundef zeroext i1 @_ZN11xercesc_2_519XTemplateComparator12isEquivalentEPNS_14RefHashTableOfINS_12KVStringPairEEES4_(ptr noundef %0, ptr noundef %1) local_unnamed_addr #2 align 2 personality ptr @__gxx_personality_v0 {
  %3 = alloca i32, align 4
  %4 = alloca i32, align 4
  %5 = alloca %"class.xercesc_2_5::RefHashTableOfEnumerator", align 8
  %6 = alloca %"class.xercesc_2_5::RefHashTableOfEnumerator", align 8
  %7 = icmp eq ptr %0, %1
  br i1 %7, label %166, label %8

8:                                                ; preds = %2
  %9 = icmp ne ptr %0, null
  %10 = icmp ne ptr %1, null
  %11 = xor i1 %9, %10
  br i1 %11, label %166, label %12

12:                                               ; preds = %8
  call void @llvm.lifetime.start.p0(i64 48, ptr nonnull %5) #6
  %13 = load ptr, ptr %0, align 8, !tbaa !170
  store ptr getelementptr inbounds ({ [7 x ptr] }, ptr @_ZTVN11xercesc_2_524RefHashTableOfEnumeratorINS_12KVStringPairEEE, i64 0, inrange i32 0, i64 2), ptr %5, align 8, !tbaa !172
  %14 = getelementptr inbounds %"class.xercesc_2_5::RefHashTableOfEnumerator", ptr %5, i64 0, i32 1
  store i8 0, ptr %14, align 8, !tbaa !174
  %15 = getelementptr inbounds %"class.xercesc_2_5::RefHashTableOfEnumerator", ptr %5, i64 0, i32 2
  store ptr null, ptr %15, align 8, !tbaa !177
  %16 = getelementptr inbounds %"class.xercesc_2_5::RefHashTableOfEnumerator", ptr %5, i64 0, i32 3
  %17 = getelementptr inbounds %"class.xercesc_2_5::RefHashTableOfEnumerator", ptr %5, i64 0, i32 4
  store ptr %0, ptr %17, align 8, !tbaa !178
  %18 = getelementptr inbounds %"class.xercesc_2_5::RefHashTableOfEnumerator", ptr %5, i64 0, i32 5
  store ptr %13, ptr %18, align 8, !tbaa !179
  store i32 0, ptr %16, align 8, !tbaa !180
  %19 = getelementptr inbounds %"class.xercesc_2_5::RefHashTableOf", ptr %0, i64 0, i32 3
  %20 = load i32, ptr %19, align 8, !tbaa !181
  %21 = icmp eq i32 %20, 0
  br i1 %21, label %36, label %22

22:                                               ; preds = %12
  %23 = getelementptr inbounds %"class.xercesc_2_5::RefHashTableOf", ptr %0, i64 0, i32 2
  %24 = load ptr, ptr %23, align 8, !tbaa !182
  %25 = zext i32 %20 to i64
  br label %26

26:                                               ; preds = %31, %22
  %27 = phi i64 [ %32, %31 ], [ 0, %22 ]
  %28 = getelementptr inbounds ptr, ptr %24, i64 %27
  %29 = load ptr, ptr %28, align 8, !tbaa !124
  %30 = icmp eq ptr %29, null
  br i1 %30, label %31, label %35

31:                                               ; preds = %26
  %32 = add nuw nsw i64 %27, 1
  %33 = trunc i64 %32 to i32
  store i32 %33, ptr %16, align 8, !tbaa !180
  %34 = icmp eq i64 %32, %25
  br i1 %34, label %36, label %26

35:                                               ; preds = %26
  store ptr %29, ptr %15, align 8, !tbaa !177
  br label %36

36:                                               ; preds = %31, %12, %35
  %37 = phi ptr [ %29, %35 ], [ null, %12 ], [ null, %31 ]
  br label %38

38:                                               ; preds = %36, %50
  %39 = phi ptr [ %52, %50 ], [ %37, %36 ]
  %40 = phi i32 [ %51, %50 ], [ 0, %36 ]
  %41 = icmp eq ptr %39, null
  br i1 %41, label %42, label %48

42:                                               ; preds = %38
  %43 = load i32, ptr %16, align 8, !tbaa !180
  %44 = load ptr, ptr %17, align 8, !tbaa !178
  %45 = getelementptr inbounds %"class.xercesc_2_5::RefHashTableOf", ptr %44, i64 0, i32 3
  %46 = load i32, ptr %45, align 8, !tbaa !181
  %47 = icmp eq i32 %43, %46
  br i1 %47, label %55, label %48

48:                                               ; preds = %38, %42
  %49 = invoke noundef nonnull align 8 dereferenceable(48) ptr @_ZN11xercesc_2_524RefHashTableOfEnumeratorINS_12KVStringPairEE11nextElementEv(ptr noundef nonnull align 8 dereferenceable(48) %5)
          to label %50 unwind label %53

50:                                               ; preds = %48
  %51 = add nuw nsw i32 %40, 1
  %52 = load ptr, ptr %15, align 8, !tbaa !177
  br label %38

53:                                               ; preds = %48
  %54 = landingpad { ptr, i32 }
          cleanup
  br label %163

55:                                               ; preds = %42
  call void @llvm.lifetime.start.p0(i64 48, ptr nonnull %6) #6
  %56 = load ptr, ptr %1, align 8, !tbaa !170
  store ptr getelementptr inbounds ({ [7 x ptr] }, ptr @_ZTVN11xercesc_2_524RefHashTableOfEnumeratorINS_12KVStringPairEEE, i64 0, inrange i32 0, i64 2), ptr %6, align 8, !tbaa !172
  %57 = getelementptr inbounds %"class.xercesc_2_5::RefHashTableOfEnumerator", ptr %6, i64 0, i32 1
  store i8 0, ptr %57, align 8, !tbaa !174
  %58 = getelementptr inbounds %"class.xercesc_2_5::RefHashTableOfEnumerator", ptr %6, i64 0, i32 2
  store ptr null, ptr %58, align 8, !tbaa !177
  %59 = getelementptr inbounds %"class.xercesc_2_5::RefHashTableOfEnumerator", ptr %6, i64 0, i32 3
  %60 = getelementptr inbounds %"class.xercesc_2_5::RefHashTableOfEnumerator", ptr %6, i64 0, i32 4
  store ptr %1, ptr %60, align 8, !tbaa !178
  %61 = getelementptr inbounds %"class.xercesc_2_5::RefHashTableOfEnumerator", ptr %6, i64 0, i32 5
  store ptr %56, ptr %61, align 8, !tbaa !179
  store i32 0, ptr %59, align 8, !tbaa !180
  %62 = getelementptr inbounds %"class.xercesc_2_5::RefHashTableOf", ptr %1, i64 0, i32 3
  %63 = load i32, ptr %62, align 8, !tbaa !181
  %64 = icmp eq i32 %63, 0
  br i1 %64, label %79, label %65

65:                                               ; preds = %55
  %66 = getelementptr inbounds %"class.xercesc_2_5::RefHashTableOf", ptr %1, i64 0, i32 2
  %67 = load ptr, ptr %66, align 8, !tbaa !182
  %68 = zext i32 %63 to i64
  br label %69

69:                                               ; preds = %74, %65
  %70 = phi i64 [ %75, %74 ], [ 0, %65 ]
  %71 = getelementptr inbounds ptr, ptr %67, i64 %70
  %72 = load ptr, ptr %71, align 8, !tbaa !124
  %73 = icmp eq ptr %72, null
  br i1 %73, label %74, label %78

74:                                               ; preds = %69
  %75 = add nuw nsw i64 %70, 1
  %76 = trunc i64 %75 to i32
  store i32 %76, ptr %59, align 8, !tbaa !180
  %77 = icmp eq i64 %75, %68
  br i1 %77, label %79, label %69

78:                                               ; preds = %69
  store ptr %72, ptr %58, align 8, !tbaa !177
  br label %79

79:                                               ; preds = %74, %55, %78
  %80 = phi ptr [ %72, %78 ], [ null, %55 ], [ null, %74 ]
  br label %81

81:                                               ; preds = %79, %93
  %82 = phi ptr [ %95, %93 ], [ %80, %79 ]
  %83 = phi i32 [ %94, %93 ], [ 0, %79 ]
  %84 = icmp eq ptr %82, null
  br i1 %84, label %85, label %91

85:                                               ; preds = %81
  %86 = load i32, ptr %59, align 8, !tbaa !180
  %87 = load ptr, ptr %60, align 8, !tbaa !178
  %88 = getelementptr inbounds %"class.xercesc_2_5::RefHashTableOf", ptr %87, i64 0, i32 3
  %89 = load i32, ptr %88, align 8, !tbaa !181
  %90 = icmp eq i32 %86, %89
  br i1 %90, label %100, label %91

91:                                               ; preds = %81, %85
  %92 = invoke noundef nonnull align 8 dereferenceable(48) ptr @_ZN11xercesc_2_524RefHashTableOfEnumeratorINS_12KVStringPairEE11nextElementEv(ptr noundef nonnull align 8 dereferenceable(48) %6)
          to label %93 unwind label %98

93:                                               ; preds = %91
  %94 = add nuw nsw i32 %83, 1
  %95 = load ptr, ptr %58, align 8, !tbaa !177
  br label %81

96:                                               ; preds = %156
  %97 = landingpad { ptr, i32 }
          cleanup
  br label %161

98:                                               ; preds = %91
  %99 = landingpad { ptr, i32 }
          cleanup
  br label %158

100:                                              ; preds = %85
  %101 = icmp eq i32 %40, %83
  br i1 %101, label %102, label %156

102:                                              ; preds = %100
  store ptr null, ptr %15, align 8, !tbaa !177
  store i32 0, ptr %16, align 8, !tbaa !180
  %103 = load ptr, ptr %17, align 8, !tbaa !178
  %104 = getelementptr inbounds %"class.xercesc_2_5::RefHashTableOf", ptr %103, i64 0, i32 3
  %105 = load i32, ptr %104, align 8, !tbaa !181
  %106 = icmp eq i32 %105, 0
  br i1 %106, label %121, label %107

107:                                              ; preds = %102
  %108 = getelementptr inbounds %"class.xercesc_2_5::RefHashTableOf", ptr %103, i64 0, i32 2
  %109 = load ptr, ptr %108, align 8, !tbaa !182
  %110 = zext i32 %105 to i64
  br label %111

111:                                              ; preds = %116, %107
  %112 = phi i64 [ %117, %116 ], [ 0, %107 ]
  %113 = getelementptr inbounds ptr, ptr %109, i64 %112
  %114 = load ptr, ptr %113, align 8, !tbaa !124
  %115 = icmp eq ptr %114, null
  br i1 %115, label %116, label %120

116:                                              ; preds = %111
  %117 = add nuw nsw i64 %112, 1
  %118 = trunc i64 %117 to i32
  store i32 %118, ptr %16, align 8, !tbaa !180
  %119 = icmp eq i64 %117, %110
  br i1 %119, label %121, label %111

120:                                              ; preds = %111
  store ptr %114, ptr %15, align 8, !tbaa !177
  br label %121

121:                                              ; preds = %116, %102, %120
  br label %122

122:                                              ; preds = %121, %155
  %123 = load ptr, ptr %15, align 8, !tbaa !177
  %124 = icmp eq ptr %123, null
  br i1 %124, label %125, label %131

125:                                              ; preds = %122
  %126 = load i32, ptr %16, align 8, !tbaa !180
  %127 = load ptr, ptr %17, align 8, !tbaa !178
  %128 = getelementptr inbounds %"class.xercesc_2_5::RefHashTableOf", ptr %127, i64 0, i32 3
  %129 = load i32, ptr %128, align 8, !tbaa !181
  %130 = icmp eq i32 %126, %129
  br i1 %130, label %156, label %131

131:                                              ; preds = %122, %125
  %132 = invoke noundef ptr @_ZN11xercesc_2_524RefHashTableOfEnumeratorINS_12KVStringPairEE14nextElementKeyEv(ptr noundef nonnull align 8 dereferenceable(48) %5)
          to label %133 unwind label %149

133:                                              ; preds = %131
  call void @llvm.lifetime.start.p0(i64 4, ptr nonnull %4) #6
  %134 = invoke noundef ptr @_ZN11xercesc_2_514RefHashTableOfINS_12KVStringPairEE14findBucketElemEPKvRj(ptr noundef nonnull align 8 dereferenceable(48) %0, ptr noundef %132, ptr noundef nonnull align 4 dereferenceable(4) %4)
          to label %135 unwind label %151

135:                                              ; preds = %133
  %136 = icmp eq ptr %134, null
  br i1 %136, label %139, label %137

137:                                              ; preds = %135
  %138 = load ptr, ptr %134, align 8, !tbaa !183
  br label %139

139:                                              ; preds = %137, %135
  %140 = phi ptr [ %138, %137 ], [ null, %135 ]
  call void @llvm.lifetime.end.p0(i64 4, ptr nonnull %4) #6
  call void @llvm.lifetime.start.p0(i64 4, ptr nonnull %3) #6
  %141 = invoke noundef ptr @_ZN11xercesc_2_514RefHashTableOfINS_12KVStringPairEE14findBucketElemEPKvRj(ptr noundef nonnull align 8 dereferenceable(48) %1, ptr noundef %132, ptr noundef nonnull align 4 dereferenceable(4) %3)
          to label %142 unwind label %153

142:                                              ; preds = %139
  %143 = icmp eq ptr %141, null
  br i1 %143, label %146, label %144

144:                                              ; preds = %142
  %145 = load ptr, ptr %141, align 8, !tbaa !183
  br label %146

146:                                              ; preds = %144, %142
  %147 = phi ptr [ %145, %144 ], [ null, %142 ]
  call void @llvm.lifetime.end.p0(i64 4, ptr nonnull %3) #6
  %148 = invoke noundef zeroext i1 @_ZN11xercesc_2_517XObjectComparator12isEquivalentEPNS_12KVStringPairES2_(ptr noundef %140, ptr noundef %147)
          to label %155 unwind label %153

149:                                              ; preds = %131
  %150 = landingpad { ptr, i32 }
          cleanup
  br label %158

151:                                              ; preds = %133
  %152 = landingpad { ptr, i32 }
          cleanup
  br label %158

153:                                              ; preds = %139, %146
  %154 = landingpad { ptr, i32 }
          cleanup
  br label %158

155:                                              ; preds = %146
  br i1 %148, label %122, label %156

156:                                              ; preds = %125, %155, %100
  %157 = phi i1 [ false, %100 ], [ true, %125 ], [ false, %155 ]
  invoke void @_ZN11xercesc_2_524RefHashTableOfEnumeratorINS_12KVStringPairEED2Ev(ptr noundef nonnull align 8 dereferenceable(48) %6)
          to label %160 unwind label %96

158:                                              ; preds = %149, %153, %151, %98
  %159 = phi { ptr, i32 } [ %99, %98 ], [ %150, %149 ], [ %154, %153 ], [ %152, %151 ]
  invoke void @_ZN11xercesc_2_524RefHashTableOfEnumeratorINS_12KVStringPairEED2Ev(ptr noundef nonnull align 8 dereferenceable(48) %6)
          to label %161 unwind label %168

160:                                              ; preds = %156
  call void @llvm.lifetime.end.p0(i64 48, ptr nonnull %6) #6
  call void @_ZN11xercesc_2_524RefHashTableOfEnumeratorINS_12KVStringPairEED2Ev(ptr noundef nonnull align 8 dereferenceable(48) %5)
  call void @llvm.lifetime.end.p0(i64 48, ptr nonnull %5) #6
  br label %166

161:                                              ; preds = %158, %96
  %162 = phi { ptr, i32 } [ %159, %158 ], [ %97, %96 ]
  call void @llvm.lifetime.end.p0(i64 48, ptr nonnull %6) #6
  br label %163

163:                                              ; preds = %161, %53
  %164 = phi { ptr, i32 } [ %54, %53 ], [ %162, %161 ]
  invoke void @_ZN11xercesc_2_524RefHashTableOfEnumeratorINS_12KVStringPairEED2Ev(ptr noundef nonnull align 8 dereferenceable(48) %5)
          to label %165 unwind label %168

165:                                              ; preds = %163
  call void @llvm.lifetime.end.p0(i64 48, ptr nonnull %5) #6
  resume { ptr, i32 } %164

166:                                              ; preds = %8, %2, %160
  %167 = phi i1 [ %157, %160 ], [ true, %2 ], [ false, %8 ]
  ret i1 %167

168:                                              ; preds = %163, %158
  %169 = landingpad { ptr, i32 }
          catch ptr null
  %170 = extractvalue { ptr, i32 } %169, 0
  call void @__clang_call_terminate(ptr %170) #7
  unreachable
}

; Function Attrs: nounwind uwtable
define linkonce_odr dso_local noundef zeroext i1 @_ZNK11xercesc_2_524RefHashTableOfEnumeratorINS_12KVStringPairEE15hasMoreElementsEv(ptr noundef nonnull align 8 dereferenceable(48) %0) unnamed_addr #5 comdat align 2 {
  %2 = getelementptr inbounds %"class.xercesc_2_5::RefHashTableOfEnumerator", ptr %0, i64 0, i32 2
  %3 = load ptr, ptr %2, align 8, !tbaa !177
  %4 = icmp eq ptr %3, null
  br i1 %4, label %5, label %13

5:                                                ; preds = %1
  %6 = getelementptr inbounds %"class.xercesc_2_5::RefHashTableOfEnumerator", ptr %0, i64 0, i32 3
  %7 = load i32, ptr %6, align 8, !tbaa !180
  %8 = getelementptr inbounds %"class.xercesc_2_5::RefHashTableOfEnumerator", ptr %0, i64 0, i32 4
  %9 = load ptr, ptr %8, align 8, !tbaa !178
  %10 = getelementptr inbounds %"class.xercesc_2_5::RefHashTableOf", ptr %9, i64 0, i32 3
  %11 = load i32, ptr %10, align 8, !tbaa !181
  %12 = icmp eq i32 %7, %11
  br i1 %12, label %14, label %13

13:                                               ; preds = %5, %1
  br label %14

14:                                               ; preds = %5, %13
  %15 = phi i1 [ true, %13 ], [ false, %5 ]
  ret i1 %15
}

; Function Attrs: uwtable
define linkonce_odr dso_local noundef nonnull align 8 dereferenceable(48) ptr @_ZN11xercesc_2_524RefHashTableOfEnumeratorINS_12KVStringPairEE11nextElementEv(ptr noundef nonnull align 8 dereferenceable(48) %0) unnamed_addr #2 comdat align 2 personality ptr @__gxx_personality_v0 {
  %2 = load ptr, ptr %0, align 8, !tbaa !172
  %3 = getelementptr inbounds ptr, ptr %2, i64 2
  %4 = load ptr, ptr %3, align 8
  %5 = tail call noundef zeroext i1 %4(ptr noundef nonnull align 8 dereferenceable(48) %0)
  br i1 %5, label %13, label %6

6:                                                ; preds = %1
  %7 = tail call ptr @__cxa_allocate_exception(i64 48) #6
  %8 = getelementptr inbounds %"class.xercesc_2_5::RefHashTableOfEnumerator", ptr %0, i64 0, i32 5
  %9 = load ptr, ptr %8, align 8, !tbaa !179
  invoke void @_ZN11xercesc_2_522NoSuchElementExceptionC2EPKcjNS_10XMLExcepts5CodesEPNS_13MemoryManagerE(ptr noundef nonnull align 8 dereferenceable(48) %7, ptr noundef nonnull @.str.2, i32 noundef 674, i32 noundef 30, ptr noundef %9)
          to label %10 unwind label %11

10:                                               ; preds = %6
  tail call void @__cxa_throw(ptr nonnull %7, ptr nonnull @_ZTIN11xercesc_2_522NoSuchElementExceptionE, ptr nonnull @_ZN11xercesc_2_512XMLExceptionD2Ev) #8
  unreachable

11:                                               ; preds = %6
  %12 = landingpad { ptr, i32 }
          cleanup
  tail call void @__cxa_free_exception(ptr %7) #6
  resume { ptr, i32 } %12

13:                                               ; preds = %1
  %14 = getelementptr inbounds %"class.xercesc_2_5::RefHashTableOfEnumerator", ptr %0, i64 0, i32 2
  %15 = load ptr, ptr %14, align 8, !tbaa !177
  %16 = icmp eq ptr %15, null
  br i1 %16, label %21, label %17

17:                                               ; preds = %13
  %18 = getelementptr inbounds %"struct.xercesc_2_5::RefHashTableBucketElem.57", ptr %15, i64 0, i32 1
  %19 = load ptr, ptr %18, align 8, !tbaa !185
  store ptr %19, ptr %14, align 8, !tbaa !177
  %20 = icmp eq ptr %19, null
  br i1 %20, label %21, label %43

21:                                               ; preds = %17, %13
  %22 = getelementptr inbounds %"class.xercesc_2_5::RefHashTableOfEnumerator", ptr %0, i64 0, i32 3
  %23 = load i32, ptr %22, align 8, !tbaa !180
  %24 = add i32 %23, 1
  store i32 %24, ptr %22, align 8, !tbaa !180
  %25 = getelementptr inbounds %"class.xercesc_2_5::RefHashTableOfEnumerator", ptr %0, i64 0, i32 4
  %26 = load ptr, ptr %25, align 8, !tbaa !178
  %27 = getelementptr inbounds %"class.xercesc_2_5::RefHashTableOf", ptr %26, i64 0, i32 3
  %28 = load i32, ptr %27, align 8, !tbaa !181
  %29 = icmp eq i32 %24, %28
  br i1 %29, label %43, label %30

30:                                               ; preds = %21
  %31 = getelementptr inbounds %"class.xercesc_2_5::RefHashTableOf", ptr %26, i64 0, i32 2
  %32 = load ptr, ptr %31, align 8, !tbaa !182
  br label %33

33:                                               ; preds = %39, %30
  %34 = phi i32 [ %24, %30 ], [ %40, %39 ]
  %35 = zext i32 %34 to i64
  %36 = getelementptr inbounds ptr, ptr %32, i64 %35
  %37 = load ptr, ptr %36, align 8, !tbaa !124
  %38 = icmp eq ptr %37, null
  br i1 %38, label %39, label %42

39:                                               ; preds = %33
  %40 = add i32 %34, 1
  store i32 %40, ptr %22, align 8, !tbaa !180
  %41 = icmp eq i32 %40, %28
  br i1 %41, label %43, label %33

42:                                               ; preds = %33
  store ptr %37, ptr %14, align 8, !tbaa !177
  br label %43

43:                                               ; preds = %39, %17, %21, %42
  %44 = load ptr, ptr %15, align 8, !tbaa !183
  ret ptr %44
}

; Function Attrs: nounwind uwtable
define linkonce_odr dso_local void @_ZN11xercesc_2_524RefHashTableOfEnumeratorINS_12KVStringPairEE5ResetEv(ptr noundef nonnull align 8 dereferenceable(48) %0) unnamed_addr #5 comdat align 2 {
  %2 = getelementptr inbounds %"class.xercesc_2_5::RefHashTableOfEnumerator", ptr %0, i64 0, i32 3
  %3 = getelementptr inbounds %"class.xercesc_2_5::RefHashTableOfEnumerator", ptr %0, i64 0, i32 2
  store ptr null, ptr %3, align 8, !tbaa !177
  store i32 0, ptr %2, align 8, !tbaa !180
  %4 = getelementptr inbounds %"class.xercesc_2_5::RefHashTableOfEnumerator", ptr %0, i64 0, i32 4
  %5 = load ptr, ptr %4, align 8, !tbaa !178
  %6 = getelementptr inbounds %"class.xercesc_2_5::RefHashTableOf", ptr %5, i64 0, i32 3
  %7 = load i32, ptr %6, align 8, !tbaa !181
  %8 = icmp eq i32 %7, 0
  br i1 %8, label %22, label %9

9:                                                ; preds = %1
  %10 = getelementptr inbounds %"class.xercesc_2_5::RefHashTableOf", ptr %5, i64 0, i32 2
  %11 = load ptr, ptr %10, align 8, !tbaa !182
  br label %12

12:                                               ; preds = %18, %9
  %13 = phi i32 [ 0, %9 ], [ %19, %18 ]
  %14 = zext i32 %13 to i64
  %15 = getelementptr inbounds ptr, ptr %11, i64 %14
  %16 = load ptr, ptr %15, align 8, !tbaa !124
  %17 = icmp eq ptr %16, null
  br i1 %17, label %18, label %21

18:                                               ; preds = %12
  %19 = add nuw i32 %13, 1
  store i32 %19, ptr %2, align 8, !tbaa !180
  %20 = icmp eq i32 %19, %7
  br i1 %20, label %22, label %12

21:                                               ; preds = %12
  store ptr %16, ptr %3, align 8, !tbaa !177
  br label %22

22:                                               ; preds = %18, %1, %21
  ret void
}

; Function Attrs: uwtable
define linkonce_odr dso_local noundef ptr @_ZN11xercesc_2_524RefHashTableOfEnumeratorINS_12KVStringPairEE14nextElementKeyEv(ptr noundef nonnull align 8 dereferenceable(48) %0) local_unnamed_addr #2 comdat align 2 personality ptr @__gxx_personality_v0 {
  %2 = load ptr, ptr %0, align 8, !tbaa !172
  %3 = getelementptr inbounds ptr, ptr %2, i64 2
  %4 = load ptr, ptr %3, align 8
  %5 = tail call noundef zeroext i1 %4(ptr noundef nonnull align 8 dereferenceable(48) %0)
  br i1 %5, label %13, label %6

6:                                                ; preds = %1
  %7 = tail call ptr @__cxa_allocate_exception(i64 48) #6
  %8 = getelementptr inbounds %"class.xercesc_2_5::RefHashTableOfEnumerator", ptr %0, i64 0, i32 5
  %9 = load ptr, ptr %8, align 8, !tbaa !179
  invoke void @_ZN11xercesc_2_522NoSuchElementExceptionC2EPKcjNS_10XMLExcepts5CodesEPNS_13MemoryManagerE(ptr noundef nonnull align 8 dereferenceable(48) %7, ptr noundef nonnull @.str.2, i32 noundef 690, i32 noundef 30, ptr noundef %9)
          to label %10 unwind label %11

10:                                               ; preds = %6
  tail call void @__cxa_throw(ptr nonnull %7, ptr nonnull @_ZTIN11xercesc_2_522NoSuchElementExceptionE, ptr nonnull @_ZN11xercesc_2_512XMLExceptionD2Ev) #8
  unreachable

11:                                               ; preds = %6
  %12 = landingpad { ptr, i32 }
          cleanup
  tail call void @__cxa_free_exception(ptr %7) #6
  resume { ptr, i32 } %12

13:                                               ; preds = %1
  %14 = getelementptr inbounds %"class.xercesc_2_5::RefHashTableOfEnumerator", ptr %0, i64 0, i32 2
  %15 = load ptr, ptr %14, align 8, !tbaa !177
  %16 = icmp eq ptr %15, null
  br i1 %16, label %21, label %17

17:                                               ; preds = %13
  %18 = getelementptr inbounds %"struct.xercesc_2_5::RefHashTableBucketElem.57", ptr %15, i64 0, i32 1
  %19 = load ptr, ptr %18, align 8, !tbaa !185
  store ptr %19, ptr %14, align 8, !tbaa !177
  %20 = icmp eq ptr %19, null
  br i1 %20, label %21, label %43

21:                                               ; preds = %17, %13
  %22 = getelementptr inbounds %"class.xercesc_2_5::RefHashTableOfEnumerator", ptr %0, i64 0, i32 3
  %23 = load i32, ptr %22, align 8, !tbaa !180
  %24 = add i32 %23, 1
  store i32 %24, ptr %22, align 8, !tbaa !180
  %25 = getelementptr inbounds %"class.xercesc_2_5::RefHashTableOfEnumerator", ptr %0, i64 0, i32 4
  %26 = load ptr, ptr %25, align 8, !tbaa !178
  %27 = getelementptr inbounds %"class.xercesc_2_5::RefHashTableOf", ptr %26, i64 0, i32 3
  %28 = load i32, ptr %27, align 8, !tbaa !181
  %29 = icmp eq i32 %24, %28
  br i1 %29, label %43, label %30

30:                                               ; preds = %21
  %31 = getelementptr inbounds %"class.xercesc_2_5::RefHashTableOf", ptr %26, i64 0, i32 2
  %32 = load ptr, ptr %31, align 8, !tbaa !182
  br label %33

33:                                               ; preds = %39, %30
  %34 = phi i32 [ %24, %30 ], [ %40, %39 ]
  %35 = zext i32 %34 to i64
  %36 = getelementptr inbounds ptr, ptr %32, i64 %35
  %37 = load ptr, ptr %36, align 8, !tbaa !124
  %38 = icmp eq ptr %37, null
  br i1 %38, label %39, label %42

39:                                               ; preds = %33
  %40 = add i32 %34, 1
  store i32 %40, ptr %22, align 8, !tbaa !180
  %41 = icmp eq i32 %40, %28
  br i1 %41, label %43, label %33

42:                                               ; preds = %33
  store ptr %37, ptr %14, align 8, !tbaa !177
  br label %43

43:                                               ; preds = %39, %17, %21, %42
  %44 = getelementptr inbounds %"struct.xercesc_2_5::RefHashTableBucketElem.57", ptr %15, i64 0, i32 2
  %45 = load ptr, ptr %44, align 8, !tbaa !186
  ret ptr %45
}

declare noundef zeroext i1 @_ZN11xercesc_2_517XObjectComparator12isEquivalentEPNS_12KVStringPairES2_(ptr noundef, ptr noundef) local_unnamed_addr #1

; Function Attrs: uwtable
define linkonce_odr dso_local void @_ZN11xercesc_2_524RefHashTableOfEnumeratorINS_12KVStringPairEED2Ev(ptr noundef nonnull align 8 dereferenceable(48) %0) unnamed_addr #2 comdat align 2 personality ptr @__gxx_personality_v0 {
  store ptr getelementptr inbounds ({ [7 x ptr] }, ptr @_ZTVN11xercesc_2_524RefHashTableOfEnumeratorINS_12KVStringPairEEE, i64 0, inrange i32 0, i64 2), ptr %0, align 8, !tbaa !172
  %2 = getelementptr inbounds %"class.xercesc_2_5::RefHashTableOfEnumerator", ptr %0, i64 0, i32 1
  %3 = load i8, ptr %2, align 8, !tbaa !174, !range !187, !noundef !188
  %4 = icmp eq i8 %3, 0
  br i1 %4, label %72, label %5

5:                                                ; preds = %1
  %6 = getelementptr inbounds %"class.xercesc_2_5::RefHashTableOfEnumerator", ptr %0, i64 0, i32 4
  %7 = load ptr, ptr %6, align 8, !tbaa !178
  %8 = icmp eq ptr %7, null
  br i1 %8, label %72, label %9

9:                                                ; preds = %5
  %10 = getelementptr inbounds %"class.xercesc_2_5::RefHashTableOf", ptr %7, i64 0, i32 3
  %11 = load i32, ptr %10, align 8, !tbaa !181
  %12 = icmp eq i32 %11, 0
  br i1 %12, label %49, label %13

13:                                               ; preds = %9
  %14 = getelementptr inbounds %"class.xercesc_2_5::RefHashTableOf", ptr %7, i64 0, i32 2
  %15 = getelementptr inbounds %"class.xercesc_2_5::RefHashTableOf", ptr %7, i64 0, i32 1
  br label %16

16:                                               ; preds = %42, %13
  %17 = phi i32 [ %11, %13 ], [ %43, %42 ]
  %18 = phi i64 [ 0, %13 ], [ %46, %42 ]
  %19 = load ptr, ptr %14, align 8, !tbaa !182
  %20 = getelementptr inbounds ptr, ptr %19, i64 %18
  %21 = load ptr, ptr %20, align 8, !tbaa !124
  %22 = icmp eq ptr %21, null
  br i1 %22, label %42, label %23

23:                                               ; preds = %16, %37
  %24 = phi ptr [ %26, %37 ], [ %21, %16 ]
  %25 = getelementptr inbounds %"struct.xercesc_2_5::RefHashTableBucketElem.57", ptr %24, i64 0, i32 1
  %26 = load ptr, ptr %25, align 8, !tbaa !185
  %27 = load i8, ptr %15, align 8, !tbaa !189, !range !187, !noundef !188
  %28 = icmp eq i8 %27, 0
  br i1 %28, label %36, label %29

29:                                               ; preds = %23
  %30 = load ptr, ptr %24, align 8, !tbaa !183
  %31 = icmp eq ptr %30, null
  br i1 %31, label %36, label %32

32:                                               ; preds = %29
  %33 = load ptr, ptr %30, align 8, !tbaa !172
  %34 = getelementptr inbounds ptr, ptr %33, i64 1
  %35 = load ptr, ptr %34, align 8
  invoke void %35(ptr noundef nonnull align 8 dereferenceable(48) %30)
          to label %36 unwind label %66

36:                                               ; preds = %32, %29, %23
  invoke void @_ZN11xercesc_2_57XMemorydlEPv(ptr noundef nonnull %24)
          to label %37 unwind label %66

37:                                               ; preds = %36
  %38 = icmp eq ptr %26, null
  br i1 %38, label %39, label %23

39:                                               ; preds = %37
  %40 = load ptr, ptr %14, align 8, !tbaa !182
  %41 = load i32, ptr %10, align 8, !tbaa !181
  br label %42

42:                                               ; preds = %39, %16
  %43 = phi i32 [ %41, %39 ], [ %17, %16 ]
  %44 = phi ptr [ %40, %39 ], [ %19, %16 ]
  %45 = getelementptr inbounds ptr, ptr %44, i64 %18
  store ptr null, ptr %45, align 8, !tbaa !124
  %46 = add nuw nsw i64 %18, 1
  %47 = zext i32 %43 to i64
  %48 = icmp ult i64 %46, %47
  br i1 %48, label %16, label %49

49:                                               ; preds = %42, %9
  %50 = getelementptr inbounds %"class.xercesc_2_5::RefHashTableOf", ptr %7, i64 0, i32 5
  store i32 0, ptr %50, align 8, !tbaa !190
  %51 = load ptr, ptr %7, align 8, !tbaa !170
  %52 = getelementptr inbounds %"class.xercesc_2_5::RefHashTableOf", ptr %7, i64 0, i32 2
  %53 = load ptr, ptr %52, align 8, !tbaa !182
  %54 = load ptr, ptr %51, align 8, !tbaa !172
  %55 = getelementptr inbounds ptr, ptr %54, i64 3
  %56 = load ptr, ptr %55, align 8
  invoke void %56(ptr noundef nonnull align 8 dereferenceable(8) %51, ptr noundef %53)
          to label %57 unwind label %68

57:                                               ; preds = %49
  %58 = getelementptr inbounds %"class.xercesc_2_5::RefHashTableOf", ptr %7, i64 0, i32 6
  %59 = load ptr, ptr %58, align 8, !tbaa !191
  %60 = icmp eq ptr %59, null
  br i1 %60, label %65, label %61

61:                                               ; preds = %57
  %62 = load ptr, ptr %59, align 8, !tbaa !172
  %63 = getelementptr inbounds ptr, ptr %62, i64 3
  %64 = load ptr, ptr %63, align 8
  invoke void %64(ptr noundef nonnull align 8 dereferenceable(8) %59)
          to label %65 unwind label %68

65:                                               ; preds = %57, %61
  tail call void @_ZN11xercesc_2_57XMemorydlEPv(ptr noundef nonnull %7)
  br label %72

66:                                               ; preds = %32, %36
  %67 = landingpad { ptr, i32 }
          cleanup
  br label %70

68:                                               ; preds = %49, %61
  %69 = landingpad { ptr, i32 }
          cleanup
  br label %70

70:                                               ; preds = %68, %66
  %71 = phi { ptr, i32 } [ %67, %66 ], [ %69, %68 ]
  invoke void @_ZN11xercesc_2_57XMemorydlEPv(ptr noundef nonnull %7)
          to label %73 unwind label %74

72:                                               ; preds = %65, %5, %1
  ret void

73:                                               ; preds = %70
  resume { ptr, i32 } %71

74:                                               ; preds = %70
  %75 = landingpad { ptr, i32 }
          catch ptr null
  %76 = extractvalue { ptr, i32 } %75, 0
  tail call void @__clang_call_terminate(ptr %76) #7
  unreachable
}

; Function Attrs: uwtable
define dso_local noundef zeroext i1 @_ZN11xercesc_2_519XTemplateComparator12isEquivalentEPNS_14RefHashTableOfINS_9XMLAttDefEEES4_(ptr noundef %0, ptr noundef %1) local_unnamed_addr #2 align 2 personality ptr @__gxx_personality_v0 {
  %3 = alloca i32, align 4
  %4 = alloca i32, align 4
  %5 = alloca %"class.xercesc_2_5::RefHashTableOfEnumerator.19", align 8
  %6 = alloca %"class.xercesc_2_5::RefHashTableOfEnumerator.19", align 8
  %7 = icmp eq ptr %0, %1
  br i1 %7, label %166, label %8

8:                                                ; preds = %2
  %9 = icmp ne ptr %0, null
  %10 = icmp ne ptr %1, null
  %11 = xor i1 %9, %10
  br i1 %11, label %166, label %12

12:                                               ; preds = %8
  call void @llvm.lifetime.start.p0(i64 48, ptr nonnull %5) #6
  %13 = load ptr, ptr %0, align 8, !tbaa !192
  store ptr getelementptr inbounds ({ [7 x ptr] }, ptr @_ZTVN11xercesc_2_524RefHashTableOfEnumeratorINS_9XMLAttDefEEE, i64 0, inrange i32 0, i64 2), ptr %5, align 8, !tbaa !172
  %14 = getelementptr inbounds %"class.xercesc_2_5::RefHashTableOfEnumerator.19", ptr %5, i64 0, i32 1
  store i8 0, ptr %14, align 8, !tbaa !194
  %15 = getelementptr inbounds %"class.xercesc_2_5::RefHashTableOfEnumerator.19", ptr %5, i64 0, i32 2
  store ptr null, ptr %15, align 8, !tbaa !197
  %16 = getelementptr inbounds %"class.xercesc_2_5::RefHashTableOfEnumerator.19", ptr %5, i64 0, i32 3
  %17 = getelementptr inbounds %"class.xercesc_2_5::RefHashTableOfEnumerator.19", ptr %5, i64 0, i32 4
  store ptr %0, ptr %17, align 8, !tbaa !198
  %18 = getelementptr inbounds %"class.xercesc_2_5::RefHashTableOfEnumerator.19", ptr %5, i64 0, i32 5
  store ptr %13, ptr %18, align 8, !tbaa !199
  store i32 0, ptr %16, align 8, !tbaa !200
  %19 = getelementptr inbounds %"class.xercesc_2_5::RefHashTableOf.21", ptr %0, i64 0, i32 3
  %20 = load i32, ptr %19, align 8, !tbaa !201
  %21 = icmp eq i32 %20, 0
  br i1 %21, label %36, label %22

22:                                               ; preds = %12
  %23 = getelementptr inbounds %"class.xercesc_2_5::RefHashTableOf.21", ptr %0, i64 0, i32 2
  %24 = load ptr, ptr %23, align 8, !tbaa !202
  %25 = zext i32 %20 to i64
  br label %26

26:                                               ; preds = %31, %22
  %27 = phi i64 [ %32, %31 ], [ 0, %22 ]
  %28 = getelementptr inbounds ptr, ptr %24, i64 %27
  %29 = load ptr, ptr %28, align 8, !tbaa !124
  %30 = icmp eq ptr %29, null
  br i1 %30, label %31, label %35

31:                                               ; preds = %26
  %32 = add nuw nsw i64 %27, 1
  %33 = trunc i64 %32 to i32
  store i32 %33, ptr %16, align 8, !tbaa !200
  %34 = icmp eq i64 %32, %25
  br i1 %34, label %36, label %26

35:                                               ; preds = %26
  store ptr %29, ptr %15, align 8, !tbaa !197
  br label %36

36:                                               ; preds = %31, %12, %35
  %37 = phi ptr [ %29, %35 ], [ null, %12 ], [ null, %31 ]
  br label %38

38:                                               ; preds = %36, %50
  %39 = phi ptr [ %52, %50 ], [ %37, %36 ]
  %40 = phi i32 [ %51, %50 ], [ 0, %36 ]
  %41 = icmp eq ptr %39, null
  br i1 %41, label %42, label %48

42:                                               ; preds = %38
  %43 = load i32, ptr %16, align 8, !tbaa !200
  %44 = load ptr, ptr %17, align 8, !tbaa !198
  %45 = getelementptr inbounds %"class.xercesc_2_5::RefHashTableOf.21", ptr %44, i64 0, i32 3
  %46 = load i32, ptr %45, align 8, !tbaa !201
  %47 = icmp eq i32 %43, %46
  br i1 %47, label %55, label %48

48:                                               ; preds = %38, %42
  %49 = invoke noundef nonnull align 8 dereferenceable(56) ptr @_ZN11xercesc_2_524RefHashTableOfEnumeratorINS_9XMLAttDefEE11nextElementEv(ptr noundef nonnull align 8 dereferenceable(48) %5)
          to label %50 unwind label %53

50:                                               ; preds = %48
  %51 = add nuw nsw i32 %40, 1
  %52 = load ptr, ptr %15, align 8, !tbaa !197
  br label %38

53:                                               ; preds = %48
  %54 = landingpad { ptr, i32 }
          cleanup
  br label %163

55:                                               ; preds = %42
  call void @llvm.lifetime.start.p0(i64 48, ptr nonnull %6) #6
  %56 = load ptr, ptr %1, align 8, !tbaa !192
  store ptr getelementptr inbounds ({ [7 x ptr] }, ptr @_ZTVN11xercesc_2_524RefHashTableOfEnumeratorINS_9XMLAttDefEEE, i64 0, inrange i32 0, i64 2), ptr %6, align 8, !tbaa !172
  %57 = getelementptr inbounds %"class.xercesc_2_5::RefHashTableOfEnumerator.19", ptr %6, i64 0, i32 1
  store i8 0, ptr %57, align 8, !tbaa !194
  %58 = getelementptr inbounds %"class.xercesc_2_5::RefHashTableOfEnumerator.19", ptr %6, i64 0, i32 2
  store ptr null, ptr %58, align 8, !tbaa !197
  %59 = getelementptr inbounds %"class.xercesc_2_5::RefHashTableOfEnumerator.19", ptr %6, i64 0, i32 3
  %60 = getelementptr inbounds %"class.xercesc_2_5::RefHashTableOfEnumerator.19", ptr %6, i64 0, i32 4
  store ptr %1, ptr %60, align 8, !tbaa !198
  %61 = getelementptr inbounds %"class.xercesc_2_5::RefHashTableOfEnumerator.19", ptr %6, i64 0, i32 5
  store ptr %56, ptr %61, align 8, !tbaa !199
  store i32 0, ptr %59, align 8, !tbaa !200
  %62 = getelementptr inbounds %"class.xercesc_2_5::RefHashTableOf.21", ptr %1, i64 0, i32 3
  %63 = load i32, ptr %62, align 8, !tbaa !201
  %64 = icmp eq i32 %63, 0
  br i1 %64, label %79, label %65

65:                                               ; preds = %55
  %66 = getelementptr inbounds %"class.xercesc_2_5::RefHashTableOf.21", ptr %1, i64 0, i32 2
  %67 = load ptr, ptr %66, align 8, !tbaa !202
  %68 = zext i32 %63 to i64
  br label %69

69:                                               ; preds = %74, %65
  %70 = phi i64 [ %75, %74 ], [ 0, %65 ]
  %71 = getelementptr inbounds ptr, ptr %67, i64 %70
  %72 = load ptr, ptr %71, align 8, !tbaa !124
  %73 = icmp eq ptr %72, null
  br i1 %73, label %74, label %78

74:                                               ; preds = %69
  %75 = add nuw nsw i64 %70, 1
  %76 = trunc i64 %75 to i32
  store i32 %76, ptr %59, align 8, !tbaa !200
  %77 = icmp eq i64 %75, %68
  br i1 %77, label %79, label %69

78:                                               ; preds = %69
  store ptr %72, ptr %58, align 8, !tbaa !197
  br label %79

79:                                               ; preds = %74, %55, %78
  %80 = phi ptr [ %72, %78 ], [ null, %55 ], [ null, %74 ]
  br label %81

81:                                               ; preds = %79, %93
  %82 = phi ptr [ %95, %93 ], [ %80, %79 ]
  %83 = phi i32 [ %94, %93 ], [ 0, %79 ]
  %84 = icmp eq ptr %82, null
  br i1 %84, label %85, label %91

85:                                               ; preds = %81
  %86 = load i32, ptr %59, align 8, !tbaa !200
  %87 = load ptr, ptr %60, align 8, !tbaa !198
  %88 = getelementptr inbounds %"class.xercesc_2_5::RefHashTableOf.21", ptr %87, i64 0, i32 3
  %89 = load i32, ptr %88, align 8, !tbaa !201
  %90 = icmp eq i32 %86, %89
  br i1 %90, label %100, label %91

91:                                               ; preds = %81, %85
  %92 = invoke noundef nonnull align 8 dereferenceable(56) ptr @_ZN11xercesc_2_524RefHashTableOfEnumeratorINS_9XMLAttDefEE11nextElementEv(ptr noundef nonnull align 8 dereferenceable(48) %6)
          to label %93 unwind label %98

93:                                               ; preds = %91
  %94 = add nuw nsw i32 %83, 1
  %95 = load ptr, ptr %58, align 8, !tbaa !197
  br label %81

96:                                               ; preds = %156
  %97 = landingpad { ptr, i32 }
          cleanup
  br label %161

98:                                               ; preds = %91
  %99 = landingpad { ptr, i32 }
          cleanup
  br label %158

100:                                              ; preds = %85
  %101 = icmp eq i32 %40, %83
  br i1 %101, label %102, label %156

102:                                              ; preds = %100
  store ptr null, ptr %15, align 8, !tbaa !197
  store i32 0, ptr %16, align 8, !tbaa !200
  %103 = load ptr, ptr %17, align 8, !tbaa !198
  %104 = getelementptr inbounds %"class.xercesc_2_5::RefHashTableOf.21", ptr %103, i64 0, i32 3
  %105 = load i32, ptr %104, align 8, !tbaa !201
  %106 = icmp eq i32 %105, 0
  br i1 %106, label %121, label %107

107:                                              ; preds = %102
  %108 = getelementptr inbounds %"class.xercesc_2_5::RefHashTableOf.21", ptr %103, i64 0, i32 2
  %109 = load ptr, ptr %108, align 8, !tbaa !202
  %110 = zext i32 %105 to i64
  br label %111

111:                                              ; preds = %116, %107
  %112 = phi i64 [ %117, %116 ], [ 0, %107 ]
  %113 = getelementptr inbounds ptr, ptr %109, i64 %112
  %114 = load ptr, ptr %113, align 8, !tbaa !124
  %115 = icmp eq ptr %114, null
  br i1 %115, label %116, label %120

116:                                              ; preds = %111
  %117 = add nuw nsw i64 %112, 1
  %118 = trunc i64 %117 to i32
  store i32 %118, ptr %16, align 8, !tbaa !200
  %119 = icmp eq i64 %117, %110
  br i1 %119, label %121, label %111

120:                                              ; preds = %111
  store ptr %114, ptr %15, align 8, !tbaa !197
  br label %121

121:                                              ; preds = %116, %102, %120
  br label %122

122:                                              ; preds = %121, %155
  %123 = load ptr, ptr %15, align 8, !tbaa !197
  %124 = icmp eq ptr %123, null
  br i1 %124, label %125, label %131

125:                                              ; preds = %122
  %126 = load i32, ptr %16, align 8, !tbaa !200
  %127 = load ptr, ptr %17, align 8, !tbaa !198
  %128 = getelementptr inbounds %"class.xercesc_2_5::RefHashTableOf.21", ptr %127, i64 0, i32 3
  %129 = load i32, ptr %128, align 8, !tbaa !201
  %130 = icmp eq i32 %126, %129
  br i1 %130, label %156, label %131

131:                                              ; preds = %122, %125
  %132 = invoke noundef ptr @_ZN11xercesc_2_524RefHashTableOfEnumeratorINS_9XMLAttDefEE14nextElementKeyEv(ptr noundef nonnull align 8 dereferenceable(48) %5)
          to label %133 unwind label %149

133:                                              ; preds = %131
  call void @llvm.lifetime.start.p0(i64 4, ptr nonnull %4) #6
  %134 = invoke noundef ptr @_ZN11xercesc_2_514RefHashTableOfINS_9XMLAttDefEE14findBucketElemEPKvRj(ptr noundef nonnull align 8 dereferenceable(48) %0, ptr noundef %132, ptr noundef nonnull align 4 dereferenceable(4) %4)
          to label %135 unwind label %151

135:                                              ; preds = %133
  %136 = icmp eq ptr %134, null
  br i1 %136, label %139, label %137

137:                                              ; preds = %135
  %138 = load ptr, ptr %134, align 8, !tbaa !203
  br label %139

139:                                              ; preds = %137, %135
  %140 = phi ptr [ %138, %137 ], [ null, %135 ]
  call void @llvm.lifetime.end.p0(i64 4, ptr nonnull %4) #6
  call void @llvm.lifetime.start.p0(i64 4, ptr nonnull %3) #6
  %141 = invoke noundef ptr @_ZN11xercesc_2_514RefHashTableOfINS_9XMLAttDefEE14findBucketElemEPKvRj(ptr noundef nonnull align 8 dereferenceable(48) %1, ptr noundef %132, ptr noundef nonnull align 4 dereferenceable(4) %3)
          to label %142 unwind label %153

142:                                              ; preds = %139
  %143 = icmp eq ptr %141, null
  br i1 %143, label %146, label %144

144:                                              ; preds = %142
  %145 = load ptr, ptr %141, align 8, !tbaa !203
  br label %146

146:                                              ; preds = %144, %142
  %147 = phi ptr [ %145, %144 ], [ null, %142 ]
  call void @llvm.lifetime.end.p0(i64 4, ptr nonnull %3) #6
  %148 = invoke noundef zeroext i1 @_ZN11xercesc_2_517XObjectComparator12isEquivalentEPNS_12SchemaAttDefES2_(ptr noundef %140, ptr noundef %147)
          to label %155 unwind label %153

149:                                              ; preds = %131
  %150 = landingpad { ptr, i32 }
          cleanup
  br label %158

151:                                              ; preds = %133
  %152 = landingpad { ptr, i32 }
          cleanup
  br label %158

153:                                              ; preds = %139, %146
  %154 = landingpad { ptr, i32 }
          cleanup
  br label %158

155:                                              ; preds = %146
  br i1 %148, label %122, label %156

156:                                              ; preds = %125, %155, %100
  %157 = phi i1 [ false, %100 ], [ true, %125 ], [ false, %155 ]
  invoke void @_ZN11xercesc_2_524RefHashTableOfEnumeratorINS_9XMLAttDefEED2Ev(ptr noundef nonnull align 8 dereferenceable(48) %6)
          to label %160 unwind label %96

158:                                              ; preds = %149, %153, %151, %98
  %159 = phi { ptr, i32 } [ %99, %98 ], [ %150, %149 ], [ %154, %153 ], [ %152, %151 ]
  invoke void @_ZN11xercesc_2_524RefHashTableOfEnumeratorINS_9XMLAttDefEED2Ev(ptr noundef nonnull align 8 dereferenceable(48) %6)
          to label %161 unwind label %168

160:                                              ; preds = %156
  call void @llvm.lifetime.end.p0(i64 48, ptr nonnull %6) #6
  call void @_ZN11xercesc_2_524RefHashTableOfEnumeratorINS_9XMLAttDefEED2Ev(ptr noundef nonnull align 8 dereferenceable(48) %5)
  call void @llvm.lifetime.end.p0(i64 48, ptr nonnull %5) #6
  br label %166

161:                                              ; preds = %158, %96
  %162 = phi { ptr, i32 } [ %159, %158 ], [ %97, %96 ]
  call void @llvm.lifetime.end.p0(i64 48, ptr nonnull %6) #6
  br label %163

163:                                              ; preds = %161, %53
  %164 = phi { ptr, i32 } [ %54, %53 ], [ %162, %161 ]
  invoke void @_ZN11xercesc_2_524RefHashTableOfEnumeratorINS_9XMLAttDefEED2Ev(ptr noundef nonnull align 8 dereferenceable(48) %5)
          to label %165 unwind label %168

165:                                              ; preds = %163
  call void @llvm.lifetime.end.p0(i64 48, ptr nonnull %5) #6
  resume { ptr, i32 } %164

166:                                              ; preds = %8, %2, %160
  %167 = phi i1 [ %157, %160 ], [ true, %2 ], [ false, %8 ]
  ret i1 %167

168:                                              ; preds = %163, %158
  %169 = landingpad { ptr, i32 }
          catch ptr null
  %170 = extractvalue { ptr, i32 } %169, 0
  call void @__clang_call_terminate(ptr %170) #7
  unreachable
}

; Function Attrs: nounwind uwtable
define linkonce_odr dso_local noundef zeroext i1 @_ZNK11xercesc_2_524RefHashTableOfEnumeratorINS_9XMLAttDefEE15hasMoreElementsEv(ptr noundef nonnull align 8 dereferenceable(48) %0) unnamed_addr #5 comdat align 2 {
  %2 = getelementptr inbounds %"class.xercesc_2_5::RefHashTableOfEnumerator.19", ptr %0, i64 0, i32 2
  %3 = load ptr, ptr %2, align 8, !tbaa !197
  %4 = icmp eq ptr %3, null
  br i1 %4, label %5, label %13

5:                                                ; preds = %1
  %6 = getelementptr inbounds %"class.xercesc_2_5::RefHashTableOfEnumerator.19", ptr %0, i64 0, i32 3
  %7 = load i32, ptr %6, align 8, !tbaa !200
  %8 = getelementptr inbounds %"class.xercesc_2_5::RefHashTableOfEnumerator.19", ptr %0, i64 0, i32 4
  %9 = load ptr, ptr %8, align 8, !tbaa !198
  %10 = getelementptr inbounds %"class.xercesc_2_5::RefHashTableOf.21", ptr %9, i64 0, i32 3
  %11 = load i32, ptr %10, align 8, !tbaa !201
  %12 = icmp eq i32 %7, %11
  br i1 %12, label %14, label %13

13:                                               ; preds = %5, %1
  br label %14

14:                                               ; preds = %5, %13
  %15 = phi i1 [ true, %13 ], [ false, %5 ]
  ret i1 %15
}

; Function Attrs: uwtable
define linkonce_odr dso_local noundef nonnull align 8 dereferenceable(56) ptr @_ZN11xercesc_2_524RefHashTableOfEnumeratorINS_9XMLAttDefEE11nextElementEv(ptr noundef nonnull align 8 dereferenceable(48) %0) unnamed_addr #2 comdat align 2 personality ptr @__gxx_personality_v0 {
  %2 = load ptr, ptr %0, align 8, !tbaa !172
  %3 = getelementptr inbounds ptr, ptr %2, i64 2
  %4 = load ptr, ptr %3, align 8
  %5 = tail call noundef zeroext i1 %4(ptr noundef nonnull align 8 dereferenceable(48) %0)
  br i1 %5, label %13, label %6

6:                                                ; preds = %1
  %7 = tail call ptr @__cxa_allocate_exception(i64 48) #6
  %8 = getelementptr inbounds %"class.xercesc_2_5::RefHashTableOfEnumerator.19", ptr %0, i64 0, i32 5
  %9 = load ptr, ptr %8, align 8, !tbaa !199
  invoke void @_ZN11xercesc_2_522NoSuchElementExceptionC2EPKcjNS_10XMLExcepts5CodesEPNS_13MemoryManagerE(ptr noundef nonnull align 8 dereferenceable(48) %7, ptr noundef nonnull @.str.2, i32 noundef 674, i32 noundef 30, ptr noundef %9)
          to label %10 unwind label %11

10:                                               ; preds = %6
  tail call void @__cxa_throw(ptr nonnull %7, ptr nonnull @_ZTIN11xercesc_2_522NoSuchElementExceptionE, ptr nonnull @_ZN11xercesc_2_512XMLExceptionD2Ev) #8
  unreachable

11:                                               ; preds = %6
  %12 = landingpad { ptr, i32 }
          cleanup
  tail call void @__cxa_free_exception(ptr %7) #6
  resume { ptr, i32 } %12

13:                                               ; preds = %1
  %14 = getelementptr inbounds %"class.xercesc_2_5::RefHashTableOfEnumerator.19", ptr %0, i64 0, i32 2
  %15 = load ptr, ptr %14, align 8, !tbaa !197
  %16 = icmp eq ptr %15, null
  br i1 %16, label %21, label %17

17:                                               ; preds = %13
  %18 = getelementptr inbounds %"struct.xercesc_2_5::RefHashTableBucketElem.58", ptr %15, i64 0, i32 1
  %19 = load ptr, ptr %18, align 8, !tbaa !205
  store ptr %19, ptr %14, align 8, !tbaa !197
  %20 = icmp eq ptr %19, null
  br i1 %20, label %21, label %43

21:                                               ; preds = %17, %13
  %22 = getelementptr inbounds %"class.xercesc_2_5::RefHashTableOfEnumerator.19", ptr %0, i64 0, i32 3
  %23 = load i32, ptr %22, align 8, !tbaa !200
  %24 = add i32 %23, 1
  store i32 %24, ptr %22, align 8, !tbaa !200
  %25 = getelementptr inbounds %"class.xercesc_2_5::RefHashTableOfEnumerator.19", ptr %0, i64 0, i32 4
  %26 = load ptr, ptr %25, align 8, !tbaa !198
  %27 = getelementptr inbounds %"class.xercesc_2_5::RefHashTableOf.21", ptr %26, i64 0, i32 3
  %28 = load i32, ptr %27, align 8, !tbaa !201
  %29 = icmp eq i32 %24, %28
  br i1 %29, label %43, label %30

30:                                               ; preds = %21
  %31 = getelementptr inbounds %"class.xercesc_2_5::RefHashTableOf.21", ptr %26, i64 0, i32 2
  %32 = load ptr, ptr %31, align 8, !tbaa !202
  br label %33

33:                                               ; preds = %39, %30
  %34 = phi i32 [ %24, %30 ], [ %40, %39 ]
  %35 = zext i32 %34 to i64
  %36 = getelementptr inbounds ptr, ptr %32, i64 %35
  %37 = load ptr, ptr %36, align 8, !tbaa !124
  %38 = icmp eq ptr %37, null
  br i1 %38, label %39, label %42

39:                                               ; preds = %33
  %40 = add i32 %34, 1
  store i32 %40, ptr %22, align 8, !tbaa !200
  %41 = icmp eq i32 %40, %28
  br i1 %41, label %43, label %33

42:                                               ; preds = %33
  store ptr %37, ptr %14, align 8, !tbaa !197
  br label %43

43:                                               ; preds = %39, %17, %21, %42
  %44 = load ptr, ptr %15, align 8, !tbaa !203
  ret ptr %44
}

; Function Attrs: nounwind uwtable
define linkonce_odr dso_local void @_ZN11xercesc_2_524RefHashTableOfEnumeratorINS_9XMLAttDefEE5ResetEv(ptr noundef nonnull align 8 dereferenceable(48) %0) unnamed_addr #5 comdat align 2 {
  %2 = getelementptr inbounds %"class.xercesc_2_5::RefHashTableOfEnumerator.19", ptr %0, i64 0, i32 3
  %3 = getelementptr inbounds %"class.xercesc_2_5::RefHashTableOfEnumerator.19", ptr %0, i64 0, i32 2
  store ptr null, ptr %3, align 8, !tbaa !197
  store i32 0, ptr %2, align 8, !tbaa !200
  %4 = getelementptr inbounds %"class.xercesc_2_5::RefHashTableOfEnumerator.19", ptr %0, i64 0, i32 4
  %5 = load ptr, ptr %4, align 8, !tbaa !198
  %6 = getelementptr inbounds %"class.xercesc_2_5::RefHashTableOf.21", ptr %5, i64 0, i32 3
  %7 = load i32, ptr %6, align 8, !tbaa !201
  %8 = icmp eq i32 %7, 0
  br i1 %8, label %22, label %9

9:                                                ; preds = %1
  %10 = getelementptr inbounds %"class.xercesc_2_5::RefHashTableOf.21", ptr %5, i64 0, i32 2
  %11 = load ptr, ptr %10, align 8, !tbaa !202
  br label %12

12:                                               ; preds = %18, %9
  %13 = phi i32 [ 0, %9 ], [ %19, %18 ]
  %14 = zext i32 %13 to i64
  %15 = getelementptr inbounds ptr, ptr %11, i64 %14
  %16 = load ptr, ptr %15, align 8, !tbaa !124
  %17 = icmp eq ptr %16, null
  br i1 %17, label %18, label %21

18:                                               ; preds = %12
  %19 = add nuw i32 %13, 1
  store i32 %19, ptr %2, align 8, !tbaa !200
  %20 = icmp eq i32 %19, %7
  br i1 %20, label %22, label %12

21:                                               ; preds = %12
  store ptr %16, ptr %3, align 8, !tbaa !197
  br label %22

22:                                               ; preds = %18, %1, %21
  ret void
}

; Function Attrs: uwtable
define linkonce_odr dso_local noundef ptr @_ZN11xercesc_2_524RefHashTableOfEnumeratorINS_9XMLAttDefEE14nextElementKeyEv(ptr noundef nonnull align 8 dereferenceable(48) %0) local_unnamed_addr #2 comdat align 2 personality ptr @__gxx_personality_v0 {
  %2 = load ptr, ptr %0, align 8, !tbaa !172
  %3 = getelementptr inbounds ptr, ptr %2, i64 2
  %4 = load ptr, ptr %3, align 8
  %5 = tail call noundef zeroext i1 %4(ptr noundef nonnull align 8 dereferenceable(48) %0)
  br i1 %5, label %13, label %6

6:                                                ; preds = %1
  %7 = tail call ptr @__cxa_allocate_exception(i64 48) #6
  %8 = getelementptr inbounds %"class.xercesc_2_5::RefHashTableOfEnumerator.19", ptr %0, i64 0, i32 5
  %9 = load ptr, ptr %8, align 8, !tbaa !199
  invoke void @_ZN11xercesc_2_522NoSuchElementExceptionC2EPKcjNS_10XMLExcepts5CodesEPNS_13MemoryManagerE(ptr noundef nonnull align 8 dereferenceable(48) %7, ptr noundef nonnull @.str.2, i32 noundef 690, i32 noundef 30, ptr noundef %9)
          to label %10 unwind label %11

10:                                               ; preds = %6
  tail call void @__cxa_throw(ptr nonnull %7, ptr nonnull @_ZTIN11xercesc_2_522NoSuchElementExceptionE, ptr nonnull @_ZN11xercesc_2_512XMLExceptionD2Ev) #8
  unreachable

11:                                               ; preds = %6
  %12 = landingpad { ptr, i32 }
          cleanup
  tail call void @__cxa_free_exception(ptr %7) #6
  resume { ptr, i32 } %12

13:                                               ; preds = %1
  %14 = getelementptr inbounds %"class.xercesc_2_5::RefHashTableOfEnumerator.19", ptr %0, i64 0, i32 2
  %15 = load ptr, ptr %14, align 8, !tbaa !197
  %16 = icmp eq ptr %15, null
  br i1 %16, label %21, label %17

17:                                               ; preds = %13
  %18 = getelementptr inbounds %"struct.xercesc_2_5::RefHashTableBucketElem.58", ptr %15, i64 0, i32 1
  %19 = load ptr, ptr %18, align 8, !tbaa !205
  store ptr %19, ptr %14, align 8, !tbaa !197
  %20 = icmp eq ptr %19, null
  br i1 %20, label %21, label %43

21:                                               ; preds = %17, %13
  %22 = getelementptr inbounds %"class.xercesc_2_5::RefHashTableOfEnumerator.19", ptr %0, i64 0, i32 3
  %23 = load i32, ptr %22, align 8, !tbaa !200
  %24 = add i32 %23, 1
  store i32 %24, ptr %22, align 8, !tbaa !200
  %25 = getelementptr inbounds %"class.xercesc_2_5::RefHashTableOfEnumerator.19", ptr %0, i64 0, i32 4
  %26 = load ptr, ptr %25, align 8, !tbaa !198
  %27 = getelementptr inbounds %"class.xercesc_2_5::RefHashTableOf.21", ptr %26, i64 0, i32 3
  %28 = load i32, ptr %27, align 8, !tbaa !201
  %29 = icmp eq i32 %24, %28
  br i1 %29, label %43, label %30

30:                                               ; preds = %21
  %31 = getelementptr inbounds %"class.xercesc_2_5::RefHashTableOf.21", ptr %26, i64 0, i32 2
  %32 = load ptr, ptr %31, align 8, !tbaa !202
  br label %33

33:                                               ; preds = %39, %30
  %34 = phi i32 [ %24, %30 ], [ %40, %39 ]
  %35 = zext i32 %34 to i64
  %36 = getelementptr inbounds ptr, ptr %32, i64 %35
  %37 = load ptr, ptr %36, align 8, !tbaa !124
  %38 = icmp eq ptr %37, null
  br i1 %38, label %39, label %42

39:                                               ; preds = %33
  %40 = add i32 %34, 1
  store i32 %40, ptr %22, align 8, !tbaa !200
  %41 = icmp eq i32 %40, %28
  br i1 %41, label %43, label %33

42:                                               ; preds = %33
  store ptr %37, ptr %14, align 8, !tbaa !197
  br label %43

43:                                               ; preds = %39, %17, %21, %42
  %44 = getelementptr inbounds %"struct.xercesc_2_5::RefHashTableBucketElem.58", ptr %15, i64 0, i32 2
  %45 = load ptr, ptr %44, align 8, !tbaa !206
  ret ptr %45
}

; Function Attrs: uwtable
define linkonce_odr dso_local void @_ZN11xercesc_2_524RefHashTableOfEnumeratorINS_9XMLAttDefEED2Ev(ptr noundef nonnull align 8 dereferenceable(48) %0) unnamed_addr #2 comdat align 2 personality ptr @__gxx_personality_v0 {
  store ptr getelementptr inbounds ({ [7 x ptr] }, ptr @_ZTVN11xercesc_2_524RefHashTableOfEnumeratorINS_9XMLAttDefEEE, i64 0, inrange i32 0, i64 2), ptr %0, align 8, !tbaa !172
  %2 = getelementptr inbounds %"class.xercesc_2_5::RefHashTableOfEnumerator.19", ptr %0, i64 0, i32 1
  %3 = load i8, ptr %2, align 8, !tbaa !194, !range !187, !noundef !188
  %4 = icmp eq i8 %3, 0
  br i1 %4, label %72, label %5

5:                                                ; preds = %1
  %6 = getelementptr inbounds %"class.xercesc_2_5::RefHashTableOfEnumerator.19", ptr %0, i64 0, i32 4
  %7 = load ptr, ptr %6, align 8, !tbaa !198
  %8 = icmp eq ptr %7, null
  br i1 %8, label %72, label %9

9:                                                ; preds = %5
  %10 = getelementptr inbounds %"class.xercesc_2_5::RefHashTableOf.21", ptr %7, i64 0, i32 3
  %11 = load i32, ptr %10, align 8, !tbaa !201
  %12 = icmp eq i32 %11, 0
  br i1 %12, label %49, label %13

13:                                               ; preds = %9
  %14 = getelementptr inbounds %"class.xercesc_2_5::RefHashTableOf.21", ptr %7, i64 0, i32 2
  %15 = getelementptr inbounds %"class.xercesc_2_5::RefHashTableOf.21", ptr %7, i64 0, i32 1
  br label %16

16:                                               ; preds = %42, %13
  %17 = phi i32 [ %11, %13 ], [ %43, %42 ]
  %18 = phi i64 [ 0, %13 ], [ %46, %42 ]
  %19 = load ptr, ptr %14, align 8, !tbaa !202
  %20 = getelementptr inbounds ptr, ptr %19, i64 %18
  %21 = load ptr, ptr %20, align 8, !tbaa !124
  %22 = icmp eq ptr %21, null
  br i1 %22, label %42, label %23

23:                                               ; preds = %16, %37
  %24 = phi ptr [ %26, %37 ], [ %21, %16 ]
  %25 = getelementptr inbounds %"struct.xercesc_2_5::RefHashTableBucketElem.58", ptr %24, i64 0, i32 1
  %26 = load ptr, ptr %25, align 8, !tbaa !205
  %27 = load i8, ptr %15, align 8, !tbaa !207, !range !187, !noundef !188
  %28 = icmp eq i8 %27, 0
  br i1 %28, label %36, label %29

29:                                               ; preds = %23
  %30 = load ptr, ptr %24, align 8, !tbaa !203
  %31 = icmp eq ptr %30, null
  br i1 %31, label %36, label %32

32:                                               ; preds = %29
  %33 = load ptr, ptr %30, align 8, !tbaa !172
  %34 = getelementptr inbounds ptr, ptr %33, i64 1
  %35 = load ptr, ptr %34, align 8
  invoke void %35(ptr noundef nonnull align 8 dereferenceable(56) %30)
          to label %36 unwind label %66

36:                                               ; preds = %32, %29, %23
  invoke void @_ZN11xercesc_2_57XMemorydlEPv(ptr noundef nonnull %24)
          to label %37 unwind label %66

37:                                               ; preds = %36
  %38 = icmp eq ptr %26, null
  br i1 %38, label %39, label %23

39:                                               ; preds = %37
  %40 = load ptr, ptr %14, align 8, !tbaa !202
  %41 = load i32, ptr %10, align 8, !tbaa !201
  br label %42

42:                                               ; preds = %39, %16
  %43 = phi i32 [ %41, %39 ], [ %17, %16 ]
  %44 = phi ptr [ %40, %39 ], [ %19, %16 ]
  %45 = getelementptr inbounds ptr, ptr %44, i64 %18
  store ptr null, ptr %45, align 8, !tbaa !124
  %46 = add nuw nsw i64 %18, 1
  %47 = zext i32 %43 to i64
  %48 = icmp ult i64 %46, %47
  br i1 %48, label %16, label %49

49:                                               ; preds = %42, %9
  %50 = getelementptr inbounds %"class.xercesc_2_5::RefHashTableOf.21", ptr %7, i64 0, i32 5
  store i32 0, ptr %50, align 8, !tbaa !208
  %51 = load ptr, ptr %7, align 8, !tbaa !192
  %52 = getelementptr inbounds %"class.xercesc_2_5::RefHashTableOf.21", ptr %7, i64 0, i32 2
  %53 = load ptr, ptr %52, align 8, !tbaa !202
  %54 = load ptr, ptr %51, align 8, !tbaa !172
  %55 = getelementptr inbounds ptr, ptr %54, i64 3
  %56 = load ptr, ptr %55, align 8
  invoke void %56(ptr noundef nonnull align 8 dereferenceable(8) %51, ptr noundef %53)
          to label %57 unwind label %68

57:                                               ; preds = %49
  %58 = getelementptr inbounds %"class.xercesc_2_5::RefHashTableOf.21", ptr %7, i64 0, i32 6
  %59 = load ptr, ptr %58, align 8, !tbaa !209
  %60 = icmp eq ptr %59, null
  br i1 %60, label %65, label %61

61:                                               ; preds = %57
  %62 = load ptr, ptr %59, align 8, !tbaa !172
  %63 = getelementptr inbounds ptr, ptr %62, i64 3
  %64 = load ptr, ptr %63, align 8
  invoke void %64(ptr noundef nonnull align 8 dereferenceable(8) %59)
          to label %65 unwind label %68

65:                                               ; preds = %57, %61
  tail call void @_ZN11xercesc_2_57XMemorydlEPv(ptr noundef nonnull %7)
  br label %72

66:                                               ; preds = %32, %36
  %67 = landingpad { ptr, i32 }
          cleanup
  br label %70

68:                                               ; preds = %49, %61
  %69 = landingpad { ptr, i32 }
          cleanup
  br label %70

70:                                               ; preds = %68, %66
  %71 = phi { ptr, i32 } [ %67, %66 ], [ %69, %68 ]
  invoke void @_ZN11xercesc_2_57XMemorydlEPv(ptr noundef nonnull %7)
          to label %73 unwind label %74

72:                                               ; preds = %65, %5, %1
  ret void

73:                                               ; preds = %70
  resume { ptr, i32 } %71

74:                                               ; preds = %70
  %75 = landingpad { ptr, i32 }
          catch ptr null
  %76 = extractvalue { ptr, i32 } %75, 0
  tail call void @__clang_call_terminate(ptr %76) #7
  unreachable
}

; Function Attrs: uwtable
define dso_local noundef zeroext i1 @_ZN11xercesc_2_519XTemplateComparator12isEquivalentEPNS_14RefHashTableOfINS_9DTDAttDefEEES4_(ptr noundef %0, ptr noundef %1) local_unnamed_addr #2 align 2 personality ptr @__gxx_personality_v0 {
  %3 = alloca i32, align 4
  %4 = alloca i32, align 4
  %5 = alloca %"class.xercesc_2_5::RefHashTableOfEnumerator.22", align 8
  %6 = alloca %"class.xercesc_2_5::RefHashTableOfEnumerator.22", align 8
  %7 = icmp eq ptr %0, %1
  br i1 %7, label %166, label %8

8:                                                ; preds = %2
  %9 = icmp ne ptr %0, null
  %10 = icmp ne ptr %1, null
  %11 = xor i1 %9, %10
  br i1 %11, label %166, label %12

12:                                               ; preds = %8
  call void @llvm.lifetime.start.p0(i64 48, ptr nonnull %5) #6
  %13 = load ptr, ptr %0, align 8, !tbaa !210
  store ptr getelementptr inbounds ({ [7 x ptr] }, ptr @_ZTVN11xercesc_2_524RefHashTableOfEnumeratorINS_9DTDAttDefEEE, i64 0, inrange i32 0, i64 2), ptr %5, align 8, !tbaa !172
  %14 = getelementptr inbounds %"class.xercesc_2_5::RefHashTableOfEnumerator.22", ptr %5, i64 0, i32 1
  store i8 0, ptr %14, align 8, !tbaa !212
  %15 = getelementptr inbounds %"class.xercesc_2_5::RefHashTableOfEnumerator.22", ptr %5, i64 0, i32 2
  store ptr null, ptr %15, align 8, !tbaa !215
  %16 = getelementptr inbounds %"class.xercesc_2_5::RefHashTableOfEnumerator.22", ptr %5, i64 0, i32 3
  %17 = getelementptr inbounds %"class.xercesc_2_5::RefHashTableOfEnumerator.22", ptr %5, i64 0, i32 4
  store ptr %0, ptr %17, align 8, !tbaa !216
  %18 = getelementptr inbounds %"class.xercesc_2_5::RefHashTableOfEnumerator.22", ptr %5, i64 0, i32 5
  store ptr %13, ptr %18, align 8, !tbaa !217
  store i32 0, ptr %16, align 8, !tbaa !218
  %19 = getelementptr inbounds %"class.xercesc_2_5::RefHashTableOf.24", ptr %0, i64 0, i32 3
  %20 = load i32, ptr %19, align 8, !tbaa !219
  %21 = icmp eq i32 %20, 0
  br i1 %21, label %36, label %22

22:                                               ; preds = %12
  %23 = getelementptr inbounds %"class.xercesc_2_5::RefHashTableOf.24", ptr %0, i64 0, i32 2
  %24 = load ptr, ptr %23, align 8, !tbaa !220
  %25 = zext i32 %20 to i64
  br label %26

26:                                               ; preds = %31, %22
  %27 = phi i64 [ %32, %31 ], [ 0, %22 ]
  %28 = getelementptr inbounds ptr, ptr %24, i64 %27
  %29 = load ptr, ptr %28, align 8, !tbaa !124
  %30 = icmp eq ptr %29, null
  br i1 %30, label %31, label %35

31:                                               ; preds = %26
  %32 = add nuw nsw i64 %27, 1
  %33 = trunc i64 %32 to i32
  store i32 %33, ptr %16, align 8, !tbaa !218
  %34 = icmp eq i64 %32, %25
  br i1 %34, label %36, label %26

35:                                               ; preds = %26
  store ptr %29, ptr %15, align 8, !tbaa !215
  br label %36

36:                                               ; preds = %31, %12, %35
  %37 = phi ptr [ %29, %35 ], [ null, %12 ], [ null, %31 ]
  br label %38

38:                                               ; preds = %36, %50
  %39 = phi ptr [ %52, %50 ], [ %37, %36 ]
  %40 = phi i32 [ %51, %50 ], [ 0, %36 ]
  %41 = icmp eq ptr %39, null
  br i1 %41, label %42, label %48

42:                                               ; preds = %38
  %43 = load i32, ptr %16, align 8, !tbaa !218
  %44 = load ptr, ptr %17, align 8, !tbaa !216
  %45 = getelementptr inbounds %"class.xercesc_2_5::RefHashTableOf.24", ptr %44, i64 0, i32 3
  %46 = load i32, ptr %45, align 8, !tbaa !219
  %47 = icmp eq i32 %43, %46
  br i1 %47, label %55, label %48

48:                                               ; preds = %38, %42
  %49 = invoke noundef nonnull align 8 dereferenceable(72) ptr @_ZN11xercesc_2_524RefHashTableOfEnumeratorINS_9DTDAttDefEE11nextElementEv(ptr noundef nonnull align 8 dereferenceable(48) %5)
          to label %50 unwind label %53

50:                                               ; preds = %48
  %51 = add nuw nsw i32 %40, 1
  %52 = load ptr, ptr %15, align 8, !tbaa !215
  br label %38

53:                                               ; preds = %48
  %54 = landingpad { ptr, i32 }
          cleanup
  br label %163

55:                                               ; preds = %42
  call void @llvm.lifetime.start.p0(i64 48, ptr nonnull %6) #6
  %56 = load ptr, ptr %1, align 8, !tbaa !210
  store ptr getelementptr inbounds ({ [7 x ptr] }, ptr @_ZTVN11xercesc_2_524RefHashTableOfEnumeratorINS_9DTDAttDefEEE, i64 0, inrange i32 0, i64 2), ptr %6, align 8, !tbaa !172
  %57 = getelementptr inbounds %"class.xercesc_2_5::RefHashTableOfEnumerator.22", ptr %6, i64 0, i32 1
  store i8 0, ptr %57, align 8, !tbaa !212
  %58 = getelementptr inbounds %"class.xercesc_2_5::RefHashTableOfEnumerator.22", ptr %6, i64 0, i32 2
  store ptr null, ptr %58, align 8, !tbaa !215
  %59 = getelementptr inbounds %"class.xercesc_2_5::RefHashTableOfEnumerator.22", ptr %6, i64 0, i32 3
  %60 = getelementptr inbounds %"class.xercesc_2_5::RefHashTableOfEnumerator.22", ptr %6, i64 0, i32 4
  store ptr %1, ptr %60, align 8, !tbaa !216
  %61 = getelementptr inbounds %"class.xercesc_2_5::RefHashTableOfEnumerator.22", ptr %6, i64 0, i32 5
  store ptr %56, ptr %61, align 8, !tbaa !217
  store i32 0, ptr %59, align 8, !tbaa !218
  %62 = getelementptr inbounds %"class.xercesc_2_5::RefHashTableOf.24", ptr %1, i64 0, i32 3
  %63 = load i32, ptr %62, align 8, !tbaa !219
  %64 = icmp eq i32 %63, 0
  br i1 %64, label %79, label %65

65:                                               ; preds = %55
  %66 = getelementptr inbounds %"class.xercesc_2_5::RefHashTableOf.24", ptr %1, i64 0, i32 2
  %67 = load ptr, ptr %66, align 8, !tbaa !220
  %68 = zext i32 %63 to i64
  br label %69

69:                                               ; preds = %74, %65
  %70 = phi i64 [ %75, %74 ], [ 0, %65 ]
  %71 = getelementptr inbounds ptr, ptr %67, i64 %70
  %72 = load ptr, ptr %71, align 8, !tbaa !124
  %73 = icmp eq ptr %72, null
  br i1 %73, label %74, label %78

74:                                               ; preds = %69
  %75 = add nuw nsw i64 %70, 1
  %76 = trunc i64 %75 to i32
  store i32 %76, ptr %59, align 8, !tbaa !218
  %77 = icmp eq i64 %75, %68
  br i1 %77, label %79, label %69

78:                                               ; preds = %69
  store ptr %72, ptr %58, align 8, !tbaa !215
  br label %79

79:                                               ; preds = %74, %55, %78
  %80 = phi ptr [ %72, %78 ], [ null, %55 ], [ null, %74 ]
  br label %81

81:                                               ; preds = %79, %93
  %82 = phi ptr [ %95, %93 ], [ %80, %79 ]
  %83 = phi i32 [ %94, %93 ], [ 0, %79 ]
  %84 = icmp eq ptr %82, null
  br i1 %84, label %85, label %91

85:                                               ; preds = %81
  %86 = load i32, ptr %59, align 8, !tbaa !218
  %87 = load ptr, ptr %60, align 8, !tbaa !216
  %88 = getelementptr inbounds %"class.xercesc_2_5::RefHashTableOf.24", ptr %87, i64 0, i32 3
  %89 = load i32, ptr %88, align 8, !tbaa !219
  %90 = icmp eq i32 %86, %89
  br i1 %90, label %100, label %91

91:                                               ; preds = %81, %85
  %92 = invoke noundef nonnull align 8 dereferenceable(72) ptr @_ZN11xercesc_2_524RefHashTableOfEnumeratorINS_9DTDAttDefEE11nextElementEv(ptr noundef nonnull align 8 dereferenceable(48) %6)
          to label %93 unwind label %98

93:                                               ; preds = %91
  %94 = add nuw nsw i32 %83, 1
  %95 = load ptr, ptr %58, align 8, !tbaa !215
  br label %81

96:                                               ; preds = %156
  %97 = landingpad { ptr, i32 }
          cleanup
  br label %161

98:                                               ; preds = %91
  %99 = landingpad { ptr, i32 }
          cleanup
  br label %158

100:                                              ; preds = %85
  %101 = icmp eq i32 %40, %83
  br i1 %101, label %102, label %156

102:                                              ; preds = %100
  store ptr null, ptr %15, align 8, !tbaa !215
  store i32 0, ptr %16, align 8, !tbaa !218
  %103 = load ptr, ptr %17, align 8, !tbaa !216
  %104 = getelementptr inbounds %"class.xercesc_2_5::RefHashTableOf.24", ptr %103, i64 0, i32 3
  %105 = load i32, ptr %104, align 8, !tbaa !219
  %106 = icmp eq i32 %105, 0
  br i1 %106, label %121, label %107

107:                                              ; preds = %102
  %108 = getelementptr inbounds %"class.xercesc_2_5::RefHashTableOf.24", ptr %103, i64 0, i32 2
  %109 = load ptr, ptr %108, align 8, !tbaa !220
  %110 = zext i32 %105 to i64
  br label %111

111:                                              ; preds = %116, %107
  %112 = phi i64 [ %117, %116 ], [ 0, %107 ]
  %113 = getelementptr inbounds ptr, ptr %109, i64 %112
  %114 = load ptr, ptr %113, align 8, !tbaa !124
  %115 = icmp eq ptr %114, null
  br i1 %115, label %116, label %120

116:                                              ; preds = %111
  %117 = add nuw nsw i64 %112, 1
  %118 = trunc i64 %117 to i32
  store i32 %118, ptr %16, align 8, !tbaa !218
  %119 = icmp eq i64 %117, %110
  br i1 %119, label %121, label %111

120:                                              ; preds = %111
  store ptr %114, ptr %15, align 8, !tbaa !215
  br label %121

121:                                              ; preds = %116, %102, %120
  br label %122

122:                                              ; preds = %121, %155
  %123 = load ptr, ptr %15, align 8, !tbaa !215
  %124 = icmp eq ptr %123, null
  br i1 %124, label %125, label %131

125:                                              ; preds = %122
  %126 = load i32, ptr %16, align 8, !tbaa !218
  %127 = load ptr, ptr %17, align 8, !tbaa !216
  %128 = getelementptr inbounds %"class.xercesc_2_5::RefHashTableOf.24", ptr %127, i64 0, i32 3
  %129 = load i32, ptr %128, align 8, !tbaa !219
  %130 = icmp eq i32 %126, %129
  br i1 %130, label %156, label %131

131:                                              ; preds = %122, %125
  %132 = invoke noundef ptr @_ZN11xercesc_2_524RefHashTableOfEnumeratorINS_9DTDAttDefEE14nextElementKeyEv(ptr noundef nonnull align 8 dereferenceable(48) %5)
          to label %133 unwind label %149

133:                                              ; preds = %131
  call void @llvm.lifetime.start.p0(i64 4, ptr nonnull %4) #6
  %134 = invoke noundef ptr @_ZN11xercesc_2_514RefHashTableOfINS_9DTDAttDefEE14findBucketElemEPKvRj(ptr noundef nonnull align 8 dereferenceable(48) %0, ptr noundef %132, ptr noundef nonnull align 4 dereferenceable(4) %4)
          to label %135 unwind label %151

135:                                              ; preds = %133
  %136 = icmp eq ptr %134, null
  br i1 %136, label %139, label %137

137:                                              ; preds = %135
  %138 = load ptr, ptr %134, align 8, !tbaa !221
  br label %139

139:                                              ; preds = %137, %135
  %140 = phi ptr [ %138, %137 ], [ null, %135 ]
  call void @llvm.lifetime.end.p0(i64 4, ptr nonnull %4) #6
  call void @llvm.lifetime.start.p0(i64 4, ptr nonnull %3) #6
  %141 = invoke noundef ptr @_ZN11xercesc_2_514RefHashTableOfINS_9DTDAttDefEE14findBucketElemEPKvRj(ptr noundef nonnull align 8 dereferenceable(48) %1, ptr noundef %132, ptr noundef nonnull align 4 dereferenceable(4) %3)
          to label %142 unwind label %153

142:                                              ; preds = %139
  %143 = icmp eq ptr %141, null
  br i1 %143, label %146, label %144

144:                                              ; preds = %142
  %145 = load ptr, ptr %141, align 8, !tbaa !221
  br label %146

146:                                              ; preds = %144, %142
  %147 = phi ptr [ %145, %144 ], [ null, %142 ]
  call void @llvm.lifetime.end.p0(i64 4, ptr nonnull %3) #6
  %148 = invoke noundef zeroext i1 @_ZN11xercesc_2_517XObjectComparator12isEquivalentEPNS_9DTDAttDefES2_(ptr noundef %140, ptr noundef %147)
          to label %155 unwind label %153

149:                                              ; preds = %131
  %150 = landingpad { ptr, i32 }
          cleanup
  br label %158

151:                                              ; preds = %133
  %152 = landingpad { ptr, i32 }
          cleanup
  br label %158

153:                                              ; preds = %139, %146
  %154 = landingpad { ptr, i32 }
          cleanup
  br label %158

155:                                              ; preds = %146
  br i1 %148, label %122, label %156

156:                                              ; preds = %125, %155, %100
  %157 = phi i1 [ false, %100 ], [ true, %125 ], [ false, %155 ]
  invoke void @_ZN11xercesc_2_524RefHashTableOfEnumeratorINS_9DTDAttDefEED2Ev(ptr noundef nonnull align 8 dereferenceable(48) %6)
          to label %160 unwind label %96

158:                                              ; preds = %149, %153, %151, %98
  %159 = phi { ptr, i32 } [ %99, %98 ], [ %150, %149 ], [ %154, %153 ], [ %152, %151 ]
  invoke void @_ZN11xercesc_2_524RefHashTableOfEnumeratorINS_9DTDAttDefEED2Ev(ptr noundef nonnull align 8 dereferenceable(48) %6)
          to label %161 unwind label %168

160:                                              ; preds = %156
  call void @llvm.lifetime.end.p0(i64 48, ptr nonnull %6) #6
  call void @_ZN11xercesc_2_524RefHashTableOfEnumeratorINS_9DTDAttDefEED2Ev(ptr noundef nonnull align 8 dereferenceable(48) %5)
  call void @llvm.lifetime.end.p0(i64 48, ptr nonnull %5) #6
  br label %166

161:                                              ; preds = %158, %96
  %162 = phi { ptr, i32 } [ %159, %158 ], [ %97, %96 ]
  call void @llvm.lifetime.end.p0(i64 48, ptr nonnull %6) #6
  br label %163

163:                                              ; preds = %161, %53
  %164 = phi { ptr, i32 } [ %54, %53 ], [ %162, %161 ]
  invoke void @_ZN11xercesc_2_524RefHashTableOfEnumeratorINS_9DTDAttDefEED2Ev(ptr noundef nonnull align 8 dereferenceable(48) %5)
          to label %165 unwind label %168

165:                                              ; preds = %163
  call void @llvm.lifetime.end.p0(i64 48, ptr nonnull %5) #6
  resume { ptr, i32 } %164

166:                                              ; preds = %8, %2, %160
  %167 = phi i1 [ %157, %160 ], [ true, %2 ], [ false, %8 ]
  ret i1 %167

168:                                              ; preds = %163, %158
  %169 = landingpad { ptr, i32 }
          catch ptr null
  %170 = extractvalue { ptr, i32 } %169, 0
  call void @__clang_call_terminate(ptr %170) #7
  unreachable
}

; Function Attrs: nounwind uwtable
define linkonce_odr dso_local noundef zeroext i1 @_ZNK11xercesc_2_524RefHashTableOfEnumeratorINS_9DTDAttDefEE15hasMoreElementsEv(ptr noundef nonnull align 8 dereferenceable(48) %0) unnamed_addr #5 comdat align 2 {
  %2 = getelementptr inbounds %"class.xercesc_2_5::RefHashTableOfEnumerator.22", ptr %0, i64 0, i32 2
  %3 = load ptr, ptr %2, align 8, !tbaa !215
  %4 = icmp eq ptr %3, null
  br i1 %4, label %5, label %13

5:                                                ; preds = %1
  %6 = getelementptr inbounds %"class.xercesc_2_5::RefHashTableOfEnumerator.22", ptr %0, i64 0, i32 3
  %7 = load i32, ptr %6, align 8, !tbaa !218
  %8 = getelementptr inbounds %"class.xercesc_2_5::RefHashTableOfEnumerator.22", ptr %0, i64 0, i32 4
  %9 = load ptr, ptr %8, align 8, !tbaa !216
  %10 = getelementptr inbounds %"class.xercesc_2_5::RefHashTableOf.24", ptr %9, i64 0, i32 3
  %11 = load i32, ptr %10, align 8, !tbaa !219
  %12 = icmp eq i32 %7, %11
  br i1 %12, label %14, label %13

13:                                               ; preds = %5, %1
  br label %14

14:                                               ; preds = %5, %13
  %15 = phi i1 [ true, %13 ], [ false, %5 ]
  ret i1 %15
}

; Function Attrs: uwtable
define linkonce_odr dso_local noundef nonnull align 8 dereferenceable(72) ptr @_ZN11xercesc_2_524RefHashTableOfEnumeratorINS_9DTDAttDefEE11nextElementEv(ptr noundef nonnull align 8 dereferenceable(48) %0) unnamed_addr #2 comdat align 2 personality ptr @__gxx_personality_v0 {
  %2 = load ptr, ptr %0, align 8, !tbaa !172
  %3 = getelementptr inbounds ptr, ptr %2, i64 2
  %4 = load ptr, ptr %3, align 8
  %5 = tail call noundef zeroext i1 %4(ptr noundef nonnull align 8 dereferenceable(48) %0)
  br i1 %5, label %13, label %6

6:                                                ; preds = %1
  %7 = tail call ptr @__cxa_allocate_exception(i64 48) #6
  %8 = getelementptr inbounds %"class.xercesc_2_5::RefHashTableOfEnumerator.22", ptr %0, i64 0, i32 5
  %9 = load ptr, ptr %8, align 8, !tbaa !217
  invoke void @_ZN11xercesc_2_522NoSuchElementExceptionC2EPKcjNS_10XMLExcepts5CodesEPNS_13MemoryManagerE(ptr noundef nonnull align 8 dereferenceable(48) %7, ptr noundef nonnull @.str.2, i32 noundef 674, i32 noundef 30, ptr noundef %9)
          to label %10 unwind label %11

10:                                               ; preds = %6
  tail call void @__cxa_throw(ptr nonnull %7, ptr nonnull @_ZTIN11xercesc_2_522NoSuchElementExceptionE, ptr nonnull @_ZN11xercesc_2_512XMLExceptionD2Ev) #8
  unreachable

11:                                               ; preds = %6
  %12 = landingpad { ptr, i32 }
          cleanup
  tail call void @__cxa_free_exception(ptr %7) #6
  resume { ptr, i32 } %12

13:                                               ; preds = %1
  %14 = getelementptr inbounds %"class.xercesc_2_5::RefHashTableOfEnumerator.22", ptr %0, i64 0, i32 2
  %15 = load ptr, ptr %14, align 8, !tbaa !215
  %16 = icmp eq ptr %15, null
  br i1 %16, label %21, label %17

17:                                               ; preds = %13
  %18 = getelementptr inbounds %"struct.xercesc_2_5::RefHashTableBucketElem.59", ptr %15, i64 0, i32 1
  %19 = load ptr, ptr %18, align 8, !tbaa !223
  store ptr %19, ptr %14, align 8, !tbaa !215
  %20 = icmp eq ptr %19, null
  br i1 %20, label %21, label %43

21:                                               ; preds = %17, %13
  %22 = getelementptr inbounds %"class.xercesc_2_5::RefHashTableOfEnumerator.22", ptr %0, i64 0, i32 3
  %23 = load i32, ptr %22, align 8, !tbaa !218
  %24 = add i32 %23, 1
  store i32 %24, ptr %22, align 8, !tbaa !218
  %25 = getelementptr inbounds %"class.xercesc_2_5::RefHashTableOfEnumerator.22", ptr %0, i64 0, i32 4
  %26 = load ptr, ptr %25, align 8, !tbaa !216
  %27 = getelementptr inbounds %"class.xercesc_2_5::RefHashTableOf.24", ptr %26, i64 0, i32 3
  %28 = load i32, ptr %27, align 8, !tbaa !219
  %29 = icmp eq i32 %24, %28
  br i1 %29, label %43, label %30

30:                                               ; preds = %21
  %31 = getelementptr inbounds %"class.xercesc_2_5::RefHashTableOf.24", ptr %26, i64 0, i32 2
  %32 = load ptr, ptr %31, align 8, !tbaa !220
  br label %33

33:                                               ; preds = %39, %30
  %34 = phi i32 [ %24, %30 ], [ %40, %39 ]
  %35 = zext i32 %34 to i64
  %36 = getelementptr inbounds ptr, ptr %32, i64 %35
  %37 = load ptr, ptr %36, align 8, !tbaa !124
  %38 = icmp eq ptr %37, null
  br i1 %38, label %39, label %42

39:                                               ; preds = %33
  %40 = add i32 %34, 1
  store i32 %40, ptr %22, align 8, !tbaa !218
  %41 = icmp eq i32 %40, %28
  br i1 %41, label %43, label %33

42:                                               ; preds = %33
  store ptr %37, ptr %14, align 8, !tbaa !215
  br label %43

43:                                               ; preds = %39, %17, %21, %42
  %44 = load ptr, ptr %15, align 8, !tbaa !221
  ret ptr %44
}

; Function Attrs: nounwind uwtable
define linkonce_odr dso_local void @_ZN11xercesc_2_524RefHashTableOfEnumeratorINS_9DTDAttDefEE5ResetEv(ptr noundef nonnull align 8 dereferenceable(48) %0) unnamed_addr #5 comdat align 2 {
  %2 = getelementptr inbounds %"class.xercesc_2_5::RefHashTableOfEnumerator.22", ptr %0, i64 0, i32 3
  %3 = getelementptr inbounds %"class.xercesc_2_5::RefHashTableOfEnumerator.22", ptr %0, i64 0, i32 2
  store ptr null, ptr %3, align 8, !tbaa !215
  store i32 0, ptr %2, align 8, !tbaa !218
  %4 = getelementptr inbounds %"class.xercesc_2_5::RefHashTableOfEnumerator.22", ptr %0, i64 0, i32 4
  %5 = load ptr, ptr %4, align 8, !tbaa !216
  %6 = getelementptr inbounds %"class.xercesc_2_5::RefHashTableOf.24", ptr %5, i64 0, i32 3
  %7 = load i32, ptr %6, align 8, !tbaa !219
  %8 = icmp eq i32 %7, 0
  br i1 %8, label %22, label %9

9:                                                ; preds = %1
  %10 = getelementptr inbounds %"class.xercesc_2_5::RefHashTableOf.24", ptr %5, i64 0, i32 2
  %11 = load ptr, ptr %10, align 8, !tbaa !220
  br label %12

12:                                               ; preds = %18, %9
  %13 = phi i32 [ 0, %9 ], [ %19, %18 ]
  %14 = zext i32 %13 to i64
  %15 = getelementptr inbounds ptr, ptr %11, i64 %14
  %16 = load ptr, ptr %15, align 8, !tbaa !124
  %17 = icmp eq ptr %16, null
  br i1 %17, label %18, label %21

18:                                               ; preds = %12
  %19 = add nuw i32 %13, 1
  store i32 %19, ptr %2, align 8, !tbaa !218
  %20 = icmp eq i32 %19, %7
  br i1 %20, label %22, label %12

21:                                               ; preds = %12
  store ptr %16, ptr %3, align 8, !tbaa !215
  br label %22

22:                                               ; preds = %18, %1, %21
  ret void
}

; Function Attrs: uwtable
define linkonce_odr dso_local noundef ptr @_ZN11xercesc_2_524RefHashTableOfEnumeratorINS_9DTDAttDefEE14nextElementKeyEv(ptr noundef nonnull align 8 dereferenceable(48) %0) local_unnamed_addr #2 comdat align 2 personality ptr @__gxx_personality_v0 {
  %2 = load ptr, ptr %0, align 8, !tbaa !172
  %3 = getelementptr inbounds ptr, ptr %2, i64 2
  %4 = load ptr, ptr %3, align 8
  %5 = tail call noundef zeroext i1 %4(ptr noundef nonnull align 8 dereferenceable(48) %0)
  br i1 %5, label %13, label %6

6:                                                ; preds = %1
  %7 = tail call ptr @__cxa_allocate_exception(i64 48) #6
  %8 = getelementptr inbounds %"class.xercesc_2_5::RefHashTableOfEnumerator.22", ptr %0, i64 0, i32 5
  %9 = load ptr, ptr %8, align 8, !tbaa !217
  invoke void @_ZN11xercesc_2_522NoSuchElementExceptionC2EPKcjNS_10XMLExcepts5CodesEPNS_13MemoryManagerE(ptr noundef nonnull align 8 dereferenceable(48) %7, ptr noundef nonnull @.str.2, i32 noundef 690, i32 noundef 30, ptr noundef %9)
          to label %10 unwind label %11

10:                                               ; preds = %6
  tail call void @__cxa_throw(ptr nonnull %7, ptr nonnull @_ZTIN11xercesc_2_522NoSuchElementExceptionE, ptr nonnull @_ZN11xercesc_2_512XMLExceptionD2Ev) #8
  unreachable

11:                                               ; preds = %6
  %12 = landingpad { ptr, i32 }
          cleanup
  tail call void @__cxa_free_exception(ptr %7) #6
  resume { ptr, i32 } %12

13:                                               ; preds = %1
  %14 = getelementptr inbounds %"class.xercesc_2_5::RefHashTableOfEnumerator.22", ptr %0, i64 0, i32 2
  %15 = load ptr, ptr %14, align 8, !tbaa !215
  %16 = icmp eq ptr %15, null
  br i1 %16, label %21, label %17

17:                                               ; preds = %13
  %18 = getelementptr inbounds %"struct.xercesc_2_5::RefHashTableBucketElem.59", ptr %15, i64 0, i32 1
  %19 = load ptr, ptr %18, align 8, !tbaa !223
  store ptr %19, ptr %14, align 8, !tbaa !215
  %20 = icmp eq ptr %19, null
  br i1 %20, label %21, label %43

21:                                               ; preds = %17, %13
  %22 = getelementptr inbounds %"class.xercesc_2_5::RefHashTableOfEnumerator.22", ptr %0, i64 0, i32 3
  %23 = load i32, ptr %22, align 8, !tbaa !218
  %24 = add i32 %23, 1
  store i32 %24, ptr %22, align 8, !tbaa !218
  %25 = getelementptr inbounds %"class.xercesc_2_5::RefHashTableOfEnumerator.22", ptr %0, i64 0, i32 4
  %26 = load ptr, ptr %25, align 8, !tbaa !216
  %27 = getelementptr inbounds %"class.xercesc_2_5::RefHashTableOf.24", ptr %26, i64 0, i32 3
  %28 = load i32, ptr %27, align 8, !tbaa !219
  %29 = icmp eq i32 %24, %28
  br i1 %29, label %43, label %30

30:                                               ; preds = %21
  %31 = getelementptr inbounds %"class.xercesc_2_5::RefHashTableOf.24", ptr %26, i64 0, i32 2
  %32 = load ptr, ptr %31, align 8, !tbaa !220
  br label %33

33:                                               ; preds = %39, %30
  %34 = phi i32 [ %24, %30 ], [ %40, %39 ]
  %35 = zext i32 %34 to i64
  %36 = getelementptr inbounds ptr, ptr %32, i64 %35
  %37 = load ptr, ptr %36, align 8, !tbaa !124
  %38 = icmp eq ptr %37, null
  br i1 %38, label %39, label %42

39:                                               ; preds = %33
  %40 = add i32 %34, 1
  store i32 %40, ptr %22, align 8, !tbaa !218
  %41 = icmp eq i32 %40, %28
  br i1 %41, label %43, label %33

42:                                               ; preds = %33
  store ptr %37, ptr %14, align 8, !tbaa !215
  br label %43

43:                                               ; preds = %39, %17, %21, %42
  %44 = getelementptr inbounds %"struct.xercesc_2_5::RefHashTableBucketElem.59", ptr %15, i64 0, i32 2
  %45 = load ptr, ptr %44, align 8, !tbaa !224
  ret ptr %45
}

declare noundef zeroext i1 @_ZN11xercesc_2_517XObjectComparator12isEquivalentEPNS_9DTDAttDefES2_(ptr noundef, ptr noundef) local_unnamed_addr #1

; Function Attrs: uwtable
define linkonce_odr dso_local void @_ZN11xercesc_2_524RefHashTableOfEnumeratorINS_9DTDAttDefEED2Ev(ptr noundef nonnull align 8 dereferenceable(48) %0) unnamed_addr #2 comdat align 2 personality ptr @__gxx_personality_v0 {
  store ptr getelementptr inbounds ({ [7 x ptr] }, ptr @_ZTVN11xercesc_2_524RefHashTableOfEnumeratorINS_9DTDAttDefEEE, i64 0, inrange i32 0, i64 2), ptr %0, align 8, !tbaa !172
  %2 = getelementptr inbounds %"class.xercesc_2_5::RefHashTableOfEnumerator.22", ptr %0, i64 0, i32 1
  %3 = load i8, ptr %2, align 8, !tbaa !212, !range !187, !noundef !188
  %4 = icmp eq i8 %3, 0
  br i1 %4, label %72, label %5

5:                                                ; preds = %1
  %6 = getelementptr inbounds %"class.xercesc_2_5::RefHashTableOfEnumerator.22", ptr %0, i64 0, i32 4
  %7 = load ptr, ptr %6, align 8, !tbaa !216
  %8 = icmp eq ptr %7, null
  br i1 %8, label %72, label %9

9:                                                ; preds = %5
  %10 = getelementptr inbounds %"class.xercesc_2_5::RefHashTableOf.24", ptr %7, i64 0, i32 3
  %11 = load i32, ptr %10, align 8, !tbaa !219
  %12 = icmp eq i32 %11, 0
  br i1 %12, label %49, label %13

13:                                               ; preds = %9
  %14 = getelementptr inbounds %"class.xercesc_2_5::RefHashTableOf.24", ptr %7, i64 0, i32 2
  %15 = getelementptr inbounds %"class.xercesc_2_5::RefHashTableOf.24", ptr %7, i64 0, i32 1
  br label %16

16:                                               ; preds = %42, %13
  %17 = phi i32 [ %11, %13 ], [ %43, %42 ]
  %18 = phi i64 [ 0, %13 ], [ %46, %42 ]
  %19 = load ptr, ptr %14, align 8, !tbaa !220
  %20 = getelementptr inbounds ptr, ptr %19, i64 %18
  %21 = load ptr, ptr %20, align 8, !tbaa !124
  %22 = icmp eq ptr %21, null
  br i1 %22, label %42, label %23

23:                                               ; preds = %16, %37
  %24 = phi ptr [ %26, %37 ], [ %21, %16 ]
  %25 = getelementptr inbounds %"struct.xercesc_2_5::RefHashTableBucketElem.59", ptr %24, i64 0, i32 1
  %26 = load ptr, ptr %25, align 8, !tbaa !223
  %27 = load i8, ptr %15, align 8, !tbaa !225, !range !187, !noundef !188
  %28 = icmp eq i8 %27, 0
  br i1 %28, label %36, label %29

29:                                               ; preds = %23
  %30 = load ptr, ptr %24, align 8, !tbaa !221
  %31 = icmp eq ptr %30, null
  br i1 %31, label %36, label %32

32:                                               ; preds = %29
  %33 = load ptr, ptr %30, align 8, !tbaa !172
  %34 = getelementptr inbounds ptr, ptr %33, i64 1
  %35 = load ptr, ptr %34, align 8
  invoke void %35(ptr noundef nonnull align 8 dereferenceable(72) %30)
          to label %36 unwind label %66

36:                                               ; preds = %32, %29, %23
  invoke void @_ZN11xercesc_2_57XMemorydlEPv(ptr noundef nonnull %24)
          to label %37 unwind label %66

37:                                               ; preds = %36
  %38 = icmp eq ptr %26, null
  br i1 %38, label %39, label %23

39:                                               ; preds = %37
  %40 = load ptr, ptr %14, align 8, !tbaa !220
  %41 = load i32, ptr %10, align 8, !tbaa !219
  br label %42

42:                                               ; preds = %39, %16
  %43 = phi i32 [ %41, %39 ], [ %17, %16 ]
  %44 = phi ptr [ %40, %39 ], [ %19, %16 ]
  %45 = getelementptr inbounds ptr, ptr %44, i64 %18
  store ptr null, ptr %45, align 8, !tbaa !124
  %46 = add nuw nsw i64 %18, 1
  %47 = zext i32 %43 to i64
  %48 = icmp ult i64 %46, %47
  br i1 %48, label %16, label %49

49:                                               ; preds = %42, %9
  %50 = getelementptr inbounds %"class.xercesc_2_5::RefHashTableOf.24", ptr %7, i64 0, i32 5
  store i32 0, ptr %50, align 8, !tbaa !226
  %51 = load ptr, ptr %7, align 8, !tbaa !210
  %52 = getelementptr inbounds %"class.xercesc_2_5::RefHashTableOf.24", ptr %7, i64 0, i32 2
  %53 = load ptr, ptr %52, align 8, !tbaa !220
  %54 = load ptr, ptr %51, align 8, !tbaa !172
  %55 = getelementptr inbounds ptr, ptr %54, i64 3
  %56 = load ptr, ptr %55, align 8
  invoke void %56(ptr noundef nonnull align 8 dereferenceable(8) %51, ptr noundef %53)
          to label %57 unwind label %68

57:                                               ; preds = %49
  %58 = getelementptr inbounds %"class.xercesc_2_5::RefHashTableOf.24", ptr %7, i64 0, i32 6
  %59 = load ptr, ptr %58, align 8, !tbaa !227
  %60 = icmp eq ptr %59, null
  br i1 %60, label %65, label %61

61:                                               ; preds = %57
  %62 = load ptr, ptr %59, align 8, !tbaa !172
  %63 = getelementptr inbounds ptr, ptr %62, i64 3
  %64 = load ptr, ptr %63, align 8
  invoke void %64(ptr noundef nonnull align 8 dereferenceable(8) %59)
          to label %65 unwind label %68

65:                                               ; preds = %57, %61
  tail call void @_ZN11xercesc_2_57XMemorydlEPv(ptr noundef nonnull %7)
  br label %72

66:                                               ; preds = %32, %36
  %67 = landingpad { ptr, i32 }
          cleanup
  br label %70

68:                                               ; preds = %49, %61
  %69 = landingpad { ptr, i32 }
          cleanup
  br label %70

70:                                               ; preds = %68, %66
  %71 = phi { ptr, i32 } [ %67, %66 ], [ %69, %68 ]
  invoke void @_ZN11xercesc_2_57XMemorydlEPv(ptr noundef nonnull %7)
          to label %73 unwind label %74

72:                                               ; preds = %65, %5, %1
  ret void

73:                                               ; preds = %70
  resume { ptr, i32 } %71

74:                                               ; preds = %70
  %75 = landingpad { ptr, i32 }
          catch ptr null
  %76 = extractvalue { ptr, i32 } %75, 0
  tail call void @__clang_call_terminate(ptr %76) #7
  unreachable
}

; Function Attrs: uwtable
define dso_local noundef zeroext i1 @_ZN11xercesc_2_519XTemplateComparator12isEquivalentEPNS_14RefHashTableOfINS_15ComplexTypeInfoEEES4_(ptr noundef %0, ptr noundef %1) local_unnamed_addr #2 align 2 personality ptr @__gxx_personality_v0 {
  %3 = alloca i32, align 4
  %4 = alloca i32, align 4
  %5 = alloca %"class.xercesc_2_5::RefHashTableOfEnumerator.25", align 8
  %6 = alloca %"class.xercesc_2_5::RefHashTableOfEnumerator.25", align 8
  %7 = icmp eq ptr %0, %1
  br i1 %7, label %166, label %8

8:                                                ; preds = %2
  %9 = icmp ne ptr %0, null
  %10 = icmp ne ptr %1, null
  %11 = xor i1 %9, %10
  br i1 %11, label %166, label %12

12:                                               ; preds = %8
  call void @llvm.lifetime.start.p0(i64 48, ptr nonnull %5) #6
  %13 = load ptr, ptr %0, align 8, !tbaa !228
  store ptr getelementptr inbounds ({ [7 x ptr] }, ptr @_ZTVN11xercesc_2_524RefHashTableOfEnumeratorINS_15ComplexTypeInfoEEE, i64 0, inrange i32 0, i64 2), ptr %5, align 8, !tbaa !172
  %14 = getelementptr inbounds %"class.xercesc_2_5::RefHashTableOfEnumerator.25", ptr %5, i64 0, i32 1
  store i8 0, ptr %14, align 8, !tbaa !230
  %15 = getelementptr inbounds %"class.xercesc_2_5::RefHashTableOfEnumerator.25", ptr %5, i64 0, i32 2
  store ptr null, ptr %15, align 8, !tbaa !233
  %16 = getelementptr inbounds %"class.xercesc_2_5::RefHashTableOfEnumerator.25", ptr %5, i64 0, i32 3
  %17 = getelementptr inbounds %"class.xercesc_2_5::RefHashTableOfEnumerator.25", ptr %5, i64 0, i32 4
  store ptr %0, ptr %17, align 8, !tbaa !234
  %18 = getelementptr inbounds %"class.xercesc_2_5::RefHashTableOfEnumerator.25", ptr %5, i64 0, i32 5
  store ptr %13, ptr %18, align 8, !tbaa !235
  store i32 0, ptr %16, align 8, !tbaa !236
  %19 = getelementptr inbounds %"class.xercesc_2_5::RefHashTableOf.27", ptr %0, i64 0, i32 3
  %20 = load i32, ptr %19, align 8, !tbaa !237
  %21 = icmp eq i32 %20, 0
  br i1 %21, label %36, label %22

22:                                               ; preds = %12
  %23 = getelementptr inbounds %"class.xercesc_2_5::RefHashTableOf.27", ptr %0, i64 0, i32 2
  %24 = load ptr, ptr %23, align 8, !tbaa !238
  %25 = zext i32 %20 to i64
  br label %26

26:                                               ; preds = %31, %22
  %27 = phi i64 [ %32, %31 ], [ 0, %22 ]
  %28 = getelementptr inbounds ptr, ptr %24, i64 %27
  %29 = load ptr, ptr %28, align 8, !tbaa !124
  %30 = icmp eq ptr %29, null
  br i1 %30, label %31, label %35

31:                                               ; preds = %26
  %32 = add nuw nsw i64 %27, 1
  %33 = trunc i64 %32 to i32
  store i32 %33, ptr %16, align 8, !tbaa !236
  %34 = icmp eq i64 %32, %25
  br i1 %34, label %36, label %26

35:                                               ; preds = %26
  store ptr %29, ptr %15, align 8, !tbaa !233
  br label %36

36:                                               ; preds = %31, %12, %35
  %37 = phi ptr [ %29, %35 ], [ null, %12 ], [ null, %31 ]
  br label %38

38:                                               ; preds = %36, %50
  %39 = phi ptr [ %52, %50 ], [ %37, %36 ]
  %40 = phi i32 [ %51, %50 ], [ 0, %36 ]
  %41 = icmp eq ptr %39, null
  br i1 %41, label %42, label %48

42:                                               ; preds = %38
  %43 = load i32, ptr %16, align 8, !tbaa !236
  %44 = load ptr, ptr %17, align 8, !tbaa !234
  %45 = getelementptr inbounds %"class.xercesc_2_5::RefHashTableOf.27", ptr %44, i64 0, i32 3
  %46 = load i32, ptr %45, align 8, !tbaa !237
  %47 = icmp eq i32 %43, %46
  br i1 %47, label %55, label %48

48:                                               ; preds = %38, %42
  %49 = invoke noundef nonnull align 8 dereferenceable(184) ptr @_ZN11xercesc_2_524RefHashTableOfEnumeratorINS_15ComplexTypeInfoEE11nextElementEv(ptr noundef nonnull align 8 dereferenceable(48) %5)
          to label %50 unwind label %53

50:                                               ; preds = %48
  %51 = add nuw nsw i32 %40, 1
  %52 = load ptr, ptr %15, align 8, !tbaa !233
  br label %38

53:                                               ; preds = %48
  %54 = landingpad { ptr, i32 }
          cleanup
  br label %163

55:                                               ; preds = %42
  call void @llvm.lifetime.start.p0(i64 48, ptr nonnull %6) #6
  %56 = load ptr, ptr %1, align 8, !tbaa !228
  store ptr getelementptr inbounds ({ [7 x ptr] }, ptr @_ZTVN11xercesc_2_524RefHashTableOfEnumeratorINS_15ComplexTypeInfoEEE, i64 0, inrange i32 0, i64 2), ptr %6, align 8, !tbaa !172
  %57 = getelementptr inbounds %"class.xercesc_2_5::RefHashTableOfEnumerator.25", ptr %6, i64 0, i32 1
  store i8 0, ptr %57, align 8, !tbaa !230
  %58 = getelementptr inbounds %"class.xercesc_2_5::RefHashTableOfEnumerator.25", ptr %6, i64 0, i32 2
  store ptr null, ptr %58, align 8, !tbaa !233
  %59 = getelementptr inbounds %"class.xercesc_2_5::RefHashTableOfEnumerator.25", ptr %6, i64 0, i32 3
  %60 = getelementptr inbounds %"class.xercesc_2_5::RefHashTableOfEnumerator.25", ptr %6, i64 0, i32 4
  store ptr %1, ptr %60, align 8, !tbaa !234
  %61 = getelementptr inbounds %"class.xercesc_2_5::RefHashTableOfEnumerator.25", ptr %6, i64 0, i32 5
  store ptr %56, ptr %61, align 8, !tbaa !235
  store i32 0, ptr %59, align 8, !tbaa !236
  %62 = getelementptr inbounds %"class.xercesc_2_5::RefHashTableOf.27", ptr %1, i64 0, i32 3
  %63 = load i32, ptr %62, align 8, !tbaa !237
  %64 = icmp eq i32 %63, 0
  br i1 %64, label %79, label %65

65:                                               ; preds = %55
  %66 = getelementptr inbounds %"class.xercesc_2_5::RefHashTableOf.27", ptr %1, i64 0, i32 2
  %67 = load ptr, ptr %66, align 8, !tbaa !238
  %68 = zext i32 %63 to i64
  br label %69

69:                                               ; preds = %74, %65
  %70 = phi i64 [ %75, %74 ], [ 0, %65 ]
  %71 = getelementptr inbounds ptr, ptr %67, i64 %70
  %72 = load ptr, ptr %71, align 8, !tbaa !124
  %73 = icmp eq ptr %72, null
  br i1 %73, label %74, label %78

74:                                               ; preds = %69
  %75 = add nuw nsw i64 %70, 1
  %76 = trunc i64 %75 to i32
  store i32 %76, ptr %59, align 8, !tbaa !236
  %77 = icmp eq i64 %75, %68
  br i1 %77, label %79, label %69

78:                                               ; preds = %69
  store ptr %72, ptr %58, align 8, !tbaa !233
  br label %79

79:                                               ; preds = %74, %55, %78
  %80 = phi ptr [ %72, %78 ], [ null, %55 ], [ null, %74 ]
  br label %81

81:                                               ; preds = %79, %93
  %82 = phi ptr [ %95, %93 ], [ %80, %79 ]
  %83 = phi i32 [ %94, %93 ], [ 0, %79 ]
  %84 = icmp eq ptr %82, null
  br i1 %84, label %85, label %91

85:                                               ; preds = %81
  %86 = load i32, ptr %59, align 8, !tbaa !236
  %87 = load ptr, ptr %60, align 8, !tbaa !234
  %88 = getelementptr inbounds %"class.xercesc_2_5::RefHashTableOf.27", ptr %87, i64 0, i32 3
  %89 = load i32, ptr %88, align 8, !tbaa !237
  %90 = icmp eq i32 %86, %89
  br i1 %90, label %100, label %91

91:                                               ; preds = %81, %85
  %92 = invoke noundef nonnull align 8 dereferenceable(184) ptr @_ZN11xercesc_2_524RefHashTableOfEnumeratorINS_15ComplexTypeInfoEE11nextElementEv(ptr noundef nonnull align 8 dereferenceable(48) %6)
          to label %93 unwind label %98

93:                                               ; preds = %91
  %94 = add nuw nsw i32 %83, 1
  %95 = load ptr, ptr %58, align 8, !tbaa !233
  br label %81

96:                                               ; preds = %156
  %97 = landingpad { ptr, i32 }
          cleanup
  br label %161

98:                                               ; preds = %91
  %99 = landingpad { ptr, i32 }
          cleanup
  br label %158

100:                                              ; preds = %85
  %101 = icmp eq i32 %40, %83
  br i1 %101, label %102, label %156

102:                                              ; preds = %100
  store ptr null, ptr %15, align 8, !tbaa !233
  store i32 0, ptr %16, align 8, !tbaa !236
  %103 = load ptr, ptr %17, align 8, !tbaa !234
  %104 = getelementptr inbounds %"class.xercesc_2_5::RefHashTableOf.27", ptr %103, i64 0, i32 3
  %105 = load i32, ptr %104, align 8, !tbaa !237
  %106 = icmp eq i32 %105, 0
  br i1 %106, label %121, label %107

107:                                              ; preds = %102
  %108 = getelementptr inbounds %"class.xercesc_2_5::RefHashTableOf.27", ptr %103, i64 0, i32 2
  %109 = load ptr, ptr %108, align 8, !tbaa !238
  %110 = zext i32 %105 to i64
  br label %111

111:                                              ; preds = %116, %107
  %112 = phi i64 [ %117, %116 ], [ 0, %107 ]
  %113 = getelementptr inbounds ptr, ptr %109, i64 %112
  %114 = load ptr, ptr %113, align 8, !tbaa !124
  %115 = icmp eq ptr %114, null
  br i1 %115, label %116, label %120

116:                                              ; preds = %111
  %117 = add nuw nsw i64 %112, 1
  %118 = trunc i64 %117 to i32
  store i32 %118, ptr %16, align 8, !tbaa !236
  %119 = icmp eq i64 %117, %110
  br i1 %119, label %121, label %111

120:                                              ; preds = %111
  store ptr %114, ptr %15, align 8, !tbaa !233
  br label %121

121:                                              ; preds = %116, %102, %120
  br label %122

122:                                              ; preds = %121, %155
  %123 = load ptr, ptr %15, align 8, !tbaa !233
  %124 = icmp eq ptr %123, null
  br i1 %124, label %125, label %131

125:                                              ; preds = %122
  %126 = load i32, ptr %16, align 8, !tbaa !236
  %127 = load ptr, ptr %17, align 8, !tbaa !234
  %128 = getelementptr inbounds %"class.xercesc_2_5::RefHashTableOf.27", ptr %127, i64 0, i32 3
  %129 = load i32, ptr %128, align 8, !tbaa !237
  %130 = icmp eq i32 %126, %129
  br i1 %130, label %156, label %131

131:                                              ; preds = %122, %125
  %132 = invoke noundef ptr @_ZN11xercesc_2_524RefHashTableOfEnumeratorINS_15ComplexTypeInfoEE14nextElementKeyEv(ptr noundef nonnull align 8 dereferenceable(48) %5)
          to label %133 unwind label %149

133:                                              ; preds = %131
  call void @llvm.lifetime.start.p0(i64 4, ptr nonnull %4) #6
  %134 = invoke noundef ptr @_ZN11xercesc_2_514RefHashTableOfINS_15ComplexTypeInfoEE14findBucketElemEPKvRj(ptr noundef nonnull align 8 dereferenceable(48) %0, ptr noundef %132, ptr noundef nonnull align 4 dereferenceable(4) %4)
          to label %135 unwind label %151

135:                                              ; preds = %133
  %136 = icmp eq ptr %134, null
  br i1 %136, label %139, label %137

137:                                              ; preds = %135
  %138 = load ptr, ptr %134, align 8, !tbaa !239
  br label %139

139:                                              ; preds = %137, %135
  %140 = phi ptr [ %138, %137 ], [ null, %135 ]
  call void @llvm.lifetime.end.p0(i64 4, ptr nonnull %4) #6
  call void @llvm.lifetime.start.p0(i64 4, ptr nonnull %3) #6
  %141 = invoke noundef ptr @_ZN11xercesc_2_514RefHashTableOfINS_15ComplexTypeInfoEE14findBucketElemEPKvRj(ptr noundef nonnull align 8 dereferenceable(48) %1, ptr noundef %132, ptr noundef nonnull align 4 dereferenceable(4) %3)
          to label %142 unwind label %153

142:                                              ; preds = %139
  %143 = icmp eq ptr %141, null
  br i1 %143, label %146, label %144

144:                                              ; preds = %142
  %145 = load ptr, ptr %141, align 8, !tbaa !239
  br label %146

146:                                              ; preds = %144, %142
  %147 = phi ptr [ %145, %144 ], [ null, %142 ]
  call void @llvm.lifetime.end.p0(i64 4, ptr nonnull %3) #6
  %148 = invoke noundef zeroext i1 @_ZN11xercesc_2_517XObjectComparator12isEquivalentEPNS_15ComplexTypeInfoES2_(ptr noundef %140, ptr noundef %147)
          to label %155 unwind label %153

149:                                              ; preds = %131
  %150 = landingpad { ptr, i32 }
          cleanup
  br label %158

151:                                              ; preds = %133
  %152 = landingpad { ptr, i32 }
          cleanup
  br label %158

153:                                              ; preds = %139, %146
  %154 = landingpad { ptr, i32 }
          cleanup
  br label %158

155:                                              ; preds = %146
  br i1 %148, label %122, label %156

156:                                              ; preds = %125, %155, %100
  %157 = phi i1 [ false, %100 ], [ true, %125 ], [ false, %155 ]
  invoke void @_ZN11xercesc_2_524RefHashTableOfEnumeratorINS_15ComplexTypeInfoEED2Ev(ptr noundef nonnull align 8 dereferenceable(48) %6)
          to label %160 unwind label %96

158:                                              ; preds = %149, %153, %151, %98
  %159 = phi { ptr, i32 } [ %99, %98 ], [ %150, %149 ], [ %154, %153 ], [ %152, %151 ]
  invoke void @_ZN11xercesc_2_524RefHashTableOfEnumeratorINS_15ComplexTypeInfoEED2Ev(ptr noundef nonnull align 8 dereferenceable(48) %6)
          to label %161 unwind label %168

160:                                              ; preds = %156
  call void @llvm.lifetime.end.p0(i64 48, ptr nonnull %6) #6
  call void @_ZN11xercesc_2_524RefHashTableOfEnumeratorINS_15ComplexTypeInfoEED2Ev(ptr noundef nonnull align 8 dereferenceable(48) %5)
  call void @llvm.lifetime.end.p0(i64 48, ptr nonnull %5) #6
  br label %166

161:                                              ; preds = %158, %96
  %162 = phi { ptr, i32 } [ %159, %158 ], [ %97, %96 ]
  call void @llvm.lifetime.end.p0(i64 48, ptr nonnull %6) #6
  br label %163

163:                                              ; preds = %161, %53
  %164 = phi { ptr, i32 } [ %54, %53 ], [ %162, %161 ]
  invoke void @_ZN11xercesc_2_524RefHashTableOfEnumeratorINS_15ComplexTypeInfoEED2Ev(ptr noundef nonnull align 8 dereferenceable(48) %5)
          to label %165 unwind label %168

165:                                              ; preds = %163
  call void @llvm.lifetime.end.p0(i64 48, ptr nonnull %5) #6
  resume { ptr, i32 } %164

166:                                              ; preds = %8, %2, %160
  %167 = phi i1 [ %157, %160 ], [ true, %2 ], [ false, %8 ]
  ret i1 %167

168:                                              ; preds = %163, %158
  %169 = landingpad { ptr, i32 }
          catch ptr null
  %170 = extractvalue { ptr, i32 } %169, 0
  call void @__clang_call_terminate(ptr %170) #7
  unreachable
}

; Function Attrs: nounwind uwtable
define linkonce_odr dso_local noundef zeroext i1 @_ZNK11xercesc_2_524RefHashTableOfEnumeratorINS_15ComplexTypeInfoEE15hasMoreElementsEv(ptr noundef nonnull align 8 dereferenceable(48) %0) unnamed_addr #5 comdat align 2 {
  %2 = getelementptr inbounds %"class.xercesc_2_5::RefHashTableOfEnumerator.25", ptr %0, i64 0, i32 2
  %3 = load ptr, ptr %2, align 8, !tbaa !233
  %4 = icmp eq ptr %3, null
  br i1 %4, label %5, label %13

5:                                                ; preds = %1
  %6 = getelementptr inbounds %"class.xercesc_2_5::RefHashTableOfEnumerator.25", ptr %0, i64 0, i32 3
  %7 = load i32, ptr %6, align 8, !tbaa !236
  %8 = getelementptr inbounds %"class.xercesc_2_5::RefHashTableOfEnumerator.25", ptr %0, i64 0, i32 4
  %9 = load ptr, ptr %8, align 8, !tbaa !234
  %10 = getelementptr inbounds %"class.xercesc_2_5::RefHashTableOf.27", ptr %9, i64 0, i32 3
  %11 = load i32, ptr %10, align 8, !tbaa !237
  %12 = icmp eq i32 %7, %11
  br i1 %12, label %14, label %13

13:                                               ; preds = %5, %1
  br label %14

14:                                               ; preds = %5, %13
  %15 = phi i1 [ true, %13 ], [ false, %5 ]
  ret i1 %15
}

; Function Attrs: uwtable
define linkonce_odr dso_local noundef nonnull align 8 dereferenceable(184) ptr @_ZN11xercesc_2_524RefHashTableOfEnumeratorINS_15ComplexTypeInfoEE11nextElementEv(ptr noundef nonnull align 8 dereferenceable(48) %0) unnamed_addr #2 comdat align 2 personality ptr @__gxx_personality_v0 {
  %2 = load ptr, ptr %0, align 8, !tbaa !172
  %3 = getelementptr inbounds ptr, ptr %2, i64 2
  %4 = load ptr, ptr %3, align 8
  %5 = tail call noundef zeroext i1 %4(ptr noundef nonnull align 8 dereferenceable(48) %0)
  br i1 %5, label %13, label %6

6:                                                ; preds = %1
  %7 = tail call ptr @__cxa_allocate_exception(i64 48) #6
  %8 = getelementptr inbounds %"class.xercesc_2_5::RefHashTableOfEnumerator.25", ptr %0, i64 0, i32 5
  %9 = load ptr, ptr %8, align 8, !tbaa !235
  invoke void @_ZN11xercesc_2_522NoSuchElementExceptionC2EPKcjNS_10XMLExcepts5CodesEPNS_13MemoryManagerE(ptr noundef nonnull align 8 dereferenceable(48) %7, ptr noundef nonnull @.str.2, i32 noundef 674, i32 noundef 30, ptr noundef %9)
          to label %10 unwind label %11

10:                                               ; preds = %6
  tail call void @__cxa_throw(ptr nonnull %7, ptr nonnull @_ZTIN11xercesc_2_522NoSuchElementExceptionE, ptr nonnull @_ZN11xercesc_2_512XMLExceptionD2Ev) #8
  unreachable

11:                                               ; preds = %6
  %12 = landingpad { ptr, i32 }
          cleanup
  tail call void @__cxa_free_exception(ptr %7) #6
  resume { ptr, i32 } %12

13:                                               ; preds = %1
  %14 = getelementptr inbounds %"class.xercesc_2_5::RefHashTableOfEnumerator.25", ptr %0, i64 0, i32 2
  %15 = load ptr, ptr %14, align 8, !tbaa !233
  %16 = icmp eq ptr %15, null
  br i1 %16, label %21, label %17

17:                                               ; preds = %13
  %18 = getelementptr inbounds %"struct.xercesc_2_5::RefHashTableBucketElem.60", ptr %15, i64 0, i32 1
  %19 = load ptr, ptr %18, align 8, !tbaa !241
  store ptr %19, ptr %14, align 8, !tbaa !233
  %20 = icmp eq ptr %19, null
  br i1 %20, label %21, label %43

21:                                               ; preds = %17, %13
  %22 = getelementptr inbounds %"class.xercesc_2_5::RefHashTableOfEnumerator.25", ptr %0, i64 0, i32 3
  %23 = load i32, ptr %22, align 8, !tbaa !236
  %24 = add i32 %23, 1
  store i32 %24, ptr %22, align 8, !tbaa !236
  %25 = getelementptr inbounds %"class.xercesc_2_5::RefHashTableOfEnumerator.25", ptr %0, i64 0, i32 4
  %26 = load ptr, ptr %25, align 8, !tbaa !234
  %27 = getelementptr inbounds %"class.xercesc_2_5::RefHashTableOf.27", ptr %26, i64 0, i32 3
  %28 = load i32, ptr %27, align 8, !tbaa !237
  %29 = icmp eq i32 %24, %28
  br i1 %29, label %43, label %30

30:                                               ; preds = %21
  %31 = getelementptr inbounds %"class.xercesc_2_5::RefHashTableOf.27", ptr %26, i64 0, i32 2
  %32 = load ptr, ptr %31, align 8, !tbaa !238
  br label %33

33:                                               ; preds = %39, %30
  %34 = phi i32 [ %24, %30 ], [ %40, %39 ]
  %35 = zext i32 %34 to i64
  %36 = getelementptr inbounds ptr, ptr %32, i64 %35
  %37 = load ptr, ptr %36, align 8, !tbaa !124
  %38 = icmp eq ptr %37, null
  br i1 %38, label %39, label %42

39:                                               ; preds = %33
  %40 = add i32 %34, 1
  store i32 %40, ptr %22, align 8, !tbaa !236
  %41 = icmp eq i32 %40, %28
  br i1 %41, label %43, label %33

42:                                               ; preds = %33
  store ptr %37, ptr %14, align 8, !tbaa !233
  br label %43

43:                                               ; preds = %39, %17, %21, %42
  %44 = load ptr, ptr %15, align 8, !tbaa !239
  ret ptr %44
}

; Function Attrs: nounwind uwtable
define linkonce_odr dso_local void @_ZN11xercesc_2_524RefHashTableOfEnumeratorINS_15ComplexTypeInfoEE5ResetEv(ptr noundef nonnull align 8 dereferenceable(48) %0) unnamed_addr #5 comdat align 2 {
  %2 = getelementptr inbounds %"class.xercesc_2_5::RefHashTableOfEnumerator.25", ptr %0, i64 0, i32 3
  %3 = getelementptr inbounds %"class.xercesc_2_5::RefHashTableOfEnumerator.25", ptr %0, i64 0, i32 2
  store ptr null, ptr %3, align 8, !tbaa !233
  store i32 0, ptr %2, align 8, !tbaa !236
  %4 = getelementptr inbounds %"class.xercesc_2_5::RefHashTableOfEnumerator.25", ptr %0, i64 0, i32 4
  %5 = load ptr, ptr %4, align 8, !tbaa !234
  %6 = getelementptr inbounds %"class.xercesc_2_5::RefHashTableOf.27", ptr %5, i64 0, i32 3
  %7 = load i32, ptr %6, align 8, !tbaa !237
  %8 = icmp eq i32 %7, 0
  br i1 %8, label %22, label %9

9:                                                ; preds = %1
  %10 = getelementptr inbounds %"class.xercesc_2_5::RefHashTableOf.27", ptr %5, i64 0, i32 2
  %11 = load ptr, ptr %10, align 8, !tbaa !238
  br label %12

12:                                               ; preds = %18, %9
  %13 = phi i32 [ 0, %9 ], [ %19, %18 ]
  %14 = zext i32 %13 to i64
  %15 = getelementptr inbounds ptr, ptr %11, i64 %14
  %16 = load ptr, ptr %15, align 8, !tbaa !124
  %17 = icmp eq ptr %16, null
  br i1 %17, label %18, label %21

18:                                               ; preds = %12
  %19 = add nuw i32 %13, 1
  store i32 %19, ptr %2, align 8, !tbaa !236
  %20 = icmp eq i32 %19, %7
  br i1 %20, label %22, label %12

21:                                               ; preds = %12
  store ptr %16, ptr %3, align 8, !tbaa !233
  br label %22

22:                                               ; preds = %18, %1, %21
  ret void
}

; Function Attrs: uwtable
define linkonce_odr dso_local noundef ptr @_ZN11xercesc_2_524RefHashTableOfEnumeratorINS_15ComplexTypeInfoEE14nextElementKeyEv(ptr noundef nonnull align 8 dereferenceable(48) %0) local_unnamed_addr #2 comdat align 2 personality ptr @__gxx_personality_v0 {
  %2 = load ptr, ptr %0, align 8, !tbaa !172
  %3 = getelementptr inbounds ptr, ptr %2, i64 2
  %4 = load ptr, ptr %3, align 8
  %5 = tail call noundef zeroext i1 %4(ptr noundef nonnull align 8 dereferenceable(48) %0)
  br i1 %5, label %13, label %6

6:                                                ; preds = %1
  %7 = tail call ptr @__cxa_allocate_exception(i64 48) #6
  %8 = getelementptr inbounds %"class.xercesc_2_5::RefHashTableOfEnumerator.25", ptr %0, i64 0, i32 5
  %9 = load ptr, ptr %8, align 8, !tbaa !235
  invoke void @_ZN11xercesc_2_522NoSuchElementExceptionC2EPKcjNS_10XMLExcepts5CodesEPNS_13MemoryManagerE(ptr noundef nonnull align 8 dereferenceable(48) %7, ptr noundef nonnull @.str.2, i32 noundef 690, i32 noundef 30, ptr noundef %9)
          to label %10 unwind label %11

10:                                               ; preds = %6
  tail call void @__cxa_throw(ptr nonnull %7, ptr nonnull @_ZTIN11xercesc_2_522NoSuchElementExceptionE, ptr nonnull @_ZN11xercesc_2_512XMLExceptionD2Ev) #8
  unreachable

11:                                               ; preds = %6
  %12 = landingpad { ptr, i32 }
          cleanup
  tail call void @__cxa_free_exception(ptr %7) #6
  resume { ptr, i32 } %12

13:                                               ; preds = %1
  %14 = getelementptr inbounds %"class.xercesc_2_5::RefHashTableOfEnumerator.25", ptr %0, i64 0, i32 2
  %15 = load ptr, ptr %14, align 8, !tbaa !233
  %16 = icmp eq ptr %15, null
  br i1 %16, label %21, label %17

17:                                               ; preds = %13
  %18 = getelementptr inbounds %"struct.xercesc_2_5::RefHashTableBucketElem.60", ptr %15, i64 0, i32 1
  %19 = load ptr, ptr %18, align 8, !tbaa !241
  store ptr %19, ptr %14, align 8, !tbaa !233
  %20 = icmp eq ptr %19, null
  br i1 %20, label %21, label %43

21:                                               ; preds = %17, %13
  %22 = getelementptr inbounds %"class.xercesc_2_5::RefHashTableOfEnumerator.25", ptr %0, i64 0, i32 3
  %23 = load i32, ptr %22, align 8, !tbaa !236
  %24 = add i32 %23, 1
  store i32 %24, ptr %22, align 8, !tbaa !236
  %25 = getelementptr inbounds %"class.xercesc_2_5::RefHashTableOfEnumerator.25", ptr %0, i64 0, i32 4
  %26 = load ptr, ptr %25, align 8, !tbaa !234
  %27 = getelementptr inbounds %"class.xercesc_2_5::RefHashTableOf.27", ptr %26, i64 0, i32 3
  %28 = load i32, ptr %27, align 8, !tbaa !237
  %29 = icmp eq i32 %24, %28
  br i1 %29, label %43, label %30

30:                                               ; preds = %21
  %31 = getelementptr inbounds %"class.xercesc_2_5::RefHashTableOf.27", ptr %26, i64 0, i32 2
  %32 = load ptr, ptr %31, align 8, !tbaa !238
  br label %33

33:                                               ; preds = %39, %30
  %34 = phi i32 [ %24, %30 ], [ %40, %39 ]
  %35 = zext i32 %34 to i64
  %36 = getelementptr inbounds ptr, ptr %32, i64 %35
  %37 = load ptr, ptr %36, align 8, !tbaa !124
  %38 = icmp eq ptr %37, null
  br i1 %38, label %39, label %42

39:                                               ; preds = %33
  %40 = add i32 %34, 1
  store i32 %40, ptr %22, align 8, !tbaa !236
  %41 = icmp eq i32 %40, %28
  br i1 %41, label %43, label %33

42:                                               ; preds = %33
  store ptr %37, ptr %14, align 8, !tbaa !233
  br label %43

43:                                               ; preds = %39, %17, %21, %42
  %44 = getelementptr inbounds %"struct.xercesc_2_5::RefHashTableBucketElem.60", ptr %15, i64 0, i32 2
  %45 = load ptr, ptr %44, align 8, !tbaa !242
  ret ptr %45
}

declare noundef zeroext i1 @_ZN11xercesc_2_517XObjectComparator12isEquivalentEPNS_15ComplexTypeInfoES2_(ptr noundef, ptr noundef) local_unnamed_addr #1

; Function Attrs: uwtable
define linkonce_odr dso_local void @_ZN11xercesc_2_524RefHashTableOfEnumeratorINS_15ComplexTypeInfoEED2Ev(ptr noundef nonnull align 8 dereferenceable(48) %0) unnamed_addr #2 comdat align 2 personality ptr @__gxx_personality_v0 {
  store ptr getelementptr inbounds ({ [7 x ptr] }, ptr @_ZTVN11xercesc_2_524RefHashTableOfEnumeratorINS_15ComplexTypeInfoEEE, i64 0, inrange i32 0, i64 2), ptr %0, align 8, !tbaa !172
  %2 = getelementptr inbounds %"class.xercesc_2_5::RefHashTableOfEnumerator.25", ptr %0, i64 0, i32 1
  %3 = load i8, ptr %2, align 8, !tbaa !230, !range !187, !noundef !188
  %4 = icmp eq i8 %3, 0
  br i1 %4, label %72, label %5

5:                                                ; preds = %1
  %6 = getelementptr inbounds %"class.xercesc_2_5::RefHashTableOfEnumerator.25", ptr %0, i64 0, i32 4
  %7 = load ptr, ptr %6, align 8, !tbaa !234
  %8 = icmp eq ptr %7, null
  br i1 %8, label %72, label %9

9:                                                ; preds = %5
  %10 = getelementptr inbounds %"class.xercesc_2_5::RefHashTableOf.27", ptr %7, i64 0, i32 3
  %11 = load i32, ptr %10, align 8, !tbaa !237
  %12 = icmp eq i32 %11, 0
  br i1 %12, label %49, label %13

13:                                               ; preds = %9
  %14 = getelementptr inbounds %"class.xercesc_2_5::RefHashTableOf.27", ptr %7, i64 0, i32 2
  %15 = getelementptr inbounds %"class.xercesc_2_5::RefHashTableOf.27", ptr %7, i64 0, i32 1
  br label %16

16:                                               ; preds = %42, %13
  %17 = phi i32 [ %11, %13 ], [ %43, %42 ]
  %18 = phi i64 [ 0, %13 ], [ %46, %42 ]
  %19 = load ptr, ptr %14, align 8, !tbaa !238
  %20 = getelementptr inbounds ptr, ptr %19, i64 %18
  %21 = load ptr, ptr %20, align 8, !tbaa !124
  %22 = icmp eq ptr %21, null
  br i1 %22, label %42, label %23

23:                                               ; preds = %16, %37
  %24 = phi ptr [ %26, %37 ], [ %21, %16 ]
  %25 = getelementptr inbounds %"struct.xercesc_2_5::RefHashTableBucketElem.60", ptr %24, i64 0, i32 1
  %26 = load ptr, ptr %25, align 8, !tbaa !241
  %27 = load i8, ptr %15, align 8, !tbaa !243, !range !187, !noundef !188
  %28 = icmp eq i8 %27, 0
  br i1 %28, label %36, label %29

29:                                               ; preds = %23
  %30 = load ptr, ptr %24, align 8, !tbaa !239
  %31 = icmp eq ptr %30, null
  br i1 %31, label %36, label %32

32:                                               ; preds = %29
  %33 = load ptr, ptr %30, align 8, !tbaa !172
  %34 = getelementptr inbounds ptr, ptr %33, i64 1
  %35 = load ptr, ptr %34, align 8
  invoke void %35(ptr noundef nonnull align 8 dereferenceable(184) %30)
          to label %36 unwind label %66

36:                                               ; preds = %32, %29, %23
  invoke void @_ZN11xercesc_2_57XMemorydlEPv(ptr noundef nonnull %24)
          to label %37 unwind label %66

37:                                               ; preds = %36
  %38 = icmp eq ptr %26, null
  br i1 %38, label %39, label %23

39:                                               ; preds = %37
  %40 = load ptr, ptr %14, align 8, !tbaa !238
  %41 = load i32, ptr %10, align 8, !tbaa !237
  br label %42

42:                                               ; preds = %39, %16
  %43 = phi i32 [ %41, %39 ], [ %17, %16 ]
  %44 = phi ptr [ %40, %39 ], [ %19, %16 ]
  %45 = getelementptr inbounds ptr, ptr %44, i64 %18
  store ptr null, ptr %45, align 8, !tbaa !124
  %46 = add nuw nsw i64 %18, 1
  %47 = zext i32 %43 to i64
  %48 = icmp ult i64 %46, %47
  br i1 %48, label %16, label %49

49:                                               ; preds = %42, %9
  %50 = getelementptr inbounds %"class.xercesc_2_5::RefHashTableOf.27", ptr %7, i64 0, i32 5
  store i32 0, ptr %50, align 8, !tbaa !244
  %51 = load ptr, ptr %7, align 8, !tbaa !228
  %52 = getelementptr inbounds %"class.xercesc_2_5::RefHashTableOf.27", ptr %7, i64 0, i32 2
  %53 = load ptr, ptr %52, align 8, !tbaa !238
  %54 = load ptr, ptr %51, align 8, !tbaa !172
  %55 = getelementptr inbounds ptr, ptr %54, i64 3
  %56 = load ptr, ptr %55, align 8
  invoke void %56(ptr noundef nonnull align 8 dereferenceable(8) %51, ptr noundef %53)
          to label %57 unwind label %68

57:                                               ; preds = %49
  %58 = getelementptr inbounds %"class.xercesc_2_5::RefHashTableOf.27", ptr %7, i64 0, i32 6
  %59 = load ptr, ptr %58, align 8, !tbaa !245
  %60 = icmp eq ptr %59, null
  br i1 %60, label %65, label %61

61:                                               ; preds = %57
  %62 = load ptr, ptr %59, align 8, !tbaa !172
  %63 = getelementptr inbounds ptr, ptr %62, i64 3
  %64 = load ptr, ptr %63, align 8
  invoke void %64(ptr noundef nonnull align 8 dereferenceable(8) %59)
          to label %65 unwind label %68

65:                                               ; preds = %57, %61
  tail call void @_ZN11xercesc_2_57XMemorydlEPv(ptr noundef nonnull %7)
  br label %72

66:                                               ; preds = %32, %36
  %67 = landingpad { ptr, i32 }
          cleanup
  br label %70

68:                                               ; preds = %49, %61
  %69 = landingpad { ptr, i32 }
          cleanup
  br label %70

70:                                               ; preds = %68, %66
  %71 = phi { ptr, i32 } [ %67, %66 ], [ %69, %68 ]
  invoke void @_ZN11xercesc_2_57XMemorydlEPv(ptr noundef nonnull %7)
          to label %73 unwind label %74

72:                                               ; preds = %65, %5, %1
  ret void

73:                                               ; preds = %70
  resume { ptr, i32 } %71

74:                                               ; preds = %70
  %75 = landingpad { ptr, i32 }
          catch ptr null
  %76 = extractvalue { ptr, i32 } %75, 0
  tail call void @__clang_call_terminate(ptr %76) #7
  unreachable
}

; Function Attrs: uwtable
define dso_local noundef zeroext i1 @_ZN11xercesc_2_519XTemplateComparator12isEquivalentEPNS_14RefHashTableOfINS_15XercesGroupInfoEEES4_(ptr noundef %0, ptr noundef %1) local_unnamed_addr #2 align 2 personality ptr @__gxx_personality_v0 {
  %3 = alloca i32, align 4
  %4 = alloca i32, align 4
  %5 = alloca %"class.xercesc_2_5::RefHashTableOfEnumerator.28", align 8
  %6 = alloca %"class.xercesc_2_5::RefHashTableOfEnumerator.28", align 8
  %7 = icmp eq ptr %0, %1
  br i1 %7, label %166, label %8

8:                                                ; preds = %2
  %9 = icmp ne ptr %0, null
  %10 = icmp ne ptr %1, null
  %11 = xor i1 %9, %10
  br i1 %11, label %166, label %12

12:                                               ; preds = %8
  call void @llvm.lifetime.start.p0(i64 48, ptr nonnull %5) #6
  %13 = load ptr, ptr %0, align 8, !tbaa !246
  store ptr getelementptr inbounds ({ [7 x ptr] }, ptr @_ZTVN11xercesc_2_524RefHashTableOfEnumeratorINS_15XercesGroupInfoEEE, i64 0, inrange i32 0, i64 2), ptr %5, align 8, !tbaa !172
  %14 = getelementptr inbounds %"class.xercesc_2_5::RefHashTableOfEnumerator.28", ptr %5, i64 0, i32 1
  store i8 0, ptr %14, align 8, !tbaa !248
  %15 = getelementptr inbounds %"class.xercesc_2_5::RefHashTableOfEnumerator.28", ptr %5, i64 0, i32 2
  store ptr null, ptr %15, align 8, !tbaa !251
  %16 = getelementptr inbounds %"class.xercesc_2_5::RefHashTableOfEnumerator.28", ptr %5, i64 0, i32 3
  %17 = getelementptr inbounds %"class.xercesc_2_5::RefHashTableOfEnumerator.28", ptr %5, i64 0, i32 4
  store ptr %0, ptr %17, align 8, !tbaa !252
  %18 = getelementptr inbounds %"class.xercesc_2_5::RefHashTableOfEnumerator.28", ptr %5, i64 0, i32 5
  store ptr %13, ptr %18, align 8, !tbaa !253
  store i32 0, ptr %16, align 8, !tbaa !254
  %19 = getelementptr inbounds %"class.xercesc_2_5::RefHashTableOf.30", ptr %0, i64 0, i32 3
  %20 = load i32, ptr %19, align 8, !tbaa !255
  %21 = icmp eq i32 %20, 0
  br i1 %21, label %36, label %22

22:                                               ; preds = %12
  %23 = getelementptr inbounds %"class.xercesc_2_5::RefHashTableOf.30", ptr %0, i64 0, i32 2
  %24 = load ptr, ptr %23, align 8, !tbaa !256
  %25 = zext i32 %20 to i64
  br label %26

26:                                               ; preds = %31, %22
  %27 = phi i64 [ %32, %31 ], [ 0, %22 ]
  %28 = getelementptr inbounds ptr, ptr %24, i64 %27
  %29 = load ptr, ptr %28, align 8, !tbaa !124
  %30 = icmp eq ptr %29, null
  br i1 %30, label %31, label %35

31:                                               ; preds = %26
  %32 = add nuw nsw i64 %27, 1
  %33 = trunc i64 %32 to i32
  store i32 %33, ptr %16, align 8, !tbaa !254
  %34 = icmp eq i64 %32, %25
  br i1 %34, label %36, label %26

35:                                               ; preds = %26
  store ptr %29, ptr %15, align 8, !tbaa !251
  br label %36

36:                                               ; preds = %31, %12, %35
  %37 = phi ptr [ %29, %35 ], [ null, %12 ], [ null, %31 ]
  br label %38

38:                                               ; preds = %36, %50
  %39 = phi ptr [ %52, %50 ], [ %37, %36 ]
  %40 = phi i32 [ %51, %50 ], [ 0, %36 ]
  %41 = icmp eq ptr %39, null
  br i1 %41, label %42, label %48

42:                                               ; preds = %38
  %43 = load i32, ptr %16, align 8, !tbaa !254
  %44 = load ptr, ptr %17, align 8, !tbaa !252
  %45 = getelementptr inbounds %"class.xercesc_2_5::RefHashTableOf.30", ptr %44, i64 0, i32 3
  %46 = load i32, ptr %45, align 8, !tbaa !255
  %47 = icmp eq i32 %43, %46
  br i1 %47, label %55, label %48

48:                                               ; preds = %38, %42
  %49 = invoke noundef nonnull align 8 dereferenceable(56) ptr @_ZN11xercesc_2_524RefHashTableOfEnumeratorINS_15XercesGroupInfoEE11nextElementEv(ptr noundef nonnull align 8 dereferenceable(48) %5)
          to label %50 unwind label %53

50:                                               ; preds = %48
  %51 = add nuw nsw i32 %40, 1
  %52 = load ptr, ptr %15, align 8, !tbaa !251
  br label %38

53:                                               ; preds = %48
  %54 = landingpad { ptr, i32 }
          cleanup
  br label %163

55:                                               ; preds = %42
  call void @llvm.lifetime.start.p0(i64 48, ptr nonnull %6) #6
  %56 = load ptr, ptr %1, align 8, !tbaa !246
  store ptr getelementptr inbounds ({ [7 x ptr] }, ptr @_ZTVN11xercesc_2_524RefHashTableOfEnumeratorINS_15XercesGroupInfoEEE, i64 0, inrange i32 0, i64 2), ptr %6, align 8, !tbaa !172
  %57 = getelementptr inbounds %"class.xercesc_2_5::RefHashTableOfEnumerator.28", ptr %6, i64 0, i32 1
  store i8 0, ptr %57, align 8, !tbaa !248
  %58 = getelementptr inbounds %"class.xercesc_2_5::RefHashTableOfEnumerator.28", ptr %6, i64 0, i32 2
  store ptr null, ptr %58, align 8, !tbaa !251
  %59 = getelementptr inbounds %"class.xercesc_2_5::RefHashTableOfEnumerator.28", ptr %6, i64 0, i32 3
  %60 = getelementptr inbounds %"class.xercesc_2_5::RefHashTableOfEnumerator.28", ptr %6, i64 0, i32 4
  store ptr %1, ptr %60, align 8, !tbaa !252
  %61 = getelementptr inbounds %"class.xercesc_2_5::RefHashTableOfEnumerator.28", ptr %6, i64 0, i32 5
  store ptr %56, ptr %61, align 8, !tbaa !253
  store i32 0, ptr %59, align 8, !tbaa !254
  %62 = getelementptr inbounds %"class.xercesc_2_5::RefHashTableOf.30", ptr %1, i64 0, i32 3
  %63 = load i32, ptr %62, align 8, !tbaa !255
  %64 = icmp eq i32 %63, 0
  br i1 %64, label %79, label %65

65:                                               ; preds = %55
  %66 = getelementptr inbounds %"class.xercesc_2_5::RefHashTableOf.30", ptr %1, i64 0, i32 2
  %67 = load ptr, ptr %66, align 8, !tbaa !256
  %68 = zext i32 %63 to i64
  br label %69

69:                                               ; preds = %74, %65
  %70 = phi i64 [ %75, %74 ], [ 0, %65 ]
  %71 = getelementptr inbounds ptr, ptr %67, i64 %70
  %72 = load ptr, ptr %71, align 8, !tbaa !124
  %73 = icmp eq ptr %72, null
  br i1 %73, label %74, label %78

74:                                               ; preds = %69
  %75 = add nuw nsw i64 %70, 1
  %76 = trunc i64 %75 to i32
  store i32 %76, ptr %59, align 8, !tbaa !254
  %77 = icmp eq i64 %75, %68
  br i1 %77, label %79, label %69

78:                                               ; preds = %69
  store ptr %72, ptr %58, align 8, !tbaa !251
  br label %79

79:                                               ; preds = %74, %55, %78
  %80 = phi ptr [ %72, %78 ], [ null, %55 ], [ null, %74 ]
  br label %81

81:                                               ; preds = %79, %93
  %82 = phi ptr [ %95, %93 ], [ %80, %79 ]
  %83 = phi i32 [ %94, %93 ], [ 0, %79 ]
  %84 = icmp eq ptr %82, null
  br i1 %84, label %85, label %91

85:                                               ; preds = %81
  %86 = load i32, ptr %59, align 8, !tbaa !254
  %87 = load ptr, ptr %60, align 8, !tbaa !252
  %88 = getelementptr inbounds %"class.xercesc_2_5::RefHashTableOf.30", ptr %87, i64 0, i32 3
  %89 = load i32, ptr %88, align 8, !tbaa !255
  %90 = icmp eq i32 %86, %89
  br i1 %90, label %100, label %91

91:                                               ; preds = %81, %85
  %92 = invoke noundef nonnull align 8 dereferenceable(56) ptr @_ZN11xercesc_2_524RefHashTableOfEnumeratorINS_15XercesGroupInfoEE11nextElementEv(ptr noundef nonnull align 8 dereferenceable(48) %6)
          to label %93 unwind label %98

93:                                               ; preds = %91
  %94 = add nuw nsw i32 %83, 1
  %95 = load ptr, ptr %58, align 8, !tbaa !251
  br label %81

96:                                               ; preds = %156
  %97 = landingpad { ptr, i32 }
          cleanup
  br label %161

98:                                               ; preds = %91
  %99 = landingpad { ptr, i32 }
          cleanup
  br label %158

100:                                              ; preds = %85
  %101 = icmp eq i32 %40, %83
  br i1 %101, label %102, label %156

102:                                              ; preds = %100
  store ptr null, ptr %15, align 8, !tbaa !251
  store i32 0, ptr %16, align 8, !tbaa !254
  %103 = load ptr, ptr %17, align 8, !tbaa !252
  %104 = getelementptr inbounds %"class.xercesc_2_5::RefHashTableOf.30", ptr %103, i64 0, i32 3
  %105 = load i32, ptr %104, align 8, !tbaa !255
  %106 = icmp eq i32 %105, 0
  br i1 %106, label %121, label %107

107:                                              ; preds = %102
  %108 = getelementptr inbounds %"class.xercesc_2_5::RefHashTableOf.30", ptr %103, i64 0, i32 2
  %109 = load ptr, ptr %108, align 8, !tbaa !256
  %110 = zext i32 %105 to i64
  br label %111

111:                                              ; preds = %116, %107
  %112 = phi i64 [ %117, %116 ], [ 0, %107 ]
  %113 = getelementptr inbounds ptr, ptr %109, i64 %112
  %114 = load ptr, ptr %113, align 8, !tbaa !124
  %115 = icmp eq ptr %114, null
  br i1 %115, label %116, label %120

116:                                              ; preds = %111
  %117 = add nuw nsw i64 %112, 1
  %118 = trunc i64 %117 to i32
  store i32 %118, ptr %16, align 8, !tbaa !254
  %119 = icmp eq i64 %117, %110
  br i1 %119, label %121, label %111

120:                                              ; preds = %111
  store ptr %114, ptr %15, align 8, !tbaa !251
  br label %121

121:                                              ; preds = %116, %102, %120
  br label %122

122:                                              ; preds = %121, %155
  %123 = load ptr, ptr %15, align 8, !tbaa !251
  %124 = icmp eq ptr %123, null
  br i1 %124, label %125, label %131

125:                                              ; preds = %122
  %126 = load i32, ptr %16, align 8, !tbaa !254
  %127 = load ptr, ptr %17, align 8, !tbaa !252
  %128 = getelementptr inbounds %"class.xercesc_2_5::RefHashTableOf.30", ptr %127, i64 0, i32 3
  %129 = load i32, ptr %128, align 8, !tbaa !255
  %130 = icmp eq i32 %126, %129
  br i1 %130, label %156, label %131

131:                                              ; preds = %122, %125
  %132 = invoke noundef ptr @_ZN11xercesc_2_524RefHashTableOfEnumeratorINS_15XercesGroupInfoEE14nextElementKeyEv(ptr noundef nonnull align 8 dereferenceable(48) %5)
          to label %133 unwind label %149

133:                                              ; preds = %131
  call void @llvm.lifetime.start.p0(i64 4, ptr nonnull %4) #6
  %134 = invoke noundef ptr @_ZN11xercesc_2_514RefHashTableOfINS_15XercesGroupInfoEE14findBucketElemEPKvRj(ptr noundef nonnull align 8 dereferenceable(48) %0, ptr noundef %132, ptr noundef nonnull align 4 dereferenceable(4) %4)
          to label %135 unwind label %151

135:                                              ; preds = %133
  %136 = icmp eq ptr %134, null
  br i1 %136, label %139, label %137

137:                                              ; preds = %135
  %138 = load ptr, ptr %134, align 8, !tbaa !257
  br label %139

139:                                              ; preds = %137, %135
  %140 = phi ptr [ %138, %137 ], [ null, %135 ]
  call void @llvm.lifetime.end.p0(i64 4, ptr nonnull %4) #6
  call void @llvm.lifetime.start.p0(i64 4, ptr nonnull %3) #6
  %141 = invoke noundef ptr @_ZN11xercesc_2_514RefHashTableOfINS_15XercesGroupInfoEE14findBucketElemEPKvRj(ptr noundef nonnull align 8 dereferenceable(48) %1, ptr noundef %132, ptr noundef nonnull align 4 dereferenceable(4) %3)
          to label %142 unwind label %153

142:                                              ; preds = %139
  %143 = icmp eq ptr %141, null
  br i1 %143, label %146, label %144

144:                                              ; preds = %142
  %145 = load ptr, ptr %141, align 8, !tbaa !257
  br label %146

146:                                              ; preds = %144, %142
  %147 = phi ptr [ %145, %144 ], [ null, %142 ]
  call void @llvm.lifetime.end.p0(i64 4, ptr nonnull %3) #6
  %148 = invoke noundef zeroext i1 @_ZN11xercesc_2_517XObjectComparator12isEquivalentEPNS_15XercesGroupInfoES2_(ptr noundef %140, ptr noundef %147)
          to label %155 unwind label %153

149:                                              ; preds = %131
  %150 = landingpad { ptr, i32 }
          cleanup
  br label %158

151:                                              ; preds = %133
  %152 = landingpad { ptr, i32 }
          cleanup
  br label %158

153:                                              ; preds = %139, %146
  %154 = landingpad { ptr, i32 }
          cleanup
  br label %158

155:                                              ; preds = %146
  br i1 %148, label %122, label %156

156:                                              ; preds = %125, %155, %100
  %157 = phi i1 [ false, %100 ], [ true, %125 ], [ false, %155 ]
  invoke void @_ZN11xercesc_2_524RefHashTableOfEnumeratorINS_15XercesGroupInfoEED2Ev(ptr noundef nonnull align 8 dereferenceable(48) %6)
          to label %160 unwind label %96

158:                                              ; preds = %149, %153, %151, %98
  %159 = phi { ptr, i32 } [ %99, %98 ], [ %150, %149 ], [ %154, %153 ], [ %152, %151 ]
  invoke void @_ZN11xercesc_2_524RefHashTableOfEnumeratorINS_15XercesGroupInfoEED2Ev(ptr noundef nonnull align 8 dereferenceable(48) %6)
          to label %161 unwind label %168

160:                                              ; preds = %156
  call void @llvm.lifetime.end.p0(i64 48, ptr nonnull %6) #6
  call void @_ZN11xercesc_2_524RefHashTableOfEnumeratorINS_15XercesGroupInfoEED2Ev(ptr noundef nonnull align 8 dereferenceable(48) %5)
  call void @llvm.lifetime.end.p0(i64 48, ptr nonnull %5) #6
  br label %166

161:                                              ; preds = %158, %96
  %162 = phi { ptr, i32 } [ %159, %158 ], [ %97, %96 ]
  call void @llvm.lifetime.end.p0(i64 48, ptr nonnull %6) #6
  br label %163

163:                                              ; preds = %161, %53
  %164 = phi { ptr, i32 } [ %54, %53 ], [ %162, %161 ]
  invoke void @_ZN11xercesc_2_524RefHashTableOfEnumeratorINS_15XercesGroupInfoEED2Ev(ptr noundef nonnull align 8 dereferenceable(48) %5)
          to label %165 unwind label %168

165:                                              ; preds = %163
  call void @llvm.lifetime.end.p0(i64 48, ptr nonnull %5) #6
  resume { ptr, i32 } %164

166:                                              ; preds = %8, %2, %160
  %167 = phi i1 [ %157, %160 ], [ true, %2 ], [ false, %8 ]
  ret i1 %167

168:                                              ; preds = %163, %158
  %169 = landingpad { ptr, i32 }
          catch ptr null
  %170 = extractvalue { ptr, i32 } %169, 0
  call void @__clang_call_terminate(ptr %170) #7
  unreachable
}

; Function Attrs: nounwind uwtable
define linkonce_odr dso_local noundef zeroext i1 @_ZNK11xercesc_2_524RefHashTableOfEnumeratorINS_15XercesGroupInfoEE15hasMoreElementsEv(ptr noundef nonnull align 8 dereferenceable(48) %0) unnamed_addr #5 comdat align 2 {
  %2 = getelementptr inbounds %"class.xercesc_2_5::RefHashTableOfEnumerator.28", ptr %0, i64 0, i32 2
  %3 = load ptr, ptr %2, align 8, !tbaa !251
  %4 = icmp eq ptr %3, null
  br i1 %4, label %5, label %13

5:                                                ; preds = %1
  %6 = getelementptr inbounds %"class.xercesc_2_5::RefHashTableOfEnumerator.28", ptr %0, i64 0, i32 3
  %7 = load i32, ptr %6, align 8, !tbaa !254
  %8 = getelementptr inbounds %"class.xercesc_2_5::RefHashTableOfEnumerator.28", ptr %0, i64 0, i32 4
  %9 = load ptr, ptr %8, align 8, !tbaa !252
  %10 = getelementptr inbounds %"class.xercesc_2_5::RefHashTableOf.30", ptr %9, i64 0, i32 3
  %11 = load i32, ptr %10, align 8, !tbaa !255
  %12 = icmp eq i32 %7, %11
  br i1 %12, label %14, label %13

13:                                               ; preds = %5, %1
  br label %14

14:                                               ; preds = %5, %13
  %15 = phi i1 [ true, %13 ], [ false, %5 ]
  ret i1 %15
}

; Function Attrs: uwtable
define linkonce_odr dso_local noundef nonnull align 8 dereferenceable(56) ptr @_ZN11xercesc_2_524RefHashTableOfEnumeratorINS_15XercesGroupInfoEE11nextElementEv(ptr noundef nonnull align 8 dereferenceable(48) %0) unnamed_addr #2 comdat align 2 personality ptr @__gxx_personality_v0 {
  %2 = load ptr, ptr %0, align 8, !tbaa !172
  %3 = getelementptr inbounds ptr, ptr %2, i64 2
  %4 = load ptr, ptr %3, align 8
  %5 = tail call noundef zeroext i1 %4(ptr noundef nonnull align 8 dereferenceable(48) %0)
  br i1 %5, label %13, label %6

6:                                                ; preds = %1
  %7 = tail call ptr @__cxa_allocate_exception(i64 48) #6
  %8 = getelementptr inbounds %"class.xercesc_2_5::RefHashTableOfEnumerator.28", ptr %0, i64 0, i32 5
  %9 = load ptr, ptr %8, align 8, !tbaa !253
  invoke void @_ZN11xercesc_2_522NoSuchElementExceptionC2EPKcjNS_10XMLExcepts5CodesEPNS_13MemoryManagerE(ptr noundef nonnull align 8 dereferenceable(48) %7, ptr noundef nonnull @.str.2, i32 noundef 674, i32 noundef 30, ptr noundef %9)
          to label %10 unwind label %11

10:                                               ; preds = %6
  tail call void @__cxa_throw(ptr nonnull %7, ptr nonnull @_ZTIN11xercesc_2_522NoSuchElementExceptionE, ptr nonnull @_ZN11xercesc_2_512XMLExceptionD2Ev) #8
  unreachable

11:                                               ; preds = %6
  %12 = landingpad { ptr, i32 }
          cleanup
  tail call void @__cxa_free_exception(ptr %7) #6
  resume { ptr, i32 } %12

13:                                               ; preds = %1
  %14 = getelementptr inbounds %"class.xercesc_2_5::RefHashTableOfEnumerator.28", ptr %0, i64 0, i32 2
  %15 = load ptr, ptr %14, align 8, !tbaa !251
  %16 = icmp eq ptr %15, null
  br i1 %16, label %21, label %17

17:                                               ; preds = %13
  %18 = getelementptr inbounds %"struct.xercesc_2_5::RefHashTableBucketElem.61", ptr %15, i64 0, i32 1
  %19 = load ptr, ptr %18, align 8, !tbaa !259
  store ptr %19, ptr %14, align 8, !tbaa !251
  %20 = icmp eq ptr %19, null
  br i1 %20, label %21, label %43

21:                                               ; preds = %17, %13
  %22 = getelementptr inbounds %"class.xercesc_2_5::RefHashTableOfEnumerator.28", ptr %0, i64 0, i32 3
  %23 = load i32, ptr %22, align 8, !tbaa !254
  %24 = add i32 %23, 1
  store i32 %24, ptr %22, align 8, !tbaa !254
  %25 = getelementptr inbounds %"class.xercesc_2_5::RefHashTableOfEnumerator.28", ptr %0, i64 0, i32 4
  %26 = load ptr, ptr %25, align 8, !tbaa !252
  %27 = getelementptr inbounds %"class.xercesc_2_5::RefHashTableOf.30", ptr %26, i64 0, i32 3
  %28 = load i32, ptr %27, align 8, !tbaa !255
  %29 = icmp eq i32 %24, %28
  br i1 %29, label %43, label %30

30:                                               ; preds = %21
  %31 = getelementptr inbounds %"class.xercesc_2_5::RefHashTableOf.30", ptr %26, i64 0, i32 2
  %32 = load ptr, ptr %31, align 8, !tbaa !256
  br label %33

33:                                               ; preds = %39, %30
  %34 = phi i32 [ %24, %30 ], [ %40, %39 ]
  %35 = zext i32 %34 to i64
  %36 = getelementptr inbounds ptr, ptr %32, i64 %35
  %37 = load ptr, ptr %36, align 8, !tbaa !124
  %38 = icmp eq ptr %37, null
  br i1 %38, label %39, label %42

39:                                               ; preds = %33
  %40 = add i32 %34, 1
  store i32 %40, ptr %22, align 8, !tbaa !254
  %41 = icmp eq i32 %40, %28
  br i1 %41, label %43, label %33

42:                                               ; preds = %33
  store ptr %37, ptr %14, align 8, !tbaa !251
  br label %43

43:                                               ; preds = %39, %17, %21, %42
  %44 = load ptr, ptr %15, align 8, !tbaa !257
  ret ptr %44
}

; Function Attrs: nounwind uwtable
define linkonce_odr dso_local void @_ZN11xercesc_2_524RefHashTableOfEnumeratorINS_15XercesGroupInfoEE5ResetEv(ptr noundef nonnull align 8 dereferenceable(48) %0) unnamed_addr #5 comdat align 2 {
  %2 = getelementptr inbounds %"class.xercesc_2_5::RefHashTableOfEnumerator.28", ptr %0, i64 0, i32 3
  %3 = getelementptr inbounds %"class.xercesc_2_5::RefHashTableOfEnumerator.28", ptr %0, i64 0, i32 2
  store ptr null, ptr %3, align 8, !tbaa !251
  store i32 0, ptr %2, align 8, !tbaa !254
  %4 = getelementptr inbounds %"class.xercesc_2_5::RefHashTableOfEnumerator.28", ptr %0, i64 0, i32 4
  %5 = load ptr, ptr %4, align 8, !tbaa !252
  %6 = getelementptr inbounds %"class.xercesc_2_5::RefHashTableOf.30", ptr %5, i64 0, i32 3
  %7 = load i32, ptr %6, align 8, !tbaa !255
  %8 = icmp eq i32 %7, 0
  br i1 %8, label %22, label %9

9:                                                ; preds = %1
  %10 = getelementptr inbounds %"class.xercesc_2_5::RefHashTableOf.30", ptr %5, i64 0, i32 2
  %11 = load ptr, ptr %10, align 8, !tbaa !256
  br label %12

12:                                               ; preds = %18, %9
  %13 = phi i32 [ 0, %9 ], [ %19, %18 ]
  %14 = zext i32 %13 to i64
  %15 = getelementptr inbounds ptr, ptr %11, i64 %14
  %16 = load ptr, ptr %15, align 8, !tbaa !124
  %17 = icmp eq ptr %16, null
  br i1 %17, label %18, label %21

18:                                               ; preds = %12
  %19 = add nuw i32 %13, 1
  store i32 %19, ptr %2, align 8, !tbaa !254
  %20 = icmp eq i32 %19, %7
  br i1 %20, label %22, label %12

21:                                               ; preds = %12
  store ptr %16, ptr %3, align 8, !tbaa !251
  br label %22

22:                                               ; preds = %18, %1, %21
  ret void
}

; Function Attrs: uwtable
